ccopy_reg
_reconstructor
p0
(crizzo
RizzoSignature
p1
c__builtin__
object
p2
Ntp3
Rp4
(dp5
S'formal'
p6
(dp7
L218414340L
I1074243524
sL3346904952L
I1074243812
sL3283517118L
I1074236364
sL2647862233L
I1074271656
sL1787488902L
I1074239944
sL392896870L
I1074239992
sL3839347161L
I1074267992
sL2210518222L
I1074241116
sL2231068148L
I1074272852
sL2969932054L
I1074270508
sL3493498926L
I1074242108
sL2041884577L
I1074236280
sL1433108606L
I1074240544
sL4152448918L
I1074270376
sL2393451953L
I1074268048
sL2726888339L
I1074241784
sL977222436L
I1074239132
sL638564372L
I1074270568
sL443487603L
I1074270464
sL1815150096L
I1074267888
sL1296434798L
I1074239828
sL398739693L
I1074243432
sL1651630424L
I1074271876
sL2827497894L
I1074271516
sL1890392450L
I1074238068
sL2627623086L
I1074235408
sL2499872309L
I1074242576
sL2040072365L
I1074269800
sL1234445219L
I1074242208
sL906609214L
I1074243356
sL1200556984L
I1074269616
sL2160360578L
I1074272520
sL3034745514L
I1074273332
sL2906223984L
I1074268840
sL1904560840L
I1074273300
sL1560110508L
I1074240248
sL150065059L
I1074271836
sL465199593L
I1074236312
sL2418428789L
I1074235576
sL784364183L
I1074272780
sL4005906845L
I1074269172
sL309179188L
I1074243328
sL2096825761L
I1074236736
sL2136341262L
I1074234516
sL1442377635L
I1074271364
sL3938845594L
I1074235088
sL280539879L
I1074236972
sL676649270L
I1074270164
sL1851959297L
I1074243372
sL4120440059L
I1074270100
sL3702197710L
I1074239352
sL676354363L
I1074272044
sL1640514724L
I1074271292
sL1926964911L
I1074268604
sL442854674L
I1074269996
sL3500779479L
I1074240108
sL100145287L
I1074242260
sL3067327568L
I1074238584
sL1583848928L
I1074269656
sL1656326193L
I1074239444
sL136661932L
I1074271744
sL4170532889L
I1074238596
sL3234108488L
I1074242488
sL2703676072L
I1074236452
sL2648287817L
I1074235492
sL1013065465L
I1074269216
sL759108515L
I1074242684
sL183695447L
I1074235528
sL37224585L
I1074237172
sL1521400349L
I1074268280
sL1013471709L
I1074240380
sL3846817535L
I1074236584
sL1868338154L
I1074267860
sL3780307429L
I1074239608
sL657113245L
I1074237280
sL2049306781L
I1074243704
sL1149680711L
I1074236788
sL4031485321L
I1074238408
sL2402411765L
I1074234444
sL1441946166L
I1074237028
sL1396453881L
I1074235616
sL1851461534L
I1074268008
sL2824673947L
I1074239424
sL2355868064L
I1074270448
sL2432257846L
I1074241768
sL1772577399L
I1074240676
sL1069234792L
I1074237752
sL3752857699L
I1074240568
sL4215802768L
I1074239088
sL229432181L
I1074242524
sL2263182908L
I1074237164
sL46360601L
I1074243388
sL1452694088L
I1074234332
sL3123907283L
I1074270552
sL3975559703L
I1074238188
sL2804501195L
I1074235544
sL2465355543L
I1074240752
sL3825584623L
I1074270964
sL4239056193L
I1074270320
sL4109328644L
I1074271020
sL2136231610L
I1074268336
sL687451159L
I1074270348
sL3667831665L
I1074236260
sL3738658343L
I1074268500
sL1123787791L
I1074236548
sL4258801710L
I1074235260
sL240369573L
I1074234312
sL937046316L
I1074271120
sL3745020111L
I1074267936
sL1786186381L
I1074238156
sL51342836L
I1074268872
sL1793191962L
I1074271336
sL596419696L
I1074269932
sL1642096926L
I1074238804
ssS'immediates'
p8
(dp9
sS'formaldups'
p10
c__builtin__
set
p11
((lp12
tp13
Rp14
sS'stringdups'
p15
g11
((lp16
tp17
Rp18
sS'fuzzydups'
p19
g11
((lp20
tp21
Rp22
sS'strings'
p23
(dp24
sS'functions'
p25
(dp26
I1074272520
(Vrtc_vddsdio_get_config
p27
(lp28
(L3065037391L
L0L
(lp29
(lp30
tp31
a(L2213647405L
L0L
(lp32
(lp33
tp34
a(L661257831L
L0L
(lp35
(lp36
tp37
a(L973886798L
L0L
(lp38
(lp39
tp40
a(L1794390294L
L0L
(lp41
(lp42
tp43
a(L1769894630L
L0L
(lp44
(lp45
tp46
a(L3360570486L
L0L
(lp47
(lp48
tp49
atp50
sI1074272780
(Vrtc_vddsdio_set_config
p51
(lp52
(L1295849403L
L0L
(lp53
(lp54
tp55
atp56
sI1074243328
(Vrtc_wdt_get_protect_status
p57
(lp58
(L2101722171L
L0L
(lp59
(lp60
tp61
atp62
sI1074270464
(Vrtc_clk_slow_freq_get_hz
p63
(lp64
(L2601977293L
L3785322319L
(lp65
(lp66
Vrtc_clk_slow_freq_get
p67
atp68
a(L2902417580L
L0L
(lp69
(lp70
tp71
a(L3020187L
L0L
(lp72
(lp73
tp74
a(L106L
L0L
(lp75
(lp76
tp77
a(L2629440508L
L0L
(lp78
(lp79
tp80
a(L1392440555L
L0L
(lp81
(lp82
tp83
a(L2993202392L
L0L
(lp84
(lp85
tp86
a(L1884487936L
L0L
(lp87
(lp88
tp89
atp90
sI1074271744
(Vrtc_clk_cpu_freq_set_config
p91
(lp92
(L2158835986L
L3785322319L
(lp93
(lp94
Vrtc_clk_xtal_freq_get
p95
atp96
a(L1739379997L
L1880226080L
(lp97
(lp98
Vrtc_clk_cpu_freq_to_xtal
p99
aVrtc_clk_wait_for_slow_cycle
p100
atp101
a(L3028464L
L0L
(lp102
(lp103
tp104
a(L94425498L
L3785322319L
(lp105
(lp106
Vrtc_clk_bbpll_disable
p107
atp108
a(L3978916712L
L0L
(lp109
(lp110
tp111
a(L2977209154L
L0L
(lp112
(lp113
tp114
a(L540421064L
L3785322319L
(lp115
(lp116
Vrtc_clk_cpu_freq_to_xtal
p117
atp118
a(L3028464L
L0L
(lp119
(lp120
tp121
a(L2697686144L
L1157885199L
(lp122
(lp123
Vrtc_clk_bbpll_enable
p124
aVrtc_clk_wait_for_slow_cycle
p125
aVrtc_clk_xtal_freq_get
p126
aVrtc_clk_bbpll_configure
p127
aVrtc_clk_cpu_freq_to_pll_mhz
p128
atp129
a(L3028464L
L0L
(lp130
(lp131
tp132
a(L94425498L
L3785322319L
(lp133
(lp134
Vrtc_clk_cpu_freq_to_8m
p135
atp136
a(L3360570486L
L0L
(lp137
(lp138
tp139
atp140
sI1074271516
(Vrtc_clk_cpu_freq_to_pll_mhz
p141
(lp142
(L63170135L
L0L
(lp143
(lp144
tp145
a(L1541996779L
L0L
(lp146
(lp147
tp148
a(L1546614384L
L0L
(lp149
(lp150
tp151
a(L471221287L
L1880226080L
(lp152
(lp153
Vesp_log_early_timestamp
p154
aVabort
p155
atp156
a(L2574574151L
L0L
(lp157
(lp158
tp159
a(L2281171144L
L0L
(lp160
(lp161
tp162
a(L3111319300L
L0L
(lp163
(lp164
tp165
a(L1998546707L
L1880226080L
(lp166
(lp167
Vrtc_clk_apb_freq_update
p168
aVrtc_clk_wait_for_slow_cycle
p169
atp170
atp171
sI1074235408
(Vesp_cpu_unstall
p172
(lp173
(L4037466968L
L0L
(lp174
(lp175
tp176
a(L3667099036L
L0L
(lp177
(lp178
tp179
a(L2663459689L
L0L
(lp180
(lp181
tp182
atp183
sI1074242576
(Vesp_rom_spiflash_unlock
p184
(lp185
(L3379908570L
L1880226080L
(lp186
(lp187
Vesp_rom_spiflash_wait_idle
p188
aVesp_rom_spiflash_read_statushigh
p189
atp190
a(L3941898101L
L3785322319L
(lp191
(lp192
Vesp_rom_spiflash_wait_idle
p193
atp194
a(L1904270500L
L0L
(lp195
(lp196
tp197
a(L2310141615L
L1880226080L
(lp198
(lp199
Vesp_rom_spiflash_wait_idle
p200
aVesp_rom_spiflash_write_status
p201
atp202
a(L3880706073L
L0L
(lp203
(lp204
tp205
a(L2258688483L
L0L
(lp206
(lp207
tp208
a(L3360570486L
L0L
(lp209
(lp210
tp211
atp212
sI1074243356
(Vrtc_wdt_protect_off
p213
(lp214
(L2461236325L
L0L
(lp215
(lp216
tp217
atp218
sI1074273300
(Vrtc_clk_cal_ratio
p219
(lp220
(L1747571394L
L1880226080L
(lp221
(lp222
Vrtc_clk_cal_internal
p223
aV__udivdi3
p224
atp225
atp226
sI1074236452
(Vbootloader_common_check_chip_validity
p227
(lp228
(L1394144919L
L0L
(lp229
(lp230
tp231
a(L854221752L
L3785322319L
(lp232
(lp233
Vesp_log_early_timestamp
p234
atp235
a(L2258718273L
L0L
(lp236
(lp237
tp238
a(L3137904887L
L3785322319L
(lp239
(lp240
Vbootloader_common_get_chip_revision
p241
atp242
a(L763372986L
L3785322319L
(lp243
(lp244
Vesp_log_early_timestamp
p245
atp246
a(L2983970029L
L0L
(lp247
(lp248
tp249
atp250
sI1074269996
(Vrtc_clk_bbpll_enable
p251
(lp252
(L1020108295L
L0L
(lp253
(lp254
tp255
atp256
sI1074270508
(Vrtc_clk_fast_freq_set
p257
(lp258
(L1549460858L
L0L
(lp259
(lp260
tp261
atp262
sI1074271020
(Vrtc_clk_cpu_freq_mhz_to_config
p263
(lp264
(L2601984125L
L3785322319L
(lp265
(lp266
Vrtc_clk_xtal_freq_get
p267
atp268
a(L608772507L
L0L
(lp269
(lp270
tp271
a(L3263839434L
L0L
(lp272
(lp273
tp274
a(L2762074623L
L0L
(lp275
(lp276
tp277
a(L1541996779L
L0L
(lp278
(lp279
tp280
a(L1546614651L
L0L
(lp281
(lp282
tp283
a(L1555485793L
L0L
(lp284
(lp285
tp286
a(L1695987314L
L0L
(lp287
(lp288
tp289
a(L3652406074L
L0L
(lp290
(lp291
tp292
a(L260454862L
L0L
(lp293
(lp294
tp295
a(L2993202392L
L0L
(lp296
(lp297
tp298
a(L2993202392L
L0L
(lp299
(lp300
tp301
atp302
sI1074272044
(Vrtc_clk_init
p303
(lp304
(L4125504935L
L0L
(lp305
(lp306
tp307
a(L2549152574L
L3785322319L
(lp308
(lp309
Vrtc_clk_cpu_freq_to_xtal
p310
atp311
a(L3672956110L
L0L
(lp312
(lp313
tp314
a(L2247971255L
L0L
(lp315
(lp316
tp317
a(L3224614952L
L0L
(lp318
(lp319
tp320
a(L1299866312L
L0L
(lp321
(lp322
tp323
a(L1299866312L
L0L
(lp324
(lp325
tp326
a(L1182811811L
L0L
(lp327
(lp328
tp329
a(L3020204L
L0L
(lp330
(lp331
tp332
a(L1849746773L
L3785322319L
(lp333
(lp334
Vrtc_clk_xtal_freq_get
p335
atp336
a(L1375577398L
L3785322319L
(lp337
(lp338
Vrtc_clk_xtal_freq_estimate
p339
atp340
a(L2088037022L
L3785322319L
(lp341
(lp342
Vesp_log_early_timestamp
p343
atp344
a(L1601187340L
L0L
(lp345
(lp346
tp347
a(L4233392623L
L0L
(lp348
(lp349
tp350
a(L1300789833L
L0L
(lp351
(lp352
tp353
a(L1300789833L
L0L
(lp354
(lp355
tp356
a(L2258718274L
L0L
(lp357
(lp358
tp359
a(L3028481L
L0L
(lp360
(lp361
tp362
a(L3183127930L
L3785322319L
(lp363
(lp364
Vrtc_clk_xtal_freq_estimate
p365
atp366
a(L829783063L
L3785322319L
(lp367
(lp368
Vesp_log_early_timestamp
p369
atp370
a(L757419054L
L0L
(lp371
(lp372
tp373
a(L378103802L
L2485746240L
(lp374
(lp375
Vrtc_clk_xtal_freq_update
p376
aVrtc_clk_apb_freq_update
p377
aVrtc_clk_cpu_freq_get_config
p378
aVrtc_clk_cpu_freq_mhz_to_config
p379
atp380
a(L1989901941L
L1880226080L
(lp381
(lp382
Vesp_log_early_timestamp
p383
aVabort
p384
atp385
a(L1809249990L
L3785322319L
(lp386
(lp387
Vrtc_clk_cpu_freq_set_config
p388
atp389
a(L3804637084L
L3785322319L
(lp390
(lp391
Vrtc_clk_32k_enable
p392
atp393
a(L3016870L
L0L
(lp394
(lp395
tp396
a(L2143895315L
L3785322319L
(lp397
(lp398
Vrtc_clk_8m_enable
p399
atp400
a(L530469956L
L1880226080L
(lp401
(lp402
Vrtc_clk_fast_freq_set
p403
aVrtc_clk_slow_freq_set
p404
atp405
atp406
sI1074240544
(Vdebug_log_hash
p407
(lp408
(L1348589273L
L3785322319L
(lp409
(lp410
Vbootloader_sha256_hex_to_str
p411
atp412
atp413
sI1074267936
(Vcall_start_cpu0
p414
(lp415
(L2311976169L
L3785322319L
(lp416
(lp417
Vbootloader_init
p418
atp419
a(L3827921190L
L3785322319L
(lp420
(lp421
Vbootloader_reset
p422
atp423
a(L4083304126L
L3785322319L
(lp424
(lp425
Vselect_partition_number
p426
atp427
a(L94425498L
L3785322319L
(lp428
(lp429
Vbootloader_reset
p430
atp431
a(L1678595755L
L3785322319L
(lp432
(lp433
Vbootloader_utility_load_boot_image
p434
atp435
atp436
sI1074269216
(Vexecute_flash_command
p437
(lp438
(L2731511335L
L0L
(lp439
(lp440
tp441
a(L1902558423L
L0L
(lp442
(lp443
tp444
a(L2258867228L
L0L
(lp445
(lp446
tp447
a(L1556254136L
L0L
(lp448
(lp449
tp450
a(L2850001498L
L0L
(lp451
(lp452
tp453
a(L2258748064L
L0L
(lp454
(lp455
tp456
a(L488798743L
L0L
(lp457
(lp458
tp459
a(L2902417580L
L0L
(lp460
(lp461
tp462
a(L3123498735L
L0L
(lp463
(lp464
tp465
a(L3250895530L
L0L
(lp466
(lp467
tp468
a(L2090534479L
L0L
(lp469
(lp470
tp471
a(L2853181336L
L0L
(lp472
(lp473
tp474
a(L3018936161L
L0L
(lp475
(lp476
tp477
atp478
sI1074236972
(Vbootloader_munmap
p479
(lp480
(L1344596563L
L0L
(lp481
(lp482
tp483
a(L865184908L
L0L
(lp484
(lp485
tp486
a(L3360570486L
L0L
(lp487
(lp488
tp489
atp490
sI1074243372
(Vrtc_wdt_protect_on
p491
(lp492
(L1792411655L
L0L
(lp493
(lp494
tp495
atp496
sI1074271292
(Vrtc_clk_xtal_freq_update
p497
(lp498
(L3324726170L
L0L
(lp499
(lp500
tp501
a(L3509357017L
L0L
(lp502
(lp503
tp504
a(L3919638422L
L0L
(lp505
(lp506
tp507
atp508
sI1074242108
(Vesp_rom_spiflash_read_status
p509
(lp510
(L1718103321L
L0L
(lp511
(lp512
tp513
a(L106L
L0L
(lp514
(lp515
tp516
a(L1513645926L
L0L
(lp517
(lp518
tp519
a(L1904270500L
L0L
(lp520
(lp521
tp522
a(L3848487012L
L0L
(lp523
(lp524
tp525
a(L4159619641L
L0L
(lp526
(lp527
tp528
a(L106L
L0L
(lp529
(lp530
tp531
a(L3919447613L
L0L
(lp532
(lp533
tp534
a(L4159619641L
L0L
(lp535
(lp536
tp537
a(L2392720019L
L0L
(lp538
(lp539
tp540
atp541
sI1074243388
(Vrtc_wdt_enable
p542
(lp543
(L43653163L
L0L
(lp544
(lp545
tp546
atp547
sI1074273332
(Vrtc_clk_wait_for_slow_cycle
p548
(lp549
(L1030906439L
L0L
(lp550
(lp551
tp552
a(L858201144L
L0L
(lp553
(lp554
tp555
a(L791216941L
L0L
(lp556
(lp557
tp558
a(L3360570486L
L0L
(lp559
(lp560
tp561
atp562
sI1074240568
(Vverify_simple_hash
p563
(lp564
(L839039748L
L1832448559L
(lp565
(lp566
Vbootloader_sha256_finish
p567
aVdebug_log_hash
p568
aVbootloader_mmap
p569
atp570
a(L497191049L
L1832448559L
(lp571
(lp572
Vesp_log_early_timestamp
p573
aVdebug_log_hash
p574
aVbootloader_munmap
p575
atp576
a(L1606099250L
L3785322319L
(lp577
(lp578
Vbootloader_munmap
p579
atp580
atp581
sI1074237752
(Vbootloader_random_disable
p582
(lp583
(L2495165604L
L0L
(lp584
(lp585
tp586
atp587
sI1074236736
(Vbootloader_flash_read_no_decrypt
p588
(lp589
(L1242196253L
L1880226080L
(lp590
(lp591
Vesp_rom_spiflash_read
p592
aVspi_to_esp_err
p593
atp594
atp595
sI1074234444
(Vbootloader_flash_clock_config
p596
(lp597
(L2664752807L
L0L
(lp598
(lp599
tp600
a(L2902417580L
L0L
(lp601
(lp602
tp603
a(L3020187L
L0L
(lp604
(lp605
tp606
a(L3632614262L
L0L
(lp607
(lp608
tp609
a(L1299866312L
L0L
(lp610
(lp611
tp612
a(L1299866374L
L0L
(lp613
(lp614
tp615
a(L1299866405L
L0L
(lp616
(lp617
tp618
a(L1299866436L
L0L
(lp619
(lp620
tp621
a(L2258688483L
L0L
(lp622
(lp623
tp624
a(L1886757596L
L0L
(lp625
(lp626
tp627
atp628
sI1074267992
(Vprint_flash_info
p629
(lp630
(L3711533291L
L0L
(lp631
(lp632
tp633
atp634
sI1074270552
(Vrtc_clk_fast_freq_get
p635
(lp636
(L352341960L
L0L
(lp637
(lp638
tp639
atp640
sI1074239828
(Vbootloader_sha256_hex_to_str
p641
(lp642
(L90530756L
L0L
(lp643
(lp644
tp645
a(L97422L
L0L
(lp646
(lp647
tp648
a(L106L
L0L
(lp649
(lp650
tp651
a(L201281358L
L0L
(lp652
(lp653
tp654
a(L1611366926L
L0L
(lp655
(lp656
tp657
a(L1298905568L
L0L
(lp658
(lp659
tp660
a(L1295154486L
L0L
(lp661
(lp662
tp663
a(L2172025409L
L0L
(lp664
(lp665
tp666
a(L1079575012L
L0L
(lp667
(lp668
tp669
a(L978975865L
L0L
(lp670
(lp671
tp672
a(L2258897019L
L0L
(lp673
(lp674
tp675
a(L3027007L
L0L
(lp676
(lp677
tp678
a(L4126803969L
L0L
(lp679
(lp680
tp681
a(L448827677L
L0L
(lp682
(lp683
tp684
a(L2993202392L
L0L
(lp685
(lp686
tp687
a(L2079009947L
L0L
(lp688
(lp689
tp690
a(L2079009947L
L0L
(lp691
(lp692
tp693
atp694
sI1074238804
(Vbootloader_utility_get_selected_boot_partition
p695
(lp696
(L3540070437L
L0L
(lp697
(lp698
tp699
a(L4151804877L
L0L
(lp700
(lp701
tp702
a(L1724216980L
L3785322319L
(lp703
(lp704
Vesp_log_early_timestamp
p705
atp706
a(L3118387733L
L3785322319L
(lp707
(lp708
Vbootloader_mmap
p709
atp710
a(L225541335L
L3785322319L
(lp711
(lp712
Vesp_log_early_timestamp
p713
atp714
a(L3444095764L
L3785322319L
(lp715
(lp716
Vbootloader_munmap
p717
atp718
a(L505081345L
L0L
(lp719
(lp720
tp721
a(L2949562121L
L0L
(lp722
(lp723
tp724
a(L2793934716L
L0L
(lp725
(lp726
tp727
a(L515633988L
L0L
(lp728
(lp729
tp730
a(L726746666L
L3785322319L
(lp731
(lp732
Vbootloader_common_ota_select_valid
p733
atp734
a(L1828868152L
L3785322319L
(lp735
(lp736
Vbootloader_common_ota_select_valid
p737
atp738
a(L1353294186L
L0L
(lp739
(lp740
tp741
a(L726746666L
L3785322319L
(lp742
(lp743
Vbootloader_common_ota_select_valid
p744
atp745
a(L3920888185L
L0L
(lp746
(lp747
tp748
a(L788494392L
L3785322319L
(lp749
(lp750
Vbootloader_common_ota_select_valid
p751
atp752
a(L797347385L
L0L
(lp753
(lp754
tp755
a(L2258718273L
L0L
(lp756
(lp757
tp758
a(L2902417580L
L0L
(lp759
(lp760
tp761
a(L2053587437L
L0L
(lp762
(lp763
tp764
a(L4182810108L
L0L
(lp765
(lp766
tp767
a(L1044180621L
L3785322319L
(lp768
(lp769
Vesp_log_early_timestamp
p770
atp771
a(L2072622220L
L3785322319L
(lp772
(lp773
Vesp_log_early_timestamp
p774
atp775
a(L515633988L
L0L
(lp776
(lp777
tp778
a(L2993202392L
L0L
(lp779
(lp780
tp781
atp782
sI1074271836
(Vrtc_clk_apb_freq_get
p783
(lp784
(L2240250653L
L0L
(lp785
(lp786
tp787
atp788
sI1074241116
(Vimage_load
p789
(lp790
(L2340434831L
L0L
(lp791
(lp792
tp793
a(L106L
L0L
(lp794
(lp795
tp796
a(L99986938L
L0L
(lp797
(lp798
tp799
a(L3028464L
L0L
(lp800
(lp801
tp802
a(L106L
L0L
(lp803
(lp804
tp805
a(L3598556345L
L3785322319L
(lp806
(lp807
Vesp_log_early_timestamp
p808
atp809
a(L485581387L
L3785322319L
(lp810
(lp811
Vbootloader_flash_read
p812
atp813
a(L2950861325L
L0L
(lp814
(lp815
tp816
a(L2568992188L
L3785322319L
(lp817
(lp818
Vbootloader_sha256_start
p819
atp820
a(L4173212049L
L3785322319L
(lp821
(lp822
Vbootloader_sha256_data
p823
atp824
a(L2258837437L
L0L
(lp825
(lp826
tp827
a(L846347405L
L3785322319L
(lp828
(lp829
Vverify_image_header
p830
atp831
a(L1980404654L
L0L
(lp832
(lp833
tp834
a(L3028464L
L0L
(lp835
(lp836
tp837
a(L106L
L0L
(lp838
(lp839
tp840
a(L1828596678L
L3785322319L
(lp841
(lp842
Vesp_log_early_timestamp
p843
atp844
a(L2671916466L
L0L
(lp845
(lp846
tp847
a(L1898485626L
L3785322319L
(lp848
(lp849
Vprocess_segment
p850
atp851
a(L3878353414L
L0L
(lp852
(lp853
tp854
a(L2125973223L
L0L
(lp855
(lp856
tp857
a(L499151239L
L0L
(lp858
(lp859
tp860
a(L3028464L
L0L
(lp861
(lp862
tp863
a(L106L
L0L
(lp864
(lp865
tp866
a(L1050213745L
L3785322319L
(lp867
(lp868
Vesp_log_early_timestamp
p869
atp870
a(L4041426534L
L3785322319L
(lp871
(lp872
Vesp_cpu_in_ocd_debug_mode
p873
atp874
a(L1482013975L
L3785322319L
(lp875
(lp876
Vverify_checksum
p877
atp878
a(L279608302L
L0L
(lp879
(lp880
tp881
a(L3028464L
L0L
(lp882
(lp883
tp884
a(L106L
L0L
(lp885
(lp886
tp887
a(L699432644L
L3785322319L
(lp888
(lp889
Vesp_log_early_timestamp
p890
atp891
a(L2073780613L
L0L
(lp892
(lp893
tp894
a(L3020204L
L0L
(lp895
(lp896
tp897
a(L3287840219L
L3785322319L
(lp898
(lp899
Vesp_cpu_in_ocd_debug_mode
p900
atp901
a(L3045806043L
L3785322319L
(lp902
(lp903
Vverify_simple_hash
p904
atp905
a(L3020204L
L0L
(lp906
(lp907
tp908
a(L3688659868L
L3785322319L
(lp909
(lp910
Vbootloader_sha256_finish
p911
atp912
a(L3230798602L
L0L
(lp913
(lp914
tp915
a(L84393073L
L3785322319L
(lp916
(lp917
Vbootloader_mmap
p918
atp919
a(L3267163808L
L3785322319L
(lp920
(lp921
Vbootloader_munmap
p922
atp923
a(L3028481L
L0L
(lp924
(lp925
tp926
a(L3020187L
L0L
(lp927
(lp928
tp929
a(L2993202392L
L0L
(lp930
(lp931
tp932
a(L3965661703L
L3785322319L
(lp933
(lp934
Vshould_load
p935
atp936
a(L745073924L
L0L
(lp937
(lp938
tp939
a(L715598799L
L0L
(lp940
(lp941
tp942
a(L1009118609L
L0L
(lp943
(lp944
tp945
a(L3496235517L
L0L
(lp946
(lp947
tp948
a(L560171818L
L0L
(lp949
(lp950
tp951
a(L1191274096L
L0L
(lp952
(lp953
tp954
a(L1720234353L
L0L
(lp955
(lp956
tp957
a(L2258777855L
L0L
(lp958
(lp959
tp960
a(L85798113L
L0L
(lp961
(lp962
tp963
a(L2993202392L
L0L
(lp964
(lp965
tp966
a(L3151898214L
L0L
(lp967
(lp968
tp969
a(L1304483917L
L0L
(lp970
(lp971
tp972
a(L1755718488L
L0L
(lp973
(lp974
tp975
a(L2258837437L
L0L
(lp976
(lp977
tp978
a(L2910371777L
L0L
(lp979
(lp980
tp981
a(L2104867279L
L0L
(lp982
(lp983
tp984
a(L3020204L
L0L
(lp985
(lp986
tp987
a(L3688659868L
L3785322319L
(lp988
(lp989
Vbootloader_sha256_finish
p990
atp991
a(L3814823050L
L0L
(lp992
(lp993
tp994
a(L2079009947L
L0L
(lp995
(lp996
tp997
a(L1191506266L
L0L
(lp998
(lp999
tp1000
atp1001
sI1074268500
(Vupdate_flash_config
p1002
(lp1003
(L1046059555L
L0L
(lp1004
(lp1005
tp1006
a(L93674324L
L0L
(lp1007
(lp1008
tp1009
a(L2902417580L
L0L
(lp1010
(lp1011
tp1012
a(L106L
L0L
(lp1013
(lp1014
tp1015
a(L3020187L
L0L
(lp1016
(lp1017
tp1018
a(L3020187L
L0L
(lp1019
(lp1020
tp1021
a(L106L
L0L
(lp1022
(lp1023
tp1024
a(L1299866343L
L0L
(lp1025
(lp1026
tp1027
a(L1299866436L
L0L
(lp1028
(lp1029
tp1030
a(L1299866560L
L0L
(lp1031
(lp1032
tp1033
a(L1641149277L
L0L
(lp1034
(lp1035
tp1036
a(L2258688484L
L0L
(lp1037
(lp1038
tp1039
a(L74579922L
L0L
(lp1040
(lp1041
tp1042
atp1043
sI1074272852
(Vrtc_clk_cal_internal
p1044
(lp1045
(L2974864852L
L0L
(lp1046
(lp1047
tp1048
a(L1168232723L
L3785322319L
(lp1049
(lp1050
V__assert_func
p1051
atp1052
a(L877604665L
L0L
(lp1053
(lp1054
tp1055
a(L3905281681L
L0L
(lp1056
(lp1057
tp1058
a(L3028464L
L0L
(lp1059
(lp1060
tp1061
a(L2853157232L
L0L
(lp1062
(lp1063
tp1064
a(L2754720671L
L0L
(lp1065
(lp1066
tp1067
a(L3778615171L
L0L
(lp1068
(lp1069
tp1070
a(L97422L
L0L
(lp1071
(lp1072
tp1073
a(L571614780L
L0L
(lp1074
(lp1075
tp1076
a(L3900121170L
L0L
(lp1077
(lp1078
tp1079
a(L3900119837L
L0L
(lp1080
(lp1081
tp1082
a(L3900119837L
L0L
(lp1083
(lp1084
tp1085
a(L3900121170L
L0L
(lp1086
(lp1087
tp1088
a(L3450946281L
L0L
(lp1089
(lp1090
tp1091
a(L2803163419L
L1880226080L
(lp1092
(lp1093
V__udivdi3
p1094
aVrtc_clk_xtal_freq_get
p1095
atp1096
a(L1610443417L
L0L
(lp1097
(lp1098
tp1099
a(L1150640304L
L0L
(lp1100
(lp1101
tp1102
a(L715666876L
L3785322319L
(lp1103
(lp1104
Vesp_log_early_timestamp
p1105
atp1106
a(L45431114L
L0L
(lp1107
(lp1108
tp1109
a(L986221344L
L0L
(lp1110
(lp1111
tp1112
a(L791217437L
L0L
(lp1113
(lp1114
tp1115
a(L3021737L
L0L
(lp1116
(lp1117
tp1118
a(L377891842L
L0L
(lp1119
(lp1120
tp1121
a(L1471169863L
L0L
(lp1122
(lp1123
tp1124
a(L2902417580L
L0L
(lp1125
(lp1126
tp1127
a(L1264948780L
L0L
(lp1128
(lp1129
tp1130
a(L2993202392L
L0L
(lp1131
(lp1132
tp1133
atp1134
sI1074268008
(Vwdt_reset_cpu0_info_enable
p1135
(lp1136
(L1097754722L
L0L
(lp1137
(lp1138
tp1139
atp1140
sI1074269800
(Vrtc_clk_32k_enable_common
p1141
(lp1142
(L2145021705L
L0L
(lp1143
(lp1144
tp1145
atp1146
sI1074270568
(Vrtc_clk_bbpll_configure
p1147
(lp1148
(L4270275352L
L0L
(lp1149
(lp1150
tp1151
a(L106L
L0L
(lp1152
(lp1153
tp1154
a(L3504424335L
L0L
(lp1155
(lp1156
tp1157
a(L83268344L
L0L
(lp1158
(lp1159
tp1160
a(L82345090L
L0L
(lp1161
(lp1162
tp1163
a(L106L
L0L
(lp1164
(lp1165
tp1166
a(L1874018433L
L0L
(lp1167
(lp1168
tp1169
a(L1968451090L
L0L
(lp1170
(lp1171
tp1172
a(L1534915856L
L0L
(lp1173
(lp1174
tp1175
a(L1310424409L
L0L
(lp1176
(lp1177
tp1178
a(L491478212L
L0L
(lp1179
(lp1180
tp1181
a(L34605808L
L0L
(lp1182
(lp1183
tp1184
a(L83268344L
L0L
(lp1185
(lp1186
tp1187
a(L82345090L
L0L
(lp1188
(lp1189
tp1190
a(L106L
L0L
(lp1191
(lp1192
tp1193
a(L294729621L
L0L
(lp1194
(lp1195
tp1196
a(L2738194110L
L0L
(lp1197
(lp1198
tp1199
a(L1534915856L
L0L
(lp1200
(lp1201
tp1202
a(L1335254829L
L0L
(lp1203
(lp1204
tp1205
a(L3493435156L
L0L
(lp1206
(lp1207
tp1208
a(L1609947741L
L3785322319L
(lp1209
(lp1210
Vrtc_clk_slow_freq_get
p1211
atp1212
a(L2679108412L
L0L
(lp1213
(lp1214
tp1215
a(L2780081410L
L0L
(lp1216
(lp1217
tp1218
a(L3625949942L
L0L
(lp1219
(lp1220
tp1221
atp1222
sI1074271336
(Vrtc_clk_apb_freq_update
p1223
(lp1224
(L1983835474L
L0L
(lp1225
(lp1226
tp1227
atp1228
sI1074237028
(Vbootloader_flash_read
p1229
(lp1230
(L1127605422L
L0L
(lp1231
(lp1232
tp1233
a(L1455852238L
L3785322319L
(lp1234
(lp1235
Vesp_log_early_timestamp
p1236
atp1237
a(L899934477L
L0L
(lp1238
(lp1239
tp1240
a(L2242674871L
L3785322319L
(lp1241
(lp1242
Vesp_log_early_timestamp
p1243
atp1244
a(L2696885836L
L0L
(lp1245
(lp1246
tp1247
a(L1093256772L
L3785322319L
(lp1248
(lp1249
Vesp_log_early_timestamp
p1250
atp1251
a(L3020204L
L0L
(lp1252
(lp1253
tp1254
a(L3807724270L
L3785322319L
(lp1255
(lp1256
Vbootloader_flash_read_allow_decrypt
p1257
atp1258
a(L1959236078L
L3785322319L
(lp1259
(lp1260
Vbootloader_flash_read_no_decrypt
p1261
atp1262
atp1263
sI1074235492
(Vesp_cpu_reset
p1264
(lp1265
(L4062265178L
L0L
(lp1266
(lp1267
tp1268
a(L1841554295L
L0L
(lp1269
(lp1270
tp1271
a(L1306330932L
L0L
(lp1272
(lp1273
tp1274
a(L81897939L
L0L
(lp1275
(lp1276
tp1277
atp1278
sI1074236260
(Vbootloader_common_ota_select_crc
p1279
(lp1280
(L187898525L
L0L
(lp1281
(lp1282
tp1283
atp1284
sI1074237280
(Vbootloader_random_enable
p1285
(lp1286
(L1164454860L
L0L
(lp1287
(lp1288
tp1289
atp1290
sI1074240108
(Vverify_checksum
p1291
(lp1292
(L7413395L
L3785322319L
(lp1293
(lp1294
Vbootloader_flash_read
p1295
atp1296
a(L1835632788L
L3785322319L
(lp1297
(lp1298
Vesp_log_early_timestamp
p1299
atp1300
a(L3020204L
L0L
(lp1301
(lp1302
tp1303
a(L2547710365L
L3785322319L
(lp1304
(lp1305
Vbootloader_sha256_data
p1306
atp1307
a(L4124473353L
L0L
(lp1308
(lp1309
tp1310
a(L1223427414L
L0L
(lp1311
(lp1312
tp1313
a(L755040691L
L0L
(lp1314
(lp1315
tp1316
atp1317
sI1074243432
(Vrtc_wdt_set_time
p1318
(lp1319
(L607216364L
L0L
(lp1320
(lp1321
tp1322
a(L221424406L
L1880226080L
(lp1323
(lp1324
Vrtc_clk_slow_freq_get_hz
p1325
aV__udivdi3
p1326
atp1327
a(L439582548L
L0L
(lp1328
(lp1329
tp1330
a(L3028464L
L0L
(lp1331
(lp1332
tp1333
a(L1270393295L
L0L
(lp1334
(lp1335
tp1336
a(L3028464L
L0L
(lp1337
(lp1338
tp1339
a(L481659723L
L0L
(lp1340
(lp1341
tp1342
a(L3987893447L
L0L
(lp1343
(lp1344
tp1345
a(L2079009947L
L0L
(lp1346
(lp1347
tp1348
atp1349
sI1074268280
(Vuart_console_configure
p1350
(lp1351
(L1288160468L
L0L
(lp1352
(lp1353
tp1354
a(L757419054L
L0L
(lp1355
(lp1356
tp1357
a(L2750712698L
L3785322319L
(lp1358
(lp1359
Vrtc_clk_apb_freq_get
p1360
atp1361
atp1362
sI1074236788
(Vbootloader_mmap
p1363
(lp1364
(L660811807L
L0L
(lp1365
(lp1366
tp1367
a(L2944796237L
L3785322319L
(lp1368
(lp1369
Vesp_log_early_timestamp
p1370
atp1371
a(L699484876L
L0L
(lp1372
(lp1373
tp1374
a(L2801316646L
L3785322319L
(lp1375
(lp1376
Vesp_log_early_timestamp
p1377
atp1378
a(L202695191L
L0L
(lp1379
(lp1380
tp1381
a(L4136929193L
L3785322319L
(lp1382
(lp1383
Vesp_log_early_timestamp
p1384
atp1385
a(L631373840L
L0L
(lp1386
(lp1387
tp1388
atp1389
sI1074238068
(Vlog_invalid_app_partition
p1390
(lp1391
(L3991230301L
L0L
(lp1392
(lp1393
tp1394
a(L3028464L
L0L
(lp1395
(lp1396
tp1397
a(L3856758990L
L3785322319L
(lp1398
(lp1399
Vesp_log_early_timestamp
p1400
atp1401
a(L213774098L
L3785322319L
(lp1402
(lp1403
Vesp_log_early_timestamp
p1404
atp1405
a(L20312892L
L3785322319L
(lp1406
(lp1407
Vesp_log_early_timestamp
p1408
atp1409
atp1410
sI1074239088
(Vbootloader_reset
p1411
(lp1412
(L2015968808L
L0L
(lp1413
(lp1414
tp1415
a(L106L
L0L
(lp1416
(lp1417
tp1418
atp1419
sI1074270320
(Vrtc_clk_8m_enabled
p1420
(lp1421
(L2957904225L
L0L
(lp1422
(lp1423
tp1424
atp1425
sI1074235260
(Vesp_cpu_stall
p1426
(lp1427
(L4037466968L
L0L
(lp1428
(lp1429
tp1430
a(L1343004674L
L0L
(lp1431
(lp1432
tp1433
a(L3348188466L
L0L
(lp1434
(lp1435
tp1436
atp1437
sI1074240380
(Vprocess_segment_data
p1438
(lp1439
(L3236683529L
L3785322319L
(lp1440
(lp1441
Vbootloader_mmap
p1442
atp1443
a(L327823674L
L3785322319L
(lp1444
(lp1445
Vesp_log_early_timestamp
p1446
atp1447
a(L3473723587L
L3785322319L
(lp1448
(lp1449
Vbootloader_fill_random
p1450
atp1451
a(L13404244L
L0L
(lp1452
(lp1453
tp1454
a(L17098328L
L0L
(lp1455
(lp1456
tp1457
a(L1299866312L
L0L
(lp1458
(lp1459
tp1460
a(L2008416411L
L0L
(lp1461
(lp1462
tp1463
a(L127299853L
L0L
(lp1464
(lp1465
tp1466
a(L4115303764L
L0L
(lp1467
(lp1468
tp1469
a(L3457887706L
L0L
(lp1470
(lp1471
tp1472
a(L4117779536L
L0L
(lp1473
(lp1474
tp1475
a(L2902417580L
L0L
(lp1476
(lp1477
tp1478
a(L2505185480L
L0L
(lp1479
(lp1480
tp1481
a(L3094078540L
L3785322319L
(lp1482
(lp1483
Vbootloader_sha256_data
p1484
atp1485
a(L1770629922L
L0L
(lp1486
(lp1487
tp1488
a(L3896226538L
L0L
(lp1489
(lp1490
tp1491
a(L1564127900L
L3785322319L
(lp1492
(lp1493
Vbootloader_munmap
p1494
atp1495
atp1496
sI1074242684
(Vesp_rom_spiflash_read
p1497
(lp1498
(L1124033414L
L0L
(lp1499
(lp1500
tp1501
a(L382186822L
L0L
(lp1502
(lp1503
tp1504
a(L3017366L
L0L
(lp1505
(lp1506
tp1507
a(L106L
L0L
(lp1508
(lp1509
tp1510
a(L4049763427L
L0L
(lp1511
(lp1512
tp1513
a(L106L
L0L
(lp1514
(lp1515
tp1516
a(L979377122L
L0L
(lp1517
(lp1518
tp1519
a(L3195095536L
L0L
(lp1520
(lp1521
tp1522
a(L3483494208L
L0L
(lp1523
(lp1524
tp1525
a(L3016870L
L0L
(lp1526
(lp1527
tp1528
a(L2820885968L
L0L
(lp1529
(lp1530
tp1531
a(L3016870L
L0L
(lp1532
(lp1533
tp1534
a(L4002120507L
L0L
(lp1535
(lp1536
tp1537
a(L2063928483L
L0L
(lp1538
(lp1539
tp1540
a(L2817766758L
L0L
(lp1541
(lp1542
tp1543
a(L2992627566L
L0L
(lp1544
(lp1545
tp1546
a(L3490327623L
L0L
(lp1547
(lp1548
tp1549
a(L944516784L
L0L
(lp1550
(lp1551
tp1552
a(L1656670281L
L0L
(lp1553
(lp1554
tp1555
a(L2100814134L
L3785322319L
(lp1556
(lp1557
Vesp_rom_spiflash_read_data
p1558
atp1559
a(L1298875774L
L0L
(lp1560
(lp1561
tp1562
a(L735741265L
L0L
(lp1563
(lp1564
tp1565
atp1566
sI1074239608
(Vbootloader_sha256_finish
p1567
(lp1568
(L4066096136L
L0L
(lp1569
(lp1570
tp1571
a(L2193090598L
L3785322319L
(lp1572
(lp1573
V__assert_func
p1574
atp1575
a(L3020204L
L0L
(lp1576
(lp1577
tp1578
a(L2323694862L
L0L
(lp1579
(lp1580
tp1581
a(L2534656226L
L0L
(lp1582
(lp1583
tp1584
a(L321015369L
L0L
(lp1585
(lp1586
tp1587
a(L4005996866L
L3785322319L
(lp1588
(lp1589
V__assert_func
p1590
atp1591
a(L1213679884L
L3785322319L
(lp1592
(lp1593
Vbootloader_sha256_data
p1594
atp1595
a(L3290373233L
L3785322319L
(lp1596
(lp1597
V__assert_func
p1598
atp1599
a(L581866870L
L1880226080L
(lp1600
(lp1601
V__bswapsi2
p1602
aVbootloader_sha256_data
p1603
atp1604
a(L2281224650L
L3785322319L
(lp1605
(lp1606
V__assert_func
p1607
atp1608
a(L3318018300L
L0L
(lp1609
(lp1610
tp1611
a(L1425650723L
L0L
(lp1612
(lp1613
tp1614
a(L3318018300L
L0L
(lp1615
(lp1616
tp1617
a(L1299866312L
L0L
(lp1618
(lp1619
tp1620
a(L2076325709L
L3785322319L
(lp1621
(lp1622
V__bswapsi2
p1623
atp1624
a(L93837694L
L0L
(lp1625
(lp1626
tp1627
a(L3347778L
L0L
(lp1628
(lp1629
tp1630
a(L3360570486L
L0L
(lp1631
(lp1632
tp1633
atp1634
sI1074239352
(Vindex_to_partition
p1635
(lp1636
(L4066096119L
L0L
(lp1637
(lp1638
tp1639
a(L937847257L
L0L
(lp1640
(lp1641
tp1642
a(L2808906342L
L0L
(lp1643
(lp1644
tp1645
a(L1765918994L
L0L
(lp1646
(lp1647
tp1648
a(L2808826781L
L0L
(lp1649
(lp1650
tp1651
a(L2911029954L
L0L
(lp1652
(lp1653
tp1654
a(L2511483031L
L0L
(lp1655
(lp1656
tp1657
a(L1984670054L
L0L
(lp1658
(lp1659
tp1660
a(L3698927993L
L0L
(lp1661
(lp1662
tp1663
atp1664
sI1074238584
(Vload_image
p1665
(lp1666
(L1599382955L
L1880226080L
(lp1667
(lp1668
Vbootloader_random_disable
p1669
aVunpack_load_app
p1670
atp1671
atp1672
sI1074236280
(Vbootloader_common_ota_select_valid
p1673
(lp1674
(L2808438197L
L0L
(lp1675
(lp1676
tp1677
a(L3881267543L
L3785322319L
(lp1678
(lp1679
Vbootloader_common_ota_select_crc
p1680
atp1681
a(L3880706073L
L0L
(lp1682
(lp1683
tp1684
a(L2993202392L
L0L
(lp1685
(lp1686
tp1687
a(L2993202392L
L0L
(lp1688
(lp1689
tp1690
atp1691
sI1074243704
(Vrtc_wdt_disable
p1692
(lp1693
(L1233433337L
L3785322319L
(lp1694
(lp1695
Vrtc_wdt_get_protect_status
p1696
atp1697
a(L3827921190L
L3785322319L
(lp1698
(lp1699
Vrtc_wdt_protect_off
p1700
atp1701
a(L3828194281L
L2485746240L
(lp1702
(lp1703
Vrtc_wdt_set_stage
p1704
aVrtc_wdt_set_stage
p1705
aVrtc_wdt_set_stage
p1706
aVrtc_wdt_set_stage
p1707
atp1708
a(L94425498L
L3785322319L
(lp1709
(lp1710
Vrtc_wdt_protect_on
p1711
atp1712
a(L3360570486L
L0L
(lp1713
(lp1714
tp1715
atp1716
sI1074236548
(Vspi_to_esp_err
p1717
(lp1718
(L4037458691L
L0L
(lp1719
(lp1720
tp1721
a(L2902417580L
L0L
(lp1722
(lp1723
tp1724
a(L3020187L
L0L
(lp1725
(lp1726
tp1727
a(L106L
L0L
(lp1728
(lp1729
tp1730
a(L2993202392L
L0L
(lp1731
(lp1732
tp1733
a(L3301621550L
L0L
(lp1734
(lp1735
tp1736
a(L515633988L
L0L
(lp1737
(lp1738
tp1739
a(L4046574122L
L0L
(lp1740
(lp1741
tp1742
atp1743
sI1074238596
(Vbootloader_utility_load_partition_table
p1744
(lp1745
(L967384129L
L3785322319L
(lp1746
(lp1747
Vbootloader_mmap
p1748
atp1749
a(L1673984499L
L3785322319L
(lp1750
(lp1751
Vesp_log_early_timestamp
p1752
atp1753
a(L1640479211L
L3785322319L
(lp1754
(lp1755
Vesp_partition_table_verify
p1756
atp1757
a(L3742494459L
L3785322319L
(lp1758
(lp1759
Vesp_log_early_timestamp
p1760
atp1761
a(L2035507904L
L0L
(lp1762
(lp1763
tp1764
a(L3020187L
L0L
(lp1765
(lp1766
tp1767
a(L106L
L0L
(lp1768
(lp1769
tp1770
a(L3137092968L
L0L
(lp1771
(lp1772
tp1773
a(L3020187L
L0L
(lp1774
(lp1775
tp1776
a(L106L
L0L
(lp1777
(lp1778
tp1779
a(L735059833L
L0L
(lp1780
(lp1781
tp1782
a(L455830292L
L0L
(lp1783
(lp1784
tp1785
a(L2610008785L
L0L
(lp1786
(lp1787
tp1788
a(L4220418956L
L0L
(lp1789
(lp1790
tp1791
a(L3145047165L
L0L
(lp1792
(lp1793
tp1794
a(L743044586L
L0L
(lp1795
(lp1796
tp1797
a(L3376871561L
L0L
(lp1798
(lp1799
tp1800
a(L2306437309L
L0L
(lp1801
(lp1802
tp1803
a(L871720679L
L0L
(lp1804
(lp1805
tp1806
a(L2187730653L
L3785322319L
(lp1807
(lp1808
Vbootloader_munmap
p1809
atp1810
atp1811
sI1074270348
(Vrtc_clk_8md256_enabled
p1812
(lp1813
(L4110443493L
L0L
(lp1814
(lp1815
tp1816
atp1817
sI1074271364
(Vrtc_clk_cpu_freq_to_xtal
p1818
(lp1819
(L809132413L
L3785322319L
(lp1820
(lp1821
Vrtc_clk_apb_freq_update
p1822
atp1823
a(L1482903769L
L0L
(lp1824
(lp1825
tp1826
a(L2783542015L
L0L
(lp1827
(lp1828
tp1829
atp1830
sI1074271876
(Vrtc_clk_xtal_freq_estimate
p1831
(lp1832
(L2516060585L
L1880226080L
(lp1833
(lp1834
Vrtc_clk_8m_enabled
p1835
aVrtc_clk_8md256_enabled
p1836
atp1837
a(L967485502L
L3785322319L
(lp1838
(lp1839
Vrtc_clk_8m_enable
p1840
atp1841
a(L3883212960L
L1880226080L
(lp1842
(lp1843
Vrtc_clk_cal_ratio
p1844
aV__udivdi3
p1845
atp1846
a(L1739162156L
L0L
(lp1847
(lp1848
tp1849
a(L1950903165L
L3785322319L
(lp1850
(lp1851
Vesp_log_early_timestamp
p1852
atp1853
atp1854
sI1074235528
(Vesp_cpu_in_ocd_debug_mode
p1855
(lp1856
(L3156077080L
L0L
(lp1857
(lp1858
tp1859
atp1860
sI1074234516
(Vbootloader_flash_gpio_config
p1861
(lp1862
(L1541720566L
L0L
(lp1863
(lp1864
tp1865
a(L1299866374L
L0L
(lp1866
(lp1867
tp1868
a(L2258688485L
L0L
(lp1869
(lp1870
tp1871
a(L1018833635L
L0L
(lp1872
(lp1873
tp1874
a(L4287840674L
L0L
(lp1875
(lp1876
tp1877
a(L3028464L
L0L
(lp1878
(lp1879
tp1880
a(L4287840674L
L0L
(lp1881
(lp1882
tp1883
a(L3028464L
L0L
(lp1884
(lp1885
tp1886
a(L4287840674L
L0L
(lp1887
(lp1888
tp1889
a(L1660894555L
L0L
(lp1890
(lp1891
tp1892
a(L1271695794L
L0L
(lp1893
(lp1894
tp1895
a(L2136249670L
L0L
(lp1896
(lp1897
tp1898
a(L3360570486L
L0L
(lp1899
(lp1900
tp1901
atp1902
sI1074268048
(Vwdt_reset_info_dump
p1903
(lp1904
(L1642351636L
L0L
(lp1905
(lp1906
tp1907
a(L460425251L
L0L
(lp1908
(lp1909
tp1910
a(L3201441043L
L0L
(lp1911
(lp1912
tp1913
a(L3028481L
L0L
(lp1914
(lp1915
tp1916
a(L4108682322L
L0L
(lp1917
(lp1918
tp1919
a(L1868797060L
L0L
(lp1920
(lp1921
tp1922
a(L1413004396L
L0L
(lp1923
(lp1924
tp1925
a(L1550379252L
L0L
(lp1926
(lp1927
tp1928
a(L72244772L
L3785322319L
(lp1929
(lp1930
Vesp_log_early_timestamp
p1931
atp1932
a(L3671594984L
L3785322319L
(lp1933
(lp1934
Vesp_log_early_timestamp
p1935
atp1936
atp1937
sI1074271120
(Vrtc_clk_cpu_freq_get_config
p1938
(lp1939
(L1159549084L
L0L
(lp1940
(lp1941
tp1942
a(L2902417580L
L0L
(lp1943
(lp1944
tp1945
a(L3020187L
L0L
(lp1946
(lp1947
tp1948
a(L106L
L0L
(lp1949
(lp1950
tp1951
a(L4012116024L
L3785322319L
(lp1952
(lp1953
Vrtc_clk_xtal_freq_get
p1954
atp1955
a(L4103134854L
L0L
(lp1956
(lp1957
tp1958
a(L3020187L
L0L
(lp1959
(lp1960
tp1961
a(L3020187L
L0L
(lp1962
(lp1963
tp1964
a(L3639443581L
L1880226080L
(lp1965
(lp1966
Vesp_log_early_timestamp
p1967
aVabort
p1968
atp1969
a(L3639443581L
L1880226080L
(lp1970
(lp1971
Vesp_log_early_timestamp
p1972
aVabort
p1973
atp1974
a(L1209507534L
L0L
(lp1975
(lp1976
tp1977
a(L1888221406L
L0L
(lp1978
(lp1979
tp1980
a(L3497772488L
L0L
(lp1981
(lp1982
tp1983
a(L2830593902L
L0L
(lp1984
(lp1985
tp1986
a(L134915478L
L0L
(lp1987
(lp1988
tp1989
atp1990
sI1074239132
(Vbootloader_utility_load_boot_image
p1991
(lp1992
(L3583044102L
L0L
(lp1993
(lp1994
tp1995
a(L534474525L
L3785322319L
(lp1996
(lp1997
Vtry_load_partition
p1998
atp1999
a(L1346171890L
L3785322319L
(lp2000
(lp2001
Vload_image
p2002
atp2003
a(L4168142338L
L1880226080L
(lp2004
(lp2005
Vesp_log_early_timestamp
p2006
aVbootloader_reset
p2007
atp2008
a(L857253909L
L3785322319L
(lp2009
(lp2010
Vindex_to_partition
p2011
atp2012
a(L1255570883L
L3785322319L
(lp2013
(lp2014
Vtry_load_partition
p2015
atp2016
a(L1346171890L
L3785322319L
(lp2017
(lp2018
Vload_image
p2019
atp2020
a(L1391131227L
L3785322319L
(lp2021
(lp2022
Vlog_invalid_app_partition
p2023
atp2024
a(L11368960L
L0L
(lp2025
(lp2026
tp2027
a(L3802068281L
L0L
(lp2028
(lp2029
tp2030
a(L3021737L
L0L
(lp2031
(lp2032
tp2033
a(L830883630L
L0L
(lp2034
(lp2035
tp2036
a(L211840314L
L3785322319L
(lp2037
(lp2038
Vindex_to_partition
p2039
atp2040
a(L1255570883L
L3785322319L
(lp2041
(lp2042
Vtry_load_partition
p2043
atp2044
a(L1346171890L
L3785322319L
(lp2045
(lp2046
Vload_image
p2047
atp2048
a(L1868897605L
L3785322319L
(lp2049
(lp2050
Vlog_invalid_app_partition
p2051
atp2052
a(L3335942427L
L0L
(lp2053
(lp2054
tp2055
a(L3305857427L
L0L
(lp2056
(lp2057
tp2058
a(L2528911837L
L3785322319L
(lp2059
(lp2060
Vtry_load_partition
p2061
atp2062
a(L1142734015L
L1880226080L
(lp2063
(lp2064
Vesp_log_early_timestamp
p2065
aVload_image
p2066
atp2067
a(L1534780652L
L1880226080L
(lp2068
(lp2069
Vesp_log_early_timestamp
p2070
aVbootloader_reset
p2071
atp2072
atp2073
sI1074270100
(Vrtc_clk_32k_enable
p2074
(lp2075
(L753387299L
L0L
(lp2076
(lp2077
tp2078
a(L1120965557L
L3785322319L
(lp2079
(lp2080
Vrtc_clk_32k_enable_common
p2081
atp2082
a(L2619560084L
L0L
(lp2083
(lp2084
tp2085
atp2086
sI1074235544
(Vesp_log_early_timestamp
p2087
(lp2088
(L1442283304L
L0L
(lp2089
(lp2090
tp2091
atp2092
sI1074236312
(Vbootloader_common_vddsdio_configure
p2093
(lp2094
(L1829974089L
L3785322319L
(lp2095
(lp2096
Vrtc_vddsdio_get_config
p2097
atp2098
a(L2022322744L
L3785322319L
(lp2099
(lp2100
Vrtc_vddsdio_set_config
p2101
atp2102
a(L3360570486L
L0L
(lp2103
(lp2104
tp2105
atp2106
sI1074268840
(V__assert_func
p2107
(lp2108
(L2696072144L
L3785322319L
(lp2109
(lp2110
Vesp_log_early_timestamp
p2111
atp2112
a(L106L
L0L
(lp2113
(lp2114
tp2115
atp2116
sI1074270376
(Vrtc_clk_slow_freq_set
p2117
(lp2118
(L4264031245L
L0L
(lp2119
(lp2120
tp2121
a(L1235012839L
L0L
(lp2122
(lp2123
tp2124
a(L2258688482L
L0L
(lp2125
(lp2126
tp2127
a(L1811874657L
L0L
(lp2128
(lp2129
tp2130
atp2131
sI1074271656
(Vrtc_clk_cpu_freq_to_8m
p2132
(lp2133
(L946247223L
L3785322319L
(lp2134
(lp2135
Vrtc_clk_apb_freq_update
p2136
atp2137
atp2138
sI1074240676
(Vshould_load
p2139
(lp2140
(L3319665344L
L3785322319L
(lp2141
(lp2142
Vshould_map
p2143
atp2144
a(L4066586423L
L0L
(lp2145
(lp2146
tp2147
a(L3028464L
L0L
(lp2148
(lp2149
tp2150
a(L1951749401L
L0L
(lp2151
(lp2152
tp2153
a(L3289883775L
L0L
(lp2154
(lp2155
tp2156
a(L4005092085L
L0L
(lp2157
(lp2158
tp2159
a(L1610443436L
L0L
(lp2160
(lp2161
tp2162
a(L1610443405L
L0L
(lp2163
(lp2164
tp2165
a(L1298875774L
L0L
(lp2166
(lp2167
tp2168
a(L735741265L
L0L
(lp2169
(lp2170
tp2171
atp2172
sI1074242208
(Vesp_rom_spiflash_wait_idle
p2173
(lp2174
(L287326052L
L0L
(lp2175
(lp2176
tp2177
a(L3408421115L
L0L
(lp2178
(lp2179
tp2180
a(L1720410111L
L0L
(lp2181
(lp2182
tp2183
a(L855829385L
L3785322319L
(lp2184
(lp2185
Vesp_rom_spiflash_read_status
p2186
atp2187
a(L1298875774L
L0L
(lp2188
(lp2189
tp2190
a(L735741265L
L0L
(lp2191
(lp2192
tp2193
atp2194
sI1074236584
(Vbootloader_flash_read_allow_decrypt
p2195
(lp2196
(L3381655731L
L0L
(lp2197
(lp2198
tp2199
a(L1013259810L
L0L
(lp2200
(lp2201
tp2202
a(L4256517887L
L0L
(lp2203
(lp2204
tp2205
a(L3721123343L
L3785322319L
(lp2206
(lp2207
Vesp_log_early_timestamp
p2208
atp2209
a(L3393184601L
L0L
(lp2210
(lp2211
tp2212
a(L401207038L
L0L
(lp2213
(lp2214
tp2215
a(L3423665670L
L0L
(lp2216
(lp2217
tp2218
a(L106L
L0L
(lp2219
(lp2220
tp2221
a(L2993202392L
L0L
(lp2222
(lp2223
tp2224
atp2225
sI1074268604
(Vbootloader_main
p2226
(lp2227
(L980673034L
L1832448559L
(lp2228
(lp2229
Vbootloader_common_vddsdio_configure
p2230
aVbootloader_read_flash_id
p2231
aVbootloader_flash_read
p2232
atp2233
a(L2812358705L
L3785322319L
(lp2234
(lp2235
Vesp_log_early_timestamp
p2236
atp2237
a(L4062338276L
L1880226080L
(lp2238
(lp2239
Vbootloader_common_get_chip_revision
p2240
aVbootloader_common_check_chip_validity
p2241
atp2242
a(L3333455271L
L3785322319L
(lp2243
(lp2244
Vbootloader_init_flash_configure
p2245
atp2246
a(L432920421L
L0L
(lp2247
(lp2248
tp2249
a(L68344008L
L3785322319L
(lp2250
(lp2251
Vesp_log_early_timestamp
p2252
atp2253
a(L4056447744L
L1128979311L
(lp2254
(lp2255
Vbootloader_clock_configure
p2256
aVuart_console_configure
p2257
aVwdt_reset_check
p2258
aVrtc_wdt_protect_off
p2259
aVrtc_wdt_disable
p2260
aVrtc_wdt_set_length_of_reset_signal
p2261
aVrtc_wdt_set_length_of_reset_signal
p2262
aVrtc_wdt_set_stage
p2263
aVrtc_wdt_set_time
p2264
aVrtc_wdt_enable
p2265
aVrtc_wdt_protect_on
p2266
aVesp_rom_spiflash_unlock
p2267
aVbootloader_random_enable
p2268
aVprint_flash_info
p2269
aVupdate_flash_config
p2270
atp2271
a(L515633988L
L0L
(lp2272
(lp2273
tp2274
atp2275
sI1074268336
(Vwdt_reset_check
p2276
(lp2277
(L1022302856L
L0L
(lp2278
(lp2279
tp2280
a(L3020187L
L0L
(lp2281
(lp2282
tp2283
a(L367582592L
L0L
(lp2284
(lp2285
tp2286
a(L367642441L
L0L
(lp2287
(lp2288
tp2289
a(L3265954431L
L3785322319L
(lp2290
(lp2291
Vesp_log_early_timestamp
p2292
atp2293
a(L1298905564L
L0L
(lp2294
(lp2295
tp2296
a(L1465910262L
L0L
(lp2297
(lp2298
tp2299
a(L3020187L
L0L
(lp2300
(lp2301
tp2302
a(L225031483L
L0L
(lp2303
(lp2304
tp2305
a(L225091332L
L0L
(lp2306
(lp2307
tp2308
a(L218457679L
L3785322319L
(lp2309
(lp2310
Vesp_log_early_timestamp
p2311
atp2312
a(L3020204L
L0L
(lp2313
(lp2314
tp2315
a(L1944713791L
L1880226080L
(lp2316
(lp2317
Vwdt_reset_info_dump
p2318
aVwdt_reset_info_dump
p2319
atp2320
a(L3738038928L
L3785322319L
(lp2321
(lp2322
Vwdt_reset_cpu0_info_enable
p2323
atp2324
atp2325
sI1074269616
(Vbootloader_read_flash_id
p2326
(lp2327
(L724922833L
L3785322319L
(lp2328
(lp2329
Vexecute_flash_command
p2330
atp2331
atp2332
sI1074235576
(V__bswapsi2
p2333
(lp2334
(L1030949986L
L0L
(lp2335
(lp2336
tp2337
atp2338
sI1074242488
(Vesp_rom_spiflash_read_statushigh
p2339
(lp2340
(L2875116428L
L3785322319L
(lp2341
(lp2342
Vesp_rom_spiflash_wait_idle
p2343
atp2344
atp2345
sI1074268872
(Vbootloader_init
p2346
(lp2347
(L916696368L
L0L
(lp2348
(lp2349
tp2350
a(L2120392034L
L0L
(lp2351
(lp2352
tp2353
a(L93837694L
L0L
(lp2354
(lp2355
tp2356
a(L1407003354L
L0L
(lp2357
(lp2358
tp2359
a(L4181561856L
L3785322319L
(lp2360
(lp2361
V__assert_func
p2362
atp2363
a(L3693077672L
L0L
(lp2364
(lp2365
tp2366
a(L534876412L
L3785322319L
(lp2367
(lp2368
V__assert_func
p2369
atp2370
a(L3094774488L
L0L
(lp2371
(lp2372
tp2373
a(L2667442241L
L3785322319L
(lp2374
(lp2375
V__assert_func
p2376
atp2377
a(L3163115042L
L0L
(lp2378
(lp2379
tp2380
a(L2718652973L
L3785322319L
(lp2381
(lp2382
V__assert_func
p2383
atp2384
a(L1231635319L
L3785322319L
(lp2385
(lp2386
Vbootloader_main
p2387
atp2388
a(L1299867982L
L0L
(lp2389
(lp2390
tp2391
a(L3360570486L
L0L
(lp2392
(lp2393
tp2394
atp2395
sI1074243524
(Vrtc_wdt_set_stage
p2396
(lp2397
(L1890082815L
L0L
(lp2398
(lp2399
tp2400
a(L1182990556L
L0L
(lp2401
(lp2402
tp2403
a(L4210890627L
L0L
(lp2404
(lp2405
tp2406
a(L1182990556L
L0L
(lp2407
(lp2408
tp2409
a(L3265635317L
L0L
(lp2410
(lp2411
tp2412
a(L2910371777L
L0L
(lp2413
(lp2414
tp2415
a(L3795064883L
L0L
(lp2416
(lp2417
tp2418
a(L3028464L
L0L
(lp2419
(lp2420
tp2421
a(L2735976179L
L0L
(lp2422
(lp2423
tp2424
a(L3028464L
L0L
(lp2425
(lp2426
tp2427
a(L267578292L
L0L
(lp2428
(lp2429
tp2430
a(L2416228599L
L0L
(lp2431
(lp2432
tp2433
a(L2079009947L
L0L
(lp2434
(lp2435
tp2436
atp2437
sI1074239424
(Vbootloader_sha256_start
p2438
(lp2439
(L2463733432L
L0L
(lp2440
(lp2441
tp2442
atp2443
sI1074236364
(Vbootloader_common_get_chip_revision
p2444
(lp2445
(L1816222095L
L0L
(lp2446
(lp2447
tp2448
a(L3020187L
L0L
(lp2449
(lp2450
tp2451
a(L3020187L
L0L
(lp2452
(lp2453
tp2454
a(L2993202392L
L0L
(lp2455
(lp2456
tp2457
a(L473242458L
L0L
(lp2458
(lp2459
tp2460
a(L1360746139L
L0L
(lp2461
(lp2462
tp2463
a(L3880706073L
L0L
(lp2464
(lp2465
tp2466
atp2467
sI1074238156
(Vtry_load_partition
p2468
(lp2469
(L3877261386L
L0L
(lp2470
(lp2471
tp2472
a(L3498772767L
L3785322319L
(lp2473
(lp2474
Vbootloader_load_image
p2475
atp2476
a(L3880706073L
L0L
(lp2477
(lp2478
tp2479
a(L2993202392L
L0L
(lp2480
(lp2481
tp2482
a(L2993202392L
L0L
(lp2483
(lp2484
tp2485
atp2486
sI1074234312
(Vbootloader_init_flash_configure
p2487
(lp2488
(L2326466312L
L1832448559L
(lp2489
(lp2490
Vbootloader_flash_gpio_config
p2491
aVbootloader_flash_dummy_config
p2492
aVbootloader_flash_cs_timing_config
p2493
atp2494
atp2495
sI1074238408
(Vunpack_load_app
p2496
(lp2497
(L1842422795L
L0L
(lp2498
(lp2499
tp2500
a(L3694708920L
L0L
(lp2501
(lp2502
tp2503
a(L2902417580L
L0L
(lp2504
(lp2505
tp2506
a(L2284277356L
L3785322319L
(lp2507
(lp2508
Vesp_log_early_timestamp
p2509
atp2510
a(L3411822821L
L0L
(lp2511
(lp2512
tp2513
a(L4074138008L
L0L
(lp2514
(lp2515
tp2516
a(L2902417580L
L0L
(lp2517
(lp2518
tp2519
a(L2037964269L
L3785322319L
(lp2520
(lp2521
Vesp_log_early_timestamp
p2522
atp2523
a(L87648306L
L0L
(lp2524
(lp2525
tp2526
a(L1799288861L
L0L
(lp2527
(lp2528
tp2529
a(L350965691L
L0L
(lp2530
(lp2531
tp2532
a(L106L
L0L
(lp2533
(lp2534
tp2535
a(L1717315991L
L3785322319L
(lp2536
(lp2537
Vset_cache_and_start_app
p2538
atp2539
atp2540
sI1074239944
(Vshould_map
p2541
(lp2542
(L2532903800L
L0L
(lp2543
(lp2544
tp2545
a(L1182990556L
L0L
(lp2546
(lp2547
tp2548
a(L3887685933L
L0L
(lp2549
(lp2550
tp2551
a(L1182990556L
L0L
(lp2552
(lp2553
tp2554
a(L1387712984L
L0L
(lp2555
(lp2556
tp2557
atp2558
sI1074269656
(Vbootloader_clock_configure
p2559
(lp2560
(L3493042567L
L0L
(lp2561
(lp2562
tp2563
a(L757419054L
L0L
(lp2564
(lp2565
tp2566
a(L432920917L
L0L
(lp2567
(lp2568
tp2569
a(L3638803278L
L0L
(lp2570
(lp2571
tp2572
a(L1812928027L
L0L
(lp2573
(lp2574
tp2575
a(L1812928027L
L0L
(lp2576
(lp2577
tp2578
a(L2312970590L
L0L
(lp2579
(lp2580
tp2581
a(L2595727135L
L1832448559L
(lp2582
(lp2583
Vrtc_clk_slow_freq_get
p2584
aVrtc_clk_fast_freq_get
p2585
aVrtc_clk_init
p2586
atp2587
atp2588
sI1074239444
(Vbootloader_sha256_data
p2589
(lp2590
(L4037466985L
L0L
(lp2591
(lp2592
tp2593
a(L2209069754L
L3785322319L
(lp2594
(lp2595
V__assert_func
p2596
atp2597
a(L2660352519L
L0L
(lp2598
(lp2599
tp2600
a(L4035883182L
L3785322319L
(lp2601
(lp2602
V__assert_func
p2603
atp2604
a(L66409669L
L0L
(lp2605
(lp2606
tp2607
a(L1702115072L
L0L
(lp2608
(lp2609
tp2610
a(L3318026594L
L0L
(lp2611
(lp2612
tp2613
a(L106L
L0L
(lp2614
(lp2615
tp2616
a(L549617646L
L3785322319L
(lp2617
(lp2618
V__bswapsi2
p2619
atp2620
a(L3027019L
L0L
(lp2621
(lp2622
tp2623
a(L3563475035L
L0L
(lp2624
(lp2625
tp2626
a(L3028464L
L0L
(lp2627
(lp2628
tp2629
a(L2980227821L
L0L
(lp2630
(lp2631
tp2632
a(L3496834130L
L0L
(lp2633
(lp2634
tp2635
a(L3028481L
L0L
(lp2636
(lp2637
tp2638
a(L3360570486L
L0L
(lp2639
(lp2640
tp2641
atp2642
sI1074242260
(Vesp_rom_spiflash_read_data
p2643
(lp2644
(L4122033220L
L0L
(lp2645
(lp2646
tp2647
a(L106L
L0L
(lp2648
(lp2649
tp2650
a(L2070875117L
L3785322319L
(lp2651
(lp2652
Vesp_rom_spiflash_wait_idle
p2653
atp2654
a(L2761836345L
L0L
(lp2655
(lp2656
tp2657
a(L896624064L
L0L
(lp2658
(lp2659
tp2660
a(L1904270500L
L0L
(lp2661
(lp2662
tp2663
a(L106L
L0L
(lp2664
(lp2665
tp2666
a(L3960067114L
L0L
(lp2667
(lp2668
tp2669
a(L256664550L
L0L
(lp2670
(lp2671
tp2672
a(L663200857L
L0L
(lp2673
(lp2674
tp2675
a(L1269925952L
L0L
(lp2676
(lp2677
tp2678
a(L1904270500L
L0L
(lp2679
(lp2680
tp2681
a(L1263158627L
L0L
(lp2682
(lp2683
tp2684
a(L131455463L
L0L
(lp2685
(lp2686
tp2687
a(L4208385735L
L0L
(lp2688
(lp2689
tp2690
a(L1305407438L
L0L
(lp2691
(lp2692
tp2693
a(L3960067114L
L0L
(lp2694
(lp2695
tp2696
a(L3027019L
L0L
(lp2697
(lp2698
tp2699
a(L2258777855L
L0L
(lp2700
(lp2701
tp2702
a(L3027007L
L0L
(lp2703
(lp2704
tp2705
a(L106L
L0L
(lp2706
(lp2707
tp2708
a(L2993202392L
L0L
(lp2709
(lp2710
tp2711
a(L3880706073L
L0L
(lp2712
(lp2713
tp2714
atp2715
sI1074235088
(Vbootloader_flash_dummy_config
p2716
(lp2717
(L4078571336L
L0L
(lp2718
(lp2719
tp2720
a(L3017366L
L0L
(lp2721
(lp2722
tp2723
a(L3016870L
L0L
(lp2724
(lp2725
tp2726
a(L3652619007L
L0L
(lp2727
(lp2728
tp2729
a(L2571765978L
L0L
(lp2730
(lp2731
tp2732
a(L1610443405L
L0L
(lp2733
(lp2734
tp2735
a(L1610443405L
L0L
(lp2736
(lp2737
tp2738
a(L1610443498L
L0L
(lp2739
(lp2740
tp2741
a(L1298875780L
L0L
(lp2742
(lp2743
tp2744
a(L680882736L
L0L
(lp2745
(lp2746
tp2747
a(L2902417580L
L0L
(lp2748
(lp2749
tp2750
a(L106L
L0L
(lp2751
(lp2752
tp2753
a(L3632614529L
L0L
(lp2754
(lp2755
tp2756
a(L434037735L
L0L
(lp2757
(lp2758
tp2759
a(L2472094024L
L0L
(lp2760
(lp2761
tp2762
a(L838225377L
L0L
(lp2763
(lp2764
tp2765
a(L309912272L
L0L
(lp2766
(lp2767
tp2768
atp2769
sI1074234332
(Vbootloader_flash_cs_timing_config
p2770
(lp2771
(L211636681L
L0L
(lp2772
(lp2773
tp2774
atp2775
sI1074242524
(Vesp_rom_spiflash_write_status
p2776
(lp2777
(L1831662817L
L3785322319L
(lp2778
(lp2779
Vesp_rom_spiflash_wait_idle
p2780
atp2781
a(L1496283364L
L0L
(lp2782
(lp2783
tp2784
a(L1387965403L
L3785322319L
(lp2785
(lp2786
Vesp_rom_spiflash_wait_idle
p2787
atp2788
atp2789
sI1074267860
(Vselected_boot_partition
p2790
(lp2791
(L2937841336L
L3785322319L
(lp2792
(lp2793
Vbootloader_utility_get_selected_boot_partition
p2794
atp2795
a(L2161672821L
L0L
(lp2796
(lp2797
tp2798
a(L3360570486L
L0L
(lp2799
(lp2800
tp2801
atp2802
sI1074270164
(Vrtc_clk_8m_enable
p2803
(lp2804
(L1474360438L
L0L
(lp2805
(lp2806
tp2807
a(L3172499985L
L0L
(lp2808
(lp2809
tp2810
a(L2508983489L
L0L
(lp2811
(lp2812
tp2813
a(L3687830607L
L0L
(lp2814
(lp2815
tp2816
a(L3605028322L
L0L
(lp2817
(lp2818
tp2819
a(L930055002L
L0L
(lp2820
(lp2821
tp2822
atp2823
sI1074243812
(Vrtc_wdt_set_length_of_reset_signal
p2824
(lp2825
(L1890082815L
L0L
(lp2826
(lp2827
tp2828
a(L1182990556L
L0L
(lp2829
(lp2830
tp2831
a(L4210890627L
L0L
(lp2832
(lp2833
tp2834
a(L1182990556L
L0L
(lp2835
(lp2836
tp2837
a(L3265635317L
L0L
(lp2838
(lp2839
tp2840
a(L2910371777L
L0L
(lp2841
(lp2842
tp2843
a(L2638122954L
L0L
(lp2844
(lp2845
tp2846
a(L2970100361L
L0L
(lp2847
(lp2848
tp2849
a(L2079009947L
L0L
(lp2850
(lp2851
tp2852
atp2853
sI1074269932
(Vrtc_clk_bbpll_disable
p2854
(lp2855
(L3068674621L
L0L
(lp2856
(lp2857
tp2858
a(L3926581731L
L0L
(lp2859
(lp2860
tp2861
a(L3360570486L
L0L
(lp2862
(lp2863
tp2864
atp2865
sI1074235616
(V__udivdi3
p2866
(lp2867
(L1385793588L
L0L
(lp2868
(lp2869
tp2870
a(L3027019L
L0L
(lp2871
(lp2872
tp2873
a(L106L
L0L
(lp2874
(lp2875
tp2876
a(L2092509388L
L0L
(lp2877
(lp2878
tp2879
a(L3502386743L
L0L
(lp2880
(lp2881
tp2882
a(L1366962904L
L0L
(lp2883
(lp2884
tp2885
a(L438338333L
L0L
(lp2886
(lp2887
tp2888
a(L3027019L
L0L
(lp2889
(lp2890
tp2891
a(L1598954342L
L0L
(lp2892
(lp2893
tp2894
a(L3753924055L
L0L
(lp2895
(lp2896
tp2897
a(L1897931368L
L0L
(lp2898
(lp2899
tp2900
a(L1870013079L
L0L
(lp2901
(lp2902
tp2903
a(L3021749L
L0L
(lp2904
(lp2905
tp2906
a(L2802159608L
L0L
(lp2907
(lp2908
tp2909
a(L3888552627L
L0L
(lp2910
(lp2911
tp2912
a(L2632174215L
L0L
(lp2913
(lp2914
tp2915
a(L2910371777L
L0L
(lp2916
(lp2917
tp2918
a(L305663930L
L0L
(lp2919
(lp2920
tp2921
a(L2740121073L
L0L
(lp2922
(lp2923
tp2924
a(L706293450L
L0L
(lp2925
(lp2926
tp2927
a(L4229162210L
L0L
(lp2928
(lp2929
tp2930
a(L2843085605L
L0L
(lp2931
(lp2932
tp2933
a(L3027019L
L0L
(lp2934
(lp2935
tp2936
a(L3073587686L
L0L
(lp2937
(lp2938
tp2939
a(L3122262879L
L0L
(lp2940
(lp2941
tp2942
a(L1300871293L
L0L
(lp2943
(lp2944
tp2945
a(L94415139L
L0L
(lp2946
(lp2947
tp2948
a(L3027019L
L0L
(lp2949
(lp2950
tp2951
a(L11368960L
L0L
(lp2952
(lp2953
tp2954
a(L3212626947L
L0L
(lp2955
(lp2956
tp2957
a(L3756070799L
L0L
(lp2958
(lp2959
tp2960
a(L1029992261L
L0L
(lp2961
(lp2962
tp2963
a(L438338333L
L0L
(lp2964
(lp2965
tp2966
a(L3027019L
L0L
(lp2967
(lp2968
tp2969
a(L2534896770L
L0L
(lp2970
(lp2971
tp2972
a(L2789765947L
L0L
(lp2973
(lp2974
tp2975
a(L3482374298L
L0L
(lp2976
(lp2977
tp2978
a(L1870018349L
L0L
(lp2979
(lp2980
tp2981
a(L3027019L
L0L
(lp2982
(lp2983
tp2984
a(L2802159608L
L0L
(lp2985
(lp2986
tp2987
a(L3888552627L
L0L
(lp2988
(lp2989
tp2990
a(L36877582L
L0L
(lp2991
(lp2992
tp2993
a(L3021749L
L0L
(lp2994
(lp2995
tp2996
a(L106L
L0L
(lp2997
(lp2998
tp2999
a(L3988749468L
L0L
(lp3000
(lp3001
tp3002
a(L1375050317L
L0L
(lp3003
(lp3004
tp3005
a(L4185861754L
L0L
(lp3006
(lp3007
tp3008
a(L892947480L
L0L
(lp3009
(lp3010
tp3011
a(L2258688482L
L0L
(lp3012
(lp3013
tp3014
a(L2856348002L
L0L
(lp3015
(lp3016
tp3017
a(L1351383952L
L0L
(lp3018
(lp3019
tp3020
a(L1681866360L
L0L
(lp3021
(lp3022
tp3023
a(L3021749L
L0L
(lp3024
(lp3025
tp3026
a(L4115096326L
L0L
(lp3027
(lp3028
tp3029
a(L2229771582L
L0L
(lp3030
(lp3031
tp3032
a(L3630858718L
L0L
(lp3033
(lp3034
tp3035
a(L1986658244L
L0L
(lp3036
(lp3037
tp3038
a(L3027019L
L0L
(lp3039
(lp3040
tp3041
a(L2802159608L
L0L
(lp3042
(lp3043
tp3044
a(L2938387302L
L0L
(lp3045
(lp3046
tp3047
a(L3219580898L
L0L
(lp3048
(lp3049
tp3050
a(L4280816470L
L0L
(lp3051
(lp3052
tp3053
a(L97422L
L0L
(lp3054
(lp3055
tp3056
a(L1621601873L
L0L
(lp3057
(lp3058
tp3059
a(L3070693089L
L0L
(lp3060
(lp3061
tp3062
a(L2361595480L
L0L
(lp3063
(lp3064
tp3065
a(L539227760L
L0L
(lp3066
(lp3067
tp3068
atp3069
sI1074238188
(Vset_cache_and_start_app
p3070
(lp3071
(L262680107L
L0L
(lp3072
(lp3073
tp3074
a(L2342545514L
L0L
(lp3075
(lp3076
tp3077
a(L1548223148L
L0L
(lp3078
(lp3079
tp3080
a(L3713120728L
L0L
(lp3081
(lp3082
tp3083
atp3084
sI1074237164
(Vbootloader_mmap_get_free_pages
p3085
(lp3086
(L1496516875L
L0L
(lp3087
(lp3088
tp3089
atp3090
sI1074241768
(Vbootloader_load_image
p3091
(lp3092
(L267004326L
L3785322319L
(lp3093
(lp3094
Vimage_load
p3095
atp3096
atp3097
sI1074237172
(Vbootloader_fill_random
p3098
(lp3099
(L4037466985L
L0L
(lp3100
(lp3101
tp3102
a(L1339704277L
L3785322319L
(lp3103
(lp3104
V__assert_func
p3105
atp3106
a(L3020204L
L0L
(lp3107
(lp3108
tp3109
a(L3105261274L
L0L
(lp3110
(lp3111
tp3112
a(L1057192042L
L0L
(lp3113
(lp3114
tp3115
a(L2799803148L
L0L
(lp3116
(lp3117
tp3118
a(L655163851L
L0L
(lp3119
(lp3120
tp3121
a(L1298905564L
L0L
(lp3122
(lp3123
tp3124
a(L2192561533L
L0L
(lp3125
(lp3126
tp3127
a(L3360570486L
L0L
(lp3128
(lp3129
tp3130
atp3131
sI1074240752
(Vprocess_segment
p3132
(lp3133
(L1619294549L
L3785322319L
(lp3134
(lp3135
Vbootloader_flash_read
p3136
atp3137
a(L2437540237L
L3785322319L
(lp3138
(lp3139
Vesp_log_early_timestamp
p3140
atp3141
a(L3020204L
L0L
(lp3142
(lp3143
tp3144
a(L574350325L
L3785322319L
(lp3145
(lp3146
Vbootloader_sha256_data
p3147
atp3148
a(L2774850535L
L3785322319L
(lp3149
(lp3150
Vverify_segment_header
p3151
atp3152
a(L2018477883L
L0L
(lp3153
(lp3154
tp3155
a(L3028481L
L0L
(lp3156
(lp3157
tp3158
a(L3765290443L
L3785322319L
(lp3159
(lp3160
Vesp_log_early_timestamp
p3161
atp3162
a(L3127031911L
L0L
(lp3163
(lp3164
tp3165
a(L4156176969L
L3785322319L
(lp3166
(lp3167
Vshould_load
p3168
atp3169
a(L1303560427L
L0L
(lp3170
(lp3171
tp3172
a(L1303560396L
L0L
(lp3173
(lp3174
tp3175
a(L1182930974L
L0L
(lp3176
(lp3177
tp3178
a(L3020204L
L0L
(lp3179
(lp3180
tp3181
a(L2812130835L
L0L
(lp3182
(lp3183
tp3184
a(L1433556282L
L0L
(lp3185
(lp3186
tp3187
a(L240042192L
L3785322319L
(lp3188
(lp3189
Vesp_log_early_timestamp
p3190
atp3191
a(L392595646L
L0L
(lp3192
(lp3193
tp3194
a(L1182990556L
L0L
(lp3195
(lp3196
tp3197
a(L695399705L
L0L
(lp3198
(lp3199
tp3200
a(L1183020347L
L0L
(lp3201
(lp3202
tp3203
a(L93892250L
L0L
(lp3204
(lp3205
tp3206
a(L937529370L
L3785322319L
(lp3207
(lp3208
Vesp_log_early_timestamp
p3209
atp3210
a(L3204908628L
L3785322319L
(lp3211
(lp3212
Vbootloader_mmap_get_free_pages
p3213
atp3214
a(L3125140558L
L3785322319L
(lp3215
(lp3216
Vprocess_segment_data
p3217
atp3218
a(L1034011649L
L0L
(lp3219
(lp3220
tp3221
a(L3021737L
L0L
(lp3222
(lp3223
tp3224
a(L2993202392L
L0L
(lp3225
(lp3226
tp3227
a(L2902417580L
L0L
(lp3228
(lp3229
tp3230
a(L3871473710L
L0L
(lp3231
(lp3232
tp3233
a(L735741265L
L0L
(lp3234
(lp3235
tp3236
a(L735741265L
L0L
(lp3237
(lp3238
tp3239
a(L2119673601L
L0L
(lp3240
(lp3241
tp3242
atp3243
sI1074267888
(Vselect_partition_number
p3244
(lp3245
(L1731214134L
L3785322319L
(lp3246
(lp3247
Vbootloader_utility_load_partition_table
p3248
atp3249
a(L481673452L
L3785322319L
(lp3250
(lp3251
Vesp_log_early_timestamp
p3252
atp3253
a(L880231726L
L3785322319L
(lp3254
(lp3255
Vselected_boot_partition
p3256
atp3257
atp3258
sI1074270448
(Vrtc_clk_slow_freq_get
p3259
(lp3260
(L1043332136L
L0L
(lp3261
(lp3262
tp3263
atp3264
sI1074269172
(Vabort
p3265
(lp3266
(L2577988798L
L3785322319L
(lp3267
(lp3268
Vesp_cpu_in_ocd_debug_mode
p3269
atp3270
a(L409441471L
L0L
(lp3271
(lp3272
tp3273
a(L106L
L0L
(lp3274
(lp3275
tp3276
atp3277
sI1074270964
(Vrtc_clk_xtal_freq_get
p3278
(lp3279
(L187761277L
L0L
(lp3280
(lp3281
tp3282
a(L2237928244L
L0L
(lp3283
(lp3284
tp3285
a(L1299866312L
L0L
(lp3286
(lp3287
tp3288
a(L1299866312L
L0L
(lp3289
(lp3290
tp3291
a(L2258688483L
L0L
(lp3292
(lp3293
tp3294
a(L2902417580L
L0L
(lp3295
(lp3296
tp3297
a(L1466989158L
L0L
(lp3298
(lp3299
tp3300
a(L2993202392L
L0L
(lp3301
(lp3302
tp3303
atp3304
sI1074241784
(Vesp_partition_table_verify
p3305
(lp3306
(L1363364359L
L0L
(lp3307
(lp3308
tp3309
a(L2934206965L
L0L
(lp3310
(lp3311
tp3312
a(L2544630126L
L0L
(lp3313
(lp3314
tp3315
a(L4183706628L
L0L
(lp3316
(lp3317
tp3318
a(L106L
L0L
(lp3319
(lp3320
tp3321
a(L2579271819L
L0L
(lp3322
(lp3323
tp3324
a(L3372403519L
L3785322319L
(lp3325
(lp3326
Vesp_log_early_timestamp
p3327
atp3328
a(L3838040592L
L0L
(lp3329
(lp3330
tp3331
a(L2902417580L
L0L
(lp3332
(lp3333
tp3334
a(L2579271819L
L0L
(lp3335
(lp3336
tp3337
a(L2695237445L
L3785322319L
(lp3338
(lp3339
Vesp_log_early_timestamp
p3340
atp3341
a(L4134261887L
L0L
(lp3342
(lp3343
tp3344
a(L2579271819L
L0L
(lp3345
(lp3346
tp3347
a(L4108914362L
L3785322319L
(lp3348
(lp3349
Vesp_log_early_timestamp
p3350
atp3351
a(L1610443436L
L0L
(lp3352
(lp3353
tp3354
a(L2966513628L
L0L
(lp3355
(lp3356
tp3357
a(L3720018517L
L0L
(lp3358
(lp3359
tp3360
a(L324306632L
L0L
(lp3361
(lp3362
tp3363
a(L2579271819L
L0L
(lp3364
(lp3365
tp3366
a(L3899193898L
L3785322319L
(lp3367
(lp3368
Vesp_log_early_timestamp
p3369
atp3370
a(L1799288861L
L0L
(lp3371
(lp3372
tp3373
a(L474850413L
L0L
(lp3374
(lp3375
tp3376
a(L106L
L0L
(lp3377
(lp3378
tp3379
a(L484089803L
L0L
(lp3380
(lp3381
tp3382
a(L2450571300L
L3785322319L
(lp3383
(lp3384
Vesp_log_early_timestamp
p3385
atp3386
a(L3854017309L
L0L
(lp3387
(lp3388
tp3389
a(L2966513628L
L0L
(lp3390
(lp3391
tp3392
a(L2966513628L
L0L
(lp3393
(lp3394
tp3395
atp3396
sI1074240248
(Vverify_image_header
p3397
(lp3398
(L171376062L
L0L
(lp3399
(lp3400
tp3401
a(L2910371777L
L0L
(lp3402
(lp3403
tp3404
a(L1900107132L
L3785322319L
(lp3405
(lp3406
Vesp_log_early_timestamp
p3407
atp3408
a(L1299866312L
L0L
(lp3409
(lp3410
tp3411
a(L702738123L
L0L
(lp3412
(lp3413
tp3414
a(L3710928811L
L3785322319L
(lp3415
(lp3416
Vbootloader_common_check_chip_validity
p3417
atp3418
a(L702738123L
L0L
(lp3419
(lp3420
tp3421
a(L3028481L
L0L
(lp3422
(lp3423
tp3424
a(L3270243289L
L0L
(lp3425
(lp3426
tp3427
a(L1140831891L
L3785322319L
(lp3428
(lp3429
Vesp_log_early_timestamp
p3430
atp3431
a(L385352084L
L0L
(lp3432
(lp3433
tp3434
a(L822665003L
L3785322319L
(lp3435
(lp3436
Vesp_log_early_timestamp
p3437
atp3438
a(L3360570486L
L0L
(lp3439
(lp3440
tp3441
atp3442
sI1074239992
(Vverify_segment_header
p3443
(lp3444
(L3674778058L
L0L
(lp3445
(lp3446
tp3447
a(L91522930L
L0L
(lp3448
(lp3449
tp3450
a(L3028481L
L0L
(lp3451
(lp3452
tp3453
a(L1274877335L
L3785322319L
(lp3454
(lp3455
Vesp_log_early_timestamp
p3456
atp3457
a(L536784482L
L3785322319L
(lp3458
(lp3459
Vshould_map
p3460
atp3461
a(L3496178735L
L0L
(lp3462
(lp3463
tp3464
a(L2910371777L
L0L
(lp3465
(lp3466
tp3467
a(L3805136362L
L3785322319L
(lp3468
(lp3469
Vesp_log_early_timestamp
p3470
atp3471
a(L2119673601L
L0L
(lp3472
(lp3473
tp3474
a(L2993202392L
L0L
(lp3475
(lp3476
tp3477
a(L2993202392L
L0L
(lp3478
(lp3479
tp3480
a(L2119673601L
L0L
(lp3481
(lp3482
tp3483
atp3484
ssS'functionsdups'
p3485
g11
((lp3486
tp3487
Rp3488
sS'immediatedups'
p3489
g11
((lp3490
tp3491
Rp3492
sS'functiondups'
p3493
g11
((lp3494
tp3495
Rp3496
sS'fuzzy'
p3497
(dp3498
L1536L
I1074239088
sL4061702297L
I1074242208
sL3018692462L
I1074241116
sL430153639L
I1074240676
sL381930313L
I1074240108
sL45806640L
I1074239944
sL2479661889L
I1074243704
sL3495415001L
I1074239608
sL3778768422L
I1074239132
sL312818747L
I1074238068
sL1622145584L
I1074235616
sL1157487583L
I1074272852
sL1420005888L
I1074270164
sL936080620L
I1074238804
sL874365493L
I1074238596
sL3110146889L
I1074238408
sL1991897232L
I1074242524
sL2475522855L
I1074234312
sL4059437021L
I1074271744
sL1435525536L
I1074271516
sL1766137975L
I1074270100
sL2738222727L
I1074271120
sL2723847017L
I1074237028
sL275633497L
I1074268872
sL3619350029L
I1074240380
sL410455735L
I1074240568
sL512571597L
I1074267936
sL3137762375L
I1074236452
sL578413630L
I1074240248
sL2649994811L
I1074267888
sL533883930L
I1074268336
sL433784338L
I1074268048
sL3481520713L
I1074242576
sL4160102055L
I1074268840
sL3476065511L
I1074272044
sL2033964903L
I1074270464
sL1060788199L
I1074271020
sL2565038594L
I1074240752
sL4270185191L
I1074270568
sL2705984041L
I1074242260
sL3380377753L
I1074242684
sL1043425753L
I1074237172
sL138378967L
I1074236788
sL447173967L
I1074243432
sL3128965227L
I1074239992
sL1178348887L
I1074269656
sL2637051203L
I1074268604
sL3706231047L
I1074239444
sL4155364446L
I1074236312
sL1016692206L
I1074271876
sL3897638057L
I1074268280
sL59547383L
I1074236584
sL3965284519L
I1074241784
ssb.