ccopy_reg
_reconstructor
p0
(crizzo
RizzoSignature
p1
c__builtin__
object
p2
Ntp3
Rp4
(dp5
S'formal'
p6
(dp7
L3627988031L
I1074243628
sL1398147410L
I1074236756
sL636629492L
I1074240788
sL3283517118L
I1074236488
sL1112691546L
I1074272872
sL607973681L
I1074268688
sL3134194653L
I1074270064
sL2277650125L
I1074271384
sL2134248997L
I1074244652
sL2041884577L
I1074236404
sL1433108606L
I1074240952
sL3764810355L
I1074270108
sL3236784117L
I1074272400
sL1250650513L
I1074240016
sL308050502L
I1074272000
sL344815511L
I1074272328
sL836653253L
I1074269600
sL1815150096L
I1074268008
sL580342964L
I1074268852
sL3717482160L
I1074240516
sL1296434798L
I1074240236
sL2897901713L
I1074240656
sL561443675L
I1074238600
sL3672828868L
I1074238328
sL2632774850L
I1074270168
sL2627623086L
I1074235532
sL2226029212L
I1074268112
sL4151521600L
I1074237144
sL2440008540L
I1074270248
sL4232960376L
I1074236720
sL4101925451L
I1074239168
sL99636423L
I1074273888
sL213197452L
I1074239540
sL279335836L
I1074244968
sL1261160209L
I1074272780
sL1876802790L
I1074239852
sL485776304L
I1074241160
sL2547471006L
I1074243212
sL1904560840L
I1074274336
sL1509002686L
I1074271136
sL2344845203L
I1074243592
sL480919800L
I1074244592
sL2418428789L
I1074235700
sL465199593L
I1074236436
sL4119339996L
I1074240976
sL4137022915L
I1074274368
sL2136341262L
I1074234640
sL746663130L
I1074237924
sL3938845594L
I1074235212
sL320296777L
I1074269644
sL3129199843L
I1074270088
sL3702197710L
I1074239760
sL3300025561L
I1074271500
sL3732023582L
I1074243948
sL2538659132L
I1074269268
sL2776996584L
I1074241084
sL2526168060L
I1074243788
sL1846289788L
I1074239832
sL2509384672L
I1074244788
sL974680943L
I1074268956
sL2756552506L
I1074273816
sL724214352L
I1074272156
sL2994162955L
I1074238776
sL3282256674L
I1074236908
sL2694957348L
I1074270412
sL1167310613L
I1074238380
sL2209875504L
I1074271544
sL3552423476L
I1074272372
sL2024627750L
I1074237452
sL2648287817L
I1074235616
sL409054961L
I1074238240
sL4272242741L
I1074272692
sL1587899956L
I1074239496
sL3492536505L
I1074271484
sL2161716810L
I1074238808
sL2531985020L
I1074271032
sL4095446147L
I1074268384
sL1079227891L
I1074271356
sL800720667L
I1074270692
sL4078196918L
I1074273556
sL1272301430L
I1074272552
sL1091798455L
I1074243364
sL183695447L
I1074235652
sL996921548L
I1074244636
sL2393611522L
I1074272912
sL1275348653L
I1074273080
sL2549938775L
I1074242576
sL2485485205L
I1074271200
sL401383258L
I1074240352
sL1868338154L
I1074267980
sL456083351L
I1074268632
sL3582838324L
I1074245076
sL3382025259L
I1074236960
sL2411516799L
I1074270044
sL2402411765L
I1074234568
sL1396453881L
I1074235740
sL3108490370L
I1074243312
sL53543159L
I1074244620
sL411065672L
I1074237344
sL3677446904L
I1074236576
sL1510410955L
I1074244696
sL2432257846L
I1074242236
sL4008997668L
I1074243680
sL2187400112L
I1074270192
sL2060335388L
I1074271588
sL3259189915L
I1074271604
sL2263182908L
I1074237336
sL1452694088L
I1074234456
sL2804501195L
I1074235668
sL693166520L
I1074242252
sL2321200816L
I1074240400
sL996012983L
I1074271412
sL2224357247L
I1074270296
sL4109328644L
I1074272056
sL4190612011L
I1074241584
sL3419090471L
I1074270968
sL771087384L
I1074269300
sL3667831665L
I1074236384
sL985602128L
I1074237200
sL225119108L
I1074270836
sL27545685L
I1074270452
sL4258801710L
I1074235384
sL240369573L
I1074234436
sL2249092089L
I1074268152
sL3745020111L
I1074268056
sL3322869492L
I1074270148
ssS'immediates'
p8
(dp9
sS'formaldups'
p10
c__builtin__
set
p11
((lp12
tp13
Rp14
sS'stringdups'
p15
g11
((lp16
tp17
Rp18
sS'fuzzydups'
p19
g11
((lp20
tp21
Rp22
sS'strings'
p23
(dp24
sS'functions'
p25
(dp26
I1074235652
(Vesp_cpu_in_ocd_debug_mode
p27
(lp28
(L3156077080L
L0L
(lp29
(lp30
tp31
atp32
sI1074240516
(Vverify_checksum
p33
(lp34
(L7413395L
L3785322319L
(lp35
(lp36
Vbootloader_flash_read
p37
atp38
a(L2929856351L
L3785322319L
(lp39
(lp40
Vesp_log_early_timestamp
p41
atp42
a(L3020204L
L0L
(lp43
(lp44
tp45
a(L2547710365L
L3785322319L
(lp46
(lp47
Vbootloader_sha256_data
p48
atp49
a(L4124473353L
L0L
(lp50
(lp51
tp52
a(L1223427414L
L0L
(lp53
(lp54
tp55
a(L755040691L
L0L
(lp56
(lp57
tp58
atp59
sI1074271500
(Vrtc_clk_slow_freq_get_hz
p60
(lp61
(L2601977293L
L3785322319L
(lp62
(lp63
Vrtc_clk_slow_freq_get
p64
atp65
a(L2902417580L
L0L
(lp66
(lp67
tp68
a(L3020187L
L0L
(lp69
(lp70
tp71
a(L106L
L0L
(lp72
(lp73
tp74
a(L1829435932L
L0L
(lp75
(lp76
tp77
a(L514278924L
L0L
(lp78
(lp79
tp80
a(L2993202392L
L0L
(lp81
(lp82
tp83
a(L1259231496L
L0L
(lp84
(lp85
tp86
atp87
sI1074272780
(Vrtc_clk_cpu_freq_set_config
p88
(lp89
(L3565285497L
L3785322319L
(lp90
(lp91
Vrtc_clk_xtal_freq_get
p92
atp93
a(L1739379997L
L1880226080L
(lp94
(lp95
Vrtc_clk_cpu_freq_to_xtal
p96
aVrtc_clk_wait_for_slow_cycle
p97
atp98
a(L3028464L
L0L
(lp99
(lp100
tp101
a(L94425498L
L3785322319L
(lp102
(lp103
Vrtc_clk_bbpll_disable
p104
atp105
a(L3978916712L
L0L
(lp106
(lp107
tp108
a(L2977209154L
L0L
(lp109
(lp110
tp111
a(L540421064L
L3785322319L
(lp112
(lp113
Vrtc_clk_cpu_freq_to_xtal
p114
atp115
a(L3028464L
L0L
(lp116
(lp117
tp118
a(L2697686144L
L1157885199L
(lp119
(lp120
Vrtc_clk_bbpll_enable
p121
aVrtc_clk_wait_for_slow_cycle
p122
aVrtc_clk_xtal_freq_get
p123
aVrtc_clk_bbpll_configure
p124
aVrtc_clk_cpu_freq_to_pll_mhz
p125
atp126
a(L3028464L
L0L
(lp127
(lp128
tp129
a(L94425498L
L3785322319L
(lp130
(lp131
Vrtc_clk_cpu_freq_to_8m
p132
atp133
a(L3360570486L
L0L
(lp134
(lp135
tp136
atp137
sI1074272000
(Vrtc_clk_xtal_freq_get
p138
(lp139
(L2866769724L
L0L
(lp140
(lp141
tp142
a(L2237928244L
L0L
(lp143
(lp144
tp145
a(L1299866312L
L0L
(lp146
(lp147
tp148
a(L1299866312L
L0L
(lp149
(lp150
tp151
a(L2258688483L
L0L
(lp152
(lp153
tp154
a(L2902417580L
L0L
(lp155
(lp156
tp157
a(L146254669L
L0L
(lp158
(lp159
tp160
a(L2993202392L
L0L
(lp161
(lp162
tp163
atp164
sI1074237452
(Vbootloader_random_enable
p165
(lp166
(L2381691527L
L0L
(lp167
(lp168
tp169
atp170
sI1074244620
(Vrtc_wdt_protect_off
p171
(lp172
(L3376069050L
L0L
(lp173
(lp174
tp175
atp176
sI1074239496
(Vbootloader_reset
p177
(lp178
(L817221039L
L0L
(lp179
(lp180
tp181
a(L106L
L0L
(lp182
(lp183
tp184
atp185
sI1074243592
(Vesp_rom_spiflash_read_statushigh
p186
(lp187
(L212687698L
L3785322319L
(lp188
(lp189
Vesp_rom_spiflash_wait_idle
p190
atp191
atp192
sI1074273816
(Vrtc_vddsdio_set_config
p193
(lp194
(L67533163L
L0L
(lp195
(lp196
tp197
atp198
sI1074236436
(Vbootloader_common_vddsdio_configure
p199
(lp200
(L1829974089L
L3785322319L
(lp201
(lp202
Vrtc_vddsdio_get_config
p203
atp204
a(L2022322744L
L3785322319L
(lp205
(lp206
Vrtc_vddsdio_set_config
p207
atp208
a(L3360570486L
L0L
(lp209
(lp210
tp211
atp212
sI1074235668
(Vesp_log_early_timestamp
p213
(lp214
(L1442283304L
L0L
(lp215
(lp216
tp217
atp218
sI1074240788
(Vprocess_segment_data
p219
(lp220
(L3236683529L
L3785322319L
(lp221
(lp222
Vbootloader_mmap
p223
atp224
a(L3053401030L
L3785322319L
(lp225
(lp226
Vesp_log_early_timestamp
p227
atp228
a(L1530368539L
L3785322319L
(lp229
(lp230
Vbootloader_fill_random
p231
atp232
a(L1818025468L
L0L
(lp233
(lp234
tp235
a(L1821719552L
L0L
(lp236
(lp237
tp238
a(L1299866312L
L0L
(lp239
(lp240
tp241
a(L2008416411L
L0L
(lp242
(lp243
tp244
a(L127299853L
L0L
(lp245
(lp246
tp247
a(L566909100L
L0L
(lp248
(lp249
tp250
a(L3343423362L
L0L
(lp251
(lp252
tp253
a(L4117779536L
L0L
(lp254
(lp255
tp256
a(L2902417580L
L0L
(lp257
(lp258
tp259
a(L2505185480L
L0L
(lp260
(lp261
tp262
a(L3094078540L
L3785322319L
(lp263
(lp264
Vbootloader_sha256_data
p265
atp266
a(L1770629922L
L0L
(lp267
(lp268
tp269
a(L3896226538L
L0L
(lp270
(lp271
tp272
a(L1564127900L
L3785322319L
(lp273
(lp274
Vbootloader_munmap
p275
atp276
atp277
sI1074268956
(Vbootloader_main
p278
(lp279
(L4107727418L
L1832448559L
(lp280
(lp281
Vbootloader_common_vddsdio_configure
p282
aVbootloader_read_flash_id
p283
aVbootloader_flash_read
p284
atp285
a(L761908273L
L3785322319L
(lp286
(lp287
Vesp_log_early_timestamp
p288
atp289
a(L1778391864L
L1832448559L
(lp290
(lp291
Vbootloader_common_get_chip_revision
p292
aVesp_log_early_timestamp
p293
aVbootloader_common_check_chip_validity
p294
atp295
a(L918908878L
L3785322319L
(lp296
(lp297
Vbootloader_init_flash_configure
p298
atp299
a(L2313341324L
L0L
(lp300
(lp301
tp302
a(L827481444L
L3785322319L
(lp303
(lp304
Vesp_log_early_timestamp
p305
atp306
a(L2164359610L
L2794580271L
(lp307
(lp308
Vbootloader_clock_configure
p309
aVuart_console_configure
p310
aVwdt_reset_check
p311
aVesp_log_early_timestamp
p312
aVesp_log_early_timestamp
p313
aVrtc_wdt_protect_off
p314
aVrtc_wdt_disable
p315
aVrtc_wdt_set_length_of_reset_signal
p316
aVrtc_wdt_set_length_of_reset_signal
p317
aVrtc_wdt_set_stage
p318
aVrtc_wdt_set_time
p319
aVrtc_wdt_enable
p320
aVrtc_wdt_protect_on
p321
aVesp_rom_spiflash_unlock
p322
aVesp_log_early_timestamp
p323
aVbootloader_random_enable
p324
aVbootloader_enable_qio_mode
p325
aVprint_flash_info
p326
aVupdate_flash_config
p327
atp328
a(L515633988L
L0L
(lp329
(lp330
tp331
atp332
sI1074240016
(Vbootloader_sha256_finish
p333
(lp334
(L4066096136L
L0L
(lp335
(lp336
tp337
a(L4214626693L
L3785322319L
(lp338
(lp339
V__assert_func
p340
atp341
a(L3020204L
L0L
(lp342
(lp343
tp344
a(L2274489992L
L0L
(lp345
(lp346
tp347
a(L2534656226L
L0L
(lp348
(lp349
tp350
a(L321015369L
L0L
(lp351
(lp352
tp353
a(L4076276744L
L3785322319L
(lp354
(lp355
V__assert_func
p356
atp357
a(L3957072819L
L3785322319L
(lp358
(lp359
Vbootloader_sha256_data
p360
atp361
a(L1377493587L
L3785322319L
(lp362
(lp363
V__assert_func
p364
atp365
a(L2924668092L
L1880226080L
(lp366
(lp367
V__bswapsi2
p368
aVbootloader_sha256_data
p369
atp370
a(L1795115460L
L3785322319L
(lp371
(lp372
V__assert_func
p373
atp374
a(L1389615549L
L0L
(lp375
(lp376
tp377
a(L3230271947L
L0L
(lp378
(lp379
tp380
a(L1389615549L
L0L
(lp381
(lp382
tp383
a(L1299866312L
L0L
(lp384
(lp385
tp386
a(L50566030L
L3785322319L
(lp387
(lp388
V__bswapsi2
p389
atp390
a(L93837694L
L0L
(lp391
(lp392
tp393
a(L3347778L
L0L
(lp394
(lp395
tp396
a(L3360570486L
L0L
(lp397
(lp398
tp399
atp400
sI1074239760
(Vindex_to_partition
p401
(lp402
(L4066096119L
L0L
(lp403
(lp404
tp405
a(L937847257L
L0L
(lp406
(lp407
tp408
a(L2808906342L
L0L
(lp409
(lp410
tp411
a(L1765918994L
L0L
(lp412
(lp413
tp414
a(L2808826781L
L0L
(lp415
(lp416
tp417
a(L2911029954L
L0L
(lp418
(lp419
tp420
a(L2511483031L
L0L
(lp421
(lp422
tp423
a(L1984670054L
L0L
(lp424
(lp425
tp426
a(L3698927993L
L0L
(lp427
(lp428
tp429
atp430
sI1074237200
(Vbootloader_flash_read
p431
(lp432
(L1127605422L
L0L
(lp433
(lp434
tp435
a(L651134264L
L3785322319L
(lp436
(lp437
Vesp_log_early_timestamp
p438
atp439
a(L899934477L
L0L
(lp440
(lp441
tp442
a(L3914264058L
L3785322319L
(lp443
(lp444
Vesp_log_early_timestamp
p445
atp446
a(L2696885836L
L0L
(lp447
(lp448
tp449
a(L1077332166L
L3785322319L
(lp450
(lp451
Vesp_log_early_timestamp
p452
atp453
a(L3020204L
L0L
(lp454
(lp455
tp456
a(L3807724270L
L3785322319L
(lp457
(lp458
Vbootloader_flash_read_allow_decrypt
p459
atp460
a(L1959236078L
L3785322319L
(lp461
(lp462
Vbootloader_flash_read_no_decrypt
p463
atp464
atp465
sI1074234640
(Vbootloader_flash_gpio_config
p466
(lp467
(L1541720566L
L0L
(lp468
(lp469
tp470
a(L1299866374L
L0L
(lp471
(lp472
tp473
a(L2258688485L
L0L
(lp474
(lp475
tp476
a(L1018833635L
L0L
(lp477
(lp478
tp479
a(L4287840674L
L0L
(lp480
(lp481
tp482
a(L3028464L
L0L
(lp483
(lp484
tp485
a(L4287840674L
L0L
(lp486
(lp487
tp488
a(L3028464L
L0L
(lp489
(lp490
tp491
a(L4287840674L
L0L
(lp492
(lp493
tp494
a(L1660894555L
L0L
(lp495
(lp496
tp497
a(L1271695794L
L0L
(lp498
(lp499
tp500
a(L2136249670L
L0L
(lp501
(lp502
tp503
a(L3360570486L
L0L
(lp504
(lp505
tp506
atp507
sI1074242576
(Vspi_cache_mode_switch
p508
(lp509
(L902177051L
L0L
(lp510
(lp511
tp512
a(L3801672690L
L0L
(lp513
(lp514
tp515
a(L3017366L
L0L
(lp516
(lp517
tp518
a(L106L
L0L
(lp519
(lp520
tp521
a(L3267686193L
L0L
(lp522
(lp523
tp524
a(L2501820856L
L0L
(lp525
(lp526
tp527
a(L3016870L
L0L
(lp528
(lp529
tp530
a(L1941887711L
L0L
(lp531
(lp532
tp533
a(L3016870L
L0L
(lp534
(lp535
tp536
a(L4060244283L
L0L
(lp537
(lp538
tp539
a(L2139305652L
L0L
(lp540
(lp541
tp542
a(L1162253671L
L0L
(lp543
(lp544
tp545
a(L3048073570L
L0L
(lp546
(lp547
tp548
a(L665824570L
L0L
(lp549
(lp550
tp551
a(L166022733L
L0L
(lp552
(lp553
tp554
atp555
sI1074268688
(Vwdt_reset_check
p556
(lp557
(L1022302856L
L0L
(lp558
(lp559
tp560
a(L3020187L
L0L
(lp561
(lp562
tp563
a(L367582592L
L0L
(lp564
(lp565
tp566
a(L367642441L
L0L
(lp567
(lp568
tp569
a(L2005476781L
L3785322319L
(lp570
(lp571
Vesp_log_early_timestamp
p572
atp573
a(L1298905564L
L0L
(lp574
(lp575
tp576
a(L1465910262L
L0L
(lp577
(lp578
tp579
a(L3020187L
L0L
(lp580
(lp581
tp582
a(L225031483L
L0L
(lp583
(lp584
tp585
a(L225091332L
L0L
(lp586
(lp587
tp588
a(L2354305992L
L3785322319L
(lp589
(lp590
Vesp_log_early_timestamp
p591
atp592
a(L3020204L
L0L
(lp593
(lp594
tp595
a(L1944713791L
L1880226080L
(lp596
(lp597
Vwdt_reset_info_dump
p598
aVwdt_reset_info_dump
p599
atp600
a(L3738038928L
L3785322319L
(lp601
(lp602
Vwdt_reset_cpu0_info_enable
p603
atp604
atp605
sI1074244636
(Vrtc_wdt_protect_on
p606
(lp607
(L1534143425L
L0L
(lp608
(lp609
tp610
atp611
sI1074273556
(Vrtc_vddsdio_get_config
p612
(lp613
(L2237269705L
L0L
(lp614
(lp615
tp616
a(L2666853447L
L0L
(lp617
(lp618
tp619
a(L786484038L
L0L
(lp620
(lp621
tp622
a(L3258540573L
L0L
(lp623
(lp624
tp625
a(L2518855278L
L0L
(lp626
(lp627
tp628
a(L1042585727L
L0L
(lp629
(lp630
tp631
a(L3360570486L
L0L
(lp632
(lp633
tp634
atp635
sI1074270248
(Vread_status_8b_xmc25qu64a
p636
(lp637
(L2780492150L
L2485746240L
(lp638
(lp639
Vexecute_flash_command
p640
aVesp_rom_spiflash_wait_idle
p641
aVexecute_flash_command
p642
aVexecute_flash_command
p643
atp644
atp645
sI1074272552
(Vrtc_clk_cpu_freq_to_pll_mhz
p646
(lp647
(L63170135L
L0L
(lp648
(lp649
tp650
a(L1541996779L
L0L
(lp651
(lp652
tp653
a(L1546614384L
L0L
(lp654
(lp655
tp656
a(L3390293174L
L1880226080L
(lp657
(lp658
Vesp_log_early_timestamp
p659
aVabort
p660
atp661
a(L2574574151L
L0L
(lp662
(lp663
tp664
a(L2281171144L
L0L
(lp665
(lp666
tp667
a(L3111319300L
L0L
(lp668
(lp669
tp670
a(L1341697716L
L1880226080L
(lp671
(lp672
Vrtc_clk_apb_freq_update
p673
aVrtc_clk_wait_for_slow_cycle
p674
atp675
atp676
sI1074243364
(Vesp_rom_spiflash_read_data
p677
(lp678
(L4122033220L
L0L
(lp679
(lp680
tp681
a(L106L
L0L
(lp682
(lp683
tp684
a(L2070875117L
L3785322319L
(lp685
(lp686
Vesp_rom_spiflash_wait_idle
p687
atp688
a(L2761836345L
L0L
(lp689
(lp690
tp691
a(L1611805978L
L0L
(lp692
(lp693
tp694
a(L2834742320L
L0L
(lp695
(lp696
tp697
a(L106L
L0L
(lp698
(lp699
tp700
a(L300863901L
L0L
(lp701
(lp702
tp703
a(L256664550L
L0L
(lp704
(lp705
tp706
a(L663200857L
L0L
(lp707
(lp708
tp709
a(L1803752986L
L0L
(lp710
(lp711
tp712
a(L2834742320L
L0L
(lp713
(lp714
tp715
a(L1263158627L
L0L
(lp716
(lp717
tp718
a(L131455463L
L0L
(lp719
(lp720
tp721
a(L4208385735L
L0L
(lp722
(lp723
tp724
a(L1305407438L
L0L
(lp725
(lp726
tp727
a(L300863901L
L0L
(lp728
(lp729
tp730
a(L3027019L
L0L
(lp731
(lp732
tp733
a(L2258777855L
L0L
(lp734
(lp735
tp736
a(L3027007L
L0L
(lp737
(lp738
tp739
a(L106L
L0L
(lp740
(lp741
tp742
a(L2993202392L
L0L
(lp743
(lp744
tp745
a(L3880706073L
L0L
(lp746
(lp747
tp748
atp749
sI1074236960
(Vbootloader_mmap
p750
(lp751
(L4035745451L
L0L
(lp752
(lp753
tp754
a(L3120819787L
L3785322319L
(lp755
(lp756
Vesp_log_early_timestamp
p757
atp758
a(L37320319L
L0L
(lp759
(lp760
tp761
a(L412005092L
L3785322319L
(lp762
(lp763
Vesp_log_early_timestamp
p764
atp765
a(L3039501649L
L0L
(lp766
(lp767
tp768
a(L3682182852L
L3785322319L
(lp769
(lp770
Vesp_log_early_timestamp
p771
atp772
a(L133415158L
L0L
(lp773
(lp774
tp775
atp776
sI1074238240
(Vlog_invalid_app_partition
p777
(lp778
(L3991230301L
L0L
(lp779
(lp780
tp781
a(L3028464L
L0L
(lp782
(lp783
tp784
a(L1860350300L
L3785322319L
(lp785
(lp786
Vesp_log_early_timestamp
p787
atp788
a(L2033768544L
L3785322319L
(lp789
(lp790
Vesp_log_early_timestamp
p791
atp792
a(L1297240675L
L3785322319L
(lp793
(lp794
Vesp_log_early_timestamp
p795
atp796
atp797
sI1074274336
(Vrtc_clk_cal_ratio
p798
(lp799
(L1747571394L
L1880226080L
(lp800
(lp801
Vrtc_clk_cal_internal
p802
aV__udivdi3
p803
atp804
atp805
sI1074243628
(Vesp_rom_spiflash_write_status
p806
(lp807
(L435346445L
L3785322319L
(lp808
(lp809
Vesp_rom_spiflash_wait_idle
p810
atp811
a(L527420272L
L0L
(lp812
(lp813
tp814
a(L1387965403L
L3785322319L
(lp815
(lp816
Vesp_rom_spiflash_wait_idle
p817
atp818
atp819
sI1074244652
(Vrtc_wdt_enable
p820
(lp821
(L3942869958L
L0L
(lp822
(lp823
tp824
atp825
sI1074271032
(Vrtc_clk_bbpll_enable
p826
(lp827
(L1992410361L
L0L
(lp828
(lp829
tp830
atp831
sI1074271544
(Vrtc_clk_fast_freq_set
p832
(lp833
(L3158906570L
L0L
(lp834
(lp835
tp836
atp837
sI1074272056
(Vrtc_clk_cpu_freq_mhz_to_config
p838
(lp839
(L2601984125L
L3785322319L
(lp840
(lp841
Vrtc_clk_xtal_freq_get
p842
atp843
a(L608772507L
L0L
(lp844
(lp845
tp846
a(L3263839434L
L0L
(lp847
(lp848
tp849
a(L2762074623L
L0L
(lp850
(lp851
tp852
a(L1541996779L
L0L
(lp853
(lp854
tp855
a(L1546614651L
L0L
(lp856
(lp857
tp858
a(L1555485793L
L0L
(lp859
(lp860
tp861
a(L1695987314L
L0L
(lp862
(lp863
tp864
a(L3652406074L
L0L
(lp865
(lp866
tp867
a(L260454862L
L0L
(lp868
(lp869
tp870
a(L2993202392L
L0L
(lp871
(lp872
tp873
a(L2993202392L
L0L
(lp874
(lp875
tp876
atp877
sI1074273080
(Vrtc_clk_init
p878
(lp879
(L2808786766L
L0L
(lp880
(lp881
tp882
a(L2549152574L
L3785322319L
(lp883
(lp884
Vrtc_clk_cpu_freq_to_xtal
p885
atp886
a(L2305086791L
L0L
(lp887
(lp888
tp889
a(L632012406L
L0L
(lp890
(lp891
tp892
a(L3224614952L
L0L
(lp893
(lp894
tp895
a(L1299866312L
L0L
(lp896
(lp897
tp898
a(L1299866312L
L0L
(lp899
(lp900
tp901
a(L1182811811L
L0L
(lp902
(lp903
tp904
a(L3020204L
L0L
(lp905
(lp906
tp907
a(L1849746773L
L3785322319L
(lp908
(lp909
Vrtc_clk_xtal_freq_get
p910
atp911
a(L1375577398L
L3785322319L
(lp912
(lp913
Vrtc_clk_xtal_freq_estimate
p914
atp915
a(L3691527419L
L3785322319L
(lp916
(lp917
Vesp_log_early_timestamp
p918
atp919
a(L4280195787L
L0L
(lp920
(lp921
tp922
a(L4233392623L
L0L
(lp923
(lp924
tp925
a(L1300789833L
L0L
(lp926
(lp927
tp928
a(L1300789833L
L0L
(lp929
(lp930
tp931
a(L2258718274L
L0L
(lp932
(lp933
tp934
a(L3028481L
L0L
(lp935
(lp936
tp937
a(L3183127930L
L3785322319L
(lp938
(lp939
Vrtc_clk_xtal_freq_estimate
p940
atp941
a(L803749683L
L3785322319L
(lp942
(lp943
Vesp_log_early_timestamp
p944
atp945
a(L4147761415L
L0L
(lp946
(lp947
tp948
a(L2637254386L
L2485746240L
(lp949
(lp950
Vrtc_clk_xtal_freq_update
p951
aVrtc_clk_apb_freq_update
p952
aVrtc_clk_cpu_freq_get_config
p953
aVrtc_clk_cpu_freq_mhz_to_config
p954
atp955
a(L868941249L
L1880226080L
(lp956
(lp957
Vesp_log_early_timestamp
p958
aVabort
p959
atp960
a(L52268861L
L3785322319L
(lp961
(lp962
Vrtc_clk_cpu_freq_set_config
p963
atp964
a(L3804637084L
L3785322319L
(lp965
(lp966
Vrtc_clk_32k_enable
p967
atp968
a(L3016870L
L0L
(lp969
(lp970
tp971
a(L1262003921L
L3785322319L
(lp972
(lp973
Vrtc_clk_8m_enable
p974
atp975
a(L530469956L
L1880226080L
(lp976
(lp977
Vrtc_clk_fast_freq_set
p978
aVrtc_clk_slow_freq_set
p979
atp980
atp981
sI1074239540
(Vbootloader_utility_load_boot_image
p982
(lp983
(L3583044102L
L0L
(lp984
(lp985
tp986
a(L534474525L
L3785322319L
(lp987
(lp988
Vtry_load_partition
p989
atp990
a(L1346171890L
L3785322319L
(lp991
(lp992
Vload_image
p993
atp994
a(L1706025263L
L1880226080L
(lp995
(lp996
Vesp_log_early_timestamp
p997
aVbootloader_reset
p998
atp999
a(L857253909L
L3785322319L
(lp1000
(lp1001
Vindex_to_partition
p1002
atp1003
a(L1255570883L
L3785322319L
(lp1004
(lp1005
Vtry_load_partition
p1006
atp1007
a(L1346171890L
L3785322319L
(lp1008
(lp1009
Vload_image
p1010
atp1011
a(L1391131227L
L3785322319L
(lp1012
(lp1013
Vlog_invalid_app_partition
p1014
atp1015
a(L11368960L
L0L
(lp1016
(lp1017
tp1018
a(L3802068281L
L0L
(lp1019
(lp1020
tp1021
a(L3021737L
L0L
(lp1022
(lp1023
tp1024
a(L830883630L
L0L
(lp1025
(lp1026
tp1027
a(L211840314L
L3785322319L
(lp1028
(lp1029
Vindex_to_partition
p1030
atp1031
a(L1255570883L
L3785322319L
(lp1032
(lp1033
Vtry_load_partition
p1034
atp1035
a(L1346171890L
L3785322319L
(lp1036
(lp1037
Vload_image
p1038
atp1039
a(L1868897605L
L3785322319L
(lp1040
(lp1041
Vlog_invalid_app_partition
p1042
atp1043
a(L3335942427L
L0L
(lp1044
(lp1045
tp1046
a(L3305857427L
L0L
(lp1047
(lp1048
tp1049
a(L2528911837L
L3785322319L
(lp1050
(lp1051
Vtry_load_partition
p1052
atp1053
a(L1043669393L
L1880226080L
(lp1054
(lp1055
Vesp_log_early_timestamp
p1056
aVload_image
p1057
atp1058
a(L2212547495L
L1880226080L
(lp1059
(lp1060
Vesp_log_early_timestamp
p1061
aVbootloader_reset
p1062
atp1063
atp1064
sI1074235700
(V__bswapsi2
p1065
(lp1066
(L1030949986L
L0L
(lp1067
(lp1068
tp1069
atp1070
sI1074236720
(Vspi_to_esp_err
p1071
(lp1072
(L4037458691L
L0L
(lp1073
(lp1074
tp1075
a(L2902417580L
L0L
(lp1076
(lp1077
tp1078
a(L3020187L
L0L
(lp1079
(lp1080
tp1081
a(L106L
L0L
(lp1082
(lp1083
tp1084
a(L2993202392L
L0L
(lp1085
(lp1086
tp1087
a(L1494417161L
L0L
(lp1088
(lp1089
tp1090
a(L515633988L
L0L
(lp1091
(lp1092
tp1093
a(L2064621597L
L0L
(lp1094
(lp1095
tp1096
atp1097
sI1074241584
(Vimage_load
p1098
(lp1099
(L2340434831L
L0L
(lp1100
(lp1101
tp1102
a(L106L
L0L
(lp1103
(lp1104
tp1105
a(L3883323600L
L0L
(lp1106
(lp1107
tp1108
a(L3028464L
L0L
(lp1109
(lp1110
tp1111
a(L106L
L0L
(lp1112
(lp1113
tp1114
a(L4271302672L
L3785322319L
(lp1115
(lp1116
Vesp_log_early_timestamp
p1117
atp1118
a(L1957739340L
L3785322319L
(lp1119
(lp1120
Vbootloader_flash_read
p1121
atp1122
a(L2950861325L
L0L
(lp1123
(lp1124
tp1125
a(L2568992188L
L3785322319L
(lp1126
(lp1127
Vbootloader_sha256_start
p1128
atp1129
a(L4173212049L
L3785322319L
(lp1130
(lp1131
Vbootloader_sha256_data
p1132
atp1133
a(L2258837437L
L0L
(lp1134
(lp1135
tp1136
a(L846347405L
L3785322319L
(lp1137
(lp1138
Vverify_image_header
p1139
atp1140
a(L1980404654L
L0L
(lp1141
(lp1142
tp1143
a(L3028464L
L0L
(lp1144
(lp1145
tp1146
a(L106L
L0L
(lp1147
(lp1148
tp1149
a(L2422499708L
L3785322319L
(lp1150
(lp1151
Vesp_log_early_timestamp
p1152
atp1153
a(L2671916466L
L0L
(lp1154
(lp1155
tp1156
a(L1898485626L
L3785322319L
(lp1157
(lp1158
Vprocess_segment
p1159
atp1160
a(L3878353414L
L0L
(lp1161
(lp1162
tp1163
a(L2125973223L
L0L
(lp1164
(lp1165
tp1166
a(L499151239L
L0L
(lp1167
(lp1168
tp1169
a(L3028464L
L0L
(lp1170
(lp1171
tp1172
a(L106L
L0L
(lp1173
(lp1174
tp1175
a(L1731947023L
L3785322319L
(lp1176
(lp1177
Vesp_log_early_timestamp
p1178
atp1179
a(L4041426534L
L3785322319L
(lp1180
(lp1181
Vesp_cpu_in_ocd_debug_mode
p1182
atp1183
a(L1482013975L
L3785322319L
(lp1184
(lp1185
Vverify_checksum
p1186
atp1187
a(L279608302L
L0L
(lp1188
(lp1189
tp1190
a(L3028464L
L0L
(lp1191
(lp1192
tp1193
a(L106L
L0L
(lp1194
(lp1195
tp1196
a(L1381165922L
L3785322319L
(lp1197
(lp1198
Vesp_log_early_timestamp
p1199
atp1200
a(L2073780613L
L0L
(lp1201
(lp1202
tp1203
a(L3020204L
L0L
(lp1204
(lp1205
tp1206
a(L3287840219L
L3785322319L
(lp1207
(lp1208
Vesp_cpu_in_ocd_debug_mode
p1209
atp1210
a(L3045806043L
L3785322319L
(lp1211
(lp1212
Vverify_simple_hash
p1213
atp1214
a(L3020204L
L0L
(lp1215
(lp1216
tp1217
a(L3688659868L
L3785322319L
(lp1218
(lp1219
Vbootloader_sha256_finish
p1220
atp1221
a(L3230798602L
L0L
(lp1222
(lp1223
tp1224
a(L84393073L
L3785322319L
(lp1225
(lp1226
Vbootloader_mmap
p1227
atp1228
a(L1338761057L
L3785322319L
(lp1229
(lp1230
Vbootloader_munmap
p1231
atp1232
a(L3028481L
L0L
(lp1233
(lp1234
tp1235
a(L3020187L
L0L
(lp1236
(lp1237
tp1238
a(L2993202392L
L0L
(lp1239
(lp1240
tp1241
a(L3965661703L
L3785322319L
(lp1242
(lp1243
Vshould_load
p1244
atp1245
a(L745073924L
L0L
(lp1246
(lp1247
tp1248
a(L715598799L
L0L
(lp1249
(lp1250
tp1251
a(L1755691241L
L0L
(lp1252
(lp1253
tp1254
a(L3381771173L
L0L
(lp1255
(lp1256
tp1257
a(L560171818L
L0L
(lp1258
(lp1259
tp1260
a(L1191274096L
L0L
(lp1261
(lp1262
tp1263
a(L1720234353L
L0L
(lp1264
(lp1265
tp1266
a(L2258777855L
L0L
(lp1267
(lp1268
tp1269
a(L85798113L
L0L
(lp1270
(lp1271
tp1272
a(L2993202392L
L0L
(lp1273
(lp1274
tp1275
a(L3151898214L
L0L
(lp1276
(lp1277
tp1278
a(L1304483917L
L0L
(lp1279
(lp1280
tp1281
a(L1755718488L
L0L
(lp1282
(lp1283
tp1284
a(L2258837437L
L0L
(lp1285
(lp1286
tp1287
a(L2910371777L
L0L
(lp1288
(lp1289
tp1290
a(L2104868686L
L0L
(lp1291
(lp1292
tp1293
a(L3020204L
L0L
(lp1294
(lp1295
tp1296
a(L3688659868L
L3785322319L
(lp1297
(lp1298
Vbootloader_sha256_finish
p1299
atp1300
a(L1886420299L
L0L
(lp1301
(lp1302
tp1303
a(L2079009947L
L0L
(lp1304
(lp1305
tp1306
a(L1191506266L
L0L
(lp1307
(lp1308
tp1309
atp1310
sI1074241084
(Vshould_load
p1311
(lp1312
(L1612065641L
L3785322319L
(lp1313
(lp1314
Vshould_map
p1315
atp1316
a(L4213426262L
L0L
(lp1317
(lp1318
tp1319
a(L3028464L
L0L
(lp1320
(lp1321
tp1322
a(L3544763586L
L0L
(lp1323
(lp1324
tp1325
a(L672584960L
L0L
(lp1326
(lp1327
tp1328
a(L3696812972L
L0L
(lp1329
(lp1330
tp1331
a(L1610443436L
L0L
(lp1332
(lp1333
tp1334
a(L1610443405L
L0L
(lp1335
(lp1336
tp1337
a(L1298875774L
L0L
(lp1338
(lp1339
tp1340
a(L735741265L
L0L
(lp1341
(lp1342
tp1343
atp1344
sI1074238776
(Vload_image
p1345
(lp1346
(L2044180699L
L1832448559L
(lp1347
(lp1348
Vesp_log_early_timestamp
p1349
aVbootloader_random_disable
p1350
aVunpack_load_app
p1351
atp1352
atp1353
sI1074272328
(Vrtc_clk_xtal_freq_update
p1354
(lp1355
(L3589519314L
L0L
(lp1356
(lp1357
tp1358
a(L3509357017L
L0L
(lp1359
(lp1360
tp1361
a(L1649599637L
L0L
(lp1362
(lp1363
tp1364
atp1365
sI1074234436
(Vbootloader_init_flash_configure
p1366
(lp1367
(L2326466312L
L1832448559L
(lp1368
(lp1369
Vbootloader_flash_gpio_config
p1370
aVbootloader_flash_dummy_config
p1371
aVbootloader_flash_cs_timing_config
p1372
atp1373
atp1374
sI1074267980
(Vselected_boot_partition
p1375
(lp1376
(L2937841336L
L3785322319L
(lp1377
(lp1378
Vbootloader_utility_get_selected_boot_partition
p1379
atp1380
a(L2161672821L
L0L
(lp1381
(lp1382
tp1383
a(L3360570486L
L0L
(lp1384
(lp1385
tp1386
atp1387
sI1074274368
(Vrtc_clk_wait_for_slow_cycle
p1388
(lp1389
(L932098951L
L0L
(lp1390
(lp1391
tp1392
a(L4275006809L
L0L
(lp1393
(lp1394
tp1395
a(L1474402853L
L0L
(lp1396
(lp1397
tp1398
a(L3360570486L
L0L
(lp1399
(lp1400
tp1401
atp1402
sI1074235212
(Vbootloader_flash_dummy_config
p1403
(lp1404
(L4078571336L
L0L
(lp1405
(lp1406
tp1407
a(L3017366L
L0L
(lp1408
(lp1409
tp1410
a(L3016870L
L0L
(lp1411
(lp1412
tp1413
a(L3652619007L
L0L
(lp1414
(lp1415
tp1416
a(L2571765978L
L0L
(lp1417
(lp1418
tp1419
a(L1610443405L
L0L
(lp1420
(lp1421
tp1422
a(L1610443405L
L0L
(lp1423
(lp1424
tp1425
a(L1610443498L
L0L
(lp1426
(lp1427
tp1428
a(L1298875780L
L0L
(lp1429
(lp1430
tp1431
a(L680882736L
L0L
(lp1432
(lp1433
tp1434
a(L2902417580L
L0L
(lp1435
(lp1436
tp1437
a(L106L
L0L
(lp1438
(lp1439
tp1440
a(L3632614529L
L0L
(lp1441
(lp1442
tp1443
a(L434037735L
L0L
(lp1444
(lp1445
tp1446
a(L2472094024L
L0L
(lp1447
(lp1448
tp1449
a(L838225377L
L0L
(lp1450
(lp1451
tp1452
a(L309912272L
L0L
(lp1453
(lp1454
tp1455
atp1456
sI1074236488
(Vbootloader_common_get_chip_revision
p1457
(lp1458
(L1816222095L
L0L
(lp1459
(lp1460
tp1461
a(L3020187L
L0L
(lp1462
(lp1463
tp1464
a(L3020187L
L0L
(lp1465
(lp1466
tp1467
a(L2993202392L
L0L
(lp1468
(lp1469
tp1470
a(L473242458L
L0L
(lp1471
(lp1472
tp1473
a(L1360746139L
L0L
(lp1474
(lp1475
tp1476
a(L3880706073L
L0L
(lp1477
(lp1478
tp1479
atp1480
sI1074270296
(Venable_qio_mode
p1481
(lp1482
(L1021907621L
L0L
(lp1483
(lp1484
tp1485
a(L2582126845L
L0L
(lp1486
(lp1487
tp1488
a(L3150904009L
L3785322319L
(lp1489
(lp1490
Vesp_rom_spiflash_wait_idle
p1491
atp1492
a(L1498070L
L1880226080L
(lp1493
(lp1494
Vexecute_flash_command
p1495
aVesp_rom_spiflash_wait_idle
p1496
atp1497
a(L686500502L
L3785322319L
(lp1498
(lp1499
Vesp_log_early_timestamp
p1500
atp1501
a(L2525002641L
L3785322319L
(lp1502
(lp1503
Vesp_rom_spiflash_config_readmode
p1504
atp1505
atp1506
sI1074236756
(Vbootloader_flash_read_allow_decrypt
p1507
(lp1508
(L3381655731L
L0L
(lp1509
(lp1510
tp1511
a(L1008423003L
L0L
(lp1512
(lp1513
tp1514
a(L3989888000L
L0L
(lp1515
(lp1516
tp1517
a(L2508888660L
L3785322319L
(lp1518
(lp1519
Vesp_log_early_timestamp
p1520
atp1521
a(L2835909824L
L0L
(lp1522
(lp1523
tp1524
a(L1671197553L
L0L
(lp1525
(lp1526
tp1527
a(L3423665670L
L0L
(lp1528
(lp1529
tp1530
a(L106L
L0L
(lp1531
(lp1532
tp1533
a(L2993202392L
L0L
(lp1534
(lp1535
tp1536
atp1537
sI1074270044
(Vwrite_status_8b_wrsr2
p1538
(lp1539
(L3772914914L
L3785322319L
(lp1540
(lp1541
Vexecute_flash_command
p1542
atp1543
atp1544
sI1074235740
(V__udivdi3
p1545
(lp1546
(L1385793588L
L0L
(lp1547
(lp1548
tp1549
a(L3027019L
L0L
(lp1550
(lp1551
tp1552
a(L106L
L0L
(lp1553
(lp1554
tp1555
a(L2092509388L
L0L
(lp1556
(lp1557
tp1558
a(L3502386743L
L0L
(lp1559
(lp1560
tp1561
a(L1366962904L
L0L
(lp1562
(lp1563
tp1564
a(L438338333L
L0L
(lp1565
(lp1566
tp1567
a(L3027019L
L0L
(lp1568
(lp1569
tp1570
a(L1598954342L
L0L
(lp1571
(lp1572
tp1573
a(L3753924055L
L0L
(lp1574
(lp1575
tp1576
a(L1897931368L
L0L
(lp1577
(lp1578
tp1579
a(L1870013079L
L0L
(lp1580
(lp1581
tp1582
a(L3021749L
L0L
(lp1583
(lp1584
tp1585
a(L2802159608L
L0L
(lp1586
(lp1587
tp1588
a(L3888552627L
L0L
(lp1589
(lp1590
tp1591
a(L2632174215L
L0L
(lp1592
(lp1593
tp1594
a(L2910371777L
L0L
(lp1595
(lp1596
tp1597
a(L305663930L
L0L
(lp1598
(lp1599
tp1600
a(L2740121073L
L0L
(lp1601
(lp1602
tp1603
a(L706293450L
L0L
(lp1604
(lp1605
tp1606
a(L4229162210L
L0L
(lp1607
(lp1608
tp1609
a(L2843085605L
L0L
(lp1610
(lp1611
tp1612
a(L3027019L
L0L
(lp1613
(lp1614
tp1615
a(L3073587686L
L0L
(lp1616
(lp1617
tp1618
a(L3122262879L
L0L
(lp1619
(lp1620
tp1621
a(L1300871293L
L0L
(lp1622
(lp1623
tp1624
a(L94415139L
L0L
(lp1625
(lp1626
tp1627
a(L3027019L
L0L
(lp1628
(lp1629
tp1630
a(L11368960L
L0L
(lp1631
(lp1632
tp1633
a(L3212626947L
L0L
(lp1634
(lp1635
tp1636
a(L3756070799L
L0L
(lp1637
(lp1638
tp1639
a(L1029992261L
L0L
(lp1640
(lp1641
tp1642
a(L438338333L
L0L
(lp1643
(lp1644
tp1645
a(L3027019L
L0L
(lp1646
(lp1647
tp1648
a(L2534896770L
L0L
(lp1649
(lp1650
tp1651
a(L2789765947L
L0L
(lp1652
(lp1653
tp1654
a(L3482374298L
L0L
(lp1655
(lp1656
tp1657
a(L1870018349L
L0L
(lp1658
(lp1659
tp1660
a(L3027019L
L0L
(lp1661
(lp1662
tp1663
a(L2802159608L
L0L
(lp1664
(lp1665
tp1666
a(L3888552627L
L0L
(lp1667
(lp1668
tp1669
a(L36877582L
L0L
(lp1670
(lp1671
tp1672
a(L3021749L
L0L
(lp1673
(lp1674
tp1675
a(L106L
L0L
(lp1676
(lp1677
tp1678
a(L3988749468L
L0L
(lp1679
(lp1680
tp1681
a(L1375050317L
L0L
(lp1682
(lp1683
tp1684
a(L4185861754L
L0L
(lp1685
(lp1686
tp1687
a(L892947480L
L0L
(lp1688
(lp1689
tp1690
a(L2258688482L
L0L
(lp1691
(lp1692
tp1693
a(L2856348002L
L0L
(lp1694
(lp1695
tp1696
a(L1351383952L
L0L
(lp1697
(lp1698
tp1699
a(L1681866360L
L0L
(lp1700
(lp1701
tp1702
a(L3021749L
L0L
(lp1703
(lp1704
tp1705
a(L4115096326L
L0L
(lp1706
(lp1707
tp1708
a(L2229771582L
L0L
(lp1709
(lp1710
tp1711
a(L3630858718L
L0L
(lp1712
(lp1713
tp1714
a(L1986658244L
L0L
(lp1715
(lp1716
tp1717
a(L3027019L
L0L
(lp1718
(lp1719
tp1720
a(L2802159608L
L0L
(lp1721
(lp1722
tp1723
a(L2938387302L
L0L
(lp1724
(lp1725
tp1726
a(L3219580898L
L0L
(lp1727
(lp1728
tp1729
a(L4280816470L
L0L
(lp1730
(lp1731
tp1732
a(L97422L
L0L
(lp1733
(lp1734
tp1735
a(L1621601873L
L0L
(lp1736
(lp1737
tp1738
a(L3070693089L
L0L
(lp1739
(lp1740
tp1741
a(L2361595480L
L0L
(lp1742
(lp1743
tp1744
a(L539227760L
L0L
(lp1745
(lp1746
tp1747
atp1748
sI1074269268
(V__assert_func
p1749
(lp1750
(L434373324L
L3785322319L
(lp1751
(lp1752
Vesp_log_early_timestamp
p1753
atp1754
a(L106L
L0L
(lp1755
(lp1756
tp1757
atp1758
sI1074234456
(Vbootloader_flash_cs_timing_config
p1759
(lp1760
(L211636681L
L0L
(lp1761
(lp1762
tp1763
atp1764
sI1074238808
(Vbootloader_utility_load_partition_table
p1765
(lp1766
(L1607437836L
L3785322319L
(lp1767
(lp1768
Vbootloader_mmap
p1769
atp1770
a(L3314371792L
L3785322319L
(lp1771
(lp1772
Vesp_log_early_timestamp
p1773
atp1774
a(L3715067384L
L3785322319L
(lp1775
(lp1776
Vesp_partition_table_verify
p1777
atp1778
a(L2735004267L
L3785322319L
(lp1779
(lp1780
Vesp_log_early_timestamp
p1781
atp1782
a(L3002241677L
L1880226080L
(lp1783
(lp1784
Vesp_log_early_timestamp
p1785
aVesp_log_early_timestamp
p1786
atp1787
a(L1941612774L
L0L
(lp1788
(lp1789
tp1790
a(L3020187L
L0L
(lp1791
(lp1792
tp1793
a(L106L
L0L
(lp1794
(lp1795
tp1796
a(L3732412336L
L0L
(lp1797
(lp1798
tp1799
a(L3020187L
L0L
(lp1800
(lp1801
tp1802
a(L106L
L0L
(lp1803
(lp1804
tp1805
a(L58577177L
L0L
(lp1806
(lp1807
tp1808
a(L997267850L
L0L
(lp1809
(lp1810
tp1811
a(L2893469516L
L0L
(lp1812
(lp1813
tp1814
a(L495344607L
L0L
(lp1815
(lp1816
tp1817
a(L129023391L
L0L
(lp1818
(lp1819
tp1820
a(L2902417580L
L0L
(lp1821
(lp1822
tp1823
a(L3020187L
L0L
(lp1824
(lp1825
tp1826
a(L3020187L
L0L
(lp1827
(lp1828
tp1829
a(L106L
L0L
(lp1830
(lp1831
tp1832
a(L826371882L
L0L
(lp1833
(lp1834
tp1835
a(L1164903731L
L0L
(lp1836
(lp1837
tp1838
a(L826371510L
L0L
(lp1839
(lp1840
tp1841
a(L826372843L
L0L
(lp1842
(lp1843
tp1844
a(L826373184L
L0L
(lp1845
(lp1846
tp1847
a(L826372347L
L0L
(lp1848
(lp1849
tp1850
a(L2104867120L
L0L
(lp1851
(lp1852
tp1853
a(L3868116174L
L3785322319L
(lp1854
(lp1855
Vesp_log_early_timestamp
p1856
atp1857
a(L846653465L
L0L
(lp1858
(lp1859
tp1860
a(L106L
L0L
(lp1861
(lp1862
tp1863
a(L3720456947L
L1880226080L
(lp1864
(lp1865
Vbootloader_munmap
p1866
aVesp_log_early_timestamp
p1867
atp1868
atp1869
sI1074239832
(Vbootloader_sha256_start
p1870
(lp1871
(L953684997L
L0L
(lp1872
(lp1873
tp1874
atp1875
sI1074244696
(Vrtc_wdt_set_time
p1876
(lp1877
(L607216364L
L0L
(lp1878
(lp1879
tp1880
a(L1295862902L
L1880226080L
(lp1881
(lp1882
Vrtc_clk_slow_freq_get_hz
p1883
aV__udivdi3
p1884
atp1885
a(L324454518L
L0L
(lp1886
(lp1887
tp1888
a(L3028464L
L0L
(lp1889
(lp1890
tp1891
a(L640407851L
L0L
(lp1892
(lp1893
tp1894
a(L3028464L
L0L
(lp1895
(lp1896
tp1897
a(L289108415L
L0L
(lp1898
(lp1899
tp1900
a(L3795342139L
L0L
(lp1901
(lp1902
tp1903
a(L2079009947L
L0L
(lp1904
(lp1905
tp1906
atp1907
sI1074268008
(Vselect_partition_number
p1908
(lp1909
(L1731214134L
L3785322319L
(lp1910
(lp1911
Vbootloader_utility_load_partition_table
p1912
atp1913
a(L481673452L
L3785322319L
(lp1914
(lp1915
Vesp_log_early_timestamp
p1916
atp1917
a(L880231726L
L3785322319L
(lp1918
(lp1919
Vselected_boot_partition
p1920
atp1921
atp1922
sI1074272872
(Vrtc_clk_apb_freq_get
p1923
(lp1924
(L818606821L
L0L
(lp1925
(lp1926
tp1927
atp1928
sI1074240352
(Vshould_map
p1929
(lp1930
(L1425736688L
L0L
(lp1931
(lp1932
tp1933
a(L1182990556L
L0L
(lp1934
(lp1935
tp1936
a(L3467618445L
L0L
(lp1937
(lp1938
tp1939
a(L1182990556L
L0L
(lp1940
(lp1941
tp1942
a(L1387712984L
L0L
(lp1943
(lp1944
tp1945
atp1946
sI1074243680
(Vesp_rom_spiflash_unlock
p1947
(lp1948
(L1810187783L
L1880226080L
(lp1949
(lp1950
Vesp_rom_spiflash_wait_idle
p1951
aVesp_rom_spiflash_read_statushigh
p1952
atp1953
a(L1998406184L
L3785322319L
(lp1954
(lp1955
Vesp_rom_spiflash_wait_idle
p1956
atp1957
a(L2834742320L
L0L
(lp1958
(lp1959
tp1960
a(L3980999972L
L1880226080L
(lp1961
(lp1962
Vesp_rom_spiflash_wait_idle
p1963
aVesp_rom_spiflash_write_status
p1964
atp1965
a(L3880706073L
L0L
(lp1966
(lp1967
tp1968
a(L2258688483L
L0L
(lp1969
(lp1970
tp1971
a(L3360570486L
L0L
(lp1972
(lp1973
tp1974
atp1975
sI1074273888
(Vrtc_clk_cal_internal
p1976
(lp1977
(L3625947157L
L0L
(lp1978
(lp1979
tp1980
a(L3507628020L
L3785322319L
(lp1981
(lp1982
V__assert_func
p1983
atp1984
a(L206813234L
L0L
(lp1985
(lp1986
tp1987
a(L4138002424L
L0L
(lp1988
(lp1989
tp1990
a(L3028464L
L0L
(lp1991
(lp1992
tp1993
a(L3139432599L
L0L
(lp1994
(lp1995
tp1996
a(L969744260L
L0L
(lp1997
(lp1998
tp1999
a(L3778615171L
L0L
(lp2000
(lp2001
tp2002
a(L97422L
L0L
(lp2003
(lp2004
tp2005
a(L571614780L
L0L
(lp2006
(lp2007
tp2008
a(L3900104337L
L0L
(lp2009
(lp2010
tp2011
a(L3900104213L
L0L
(lp2012
(lp2013
tp2014
a(L3900104213L
L0L
(lp2015
(lp2016
tp2017
a(L3900104337L
L0L
(lp2018
(lp2019
tp2020
a(L3450945801L
L0L
(lp2021
(lp2022
tp2023
a(L2561305619L
L1880226080L
(lp2024
(lp2025
V__udivdi3
p2026
aVrtc_clk_xtal_freq_get
p2027
atp2028
a(L1610443417L
L0L
(lp2029
(lp2030
tp2031
a(L1982353080L
L0L
(lp2032
(lp2033
tp2034
a(L235809506L
L3785322319L
(lp2035
(lp2036
Vesp_log_early_timestamp
p2037
atp2038
a(L856108415L
L0L
(lp2039
(lp2040
tp2041
a(L108059713L
L0L
(lp2042
(lp2043
tp2044
a(L1474403349L
L0L
(lp2045
(lp2046
tp2047
a(L3021737L
L0L
(lp2048
(lp2049
tp2050
a(L2460187195L
L0L
(lp2051
(lp2052
tp2053
a(L1471169863L
L0L
(lp2054
(lp2055
tp2056
a(L2902417580L
L0L
(lp2057
(lp2058
tp2059
a(L3500937780L
L0L
(lp2060
(lp2061
tp2062
a(L2993202392L
L0L
(lp2063
(lp2064
tp2065
atp2066
sI1074239852
(Vbootloader_sha256_data
p2067
(lp2068
(L4037466985L
L0L
(lp2069
(lp2070
tp2071
a(L3225651156L
L3785322319L
(lp2072
(lp2073
V__assert_func
p2074
atp2075
a(L2660352519L
L0L
(lp2076
(lp2077
tp2078
a(L4020623792L
L3785322319L
(lp2079
(lp2080
V__assert_func
p2081
atp2082
a(L66409669L
L0L
(lp2083
(lp2084
tp2085
a(L207848058L
L0L
(lp2086
(lp2087
tp2088
a(L1389623843L
L0L
(lp2089
(lp2090
tp2091
a(L106L
L0L
(lp2092
(lp2093
tp2094
a(L1789790349L
L3785322319L
(lp2095
(lp2096
V__bswapsi2
p2097
atp2098
a(L3027019L
L0L
(lp2099
(lp2100
tp2101
a(L3348822817L
L0L
(lp2102
(lp2103
tp2104
a(L3028464L
L0L
(lp2105
(lp2106
tp2107
a(L3278521907L
L0L
(lp2108
(lp2109
tp2110
a(L3461388050L
L0L
(lp2111
(lp2112
tp2113
a(L3028481L
L0L
(lp2114
(lp2115
tp2116
a(L3360570486L
L0L
(lp2117
(lp2118
tp2119
atp2120
sI1074243948
(Vesp_rom_spiflash_read
p2121
(lp2122
(L441472846L
L0L
(lp2123
(lp2124
tp2125
a(L2882747913L
L0L
(lp2126
(lp2127
tp2128
a(L3017366L
L0L
(lp2129
(lp2130
tp2131
a(L106L
L0L
(lp2132
(lp2133
tp2134
a(L193014149L
L0L
(lp2135
(lp2136
tp2137
a(L106L
L0L
(lp2138
(lp2139
tp2140
a(L979377122L
L0L
(lp2141
(lp2142
tp2143
a(L2976822594L
L0L
(lp2144
(lp2145
tp2146
a(L2590918635L
L0L
(lp2147
(lp2148
tp2149
a(L3016870L
L0L
(lp2150
(lp2151
tp2152
a(L303263261L
L0L
(lp2153
(lp2154
tp2155
a(L3016870L
L0L
(lp2156
(lp2157
tp2158
a(L1484497800L
L0L
(lp2159
(lp2160
tp2161
a(L597241526L
L0L
(lp2162
(lp2163
tp2164
a(L2002334952L
L0L
(lp2165
(lp2166
tp2167
a(L3620657441L
L0L
(lp2168
(lp2169
tp2170
a(L729236962L
L0L
(lp2171
(lp2172
tp2173
a(L1767351499L
L0L
(lp2174
(lp2175
tp2176
a(L1511520389L
L0L
(lp2177
(lp2178
tp2179
a(L679443817L
L3785322319L
(lp2180
(lp2181
Vesp_rom_spiflash_read_data
p2182
atp2183
a(L1298875774L
L0L
(lp2184
(lp2185
tp2186
a(L735741265L
L0L
(lp2187
(lp2188
tp2189
atp2190
sI1074271588
(Vrtc_clk_fast_freq_get
p2191
(lp2192
(L2001533871L
L0L
(lp2193
(lp2194
tp2195
atp2196
sI1074244968
(Vrtc_wdt_disable
p2197
(lp2198
(L1233433337L
L3785322319L
(lp2199
(lp2200
Vrtc_wdt_get_protect_status
p2201
atp2202
a(L3827921190L
L3785322319L
(lp2203
(lp2204
Vrtc_wdt_protect_off
p2205
atp2206
a(L1521210018L
L2485746240L
(lp2207
(lp2208
Vrtc_wdt_set_stage
p2209
aVrtc_wdt_set_stage
p2210
aVrtc_wdt_set_stage
p2211
aVrtc_wdt_set_stage
p2212
atp2213
a(L94425498L
L3785322319L
(lp2214
(lp2215
Vrtc_wdt_protect_on
p2216
atp2217
a(L3360570486L
L0L
(lp2218
(lp2219
tp2220
atp2221
sI1074271356
(Vrtc_clk_8m_enabled
p2222
(lp2223
(L745232282L
L0L
(lp2224
(lp2225
tp2226
atp2227
sI1074270064
(Vread_status_8b_rdsr2
p2228
(lp2229
(L1222983462L
L3785322319L
(lp2230
(lp2231
Vexecute_flash_command
p2232
atp2233
atp2234
sI1074269300
(Vbootloader_init
p2235
(lp2236
(L3219493732L
L0L
(lp2237
(lp2238
tp2239
a(L2120392034L
L0L
(lp2240
(lp2241
tp2242
a(L93837694L
L0L
(lp2243
(lp2244
tp2245
a(L3303829057L
L0L
(lp2246
(lp2247
tp2248
a(L974601034L
L3785322319L
(lp2249
(lp2250
V__assert_func
p2251
atp2252
a(L3726656669L
L0L
(lp2253
(lp2254
tp2255
a(L2513335574L
L3785322319L
(lp2256
(lp2257
V__assert_func
p2258
atp2259
a(L2575755686L
L0L
(lp2260
(lp2261
tp2262
a(L350934107L
L3785322319L
(lp2263
(lp2264
V__assert_func
p2265
atp2266
a(L2608078921L
L0L
(lp2267
(lp2268
tp2269
a(L2483499936L
L3785322319L
(lp2270
(lp2271
V__assert_func
p2272
atp2273
a(L1188562451L
L3785322319L
(lp2274
(lp2275
Vbootloader_main
p2276
atp2277
a(L1299867982L
L0L
(lp2278
(lp2279
tp2280
a(L3360570486L
L0L
(lp2281
(lp2282
tp2283
atp2284
sI1074270836
(Vrtc_clk_32k_enable_common
p2285
(lp2286
(L19912567L
L0L
(lp2287
(lp2288
tp2289
atp2290
sI1074271604
(Vrtc_clk_bbpll_configure
p2291
(lp2292
(L4270275352L
L0L
(lp2293
(lp2294
tp2295
a(L106L
L0L
(lp2296
(lp2297
tp2298
a(L1712952798L
L0L
(lp2299
(lp2300
tp2301
a(L83268344L
L0L
(lp2302
(lp2303
tp2304
a(L82345090L
L0L
(lp2305
(lp2306
tp2307
a(L106L
L0L
(lp2308
(lp2309
tp2310
a(L1874018433L
L0L
(lp2311
(lp2312
tp2313
a(L1968451090L
L0L
(lp2314
(lp2315
tp2316
a(L1534915856L
L0L
(lp2317
(lp2318
tp2319
a(L1310424409L
L0L
(lp2320
(lp2321
tp2322
a(L1805789316L
L0L
(lp2323
(lp2324
tp2325
a(L625258526L
L0L
(lp2326
(lp2327
tp2328
a(L83268344L
L0L
(lp2329
(lp2330
tp2331
a(L82345090L
L0L
(lp2332
(lp2333
tp2334
a(L106L
L0L
(lp2335
(lp2336
tp2337
a(L294729621L
L0L
(lp2338
(lp2339
tp2340
a(L2738194110L
L0L
(lp2341
(lp2342
tp2343
a(L1534915856L
L0L
(lp2344
(lp2345
tp2346
a(L1335254829L
L0L
(lp2347
(lp2348
tp2349
a(L3120190292L
L0L
(lp2350
(lp2351
tp2352
a(L410430525L
L3785322319L
(lp2353
(lp2354
Vrtc_clk_slow_freq_get
p2355
atp2356
a(L2679108412L
L0L
(lp2357
(lp2358
tp2359
a(L2780081410L
L0L
(lp2360
(lp2361
tp2362
a(L220416468L
L0L
(lp2363
(lp2364
tp2365
atp2366
sI1074272372
(Vrtc_clk_apb_freq_update
p2367
(lp2368
(L4082305842L
L0L
(lp2369
(lp2370
tp2371
atp2372
sI1074238328
(Vtry_load_partition
p2373
(lp2374
(L3877261386L
L0L
(lp2375
(lp2376
tp2377
a(L2260359711L
L3785322319L
(lp2378
(lp2379
Vbootloader_load_image
p2380
atp2381
a(L3869155877L
L3785322319L
(lp2382
(lp2383
Vesp_log_early_timestamp
p2384
atp2385
a(L2993202392L
L0L
(lp2386
(lp2387
tp2388
a(L2993202392L
L0L
(lp2389
(lp2390
tp2391
atp2392
sI1074270088
(Vwrite_status_16b_wrsr
p2393
(lp2394
(L1235576642L
L3785322319L
(lp2395
(lp2396
Vexecute_flash_command
p2397
atp2398
atp2399
sI1074243212
(Vesp_rom_spiflash_read_status
p2400
(lp2401
(L1718103321L
L0L
(lp2402
(lp2403
tp2404
a(L106L
L0L
(lp2405
(lp2406
tp2407
a(L1109130539L
L0L
(lp2408
(lp2409
tp2410
a(L2834742320L
L0L
(lp2411
(lp2412
tp2413
a(L3348623344L
L0L
(lp2414
(lp2415
tp2416
a(L4159619641L
L0L
(lp2417
(lp2418
tp2419
a(L106L
L0L
(lp2420
(lp2421
tp2422
a(L1174108490L
L0L
(lp2423
(lp2424
tp2425
a(L4159619641L
L0L
(lp2426
(lp2427
tp2428
a(L2392720019L
L0L
(lp2429
(lp2430
tp2431
atp2432
sI1074235532
(Vesp_cpu_unstall
p2433
(lp2434
(L4037466968L
L0L
(lp2435
(lp2436
tp2437
a(L3667099036L
L0L
(lp2438
(lp2439
tp2440
a(L2663459689L
L0L
(lp2441
(lp2442
tp2443
atp2444
sI1074241160
(Vprocess_segment
p2445
(lp2446
(L429826026L
L3785322319L
(lp2447
(lp2448
Vbootloader_flash_read
p2449
atp2450
a(L2370661143L
L3785322319L
(lp2451
(lp2452
Vesp_log_early_timestamp
p2453
atp2454
a(L2378867762L
L0L
(lp2455
(lp2456
tp2457
a(L2241831349L
L3785322319L
(lp2458
(lp2459
Vbootloader_sha256_data
p2460
atp2461
a(L4276040919L
L3785322319L
(lp2462
(lp2463
Vverify_segment_header
p2464
atp2465
a(L3279926786L
L0L
(lp2466
(lp2467
tp2468
a(L3028481L
L0L
(lp2469
(lp2470
tp2471
a(L1648824708L
L3785322319L
(lp2472
(lp2473
Vesp_log_early_timestamp
p2474
atp2475
a(L1789141152L
L3785322319L
(lp2476
(lp2477
Vshould_map
p2478
atp2479
a(L3872460357L
L3785322319L
(lp2480
(lp2481
Vshould_load
p2482
atp2483
a(L643435108L
L0L
(lp2484
(lp2485
tp2486
a(L1153969285L
L0L
(lp2487
(lp2488
tp2489
a(L1954667781L
L0L
(lp2490
(lp2491
tp2492
a(L4140482253L
L0L
(lp2493
(lp2494
tp2495
a(L3287840219L
L3785322319L
(lp2496
(lp2497
Vesp_log_early_timestamp
p2498
atp2499
a(L2902417580L
L0L
(lp2500
(lp2501
tp2502
a(L310070301L
L0L
(lp2503
(lp2504
tp2505
a(L310070797L
L0L
(lp2506
(lp2507
tp2508
a(L702738921L
L0L
(lp2509
(lp2510
tp2511
a(L2059481203L
L0L
(lp2512
(lp2513
tp2514
a(L3020204L
L0L
(lp2515
(lp2516
tp2517
a(L2312281722L
L0L
(lp2518
(lp2519
tp2520
a(L1097987967L
L0L
(lp2521
(lp2522
tp2523
a(L1174997638L
L3785322319L
(lp2524
(lp2525
Vesp_log_early_timestamp
p2526
atp2527
a(L3062101711L
L0L
(lp2528
(lp2529
tp2530
a(L1182930974L
L0L
(lp2531
(lp2532
tp2533
a(L1190632532L
L0L
(lp2534
(lp2535
tp2536
a(L1182990556L
L0L
(lp2537
(lp2538
tp2539
a(L93892250L
L0L
(lp2540
(lp2541
tp2542
a(L4245410643L
L3785322319L
(lp2543
(lp2544
Vesp_log_early_timestamp
p2545
atp2546
a(L2345485613L
L3785322319L
(lp2547
(lp2548
Vbootloader_mmap_get_free_pages
p2549
atp2550
a(L2617979007L
L3785322319L
(lp2551
(lp2552
Vprocess_segment_data
p2553
atp2554
a(L1624476643L
L0L
(lp2555
(lp2556
tp2557
a(L3021737L
L0L
(lp2558
(lp2559
tp2560
a(L2993202392L
L0L
(lp2561
(lp2562
tp2563
a(L2902417580L
L0L
(lp2564
(lp2565
tp2566
a(L3360570486L
L0L
(lp2567
(lp2568
tp2569
a(L735741265L
L0L
(lp2570
(lp2571
tp2572
a(L702739530L
L0L
(lp2573
(lp2574
tp2575
a(L3360570486L
L0L
(lp2576
(lp2577
tp2578
atp2579
sI1074238600
(Vunpack_load_app
p2580
(lp2581
(L1842422795L
L0L
(lp2582
(lp2583
tp2584
a(L4074138008L
L0L
(lp2585
(lp2586
tp2587
a(L2902417580L
L0L
(lp2588
(lp2589
tp2590
a(L1868993331L
L3785322319L
(lp2591
(lp2592
Vesp_log_early_timestamp
p2593
atp2594
a(L3411822821L
L0L
(lp2595
(lp2596
tp2597
a(L3766467472L
L0L
(lp2598
(lp2599
tp2600
a(L2902417580L
L0L
(lp2601
(lp2602
tp2603
a(L3239227036L
L3785322319L
(lp2604
(lp2605
Vesp_log_early_timestamp
p2606
atp2607
a(L87648306L
L0L
(lp2608
(lp2609
tp2610
a(L1799288861L
L0L
(lp2611
(lp2612
tp2613
a(L350965691L
L0L
(lp2614
(lp2615
tp2616
a(L106L
L0L
(lp2617
(lp2618
tp2619
a(L1717315991L
L3785322319L
(lp2620
(lp2621
Vset_cache_and_start_app
p2622
atp2623
atp2624
sI1074268056
(Vcall_start_cpu0
p2625
(lp2626
(L2311976169L
L3785322319L
(lp2627
(lp2628
Vbootloader_init
p2629
atp2630
a(L3827921190L
L3785322319L
(lp2631
(lp2632
Vbootloader_reset
p2633
atp2634
a(L4083304126L
L3785322319L
(lp2635
(lp2636
Vselect_partition_number
p2637
atp2638
a(L94425498L
L3785322319L
(lp2639
(lp2640
Vbootloader_reset
p2641
atp2642
a(L1678595755L
L3785322319L
(lp2643
(lp2644
Vbootloader_utility_load_boot_image
p2645
atp2646
atp2647
sI1074271384
(Vrtc_clk_8md256_enabled
p2648
(lp2649
(L1381887070L
L0L
(lp2650
(lp2651
tp2652
atp2653
sI1074270108
(Vread_status_16b_rdsr_rdsr2
p2654
(lp2655
(L2236397809L
L1880226080L
(lp2656
(lp2657
Vexecute_flash_command
p2658
aVexecute_flash_command
p2659
atp2660
atp2661
sI1074272156
(Vrtc_clk_cpu_freq_get_config
p2662
(lp2663
(L4137798211L
L0L
(lp2664
(lp2665
tp2666
a(L2902417580L
L0L
(lp2667
(lp2668
tp2669
a(L3020187L
L0L
(lp2670
(lp2671
tp2672
a(L106L
L0L
(lp2673
(lp2674
tp2675
a(L2699744792L
L3785322319L
(lp2676
(lp2677
Vrtc_clk_xtal_freq_get
p2678
atp2679
a(L921422600L
L0L
(lp2680
(lp2681
tp2682
a(L3020187L
L0L
(lp2683
(lp2684
tp2685
a(L3020187L
L0L
(lp2686
(lp2687
tp2688
a(L2862331636L
L1880226080L
(lp2689
(lp2690
Vesp_log_early_timestamp
p2691
aVabort
p2692
atp2693
a(L2862331636L
L1880226080L
(lp2694
(lp2695
Vesp_log_early_timestamp
p2696
aVabort
p2697
atp2698
a(L1209507534L
L0L
(lp2699
(lp2700
tp2701
a(L1888221406L
L0L
(lp2702
(lp2703
tp2704
a(L3497772488L
L0L
(lp2705
(lp2706
tp2707
a(L2830593902L
L0L
(lp2708
(lp2709
tp2710
a(L134915478L
L0L
(lp2711
(lp2712
tp2713
atp2714
sI1074240400
(Vverify_segment_header
p2715
(lp2716
(L3674778058L
L0L
(lp2717
(lp2718
tp2719
a(L1332735154L
L0L
(lp2720
(lp2721
tp2722
a(L3028481L
L0L
(lp2723
(lp2724
tp2725
a(L2334272314L
L3785322319L
(lp2726
(lp2727
Vesp_log_early_timestamp
p2728
atp2729
a(L536784482L
L3785322319L
(lp2730
(lp2731
Vshould_map
p2732
atp2733
a(L3496178735L
L0L
(lp2734
(lp2735
tp2736
a(L2910371777L
L0L
(lp2737
(lp2738
tp2739
a(L831924852L
L3785322319L
(lp2740
(lp2741
Vesp_log_early_timestamp
p2742
atp2743
a(L1001869632L
L0L
(lp2744
(lp2745
tp2746
a(L2993202392L
L0L
(lp2747
(lp2748
tp2749
a(L2993202392L
L0L
(lp2750
(lp2751
tp2752
a(L1001869632L
L0L
(lp2753
(lp2754
tp2755
atp2756
sI1074240656
(Vverify_image_header
p2757
(lp2758
(L171376062L
L0L
(lp2759
(lp2760
tp2761
a(L2910371777L
L0L
(lp2762
(lp2763
tp2764
a(L2536364729L
L3785322319L
(lp2765
(lp2766
Vesp_log_early_timestamp
p2767
atp2768
a(L1299866312L
L0L
(lp2769
(lp2770
tp2771
a(L702739530L
L0L
(lp2772
(lp2773
tp2774
a(L3710928811L
L3785322319L
(lp2775
(lp2776
Vbootloader_common_check_chip_validity
p2777
atp2778
a(L702739530L
L0L
(lp2779
(lp2780
tp2781
a(L3028481L
L0L
(lp2782
(lp2783
tp2784
a(L3270243289L
L0L
(lp2785
(lp2786
tp2787
a(L833020471L
L3785322319L
(lp2788
(lp2789
Vesp_log_early_timestamp
p2790
atp2791
a(L385352084L
L0L
(lp2792
(lp2793
tp2794
a(L1816028086L
L3785322319L
(lp2795
(lp2796
Vesp_log_early_timestamp
p2797
atp2798
a(L3360570486L
L0L
(lp2799
(lp2800
tp2801
atp2802
sI1074272400
(Vrtc_clk_cpu_freq_to_xtal
p2803
(lp2804
(L2041071828L
L3785322319L
(lp2805
(lp2806
Vrtc_clk_apb_freq_update
p2807
atp2808
a(L431933787L
L0L
(lp2809
(lp2810
tp2811
a(L2572797392L
L0L
(lp2812
(lp2813
tp2814
atp2815
sI1074272912
(Vrtc_clk_xtal_freq_estimate
p2816
(lp2817
(L2516060585L
L1880226080L
(lp2818
(lp2819
Vrtc_clk_8m_enabled
p2820
aVrtc_clk_8md256_enabled
p2821
atp2822
a(L967485502L
L3785322319L
(lp2823
(lp2824
Vrtc_clk_8m_enable
p2825
atp2826
a(L136107496L
L1880226080L
(lp2827
(lp2828
Vrtc_clk_cal_ratio
p2829
aV__udivdi3
p2830
atp2831
a(L4054978734L
L0L
(lp2832
(lp2833
tp2834
a(L1757068897L
L3785322319L
(lp2835
(lp2836
Vesp_log_early_timestamp
p2837
atp2838
atp2839
sI1074237336
(Vbootloader_mmap_get_free_pages
p2840
(lp2841
(L1496516875L
L0L
(lp2842
(lp2843
tp2844
atp2845
sI1074237344
(Vbootloader_fill_random
p2846
(lp2847
(L4037466985L
L0L
(lp2848
(lp2849
tp2850
a(L1664861953L
L3785322319L
(lp2851
(lp2852
V__assert_func
p2853
atp2854
a(L3020204L
L0L
(lp2855
(lp2856
tp2857
a(L3105261274L
L0L
(lp2858
(lp2859
tp2860
a(L950530135L
L0L
(lp2861
(lp2862
tp2863
a(L3147672666L
L0L
(lp2864
(lp2865
tp2866
a(L655163851L
L0L
(lp2867
(lp2868
tp2869
a(L1298905564L
L0L
(lp2870
(lp2871
tp2872
a(L2192561533L
L0L
(lp2873
(lp2874
tp2875
a(L3360570486L
L0L
(lp2876
(lp2877
tp2878
atp2879
sI1074236576
(Vbootloader_common_check_chip_validity
p2880
(lp2881
(L2834967127L
L0L
(lp2882
(lp2883
tp2884
a(L1228840949L
L3785322319L
(lp2885
(lp2886
Vesp_log_early_timestamp
p2887
atp2888
a(L1182901183L
L0L
(lp2889
(lp2890
tp2891
a(L2344894839L
L3785322319L
(lp2892
(lp2893
Vbootloader_common_get_chip_revision
p2894
atp2895
a(L4224589755L
L3785322319L
(lp2896
(lp2897
Vesp_log_early_timestamp
p2898
atp2899
a(L97422L
L0L
(lp2900
(lp2901
tp2902
a(L3287840219L
L3785322319L
(lp2903
(lp2904
Vesp_log_early_timestamp
p2905
atp2906
a(L4136894128L
L0L
(lp2907
(lp2908
tp2909
a(L4151320830L
L0L
(lp2910
(lp2911
tp2912
a(L403470429L
L0L
(lp2913
(lp2914
tp2915
a(L464010095L
L0L
(lp2916
(lp2917
tp2918
atp2919
sI1074269600
(Vabort
p2920
(lp2921
(L1519843993L
L3785322319L
(lp2922
(lp2923
Vesp_cpu_in_ocd_debug_mode
p2924
atp2925
a(L409441471L
L0L
(lp2926
(lp2927
tp2928
a(L106L
L0L
(lp2929
(lp2930
tp2931
atp2932
sI1074271136
(Vrtc_clk_32k_enable
p2933
(lp2934
(L753387299L
L0L
(lp2935
(lp2936
tp2937
a(L1120965557L
L3785322319L
(lp2938
(lp2939
Vrtc_clk_32k_enable_common
p2940
atp2941
a(L1713670663L
L0L
(lp2942
(lp2943
tp2944
atp2945
sI1074238380
(Vset_cache_and_start_app
p2946
(lp2947
(L1775850898L
L0L
(lp2948
(lp2949
tp2950
a(L2780555017L
L0L
(lp2951
(lp2952
tp2953
a(L1548223148L
L0L
(lp2954
(lp2955
tp2956
a(L1610941700L
L0L
(lp2957
(lp2958
tp2959
atp2960
sI1074244788
(Vrtc_wdt_set_stage
p2961
(lp2962
(L1890082815L
L0L
(lp2963
(lp2964
tp2965
a(L1182990556L
L0L
(lp2966
(lp2967
tp2968
a(L4210890627L
L0L
(lp2969
(lp2970
tp2971
a(L1182990556L
L0L
(lp2972
(lp2973
tp2974
a(L3265635317L
L0L
(lp2975
(lp2976
tp2977
a(L2910371777L
L0L
(lp2978
(lp2979
tp2980
a(L2465550074L
L0L
(lp2981
(lp2982
tp2983
a(L3028464L
L0L
(lp2984
(lp2985
tp2986
a(L384078777L
L0L
(lp2987
(lp2988
tp2989
a(L3028464L
L0L
(lp2990
(lp2991
tp2992
a(L3622738530L
L0L
(lp2993
(lp2994
tp2995
a(L1476421541L
L0L
(lp2996
(lp2997
tp2998
a(L2079009947L
L0L
(lp2999
(lp3000
tp3001
atp3002
sI1074242236
(Vbootloader_load_image
p3003
(lp3004
(L267004326L
L3785322319L
(lp3005
(lp3006
Vimage_load
p3007
atp3008
atp3009
sI1074268852
(Vupdate_flash_config
p3010
(lp3011
(L1046059555L
L0L
(lp3012
(lp3013
tp3014
a(L93674324L
L0L
(lp3015
(lp3016
tp3017
a(L2902417580L
L0L
(lp3018
(lp3019
tp3020
a(L106L
L0L
(lp3021
(lp3022
tp3023
a(L3020187L
L0L
(lp3024
(lp3025
tp3026
a(L3020187L
L0L
(lp3027
(lp3028
tp3029
a(L106L
L0L
(lp3030
(lp3031
tp3032
a(L1299866343L
L0L
(lp3033
(lp3034
tp3035
a(L1299866436L
L0L
(lp3036
(lp3037
tp3038
a(L1299866560L
L0L
(lp3039
(lp3040
tp3041
a(L1641149277L
L0L
(lp3042
(lp3043
tp3044
a(L2258688484L
L0L
(lp3045
(lp3046
tp3047
a(L3722066624L
L0L
(lp3048
(lp3049
tp3050
atp3051
sI1074271412
(Vrtc_clk_slow_freq_set
p3052
(lp3053
(L2897102619L
L0L
(lp3054
(lp3055
tp3056
a(L1235012839L
L0L
(lp3057
(lp3058
tp3059
a(L2258688482L
L0L
(lp3060
(lp3061
tp3062
a(L3479853033L
L0L
(lp3063
(lp3064
tp3065
atp3066
sI1074272692
(Vrtc_clk_cpu_freq_to_8m
p3067
(lp3068
(L4172247024L
L3785322319L
(lp3069
(lp3070
Vrtc_clk_apb_freq_update
p3071
atp3072
atp3073
sI1074240952
(Vdebug_log_hash
p3074
(lp3075
(L1348589273L
L3785322319L
(lp3076
(lp3077
Vbootloader_sha256_hex_to_str
p3078
atp3079
atp3080
sI1074269644
(Vexecute_flash_command
p3081
(lp3082
(L1001289137L
L0L
(lp3083
(lp3084
tp3085
a(L2014184326L
L0L
(lp3086
(lp3087
tp3088
a(L2258867228L
L0L
(lp3089
(lp3090
tp3091
a(L1935126674L
L0L
(lp3092
(lp3093
tp3094
a(L2961627401L
L0L
(lp3095
(lp3096
tp3097
a(L2258748064L
L0L
(lp3098
(lp3099
tp3100
a(L2027792002L
L0L
(lp3101
(lp3102
tp3103
a(L2902417580L
L0L
(lp3104
(lp3105
tp3106
a(L1087570699L
L0L
(lp3107
(lp3108
tp3109
a(L3292380846L
L0L
(lp3110
(lp3111
tp3112
a(L819332208L
L0L
(lp3113
(lp3114
tp3115
a(L3920380810L
L0L
(lp3116
(lp3117
tp3118
a(L3704875567L
L0L
(lp3119
(lp3120
tp3121
atp3122
sI1074270412
(Vbootloader_read_flash_id
p3123
(lp3124
(L2340454879L
L3785322319L
(lp3125
(lp3126
Vexecute_flash_command
p3127
atp3128
atp3129
sI1074239168
(Vbootloader_utility_get_selected_boot_partition
p3130
(lp3131
(L3540070437L
L0L
(lp3132
(lp3133
tp3134
a(L18453756L
L0L
(lp3135
(lp3136
tp3137
a(L591732374L
L3785322319L
(lp3138
(lp3139
Vesp_log_early_timestamp
p3140
atp3141
a(L3118387733L
L3785322319L
(lp3142
(lp3143
Vbootloader_mmap
p3144
atp3145
a(L239923648L
L3785322319L
(lp3146
(lp3147
Vesp_log_early_timestamp
p3148
atp3149
a(L3129666898L
L3785322319L
(lp3150
(lp3151
Vbootloader_munmap
p3152
atp3153
a(L610545537L
L0L
(lp3154
(lp3155
tp3156
a(L2949562121L
L0L
(lp3157
(lp3158
tp3159
a(L4182810108L
L0L
(lp3160
(lp3161
tp3162
a(L3321780107L
L3785322319L
(lp3163
(lp3164
Vesp_log_early_timestamp
p3165
atp3166
a(L89009773L
L3785322319L
(lp3167
(lp3168
Vesp_log_early_timestamp
p3169
atp3170
a(L726746666L
L3785322319L
(lp3171
(lp3172
Vbootloader_common_ota_select_valid
p3173
atp3174
a(L1828868152L
L3785322319L
(lp3175
(lp3176
Vbootloader_common_ota_select_valid
p3177
atp3178
a(L1353294186L
L0L
(lp3179
(lp3180
tp3181
a(L726746666L
L3785322319L
(lp3182
(lp3183
Vbootloader_common_ota_select_valid
p3184
atp3185
a(L3920888185L
L0L
(lp3186
(lp3187
tp3188
a(L788494392L
L3785322319L
(lp3189
(lp3190
Vbootloader_common_ota_select_valid
p3191
atp3192
a(L797347385L
L0L
(lp3193
(lp3194
tp3195
a(L2258718273L
L0L
(lp3196
(lp3197
tp3198
a(L2902417580L
L0L
(lp3199
(lp3200
tp3201
a(L2053587437L
L0L
(lp3202
(lp3203
tp3204
a(L4182810108L
L0L
(lp3205
(lp3206
tp3207
a(L2540059834L
L3785322319L
(lp3208
(lp3209
Vesp_log_early_timestamp
p3210
atp3211
a(L3346404474L
L3785322319L
(lp3212
(lp3213
Vesp_log_early_timestamp
p3214
atp3215
a(L515633988L
L0L
(lp3216
(lp3217
tp3218
atp3219
sI1074242252
(Vesp_partition_table_verify
p3220
(lp3221
(L1363364359L
L0L
(lp3222
(lp3223
tp3224
a(L2918864600L
L0L
(lp3225
(lp3226
tp3227
a(L2544630126L
L0L
(lp3228
(lp3229
tp3230
a(L4183706628L
L0L
(lp3231
(lp3232
tp3233
a(L106L
L0L
(lp3234
(lp3235
tp3236
a(L2579271819L
L0L
(lp3237
(lp3238
tp3239
a(L1104218039L
L3785322319L
(lp3240
(lp3241
Vesp_log_early_timestamp
p3242
atp3243
a(L2693394554L
L0L
(lp3244
(lp3245
tp3246
a(L2902417580L
L0L
(lp3247
(lp3248
tp3249
a(L2579271819L
L0L
(lp3250
(lp3251
tp3252
a(L1206452150L
L3785322319L
(lp3253
(lp3254
Vesp_log_early_timestamp
p3255
atp3256
a(L2345528479L
L0L
(lp3257
(lp3258
tp3259
a(L2579271819L
L0L
(lp3260
(lp3261
tp3262
a(L2546587210L
L3785322319L
(lp3263
(lp3264
Vesp_log_early_timestamp
p3265
atp3266
a(L1610443436L
L0L
(lp3267
(lp3268
tp3269
a(L2966513628L
L0L
(lp3270
(lp3271
tp3272
a(L3720018517L
L0L
(lp3273
(lp3274
tp3275
a(L324306632L
L0L
(lp3276
(lp3277
tp3278
a(L2579271819L
L0L
(lp3279
(lp3280
tp3281
a(L2120858426L
L3785322319L
(lp3282
(lp3283
Vesp_log_early_timestamp
p3284
atp3285
a(L1799288861L
L0L
(lp3286
(lp3287
tp3288
a(L474850413L
L0L
(lp3289
(lp3290
tp3291
a(L106L
L0L
(lp3292
(lp3293
tp3294
a(L484089803L
L0L
(lp3295
(lp3296
tp3297
a(L971179188L
L3785322319L
(lp3298
(lp3299
Vesp_log_early_timestamp
p3300
atp3301
a(L3854017309L
L0L
(lp3302
(lp3303
tp3304
a(L2966513628L
L0L
(lp3305
(lp3306
tp3307
a(L2966513628L
L0L
(lp3308
(lp3309
tp3310
atp3311
sI1074243788
(Vesp_rom_spiflash_config_readmode
p3312
(lp3313
(L3493042536L
L0L
(lp3314
(lp3315
tp3316
a(L2536978055L
L0L
(lp3317
(lp3318
tp3319
a(L3786443948L
L0L
(lp3320
(lp3321
tp3322
a(L1659585165L
L0L
(lp3323
(lp3324
tp3325
a(L757598833L
L0L
(lp3326
(lp3327
tp3328
a(L1610443405L
L0L
(lp3329
(lp3330
tp3331
a(L2397068639L
L3785322319L
(lp3332
(lp3333
Vspi_cache_mode_switch
p3334
atp3335
atp3336
sI1074270148
(Vwrite_status_8b_wrsr
p3337
(lp3338
(L3692606543L
L3785322319L
(lp3339
(lp3340
Vexecute_flash_command
p3341
atp3342
atp3343
sI1074234568
(Vbootloader_flash_clock_config
p3344
(lp3345
(L2664752807L
L0L
(lp3346
(lp3347
tp3348
a(L2902417580L
L0L
(lp3349
(lp3350
tp3351
a(L3020187L
L0L
(lp3352
(lp3353
tp3354
a(L3632614262L
L0L
(lp3355
(lp3356
tp3357
a(L1299866312L
L0L
(lp3358
(lp3359
tp3360
a(L1299866374L
L0L
(lp3361
(lp3362
tp3363
a(L1299866405L
L0L
(lp3364
(lp3365
tp3366
a(L1299866436L
L0L
(lp3367
(lp3368
tp3369
a(L2258688483L
L0L
(lp3370
(lp3371
tp3372
a(L1886757596L
L0L
(lp3373
(lp3374
tp3375
atp3376
sI1074270168
(Vread_status_8b_rdsr
p3377
(lp3378
(L4219679961L
L3785322319L
(lp3379
(lp3380
Vexecute_flash_command
p3381
atp3382
atp3383
sI1074268632
(Vuart_console_configure
p3384
(lp3385
(L854943876L
L0L
(lp3386
(lp3387
tp3388
a(L4147761415L
L0L
(lp3389
(lp3390
tp3391
a(L1432228188L
L3785322319L
(lp3392
(lp3393
Vrtc_clk_apb_freq_get
p3394
atp3395
atp3396
sI1074245076
(Vrtc_wdt_set_length_of_reset_signal
p3397
(lp3398
(L1890082815L
L0L
(lp3399
(lp3400
tp3401
a(L1182990556L
L0L
(lp3402
(lp3403
tp3404
a(L4210890627L
L0L
(lp3405
(lp3406
tp3407
a(L1182990556L
L0L
(lp3408
(lp3409
tp3410
a(L3265635317L
L0L
(lp3411
(lp3412
tp3413
a(L2910371777L
L0L
(lp3414
(lp3415
tp3416
a(L2700802628L
L0L
(lp3417
(lp3418
tp3419
a(L1554310683L
L0L
(lp3420
(lp3421
tp3422
a(L2079009947L
L0L
(lp3423
(lp3424
tp3425
atp3426
sI1074240976
(Vverify_simple_hash
p3427
(lp3428
(L2435477850L
L1832448559L
(lp3429
(lp3430
Vbootloader_sha256_finish
p3431
aVdebug_log_hash
p3432
aVbootloader_mmap
p3433
atp3434
a(L2293729885L
L1832448559L
(lp3435
(lp3436
Vesp_log_early_timestamp
p3437
aVdebug_log_hash
p3438
aVbootloader_munmap
p3439
atp3440
a(L1606099250L
L3785322319L
(lp3441
(lp3442
Vbootloader_munmap
p3443
atp3444
atp3445
sI1074268112
(Vwdt_reset_cpu0_info_enable
p3446
(lp3447
(L3662099294L
L0L
(lp3448
(lp3449
tp3450
atp3451
sI1074237144
(Vbootloader_munmap
p3452
(lp3453
(L3176039391L
L0L
(lp3454
(lp3455
tp3456
a(L917606694L
L0L
(lp3457
(lp3458
tp3459
a(L3360570486L
L0L
(lp3460
(lp3461
tp3462
atp3463
sI1074237924
(Vbootloader_random_disable
p3464
(lp3465
(L2704839582L
L0L
(lp3466
(lp3467
tp3468
atp3469
sI1074235616
(Vesp_cpu_reset
p3470
(lp3471
(L4062265178L
L0L
(lp3472
(lp3473
tp3474
a(L1841554295L
L0L
(lp3475
(lp3476
tp3477
a(L1306330932L
L0L
(lp3478
(lp3479
tp3480
a(L81897939L
L0L
(lp3481
(lp3482
tp3483
atp3484
sI1074236384
(Vbootloader_common_ota_select_crc
p3485
(lp3486
(L187898525L
L0L
(lp3487
(lp3488
tp3489
atp3490
sI1074268384
(Vprint_flash_info
p3491
(lp3492
(L2664752807L
L0L
(lp3493
(lp3494
tp3495
a(L2902417580L
L0L
(lp3496
(lp3497
tp3498
a(L3020187L
L0L
(lp3499
(lp3500
tp3501
a(L225150647L
L0L
(lp3502
(lp3503
tp3504
a(L106L
L0L
(lp3505
(lp3506
tp3507
a(L460429684L
L0L
(lp3508
(lp3509
tp3510
a(L460431017L
L0L
(lp3511
(lp3512
tp3513
a(L460430397L
L0L
(lp3514
(lp3515
tp3516
a(L460431017L
L0L
(lp3517
(lp3518
tp3519
a(L3201441202L
L0L
(lp3520
(lp3521
tp3522
a(L866427733L
L3785322319L
(lp3523
(lp3524
Vesp_log_early_timestamp
p3525
atp3526
a(L3017366L
L0L
(lp3527
(lp3528
tp3529
a(L3017366L
L0L
(lp3530
(lp3531
tp3532
a(L3017366L
L0L
(lp3533
(lp3534
tp3535
a(L3016870L
L0L
(lp3536
(lp3537
tp3538
a(L460431358L
L0L
(lp3539
(lp3540
tp3541
a(L460430645L
L0L
(lp3542
(lp3543
tp3544
a(L460430521L
L0L
(lp3545
(lp3546
tp3547
a(L460431606L
L0L
(lp3548
(lp3549
tp3550
a(L460431482L
L0L
(lp3551
(lp3552
tp3553
a(L3201441280L
L0L
(lp3554
(lp3555
tp3556
a(L3048602044L
L3785322319L
(lp3557
(lp3558
Vesp_log_early_timestamp
p3559
atp3560
a(L93674324L
L0L
(lp3561
(lp3562
tp3563
a(L3020204L
L0L
(lp3564
(lp3565
tp3566
a(L106L
L0L
(lp3567
(lp3568
tp3569
a(L3020187L
L0L
(lp3570
(lp3571
tp3572
a(L3020187L
L0L
(lp3573
(lp3574
tp3575
a(L106L
L0L
(lp3576
(lp3577
tp3578
a(L331387079L
L0L
(lp3579
(lp3580
tp3581
a(L331387203L
L0L
(lp3582
(lp3583
tp3584
a(L331388660L
L0L
(lp3585
(lp3586
tp3587
a(L331387327L
L0L
(lp3588
(lp3589
tp3590
a(L703425374L
L0L
(lp3591
(lp3592
tp3593
a(L942644739L
L3785322319L
(lp3594
(lp3595
Vesp_log_early_timestamp
p3596
atp3597
atp3598
sI1074271200
(Vrtc_clk_8m_enable
p3599
(lp3600
(L1474360438L
L0L
(lp3601
(lp3602
tp3603
a(L1583005792L
L0L
(lp3604
(lp3605
tp3606
a(L543820456L
L0L
(lp3607
(lp3608
tp3609
a(L2312239048L
L0L
(lp3610
(lp3611
tp3612
a(L4009071171L
L0L
(lp3613
(lp3614
tp3615
a(L47497003L
L0L
(lp3616
(lp3617
tp3618
atp3619
sI1074240236
(Vbootloader_sha256_hex_to_str
p3620
(lp3621
(L90530756L
L0L
(lp3622
(lp3623
tp3624
a(L97422L
L0L
(lp3625
(lp3626
tp3627
a(L106L
L0L
(lp3628
(lp3629
tp3630
a(L201281358L
L0L
(lp3631
(lp3632
tp3633
a(L1611366926L
L0L
(lp3634
(lp3635
tp3636
a(L1298905568L
L0L
(lp3637
(lp3638
tp3639
a(L1295154486L
L0L
(lp3640
(lp3641
tp3642
a(L2172025409L
L0L
(lp3643
(lp3644
tp3645
a(L1079575012L
L0L
(lp3646
(lp3647
tp3648
a(L978975865L
L0L
(lp3649
(lp3650
tp3651
a(L2258897019L
L0L
(lp3652
(lp3653
tp3654
a(L3027007L
L0L
(lp3655
(lp3656
tp3657
a(L4126803969L
L0L
(lp3658
(lp3659
tp3660
a(L448827677L
L0L
(lp3661
(lp3662
tp3663
a(L2993202392L
L0L
(lp3664
(lp3665
tp3666
a(L2079009947L
L0L
(lp3667
(lp3668
tp3669
a(L2079009947L
L0L
(lp3670
(lp3671
tp3672
atp3673
sI1074236908
(Vbootloader_flash_read_no_decrypt
p3674
(lp3675
(L3472027209L
L1880226080L
(lp3676
(lp3677
Vesp_rom_spiflash_read
p3678
aVspi_to_esp_err
p3679
atp3680
atp3681
sI1074270692
(Vbootloader_clock_configure
p3682
(lp3683
(L3493042567L
L0L
(lp3684
(lp3685
tp3686
a(L4147761415L
L0L
(lp3687
(lp3688
tp3689
a(L4289274061L
L0L
(lp3690
(lp3691
tp3692
a(L457091024L
L0L
(lp3693
(lp3694
tp3695
a(L1812928027L
L0L
(lp3696
(lp3697
tp3698
a(L1812928027L
L0L
(lp3699
(lp3700
tp3701
a(L2312970590L
L0L
(lp3702
(lp3703
tp3704
a(L1504325489L
L1832448559L
(lp3705
(lp3706
Vrtc_clk_slow_freq_get
p3707
aVrtc_clk_fast_freq_get
p3708
aVrtc_clk_init
p3709
atp3710
atp3711
sI1074268152
(Vwdt_reset_info_dump
p3712
(lp3713
(L1642351636L
L0L
(lp3714
(lp3715
tp3716
a(L460423918L
L0L
(lp3717
(lp3718
tp3719
a(L3201441063L
L0L
(lp3720
(lp3721
tp3722
a(L3028481L
L0L
(lp3723
(lp3724
tp3725
a(L3486670486L
L0L
(lp3726
(lp3727
tp3728
a(L3274622494L
L0L
(lp3729
(lp3730
tp3731
a(L1413004396L
L0L
(lp3732
(lp3733
tp3734
a(L1550379252L
L0L
(lp3735
(lp3736
tp3737
a(L4004427021L
L3785322319L
(lp3738
(lp3739
Vesp_log_early_timestamp
p3740
atp3741
a(L1148072953L
L3785322319L
(lp3742
(lp3743
Vesp_log_early_timestamp
p3744
atp3745
atp3746
sI1074270968
(Vrtc_clk_bbpll_disable
p3747
(lp3748
(L2307855037L
L0L
(lp3749
(lp3750
tp3751
a(L3258014699L
L0L
(lp3752
(lp3753
tp3754
a(L3360570486L
L0L
(lp3755
(lp3756
tp3757
atp3758
sI1074236404
(Vbootloader_common_ota_select_valid
p3759
(lp3760
(L2808438197L
L0L
(lp3761
(lp3762
tp3763
a(L3881267543L
L3785322319L
(lp3764
(lp3765
Vbootloader_common_ota_select_crc
p3766
atp3767
a(L3880706073L
L0L
(lp3768
(lp3769
tp3770
a(L2993202392L
L0L
(lp3771
(lp3772
tp3773
a(L2993202392L
L0L
(lp3774
(lp3775
tp3776
atp3777
sI1074271484
(Vrtc_clk_slow_freq_get
p3778
(lp3779
(L2692524047L
L0L
(lp3780
(lp3781
tp3782
atp3783
sI1074243312
(Vesp_rom_spiflash_wait_idle
p3784
(lp3785
(L287326052L
L0L
(lp3786
(lp3787
tp3788
a(L1980833543L
L0L
(lp3789
(lp3790
tp3791
a(L583252588L
L0L
(lp3792
(lp3793
tp3794
a(L855829385L
L3785322319L
(lp3795
(lp3796
Vesp_rom_spiflash_read_status
p3797
atp3798
a(L1298875774L
L0L
(lp3799
(lp3800
tp3801
a(L735741265L
L0L
(lp3802
(lp3803
tp3804
atp3805
sI1074244592
(Vrtc_wdt_get_protect_status
p3806
(lp3807
(L3822926044L
L0L
(lp3808
(lp3809
tp3810
atp3811
sI1074270192
(Vwrite_status_8b_xmc25qu64a
p3812
(lp3813
(L2934226828L
L1157885199L
(lp3814
(lp3815
Vexecute_flash_command
p3816
aVesp_rom_spiflash_wait_idle
p3817
aVexecute_flash_command
p3818
aVesp_rom_spiflash_wait_idle
p3819
aVexecute_flash_command
p3820
atp3821
atp3822
sI1074270452
(Vbootloader_enable_qio_mode
p3823
(lp3824
(L655902763L
L3785322319L
(lp3825
(lp3826
Vesp_rom_spiflash_wait_idle
p3827
atp3828
a(L1571580169L
L0L
(lp3829
(lp3830
tp3831
a(L2469899527L
L0L
(lp3832
(lp3833
tp3834
a(L1326064545L
L3785322319L
(lp3835
(lp3836
Vesp_log_early_timestamp
p3837
atp3838
a(L3278624543L
L0L
(lp3839
(lp3840
tp3841
a(L93837694L
L0L
(lp3842
(lp3843
tp3844
a(L3028464L
L0L
(lp3845
(lp3846
tp3847
a(L2391635016L
L3785322319L
(lp3848
(lp3849
Vesp_log_early_timestamp
p3850
atp3851
a(L1876481050L
L3785322319L
(lp3852
(lp3853
Venable_qio_mode
p3854
atp3855
atp3856
sI1074235384
(Vesp_cpu_stall
p3857
(lp3858
(L4037466968L
L0L
(lp3859
(lp3860
tp3861
a(L1343004674L
L0L
(lp3862
(lp3863
tp3864
a(L3348188466L
L0L
(lp3865
(lp3866
tp3867
atp3868
ssS'functionsdups'
p3869
g11
((lp3870
tp3871
Rp3872
sS'immediatedups'
p3873
g11
((lp3874
tp3875
Rp3876
sS'functiondups'
p3877
g11
((lp3878
tp3879
Rp3880
sS'fuzzy'
p3881
(dp3882
L1536L
I1074239496
sL4061702297L
I1074243312
sL3018692462L
I1074241584
sL430153639L
I1074241084
sL1694124286L
I1074270192
sL381930313L
I1074240516
sL45806640L
I1074240352
sL4027856920L
I1074268956
sL2479661889L
I1074244968
sL3495415001L
I1074240016
sL3669996080L
I1074236576
sL2283800112L
I1074270452
sL3139202702L
I1074241160
sL3816383215L
I1074238808
sL3685116478L
I1074239168
sL3881399234L
I1074238328
sL3778768422L
I1074239540
sL312818747L
I1074238240
sL1622145584L
I1074235740
sL1157487583L
I1074273888
sL1420005888L
I1074271200
sL3110146889L
I1074238600
sL1991897232L
I1074243628
sL4059437021L
I1074272780
sL2619119152L
I1074242576
sL1435525536L
I1074272552
sL1766137975L
I1074271136
sL2738222727L
I1074272156
sL2723847017L
I1074237200
sL275633497L
I1074269300
sL3619350029L
I1074240788
sL2919037255L
I1074268384
sL410455735L
I1074240976
sL512571597L
I1074268056
sL578413630L
I1074240656
sL2649994811L
I1074268008
sL533883930L
I1074268688
sL746513591L
I1074236404
sL433784338L
I1074268152
sL3481520713L
I1074243680
sL4160102055L
I1074269268
sL3476065511L
I1074273080
sL519424169L
I1074243788
sL2033964903L
I1074271500
sL1060788199L
I1074272056
sL4270185191L
I1074271604
sL2705984041L
I1074243364
sL3380377753L
I1074243948
sL1043425753L
I1074237344
sL138378967L
I1074236960
sL447173967L
I1074244696
sL3128965227L
I1074240400
sL1178348887L
I1074270692
sL2489381900L
I1074270296
sL3706231047L
I1074239852
sL3791345684L
I1074270248
sL4155364446L
I1074236436
sL1016692206L
I1074272912
sL3897638057L
I1074268632
sL59547383L
I1074236756
sL3965284519L
I1074242252
ssb.