ccopy_reg
_reconstructor
p0
(crizzo
RizzoSignature
p1
c__builtin__
object
p2
Ntp3
Rp4
(dp5
S'formal'
p6
(dp7
L1637100183L
I1074268984
sL3026938733L
I1074267460
sL348014516L
I1074268048
sL1926929361L
I1074270524
sL2994500460L
I1074269040
sL2041884577L
I1074236172
sL3980865873L
I1074238592
sL3307155460L
I1074268824
sL3477359707L
I1074266900
sL1053229017L
I1074269280
sL2080066782L
I1074271216
sL3281404336L
I1074237856
sL3750439073L
I1074241236
sL1395445511L
I1074237572
sL3698701125L
I1074237100
sL2627623086L
I1074235300
sL3060024149L
I1074269992
sL220339985L
I1074267748
sL1171449569L
I1074270956
sL3467432601L
I1074270080
sL2910693450L
I1074238876
sL208511573L
I1074237976
sL2626891944L
I1074271868
sL2474938297L
I1074267564
sL3807300304L
I1074239164
sL3153960643L
I1074241660
sL4271922659L
I1074268628
sL1728027835L
I1074267716
sL282988950L
I1074270568
sL1336193256L
I1074236292
sL3838258059L
I1074240636
sL1847146068L
I1074269856
sL1904560840L
I1074271672
sL4200802605L
I1074236432
sL3845944434L
I1074266956
sL1431351042L
I1074267188
sL2418428789L
I1074235468
sL2136341262L
I1074234408
sL3938845594L
I1074234980
sL4036008396L
I1074241712
sL3505574291L
I1074236636
sL3702197710L
I1074239092
sL2546277037L
I1074271704
sL2270201402L
I1074238384
sL596248551L
I1074236204
sL313643999L
I1074241560
sL2758681089L
I1074269296
sL3633866984L
I1074236584
sL1585336584L
I1074271828
sL2078278295L
I1074238196
sL1988352767L
I1074271860
sL2405769752L
I1074236816
sL2912810271L
I1074271288
sL3067327568L
I1074238372
sL473844157L
I1074236872
sL2212039774L
I1074266780
sL2664600917L
I1074269208
sL1923025175L
I1074242136
sL710582228L
I1074266916
sL3435551048L
I1074270100
sL2446810183L
I1074240328
sL1556011310L
I1074239616
sL2648287817L
I1074235384
sL3624838293L
I1074237008
sL2568371124L
I1074242028
sL391184885L
I1074240168
sL183695447L
I1074235420
sL1547863780L
I1074266856
sL1584441307L
I1074270060
sL4065079548L
I1074241940
sL1961913153L
I1074268448
sL4243824961L
I1074268488
sL2883232365L
I1074267296
sL1594481328L
I1074239184
sL2402411765L
I1074234336
sL1396453881L
I1074235508
sL3649213508L
I1074239872
sL2472051858L
I1074266808
sL1999198946L
I1074269800
sL2417331143L
I1074239732
sL2734908375L
I1074236396
sL947397038L
I1074241976
sL1452694088L
I1074234224
sL2804501195L
I1074235436
sL3503772990L
I1074269012
sL849501007L
I1074240004
sL3667831665L
I1074236152
sL4049993621L
I1074269356
sL2185582772L
I1074267240
sL54180041L
I1074240260
sL3784689249L
I1074239568
sL3916016028L
I1074269340
sL4258801710L
I1074235152
sL240369573L
I1074234204
sL543275158L
I1074237944
sL2889284811L
I1074268760
sL3456340988L
I1074239348
ssS'immediates'
p8
(dp9
sS'formaldups'
p10
c__builtin__
set
p11
((lp12
tp13
Rp14
sS'stringdups'
p15
g11
((lp16
tp17
Rp18
sS'fuzzydups'
p19
g11
((lp20
tp21
Rp22
sS'strings'
p23
(dp24
sS'functions'
p25
(dp26
I1074240004
(Vprocess_segment_data
p27
(lp28
(L3236683529L
L3785322319L
(lp29
(lp30
Vbootloader_mmap
p31
atp32
a(L3667896634L
L3785322319L
(lp33
(lp34
Vesp_log_early_timestamp
p35
atp36
a(L2406189368L
L3785322319L
(lp37
(lp38
Vbootloader_fill_random
p39
atp40
a(L2391265535L
L0L
(lp41
(lp42
tp43
a(L2394959619L
L0L
(lp44
(lp45
tp46
a(L1299866312L
L0L
(lp47
(lp48
tp49
a(L2008416411L
L0L
(lp50
(lp51
tp52
a(L127299853L
L0L
(lp53
(lp54
tp55
a(L417135753L
L0L
(lp56
(lp57
tp58
a(L429097989L
L0L
(lp59
(lp60
tp61
a(L4117779536L
L0L
(lp62
(lp63
tp64
a(L2902417580L
L0L
(lp65
(lp66
tp67
a(L2505185480L
L0L
(lp68
(lp69
tp70
a(L3094078540L
L3785322319L
(lp71
(lp72
Vbootloader_sha256_data
p73
atp74
a(L1770629922L
L0L
(lp75
(lp76
tp77
a(L3896226538L
L0L
(lp78
(lp79
tp80
a(L1564127900L
L3785322319L
(lp81
(lp82
Vbootloader_munmap
p83
atp84
atp85
sI1074240260
(Vshould_load
p86
(lp87
(L2494986583L
L3785322319L
(lp88
(lp89
Vshould_map
p90
atp91
a(L2896485316L
L0L
(lp92
(lp93
tp94
a(L3028464L
L0L
(lp95
(lp96
tp97
a(L1411541422L
L0L
(lp98
(lp99
tp100
a(L2733279998L
L0L
(lp101
(lp102
tp103
a(L1610443436L
L0L
(lp104
(lp105
tp106
a(L1610443405L
L0L
(lp107
(lp108
tp109
a(L1298875774L
L0L
(lp110
(lp111
tp112
a(L735741265L
L0L
(lp113
(lp114
tp115
atp116
sI1074236172
(Vbootloader_common_ota_select_valid
p117
(lp118
(L2808438197L
L0L
(lp119
(lp120
tp121
a(L3881267543L
L3785322319L
(lp122
(lp123
Vbootloader_common_ota_select_crc
p124
atp125
a(L3880706073L
L0L
(lp126
(lp127
tp128
a(L2993202392L
L0L
(lp129
(lp130
tp131
a(L2993202392L
L0L
(lp132
(lp133
tp134
atp135
sI1074269208
(Vrtc_clk_slow_freq_set
p136
(lp137
(L198710630L
L0L
(lp138
(lp139
tp140
a(L1235012839L
L0L
(lp141
(lp142
tp143
a(L2258688482L
L0L
(lp144
(lp145
tp146
a(L138711570L
L0L
(lp147
(lp148
tp149
atp150
sI1074236432
(Vbootloader_flash_read_allow_decrypt
p151
(lp152
(L3381655731L
L0L
(lp153
(lp154
tp155
a(L2454191995L
L0L
(lp156
(lp157
tp158
a(L2272305758L
L0L
(lp159
(lp160
tp161
a(L573494680L
L3785322319L
(lp162
(lp163
Vesp_log_early_timestamp
p164
atp165
a(L1100858848L
L0L
(lp166
(lp167
tp168
a(L562382354L
L0L
(lp169
(lp170
tp171
a(L3423665670L
L0L
(lp172
(lp173
tp174
a(L106L
L0L
(lp175
(lp176
tp177
a(L2993202392L
L0L
(lp178
(lp179
tp180
atp181
sI1074235152
(Vesp_cpu_stall
p182
(lp183
(L4037466968L
L0L
(lp184
(lp185
tp186
a(L1343004674L
L0L
(lp187
(lp188
tp189
a(L3348188466L
L0L
(lp190
(lp191
tp192
atp193
sI1074235420
(Vesp_cpu_in_ocd_debug_mode
p194
(lp195
(L3156077080L
L0L
(lp196
(lp197
tp198
atp199
sI1074266900
(Vprint_flash_info
p200
(lp201
(L3587454063L
L0L
(lp202
(lp203
tp204
atp205
sI1074237976
(Vset_cache_and_start_app
p206
(lp207
(L1746665620L
L0L
(lp208
(lp209
tp210
a(L1904536011L
L0L
(lp211
(lp212
tp213
a(L1548223148L
L0L
(lp214
(lp215
tp216
a(L1071973837L
L0L
(lp217
(lp218
tp219
atp220
sI1074241560
(Vesp_rom_spiflash_read_status
p221
(lp222
(L1718103321L
L0L
(lp223
(lp224
tp225
a(L106L
L0L
(lp226
(lp227
tp228
a(L3222913253L
L0L
(lp229
(lp230
tp231
a(L3519285306L
L0L
(lp232
(lp233
tp234
a(L1923257338L
L0L
(lp235
(lp236
tp237
a(L4159619641L
L0L
(lp238
(lp239
tp240
a(L106L
L0L
(lp241
(lp242
tp243
a(L3606569319L
L0L
(lp244
(lp245
tp246
a(L4159619641L
L0L
(lp247
(lp248
tp249
a(L2392720019L
L0L
(lp250
(lp251
tp252
atp253
sI1074269992
(Vrtc_clk_cpu_freq_value
p254
(lp255
(L607216364L
L0L
(lp256
(lp257
tp258
a(L3590575686L
L0L
(lp259
(lp260
tp261
a(L3576658914L
L3785322319L
(lp262
(lp263
V__assert_func
p264
atp265
atp266
sI1074268448
(Vbootloader_read_flash_id
p267
(lp268
(L3399242342L
L3785322319L
(lp269
(lp270
Vexecute_flash_command
p271
atp272
atp273
sI1074235436
(Vesp_log_early_timestamp
p274
(lp275
(L1442283304L
L0L
(lp276
(lp277
tp278
atp279
sI1074236204
(Vbootloader_common_get_chip_revision
p280
(lp281
(L2813419177L
L0L
(lp282
(lp283
tp284
a(L3020187L
L0L
(lp285
(lp286
tp287
a(L3020187L
L0L
(lp288
(lp289
tp290
a(L2993202392L
L0L
(lp291
(lp292
tp293
a(L473242458L
L0L
(lp294
(lp295
tp296
a(L1360746139L
L0L
(lp297
(lp298
tp299
a(L3880706073L
L0L
(lp300
(lp301
tp302
atp303
sI1074266916
(Vwdt_reset_cpu0_info_enable
p304
(lp305
(L121660510L
L0L
(lp306
(lp307
tp308
atp309
sI1074234408
(Vbootloader_flash_gpio_config
p310
(lp311
(L1541720566L
L0L
(lp312
(lp313
tp314
a(L1299866374L
L0L
(lp315
(lp316
tp317
a(L2258688485L
L0L
(lp318
(lp319
tp320
a(L1018833635L
L0L
(lp321
(lp322
tp323
a(L4287840674L
L0L
(lp324
(lp325
tp326
a(L3028464L
L0L
(lp327
(lp328
tp329
a(L4287840674L
L0L
(lp330
(lp331
tp332
a(L3028464L
L0L
(lp333
(lp334
tp335
a(L4287840674L
L0L
(lp336
(lp337
tp338
a(L1660894555L
L0L
(lp339
(lp340
tp341
a(L1271695794L
L0L
(lp342
(lp343
tp344
a(L2136249670L
L0L
(lp345
(lp346
tp347
a(L3360570486L
L0L
(lp348
(lp349
tp350
atp351
sI1074271288
(Vrtc_clk_cal_internal
p352
(lp353
(L2801496741L
L0L
(lp354
(lp355
tp356
a(L3670044860L
L0L
(lp357
(lp358
tp359
a(L3028464L
L0L
(lp360
(lp361
tp362
a(L2344748093L
L0L
(lp363
(lp364
tp365
a(L3862690686L
L0L
(lp366
(lp367
tp368
a(L1470489052L
L0L
(lp369
(lp370
tp371
a(L97422L
L0L
(lp372
(lp373
tp374
a(L2066391447L
L0L
(lp375
(lp376
tp377
a(L3899988056L
L0L
(lp378
(lp379
tp380
a(L3899987219L
L0L
(lp381
(lp382
tp383
a(L3899987219L
L0L
(lp384
(lp385
tp386
a(L3899988056L
L0L
(lp387
(lp388
tp389
a(L3450942038L
L0L
(lp390
(lp391
tp392
a(L3656596675L
L3785322319L
(lp393
(lp394
V__udivdi3
p395
atp396
a(L4294173371L
L0L
(lp397
(lp398
tp399
a(L2876636588L
L0L
(lp400
(lp401
tp402
a(L3021737L
L0L
(lp403
(lp404
tp405
a(L3432005494L
L0L
(lp406
(lp407
tp408
a(L2043374164L
L0L
(lp409
(lp410
tp411
a(L2902417580L
L0L
(lp412
(lp413
tp414
a(L3013675658L
L0L
(lp415
(lp416
tp417
a(L2993202392L
L0L
(lp418
(lp419
tp420
atp421
sI1074268984
(Vrtc_clk_8m_enabled
p422
(lp423
(L3776807883L
L0L
(lp424
(lp425
tp426
atp427
sI1074270524
(Vrtc_clk_apb_freq_get
p428
(lp429
(L783072170L
L3785322319L
(lp430
(lp431
Vreg_val_to_clk_val
p432
atp433
atp434
sI1074267188
(Vvddsdio_configure
p435
(lp436
(L1829974089L
L3785322319L
(lp437
(lp438
Vrtc_vddsdio_get_config
p439
atp440
a(L3098873432L
L3785322319L
(lp441
(lp442
Vrtc_vddsdio_set_config
p443
atp444
a(L3360570486L
L0L
(lp445
(lp446
tp447
atp448
sI1074268488
(Vbootloader_clock_configure
p449
(lp450
(L3493042567L
L0L
(lp451
(lp452
tp453
a(L3228940019L
L0L
(lp454
(lp455
tp456
a(L1753479450L
L0L
(lp457
(lp458
tp459
a(L106740480L
L0L
(lp460
(lp461
tp462
a(L1305407469L
L0L
(lp463
(lp464
tp465
a(L1305407469L
L0L
(lp466
(lp467
tp468
a(L2258867231L
L0L
(lp469
(lp470
tp471
a(L3217949222L
L1832448559L
(lp472
(lp473
Vrtc_clk_slow_freq_get
p474
aVrtc_clk_fast_freq_get
p475
aVrtc_clk_init
p476
atp477
atp478
sI1074266956
(Vwdt_reset_info_dump
p479
(lp480
(L1642351636L
L0L
(lp481
(lp482
tp483
a(L460306087L
L0L
(lp484
(lp485
tp486
a(L3201437199L
L0L
(lp487
(lp488
tp489
a(L3028481L
L0L
(lp490
(lp491
tp492
a(L2568231366L
L0L
(lp493
(lp494
tp495
a(L2425265808L
L0L
(lp496
(lp497
tp498
a(L1413004396L
L0L
(lp499
(lp500
tp501
a(L1550379252L
L0L
(lp502
(lp503
tp504
a(L107372824L
L3785322319L
(lp505
(lp506
Vesp_log_early_timestamp
p507
atp508
a(L2306288092L
L3785322319L
(lp509
(lp510
Vesp_log_early_timestamp
p511
atp512
atp513
sI1074235468
(V__bswapsi2
p514
(lp515
(L1030949986L
L0L
(lp516
(lp517
tp518
atp519
sI1074267460
(Vupdate_flash_config
p520
(lp521
(L1046059555L
L0L
(lp522
(lp523
tp524
a(L93674324L
L0L
(lp525
(lp526
tp527
a(L2902417580L
L0L
(lp528
(lp529
tp530
a(L106L
L0L
(lp531
(lp532
tp533
a(L3020187L
L0L
(lp534
(lp535
tp536
a(L3020187L
L0L
(lp537
(lp538
tp539
a(L106L
L0L
(lp540
(lp541
tp542
a(L1299866343L
L0L
(lp543
(lp544
tp545
a(L1299866436L
L0L
(lp546
(lp547
tp548
a(L1299866560L
L0L
(lp549
(lp550
tp551
a(L1641149277L
L0L
(lp552
(lp553
tp554
a(L2258688484L
L0L
(lp555
(lp556
tp557
a(L196174786L
L0L
(lp558
(lp559
tp560
atp561
sI1074267716
(V__assert_func
p562
(lp563
(L234063589L
L3785322319L
(lp564
(lp565
Vesp_log_early_timestamp
p566
atp567
a(L106L
L0L
(lp568
(lp569
tp570
atp571
sI1074240328
(Vprocess_segment
p572
(lp573
(L2437305297L
L3785322319L
(lp574
(lp575
Vbootloader_flash_read
p576
atp577
a(L933305882L
L3785322319L
(lp578
(lp579
Vesp_log_early_timestamp
p580
atp581
a(L3020204L
L0L
(lp582
(lp583
tp584
a(L574350325L
L3785322319L
(lp585
(lp586
Vbootloader_sha256_data
p587
atp588
a(L1152099087L
L3785322319L
(lp589
(lp590
Vverify_segment_header
p591
atp592
a(L708717693L
L0L
(lp593
(lp594
tp595
a(L3028481L
L0L
(lp596
(lp597
tp598
a(L2219443988L
L3785322319L
(lp599
(lp600
Vesp_log_early_timestamp
p601
atp602
a(L2386255930L
L0L
(lp603
(lp604
tp605
a(L3264259205L
L3785322319L
(lp606
(lp607
Vshould_load
p608
atp609
a(L1613213999L
L0L
(lp610
(lp611
tp612
a(L1613213968L
L0L
(lp613
(lp614
tp615
a(L2306526682L
L0L
(lp616
(lp617
tp618
a(L3020204L
L0L
(lp619
(lp620
tp621
a(L2610215073L
L0L
(lp622
(lp623
tp624
a(L1097987967L
L0L
(lp625
(lp626
tp627
a(L526346529L
L3785322319L
(lp628
(lp629
Vesp_log_early_timestamp
p630
atp631
a(L1587773466L
L0L
(lp632
(lp633
tp634
a(L1182990556L
L0L
(lp635
(lp636
tp637
a(L695399705L
L0L
(lp638
(lp639
tp640
a(L2258897019L
L0L
(lp641
(lp642
tp643
a(L93892250L
L0L
(lp644
(lp645
tp646
a(L2050278212L
L3785322319L
(lp647
(lp648
Vesp_log_early_timestamp
p649
atp650
a(L2910891901L
L3785322319L
(lp651
(lp652
Vprocess_segment_data
p653
atp654
a(L2993202392L
L0L
(lp655
(lp656
tp657
a(L2902417580L
L0L
(lp658
(lp659
tp660
a(L3360570486L
L0L
(lp661
(lp662
tp663
a(L735741265L
L0L
(lp664
(lp665
tp666
a(L702738088L
L0L
(lp667
(lp668
tp669
a(L3360570486L
L0L
(lp670
(lp671
tp672
atp673
sI1074268760
(Vrtc_clk_32k_enable
p674
(lp675
(L753387299L
L0L
(lp676
(lp677
tp678
a(L1120965557L
L3785322319L
(lp679
(lp680
Vrtc_clk_32k_enable_internal
p681
atp682
a(L3086774651L
L0L
(lp683
(lp684
tp685
atp686
sI1074237008
(Vbootloader_fill_random
p687
(lp688
(L173175206L
L0L
(lp689
(lp690
tp691
a(L2902417580L
L0L
(lp692
(lp693
tp694
a(L3448782426L
L0L
(lp695
(lp696
tp697
a(L364090345L
L0L
(lp698
(lp699
tp700
a(L1816945102L
L0L
(lp701
(lp702
tp703
a(L713870975L
L0L
(lp704
(lp705
tp706
a(L2192561533L
L0L
(lp707
(lp708
tp709
a(L3360570486L
L0L
(lp710
(lp711
tp712
atp713
sI1074239568
(Vshould_map
p714
(lp715
(L2952971288L
L0L
(lp716
(lp717
tp718
a(L1182990556L
L0L
(lp719
(lp720
tp721
a(L12786125L
L0L
(lp722
(lp723
tp724
a(L1182990556L
L0L
(lp725
(lp726
tp727
a(L1387712984L
L0L
(lp728
(lp729
tp730
atp731
sI1074234204
(Vbootloader_init_flash_configure
p732
(lp733
(L2326466312L
L1832448559L
(lp734
(lp735
Vbootloader_flash_gpio_config
p736
aVbootloader_flash_dummy_config
p737
aVbootloader_flash_cs_timing_config
p738
atp739
atp740
sI1074269012
(Vrtc_clk_8md256_enabled
p741
(lp742
(L3244257487L
L0L
(lp743
(lp744
tp745
atp746
sI1074271828
(Vclk_val_is_valid
p747
(lp748
(L1156532199L
L0L
(lp749
(lp750
tp751
a(L2777277229L
L0L
(lp752
(lp753
tp754
a(L2993202392L
L0L
(lp755
(lp756
tp757
a(L2993202392L
L0L
(lp758
(lp759
tp760
a(L3880706073L
L0L
(lp761
(lp762
tp763
atp764
sI1074242136
(Vesp_rom_spiflash_read
p765
(lp766
(L464735046L
L0L
(lp767
(lp768
tp769
a(L3929631652L
L0L
(lp770
(lp771
tp772
a(L3017366L
L0L
(lp773
(lp774
tp775
a(L106L
L0L
(lp776
(lp777
tp778
a(L1303571977L
L0L
(lp779
(lp780
tp781
a(L106L
L0L
(lp782
(lp783
tp784
a(L979377122L
L0L
(lp785
(lp786
tp787
a(L472132019L
L0L
(lp788
(lp789
tp790
a(L942582111L
L0L
(lp791
(lp792
tp793
a(L3016870L
L0L
(lp794
(lp795
tp796
a(L4032901204L
L0L
(lp797
(lp798
tp799
a(L3016870L
L0L
(lp800
(lp801
tp802
a(L919168447L
L0L
(lp803
(lp804
tp805
a(L301910431L
L0L
(lp806
(lp807
tp808
a(L816105957L
L0L
(lp809
(lp810
tp811
a(L2292084374L
L0L
(lp812
(lp813
tp814
a(L3479011496L
L0L
(lp815
(lp816
tp817
a(L171333775L
L0L
(lp818
(lp819
tp820
a(L265745155L
L0L
(lp821
(lp822
tp823
a(L2687620148L
L3785322319L
(lp824
(lp825
Vesp_rom_spiflash_read_data
p826
atp827
a(L1298875774L
L0L
(lp828
(lp829
tp830
a(L735741265L
L0L
(lp831
(lp832
tp833
atp834
sI1074267240
(Vuart_console_configure
p835
(lp836
(L2819811276L
L0L
(lp837
(lp838
tp839
a(L3228940019L
L0L
(lp840
(lp841
tp842
a(L1842231154L
L3785322319L
(lp843
(lp844
Vrtc_clk_apb_freq_get
p845
atp846
atp847
sI1074269800
(Vrtc_clk_xtal_freq_get
p848
(lp849
(L1703724290L
L3785322319L
(lp850
(lp851
Vclk_val_is_valid
p852
atp853
a(L881462452L
L3785322319L
(lp854
(lp855
Vesp_log_early_timestamp
p856
atp857
a(L880231726L
L3785322319L
(lp858
(lp859
Vreg_val_to_clk_val
p860
atp861
atp862
sI1074270568
(Vrtc_clk_init
p863
(lp864
(L78270746L
L3785322319L
(lp865
(lp866
Vrtc_clk_cpu_freq_get
p867
atp868
a(L4140200509L
L3785322319L
(lp869
(lp870
Vrtc_clk_cpu_freq_set
p871
atp872
a(L257245476L
L0L
(lp873
(lp874
tp875
a(L3553323341L
L3785322319L
(lp876
(lp877
Vclk_val_is_valid
p878
atp879
a(L2514117845L
L3785322319L
(lp880
(lp881
Vrtc_clk_xtal_freq_get
p882
atp883
a(L1375577398L
L3785322319L
(lp884
(lp885
Vrtc_clk_xtal_freq_estimate
p886
atp887
a(L1935058816L
L3785322319L
(lp888
(lp889
Vesp_log_early_timestamp
p890
atp891
a(L3385562626L
L3785322319L
(lp892
(lp893
Vclk_val_is_valid
p894
atp895
a(L3183127930L
L3785322319L
(lp896
(lp897
Vrtc_clk_xtal_freq_estimate
p898
atp899
a(L2941001678L
L3785322319L
(lp900
(lp901
Vesp_log_early_timestamp
p902
atp903
a(L3228940019L
L0L
(lp904
(lp905
tp906
a(L2415537030L
L1157885199L
(lp907
(lp908
Vrtc_clk_xtal_freq_update
p909
aVrtc_clk_apb_freq_update
p910
aVrtc_clk_cpu_freq_set
p911
aVrtc_clk_cpu_freq_value
p912
aVrtc_clk_cpu_freq_value
p913
atp914
a(L3804637084L
L3785322319L
(lp915
(lp916
Vrtc_clk_32k_enable
p917
atp918
a(L3016870L
L0L
(lp919
(lp920
tp921
a(L3193366786L
L3785322319L
(lp922
(lp923
Vrtc_clk_8m_enable
p924
atp925
a(L2766966958L
L1880226080L
(lp926
(lp927
Vrtc_clk_fast_freq_set
p928
aVrtc_clk_slow_freq_set
p929
atp930
atp931
sI1074234980
(Vbootloader_flash_dummy_config
p932
(lp933
(L4078571336L
L0L
(lp934
(lp935
tp936
a(L3017366L
L0L
(lp937
(lp938
tp939
a(L3016870L
L0L
(lp940
(lp941
tp942
a(L3652619007L
L0L
(lp943
(lp944
tp945
a(L2571765978L
L0L
(lp946
(lp947
tp948
a(L1610443405L
L0L
(lp949
(lp950
tp951
a(L1610443405L
L0L
(lp952
(lp953
tp954
a(L1610443498L
L0L
(lp955
(lp956
tp957
a(L1298875780L
L0L
(lp958
(lp959
tp960
a(L680882736L
L0L
(lp961
(lp962
tp963
a(L2902417580L
L0L
(lp964
(lp965
tp966
a(L106L
L0L
(lp967
(lp968
tp969
a(L3632614529L
L0L
(lp970
(lp971
tp972
a(L434037735L
L0L
(lp973
(lp974
tp975
a(L2472094024L
L0L
(lp976
(lp977
tp978
a(L838225377L
L0L
(lp979
(lp980
tp981
a(L309912272L
L0L
(lp982
(lp983
tp984
atp985
sI1074270060
(Vrtc_clk_xtal_freq_update
p986
(lp987
(L1128615197L
L3785322319L
(lp988
(lp989
Vclk_val_to_reg_val
p990
atp991
atp992
sI1074269280
(Vrtc_clk_slow_freq_get
p993
(lp994
(L1791745278L
L0L
(lp995
(lp996
tp997
atp998
sI1074267748
(Vbootloader_init
p999
(lp1000
(L2369641002L
L0L
(lp1001
(lp1002
tp1003
a(L2120392034L
L0L
(lp1004
(lp1005
tp1006
a(L93837694L
L0L
(lp1007
(lp1008
tp1009
a(L2194596119L
L0L
(lp1010
(lp1011
tp1012
a(L3430123939L
L3785322319L
(lp1013
(lp1014
V__assert_func
p1015
atp1016
a(L4094656074L
L0L
(lp1017
(lp1018
tp1019
a(L1705731975L
L3785322319L
(lp1020
(lp1021
V__assert_func
p1022
atp1023
a(L3811097909L
L0L
(lp1024
(lp1025
tp1026
a(L3838297804L
L3785322319L
(lp1027
(lp1028
V__assert_func
p1029
atp1030
a(L3879438463L
L0L
(lp1031
(lp1032
tp1033
a(L3889508536L
L3785322319L
(lp1034
(lp1035
V__assert_func
p1036
atp1037
a(L2067045809L
L3785322319L
(lp1038
(lp1039
Vbootloader_main
p1040
atp1041
a(L1299867982L
L0L
(lp1042
(lp1043
tp1044
a(L3360570486L
L0L
(lp1045
(lp1046
tp1047
atp1048
sI1074239348
(Vbootloader_sha256_finish
p1049
(lp1050
(L4066096136L
L0L
(lp1051
(lp1052
tp1053
a(L3451661603L
L3785322319L
(lp1054
(lp1055
V__assert_func
p1056
atp1057
a(L3020204L
L0L
(lp1058
(lp1059
tp1060
a(L662127633L
L0L
(lp1061
(lp1062
tp1063
a(L2534656226L
L0L
(lp1064
(lp1065
tp1066
a(L321015369L
L0L
(lp1067
(lp1068
tp1069
a(L59818839L
L3785322319L
(lp1070
(lp1071
V__assert_func
p1072
atp1073
a(L1391662444L
L3785322319L
(lp1074
(lp1075
Vbootloader_sha256_data
p1076
atp1077
a(L1641117589L
L3785322319L
(lp1078
(lp1079
V__assert_func
p1080
atp1081
a(L319577619L
L1880226080L
(lp1082
(lp1083
V__bswapsi2
p1084
aVbootloader_sha256_data
p1085
atp1086
a(L3303499629L
L3785322319L
(lp1087
(lp1088
V__assert_func
p1089
atp1090
a(L4261800999L
L0L
(lp1091
(lp1092
tp1093
a(L1963444710L
L0L
(lp1094
(lp1095
tp1096
a(L4261800999L
L0L
(lp1097
(lp1098
tp1099
a(L1299866312L
L0L
(lp1100
(lp1101
tp1102
a(L928517648L
L3785322319L
(lp1103
(lp1104
V__bswapsi2
p1105
atp1106
a(L93837694L
L0L
(lp1107
(lp1108
tp1109
a(L3347778L
L0L
(lp1110
(lp1111
tp1112
a(L3360570486L
L0L
(lp1113
(lp1114
tp1115
atp1116
sI1074239092
(Vindex_to_partition
p1117
(lp1118
(L4066096119L
L0L
(lp1119
(lp1120
tp1121
a(L937847257L
L0L
(lp1122
(lp1123
tp1124
a(L2808906342L
L0L
(lp1125
(lp1126
tp1127
a(L1765918994L
L0L
(lp1128
(lp1129
tp1130
a(L2808826781L
L0L
(lp1131
(lp1132
tp1133
a(L2911029954L
L0L
(lp1134
(lp1135
tp1136
a(L2511483031L
L0L
(lp1137
(lp1138
tp1139
a(L1984670054L
L0L
(lp1140
(lp1141
tp1142
a(L3698927993L
L0L
(lp1143
(lp1144
tp1145
atp1146
sI1074235508
(V__udivdi3
p1147
(lp1148
(L1385793588L
L0L
(lp1149
(lp1150
tp1151
a(L3027019L
L0L
(lp1152
(lp1153
tp1154
a(L106L
L0L
(lp1155
(lp1156
tp1157
a(L2092509388L
L0L
(lp1158
(lp1159
tp1160
a(L3502386743L
L0L
(lp1161
(lp1162
tp1163
a(L1366962904L
L0L
(lp1164
(lp1165
tp1166
a(L438338333L
L0L
(lp1167
(lp1168
tp1169
a(L3027019L
L0L
(lp1170
(lp1171
tp1172
a(L1598954342L
L0L
(lp1173
(lp1174
tp1175
a(L3753924055L
L0L
(lp1176
(lp1177
tp1178
a(L1897931368L
L0L
(lp1179
(lp1180
tp1181
a(L1870013079L
L0L
(lp1182
(lp1183
tp1184
a(L3021749L
L0L
(lp1185
(lp1186
tp1187
a(L2802159608L
L0L
(lp1188
(lp1189
tp1190
a(L3888552627L
L0L
(lp1191
(lp1192
tp1193
a(L2632174215L
L0L
(lp1194
(lp1195
tp1196
a(L2910371777L
L0L
(lp1197
(lp1198
tp1199
a(L305663930L
L0L
(lp1200
(lp1201
tp1202
a(L2740121073L
L0L
(lp1203
(lp1204
tp1205
a(L706293450L
L0L
(lp1206
(lp1207
tp1208
a(L4229162210L
L0L
(lp1209
(lp1210
tp1211
a(L2843085605L
L0L
(lp1212
(lp1213
tp1214
a(L3027019L
L0L
(lp1215
(lp1216
tp1217
a(L3073587686L
L0L
(lp1218
(lp1219
tp1220
a(L3122262879L
L0L
(lp1221
(lp1222
tp1223
a(L1300871293L
L0L
(lp1224
(lp1225
tp1226
a(L94415139L
L0L
(lp1227
(lp1228
tp1229
a(L3027019L
L0L
(lp1230
(lp1231
tp1232
a(L11368960L
L0L
(lp1233
(lp1234
tp1235
a(L3212626947L
L0L
(lp1236
(lp1237
tp1238
a(L3756070799L
L0L
(lp1239
(lp1240
tp1241
a(L1029992261L
L0L
(lp1242
(lp1243
tp1244
a(L438338333L
L0L
(lp1245
(lp1246
tp1247
a(L3027019L
L0L
(lp1248
(lp1249
tp1250
a(L2534896770L
L0L
(lp1251
(lp1252
tp1253
a(L2789765947L
L0L
(lp1254
(lp1255
tp1256
a(L3482374298L
L0L
(lp1257
(lp1258
tp1259
a(L1870018349L
L0L
(lp1260
(lp1261
tp1262
a(L3027019L
L0L
(lp1263
(lp1264
tp1265
a(L2802159608L
L0L
(lp1266
(lp1267
tp1268
a(L3888552627L
L0L
(lp1269
(lp1270
tp1271
a(L36877582L
L0L
(lp1272
(lp1273
tp1274
a(L3021749L
L0L
(lp1275
(lp1276
tp1277
a(L106L
L0L
(lp1278
(lp1279
tp1280
a(L3988749468L
L0L
(lp1281
(lp1282
tp1283
a(L1375050317L
L0L
(lp1284
(lp1285
tp1286
a(L4185861754L
L0L
(lp1287
(lp1288
tp1289
a(L892947480L
L0L
(lp1290
(lp1291
tp1292
a(L2258688482L
L0L
(lp1293
(lp1294
tp1295
a(L2856348002L
L0L
(lp1296
(lp1297
tp1298
a(L1351383952L
L0L
(lp1299
(lp1300
tp1301
a(L1681866360L
L0L
(lp1302
(lp1303
tp1304
a(L3021749L
L0L
(lp1305
(lp1306
tp1307
a(L4115096326L
L0L
(lp1308
(lp1309
tp1310
a(L2229771582L
L0L
(lp1311
(lp1312
tp1313
a(L3630858718L
L0L
(lp1314
(lp1315
tp1316
a(L1986658244L
L0L
(lp1317
(lp1318
tp1319
a(L3027019L
L0L
(lp1320
(lp1321
tp1322
a(L2802159608L
L0L
(lp1323
(lp1324
tp1325
a(L2938387302L
L0L
(lp1326
(lp1327
tp1328
a(L3219580898L
L0L
(lp1329
(lp1330
tp1331
a(L4280816470L
L0L
(lp1332
(lp1333
tp1334
a(L97422L
L0L
(lp1335
(lp1336
tp1337
a(L1621601873L
L0L
(lp1338
(lp1339
tp1340
a(L3070693089L
L0L
(lp1341
(lp1342
tp1343
a(L2361595480L
L0L
(lp1344
(lp1345
tp1346
a(L539227760L
L0L
(lp1347
(lp1348
tp1349
atp1350
sI1074271868
(Vclk_val_to_reg_val
p1351
(lp1352
(L2997976715L
L0L
(lp1353
(lp1354
tp1355
atp1356
sI1074234224
(Vbootloader_flash_cs_timing_config
p1357
(lp1358
(L211636681L
L0L
(lp1359
(lp1360
tp1361
atp1362
sI1074269296
(Vrtc_clk_fast_freq_set
p1363
(lp1364
(L2413941652L
L0L
(lp1365
(lp1366
tp1367
atp1368
sI1074269040
(Vrtc_clk_xtal_freq_estimate
p1369
(lp1370
(L2516060585L
L1880226080L
(lp1371
(lp1372
Vrtc_clk_8m_enabled
p1373
aVrtc_clk_8md256_enabled
p1374
atp1375
a(L967485502L
L3785322319L
(lp1376
(lp1377
Vrtc_clk_8m_enable
p1378
atp1379
a(L386282528L
L1880226080L
(lp1380
(lp1381
Vrtc_clk_cal_ratio
p1382
aV__udivdi3
p1383
atp1384
a(L64375360L
L0L
(lp1385
(lp1386
tp1387
a(L3562197223L
L3785322319L
(lp1388
(lp1389
Vesp_log_early_timestamp
p1390
atp1391
atp1392
sI1074240636
(Vesp_image_load
p1393
(lp1394
(L2340434831L
L0L
(lp1395
(lp1396
tp1397
a(L106L
L0L
(lp1398
(lp1399
tp1400
a(L42728636L
L0L
(lp1401
(lp1402
tp1403
a(L3028464L
L0L
(lp1404
(lp1405
tp1406
a(L106L
L0L
(lp1407
(lp1408
tp1409
a(L2880292909L
L3785322319L
(lp1410
(lp1411
Vesp_log_early_timestamp
p1412
atp1413
a(L3555507914L
L3785322319L
(lp1414
(lp1415
Vbootloader_flash_read
p1416
atp1417
a(L2950861325L
L0L
(lp1418
(lp1419
tp1420
a(L2568992188L
L3785322319L
(lp1421
(lp1422
Vbootloader_sha256_start
p1423
atp1424
a(L4173212049L
L3785322319L
(lp1425
(lp1426
Vbootloader_sha256_data
p1427
atp1428
a(L2258837437L
L0L
(lp1429
(lp1430
tp1431
a(L846347405L
L3785322319L
(lp1432
(lp1433
Vverify_image_header
p1434
atp1435
a(L1980404654L
L0L
(lp1436
(lp1437
tp1438
a(L3028464L
L0L
(lp1439
(lp1440
tp1441
a(L106L
L0L
(lp1442
(lp1443
tp1444
a(L1174041466L
L3785322319L
(lp1445
(lp1446
Vesp_log_early_timestamp
p1447
atp1448
a(L2671916466L
L0L
(lp1449
(lp1450
tp1451
a(L1898485626L
L3785322319L
(lp1452
(lp1453
Vprocess_segment
p1454
atp1455
a(L3878353414L
L0L
(lp1456
(lp1457
tp1458
a(L2125973223L
L0L
(lp1459
(lp1460
tp1461
a(L499151239L
L0L
(lp1462
(lp1463
tp1464
a(L3028464L
L0L
(lp1465
(lp1466
tp1467
a(L106L
L0L
(lp1468
(lp1469
tp1470
a(L1629206181L
L3785322319L
(lp1471
(lp1472
Vesp_log_early_timestamp
p1473
atp1474
a(L4041426534L
L3785322319L
(lp1475
(lp1476
Vesp_cpu_in_ocd_debug_mode
p1477
atp1478
a(L1482013975L
L3785322319L
(lp1479
(lp1480
Vverify_checksum
p1481
atp1482
a(L279608302L
L0L
(lp1483
(lp1484
tp1485
a(L3028464L
L0L
(lp1486
(lp1487
tp1488
a(L106L
L0L
(lp1489
(lp1490
tp1491
a(L1278425080L
L3785322319L
(lp1492
(lp1493
Vesp_log_early_timestamp
p1494
atp1495
a(L2073780613L
L0L
(lp1496
(lp1497
tp1498
a(L3020204L
L0L
(lp1499
(lp1500
tp1501
a(L3287840219L
L3785322319L
(lp1502
(lp1503
Vesp_cpu_in_ocd_debug_mode
p1504
atp1505
a(L3045806043L
L3785322319L
(lp1506
(lp1507
Vverify_simple_hash
p1508
atp1509
a(L3020204L
L0L
(lp1510
(lp1511
tp1512
a(L3688659868L
L3785322319L
(lp1513
(lp1514
Vbootloader_sha256_finish
p1515
atp1516
a(L3028481L
L0L
(lp1517
(lp1518
tp1519
a(L3020187L
L0L
(lp1520
(lp1521
tp1522
a(L2993202392L
L0L
(lp1523
(lp1524
tp1525
a(L3965661703L
L3785322319L
(lp1526
(lp1527
Vshould_load
p1528
atp1529
a(L745073924L
L0L
(lp1530
(lp1531
tp1532
a(L715598799L
L0L
(lp1533
(lp1534
tp1535
a(L1605917894L
L0L
(lp1536
(lp1537
tp1538
a(L467445800L
L0L
(lp1539
(lp1540
tp1541
a(L560171818L
L0L
(lp1542
(lp1543
tp1544
a(L1191274096L
L0L
(lp1545
(lp1546
tp1547
a(L1720234353L
L0L
(lp1548
(lp1549
tp1550
a(L2258777855L
L0L
(lp1551
(lp1552
tp1553
a(L85798113L
L0L
(lp1554
(lp1555
tp1556
a(L2993202392L
L0L
(lp1557
(lp1558
tp1559
a(L3151898214L
L0L
(lp1560
(lp1561
tp1562
a(L1304483917L
L0L
(lp1563
(lp1564
tp1565
a(L2258837437L
L0L
(lp1566
(lp1567
tp1568
a(L2910371777L
L0L
(lp1569
(lp1570
tp1571
a(L2104867244L
L0L
(lp1572
(lp1573
tp1574
a(L3020204L
L0L
(lp1575
(lp1576
tp1577
a(L3688659868L
L3785322319L
(lp1578
(lp1579
Vbootloader_sha256_finish
p1580
atp1581
a(L1499320905L
L0L
(lp1582
(lp1583
tp1584
a(L2079009947L
L0L
(lp1585
(lp1586
tp1587
a(L1191506266L
L0L
(lp1588
(lp1589
tp1590
atp1591
sI1074241660
(Vesp_rom_spiflash_wait_idle
p1592
(lp1593
(L287326052L
L0L
(lp1594
(lp1595
tp1596
a(L3802787901L
L0L
(lp1597
(lp1598
tp1599
a(L2114776897L
L0L
(lp1600
(lp1601
tp1602
a(L855829385L
L3785322319L
(lp1603
(lp1604
Vesp_rom_spiflash_read_status
p1605
atp1606
a(L1298875774L
L0L
(lp1607
(lp1608
tp1609
a(L735741265L
L0L
(lp1610
(lp1611
tp1612
atp1613
sI1074271860
(Vreg_val_to_clk_val
p1614
(lp1615
(L2577655222L
L0L
(lp1616
(lp1617
tp1618
atp1619
sI1074237572
(Vbootloader_random_disable
p1620
(lp1621
(L2026555769L
L0L
(lp1622
(lp1623
tp1624
atp1625
sI1074236292
(Vbootloader_common_check_chip_validity
p1626
(lp1627
(L2834967127L
L0L
(lp1628
(lp1629
tp1630
a(L649015583L
L3785322319L
(lp1631
(lp1632
Vesp_log_early_timestamp
p1633
atp1634
a(L1182841601L
L0L
(lp1635
(lp1636
tp1637
a(L2344894839L
L3785322319L
(lp1638
(lp1639
Vbootloader_common_get_chip_revision
p1640
atp1641
a(L358098655L
L3785322319L
(lp1642
(lp1643
Vesp_log_early_timestamp
p1644
atp1645
a(L2983970029L
L0L
(lp1646
(lp1647
tp1648
atp1649
sI1074238592
(Vbootloader_utility_get_selected_boot_partition
p1650
(lp1651
(L3540070437L
L0L
(lp1652
(lp1653
tp1654
a(L515308054L
L0L
(lp1655
(lp1656
tp1657
a(L3281306805L
L3785322319L
(lp1658
(lp1659
Vesp_log_early_timestamp
p1660
atp1661
a(L3118387733L
L3785322319L
(lp1662
(lp1663
Vbootloader_mmap
p1664
atp1665
a(L993837792L
L3785322319L
(lp1666
(lp1667
Vesp_log_early_timestamp
p1668
atp1669
a(L3181251030L
L3785322319L
(lp1670
(lp1671
Vbootloader_munmap
p1672
atp1673
a(L505081345L
L0L
(lp1674
(lp1675
tp1676
a(L2949562121L
L0L
(lp1677
(lp1678
tp1679
a(L2793934716L
L0L
(lp1680
(lp1681
tp1682
a(L515633988L
L0L
(lp1683
(lp1684
tp1685
a(L726746666L
L3785322319L
(lp1686
(lp1687
Vbootloader_common_ota_select_valid
p1688
atp1689
a(L1828868152L
L3785322319L
(lp1690
(lp1691
Vbootloader_common_ota_select_valid
p1692
atp1693
a(L1353294186L
L0L
(lp1694
(lp1695
tp1696
a(L726746666L
L3785322319L
(lp1697
(lp1698
Vbootloader_common_ota_select_valid
p1699
atp1700
a(L3920888185L
L0L
(lp1701
(lp1702
tp1703
a(L788494392L
L3785322319L
(lp1704
(lp1705
Vbootloader_common_ota_select_valid
p1706
atp1707
a(L797347385L
L0L
(lp1708
(lp1709
tp1710
a(L2258718273L
L0L
(lp1711
(lp1712
tp1713
a(L2902417580L
L0L
(lp1714
(lp1715
tp1716
a(L2053587437L
L0L
(lp1717
(lp1718
tp1719
a(L4182810108L
L0L
(lp1720
(lp1721
tp1722
a(L399100108L
L3785322319L
(lp1723
(lp1724
Vesp_log_early_timestamp
p1725
atp1726
a(L2648933963L
L3785322319L
(lp1727
(lp1728
Vesp_log_early_timestamp
p1729
atp1730
a(L515633988L
L0L
(lp1731
(lp1732
tp1733
a(L2993202392L
L0L
(lp1734
(lp1735
tp1736
atp1737
sI1074239616
(Vverify_segment_header
p1738
(lp1739
(L3674778058L
L0L
(lp1740
(lp1741
tp1742
a(L23182376L
L0L
(lp1743
(lp1744
tp1745
a(L3028481L
L0L
(lp1746
(lp1747
tp1748
a(L4076781467L
L3785322319L
(lp1749
(lp1750
Vesp_log_early_timestamp
p1751
atp1752
a(L536784482L
L3785322319L
(lp1753
(lp1754
Vshould_map
p1755
atp1756
a(L3496178735L
L0L
(lp1757
(lp1758
tp1759
a(L2910371777L
L0L
(lp1760
(lp1761
tp1762
a(L90883502L
L3785322319L
(lp1763
(lp1764
Vesp_log_early_timestamp
p1765
atp1766
a(L1121815838L
L0L
(lp1767
(lp1768
tp1769
a(L2993202392L
L0L
(lp1770
(lp1771
tp1772
a(L2993202392L
L0L
(lp1773
(lp1774
tp1775
a(L1121815838L
L0L
(lp1776
(lp1777
tp1778
atp1779
sI1074239872
(Vverify_image_header
p1780
(lp1781
(L171376062L
L0L
(lp1782
(lp1783
tp1784
a(L2910371777L
L0L
(lp1785
(lp1786
tp1787
a(L3467255520L
L3785322319L
(lp1788
(lp1789
Vesp_log_early_timestamp
p1790
atp1791
a(L1299866312L
L0L
(lp1792
(lp1793
tp1794
a(L702738088L
L0L
(lp1795
(lp1796
tp1797
a(L3710928811L
L3785322319L
(lp1798
(lp1799
Vbootloader_common_check_chip_validity
p1800
atp1801
a(L702738088L
L0L
(lp1802
(lp1803
tp1804
a(L3028481L
L0L
(lp1805
(lp1806
tp1807
a(L3270243289L
L0L
(lp1808
(lp1809
tp1810
a(L1435600762L
L3785322319L
(lp1811
(lp1812
Vesp_log_early_timestamp
p1813
atp1814
a(L385352084L
L0L
(lp1815
(lp1816
tp1817
a(L1117433874L
L3785322319L
(lp1818
(lp1819
Vesp_log_early_timestamp
p1820
atp1821
a(L3360570486L
L0L
(lp1822
(lp1823
tp1824
atp1825
sI1074270080
(Vrtc_clk_apb_freq_update
p1826
(lp1827
(L4011735424L
L3785322319L
(lp1828
(lp1829
Vclk_val_to_reg_val
p1830
atp1831
atp1832
sI1074268824
(Vrtc_clk_8m_enable
p1833
(lp1834
(L1474360438L
L0L
(lp1835
(lp1836
tp1837
a(L3188892622L
L0L
(lp1838
(lp1839
tp1840
a(L1013416343L
L0L
(lp1841
(lp1842
tp1843
a(L585531193L
L0L
(lp1844
(lp1845
tp1846
a(L357848381L
L0L
(lp1847
(lp1848
tp1849
a(L1207678461L
L0L
(lp1850
(lp1851
tp1852
atp1853
sI1074241940
(Vesp_rom_spiflash_read_statushigh
p1854
(lp1855
(L3716805792L
L3785322319L
(lp1856
(lp1857
Vesp_rom_spiflash_wait_idle
p1858
atp1859
atp1860
sI1074266780
(Vselected_boot_partition
p1861
(lp1862
(L2937841336L
L3785322319L
(lp1863
(lp1864
Vbootloader_utility_get_selected_boot_partition
p1865
atp1866
a(L801556081L
L0L
(lp1867
(lp1868
tp1869
a(L3360570486L
L0L
(lp1870
(lp1871
tp1872
atp1873
sI1074269340
(Vrtc_clk_fast_freq_get
p1874
(lp1875
(L1100755102L
L0L
(lp1876
(lp1877
tp1878
atp1879
sI1074236816
(Vbootloader_munmap
p1880
(lp1881
(L1822729694L
L0L
(lp1882
(lp1883
tp1884
a(L3166827719L
L0L
(lp1885
(lp1886
tp1887
a(L3360570486L
L0L
(lp1888
(lp1889
tp1890
atp1891
sI1074268048
(Vexecute_flash_command
p1892
(lp1893
(L1228156235L
L0L
(lp1894
(lp1895
tp1896
a(L4260637060L
L0L
(lp1897
(lp1898
tp1899
a(L2258867228L
L0L
(lp1900
(lp1901
tp1902
a(L1937707736L
L0L
(lp1903
(lp1904
tp1905
a(L913112839L
L0L
(lp1906
(lp1907
tp1908
a(L2258748064L
L0L
(lp1909
(lp1910
tp1911
a(L3222480915L
L0L
(lp1912
(lp1913
tp1914
a(L2902417580L
L0L
(lp1915
(lp1916
tp1917
a(L1160794706L
L0L
(lp1918
(lp1919
tp1920
a(L3622074181L
L0L
(lp1921
(lp1922
tp1923
a(L1150532982L
L0L
(lp1924
(lp1925
tp1926
a(L1507098258L
L0L
(lp1927
(lp1928
tp1929
a(L1965195815L
L0L
(lp1930
(lp1931
tp1932
atp1933
sI1074238876
(Vbootloader_utility_load_boot_image
p1934
(lp1935
(L876424708L
L0L
(lp1936
(lp1937
tp1938
a(L534474525L
L3785322319L
(lp1939
(lp1940
Vtry_load_partition
p1941
atp1942
a(L1346171890L
L3785322319L
(lp1943
(lp1944
Vload_image
p1945
atp1946
a(L3947725809L
L3785322319L
(lp1947
(lp1948
Vesp_log_early_timestamp
p1949
atp1950
a(L857253909L
L3785322319L
(lp1951
(lp1952
Vindex_to_partition
p1953
atp1954
a(L1255570883L
L3785322319L
(lp1955
(lp1956
Vtry_load_partition
p1957
atp1958
a(L1346171890L
L3785322319L
(lp1959
(lp1960
Vload_image
p1961
atp1962
a(L1391131227L
L3785322319L
(lp1963
(lp1964
Vlog_invalid_app_partition
p1965
atp1966
a(L11368960L
L0L
(lp1967
(lp1968
tp1969
a(L3802068281L
L0L
(lp1970
(lp1971
tp1972
a(L3021737L
L0L
(lp1973
(lp1974
tp1975
a(L4238347245L
L0L
(lp1976
(lp1977
tp1978
a(L549621336L
L3785322319L
(lp1979
(lp1980
Vindex_to_partition
p1981
atp1982
a(L1255570883L
L3785322319L
(lp1983
(lp1984
Vtry_load_partition
p1985
atp1986
a(L1346171890L
L3785322319L
(lp1987
(lp1988
Vload_image
p1989
atp1990
a(L2162300612L
L3785322319L
(lp1991
(lp1992
Vlog_invalid_app_partition
p1993
atp1994
a(L3307283485L
L0L
(lp1995
(lp1996
tp1997
a(L1508906068L
L0L
(lp1998
(lp1999
tp2000
a(L2528911837L
L3785322319L
(lp2001
(lp2002
Vtry_load_partition
p2003
atp2004
a(L3758677011L
L1880226080L
(lp2005
(lp2006
Vesp_log_early_timestamp
p2007
aVload_image
p2008
atp2009
a(L342257244L
L3785322319L
(lp2010
(lp2011
Vesp_log_early_timestamp
p2012
atp2013
atp2014
sI1074270100
(Vrtc_clk_cpu_freq_set
p2015
(lp2016
(L2528604201L
L1832448559L
(lp2017
(lp2018
Vrtc_clk_xtal_freq_get
p2019
aVrtc_clk_wait_for_slow_cycle
p2020
aVrtc_clk_apb_freq_update
p2021
atp2022
a(L3765375990L
L0L
(lp2023
(lp2024
tp2025
a(L3020204L
L0L
(lp2026
(lp2027
tp2028
a(L3028464L
L0L
(lp2029
(lp2030
tp2031
a(L3076298688L
L3785322319L
(lp2032
(lp2033
Vrtc_clk_apb_freq_update
p2034
atp2035
a(L698562715L
L3785322319L
(lp2036
(lp2037
Vrtc_clk_bbpll_set
p2038
atp2039
a(L601042252L
L0L
(lp2040
(lp2041
tp2042
a(L3028464L
L0L
(lp2043
(lp2044
tp2045
a(L2480307002L
L0L
(lp2046
(lp2047
tp2048
a(L3028464L
L0L
(lp2049
(lp2050
tp2051
a(L830962068L
L0L
(lp2052
(lp2053
tp2054
a(L1689145253L
L1880226080L
(lp2055
(lp2056
Vrtc_clk_wait_for_slow_cycle
p2057
aVrtc_clk_apb_freq_update
p2058
atp2059
a(L846543338L
L0L
(lp2060
(lp2061
tp2062
atp2063
sI1074235300
(Vesp_cpu_unstall
p2064
(lp2065
(L4037466968L
L0L
(lp2066
(lp2067
tp2068
a(L3667099036L
L0L
(lp2069
(lp2070
tp2071
a(L2663459689L
L0L
(lp2072
(lp2073
tp2074
atp2075
sI1074238372
(Vload_image
p2076
(lp2077
(L1599382955L
L1880226080L
(lp2078
(lp2079
Vbootloader_random_disable
p2080
aVunpack_load_app
p2081
atp2082
atp2083
sI1074267564
(Vbootloader_main
p2084
(lp2085
(L1324840210L
L1832448559L
(lp2086
(lp2087
Vvddsdio_configure
p2088
aVbootloader_read_flash_id
p2089
aVbootloader_flash_read
p2090
atp2091
a(L2695390501L
L3785322319L
(lp2092
(lp2093
Vesp_log_early_timestamp
p2094
atp2095
a(L1528820900L
L1880226080L
(lp2096
(lp2097
Vbootloader_common_get_chip_revision
p2098
aVbootloader_common_check_chip_validity
p2099
atp2100
a(L3984901809L
L665916544L
(lp2101
(lp2102
Vbootloader_init_flash_configure
p2103
aVbootloader_clock_configure
p2104
aVuart_console_configure
p2105
aVwdt_reset_check
p2106
aVesp_rom_spiflash_unlock
p2107
aVbootloader_random_enable
p2108
aVprint_flash_info
p2109
aVupdate_flash_config
p2110
atp2111
a(L515633988L
L0L
(lp2112
(lp2113
tp2114
atp2115
sI1074269356
(Vrtc_clk_bbpll_set
p2116
(lp2117
(L2840094209L
L0L
(lp2118
(lp2119
tp2120
a(L106L
L0L
(lp2121
(lp2122
tp2123
a(L2705157922L
L0L
(lp2124
(lp2125
tp2126
a(L2635425305L
L0L
(lp2127
(lp2128
tp2129
a(L2634502051L
L0L
(lp2130
(lp2131
tp2132
a(L106L
L0L
(lp2133
(lp2134
tp2135
a(L3145948254L
L0L
(lp2136
(lp2137
tp2138
a(L21216729L
L0L
(lp2139
(lp2140
tp2141
a(L2377105039L
L0L
(lp2142
(lp2143
tp2144
a(L1940347058L
L0L
(lp2145
(lp2146
tp2147
a(L2430296984L
L0L
(lp2148
(lp2149
tp2150
a(L4276394970L
L0L
(lp2151
(lp2152
tp2153
a(L2635425305L
L0L
(lp2154
(lp2155
tp2156
a(L2634502051L
L0L
(lp2157
(lp2158
tp2159
a(L106L
L0L
(lp2160
(lp2161
tp2162
a(L1566659442L
L0L
(lp2163
(lp2164
tp2165
a(L790959749L
L0L
(lp2166
(lp2167
tp2168
a(L2377105039L
L0L
(lp2169
(lp2170
tp2171
a(L1965177478L
L0L
(lp2172
(lp2173
tp2174
a(L764214656L
L0L
(lp2175
(lp2176
tp2177
a(L3420589039L
L3785322319L
(lp2178
(lp2179
Vrtc_clk_slow_freq_get
p2180
atp2181
a(L2679108412L
L0L
(lp2182
(lp2183
tp2184
a(L2780081410L
L0L
(lp2185
(lp2186
tp2187
a(L2494368139L
L0L
(lp2188
(lp2189
tp2190
atp2191
sI1074237856
(Vlog_invalid_app_partition
p2192
(lp2193
(L3991230301L
L0L
(lp2194
(lp2195
tp2196
a(L3028464L
L0L
(lp2197
(lp2198
tp2199
a(L4116658468L
L3785322319L
(lp2200
(lp2201
Vesp_log_early_timestamp
p2202
atp2203
a(L997452264L
L3785322319L
(lp2204
(lp2205
Vesp_log_early_timestamp
p2206
atp2207
a(L3971384466L
L3785322319L
(lp2208
(lp2209
Vesp_log_early_timestamp
p2210
atp2211
atp2212
sI1074267296
(Vwdt_reset_check
p2213
(lp2214
(L1658569856L
L0L
(lp2215
(lp2216
tp2217
a(L3020187L
L0L
(lp2218
(lp2219
tp2220
a(L367582592L
L0L
(lp2221
(lp2222
tp2223
a(L367642441L
L0L
(lp2224
(lp2225
tp2226
a(L2055931147L
L3785322319L
(lp2227
(lp2228
Vesp_log_early_timestamp
p2229
atp2230
a(L1298905564L
L0L
(lp2231
(lp2232
tp2233
a(L1465910262L
L0L
(lp2234
(lp2235
tp2236
a(L3020187L
L0L
(lp2237
(lp2238
tp2239
a(L225031483L
L0L
(lp2240
(lp2241
tp2242
a(L225091332L
L0L
(lp2243
(lp2244
tp2245
a(L1426350659L
L3785322319L
(lp2246
(lp2247
Vesp_log_early_timestamp
p2248
atp2249
a(L3020204L
L0L
(lp2250
(lp2251
tp2252
a(L1944713791L
L1880226080L
(lp2253
(lp2254
Vwdt_reset_info_dump
p2255
aVwdt_reset_info_dump
p2256
atp2257
a(L3738038928L
L3785322319L
(lp2258
(lp2259
Vwdt_reset_cpu0_info_enable
p2260
atp2261
atp2262
sI1074269856
(Vrtc_clk_cpu_freq_get
p2263
(lp2264
(L1630969465L
L0L
(lp2265
(lp2266
tp2267
a(L3020187L
L0L
(lp2268
(lp2269
tp2270
a(L106L
L0L
(lp2271
(lp2272
tp2273
a(L660935775L
L0L
(lp2274
(lp2275
tp2276
a(L160790007L
L3785322319L
(lp2277
(lp2278
Vrtc_clk_xtal_freq_get
p2279
atp2280
a(L847878198L
L3785322319L
(lp2281
(lp2282
V__assert_func
p2283
atp2284
a(L3418281669L
L0L
(lp2285
(lp2286
tp2287
a(L3020187L
L0L
(lp2288
(lp2289
tp2290
a(L3020187L
L0L
(lp2291
(lp2292
tp2293
a(L1341545298L
L3785322319L
(lp2294
(lp2295
V__assert_func
p2296
atp2297
a(L1464962073L
L3785322319L
(lp2298
(lp2299
V__assert_func
p2300
atp2301
a(L2993202392L
L0L
(lp2302
(lp2303
tp2304
a(L2248249820L
L0L
(lp2305
(lp2306
tp2307
a(L3880706073L
L0L
(lp2308
(lp2309
tp2310
a(L473242458L
L0L
(lp2311
(lp2312
tp2313
a(L1360746139L
L0L
(lp2314
(lp2315
tp2316
atp2317
sI1074237100
(Vbootloader_random_enable
p2318
(lp2319
(L719267526L
L0L
(lp2320
(lp2321
tp2322
atp2323
sI1074236584
(Vbootloader_flash_read_no_decrypt
p2324
(lp2325
(L2545872458L
L1880226080L
(lp2326
(lp2327
Vesp_rom_spiflash_read
p2328
aVspi_to_esp_err
p2329
atp2330
atp2331
sI1074240168
(Vverify_simple_hash
p2332
(lp2333
(L333303782L
L1880226080L
(lp2334
(lp2335
Vbootloader_sha256_finish
p2336
aVbootloader_mmap
p2337
atp2338
a(L2887688682L
L1880226080L
(lp2339
(lp2340
Vesp_log_early_timestamp
p2341
aVbootloader_munmap
p2342
atp2343
a(L1606099250L
L3785322319L
(lp2344
(lp2345
Vbootloader_munmap
p2346
atp2347
atp2348
sI1074266808
(Vselect_partition_number
p2349
(lp2350
(L1731214134L
L3785322319L
(lp2351
(lp2352
Vbootloader_utility_load_partition_table
p2353
atp2354
a(L2248388216L
L3785322319L
(lp2355
(lp2356
Vesp_log_early_timestamp
p2357
atp2358
a(L880231726L
L3785322319L
(lp2359
(lp2360
Vselected_boot_partition
p2361
atp2362
atp2363
sI1074271672
(Vrtc_clk_cal_ratio
p2364
(lp2365
(L1747571394L
L1880226080L
(lp2366
(lp2367
Vrtc_clk_cal_internal
p2368
aV__udivdi3
p2369
atp2370
atp2371
sI1074238384
(Vbootloader_utility_load_partition_table
p2372
(lp2373
(L1811856000L
L3785322319L
(lp2374
(lp2375
Vbootloader_mmap
p2376
atp2377
a(L1274084701L
L3785322319L
(lp2378
(lp2379
Vesp_log_early_timestamp
p2380
atp2381
a(L1640479211L
L3785322319L
(lp2382
(lp2383
Vesp_partition_table_verify
p2384
atp2385
a(L577587396L
L3785322319L
(lp2386
(lp2387
Vesp_log_early_timestamp
p2388
atp2389
a(L2035507904L
L0L
(lp2390
(lp2391
tp2392
a(L3020187L
L0L
(lp2393
(lp2394
tp2395
a(L106L
L0L
(lp2396
(lp2397
tp2398
a(L3137092968L
L0L
(lp2399
(lp2400
tp2401
a(L3020187L
L0L
(lp2402
(lp2403
tp2404
a(L106L
L0L
(lp2405
(lp2406
tp2407
a(L735059833L
L0L
(lp2408
(lp2409
tp2410
a(L455830292L
L0L
(lp2411
(lp2412
tp2413
a(L2610008785L
L0L
(lp2414
(lp2415
tp2416
a(L4220418956L
L0L
(lp2417
(lp2418
tp2419
a(L3145047165L
L0L
(lp2420
(lp2421
tp2422
a(L743044586L
L0L
(lp2423
(lp2424
tp2425
a(L3376871561L
L0L
(lp2426
(lp2427
tp2428
a(L2306437309L
L0L
(lp2429
(lp2430
tp2431
a(L871720679L
L0L
(lp2432
(lp2433
tp2434
a(L2187730653L
L3785322319L
(lp2435
(lp2436
Vbootloader_munmap
p2437
atp2438
atp2439
sI1074241712
(Vesp_rom_spiflash_read_data
p2440
(lp2441
(L4122033220L
L0L
(lp2442
(lp2443
tp2444
a(L106L
L0L
(lp2445
(lp2446
tp2447
a(L2070875117L
L3785322319L
(lp2448
(lp2449
Vesp_rom_spiflash_wait_idle
p2450
atp2451
a(L2761836345L
L0L
(lp2452
(lp2453
tp2454
a(L3211788376L
L0L
(lp2455
(lp2456
tp2457
a(L3519285306L
L0L
(lp2458
(lp2459
tp2460
a(L106L
L0L
(lp2461
(lp2462
tp2463
a(L2608681896L
L0L
(lp2464
(lp2465
tp2466
a(L256664550L
L0L
(lp2467
(lp2468
tp2469
a(L663200857L
L0L
(lp2470
(lp2471
tp2472
a(L3585090264L
L0L
(lp2473
(lp2474
tp2475
a(L3519285306L
L0L
(lp2476
(lp2477
tp2478
a(L1263158627L
L0L
(lp2479
(lp2480
tp2481
a(L131455463L
L0L
(lp2482
(lp2483
tp2484
a(L4208385735L
L0L
(lp2485
(lp2486
tp2487
a(L1305407438L
L0L
(lp2488
(lp2489
tp2490
a(L2608681896L
L0L
(lp2491
(lp2492
tp2493
a(L3027019L
L0L
(lp2494
(lp2495
tp2496
a(L2258777855L
L0L
(lp2497
(lp2498
tp2499
a(L3027007L
L0L
(lp2500
(lp2501
tp2502
a(L106L
L0L
(lp2503
(lp2504
tp2505
a(L2993202392L
L0L
(lp2506
(lp2507
tp2508
a(L3880706073L
L0L
(lp2509
(lp2510
tp2511
atp2512
sI1074239164
(Vbootloader_sha256_start
p2513
(lp2514
(L3826181771L
L0L
(lp2515
(lp2516
tp2517
atp2518
sI1074241976
(Vesp_rom_spiflash_write_status
p2519
(lp2520
(L3125060128L
L3785322319L
(lp2521
(lp2522
Vesp_rom_spiflash_wait_idle
p2523
atp2524
a(L1851036154L
L0L
(lp2525
(lp2526
tp2527
a(L1387965403L
L3785322319L
(lp2528
(lp2529
Vesp_rom_spiflash_wait_idle
p2530
atp2531
atp2532
sI1074236872
(Vbootloader_flash_read
p2533
(lp2534
(L1127605422L
L0L
(lp2535
(lp2536
tp2537
a(L2166554779L
L3785322319L
(lp2538
(lp2539
Vesp_log_early_timestamp
p2540
atp2541
a(L899934477L
L0L
(lp2542
(lp2543
tp2544
a(L1134717277L
L3785322319L
(lp2545
(lp2546
Vesp_log_early_timestamp
p2547
atp2548
a(L2696885836L
L0L
(lp2549
(lp2550
tp2551
a(L2592752681L
L3785322319L
(lp2552
(lp2553
Vesp_log_early_timestamp
p2554
atp2555
a(L3020204L
L0L
(lp2556
(lp2557
tp2558
a(L3807724270L
L3785322319L
(lp2559
(lp2560
Vbootloader_flash_read_allow_decrypt
p2561
atp2562
a(L1959236078L
L3785322319L
(lp2563
(lp2564
Vbootloader_flash_read_no_decrypt
p2565
atp2566
atp2567
sI1074271704
(Vrtc_clk_wait_for_slow_cycle
p2568
(lp2569
(L4254352037L
L0L
(lp2570
(lp2571
tp2572
a(L4166153171L
L0L
(lp2573
(lp2574
tp2575
a(L2876636092L
L0L
(lp2576
(lp2577
tp2578
a(L3360570486L
L0L
(lp2579
(lp2580
tp2581
atp2582
sI1074241236
(Vesp_partition_table_verify
p2583
(lp2584
(L1363364359L
L0L
(lp2585
(lp2586
tp2587
a(L2932359923L
L0L
(lp2588
(lp2589
tp2590
a(L2544630126L
L0L
(lp2591
(lp2592
tp2593
a(L4183706628L
L0L
(lp2594
(lp2595
tp2596
a(L106L
L0L
(lp2597
(lp2598
tp2599
a(L2579271819L
L0L
(lp2600
(lp2601
tp2602
a(L2027706054L
L3785322319L
(lp2603
(lp2604
Vesp_log_early_timestamp
p2605
atp2606
a(L3415338766L
L0L
(lp2607
(lp2608
tp2609
a(L2902417580L
L0L
(lp2610
(lp2611
tp2612
a(L2579271819L
L0L
(lp2613
(lp2614
tp2615
a(L184387788L
L3785322319L
(lp2616
(lp2617
Vesp_log_early_timestamp
p2618
atp2619
a(L4139474082L
L0L
(lp2620
(lp2621
tp2622
a(L2579271819L
L0L
(lp2623
(lp2624
tp2625
a(L1598064705L
L3785322319L
(lp2626
(lp2627
Vesp_log_early_timestamp
p2628
atp2629
a(L1610443436L
L0L
(lp2630
(lp2631
tp2632
a(L2966513628L
L0L
(lp2633
(lp2634
tp2635
a(L3720018517L
L0L
(lp2636
(lp2637
tp2638
a(L324306632L
L0L
(lp2639
(lp2640
tp2641
a(L2579271819L
L0L
(lp2642
(lp2643
tp2644
a(L4203278601L
L3785322319L
(lp2645
(lp2646
Vesp_log_early_timestamp
p2647
atp2648
a(L1799288861L
L0L
(lp2649
(lp2650
tp2651
a(L474850413L
L0L
(lp2652
(lp2653
tp2654
a(L106L
L0L
(lp2655
(lp2656
tp2657
a(L484089803L
L0L
(lp2658
(lp2659
tp2660
a(L1894667203L
L3785322319L
(lp2661
(lp2662
Vesp_log_early_timestamp
p2663
atp2664
a(L3854017309L
L0L
(lp2665
(lp2666
tp2667
a(L2966513628L
L0L
(lp2668
(lp2669
tp2670
a(L2966513628L
L0L
(lp2671
(lp2672
tp2673
atp2674
sI1074239184
(Vbootloader_sha256_data
p2675
(lp2676
(L4037466985L
L0L
(lp2677
(lp2678
tp2679
a(L1372047221L
L3785322319L
(lp2680
(lp2681
V__assert_func
p2682
atp2683
a(L2660352519L
L0L
(lp2684
(lp2685
tp2686
a(L4248374954L
L3785322319L
(lp2687
(lp2688
V__assert_func
p2689
atp2690
a(L66409669L
L0L
(lp2691
(lp2692
tp2693
a(L2465163523L
L0L
(lp2694
(lp2695
tp2696
a(L4261809293L
L0L
(lp2697
(lp2698
tp2699
a(L106L
L0L
(lp2700
(lp2701
tp2702
a(L2140477387L
L3785322319L
(lp2703
(lp2704
V__bswapsi2
p2705
atp2706
a(L3027019L
L0L
(lp2707
(lp2708
tp2709
a(L2646981432L
L0L
(lp2710
(lp2711
tp2712
a(L3028464L
L0L
(lp2713
(lp2714
tp2715
a(L2471972234L
L0L
(lp2716
(lp2717
tp2718
a(L4265744220L
L0L
(lp2719
(lp2720
tp2721
a(L3028481L
L0L
(lp2722
(lp2723
tp2724
a(L3360570486L
L0L
(lp2725
(lp2726
tp2727
atp2728
sI1074236636
(Vbootloader_mmap
p2729
(lp2730
(L585250026L
L0L
(lp2731
(lp2732
tp2733
a(L3085035208L
L3785322319L
(lp2734
(lp2735
Vesp_log_early_timestamp
p2736
atp2737
a(L695790792L
L0L
(lp2738
(lp2739
tp2740
a(L2410928249L
L3785322319L
(lp2741
(lp2742
Vesp_log_early_timestamp
p2743
atp2744
a(L2768403677L
L0L
(lp2745
(lp2746
tp2747
a(L3481203456L
L3785322319L
(lp2748
(lp2749
Vesp_log_early_timestamp
p2750
atp2751
a(L4188010861L
L0L
(lp2752
(lp2753
tp2754
atp2755
sI1074268628
(Vrtc_clk_32k_enable_internal
p2756
(lp2757
(L2685056179L
L0L
(lp2758
(lp2759
tp2760
atp2761
sI1074266856
(Vcall_start_cpu0
p2762
(lp2763
(L450714916L
L3785322319L
(lp2764
(lp2765
Vbootloader_init
p2766
atp2767
a(L993878135L
L3785322319L
(lp2768
(lp2769
Vselect_partition_number
p2770
atp2771
a(L1678595755L
L3785322319L
(lp2772
(lp2773
Vbootloader_utility_load_boot_image
p2774
atp2775
a(L3360570486L
L0L
(lp2776
(lp2777
tp2778
atp2779
sI1074270956
(Vrtc_vddsdio_get_config
p2780
(lp2781
(L2081414422L
L0L
(lp2782
(lp2783
tp2784
a(L3579256191L
L0L
(lp2785
(lp2786
tp2787
a(L2297013741L
L0L
(lp2788
(lp2789
tp2790
a(L2158433039L
L0L
(lp2791
(lp2792
tp2793
a(L2035066945L
L0L
(lp2794
(lp2795
tp2796
a(L3638226720L
L0L
(lp2797
(lp2798
tp2799
a(L3360570486L
L0L
(lp2800
(lp2801
tp2802
atp2803
sI1074234336
(Vbootloader_flash_clock_config
p2804
(lp2805
(L2664752807L
L0L
(lp2806
(lp2807
tp2808
a(L2902417580L
L0L
(lp2809
(lp2810
tp2811
a(L3020187L
L0L
(lp2812
(lp2813
tp2814
a(L3632614262L
L0L
(lp2815
(lp2816
tp2817
a(L1299866312L
L0L
(lp2818
(lp2819
tp2820
a(L1299866374L
L0L
(lp2821
(lp2822
tp2823
a(L1299866405L
L0L
(lp2824
(lp2825
tp2826
a(L1299866436L
L0L
(lp2827
(lp2828
tp2829
a(L2258688483L
L0L
(lp2830
(lp2831
tp2832
a(L1886757596L
L0L
(lp2833
(lp2834
tp2835
atp2836
sI1074236396
(Vspi_to_esp_err
p2837
(lp2838
(L4037458691L
L0L
(lp2839
(lp2840
tp2841
a(L2902417580L
L0L
(lp2842
(lp2843
tp2844
a(L3020187L
L0L
(lp2845
(lp2846
tp2847
a(L106L
L0L
(lp2848
(lp2849
tp2850
a(L2993202392L
L0L
(lp2851
(lp2852
tp2853
a(L4046574122L
L0L
(lp2854
(lp2855
tp2856
a(L515633988L
L0L
(lp2857
(lp2858
tp2859
a(L321811262L
L0L
(lp2860
(lp2861
tp2862
atp2863
sI1074242028
(Vesp_rom_spiflash_unlock
p2864
(lp2865
(L1451635868L
L1880226080L
(lp2866
(lp2867
Vesp_rom_spiflash_wait_idle
p2868
aVesp_rom_spiflash_read_statushigh
p2869
atp2870
a(L3346716875L
L3785322319L
(lp2871
(lp2872
Vesp_rom_spiflash_wait_idle
p2873
atp2874
a(L3519285306L
L0L
(lp2875
(lp2876
tp2877
a(L1696910641L
L1880226080L
(lp2878
(lp2879
Vesp_rom_spiflash_wait_idle
p2880
aVesp_rom_spiflash_write_status
p2881
atp2882
a(L3880706073L
L0L
(lp2883
(lp2884
tp2885
a(L2258688483L
L0L
(lp2886
(lp2887
tp2888
a(L3360570486L
L0L
(lp2889
(lp2890
tp2891
atp2892
sI1074238196
(Vunpack_load_app
p2893
(lp2894
(L1842422795L
L0L
(lp2895
(lp2896
tp2897
a(L3315279832L
L0L
(lp2898
(lp2899
tp2900
a(L2902417580L
L0L
(lp2901
(lp2902
tp2903
a(L2320474562L
L3785322319L
(lp2904
(lp2905
Vesp_log_early_timestamp
p2906
atp2907
a(L3411822821L
L0L
(lp2908
(lp2909
tp2910
a(L3694708920L
L0L
(lp2911
(lp2912
tp2913
a(L2902417580L
L0L
(lp2914
(lp2915
tp2916
a(L2074161475L
L3785322319L
(lp2917
(lp2918
Vesp_log_early_timestamp
p2919
atp2920
a(L87648306L
L0L
(lp2921
(lp2922
tp2923
a(L1799288861L
L0L
(lp2924
(lp2925
tp2926
a(L350965691L
L0L
(lp2927
(lp2928
tp2929
a(L106L
L0L
(lp2930
(lp2931
tp2932
a(L1717315991L
L3785322319L
(lp2933
(lp2934
Vset_cache_and_start_app
p2935
atp2936
atp2937
sI1074239732
(Vverify_checksum
p2938
(lp2939
(L7413395L
L3785322319L
(lp2940
(lp2941
Vbootloader_flash_read
p2942
atp2943
a(L25749169L
L3785322319L
(lp2944
(lp2945
Vesp_log_early_timestamp
p2946
atp2947
a(L3020204L
L0L
(lp2948
(lp2949
tp2950
a(L2547710365L
L3785322319L
(lp2951
(lp2952
Vbootloader_sha256_data
p2953
atp2954
a(L4124473353L
L0L
(lp2955
(lp2956
tp2957
a(L1223427414L
L0L
(lp2958
(lp2959
tp2960
a(L755040691L
L0L
(lp2961
(lp2962
tp2963
atp2964
sI1074271216
(Vrtc_vddsdio_set_config
p2965
(lp2966
(L3289400860L
L0L
(lp2967
(lp2968
tp2969
atp2970
sI1074235384
(Vesp_cpu_reset
p2971
(lp2972
(L4062265178L
L0L
(lp2973
(lp2974
tp2975
a(L1841554295L
L0L
(lp2976
(lp2977
tp2978
a(L1306330932L
L0L
(lp2979
(lp2980
tp2981
a(L81897939L
L0L
(lp2982
(lp2983
tp2984
atp2985
sI1074236152
(Vbootloader_common_ota_select_crc
p2986
(lp2987
(L187898525L
L0L
(lp2988
(lp2989
tp2990
atp2991
sI1074237944
(Vtry_load_partition
p2992
(lp2993
(L924710730L
L0L
(lp2994
(lp2995
tp2996
a(L1414743230L
L3785322319L
(lp2997
(lp2998
Vesp_image_load
p2999
atp3000
a(L3880706073L
L0L
(lp3001
(lp3002
tp3003
a(L2993202392L
L0L
(lp3004
(lp3005
tp3006
a(L2993202392L
L0L
(lp3007
(lp3008
tp3009
atp3010
ssS'functionsdups'
p3011
g11
((lp3012
tp3013
Rp3014
sS'immediatedups'
p3015
g11
((lp3016
tp3017
Rp3018
sS'functiondups'
p3019
g11
((lp3020
tp3021
Rp3022
sS'fuzzy'
p3023
(dp3024
L3137762375L
I1074236292
sL4061702297L
I1074241660
sL1121770457L
I1074240328
sL578413630L
I1074239872
sL533883930L
I1074267296
sL433784338L
I1074266956
sL1083976790L
I1074238876
sL381930313L
I1074239732
sL3481520713L
I1074242028
sL1695456453L
I1074267564
sL750476080L
I1074270568
sL1058358745L
I1074271288
sL3495415001L
I1074239348
sL4160102055L
I1074267716
sL2923369897L
I1074240260
sL545460565L
I1074266856
sL1020878798L
I1074240636
sL312818747L
I1074237856
sL1622145584L
I1074235508
sL4270185191L
I1074269356
sL2705984041L
I1074241712
sL1420005888L
I1074268824
sL114144873L
I1074266780
sL3380377753L
I1074242136
sL936080620L
I1074238592
sL138378967L
I1074236636
sL3110146889L
I1074238196
sL874365493L
I1074238384
sL1991897232L
I1074241976
sL2475522855L
I1074234204
sL2262558768L
I1074239092
sL3128965227L
I1074239616
sL1178348887L
I1074268488
sL3706231047L
I1074239184
sL2587589066L
I1074270100
sL1766137975L
I1074268760
sL2723847017L
I1074236872
sL4155364446L
I1074267188
sL275633497L
I1074267748
sL3375802432L
I1074269856
sL3619350029L
I1074240004
sL1016692206L
I1074269040
sL59547383L
I1074236432
sL846681611L
I1074240168
sL3965284519L
I1074241236
sL122671152L
I1074234980
ssb.