ccopy_reg
_reconstructor
p0
(crizzo
RizzoSignature
p1
c__builtin__
object
p2
Ntp3
Rp4
(dp5
S'formal'
p6
(dp7
L3079912087L
I1074237996
sL1113395291L
I1074270196
sL1787488902L
I1074239944
sL2462638298L
I1074236536
sL4129277452L
I1074240380
sL2041884577L
I1074236272
sL2213975777L
I1074269024
sL685397186L
I1074267032
sL2846778038L
I1074267564
sL1701687664L
I1074268444
sL4112673032L
I1074238356
sL434438094L
I1074271684
sL2852169263L
I1074269676
sL2627623086L
I1074235400
sL331227534L
I1074267888
sL1605731201L
I1074241092
sL3750656440L
I1074269380
sL3025272939L
I1074239540
sL2670780426L
I1074268884
sL2626891944L
I1074272264
sL3729918062L
I1074238564
sL1904560840L
I1074272068
sL3160623405L
I1074242116
sL3140235362L
I1074242432
sL2418428789L
I1074235568
sL2136341262L
I1074234508
sL3938845594L
I1074235080
sL1828678050L
I1074239992
sL366334390L
I1074236724
sL3543493969L
I1074241692
sL3702197710L
I1074239468
sL2381765779L
I1074242396
sL596248551L
I1074236304
sL4114046810L
I1074267264
sL686046603L
I1074269604
sL4291867839L
I1074271352
sL2076099278L
I1074240108
sL2830250178L
I1074267620
sL3317637071L
I1074267784
sL1635526159L
I1074270388
sL2817618053L
I1074268844
sL1512595805L
I1074272100
sL1585336584L
I1074272224
sL2393279697L
I1074269752
sL1988352767L
I1074272256
sL3862076493L
I1074270252
sL3592570278L
I1074270476
sL2503475903L
I1074238532
sL2212039774L
I1074266872
sL3432000535L
I1074270456
sL1762227840L
I1074269692
sL2912196383L
I1074236776
sL2648287817L
I1074235484
sL1144451237L
I1074269436
sL3290528950L
I1074240704
sL2861432087L
I1074237712
sL3994032012L
I1074239724
sL1441879660L
I1074270920
sL183695447L
I1074235520
sL1547863780L
I1074266948
sL3753811225L
I1074268112
sL859810711L
I1074266992
sL2947211777L
I1074269156
sL3249086212L
I1074242016
sL1738444593L
I1074269220
sL1131153630L
I1074236572
sL3797137889L
I1074242592
sL3464161986L
I1074240248
sL3398121778L
I1074269736
sL2169566447L
I1074238924
sL1101573911L
I1074239252
sL407978386L
I1074239560
sL1779898580L
I1074267512
sL2402411765L
I1074234436
sL1396453881L
I1074235608
sL3947472524L
I1074242484
sL1518211769L
I1074238084
sL2631638033L
I1074240544
sL2472051858L
I1074266900
sL4210321726L
I1074271612
sL190057869L
I1074268144
sL772217564L
I1074242168
sL1452694088L
I1074234324
sL2804501195L
I1074235536
sL927311523L
I1074238136
sL3684759366L
I1074270964
sL3829928111L
I1074237148
sL300992792L
I1074240636
sL1828369172L
I1074236956
sL3667831665L
I1074236252
sL1005456159L
I1074237240
sL3108781240L
I1074236392
sL3130205543L
I1074269408
sL4258801710L
I1074235252
sL240369573L
I1074234304
sL3598342533L
I1074237012
sL2560342116L
I1074270496
ssS'immediates'
p8
(dp9
sS'formaldups'
p10
c__builtin__
set
p11
((lp12
tp13
Rp14
sS'stringdups'
p15
g11
((lp16
tp17
Rp18
sS'fuzzydups'
p19
g11
((lp20
tp21
Rp22
sS'strings'
p23
(dp24
sS'functions'
p25
(dp26
I1074272264
(Vclk_val_to_reg_val
p27
(lp28
(L2997976715L
L0L
(lp29
(lp30
tp31
atp32
sI1074270476
(Vrtc_clk_apb_freq_update
p33
(lp34
(L2579067431L
L3785322319L
(lp35
(lp36
Vclk_val_to_reg_val
p37
atp38
atp39
sI1074272256
(Vreg_val_to_clk_val
p40
(lp41
(L2577655222L
L0L
(lp42
(lp43
tp44
atp45
sI1074235400
(Vesp_cpu_unstall
p46
(lp47
(L4037466968L
L0L
(lp48
(lp49
tp50
a(L3667099036L
L0L
(lp51
(lp52
tp53
a(L2663459689L
L0L
(lp54
(lp55
tp56
atp57
sI1074239252
(Vbootloader_utility_load_boot_image
p58
(lp59
(L876424708L
L0L
(lp60
(lp61
tp62
a(L534474525L
L3785322319L
(lp63
(lp64
Vtry_load_partition
p65
atp66
a(L1346171890L
L3785322319L
(lp67
(lp68
Vload_image
p69
atp70
a(L943450846L
L3785322319L
(lp71
(lp72
Vesp_log_early_timestamp
p73
atp74
a(L857253909L
L3785322319L
(lp75
(lp76
Vindex_to_partition
p77
atp78
a(L1255570883L
L3785322319L
(lp79
(lp80
Vtry_load_partition
p81
atp82
a(L1346171890L
L3785322319L
(lp83
(lp84
Vload_image
p85
atp86
a(L1391131227L
L3785322319L
(lp87
(lp88
Vlog_invalid_app_partition
p89
atp90
a(L11368960L
L0L
(lp91
(lp92
tp93
a(L3802068281L
L0L
(lp94
(lp95
tp96
a(L3021737L
L0L
(lp97
(lp98
tp99
a(L4238347245L
L0L
(lp100
(lp101
tp102
a(L549621336L
L3785322319L
(lp103
(lp104
Vindex_to_partition
p105
atp106
a(L1255570883L
L3785322319L
(lp107
(lp108
Vtry_load_partition
p109
atp110
a(L1346171890L
L3785322319L
(lp111
(lp112
Vload_image
p113
atp114
a(L2162300612L
L3785322319L
(lp115
(lp116
Vlog_invalid_app_partition
p117
atp118
a(L3307283485L
L0L
(lp119
(lp120
tp121
a(L1508906068L
L0L
(lp122
(lp123
tp124
a(L2528911837L
L3785322319L
(lp125
(lp126
Vtry_load_partition
p127
atp128
a(L4096064831L
L1880226080L
(lp129
(lp130
Vesp_log_early_timestamp
p131
aVload_image
p132
atp133
a(L2274437446L
L3785322319L
(lp134
(lp135
Vesp_log_early_timestamp
p136
atp137
atp138
sI1074268444
(Vexecute_flash_command
p139
(lp140
(L3830293427L
L0L
(lp141
(lp142
tp143
a(L699663187L
L0L
(lp144
(lp145
tp146
a(L2258867228L
L0L
(lp147
(lp148
tp149
a(L84051986L
L0L
(lp150
(lp151
tp152
a(L1647106262L
L0L
(lp153
(lp154
tp155
a(L2258748064L
L0L
(lp156
(lp157
tp158
a(L3773397805L
L0L
(lp159
(lp160
tp161
a(L2902417580L
L0L
(lp162
(lp163
tp164
a(L729035350L
L0L
(lp165
(lp166
tp167
a(L2912715081L
L0L
(lp168
(lp169
tp170
a(L2742672456L
L0L
(lp171
(lp172
tp173
a(L4243008412L
L0L
(lp174
(lp175
tp176
a(L1862341853L
L0L
(lp177
(lp178
tp179
atp180
sI1074237712
(Vbootloader_random_disable
p181
(lp182
(L88611162L
L0L
(lp183
(lp184
tp185
atp186
sI1074236956
(Vbootloader_munmap
p187
(lp188
(L923208803L
L0L
(lp189
(lp190
tp191
a(L1760436563L
L0L
(lp192
(lp193
tp194
a(L3360570486L
L0L
(lp195
(lp196
tp197
atp198
sI1074266900
(Vselect_partition_number
p199
(lp200
(L1731214134L
L3785322319L
(lp201
(lp202
Vbootloader_utility_load_partition_table
p203
atp204
a(L2248388216L
L3785322319L
(lp205
(lp206
Vesp_log_early_timestamp
p207
atp208
a(L880231726L
L3785322319L
(lp209
(lp210
Vselected_boot_partition
p211
atp212
atp213
sI1074269736
(Vrtc_clk_fast_freq_get
p214
(lp215
(L2639002703L
L0L
(lp216
(lp217
tp218
atp219
sI1074270252
(Vrtc_clk_cpu_freq_get
p220
(lp221
(L3169217066L
L0L
(lp222
(lp223
tp224
a(L3020187L
L0L
(lp225
(lp226
tp227
a(L106L
L0L
(lp228
(lp229
tp230
a(L40209030L
L0L
(lp231
(lp232
tp233
a(L160790007L
L3785322319L
(lp234
(lp235
Vrtc_clk_xtal_freq_get
p236
atp237
a(L1383901648L
L3785322319L
(lp238
(lp239
V__assert_func
p240
atp241
a(L4160639220L
L0L
(lp242
(lp243
tp244
a(L3020187L
L0L
(lp245
(lp246
tp247
a(L3020187L
L0L
(lp248
(lp249
tp250
a(L1877568748L
L3785322319L
(lp251
(lp252
V__assert_func
p253
atp254
a(L2000985523L
L3785322319L
(lp255
(lp256
V__assert_func
p257
atp258
a(L2993202392L
L0L
(lp259
(lp260
tp261
a(L2248249820L
L0L
(lp262
(lp263
tp264
a(L3880706073L
L0L
(lp265
(lp266
tp267
a(L473242458L
L0L
(lp268
(lp269
tp270
a(L1360746139L
L0L
(lp271
(lp272
tp273
atp274
sI1074240544
(Vverify_simple_hash
p275
(lp276
(L3081406685L
L1880226080L
(lp277
(lp278
Vbootloader_sha256_finish
p279
aVbootloader_mmap
p280
atp281
a(L1809397935L
L1880226080L
(lp282
(lp283
Vesp_log_early_timestamp
p284
aVbootloader_munmap
p285
atp286
a(L1606099250L
L3785322319L
(lp287
(lp288
Vbootloader_munmap
p289
atp290
atp291
sI1074242592
(Vesp_rom_spiflash_read
p292
(lp293
(L1472268991L
L0L
(lp294
(lp295
tp296
a(L3497763259L
L0L
(lp297
(lp298
tp299
a(L3017366L
L0L
(lp300
(lp301
tp302
a(L106L
L0L
(lp303
(lp304
tp305
a(L1969540837L
L0L
(lp306
(lp307
tp308
a(L106L
L0L
(lp309
(lp310
tp311
a(L979377122L
L0L
(lp312
(lp313
tp314
a(L1940360276L
L0L
(lp315
(lp316
tp317
a(L3102640467L
L0L
(lp318
(lp319
tp320
a(L3016870L
L0L
(lp321
(lp322
tp323
a(L2672803863L
L0L
(lp324
(lp325
tp326
a(L3016870L
L0L
(lp327
(lp328
tp329
a(L2522924291L
L0L
(lp330
(lp331
tp332
a(L4044805315L
L0L
(lp333
(lp334
tp335
a(L4219310552L
L0L
(lp336
(lp337
tp338
a(L2920114249L
L0L
(lp339
(lp340
tp341
a(L717920835L
L0L
(lp342
(lp343
tp344
a(L3911891461L
L0L
(lp345
(lp346
tp347
a(L740830896L
L0L
(lp348
(lp349
tp350
a(L2182791727L
L3785322319L
(lp351
(lp352
Vesp_rom_spiflash_read_data
p353
atp354
a(L1298875774L
L0L
(lp355
(lp356
tp357
a(L735741265L
L0L
(lp358
(lp359
tp360
atp361
sI1074270496
(Vrtc_clk_cpu_freq_set
p362
(lp363
(L3197204813L
L1832448559L
(lp364
(lp365
Vrtc_clk_xtal_freq_get
p366
aVrtc_clk_wait_for_slow_cycle
p367
aVrtc_clk_apb_freq_update
p368
atp369
a(L3771028084L
L0L
(lp370
(lp371
tp372
a(L3020204L
L0L
(lp373
(lp374
tp375
a(L3028464L
L0L
(lp376
(lp377
tp378
a(L3529614118L
L3785322319L
(lp379
(lp380
Vrtc_clk_apb_freq_update
p381
atp382
a(L386261407L
L3785322319L
(lp383
(lp384
Vrtc_clk_bbpll_set
p385
atp386
a(L319120196L
L0L
(lp387
(lp388
tp389
a(L3028464L
L0L
(lp390
(lp391
tp392
a(L293126640L
L0L
(lp393
(lp394
tp395
a(L3028464L
L0L
(lp396
(lp397
tp398
a(L4224091166L
L0L
(lp399
(lp400
tp401
a(L2873658838L
L1880226080L
(lp402
(lp403
Vrtc_clk_wait_for_slow_cycle
p404
aVrtc_clk_apb_freq_update
p405
atp406
a(L3749945716L
L0L
(lp407
(lp408
tp409
atp410
sI1074237996
(Vlog_invalid_app_partition
p411
(lp412
(L3991230301L
L0L
(lp413
(lp414
tp415
a(L3028464L
L0L
(lp416
(lp417
tp418
a(L758623513L
L3785322319L
(lp419
(lp420
Vesp_log_early_timestamp
p421
atp422
a(L4259631325L
L3785322319L
(lp423
(lp424
Vesp_log_early_timestamp
p425
atp426
a(L3886685984L
L3785322319L
(lp427
(lp428
Vesp_log_early_timestamp
p429
atp430
atp431
sI1074269220
(Vrtc_clk_8m_enable
p432
(lp433
(L1474360438L
L0L
(lp434
(lp435
tp436
a(L1288179768L
L0L
(lp437
(lp438
tp439
a(L3532901192L
L0L
(lp440
(lp441
tp442
a(L2228288296L
L0L
(lp443
(lp444
tp445
a(L1935329417L
L0L
(lp446
(lp447
tp448
a(L1007817811L
L0L
(lp449
(lp450
tp451
atp452
sI1074269752
(Vrtc_clk_bbpll_set
p453
(lp454
(L3019240667L
L0L
(lp455
(lp456
tp457
a(L106L
L0L
(lp458
(lp459
tp460
a(L167036952L
L0L
(lp461
(lp462
tp463
a(L2635425305L
L0L
(lp464
(lp465
tp466
a(L2634502051L
L0L
(lp467
(lp468
tp469
a(L106L
L0L
(lp470
(lp471
tp472
a(L3145948254L
L0L
(lp473
(lp474
tp475
a(L21216729L
L0L
(lp476
(lp477
tp478
a(L2377105039L
L0L
(lp479
(lp480
tp481
a(L1940347058L
L0L
(lp482
(lp483
tp484
a(L1559084364L
L0L
(lp485
(lp486
tp487
a(L1337384039L
L0L
(lp488
(lp489
tp490
a(L2635425305L
L0L
(lp491
(lp492
tp493
a(L2634502051L
L0L
(lp494
(lp495
tp496
a(L106L
L0L
(lp497
(lp498
tp499
a(L1566659442L
L0L
(lp500
(lp501
tp502
a(L790959749L
L0L
(lp503
(lp504
tp505
a(L2377105039L
L0L
(lp506
(lp507
tp508
a(L1965177478L
L0L
(lp509
(lp510
tp511
a(L1705942348L
L0L
(lp512
(lp513
tp514
a(L2237191433L
L3785322319L
(lp515
(lp516
Vrtc_clk_slow_freq_get
p517
atp518
a(L2679108412L
L0L
(lp519
(lp520
tp521
a(L2780081410L
L0L
(lp522
(lp523
tp524
a(L4071849175L
L0L
(lp525
(lp526
tp527
atp528
sI1074239540
(Vbootloader_sha256_start
p529
(lp530
(L470323376L
L0L
(lp531
(lp532
tp533
atp534
sI1074236724
(Vbootloader_flash_read_no_decrypt
p535
(lp536
(L998640990L
L1880226080L
(lp537
(lp538
Vesp_rom_spiflash_read
p539
aVspi_to_esp_err
p540
atp541
atp542
sI1074237240
(Vbootloader_random_enable
p543
(lp544
(L2424614312L
L0L
(lp545
(lp546
tp547
atp548
sI1074234436
(Vbootloader_flash_clock_config
p549
(lp550
(L2664752807L
L0L
(lp551
(lp552
tp553
a(L2902417580L
L0L
(lp554
(lp555
tp556
a(L3020187L
L0L
(lp557
(lp558
tp559
a(L3632614262L
L0L
(lp560
(lp561
tp562
a(L1299866312L
L0L
(lp563
(lp564
tp565
a(L1299866374L
L0L
(lp566
(lp567
tp568
a(L1299866405L
L0L
(lp569
(lp570
tp571
a(L1299866436L
L0L
(lp572
(lp573
tp574
a(L2258688483L
L0L
(lp575
(lp576
tp577
a(L1886757596L
L0L
(lp578
(lp579
tp580
atp581
sI1074238532
(Vload_image
p582
(lp583
(L1992314433L
L1832448559L
(lp584
(lp585
Vesp_log_early_timestamp
p586
aVbootloader_random_disable
p587
aVunpack_load_app
p588
atp589
atp590
sI1074241092
(Vesp_image_load
p591
(lp592
(L2340434831L
L0L
(lp593
(lp594
tp595
a(L106L
L0L
(lp596
(lp597
tp598
a(L3826065298L
L0L
(lp599
(lp600
tp601
a(L3028464L
L0L
(lp602
(lp603
tp604
a(L106L
L0L
(lp605
(lp606
tp607
a(L1937628629L
L3785322319L
(lp608
(lp609
Vesp_log_early_timestamp
p610
atp611
a(L732698571L
L3785322319L
(lp612
(lp613
Vbootloader_flash_read
p614
atp615
a(L2950861325L
L0L
(lp616
(lp617
tp618
a(L2568992188L
L3785322319L
(lp619
(lp620
Vbootloader_sha256_start
p621
atp622
a(L4173212049L
L3785322319L
(lp623
(lp624
Vbootloader_sha256_data
p625
atp626
a(L2258837437L
L0L
(lp627
(lp628
tp629
a(L846347405L
L3785322319L
(lp630
(lp631
Vverify_image_header
p632
atp633
a(L1980404654L
L0L
(lp634
(lp635
tp636
a(L3028464L
L0L
(lp637
(lp638
tp639
a(L106L
L0L
(lp640
(lp641
tp642
a(L2749497601L
L3785322319L
(lp643
(lp644
Vesp_log_early_timestamp
p645
atp646
a(L2671916466L
L0L
(lp647
(lp648
tp649
a(L1898485626L
L3785322319L
(lp650
(lp651
Vprocess_segment
p652
atp653
a(L3878353414L
L0L
(lp654
(lp655
tp656
a(L2125973223L
L0L
(lp657
(lp658
tp659
a(L499151239L
L0L
(lp660
(lp661
tp662
a(L3028464L
L0L
(lp663
(lp664
tp665
a(L106L
L0L
(lp666
(lp667
tp668
a(L3039061588L
L3785322319L
(lp669
(lp670
Vesp_log_early_timestamp
p671
atp672
a(L4041426534L
L3785322319L
(lp673
(lp674
Vesp_cpu_in_ocd_debug_mode
p675
atp676
a(L1482013975L
L3785322319L
(lp677
(lp678
Vverify_checksum
p679
atp680
a(L279608302L
L0L
(lp681
(lp682
tp683
a(L3028464L
L0L
(lp684
(lp685
tp686
a(L106L
L0L
(lp687
(lp688
tp689
a(L2688280487L
L3785322319L
(lp690
(lp691
Vesp_log_early_timestamp
p692
atp693
a(L2073780613L
L0L
(lp694
(lp695
tp696
a(L3020204L
L0L
(lp697
(lp698
tp699
a(L3287840219L
L3785322319L
(lp700
(lp701
Vesp_cpu_in_ocd_debug_mode
p702
atp703
a(L3045806043L
L3785322319L
(lp704
(lp705
Vverify_simple_hash
p706
atp707
a(L3020204L
L0L
(lp708
(lp709
tp710
a(L3688659868L
L3785322319L
(lp711
(lp712
Vbootloader_sha256_finish
p713
atp714
a(L3028481L
L0L
(lp715
(lp716
tp717
a(L3020187L
L0L
(lp718
(lp719
tp720
a(L2993202392L
L0L
(lp721
(lp722
tp723
a(L3965661703L
L3785322319L
(lp724
(lp725
Vshould_load
p726
atp727
a(L745073924L
L0L
(lp728
(lp729
tp730
a(L715598799L
L0L
(lp731
(lp732
tp733
a(L530985478L
L0L
(lp734
(lp735
tp736
a(L3896453864L
L0L
(lp737
(lp738
tp739
a(L560171818L
L0L
(lp740
(lp741
tp742
a(L1191274096L
L0L
(lp743
(lp744
tp745
a(L1720234353L
L0L
(lp746
(lp747
tp748
a(L2258777855L
L0L
(lp749
(lp750
tp751
a(L85798113L
L0L
(lp752
(lp753
tp754
a(L2993202392L
L0L
(lp755
(lp756
tp757
a(L3151898214L
L0L
(lp758
(lp759
tp760
a(L1304483917L
L0L
(lp761
(lp762
tp763
a(L2258837437L
L0L
(lp764
(lp765
tp766
a(L2910371777L
L0L
(lp767
(lp768
tp769
a(L2104868612L
L0L
(lp770
(lp771
tp772
a(L3020204L
L0L
(lp773
(lp774
tp775
a(L3688659868L
L3785322319L
(lp776
(lp777
Vbootloader_sha256_finish
p778
atp779
a(L3865885450L
L0L
(lp780
(lp781
tp782
a(L2079009947L
L0L
(lp783
(lp784
tp785
a(L1191506266L
L0L
(lp786
(lp787
tp788
atp789
sI1074242116
(Vesp_rom_spiflash_wait_idle
p790
(lp791
(L287326052L
L0L
(lp792
(lp793
tp794
a(L931676539L
L0L
(lp795
(lp796
tp797
a(L3538632831L
L0L
(lp798
(lp799
tp800
a(L855829385L
L3785322319L
(lp801
(lp802
Vesp_rom_spiflash_read_status
p803
atp804
a(L1298875774L
L0L
(lp805
(lp806
tp807
a(L735741265L
L0L
(lp808
(lp809
tp810
atp811
sI1074266948
(Vcall_start_cpu0
p812
(lp813
(L450714916L
L3785322319L
(lp814
(lp815
Vbootloader_init
p816
atp817
a(L993878135L
L3785322319L
(lp818
(lp819
Vselect_partition_number
p820
atp821
a(L1678595755L
L3785322319L
(lp822
(lp823
Vbootloader_utility_load_boot_image
p824
atp825
a(L3360570486L
L0L
(lp826
(lp827
tp828
atp829
sI1074272068
(Vrtc_clk_cal_ratio
p830
(lp831
(L1747571394L
L1880226080L
(lp832
(lp833
Vrtc_clk_cal_internal
p834
aV__udivdi3
p835
atp836
atp837
sI1074239560
(Vbootloader_sha256_data
p838
(lp839
(L4037466985L
L0L
(lp840
(lp841
tp842
a(L240250942L
L3785322319L
(lp843
(lp844
V__assert_func
p845
atp846
a(L2660352519L
L0L
(lp847
(lp848
tp849
a(L2067064370L
L3785322319L
(lp850
(lp851
V__assert_func
p852
atp853
a(L66409669L
L0L
(lp854
(lp855
tp856
a(L1330297092L
L0L
(lp857
(lp858
tp859
a(L4002117222L
L0L
(lp860
(lp861
tp862
a(L106L
L0L
(lp863
(lp864
tp865
a(L3380650090L
L3785322319L
(lp866
(lp867
V__bswapsi2
p868
atp869
a(L3027019L
L0L
(lp870
(lp871
tp872
a(L1042953431L
L0L
(lp873
(lp874
tp875
a(L3028464L
L0L
(lp876
(lp877
tp878
a(L1344930921L
L0L
(lp879
(lp880
tp881
a(L118946646L
L0L
(lp882
(lp883
tp884
a(L3028481L
L0L
(lp885
(lp886
tp887
a(L3360570486L
L0L
(lp888
(lp889
tp890
atp891
sI1074237012
(Vbootloader_flash_read
p892
(lp893
(L1127605422L
L0L
(lp894
(lp895
tp896
a(L246108228L
L3785322319L
(lp897
(lp898
Vesp_log_early_timestamp
p899
atp900
a(L899934477L
L0L
(lp901
(lp902
tp903
a(L3509238022L
L3785322319L
(lp904
(lp905
Vesp_log_early_timestamp
p906
atp907
a(L2696885836L
L0L
(lp908
(lp909
tp910
a(L3148613291L
L3785322319L
(lp911
(lp912
Vesp_log_early_timestamp
p913
atp914
a(L3020204L
L0L
(lp915
(lp916
tp917
a(L3807724270L
L3785322319L
(lp918
(lp919
Vbootloader_flash_read_allow_decrypt
p920
atp921
a(L1959236078L
L3785322319L
(lp922
(lp923
Vbootloader_flash_read_no_decrypt
p924
atp925
atp926
sI1074236252
(Vbootloader_common_ota_select_crc
p927
(lp928
(L187898525L
L0L
(lp929
(lp930
tp931
atp932
sI1074235484
(Vesp_cpu_reset
p933
(lp934
(L4062265178L
L0L
(lp935
(lp936
tp937
a(L1841554295L
L0L
(lp938
(lp939
tp940
a(L1306330932L
L0L
(lp941
(lp942
tp943
a(L81897939L
L0L
(lp944
(lp945
tp946
atp947
sI1074242396
(Vesp_rom_spiflash_read_statushigh
p948
(lp949
(L3683309661L
L3785322319L
(lp950
(lp951
Vesp_rom_spiflash_wait_idle
p952
atp953
atp954
sI1074238564
(Vbootloader_utility_load_partition_table
p955
(lp956
(L2451909707L
L3785322319L
(lp957
(lp958
Vbootloader_mmap
p959
atp960
a(L301208627L
L3785322319L
(lp961
(lp962
Vesp_log_early_timestamp
p963
atp964
a(L3715067384L
L3785322319L
(lp965
(lp966
Vesp_partition_table_verify
p967
atp968
a(L890037357L
L3785322319L
(lp969
(lp970
Vesp_log_early_timestamp
p971
atp972
a(L745968620L
L1880226080L
(lp973
(lp974
Vesp_log_early_timestamp
p975
aVesp_log_early_timestamp
p976
atp977
a(L1941612774L
L0L
(lp978
(lp979
tp980
a(L3020187L
L0L
(lp981
(lp982
tp983
a(L106L
L0L
(lp984
(lp985
tp986
a(L3732412336L
L0L
(lp987
(lp988
tp989
a(L3020187L
L0L
(lp990
(lp991
tp992
a(L106L
L0L
(lp993
(lp994
tp995
a(L58576216L
L0L
(lp996
(lp997
tp998
a(L997266889L
L0L
(lp999
(lp1000
tp1001
a(L2893469516L
L0L
(lp1002
(lp1003
tp1004
a(L495343646L
L0L
(lp1005
(lp1006
tp1007
a(L129023391L
L0L
(lp1008
(lp1009
tp1010
a(L2902417580L
L0L
(lp1011
(lp1012
tp1013
a(L3020187L
L0L
(lp1014
(lp1015
tp1016
a(L3020187L
L0L
(lp1017
(lp1018
tp1019
a(L106L
L0L
(lp1020
(lp1021
tp1022
a(L826393985L
L0L
(lp1023
(lp1024
tp1025
a(L1164902770L
L0L
(lp1026
(lp1027
tp1028
a(L826370549L
L0L
(lp1029
(lp1030
tp1031
a(L826371882L
L0L
(lp1032
(lp1033
tp1034
a(L826372223L
L0L
(lp1035
(lp1036
tp1037
a(L826371386L
L0L
(lp1038
(lp1039
tp1040
a(L2104867089L
L0L
(lp1041
(lp1042
tp1043
a(L3869253584L
L3785322319L
(lp1044
(lp1045
Vesp_log_early_timestamp
p1046
atp1047
a(L846653465L
L0L
(lp1048
(lp1049
tp1050
a(L106L
L0L
(lp1051
(lp1052
tp1053
a(L1875490037L
L1880226080L
(lp1054
(lp1055
Vbootloader_munmap
p1056
aVesp_log_early_timestamp
p1057
atp1058
atp1059
sI1074269024
(Vrtc_clk_32k_enable_internal
p1060
(lp1061
(L3701968579L
L0L
(lp1062
(lp1063
tp1064
atp1065
sI1074240108
(Vverify_checksum
p1066
(lp1067
(L7413395L
L3785322319L
(lp1068
(lp1069
Vbootloader_flash_read
p1070
atp1071
a(L3813436387L
L3785322319L
(lp1072
(lp1073
Vesp_log_early_timestamp
p1074
atp1075
a(L3020204L
L0L
(lp1076
(lp1077
tp1078
a(L2547710365L
L3785322319L
(lp1079
(lp1080
Vbootloader_sha256_data
p1081
atp1082
a(L4124473353L
L0L
(lp1083
(lp1084
tp1085
a(L1223427414L
L0L
(lp1086
(lp1087
tp1088
a(L755040691L
L0L
(lp1089
(lp1090
tp1091
atp1092
sI1074272100
(Vrtc_clk_wait_for_slow_cycle
p1093
(lp1094
(L942251843L
L0L
(lp1095
(lp1096
tp1097
a(L735334431L
L0L
(lp1098
(lp1099
tp1100
a(L498570100L
L0L
(lp1101
(lp1102
tp1103
a(L3360570486L
L0L
(lp1104
(lp1105
tp1106
atp1107
sI1074236776
(Vbootloader_mmap
p1108
(lp1109
(L3729067567L
L0L
(lp1110
(lp1111
tp1112
a(L1619915974L
L3785322319L
(lp1113
(lp1114
Vesp_log_early_timestamp
p1115
atp1116
a(L742890363L
L0L
(lp1117
(lp1118
tp1119
a(L1489085272L
L3785322319L
(lp1120
(lp1121
Vesp_log_early_timestamp
p1122
atp1123
a(L828582791L
L0L
(lp1124
(lp1125
tp1126
a(L4116055740L
L3785322319L
(lp1127
(lp1128
Vesp_log_early_timestamp
p1129
atp1130
a(L3087201601L
L0L
(lp1131
(lp1132
tp1133
atp1134
sI1074267512
(Vvddsdio_configure
p1135
(lp1136
(L1829974089L
L3785322319L
(lp1137
(lp1138
Vrtc_vddsdio_get_config
p1139
atp1140
a(L3963021988L
L3785322319L
(lp1141
(lp1142
Vrtc_vddsdio_set_config
p1143
atp1144
a(L3360570486L
L0L
(lp1145
(lp1146
tp1147
atp1148
sI1074271352
(Vrtc_vddsdio_get_config
p1149
(lp1150
(L3223184585L
L0L
(lp1151
(lp1152
tp1153
a(L2772567239L
L0L
(lp1154
(lp1155
tp1156
a(L370420422L
L0L
(lp1157
(lp1158
tp1159
a(L3271192098L
L0L
(lp1160
(lp1161
tp1162
a(L4222005288L
L0L
(lp1163
(lp1164
tp1165
a(L1572542951L
L0L
(lp1166
(lp1167
tp1168
a(L3360570486L
L0L
(lp1169
(lp1170
tp1171
atp1172
sI1074235252
(Vesp_cpu_stall
p1173
(lp1174
(L4037466968L
L0L
(lp1175
(lp1176
tp1177
a(L1343004674L
L0L
(lp1178
(lp1179
tp1180
a(L3348188466L
L0L
(lp1181
(lp1182
tp1183
atp1184
sI1074271612
(Vrtc_vddsdio_set_config
p1185
(lp1186
(L4101716837L
L0L
(lp1187
(lp1188
tp1189
atp1190
sI1074236272
(Vbootloader_common_ota_select_valid
p1191
(lp1192
(L2808438197L
L0L
(lp1193
(lp1194
tp1195
a(L3881267543L
L3785322319L
(lp1196
(lp1197
Vbootloader_common_ota_select_crc
p1198
atp1199
a(L3880706073L
L0L
(lp1200
(lp1201
tp1202
a(L2993202392L
L0L
(lp1203
(lp1204
tp1205
a(L2993202392L
L0L
(lp1206
(lp1207
tp1208
atp1209
sI1074266992
(Vwdt_reset_cpu0_info_enable
p1210
(lp1211
(L2686005082L
L0L
(lp1212
(lp1213
tp1214
atp1215
sI1074240380
(Vprocess_segment_data
p1216
(lp1217
(L3236683529L
L3785322319L
(lp1218
(lp1219
Vbootloader_mmap
p1220
atp1221
a(L2620753940L
L3785322319L
(lp1222
(lp1223
Vesp_log_early_timestamp
p1224
atp1225
a(L3209539192L
L3785322319L
(lp1226
(lp1227
Vbootloader_fill_random
p1228
atp1229
a(L2355819455L
L0L
(lp1230
(lp1231
tp1232
a(L2359513539L
L0L
(lp1233
(lp1234
tp1235
a(L1299866312L
L0L
(lp1236
(lp1237
tp1238
a(L2008416411L
L0L
(lp1239
(lp1240
tp1241
a(L127299853L
L0L
(lp1242
(lp1243
tp1244
a(L3637170633L
L0L
(lp1245
(lp1246
tp1247
a(L3858106053L
L0L
(lp1248
(lp1249
tp1250
a(L4117779536L
L0L
(lp1251
(lp1252
tp1253
a(L2902417580L
L0L
(lp1254
(lp1255
tp1256
a(L2505185480L
L0L
(lp1257
(lp1258
tp1259
a(L3094078540L
L3785322319L
(lp1260
(lp1261
Vbootloader_sha256_data
p1262
atp1263
a(L1770629922L
L0L
(lp1264
(lp1265
tp1266
a(L3896226538L
L0L
(lp1267
(lp1268
tp1269
a(L1564127900L
L3785322319L
(lp1270
(lp1271
Vbootloader_munmap
p1272
atp1273
atp1274
sI1074240636
(Vshould_load
p1275
(lp1276
(L2787863295L
L3785322319L
(lp1277
(lp1278
Vshould_map
p1279
atp1280
a(L4195879363L
L0L
(lp1281
(lp1282
tp1283
a(L3028464L
L0L
(lp1284
(lp1285
tp1286
a(L840924853L
L0L
(lp1287
(lp1288
tp1289
a(L84281430L
L0L
(lp1290
(lp1291
tp1292
a(L1610443436L
L0L
(lp1293
(lp1294
tp1295
a(L1610443405L
L0L
(lp1296
(lp1297
tp1298
a(L1298875774L
L0L
(lp1299
(lp1300
tp1301
a(L735741265L
L0L
(lp1302
(lp1303
tp1304
atp1305
sI1074236536
(Vspi_to_esp_err
p1306
(lp1307
(L4037458691L
L0L
(lp1308
(lp1309
tp1310
a(L2902417580L
L0L
(lp1311
(lp1312
tp1313
a(L3020187L
L0L
(lp1314
(lp1315
tp1316
a(L106L
L0L
(lp1317
(lp1318
tp1319
a(L2993202392L
L0L
(lp1320
(lp1321
tp1322
a(L2064621597L
L0L
(lp1323
(lp1324
tp1325
a(L515633988L
L0L
(lp1326
(lp1327
tp1328
a(L2556668978L
L0L
(lp1329
(lp1330
tp1331
atp1332
sI1074242168
(Vesp_rom_spiflash_read_data
p1333
(lp1334
(L4122033220L
L0L
(lp1335
(lp1336
tp1337
a(L106L
L0L
(lp1338
(lp1339
tp1340
a(L2070875117L
L3785322319L
(lp1341
(lp1342
Vesp_rom_spiflash_wait_idle
p1343
atp1344
a(L2761836345L
L0L
(lp1345
(lp1346
tp1347
a(L1076918856L
L0L
(lp1348
(lp1349
tp1350
a(L851286621L
L0L
(lp1351
(lp1352
tp1353
a(L106L
L0L
(lp1354
(lp1355
tp1356
a(L3424887722L
L0L
(lp1357
(lp1358
tp1359
a(L256664550L
L0L
(lp1360
(lp1361
tp1362
a(L663200857L
L0L
(lp1363
(lp1364
tp1365
a(L2148409160L
L0L
(lp1366
(lp1367
tp1368
a(L851286621L
L0L
(lp1369
(lp1370
tp1371
a(L1263158627L
L0L
(lp1372
(lp1373
tp1374
a(L131455463L
L0L
(lp1375
(lp1376
tp1377
a(L4208385735L
L0L
(lp1378
(lp1379
tp1380
a(L1305407438L
L0L
(lp1381
(lp1382
tp1383
a(L3424887722L
L0L
(lp1384
(lp1385
tp1386
a(L3027019L
L0L
(lp1387
(lp1388
tp1389
a(L2258777855L
L0L
(lp1390
(lp1391
tp1392
a(L3027007L
L0L
(lp1393
(lp1394
tp1395
a(L106L
L0L
(lp1396
(lp1397
tp1398
a(L2993202392L
L0L
(lp1399
(lp1400
tp1401
a(L3880706073L
L0L
(lp1402
(lp1403
tp1404
atp1405
sI1074267784
(Vupdate_flash_config
p1406
(lp1407
(L1046059555L
L0L
(lp1408
(lp1409
tp1410
a(L93674324L
L0L
(lp1411
(lp1412
tp1413
a(L2902417580L
L0L
(lp1414
(lp1415
tp1416
a(L106L
L0L
(lp1417
(lp1418
tp1419
a(L3020187L
L0L
(lp1420
(lp1421
tp1422
a(L3020187L
L0L
(lp1423
(lp1424
tp1425
a(L106L
L0L
(lp1426
(lp1427
tp1428
a(L1299866343L
L0L
(lp1429
(lp1430
tp1431
a(L1299866436L
L0L
(lp1432
(lp1433
tp1434
a(L1299866560L
L0L
(lp1435
(lp1436
tp1437
a(L1641149277L
L0L
(lp1438
(lp1439
tp1440
a(L2258688484L
L0L
(lp1441
(lp1442
tp1443
a(L3843661488L
L0L
(lp1444
(lp1445
tp1446
atp1447
sI1074238084
(Vtry_load_partition
p1448
(lp1449
(L3877261386L
L0L
(lp1450
(lp1451
tp1452
a(L3042515454L
L3785322319L
(lp1453
(lp1454
Vesp_image_load
p1455
atp1456
a(L2024188967L
L3785322319L
(lp1457
(lp1458
Vesp_log_early_timestamp
p1459
atp1460
a(L2993202392L
L0L
(lp1461
(lp1462
tp1463
a(L2993202392L
L0L
(lp1464
(lp1465
tp1466
atp1467
sI1074235520
(Vesp_cpu_in_ocd_debug_mode
p1468
(lp1469
(L3156077080L
L0L
(lp1470
(lp1471
tp1472
atp1473
sI1074242432
(Vesp_rom_spiflash_write_status
p1474
(lp1475
(L978702942L
L3785322319L
(lp1476
(lp1477
Vesp_rom_spiflash_wait_idle
p1478
atp1479
a(L1942114525L
L0L
(lp1480
(lp1481
tp1482
a(L1387965403L
L3785322319L
(lp1483
(lp1484
Vesp_rom_spiflash_wait_idle
p1485
atp1486
atp1487
sI1074267264
(Vprint_flash_info
p1488
(lp1489
(L2664752807L
L0L
(lp1490
(lp1491
tp1492
a(L2902417580L
L0L
(lp1493
(lp1494
tp1495
a(L3020187L
L0L
(lp1496
(lp1497
tp1498
a(L225150647L
L0L
(lp1499
(lp1500
tp1501
a(L106L
L0L
(lp1502
(lp1503
tp1504
a(L460310520L
L0L
(lp1505
(lp1506
tp1507
a(L460311853L
L0L
(lp1508
(lp1509
tp1510
a(L460311233L
L0L
(lp1511
(lp1512
tp1513
a(L460311853L
L0L
(lp1514
(lp1515
tp1516
a(L3201437358L
L0L
(lp1517
(lp1518
tp1519
a(L3746028389L
L3785322319L
(lp1520
(lp1521
Vesp_log_early_timestamp
p1522
atp1523
a(L3017366L
L0L
(lp1524
(lp1525
tp1526
a(L3017366L
L0L
(lp1527
(lp1528
tp1529
a(L3017366L
L0L
(lp1530
(lp1531
tp1532
a(L3016870L
L0L
(lp1533
(lp1534
tp1535
a(L460312194L
L0L
(lp1536
(lp1537
tp1538
a(L460311481L
L0L
(lp1539
(lp1540
tp1541
a(L460311357L
L0L
(lp1542
(lp1543
tp1544
a(L460312442L
L0L
(lp1545
(lp1546
tp1547
a(L460312318L
L0L
(lp1548
(lp1549
tp1550
a(L3201437436L
L0L
(lp1551
(lp1552
tp1553
a(L1786474416L
L3785322319L
(lp1554
(lp1555
Vesp_log_early_timestamp
p1556
atp1557
a(L93674324L
L0L
(lp1558
(lp1559
tp1560
a(L3020204L
L0L
(lp1561
(lp1562
tp1563
a(L106L
L0L
(lp1564
(lp1565
tp1566
a(L3020187L
L0L
(lp1567
(lp1568
tp1569
a(L3020187L
L0L
(lp1570
(lp1571
tp1572
a(L106L
L0L
(lp1573
(lp1574
tp1575
a(L331267915L
L0L
(lp1576
(lp1577
tp1578
a(L331268039L
L0L
(lp1579
(lp1580
tp1581
a(L331269496L
L0L
(lp1582
(lp1583
tp1584
a(L331268163L
L0L
(lp1585
(lp1586
tp1587
a(L703421530L
L0L
(lp1588
(lp1589
tp1590
a(L865246455L
L3785322319L
(lp1591
(lp1592
Vesp_log_early_timestamp
p1593
atp1594
atp1595
sI1074234508
(Vbootloader_flash_gpio_config
p1596
(lp1597
(L1541720566L
L0L
(lp1598
(lp1599
tp1600
a(L1299866374L
L0L
(lp1601
(lp1602
tp1603
a(L2258688485L
L0L
(lp1604
(lp1605
tp1606
a(L1018833635L
L0L
(lp1607
(lp1608
tp1609
a(L4287840674L
L0L
(lp1610
(lp1611
tp1612
a(L3028464L
L0L
(lp1613
(lp1614
tp1615
a(L4287840674L
L0L
(lp1616
(lp1617
tp1618
a(L3028464L
L0L
(lp1619
(lp1620
tp1621
a(L4287840674L
L0L
(lp1622
(lp1623
tp1624
a(L1660894555L
L0L
(lp1625
(lp1626
tp1627
a(L1271695794L
L0L
(lp1628
(lp1629
tp1630
a(L2136249670L
L0L
(lp1631
(lp1632
tp1633
a(L3360570486L
L0L
(lp1634
(lp1635
tp1636
atp1637
sI1074267032
(Vwdt_reset_info_dump
p1638
(lp1639
(L1642351636L
L0L
(lp1640
(lp1641
tp1642
a(L460304754L
L0L
(lp1643
(lp1644
tp1645
a(L3201437219L
L0L
(lp1646
(lp1647
tp1648
a(L3028481L
L0L
(lp1649
(lp1650
tp1651
a(L1946219530L
L0L
(lp1652
(lp1653
tp1654
a(L3831091242L
L0L
(lp1655
(lp1656
tp1657
a(L1413004396L
L0L
(lp1658
(lp1659
tp1660
a(L1550379252L
L0L
(lp1661
(lp1662
tp1663
a(L4039555073L
L3785322319L
(lp1664
(lp1665
Vesp_log_early_timestamp
p1666
atp1667
a(L4077733357L
L3785322319L
(lp1668
(lp1669
Vesp_log_early_timestamp
p1670
atp1671
atp1672
sI1074238356
(Vunpack_load_app
p1673
(lp1674
(L1842422795L
L0L
(lp1675
(lp1676
tp1677
a(L3694708920L
L0L
(lp1678
(lp1679
tp1680
a(L2902417580L
L0L
(lp1681
(lp1682
tp1683
a(L2158095728L
L3785322319L
(lp1684
(lp1685
Vesp_log_early_timestamp
p1686
atp1687
a(L3411822821L
L0L
(lp1688
(lp1689
tp1690
a(L4074138008L
L0L
(lp1691
(lp1692
tp1693
a(L2902417580L
L0L
(lp1694
(lp1695
tp1696
a(L1911782641L
L3785322319L
(lp1697
(lp1698
Vesp_log_early_timestamp
p1699
atp1700
a(L87648306L
L0L
(lp1701
(lp1702
tp1703
a(L1799288861L
L0L
(lp1704
(lp1705
tp1706
a(L350965691L
L0L
(lp1707
(lp1708
tp1709
a(L106L
L0L
(lp1710
(lp1711
tp1712
a(L1717315991L
L3785322319L
(lp1713
(lp1714
Vset_cache_and_start_app
p1715
atp1716
atp1717
sI1074236304
(Vbootloader_common_get_chip_revision
p1718
(lp1719
(L2813419177L
L0L
(lp1720
(lp1721
tp1722
a(L3020187L
L0L
(lp1723
(lp1724
tp1725
a(L3020187L
L0L
(lp1726
(lp1727
tp1728
a(L2993202392L
L0L
(lp1729
(lp1730
tp1731
a(L473242458L
L0L
(lp1732
(lp1733
tp1734
a(L1360746139L
L0L
(lp1735
(lp1736
tp1737
a(L3880706073L
L0L
(lp1738
(lp1739
tp1740
atp1741
sI1074235536
(Vesp_log_early_timestamp
p1742
(lp1743
(L1442283304L
L0L
(lp1744
(lp1745
tp1746
atp1747
sI1074236572
(Vbootloader_flash_read_allow_decrypt
p1748
(lp1749
(L3381655731L
L0L
(lp1750
(lp1751
tp1752
a(L3688825819L
L0L
(lp1753
(lp1754
tp1755
a(L2388464622L
L0L
(lp1756
(lp1757
tp1758
a(L3074046300L
L3785322319L
(lp1759
(lp1760
Vesp_log_early_timestamp
p1761
atp1762
a(L3997505600L
L0L
(lp1763
(lp1764
tp1765
a(L3042657542L
L0L
(lp1766
(lp1767
tp1768
a(L3423665670L
L0L
(lp1769
(lp1770
tp1771
a(L106L
L0L
(lp1772
(lp1773
tp1774
a(L2993202392L
L0L
(lp1775
(lp1776
tp1777
atp1778
sI1074241692
(Vesp_partition_table_verify
p1779
(lp1780
(L1363364359L
L0L
(lp1781
(lp1782
tp1783
a(L2917017558L
L0L
(lp1784
(lp1785
tp1786
a(L2544630126L
L0L
(lp1787
(lp1788
tp1789
a(L4183706628L
L0L
(lp1790
(lp1791
tp1792
a(L106L
L0L
(lp1793
(lp1794
tp1795
a(L2579271819L
L0L
(lp1796
(lp1797
tp1798
a(L1441224503L
L3785322319L
(lp1799
(lp1800
Vesp_log_early_timestamp
p1801
atp1802
a(L2270692728L
L0L
(lp1803
(lp1804
tp1805
a(L2902417580L
L0L
(lp1806
(lp1807
tp1808
a(L2579271819L
L0L
(lp1809
(lp1810
tp1811
a(L2240696118L
L3785322319L
(lp1812
(lp1813
Vesp_log_early_timestamp
p1814
atp1815
a(L11745571L
L0L
(lp1816
(lp1817
tp1818
a(L2579271819L
L0L
(lp1819
(lp1820
tp1821
a(L3580831178L
L3785322319L
(lp1822
(lp1823
Vesp_log_early_timestamp
p1824
atp1825
a(L1610443436L
L0L
(lp1826
(lp1827
tp1828
a(L2966513628L
L0L
(lp1829
(lp1830
tp1831
a(L3720018517L
L0L
(lp1832
(lp1833
tp1834
a(L324306632L
L0L
(lp1835
(lp1836
tp1837
a(L2579271819L
L0L
(lp1838
(lp1839
tp1840
a(L919728698L
L3785322319L
(lp1841
(lp1842
Vesp_log_early_timestamp
p1843
atp1844
a(L1799288861L
L0L
(lp1845
(lp1846
tp1847
a(L474850413L
L0L
(lp1848
(lp1849
tp1850
a(L106L
L0L
(lp1851
(lp1852
tp1853
a(L484089803L
L0L
(lp1854
(lp1855
tp1856
a(L1308185652L
L3785322319L
(lp1857
(lp1858
Vesp_log_early_timestamp
p1859
atp1860
a(L3854017309L
L0L
(lp1861
(lp1862
tp1863
a(L2966513628L
L0L
(lp1864
(lp1865
tp1866
a(L2966513628L
L0L
(lp1867
(lp1868
tp1869
atp1870
sI1074268844
(Vbootloader_read_flash_id
p1871
(lp1872
(L2578443565L
L3785322319L
(lp1873
(lp1874
Vexecute_flash_command
p1875
atp1876
atp1877
sI1074267564
(Vuart_console_configure
p1878
(lp1879
(L2386594684L
L0L
(lp1880
(lp1881
tp1882
a(L1853191406L
L0L
(lp1883
(lp1884
tp1885
a(L3070871418L
L3785322319L
(lp1886
(lp1887
Vrtc_clk_apb_freq_get
p1888
atp1889
atp1890
sI1074269604
(Vrtc_clk_slow_freq_set
p1891
(lp1892
(L1095712945L
L0L
(lp1893
(lp1894
tp1895
a(L1235012839L
L0L
(lp1896
(lp1897
tp1898
a(L2258688482L
L0L
(lp1899
(lp1900
tp1901
a(L579577551L
L0L
(lp1902
(lp1903
tp1904
atp1905
sI1074242484
(Vesp_rom_spiflash_unlock
p1906
(lp1907
(L2824090113L
L1880226080L
(lp1908
(lp1909
Vesp_rom_spiflash_wait_idle
p1910
aVesp_rom_spiflash_read_statushigh
p1911
atp1912
a(L4043989933L
L3785322319L
(lp1913
(lp1914
Vesp_rom_spiflash_wait_idle
p1915
atp1916
a(L851286621L
L0L
(lp1917
(lp1918
tp1919
a(L2245738006L
L1880226080L
(lp1920
(lp1921
Vesp_rom_spiflash_wait_idle
p1922
aVesp_rom_spiflash_write_status
p1923
atp1924
a(L3880706073L
L0L
(lp1925
(lp1926
tp1927
a(L2258688483L
L0L
(lp1928
(lp1929
tp1930
a(L3360570486L
L0L
(lp1931
(lp1932
tp1933
atp1934
sI1074235568
(V__bswapsi2
p1935
(lp1936
(L1030949986L
L0L
(lp1937
(lp1938
tp1939
atp1940
sI1074270388
(Vrtc_clk_cpu_freq_value
p1941
(lp1942
(L607216364L
L0L
(lp1943
(lp1944
tp1945
a(L3648283501L
L0L
(lp1946
(lp1947
tp1948
a(L2832471188L
L3785322319L
(lp1949
(lp1950
V__assert_func
p1951
atp1952
atp1953
sI1074238136
(Vset_cache_and_start_app
p1954
(lp1955
(L2840601635L
L0L
(lp1956
(lp1957
tp1958
a(L2342545514L
L0L
(lp1959
(lp1960
tp1961
a(L1548223148L
L0L
(lp1962
(lp1963
tp1964
a(L3249191648L
L0L
(lp1965
(lp1966
tp1967
atp1968
sI1074270920
(Vrtc_clk_apb_freq_get
p1969
(lp1970
(L326304293L
L3785322319L
(lp1971
(lp1972
Vreg_val_to_clk_val
p1973
atp1974
atp1975
sI1074234304
(Vbootloader_init_flash_configure
p1976
(lp1977
(L2326466312L
L1832448559L
(lp1978
(lp1979
Vbootloader_flash_gpio_config
p1980
aVbootloader_flash_dummy_config
p1981
aVbootloader_flash_cs_timing_config
p1982
atp1983
atp1984
sI1074240704
(Vprocess_segment
p1985
(lp1986
(L2051938514L
L3785322319L
(lp1987
(lp1988
Vbootloader_flash_read
p1989
atp1990
a(L913434124L
L3785322319L
(lp1991
(lp1992
Vesp_log_early_timestamp
p1993
atp1994
a(L3020204L
L0L
(lp1995
(lp1996
tp1997
a(L574350325L
L3785322319L
(lp1998
(lp1999
Vbootloader_sha256_data
p2000
atp2001
a(L1152099087L
L3785322319L
(lp2002
(lp2003
Vverify_segment_header
p2004
atp2005
a(L708717693L
L0L
(lp2006
(lp2007
tp2008
a(L3028481L
L0L
(lp2009
(lp2010
tp2011
a(L1722924678L
L3785322319L
(lp2012
(lp2013
Vesp_log_early_timestamp
p2014
atp2015
a(L1359651648L
L3785322319L
(lp2016
(lp2017
Vshould_map
p2018
atp2019
a(L1535194501L
L3785322319L
(lp2020
(lp2021
Vshould_load
p2022
atp2023
a(L1301713385L
L0L
(lp2024
(lp2025
tp2026
a(L1301713354L
L0L
(lp2027
(lp2028
tp2029
a(L1182871392L
L0L
(lp2030
(lp2031
tp2032
a(L43906745L
L0L
(lp2033
(lp2034
tp2035
a(L3287840219L
L3785322319L
(lp2036
(lp2037
Vesp_log_early_timestamp
p2038
atp2039
a(L3760047252L
L0L
(lp2040
(lp2041
tp2042
a(L697339600L
L0L
(lp2043
(lp2044
tp2045
a(L697340096L
L0L
(lp2046
(lp2047
tp2048
a(L3901820118L
L0L
(lp2049
(lp2050
tp2051
a(L1506378200L
L0L
(lp2052
(lp2053
tp2054
a(L3020204L
L0L
(lp2055
(lp2056
tp2057
a(L2593710859L
L0L
(lp2058
(lp2059
tp2060
a(L2396407606L
L0L
(lp2061
(lp2062
tp2063
a(L99275548L
L3785322319L
(lp2064
(lp2065
Vesp_log_early_timestamp
p2066
atp2067
a(L359446240L
L0L
(lp2068
(lp2069
tp2070
a(L1182990556L
L0L
(lp2071
(lp2072
tp2073
a(L695399705L
L0L
(lp2074
(lp2075
tp2076
a(L2258897019L
L0L
(lp2077
(lp2078
tp2079
a(L93892250L
L0L
(lp2080
(lp2081
tp2082
a(L770987318L
L3785322319L
(lp2083
(lp2084
Vesp_log_early_timestamp
p2085
atp2086
a(L3097584254L
L3785322319L
(lp2087
(lp2088
Vprocess_segment_data
p2089
atp2090
a(L2993202392L
L0L
(lp2091
(lp2092
tp2093
a(L2902417580L
L0L
(lp2094
(lp2095
tp2096
a(L3360570486L
L0L
(lp2097
(lp2098
tp2099
a(L735741265L
L0L
(lp2100
(lp2101
tp2102
a(L702739456L
L0L
(lp2103
(lp2104
tp2105
a(L3360570486L
L0L
(lp2106
(lp2107
tp2108
atp2109
sI1074238924
(Vbootloader_utility_get_selected_boot_partition
p2110
(lp2111
(L3540070437L
L0L
(lp2112
(lp2113
tp2114
a(L4284791901L
L0L
(lp2115
(lp2116
tp2117
a(L3041732760L
L3785322319L
(lp2118
(lp2119
Vesp_log_early_timestamp
p2120
atp2121
a(L3118387733L
L3785322319L
(lp2122
(lp2123
Vbootloader_mmap
p2124
atp2125
a(L2689924034L
L3785322319L
(lp2126
(lp2127
Vesp_log_early_timestamp
p2128
atp2129
a(L2866822164L
L3785322319L
(lp2130
(lp2131
Vbootloader_munmap
p2132
atp2133
a(L610545537L
L0L
(lp2134
(lp2135
tp2136
a(L2949562121L
L0L
(lp2137
(lp2138
tp2139
a(L4182810108L
L0L
(lp2140
(lp2141
tp2142
a(L292155913L
L3785322319L
(lp2143
(lp2144
Vesp_log_early_timestamp
p2145
atp2146
a(L1603239215L
L3785322319L
(lp2147
(lp2148
Vesp_log_early_timestamp
p2149
atp2150
a(L726746666L
L3785322319L
(lp2151
(lp2152
Vbootloader_common_ota_select_valid
p2153
atp2154
a(L1828868152L
L3785322319L
(lp2155
(lp2156
Vbootloader_common_ota_select_valid
p2157
atp2158
a(L1353294186L
L0L
(lp2159
(lp2160
tp2161
a(L726746666L
L3785322319L
(lp2162
(lp2163
Vbootloader_common_ota_select_valid
p2164
atp2165
a(L3920888185L
L0L
(lp2166
(lp2167
tp2168
a(L788494392L
L3785322319L
(lp2169
(lp2170
Vbootloader_common_ota_select_valid
p2171
atp2172
a(L797347385L
L0L
(lp2173
(lp2174
tp2175
a(L2258718273L
L0L
(lp2176
(lp2177
tp2178
a(L2902417580L
L0L
(lp2179
(lp2180
tp2181
a(L2053587437L
L0L
(lp2182
(lp2183
tp2184
a(L4182810108L
L0L
(lp2185
(lp2186
tp2187
a(L3805402936L
L3785322319L
(lp2188
(lp2189
Vesp_log_early_timestamp
p2190
atp2191
a(L3042876920L
L3785322319L
(lp2192
(lp2193
Vesp_log_early_timestamp
p2194
atp2195
a(L515633988L
L0L
(lp2196
(lp2197
tp2198
atp2199
sI1074271684
(Vrtc_clk_cal_internal
p2200
(lp2201
(L559543766L
L0L
(lp2202
(lp2203
tp2204
a(L3055907501L
L0L
(lp2205
(lp2206
tp2207
a(L3028464L
L0L
(lp2208
(lp2209
tp2210
a(L2813382254L
L0L
(lp2211
(lp2212
tp2213
a(L3837211616L
L0L
(lp2214
(lp2215
tp2216
a(L1470489052L
L0L
(lp2217
(lp2218
tp2219
a(L97422L
L0L
(lp2220
(lp2221
tp2222
a(L2066391447L
L0L
(lp2223
(lp2224
tp2225
a(L3900031177L
L0L
(lp2226
(lp2227
tp2228
a(L3900030340L
L0L
(lp2229
(lp2230
tp2231
a(L3900030340L
L0L
(lp2232
(lp2233
tp2234
a(L3900031177L
L0L
(lp2235
(lp2236
tp2237
a(L3450943429L
L0L
(lp2238
(lp2239
tp2240
a(L1805817335L
L3785322319L
(lp2241
(lp2242
V__udivdi3
p2243
atp2244
a(L863354631L
L0L
(lp2245
(lp2246
tp2247
a(L498570596L
L0L
(lp2248
(lp2249
tp2250
a(L3021737L
L0L
(lp2251
(lp2252
tp2253
a(L2145029861L
L0L
(lp2254
(lp2255
tp2256
a(L2043374164L
L0L
(lp2257
(lp2258
tp2259
a(L2902417580L
L0L
(lp2260
(lp2261
tp2262
a(L732753489L
L0L
(lp2263
(lp2264
tp2265
a(L2993202392L
L0L
(lp2266
(lp2267
tp2268
atp2269
sI1074269380
(Vrtc_clk_8m_enabled
p2270
(lp2271
(L3359826682L
L0L
(lp2272
(lp2273
tp2274
atp2275
sI1074235080
(Vbootloader_flash_dummy_config
p2276
(lp2277
(L4078571336L
L0L
(lp2278
(lp2279
tp2280
a(L3017366L
L0L
(lp2281
(lp2282
tp2283
a(L3016870L
L0L
(lp2284
(lp2285
tp2286
a(L3652619007L
L0L
(lp2287
(lp2288
tp2289
a(L2571765978L
L0L
(lp2290
(lp2291
tp2292
a(L1610443405L
L0L
(lp2293
(lp2294
tp2295
a(L1610443405L
L0L
(lp2296
(lp2297
tp2298
a(L1610443498L
L0L
(lp2299
(lp2300
tp2301
a(L1298875780L
L0L
(lp2302
(lp2303
tp2304
a(L680882736L
L0L
(lp2305
(lp2306
tp2307
a(L2902417580L
L0L
(lp2308
(lp2309
tp2310
a(L106L
L0L
(lp2311
(lp2312
tp2313
a(L3632614529L
L0L
(lp2314
(lp2315
tp2316
a(L434037735L
L0L
(lp2317
(lp2318
tp2319
a(L2472094024L
L0L
(lp2320
(lp2321
tp2322
a(L838225377L
L0L
(lp2323
(lp2324
tp2325
a(L309912272L
L0L
(lp2326
(lp2327
tp2328
atp2329
sI1074239944
(Vshould_map
p2330
(lp2331
(L2532903800L
L0L
(lp2332
(lp2333
tp2334
a(L1182990556L
L0L
(lp2335
(lp2336
tp2337
a(L3887685933L
L0L
(lp2338
(lp2339
tp2340
a(L1182990556L
L0L
(lp2341
(lp2342
tp2343
a(L1387712984L
L0L
(lp2344
(lp2345
tp2346
atp2347
sI1074234324
(Vbootloader_flash_cs_timing_config
p2348
(lp2349
(L211636681L
L0L
(lp2350
(lp2351
tp2352
atp2353
sI1074268112
(V__assert_func
p2354
(lp2355
(L2267332065L
L3785322319L
(lp2356
(lp2357
Vesp_log_early_timestamp
p2358
atp2359
a(L106L
L0L
(lp2360
(lp2361
tp2362
atp2363
sI1074237148
(Vbootloader_fill_random
p2364
(lp2365
(L173175206L
L0L
(lp2366
(lp2367
tp2368
a(L2902417580L
L0L
(lp2369
(lp2370
tp2371
a(L3448782426L
L0L
(lp2372
(lp2373
tp2374
a(L257428438L
L0L
(lp2375
(lp2376
tp2377
a(L2164814620L
L0L
(lp2378
(lp2379
tp2380
a(L713870975L
L0L
(lp2381
(lp2382
tp2383
a(L2192561533L
L0L
(lp2384
(lp2385
tp2386
a(L3360570486L
L0L
(lp2387
(lp2388
tp2389
atp2390
sI1074268884
(Vbootloader_clock_configure
p2391
(lp2392
(L3493042567L
L0L
(lp2393
(lp2394
tp2395
a(L1853191406L
L0L
(lp2396
(lp2397
tp2398
a(L1495596811L
L0L
(lp2399
(lp2400
tp2401
a(L3544380655L
L0L
(lp2402
(lp2403
tp2404
a(L1305407469L
L0L
(lp2405
(lp2406
tp2407
a(L1305407469L
L0L
(lp2408
(lp2409
tp2410
a(L2258867231L
L0L
(lp2411
(lp2412
tp2413
a(L2664934502L
L1832448559L
(lp2414
(lp2415
Vrtc_clk_slow_freq_get
p2416
aVrtc_clk_fast_freq_get
p2417
aVrtc_clk_init
p2418
atp2419
atp2420
sI1074235608
(V__udivdi3
p2421
(lp2422
(L1385793588L
L0L
(lp2423
(lp2424
tp2425
a(L3027019L
L0L
(lp2426
(lp2427
tp2428
a(L106L
L0L
(lp2429
(lp2430
tp2431
a(L2092509388L
L0L
(lp2432
(lp2433
tp2434
a(L3502386743L
L0L
(lp2435
(lp2436
tp2437
a(L1366962904L
L0L
(lp2438
(lp2439
tp2440
a(L438338333L
L0L
(lp2441
(lp2442
tp2443
a(L3027019L
L0L
(lp2444
(lp2445
tp2446
a(L1598954342L
L0L
(lp2447
(lp2448
tp2449
a(L3753924055L
L0L
(lp2450
(lp2451
tp2452
a(L1897931368L
L0L
(lp2453
(lp2454
tp2455
a(L1870013079L
L0L
(lp2456
(lp2457
tp2458
a(L3021749L
L0L
(lp2459
(lp2460
tp2461
a(L2802159608L
L0L
(lp2462
(lp2463
tp2464
a(L3888552627L
L0L
(lp2465
(lp2466
tp2467
a(L2632174215L
L0L
(lp2468
(lp2469
tp2470
a(L2910371777L
L0L
(lp2471
(lp2472
tp2473
a(L305663930L
L0L
(lp2474
(lp2475
tp2476
a(L2740121073L
L0L
(lp2477
(lp2478
tp2479
a(L706293450L
L0L
(lp2480
(lp2481
tp2482
a(L4229162210L
L0L
(lp2483
(lp2484
tp2485
a(L2843085605L
L0L
(lp2486
(lp2487
tp2488
a(L3027019L
L0L
(lp2489
(lp2490
tp2491
a(L3073587686L
L0L
(lp2492
(lp2493
tp2494
a(L3122262879L
L0L
(lp2495
(lp2496
tp2497
a(L1300871293L
L0L
(lp2498
(lp2499
tp2500
a(L94415139L
L0L
(lp2501
(lp2502
tp2503
a(L3027019L
L0L
(lp2504
(lp2505
tp2506
a(L11368960L
L0L
(lp2507
(lp2508
tp2509
a(L3212626947L
L0L
(lp2510
(lp2511
tp2512
a(L3756070799L
L0L
(lp2513
(lp2514
tp2515
a(L1029992261L
L0L
(lp2516
(lp2517
tp2518
a(L438338333L
L0L
(lp2519
(lp2520
tp2521
a(L3027019L
L0L
(lp2522
(lp2523
tp2524
a(L2534896770L
L0L
(lp2525
(lp2526
tp2527
a(L2789765947L
L0L
(lp2528
(lp2529
tp2530
a(L3482374298L
L0L
(lp2531
(lp2532
tp2533
a(L1870018349L
L0L
(lp2534
(lp2535
tp2536
a(L3027019L
L0L
(lp2537
(lp2538
tp2539
a(L2802159608L
L0L
(lp2540
(lp2541
tp2542
a(L3888552627L
L0L
(lp2543
(lp2544
tp2545
a(L36877582L
L0L
(lp2546
(lp2547
tp2548
a(L3021749L
L0L
(lp2549
(lp2550
tp2551
a(L106L
L0L
(lp2552
(lp2553
tp2554
a(L3988749468L
L0L
(lp2555
(lp2556
tp2557
a(L1375050317L
L0L
(lp2558
(lp2559
tp2560
a(L4185861754L
L0L
(lp2561
(lp2562
tp2563
a(L892947480L
L0L
(lp2564
(lp2565
tp2566
a(L2258688482L
L0L
(lp2567
(lp2568
tp2569
a(L2856348002L
L0L
(lp2570
(lp2571
tp2572
a(L1351383952L
L0L
(lp2573
(lp2574
tp2575
a(L1681866360L
L0L
(lp2576
(lp2577
tp2578
a(L3021749L
L0L
(lp2579
(lp2580
tp2581
a(L4115096326L
L0L
(lp2582
(lp2583
tp2584
a(L2229771582L
L0L
(lp2585
(lp2586
tp2587
a(L3630858718L
L0L
(lp2588
(lp2589
tp2590
a(L1986658244L
L0L
(lp2591
(lp2592
tp2593
a(L3027019L
L0L
(lp2594
(lp2595
tp2596
a(L2802159608L
L0L
(lp2597
(lp2598
tp2599
a(L2938387302L
L0L
(lp2600
(lp2601
tp2602
a(L3219580898L
L0L
(lp2603
(lp2604
tp2605
a(L4280816470L
L0L
(lp2606
(lp2607
tp2608
a(L97422L
L0L
(lp2609
(lp2610
tp2611
a(L1621601873L
L0L
(lp2612
(lp2613
tp2614
a(L3070693089L
L0L
(lp2615
(lp2616
tp2617
a(L2361595480L
L0L
(lp2618
(lp2619
tp2620
a(L539227760L
L0L
(lp2621
(lp2622
tp2623
atp2624
sI1074269676
(Vrtc_clk_slow_freq_get
p2625
(lp2626
(L3329992879L
L0L
(lp2627
(lp2628
tp2629
atp2630
sI1074242016
(Vesp_rom_spiflash_read_status
p2631
(lp2632
(L1718103321L
L0L
(lp2633
(lp2634
tp2635
a(L106L
L0L
(lp2636
(lp2637
tp2638
a(L2157959587L
L0L
(lp2639
(lp2640
tp2641
a(L851286621L
L0L
(lp2642
(lp2643
tp2644
a(L4079128548L
L0L
(lp2645
(lp2646
tp2647
a(L4159619641L
L0L
(lp2648
(lp2649
tp2650
a(L106L
L0L
(lp2651
(lp2652
tp2653
a(L1730549925L
L0L
(lp2654
(lp2655
tp2656
a(L4159619641L
L0L
(lp2657
(lp2658
tp2659
a(L2392720019L
L0L
(lp2660
(lp2661
tp2662
atp2663
sI1074269408
(Vrtc_clk_8md256_enabled
p2664
(lp2665
(L593547198L
L0L
(lp2666
(lp2667
tp2668
atp2669
sI1074272224
(Vclk_val_is_valid
p2670
(lp2671
(L1156532199L
L0L
(lp2672
(lp2673
tp2674
a(L2777277229L
L0L
(lp2675
(lp2676
tp2677
a(L2993202392L
L0L
(lp2678
(lp2679
tp2680
a(L2993202392L
L0L
(lp2681
(lp2682
tp2683
a(L3880706073L
L0L
(lp2684
(lp2685
tp2686
atp2687
sI1074239724
(Vbootloader_sha256_finish
p2688
(lp2689
(L4066096136L
L0L
(lp2690
(lp2691
tp2692
a(L1788548642L
L3785322319L
(lp2693
(lp2694
V__assert_func
p2695
atp2696
a(L3020204L
L0L
(lp2697
(lp2698
tp2699
a(L1338442514L
L0L
(lp2700
(lp2701
tp2702
a(L2534656226L
L0L
(lp2703
(lp2704
tp2705
a(L321015369L
L0L
(lp2706
(lp2707
tp2708
a(L3601454910L
L3785322319L
(lp2709
(lp2710
V__assert_func
p2711
atp2712
a(L583113100L
L3785322319L
(lp2713
(lp2714
Vbootloader_sha256_data
p2715
atp2716
a(L3934089717L
L3785322319L
(lp2717
(lp2718
V__assert_func
p2719
atp2720
a(L4088100594L
L1880226080L
(lp2721
(lp2722
V__bswapsi2
p2723
aVbootloader_sha256_data
p2724
atp2725
a(L2857800647L
L3785322319L
(lp2726
(lp2727
V__assert_func
p2728
atp2729
a(L4002108928L
L0L
(lp2730
(lp2731
tp2732
a(L3768065934L
L0L
(lp2733
(lp2734
tp2735
a(L4002108928L
L0L
(lp2736
(lp2737
tp2738
a(L1299866312L
L0L
(lp2739
(lp2740
tp2741
a(L3197725265L
L3785322319L
(lp2742
(lp2743
V__bswapsi2
p2744
atp2745
a(L93837694L
L0L
(lp2746
(lp2747
tp2748
a(L3347778L
L0L
(lp2749
(lp2750
tp2751
a(L3360570486L
L0L
(lp2752
(lp2753
tp2754
atp2755
sI1074239468
(Vindex_to_partition
p2756
(lp2757
(L4066096119L
L0L
(lp2758
(lp2759
tp2760
a(L937847257L
L0L
(lp2761
(lp2762
tp2763
a(L2808906342L
L0L
(lp2764
(lp2765
tp2766
a(L1765918994L
L0L
(lp2767
(lp2768
tp2769
a(L2808826781L
L0L
(lp2770
(lp2771
tp2772
a(L2911029954L
L0L
(lp2773
(lp2774
tp2775
a(L2511483031L
L0L
(lp2776
(lp2777
tp2778
a(L1984670054L
L0L
(lp2779
(lp2780
tp2781
a(L3698927993L
L0L
(lp2782
(lp2783
tp2784
atp2785
sI1074269156
(Vrtc_clk_32k_enable
p2786
(lp2787
(L753387299L
L0L
(lp2788
(lp2789
tp2790
a(L1120965557L
L3785322319L
(lp2791
(lp2792
Vrtc_clk_32k_enable_internal
p2793
atp2794
a(L3809865129L
L0L
(lp2795
(lp2796
tp2797
atp2798
sI1074267620
(Vwdt_reset_check
p2799
(lp2800
(L1658569856L
L0L
(lp2801
(lp2802
tp2803
a(L3020187L
L0L
(lp2804
(lp2805
tp2806
a(L367582592L
L0L
(lp2807
(lp2808
tp2809
a(L367642441L
L0L
(lp2810
(lp2811
tp2812
a(L795453497L
L3785322319L
(lp2813
(lp2814
Vesp_log_early_timestamp
p2815
atp2816
a(L1298905564L
L0L
(lp2817
(lp2818
tp2819
a(L1465910262L
L0L
(lp2820
(lp2821
tp2822
a(L3020187L
L0L
(lp2823
(lp2824
tp2825
a(L225031483L
L0L
(lp2826
(lp2827
tp2828
a(L225091332L
L0L
(lp2829
(lp2830
tp2831
a(L3562198972L
L3785322319L
(lp2832
(lp2833
Vesp_log_early_timestamp
p2834
atp2835
a(L3020204L
L0L
(lp2836
(lp2837
tp2838
a(L1944713791L
L1880226080L
(lp2839
(lp2840
Vwdt_reset_info_dump
p2841
aVwdt_reset_info_dump
p2842
atp2843
a(L3738038928L
L3785322319L
(lp2844
(lp2845
Vwdt_reset_cpu0_info_enable
p2846
atp2847
atp2848
sI1074236392
(Vbootloader_common_check_chip_validity
p2849
(lp2850
(L2834967127L
L0L
(lp2851
(lp2852
tp2853
a(L3666999496L
L3785322319L
(lp2854
(lp2855
Vesp_log_early_timestamp
p2856
atp2857
a(L1182901183L
L0L
(lp2858
(lp2859
tp2860
a(L2344894839L
L3785322319L
(lp2861
(lp2862
Vbootloader_common_get_chip_revision
p2863
atp2864
a(L2025004591L
L3785322319L
(lp2865
(lp2866
Vesp_log_early_timestamp
p2867
atp2868
a(L97422L
L0L
(lp2869
(lp2870
tp2871
a(L3287840219L
L3785322319L
(lp2872
(lp2873
Vesp_log_early_timestamp
p2874
atp2875
a(L4136894748L
L0L
(lp2876
(lp2877
tp2878
a(L4151320826L
L0L
(lp2879
(lp2880
tp2881
a(L226537297L
L0L
(lp2882
(lp2883
tp2884
a(L464010095L
L0L
(lp2885
(lp2886
tp2887
atp2888
sI1074270456
(Vrtc_clk_xtal_freq_update
p2889
(lp2890
(L289161451L
L3785322319L
(lp2891
(lp2892
Vclk_val_to_reg_val
p2893
atp2894
atp2895
sI1074266872
(Vselected_boot_partition
p2896
(lp2897
(L2937841336L
L3785322319L
(lp2898
(lp2899
Vbootloader_utility_get_selected_boot_partition
p2900
atp2901
a(L801556081L
L0L
(lp2902
(lp2903
tp2904
a(L3360570486L
L0L
(lp2905
(lp2906
tp2907
atp2908
sI1074269692
(Vrtc_clk_fast_freq_set
p2909
(lp2910
(L2661879517L
L0L
(lp2911
(lp2912
tp2913
atp2914
sI1074269436
(Vrtc_clk_xtal_freq_estimate
p2915
(lp2916
(L2516060585L
L1880226080L
(lp2917
(lp2918
Vrtc_clk_8m_enabled
p2919
aVrtc_clk_8md256_enabled
p2920
atp2921
a(L967485502L
L3785322319L
(lp2922
(lp2923
Vrtc_clk_8m_enable
p2924
atp2925
a(L2270309959L
L1880226080L
(lp2926
(lp2927
Vrtc_clk_cal_ratio
p2928
aV__udivdi3
p2929
atp2930
a(L834999176L
L0L
(lp2931
(lp2932
tp2933
a(L192036114L
L3785322319L
(lp2934
(lp2935
Vesp_log_early_timestamp
p2936
atp2937
atp2938
sI1074267888
(Vbootloader_main
p2939
(lp2940
(L156927298L
L1832448559L
(lp2941
(lp2942
Vvddsdio_configure
p2943
aVbootloader_read_flash_id
p2944
aVbootloader_flash_read
p2945
atp2946
a(L644940069L
L3785322319L
(lp2947
(lp2948
Vesp_log_early_timestamp
p2949
atp2950
a(L3147469764L
L1832448559L
(lp2951
(lp2952
Vbootloader_common_get_chip_revision
p2953
aVesp_log_early_timestamp
p2954
aVbootloader_common_check_chip_validity
p2955
atp2956
a(L1276014751L
L1671015855L
(lp2957
(lp2958
Vbootloader_init_flash_configure
p2959
aVbootloader_clock_configure
p2960
aVuart_console_configure
p2961
aVwdt_reset_check
p2962
aVesp_log_early_timestamp
p2963
aVesp_log_early_timestamp
p2964
aVesp_rom_spiflash_unlock
p2965
aVesp_log_early_timestamp
p2966
aVbootloader_random_enable
p2967
aVprint_flash_info
p2968
aVupdate_flash_config
p2969
atp2970
a(L515633988L
L0L
(lp2971
(lp2972
tp2973
atp2974
sI1074268144
(Vbootloader_init
p2975
(lp2976
(L377471070L
L0L
(lp2977
(lp2978
tp2979
a(L2120392034L
L0L
(lp2980
(lp2981
tp2982
a(L93837694L
L0L
(lp2983
(lp2984
tp2985
a(L4091421822L
L0L
(lp2986
(lp2987
tp2988
a(L223163117L
L3785322319L
(lp2989
(lp2990
V__assert_func
p2991
atp2992
a(L1501978455L
L0L
(lp2993
(lp2994
tp2995
a(L1761897657L
L3785322319L
(lp2996
(lp2997
V__assert_func
p2998
atp2999
a(L3292079107L
L0L
(lp3000
(lp3001
tp3002
a(L3894463486L
L3785322319L
(lp3003
(lp3004
V__assert_func
p3005
atp3006
a(L3324402342L
L0L
(lp3007
(lp3008
tp3009
a(L1732062019L
L3785322319L
(lp3010
(lp3011
V__assert_func
p3012
atp3013
a(L2023972941L
L3785322319L
(lp3014
(lp3015
Vbootloader_main
p3016
atp3017
a(L1299867982L
L0L
(lp3018
(lp3019
tp3020
a(L3360570486L
L0L
(lp3021
(lp3022
tp3023
atp3024
sI1074270196
(Vrtc_clk_xtal_freq_get
p3025
(lp3026
(L569510608L
L3785322319L
(lp3027
(lp3028
Vclk_val_is_valid
p3029
atp3030
a(L3578812312L
L3785322319L
(lp3031
(lp3032
Vesp_log_early_timestamp
p3033
atp3034
a(L880231726L
L3785322319L
(lp3035
(lp3036
Vreg_val_to_clk_val
p3037
atp3038
atp3039
sI1074270964
(Vrtc_clk_init
p3040
(lp3041
(L3565901067L
L3785322319L
(lp3042
(lp3043
Vrtc_clk_cpu_freq_get
p3044
atp3045
a(L4140200509L
L3785322319L
(lp3046
(lp3047
Vrtc_clk_cpu_freq_set
p3048
atp3049
a(L615925263L
L0L
(lp3050
(lp3051
tp3052
a(L1488627263L
L3785322319L
(lp3053
(lp3054
Vclk_val_is_valid
p3055
atp3056
a(L2514117845L
L3785322319L
(lp3057
(lp3058
Vrtc_clk_xtal_freq_get
p3059
atp3060
a(L1375577398L
L3785322319L
(lp3061
(lp3062
Vrtc_clk_xtal_freq_estimate
p3063
atp3064
a(L1215550948L
L3785322319L
(lp3065
(lp3066
Vesp_log_early_timestamp
p3067
atp3068
a(L518612852L
L3785322319L
(lp3069
(lp3070
Vclk_val_is_valid
p3071
atp3072
a(L3183127930L
L3785322319L
(lp3073
(lp3074
Vrtc_clk_xtal_freq_estimate
p3075
atp3076
a(L750635339L
L3785322319L
(lp3077
(lp3078
Vesp_log_early_timestamp
p3079
atp3080
a(L1853191406L
L0L
(lp3081
(lp3082
tp3083
a(L342380608L
L1157885199L
(lp3084
(lp3085
Vrtc_clk_xtal_freq_update
p3086
aVrtc_clk_apb_freq_update
p3087
aVrtc_clk_cpu_freq_set
p3088
aVrtc_clk_cpu_freq_value
p3089
aVrtc_clk_cpu_freq_value
p3090
atp3091
a(L3804637084L
L3785322319L
(lp3092
(lp3093
Vrtc_clk_32k_enable
p3094
atp3095
a(L3016870L
L0L
(lp3096
(lp3097
tp3098
a(L3193366786L
L3785322319L
(lp3099
(lp3100
Vrtc_clk_8m_enable
p3101
atp3102
a(L2766966958L
L1880226080L
(lp3103
(lp3104
Vrtc_clk_fast_freq_set
p3105
aVrtc_clk_slow_freq_set
p3106
atp3107
atp3108
sI1074240248
(Vverify_image_header
p3109
(lp3110
(L171376062L
L0L
(lp3111
(lp3112
tp3113
a(L2910371777L
L0L
(lp3114
(lp3115
tp3116
a(L965741453L
L3785322319L
(lp3117
(lp3118
Vesp_log_early_timestamp
p3119
atp3120
a(L1299866312L
L0L
(lp3121
(lp3122
tp3123
a(L702739456L
L0L
(lp3124
(lp3125
tp3126
a(L3710928811L
L3785322319L
(lp3127
(lp3128
Vbootloader_common_check_chip_validity
p3129
atp3130
a(L702739456L
L0L
(lp3131
(lp3132
tp3133
a(L3028481L
L0L
(lp3134
(lp3135
tp3136
a(L3270243289L
L0L
(lp3137
(lp3138
tp3139
a(L4248891373L
L3785322319L
(lp3140
(lp3141
Vesp_log_early_timestamp
p3142
atp3143
a(L385352084L
L0L
(lp3144
(lp3145
tp3146
a(L3930724485L
L3785322319L
(lp3147
(lp3148
Vesp_log_early_timestamp
p3149
atp3150
a(L3360570486L
L0L
(lp3151
(lp3152
tp3153
atp3154
sI1074239992
(Vverify_segment_header
p3155
(lp3156
(L3674778058L
L0L
(lp3157
(lp3158
tp3159
a(L1322576423L
L0L
(lp3160
(lp3161
tp3162
a(L3028481L
L0L
(lp3163
(lp3164
tp3165
a(L1269979622L
L3785322319L
(lp3166
(lp3167
Vesp_log_early_timestamp
p3168
atp3169
a(L536784482L
L3785322319L
(lp3170
(lp3171
Vshould_map
p3172
atp3173
a(L3496178735L
L0L
(lp3174
(lp3175
tp3176
a(L2910371777L
L0L
(lp3177
(lp3178
tp3179
a(L1487972665L
L3785322319L
(lp3180
(lp3181
Vesp_log_early_timestamp
p3182
atp3183
a(L4046073974L
L0L
(lp3184
(lp3185
tp3186
a(L2993202392L
L0L
(lp3187
(lp3188
tp3189
a(L2993202392L
L0L
(lp3190
(lp3191
tp3192
a(L4046073974L
L0L
(lp3193
(lp3194
tp3195
atp3196
ssS'functionsdups'
p3197
g11
((lp3198
tp3199
Rp3200
sS'immediatedups'
p3201
g11
((lp3202
tp3203
Rp3204
sS'functiondups'
p3205
g11
((lp3206
tp3207
Rp3208
sS'fuzzy'
p3209
(dp3210
L4061702297L
I1074242116
sL381930313L
I1074240108
sL750476080L
I1074270964
sL3495415001L
I1074239724
sL3669996080L
I1074236392
sL2923369897L
I1074240636
sL3816383215L
I1074238564
sL1020878798L
I1074241092
sL3685116478L
I1074238924
sL3881399234L
I1074238084
sL312818747L
I1074237996
sL1622145584L
I1074235608
sL2154375542L
I1074267888
sL1420005888L
I1074269220
sL114144873L
I1074266872
sL3110146889L
I1074238356
sL1991897232L
I1074242432
sL1766137975L
I1074269156
sL2723847017L
I1074237012
sL275633497L
I1074268144
sL3619350029L
I1074240380
sL2919037255L
I1074267264
sL578413630L
I1074240248
sL533883930L
I1074267620
sL746513591L
I1074236272
sL433784338L
I1074267032
sL1083976790L
I1074239252
sL3481520713L
I1074242484
sL1058358745L
I1074271684
sL4160102055L
I1074268112
sL545460565L
I1074266948
sL356211301L
I1074240704
sL4270185191L
I1074269752
sL2705984041L
I1074242168
sL3380377753L
I1074242592
sL138378967L
I1074236776
sL2262558768L
I1074239468
sL3128965227L
I1074239992
sL1178348887L
I1074268884
sL3706231047L
I1074239560
sL2587589066L
I1074270496
sL4155364446L
I1074267512
sL3375802432L
I1074270252
sL1016692206L
I1074269436
sL59547383L
I1074236572
sL846681611L
I1074240544
sL3965284519L
I1074241692
sL122671152L
I1074235080
ssb.