ccopy_reg
_reconstructor
p0
(crizzo
RizzoSignature
p1
c__builtin__
object
p2
Ntp3
Rp4
(dp5
S'formal'
p6
(dp7
L61540265L
I1074234692
sL3659321364L
I1074270440
sL540081209L
I1074239244
sL853180112L
I1074237316
sL1741170115L
I1074238036
sL373123120L
I1074269824
sL2156867713L
I1074267864
sL1232716141L
I1074236556
sL1360911115L
I1074240540
sL3618917292L
I1074241364
sL2073009557L
I1074247224
sL502848738L
I1074247504
sL900910504L
I1074247972
sL4213015302L
I1074242660
sL1801846340L
I1074243760
sL104522008L
I1074236956
sL1112770929L
I1074238316
sL2028381634L
I1074245432
sL2410864020L
I1074240304
sL2445388778L
I1074242980
sL1010441494L
I1074246820
sL3567680394L
I1074267139
sL2598362863L
I1074240516
sL4242792915L
I1074243072
sL2678156944L
I1074246908
sL509356399L
I1074236912
sL1630338079L
I1074269572
sL4287315134L
I1074240996
sL2896295319L
I1074236808
sL2481804762L
I1074235580
sL3639103967L
I1074245400
sL2590834774L
I1074270520
sL1368716712L
I1074239212
sL4114820221L
I1074267880
sL493878352L
I1074237332
sL3955236482L
I1074238644
sL585514402L
I1074236492
sL1824840579L
I1074235828
sL1507490717L
I1074246380
sL3625811281L
I1074243500
sL651330460L
I1074240596
sL4261658967L
I1074236720
sL1695568196L
I1074237712
sL3013424584L
I1074270280
sL1585823442L
I1074245572
sL25036838L
I1074245600
sL2382325156L
I1074246188
sL1868488962L
I1074240748
sL1627375778L
I1074236476
sL3805451186L
I1074268100
sL2657357824L
I1074237012
sL2985970834L
I1074247036
sL2764339374L
I1074236296
sL3883189251L
I1074243368
sL337799000L
I1074236680
sL367868055L
I1074239724
sL1040838514L
I1074245976
sL385498759L
I1074239812
sL1992937140L
I1074248004
sL727624926L
I1074237540
sL1186130482L
I1074269412
sL676927194L
I1074269564
sL139308489L
I1074237296
sL1410444436L
I1074269344
sL3307282855L
I1074238196
sL741959870L
I1074240940
sL3892535944L
I1074242692
sL612086517L
I1074235192
sL1163875535L
I1074268856
sL864589083L
I1074246280
sL3413154020L
I1074246336
sL1285310218L
I1074269328
sL431125802L
I1074246036
sL1497129124L
I1074246396
sL2518468486L
I1074243180
sL625156568L
I1074245636
sL2309182783L
I1074267704
sL763930644L
I1074269652
sL640894352L
I1074239012
sL3505677393L
I1074268672
sL1071491194L
I1074247108
sL4204212784L
I1074269368
sL1652900655L
I1074238632
sL790155698L
I1074240500
sL2598842445L
I1074245084
sL2992594165L
I1074245504
sL2644507700L
I1074237764
sL1780788104L
I1074236444
sL3734857008L
I1074245696
sL345561143L
I1074246212
sL493999838L
I1074267812
sL2997001746L
I1074237256
sL3848231147L
I1074240120
sL2819127986L
I1074236976
sL3871468927L
I1074239128
sL25916491L
I1074245860
sL1164083360L
I1074235536
sL1242724561L
I1074235484
sL109806152L
I1074247080
sL2759391678L
I1074236880
sL517934101L
I1074241576
sL2027301149L
I1074239452
sL2249539038L
I1074240048
sL975074000L
I1074240140
sL308893372L
I1074238056
sL1157603369L
I1074269604
sL1257945634L
I1074269440
sL2263182908L
I1074238216
sL2986666973L
I1074242196
sL188664287L
I1074235160
sL2303043751L
I1074246296
sL2959238529L
I1074237428
sL4072204123L
I1074235716
sL752881925L
I1074239780
sL692536993L
I1074237400
sL2959306890L
I1074237508
sL2853741553L
I1074241456
sL3714003380L
I1074243120
sL3843369465L
I1074236792
sL2761713522L
I1074244496
sL2413443893L
I1074238224
sL1621098576L
I1074242676
sL3608561895L
I1074268840
sL4188344402L
I1074247548
sL163842877L
I1074246780
sL4267894680L
I1074236648
sL1586132593L
I1074246164
sL1697641681L
I1074243672
ssS'immediates'
p8
(dp9
sS'formaldups'
p10
c__builtin__
set
p11
((lp12
tp13
Rp14
sS'stringdups'
p15
g11
((lp16
tp17
Rp18
sS'fuzzydups'
p19
g11
((lp20
tp21
Rp22
sS'strings'
p23
(dp24
sS'functions'
p25
(dp26
I1074240516
(V__assert_func
p27
(lp28
(L3796344637L
L0L
(lp29
(lp30
tp31
a(L106L
L0L
(lp32
(lp33
tp34
atp35
sI1074245636
(Vrtc_clk_bbpll_disable
p36
(lp37
(L1541368290L
L0L
(lp38
(lp39
tp40
a(L391691750L
L0L
(lp41
(lp42
tp43
a(L3360570486L
L0L
(lp44
(lp45
tp46
atp47
sI1074243072
(Vesp_rom_spiflash_wait_idle
p48
(lp49
(L3233076228L
L0L
(lp50
(lp51
tp52
a(L2023766174L
L0L
(lp53
(lp54
tp55
a(L2805934209L
L0L
(lp56
(lp57
tp58
a(L3086959262L
L0L
(lp59
(lp60
tp61
a(L4161019926L
L3785322319L
(lp62
(lp63
Vesp_rom_spiflash_read_status
p64
atp65
atp66
sI1074267136
(V_init
p67
(lp68
(L3493042598L
L0L
(lp69
(lp70
tp71
atp72
sI1074268672
(Vbootloader_clock_configure
p73
(lp74
(L1154001737L
L1880226080L
(lp75
(lp76
Vesp_rom_uart_tx_wait_idle
p77
aVefuse_hal_chip_revision
p78
atp79
a(L1021040686L
L0L
(lp80
(lp81
tp82
a(L4237109696L
L3785322319L
(lp83
(lp84
Vrtc_clk_apb_freq_get
p85
atp86
a(L1955963821L
L1832448559L
(lp87
(lp88
Vrtc_clk_slow_freq_get
p89
aVrtc_clk_fast_freq_get
p90
aVrtc_clk_init
p91
atp92
a(L2925377706L
L0L
(lp93
(lp94
tp95
a(L3864824743L
L0L
(lp96
(lp97
tp98
a(L106L
L0L
(lp99
(lp100
tp101
atp102
sI1074269440
(Vbootloader_config_wdt
p103
(lp104
(L3983345786L
L505859776L
(lp105
(lp106
Vwdt_hal_write_protect_disable
p107
aVwdt_hal_set_flashboot_en
p108
aVwdt_hal_write_protect_enable
p109
aVwdt_hal_init
p110
aVrtc_clk_slow_freq_get_hz
p111
aVwdt_hal_write_protect_disable
p112
aVwdt_hal_config_stage
p113
aVwdt_hal_enable
p114
aVwdt_hal_write_protect_enable
p115
aVwdt_hal_write_protect_disable
p116
aVwdt_hal_set_flashboot_en
p117
aVwdt_hal_write_protect_enable
p118
atp119
atp120
sI1074239244
(Vbootloader_utility_load_partition_table
p121
(lp122
(L891155220L
L3785322319L
(lp123
(lp124
Vbootloader_mmap
p125
atp126
a(L211820338L
L3785322319L
(lp127
(lp128
Vesp_log_early_timestamp
p129
atp130
a(L2258688482L
L0L
(lp131
(lp132
tp133
a(L3360570486L
L0L
(lp134
(lp135
tp136
a(L1520382514L
L3785322319L
(lp137
(lp138
Vesp_partition_table_verify
p139
atp140
a(L644337203L
L3785322319L
(lp141
(lp142
Vesp_log_early_timestamp
p143
atp144
a(L148985701L
L0L
(lp145
(lp146
tp147
a(L3020187L
L0L
(lp148
(lp149
tp150
a(L4067319519L
L0L
(lp151
(lp152
tp153
a(L3806571235L
L0L
(lp154
(lp155
tp156
a(L2247926755L
L3785322319L
(lp157
(lp158
Vbootloader_munmap
p159
atp160
a(L1036489382L
L0L
(lp161
(lp162
tp163
a(L3020187L
L0L
(lp164
(lp165
tp166
a(L1699092113L
L0L
(lp167
(lp168
tp169
a(L3926410636L
L0L
(lp170
(lp171
tp172
a(L3977772390L
L0L
(lp173
(lp174
tp175
a(L1535150665L
L0L
(lp176
(lp177
tp178
a(L2387139071L
L0L
(lp179
(lp180
tp181
a(L507291053L
L0L
(lp182
(lp183
tp184
atp185
sI1074267139
(V_text_start
p186
(lp187
(L1817914933L
L0L
(lp188
(lp189
tp190
atp191
sI1074238216
(Vbootloader_mmap_get_free_pages
p192
(lp193
(L1496516875L
L0L
(lp194
(lp195
tp196
atp197
sI1074236680
(Vefuse_hal_flash_encryption_enabled
p198
(lp199
(L2698760418L
L0L
(lp200
(lp201
tp202
a(L2910371777L
L0L
(lp203
(lp204
tp205
a(L3360570486L
L0L
(lp206
(lp207
tp208
a(L3016870L
L0L
(lp209
(lp210
tp211
a(L3745038218L
L0L
(lp212
(lp213
tp214
a(L957607403L
L0L
(lp215
(lp216
tp217
atp218
sI1074246164
(Vrtc_clk_8m_enabled
p219
(lp220
(L334956029L
L0L
(lp221
(lp222
tp223
atp224
sI1074238224
(Vbootloader_fill_random
p225
(lp226
(L3026789978L
L0L
(lp227
(lp228
tp229
a(L789132038L
L0L
(lp230
(lp231
tp232
a(L97689L
L0L
(lp233
(lp234
tp235
a(L3360570486L
L0L
(lp236
(lp237
tp238
a(L3890689824L
L3785322319L
(lp239
(lp240
V__assert_func
p241
atp242
a(L2008660626L
L0L
(lp243
(lp244
tp245
a(L3028481L
L0L
(lp246
(lp247
tp248
a(L983138374L
L0L
(lp249
(lp250
tp251
a(L2607138306L
L0L
(lp252
(lp253
tp254
a(L1982128194L
L0L
(lp255
(lp256
tp257
atp258
sI1074237712
(Vbootloader_munmap
p259
(lp260
(L1789211019L
L0L
(lp261
(lp262
tp263
a(L488734766L
L0L
(lp264
(lp265
tp266
a(L3360570486L
L0L
(lp267
(lp268
tp269
atp270
sI1074236956
(Vbootloader_common_ota_select_crc
p271
(lp272
(L943698951L
L0L
(lp273
(lp274
tp275
atp276
sI1074236444
(Vbootloader_common_get_chip_ver_pkg
p277
(lp278
(L2768515967L
L0L
(lp279
(lp280
tp281
atp282
sI1074240540
(Vabort
p283
(lp284
(L3722919019L
L0L
(lp285
(lp286
tp287
a(L409471316L
L0L
(lp288
(lp289
tp290
a(L106L
L0L
(lp291
(lp292
tp293
atp294
sI1074245400
(Vwdt_hal_write_protect_disable
p295
(lp296
(L296406190L
L0L
(lp297
(lp298
tp299
a(L4195472003L
L0L
(lp300
(lp301
tp302
a(L3360570486L
L0L
(lp303
(lp304
tp305
a(L1210571996L
L0L
(lp306
(lp307
tp308
atp309
sI1074235160
(Vbootloader_execute_flash_command
p310
(lp311
(L2481595632L
L3785322319L
(lp312
(lp313
Vbootloader_flash_execute_command_common
p314
atp315
atp316
sI1074239780
(Vbootloader_reset
p317
(lp318
(L2270614970L
L3785322319L
(lp319
(lp320
Vbootloader_console_deinit
p321
atp322
a(L106L
L0L
(lp323
(lp324
tp325
atp326
sI1074239012
(Vset_actual_ota_seq
p327
(lp328
(L4094723830L
L0L
(lp329
(lp330
tp331
a(L3659377767L
L0L
(lp332
(lp333
tp334
a(L1844313236L
L1832448559L
(lp335
(lp336
Vbootloader_common_ota_select_crc
p337
aVefuse_hal_flash_encryption_enabled
p338
aVbootloader_flash_erase_sector
p339
atp340
a(L300669811L
L3785322319L
(lp341
(lp342
Vbootloader_flash_write
p343
atp344
a(L3184968423L
L3785322319L
(lp345
(lp346
Vesp_log_early_timestamp
p347
atp348
a(L889933560L
L1880226080L
(lp349
(lp350
Vindex_to_partition
p351
aVbootloader_common_update_rtc_retain_mem
p352
atp353
atp354
sI1074247972
(Vrtc_clk_cal_ratio
p355
(lp356
(L2408046891L
L3785322319L
(lp357
(lp358
Vrtc_clk_cal_internal
p359
atp360
atp361
sI1074246188
(Vrtc_clk_8md256_enabled
p362
(lp363
(L3785451454L
L0L
(lp364
(lp365
tp366
atp367
sI1074241576
(Vprocess_segments
p368
(lp369
(L359986521L
L0L
(lp370
(lp371
tp372
a(L2748309156L
L0L
(lp373
(lp374
tp375
a(L2910670446L
L0L
(lp376
(lp377
tp378
a(L106L
L0L
(lp379
(lp380
tp381
a(L2587042390L
L0L
(lp382
(lp383
tp384
a(L2510132527L
L3785322319L
(lp385
(lp386
Vesp_log_early_timestamp
p387
atp388
a(L1007910832L
L3785322319L
(lp389
(lp390
Vbootloader_flash_read
p391
atp392
a(L3941638617L
L3785322319L
(lp393
(lp394
Vesp_log_early_timestamp
p395
atp396
a(L3360570486L
L0L
(lp397
(lp398
tp399
a(L1890170661L
L0L
(lp400
(lp401
tp402
a(L4138551778L
L3785322319L
(lp403
(lp404
Vbootloader_sha256_data
p405
atp406
a(L3910643394L
L0L
(lp407
(lp408
tp409
a(L790360741L
L0L
(lp410
(lp411
tp412
a(L4278197902L
L0L
(lp413
(lp414
tp415
a(L4022246099L
L0L
(lp416
(lp417
tp418
a(L106L
L0L
(lp419
(lp420
tp421
a(L3191688883L
L0L
(lp422
(lp423
tp424
a(L3656641238L
L0L
(lp425
(lp426
tp427
a(L2366675560L
L3785322319L
(lp428
(lp429
Vesp_log_early_timestamp
p430
atp431
a(L3648687041L
L0L
(lp432
(lp433
tp434
a(L310086638L
L0L
(lp435
(lp436
tp437
a(L2257593381L
L3785322319L
(lp438
(lp439
Vesp_log_early_timestamp
p440
atp441
a(L1551654749L
L3785322319L
(lp442
(lp443
Vverify_load_addresses
p444
atp445
a(L106L
L0L
(lp446
(lp447
tp448
a(L238852646L
L0L
(lp449
(lp450
tp451
a(L2655382944L
L0L
(lp452
(lp453
tp454
a(L3735077394L
L3785322319L
(lp455
(lp456
Vbootloader_mmap
p457
atp458
a(L3366312780L
L3785322319L
(lp459
(lp460
Vesp_log_early_timestamp
p461
atp462
a(L292658464L
L0L
(lp463
(lp464
tp465
a(L3488251118L
L0L
(lp466
(lp467
tp468
a(L1652679798L
L3785322319L
(lp469
(lp470
Vbootloader_munmap
p471
atp472
a(L1820299912L
L0L
(lp473
(lp474
tp475
a(L1782223905L
L3785322319L
(lp476
(lp477
Vbootloader_fill_random
p478
atp479
a(L3570641403L
L0L
(lp480
(lp481
tp482
a(L3574335487L
L0L
(lp483
(lp484
tp485
a(L3450268858L
L0L
(lp486
(lp487
tp488
a(L3021749L
L0L
(lp489
(lp490
tp491
a(L4179164843L
L0L
(lp492
(lp493
tp494
a(L1084626871L
L0L
(lp495
(lp496
tp497
a(L2902417580L
L0L
(lp498
(lp499
tp500
a(L3717797903L
L0L
(lp501
(lp502
tp503
a(L1797921642L
L0L
(lp504
(lp505
tp506
a(L3425755096L
L0L
(lp507
(lp508
tp509
a(L3396129621L
L0L
(lp510
(lp511
tp512
a(L670934548L
L0L
(lp513
(lp514
tp515
a(L363643669L
L3785322319L
(lp516
(lp517
Vbootloader_sha256_data
p518
atp519
a(L90548756L
L0L
(lp520
(lp521
tp522
a(L4195963580L
L0L
(lp523
(lp524
tp525
a(L4112551030L
L0L
(lp526
(lp527
tp528
a(L617933722L
L0L
(lp529
(lp530
tp531
a(L819370645L
L3785322319L
(lp532
(lp533
Vshould_load
p534
atp535
a(L3780737284L
L0L
(lp536
(lp537
tp538
a(L3028481L
L0L
(lp539
(lp540
tp541
a(L2136754140L
L3785322319L
(lp542
(lp543
Vbootloader_mmap_get_free_pages
p544
atp545
a(L3028481L
L0L
(lp546
(lp547
tp548
a(L1228460392L
L0L
(lp549
(lp550
tp551
atp552
sI1074243368
(Vesp_rom_spiflash_erase_sector
p553
(lp554
(L2108942149L
L0L
(lp555
(lp556
tp557
a(L2258688483L
L0L
(lp558
(lp559
tp560
a(L3360570486L
L0L
(lp561
(lp562
tp563
a(L3212356251L
L3785322319L
(lp564
(lp565
Vesp_rom_spiflash_enable_write
p566
atp567
a(L184152988L
L0L
(lp568
(lp569
tp570
a(L912838202L
L3785322319L
(lp571
(lp572
Vesp_rom_spiflash_wait_idle
p573
atp574
a(L3333707777L
L0L
(lp575
(lp576
tp577
a(L3582858798L
L3785322319L
(lp578
(lp579
Vesp_rom_spiflash_wait_idle
p580
atp581
atp582
sI1074267704
(Vcall_start_cpu0
p583
(lp584
(L1137852827L
L0L
(lp585
(lp586
tp587
a(L549459388L
L0L
(lp588
(lp589
tp590
a(L3212347974L
L3785322319L
(lp591
(lp592
Vbootloader_init
p593
atp594
a(L94425498L
L3785322319L
(lp595
(lp596
Vbootloader_reset
p597
atp598
a(L1122046408L
L0L
(lp599
(lp600
tp601
a(L4099474112L
L0L
(lp602
(lp603
tp604
a(L4004585570L
L1880226080L
(lp605
(lp606
Vbootloader_utility_load_boot_image_from_deep_sleep
p607
aVbootloader_utility_load_partition_table
p608
atp609
a(L2761094216L
L3785322319L
(lp610
(lp611
Vesp_log_early_timestamp
p612
atp613
a(L1507585835L
L3785322319L
(lp614
(lp615
Vbootloader_utility_get_selected_boot_partition
p616
atp617
a(L3548846595L
L1880226080L
(lp618
(lp619
Vbootloader_common_get_reset_reason
p620
aVbootloader_utility_load_boot_image
p621
atp622
atp623
sI1074270520
(Vmpu_hal_set_region_access
p624
(lp625
(L3538356822L
L0L
(lp626
(lp627
tp628
a(L2902417580L
L0L
(lp629
(lp630
tp631
a(L3020187L
L0L
(lp632
(lp633
tp634
a(L3020187L
L0L
(lp635
(lp636
tp637
a(L3360570486L
L0L
(lp638
(lp639
tp640
a(L2258718273L
L0L
(lp641
(lp642
tp643
a(L3446648619L
L0L
(lp644
(lp645
tp646
a(L3739532189L
L0L
(lp647
(lp648
tp649
a(L1300789895L
L0L
(lp650
(lp651
tp652
a(L3472092938L
L0L
(lp653
(lp654
tp655
atp656
sI1074243120
(Vesp_rom_spiflash_enable_write
p657
(lp658
(L2684680748L
L3785322319L
(lp659
(lp660
Vesp_rom_spiflash_wait_idle
p661
atp662
a(L3137194272L
L0L
(lp663
(lp664
tp665
a(L2258718275L
L0L
(lp666
(lp667
tp668
a(L99543895L
L0L
(lp669
(lp670
tp671
a(L2993202392L
L0L
(lp672
(lp673
tp674
a(L1804543818L
L3785322319L
(lp675
(lp676
Vesp_rom_spiflash_read_status
p677
atp678
atp679
sI1074240304
(Vbootloader_sha256_finish
p680
(lp681
(L4066096136L
L0L
(lp682
(lp683
tp684
a(L3063758113L
L0L
(lp685
(lp686
tp687
a(L3454655586L
L3785322319L
(lp688
(lp689
V__assert_func
p690
atp691
a(L3020204L
L0L
(lp692
(lp693
tp694
a(L1104753259L
L0L
(lp695
(lp696
tp697
a(L2534656226L
L0L
(lp698
(lp699
tp700
a(L1082832487L
L3785322319L
(lp701
(lp702
Vbootloader_sha256_data
p703
atp704
a(L1504299746L
L0L
(lp705
(lp706
tp707
a(L683096945L
L3785322319L
(lp708
(lp709
Vbootloader_sha256_data
p710
atp711
a(L1549564440L
L0L
(lp712
(lp713
tp714
a(L657425439L
L0L
(lp715
(lp716
tp717
a(L3221230387L
L0L
(lp718
(lp719
tp720
a(L657425439L
L0L
(lp721
(lp722
tp723
a(L4052418606L
L0L
(lp724
(lp725
tp726
a(L981706553L
L0L
(lp727
(lp728
tp729
a(L3347778L
L0L
(lp730
(lp731
tp732
a(L3360570486L
L0L
(lp733
(lp734
tp735
atp736
sI1074240048
(Vindex_to_partition
p737
(lp738
(L4066096119L
L0L
(lp739
(lp740
tp741
a(L1739185955L
L0L
(lp742
(lp743
tp744
a(L2171552758L
L0L
(lp745
(lp746
tp747
a(L2808906342L
L0L
(lp748
(lp749
tp750
a(L2101481936L
L0L
(lp751
(lp752
tp753
a(L3698927993L
L0L
(lp754
(lp755
tp756
a(L2808826781L
L0L
(lp757
(lp758
tp759
a(L3003398163L
L0L
(lp760
(lp761
tp762
a(L1104460200L
L0L
(lp763
(lp764
tp765
a(L1087646172L
L0L
(lp766
(lp767
tp768
atp769
sI1074236720
(Vefuse_hal_get_major_chip_version
p770
(lp771
(L2067932744L
L0L
(lp772
(lp773
tp774
a(L894792960L
L0L
(lp775
(lp776
tp777
a(L724635033L
L0L
(lp778
(lp779
tp780
a(L3360570486L
L0L
(lp781
(lp782
tp783
atp784
sI1074236976
(Vbootloader_common_ota_select_valid
p785
(lp786
(L1563399710L
L3785322319L
(lp787
(lp788
Vbootloader_common_ota_select_invalid
p789
atp790
a(L3814720849L
L3785322319L
(lp791
(lp792
Vbootloader_common_ota_select_crc
p793
atp794
a(L3360570486L
L0L
(lp795
(lp796
tp797
atp798
sI1074270512
(Vbootloader_print_banner
p799
(lp800
(L2100504542L
L0L
(lp801
(lp802
tp803
atp804
sI1074236476
(Vesp_cpu_in_ocd_debug_mode
p805
(lp806
(L3653986668L
L0L
(lp807
(lp808
tp809
atp810
sI1074235192
(Vbootloader_flash_unlock
p811
(lp812
(L142706334L
L3785322319L
(lp813
(lp814
Vesp_rom_spiflash_wait_idle
p815
atp816
a(L4024621237L
L0L
(lp817
(lp818
tp819
a(L4292483033L
L3785322319L
(lp820
(lp821
Vbootloader_execute_flash_command
p822
atp823
a(L106L
L0L
(lp824
(lp825
tp826
a(L1303560644L
L0L
(lp827
(lp828
tp829
a(L1419965066L
L0L
(lp830
(lp831
tp832
a(L106L
L0L
(lp833
(lp834
tp835
a(L1633120054L
L0L
(lp836
(lp837
tp838
a(L106L
L0L
(lp839
(lp840
tp841
a(L2974484771L
L0L
(lp842
(lp843
tp844
a(L106L
L0L
(lp845
(lp846
tp847
a(L1481761147L
L1880226080L
(lp848
(lp849
Vbootloader_execute_flash_command
p850
aVbootloader_execute_flash_command
p851
atp852
a(L2258807654L
L0L
(lp853
(lp854
tp855
a(L489806350L
L1832448559L
(lp856
(lp857
Vesp_rom_spiflash_wait_idle
p858
aVbootloader_execute_flash_command
p859
aVbootloader_execute_flash_command
p860
atp861
a(L879744646L
L1832448559L
(lp862
(lp863
Vesp_rom_spiflash_wait_idle
p864
aVbootloader_execute_flash_command
p865
aVbootloader_execute_flash_command
p866
atp867
a(L1840772931L
L1880226080L
(lp868
(lp869
Vesp_rom_spiflash_wait_idle
p870
aVbootloader_execute_flash_command
p871
atp872
a(L2993202392L
L0L
(lp873
(lp874
tp875
a(L508800419L
L1880226080L
(lp876
(lp877
Vbootloader_execute_flash_command
p878
aVbootloader_execute_flash_command
p879
atp880
a(L1303560369L
L0L
(lp881
(lp882
tp883
a(L1596544945L
L0L
(lp884
(lp885
tp886
a(L97689L
L0L
(lp887
(lp888
tp889
a(L106L
L0L
(lp890
(lp891
tp892
atp893
sI1074245432
(Vwdt_hal_enable
p894
(lp895
(L4029830118L
L0L
(lp896
(lp897
tp898
a(L3634439744L
L0L
(lp899
(lp900
tp901
a(L3360570486L
L0L
(lp902
(lp903
tp904
a(L2011576586L
L0L
(lp905
(lp906
tp907
atp908
sI1074247224
(Vrtc_clk_cpu_freq_set_config
p909
(lp910
(L3143657327L
L3785322319L
(lp911
(lp912
Vrtc_clk_xtal_freq_get
p913
atp914
a(L1828795533L
L1880226080L
(lp915
(lp916
Vrtc_clk_cpu_freq_to_xtal
p917
aVrtc_clk_wait_for_slow_cycle
p918
atp919
a(L94425498L
L3785322319L
(lp920
(lp921
Vrtc_clk_bbpll_disable
p922
atp923
a(L3978916712L
L0L
(lp924
(lp925
tp926
a(L2977209154L
L0L
(lp927
(lp928
tp929
a(L2736411858L
L3785322319L
(lp930
(lp931
Vrtc_clk_cpu_freq_to_xtal
p932
atp933
a(L3360570486L
L0L
(lp934
(lp935
tp936
a(L3020187L
L0L
(lp937
(lp938
tp939
a(L106L
L0L
(lp940
(lp941
tp942
a(L4083341717L
L2485746240L
(lp943
(lp944
Vrtc_clk_wait_for_slow_cycle
p945
aVrtc_clk_xtal_freq_get
p946
aVrtc_clk_bbpll_configure
p947
aVrtc_clk_cpu_freq_to_pll_mhz
p948
atp949
a(L3020187L
L0L
(lp950
(lp951
tp952
a(L106L
L0L
(lp953
(lp954
tp955
a(L3524505358L
L0L
(lp956
(lp957
tp958
atp959
sI1074270280
(Vrtc_vddsdio_get_config
p960
(lp961
(L3678440771L
L0L
(lp962
(lp963
tp964
a(L147025923L
L0L
(lp965
(lp966
tp967
a(L318395269L
L0L
(lp968
(lp969
tp970
a(L3103186839L
L0L
(lp971
(lp972
tp973
a(L4009849848L
L0L
(lp974
(lp975
tp976
a(L1116012092L
L0L
(lp977
(lp978
tp979
a(L1719615367L
L0L
(lp980
(lp981
tp982
a(L445527L
L0L
(lp983
(lp984
tp985
atp986
sI1074239812
(Vbootloader_utility_load_boot_image
p987
(lp988
(L3912290829L
L0L
(lp989
(lp990
tp991
a(L1971697651L
L3785322319L
(lp992
(lp993
Vtry_load_partition
p994
atp995
a(L1305243774L
L3785322319L
(lp996
(lp997
Vload_image
p998
atp999
a(L1416822453L
L3785322319L
(lp1000
(lp1001
Vesp_log_early_timestamp
p1002
atp1003
a(L3827921190L
L3785322319L
(lp1004
(lp1005
Vbootloader_reset
p1006
atp1007
a(L2542673780L
L3785322319L
(lp1008
(lp1009
Vindex_to_partition
p1010
atp1011
a(L1204373741L
L3785322319L
(lp1012
(lp1013
Vtry_load_partition
p1014
atp1015
a(L4185757536L
L0L
(lp1016
(lp1017
tp1018
a(L2070875117L
L3785322319L
(lp1019
(lp1020
Vset_actual_ota_seq
p1021
atp1022
a(L1868897605L
L3785322319L
(lp1023
(lp1024
Vlog_invalid_app_partition
p1025
atp1026
a(L831650730L
L0L
(lp1027
(lp1028
tp1029
a(L3021737L
L0L
(lp1030
(lp1031
tp1032
a(L695456438L
L0L
(lp1033
(lp1034
tp1035
a(L2389214760L
L3785322319L
(lp1036
(lp1037
Vtry_load_partition
p1038
atp1039
a(L396683937L
L3785322319L
(lp1040
(lp1041
Vesp_log_early_timestamp
p1042
atp1043
a(L2185156151L
L3785322319L
(lp1044
(lp1045
Vindex_to_partition
p1046
atp1047
a(L1074657773L
L3785322319L
(lp1048
(lp1049
Vtry_load_partition
p1050
atp1051
a(L3061261803L
L0L
(lp1052
(lp1053
tp1054
a(L3582858798L
L3785322319L
(lp1055
(lp1056
Vlog_invalid_app_partition
p1057
atp1058
a(L2096375549L
L3785322319L
(lp1059
(lp1060
Vesp_log_early_timestamp
p1061
atp1062
atp1063
sI1074237764
(Vbootloader_flash_read
p1064
(lp1065
(L2699333355L
L0L
(lp1066
(lp1067
tp1068
a(L2754651132L
L3785322319L
(lp1069
(lp1070
Vesp_log_early_timestamp
p1071
atp1072
a(L44113432L
L0L
(lp1073
(lp1074
tp1075
a(L1299867982L
L0L
(lp1076
(lp1077
tp1078
a(L3360570486L
L0L
(lp1079
(lp1080
tp1081
a(L2660352519L
L0L
(lp1082
(lp1083
tp1084
a(L521140716L
L3785322319L
(lp1085
(lp1086
Vesp_log_early_timestamp
p1087
atp1088
a(L162336582L
L0L
(lp1089
(lp1090
tp1091
a(L1181808201L
L3785322319L
(lp1092
(lp1093
Vesp_log_early_timestamp
p1094
atp1095
a(L3020204L
L0L
(lp1096
(lp1097
tp1098
a(L1398573769L
L0L
(lp1099
(lp1100
tp1101
a(L97422L
L0L
(lp1102
(lp1103
tp1104
a(L1194062413L
L0L
(lp1105
(lp1106
tp1107
a(L3013280137L
L0L
(lp1108
(lp1109
tp1110
a(L3491746890L
L3785322319L
(lp1111
(lp1112
Vesp_log_early_timestamp
p1113
atp1114
a(L3393724977L
L0L
(lp1115
(lp1116
tp1117
a(L3779829298L
L0L
(lp1118
(lp1119
tp1120
a(L3358204041L
L1880226080L
(lp1121
(lp1122
Vesp_rom_spiflash_read
p1123
aVspi_to_esp_err
p1124
atp1125
atp1126
sI1074237508
(Vspi_to_esp_err
p1127
(lp1128
(L2937216023L
L0L
(lp1129
(lp1130
tp1131
a(L366093042L
L0L
(lp1132
(lp1133
tp1134
a(L573641659L
L0L
(lp1135
(lp1136
tp1137
a(L3126521138L
L0L
(lp1138
(lp1139
tp1140
atp1141
sI1074234692
(Vbootloader_flash_execute_command_common
p1142
(lp1143
(L2935702355L
L0L
(lp1144
(lp1145
tp1146
a(L120555589L
L0L
(lp1147
(lp1148
tp1149
a(L2890397610L
L3785322319L
(lp1150
(lp1151
V__assert_func
p1152
atp1153
a(L3021749L
L0L
(lp1154
(lp1155
tp1156
a(L153183703L
L0L
(lp1157
(lp1158
tp1159
a(L901582467L
L0L
(lp1160
(lp1161
tp1162
a(L695082870L
L0L
(lp1163
(lp1164
tp1165
a(L4024113366L
L0L
(lp1166
(lp1167
tp1168
a(L3998568023L
L0L
(lp1169
(lp1170
tp1171
a(L163389185L
L0L
(lp1172
(lp1173
tp1174
a(L2336699050L
L0L
(lp1175
(lp1176
tp1177
a(L4038246755L
L0L
(lp1178
(lp1179
tp1180
a(L1065820671L
L0L
(lp1181
(lp1182
tp1183
a(L3041777204L
L0L
(lp1184
(lp1185
tp1186
a(L3333696662L
L0L
(lp1187
(lp1188
tp1189
a(L963425213L
L0L
(lp1190
(lp1191
tp1192
a(L2106665914L
L0L
(lp1193
(lp1194
tp1195
a(L3360570486L
L0L
(lp1196
(lp1197
tp1198
atp1199
sI1074235716
(Vbootloader_flash_cs_timing_config
p1200
(lp1201
(L1061398432L
L0L
(lp1202
(lp1203
tp1204
atp1205
sI1074246212
(Vrtc_clk_slow_freq_set
p1206
(lp1207
(L1591658983L
L0L
(lp1208
(lp1209
tp1210
atp1211
sI1074248004
(Vrtc_clk_wait_for_slow_cycle
p1212
(lp1213
(L274353488L
L0L
(lp1214
(lp1215
tp1216
a(L287687718L
L0L
(lp1217
(lp1218
tp1219
a(L3360570486L
L0L
(lp1220
(lp1221
tp1222
a(L2366481751L
L0L
(lp1223
(lp1224
tp1225
a(L2994547433L
L0L
(lp1226
(lp1227
tp1228
a(L2767723956L
L0L
(lp1229
(lp1230
tp1231
a(L85112325L
L3785322319L
(lp1232
(lp1233
Vesp_log_early_timestamp
p1234
atp1235
atp1236
sI1074245696
(Vrtc_clk_cpu_freq_to_pll_mhz
p1237
(lp1238
(L428013989L
L0L
(lp1239
(lp1240
tp1241
a(L106L
L0L
(lp1242
(lp1243
tp1244
a(L1541997046L
L0L
(lp1245
(lp1246
tp1247
a(L106L
L0L
(lp1248
(lp1249
tp1250
a(L1546614651L
L0L
(lp1251
(lp1252
tp1253
a(L3291461318L
L0L
(lp1254
(lp1255
tp1256
a(L1590486664L
L3785322319L
(lp1257
(lp1258
Vrtc_clk_wait_for_slow_cycle
p1259
atp1260
a(L2673781895L
L1880226080L
(lp1261
(lp1262
Vesp_log_early_timestamp
p1263
aVabort
p1264
atp1265
a(L1183020347L
L0L
(lp1266
(lp1267
tp1268
a(L1305407562L
L0L
(lp1269
(lp1270
tp1271
a(L1306330990L
L0L
(lp1272
(lp1273
tp1274
atp1275
sI1074236492
(Vesp_rom_uart_tx_wait_idle
p1276
(lp1277
(L3780268457L
L0L
(lp1278
(lp1279
tp1280
a(L1301079727L
L0L
(lp1281
(lp1282
tp1283
a(L3597746521L
L0L
(lp1284
(lp1285
tp1286
a(L3694491048L
L0L
(lp1287
(lp1288
tp1289
a(L3055926844L
L0L
(lp1290
(lp1291
tp1292
a(L3360570486L
L0L
(lp1293
(lp1294
tp1295
atp1296
sI1074240588
(Vbootloader_ana_clock_glitch_reset_config
p1297
(lp1298
(L2100504542L
L0L
(lp1299
(lp1300
tp1301
atp1302
sI1074237256
(Vbootloader_common_get_active_otadata
p1303
(lp1304
(L3317503532L
L0L
(lp1305
(lp1306
tp1307
a(L2503049265L
L1832448559L
(lp1308
(lp1309
Vbootloader_common_ota_select_valid
p1310
aVbootloader_common_ota_select_valid
p1311
aVbootloader_common_select_otadata
p1312
atp1313
a(L735741265L
L0L
(lp1314
(lp1315
tp1316
atp1317
sI1074237012
(Vbootloader_common_check_chip_validity
p1318
(lp1319
(L722188971L
L0L
(lp1320
(lp1321
tp1322
a(L98526595L
L3785322319L
(lp1323
(lp1324
Vesp_log_early_timestamp
p1325
atp1326
a(L522103407L
L3785322319L
(lp1327
(lp1328
Vefuse_hal_chip_revision
p1329
atp1330
a(L106L
L0L
(lp1331
(lp1332
tp1333
a(L3681102491L
L0L
(lp1334
(lp1335
tp1336
a(L2449956225L
L3785322319L
(lp1337
(lp1338
Vesp_log_early_timestamp
p1339
atp1340
a(L3028464L
L0L
(lp1341
(lp1342
tp1343
a(L4118102069L
L0L
(lp1344
(lp1345
tp1346
a(L3021749L
L0L
(lp1347
(lp1348
tp1349
a(L1478707893L
L3785322319L
(lp1350
(lp1351
Vesp_log_early_timestamp
p1352
atp1353
a(L1299867982L
L0L
(lp1354
(lp1355
tp1356
a(L3360570486L
L0L
(lp1357
(lp1358
tp1359
atp1360
sI1074238036
(Vbootloader_flash_erase_sector
p1361
(lp1362
(L4129137686L
L1880226080L
(lp1363
(lp1364
Vesp_rom_spiflash_erase_sector
p1365
aVspi_to_esp_err
p1366
atp1367
atp1368
sI1074240596
(Vprocess_checksum
p1369
(lp1370
(L1985325516L
L0L
(lp1371
(lp1372
tp1373
a(L2910371777L
L0L
(lp1374
(lp1375
tp1376
a(L1649277394L
L0L
(lp1377
(lp1378
tp1379
a(L2910371777L
L0L
(lp1380
(lp1381
tp1382
a(L2902417580L
L0L
(lp1383
(lp1384
tp1385
a(L1644002876L
L3785322319L
(lp1386
(lp1387
Vbootloader_sha256_data
p1388
atp1389
a(L3612796056L
L0L
(lp1390
(lp1391
tp1392
a(L1811888222L
L3785322319L
(lp1393
(lp1394
Vbootloader_flash_read
p1395
atp1396
a(L3126521138L
L0L
(lp1397
(lp1398
tp1399
a(L4066593155L
L0L
(lp1400
(lp1401
tp1402
a(L3636796111L
L3785322319L
(lp1403
(lp1404
Vesp_log_early_timestamp
p1405
atp1406
atp1407
sI1074241364
(Vprocess_appended_hash_and_sig
p1408
(lp1409
(L3580132405L
L0L
(lp1410
(lp1411
tp1412
a(L3028481L
L0L
(lp1413
(lp1414
tp1415
a(L1591589631L
L0L
(lp1416
(lp1417
tp1418
a(L22297358L
L0L
(lp1419
(lp1420
tp1421
a(L2752479935L
L0L
(lp1422
(lp1423
tp1424
a(L2549823476L
L3785322319L
(lp1425
(lp1426
Vesp_log_early_timestamp
p1427
atp1428
a(L894030452L
L3785322319L
(lp1429
(lp1430
Vbootloader_flash_read
p1431
atp1432
a(L3871473710L
L0L
(lp1433
(lp1434
tp1435
atp1436
sI1074247504
(Vrtc_clk_apb_freq_get
p1437
(lp1438
(L587082899L
L0L
(lp1439
(lp1440
tp1441
atp1442
sI1074235484
(Vbootloader_flash_read_sfdp
p1443
(lp1444
(L711701400L
L0L
(lp1445
(lp1446
tp1447
a(L3282613751L
L3785322319L
(lp1448
(lp1449
V__assert_func
p1450
atp1451
a(L3704332455L
L3785322319L
(lp1452
(lp1453
Vbootloader_flash_execute_command_common
p1454
atp1455
atp1456
sI1074243672
(Vesp_rom_spiflash_write_encrypted
p1457
(lp1458
(L2107077087L
L0L
(lp1459
(lp1460
tp1461
a(L3355528453L
L0L
(lp1462
(lp1463
tp1464
a(L97689L
L0L
(lp1465
(lp1466
tp1467
a(L3061232074L
L0L
(lp1468
(lp1469
tp1470
a(L314506307L
L0L
(lp1471
(lp1472
tp1473
a(L2903314395L
L3785322319L
(lp1474
(lp1475
Vesp_rom_spiflash_write
p1476
atp1477
a(L2688685393L
L0L
(lp1478
(lp1479
tp1480
a(L735741265L
L0L
(lp1481
(lp1482
tp1483
atp1484
sI1074245976
(Vrtc_clk_32k_enable
p1485
(lp1486
(L753387299L
L0L
(lp1487
(lp1488
tp1489
a(L1067050752L
L3785322319L
(lp1490
(lp1491
Vrtc_clk_32k_enable_common
p1492
atp1493
a(L3360570486L
L0L
(lp1494
(lp1495
tp1496
a(L4286822420L
L0L
(lp1497
(lp1498
tp1499
atp1500
sI1074242660
(Vbootloader_load_image
p1501
(lp1502
(L1155870502L
L3785322319L
(lp1503
(lp1504
Vimage_load
p1505
atp1506
atp1507
sI1074237540
(Vbootloader_mmap
p1508
(lp1509
(L1581567431L
L0L
(lp1510
(lp1511
tp1512
a(L3892446227L
L3785322319L
(lp1513
(lp1514
Vesp_log_early_timestamp
p1515
atp1516
a(L1182811810L
L0L
(lp1517
(lp1518
tp1519
a(L3496950L
L0L
(lp1520
(lp1521
tp1522
a(L1634453665L
L0L
(lp1523
(lp1524
tp1525
a(L3343022830L
L3785322319L
(lp1526
(lp1527
Vesp_log_early_timestamp
p1528
atp1529
a(L941539052L
L0L
(lp1530
(lp1531
tp1532
a(L3218016969L
L3785322319L
(lp1533
(lp1534
Vesp_log_early_timestamp
p1535
atp1536
a(L3862974330L
L0L
(lp1537
(lp1538
tp1539
atp1540
sI1074243180
(Vesp_rom_spiflash_program_page_internal
p1541
(lp1542
(L2569069283L
L0L
(lp1543
(lp1544
tp1545
a(L2258688483L
L0L
(lp1546
(lp1547
tp1548
a(L3360570486L
L0L
(lp1549
(lp1550
tp1551
a(L206943679L
L0L
(lp1552
(lp1553
tp1554
a(L4235661475L
L3785322319L
(lp1555
(lp1556
Vesp_rom_spiflash_wait_idle
p1557
atp1558
a(L1299866312L
L0L
(lp1559
(lp1560
tp1561
a(L3212356251L
L3785322319L
(lp1562
(lp1563
Vesp_rom_spiflash_enable_write
p1564
atp1565
a(L3782192921L
L0L
(lp1566
(lp1567
tp1568
a(L1422523708L
L0L
(lp1569
(lp1570
tp1571
a(L2953702749L
L0L
(lp1572
(lp1573
tp1574
a(L2989032L
L0L
(lp1575
(lp1576
tp1577
a(L1965622133L
L0L
(lp1578
(lp1579
tp1580
a(L2786648825L
L0L
(lp1581
(lp1582
tp1583
a(L1958113242L
L0L
(lp1584
(lp1585
tp1586
a(L106L
L0L
(lp1587
(lp1588
tp1589
a(L4283177684L
L0L
(lp1590
(lp1591
tp1592
a(L1405253496L
L0L
(lp1593
(lp1594
tp1595
a(L1008982881L
L0L
(lp1596
(lp1597
tp1598
a(L1933954923L
L0L
(lp1599
(lp1600
tp1601
a(L3886319556L
L0L
(lp1602
(lp1603
tp1604
a(L2767679583L
L0L
(lp1605
(lp1606
tp1607
atp1608
sI1074238316
(Vbootloader_random_disable
p1609
(lp1610
(L999168281L
L0L
(lp1611
(lp1612
tp1613
atp1614
sI1074238056
(Vbootloader_flash_write
p1615
(lp1616
(L3119145091L
L0L
(lp1617
(lp1618
tp1619
a(L1030178812L
L3785322319L
(lp1620
(lp1621
Vesp_log_early_timestamp
p1622
atp1623
a(L44113432L
L0L
(lp1624
(lp1625
tp1626
a(L1610445075L
L0L
(lp1627
(lp1628
tp1629
a(L735741265L
L0L
(lp1630
(lp1631
tp1632
a(L3291333414L
L0L
(lp1633
(lp1634
tp1635
a(L2835528616L
L3785322319L
(lp1636
(lp1637
Vesp_log_early_timestamp
p1638
atp1639
a(L3283691850L
L0L
(lp1640
(lp1641
tp1642
a(L77950130L
L3785322319L
(lp1643
(lp1644
Vesp_log_early_timestamp
p1645
atp1646
a(L3212356251L
L3785322319L
(lp1647
(lp1648
Vbootloader_flash_unlock
p1649
atp1650
a(L1799218633L
L0L
(lp1651
(lp1652
tp1653
a(L94425498L
L3785322319L
(lp1654
(lp1655
Vesp_rom_spiflash_write_encrypted
p1656
atp1657
a(L2927190544L
L3785322319L
(lp1658
(lp1659
Vspi_to_esp_err
p1660
atp1661
a(L2927190544L
L3785322319L
(lp1662
(lp1663
Vesp_rom_spiflash_write
p1664
atp1665
atp1666
sI1074242676
(Vbootloader_load_image_no_verify
p1667
(lp1668
(L3412781509L
L3785322319L
(lp1669
(lp1670
Vimage_load
p1671
atp1672
atp1673
sI1074269564
(Vbootloader_enable_random
p1674
(lp1675
(L1287383080L
L3785322319L
(lp1676
(lp1677
Vbootloader_random_enable
p1678
atp1679
atp1680
sI1074237296
(Vbootloader_common_reset_rtc_retain_mem
p1681
(lp1682
(L1724897227L
L0L
(lp1683
(lp1684
tp1685
atp1686
sI1074240112
(Vbootloader_debug_buffer
p1687
(lp1688
(L2100504542L
L0L
(lp1689
(lp1690
tp1691
atp1692
sI1074246780
(Vrtc_clk_xtal_freq_get
p1693
(lp1694
(L1867250771L
L0L
(lp1695
(lp1696
tp1697
a(L2847936993L
L0L
(lp1698
(lp1699
tp1700
a(L4096608437L
L0L
(lp1701
(lp1702
tp1703
a(L3360570486L
L0L
(lp1704
(lp1705
tp1706
atp1707
sI1074247036
(Vrtc_clk_xtal_freq_update
p1708
(lp1709
(L2896323702L
L0L
(lp1710
(lp1711
tp1712
a(L3509357017L
L0L
(lp1713
(lp1714
tp1715
a(L3020103887L
L0L
(lp1716
(lp1717
tp1718
atp1719
sI1074247548
(Vrtc_clk_cal_internal
p1720
(lp1721
(L2649289610L
L0L
(lp1722
(lp1723
tp1724
a(L3193325247L
L3785322319L
(lp1725
(lp1726
V__assert_func
p1727
atp1728
a(L3523250182L
L0L
(lp1729
(lp1730
tp1731
a(L3017366L
L0L
(lp1732
(lp1733
tp1734
a(L2781091364L
L0L
(lp1735
(lp1736
tp1737
a(L4169864463L
L1880226080L
(lp1738
(lp1739
Vrtc_clk_8m_enabled
p1740
aVrtc_clk_8md256_enabled
p1741
atp1742
a(L605760050L
L3785322319L
(lp1743
(lp1744
Vrtc_clk_8m_enable
p1745
atp1746
a(L175674145L
L0L
(lp1747
(lp1748
tp1749
a(L3502850147L
L0L
(lp1750
(lp1751
tp1752
a(L97689L
L0L
(lp1753
(lp1754
tp1755
a(L2992166590L
L0L
(lp1756
(lp1757
tp1758
a(L3028464L
L0L
(lp1759
(lp1760
tp1761
a(L3028481L
L0L
(lp1762
(lp1763
tp1764
a(L3450260127L
L0L
(lp1765
(lp1766
tp1767
a(L2952282953L
L3785322319L
(lp1768
(lp1769
Vrtc_clk_xtal_freq_get
p1770
atp1771
a(L2780079961L
L0L
(lp1772
(lp1773
tp1774
a(L963987874L
L0L
(lp1775
(lp1776
tp1777
a(L2721718808L
L3785322319L
(lp1778
(lp1779
Vesp_log_early_timestamp
p1780
atp1781
a(L3360570486L
L0L
(lp1782
(lp1783
tp1784
a(L1631231016L
L0L
(lp1785
(lp1786
tp1787
a(L2312538724L
L0L
(lp1788
(lp1789
tp1790
a(L3028481L
L0L
(lp1791
(lp1792
tp1793
a(L526871854L
L0L
(lp1794
(lp1795
tp1796
a(L755155573L
L3785322319L
(lp1797
(lp1798
Vrtc_clk_8m_enable
p1799
atp1800
a(L3631005548L
L0L
(lp1801
(lp1802
tp1803
a(L125558742L
L0L
(lp1804
(lp1805
tp1806
a(L3352263364L
L0L
(lp1807
(lp1808
tp1809
atp1810
sI1074236792
(Vefuse_hal_get_minor_chip_version
p1811
(lp1812
(L2061258687L
L0L
(lp1813
(lp1814
tp1815
atp1816
sI1074240120
(Vbootloader_sha256_start
p1817
(lp1818
(L1375000715L
L0L
(lp1819
(lp1820
tp1821
atp1822
sI1074242692
(Vesp_partition_table_verify
p1823
(lp1824
(L1518656766L
L0L
(lp1825
(lp1826
tp1827
a(L2292756030L
L0L
(lp1828
(lp1829
tp1830
a(L4287435191L
L0L
(lp1831
(lp1832
tp1833
a(L2910371777L
L0L
(lp1834
(lp1835
tp1836
a(L2810785767L
L0L
(lp1837
(lp1838
tp1839
a(L3360570486L
L0L
(lp1840
(lp1841
tp1842
a(L2334946637L
L0L
(lp1843
(lp1844
tp1845
a(L2478753082L
L0L
(lp1846
(lp1847
tp1848
a(L3020204L
L0L
(lp1849
(lp1850
tp1851
a(L3822482628L
L3785322319L
(lp1852
(lp1853
Vesp_log_early_timestamp
p1854
atp1855
a(L1825202847L
L3785322319L
(lp1856
(lp1857
Vesp_log_early_timestamp
p1858
atp1859
a(L2514424710L
L0L
(lp1860
(lp1861
tp1862
a(L2902417580L
L0L
(lp1863
(lp1864
tp1865
a(L3020204L
L0L
(lp1866
(lp1867
tp1868
a(L2478609298L
L3785322319L
(lp1869
(lp1870
Vesp_log_early_timestamp
p1871
atp1872
a(L1367516498L
L0L
(lp1873
(lp1874
tp1875
a(L852474048L
L0L
(lp1876
(lp1877
tp1878
a(L2902417580L
L0L
(lp1879
(lp1880
tp1881
a(L3822444436L
L3785322319L
(lp1882
(lp1883
Vesp_log_early_timestamp
p1884
atp1885
a(L1613213999L
L0L
(lp1886
(lp1887
tp1888
a(L1167861556L
L0L
(lp1889
(lp1890
tp1891
a(L3260980605L
L0L
(lp1892
(lp1893
tp1894
a(L2910371777L
L0L
(lp1895
(lp1896
tp1897
a(L1235012932L
L0L
(lp1898
(lp1899
tp1900
a(L3441084364L
L3785322319L
(lp1901
(lp1902
Vesp_log_early_timestamp
p1903
atp1904
atp1905
sI1074237316
(Vbootloader_common_get_rtc_retain_mem_partition
p1906
(lp1907
(L1838455070L
L3785322319L
(lp1908
(lp1909
Vcheck_rtc_retain_mem
p1910
atp1911
a(L702736972L
L0L
(lp1912
(lp1913
tp1914
a(L3360570486L
L0L
(lp1915
(lp1916
tp1917
atp1918
sI1074245504
(Vwdt_hal_set_flashboot_en
p1919
(lp1920
(L2375320464L
L0L
(lp1921
(lp1922
tp1923
a(L2716561907L
L0L
(lp1924
(lp1925
tp1926
a(L3360570486L
L0L
(lp1927
(lp1928
tp1929
a(L2060056743L
L0L
(lp1930
(lp1931
tp1932
atp1933
sI1074269824
(Vrtc_clk_init
p1934
(lp1935
(L2649689980L
L0L
(lp1936
(lp1937
tp1938
a(L42671777L
L3785322319L
(lp1939
(lp1940
Vrtc_clk_cpu_freq_to_xtal
p1941
atp1942
a(L3516405175L
L0L
(lp1943
(lp1944
tp1945
a(L4184912069L
L0L
(lp1946
(lp1947
tp1948
a(L2873281153L
L0L
(lp1949
(lp1950
tp1951
a(L912414356L
L3785322319L
(lp1952
(lp1953
Vrtc_clk_xtal_freq_get
p1954
atp1955
a(L766676023L
L1157885199L
(lp1956
(lp1957
Vesp_rom_uart_tx_wait_idle
p1958
aVrtc_clk_xtal_freq_update
p1959
aVrtc_clk_apb_freq_update
p1960
aVrtc_clk_cpu_freq_get_config
p1961
aVrtc_clk_cpu_freq_mhz_to_config
p1962
atp1963
a(L3082022416L
L1880226080L
(lp1964
(lp1965
Vesp_log_early_timestamp
p1966
aVabort
p1967
atp1968
a(L4187693717L
L3785322319L
(lp1969
(lp1970
Vrtc_clk_xtal_freq_estimate
p1971
atp1972
a(L781037620L
L3785322319L
(lp1973
(lp1974
Vesp_log_early_timestamp
p1975
atp1976
a(L4188325301L
L0L
(lp1977
(lp1978
tp1979
a(L1563923531L
L0L
(lp1980
(lp1981
tp1982
a(L106L
L0L
(lp1983
(lp1984
tp1985
a(L4070631878L
L3785322319L
(lp1986
(lp1987
Vrtc_clk_xtal_freq_estimate
p1988
atp1989
a(L106L
L0L
(lp1990
(lp1991
tp1992
a(L456677035L
L3785322319L
(lp1993
(lp1994
Vesp_log_early_timestamp
p1995
atp1996
a(L2436256081L
L3785322319L
(lp1997
(lp1998
Vrtc_clk_cpu_freq_set_config
p1999
atp2000
a(L4168829660L
L3785322319L
(lp2001
(lp2002
Vrtc_clk_32k_enable
p2003
atp2004
a(L3016870L
L0L
(lp2005
(lp2006
tp2007
a(L2765048515L
L3785322319L
(lp2008
(lp2009
Vrtc_clk_8m_enable
p2010
atp2011
a(L530469956L
L1880226080L
(lp2012
(lp2013
Vrtc_clk_fast_freq_set
p2014
aVrtc_clk_slow_freq_set
p2015
atp2016
atp2017
sI1074236556
(Vesp_rom_uart_set_clock_baudrate
p2018
(lp2019
(L1373499653L
L0L
(lp2020
(lp2021
tp2022
a(L3928422248L
L0L
(lp2023
(lp2024
tp2025
a(L1008980025L
L0L
(lp2026
(lp2027
tp2028
a(L865464961L
L0L
(lp2029
(lp2030
tp2031
a(L2805931392L
L0L
(lp2032
(lp2033
tp2034
a(L2314858808L
L0L
(lp2035
(lp2036
tp2037
atp2038
sI1074240140
(Vbootloader_sha256_data
p2039
(lp2040
(L4066096136L
L0L
(lp2041
(lp2042
tp2043
a(L48654384L
L0L
(lp2044
(lp2045
tp2046
a(L3454655586L
L3785322319L
(lp2047
(lp2048
V__assert_func
p2049
atp2050
a(L498498478L
L0L
(lp2051
(lp2052
tp2053
a(L1040536462L
L0L
(lp2054
(lp2055
tp2056
a(L2910371777L
L0L
(lp2057
(lp2058
tp2059
a(L3360570486L
L0L
(lp2060
(lp2061
tp2062
a(L3070057182L
L0L
(lp2063
(lp2064
tp2065
a(L841847518L
L0L
(lp2066
(lp2067
tp2068
a(L1798664264L
L0L
(lp2069
(lp2070
tp2071
a(L337408211L
L0L
(lp2072
(lp2073
tp2074
a(L3082451442L
L0L
(lp2075
(lp2076
tp2077
a(L1390602840L
L0L
(lp2078
(lp2079
tp2080
a(L3028464L
L0L
(lp2081
(lp2082
tp2083
a(L490052216L
L0L
(lp2084
(lp2085
tp2086
a(L3557399152L
L0L
(lp2087
(lp2088
tp2089
atp2090
sI1074269572
(Vbootloader_console_init
p2091
(lp2092
(L4111622646L
L1832448559L
(lp2093
(lp2094
Vesp_rom_uart_tx_wait_idle
p2095
aVrtc_clk_apb_freq_get
p2096
aVesp_rom_uart_set_clock_baudrate
p2097
atp2098
atp2099
sI1074236296
(Vbootloader_flash_dummy_config
p2100
(lp2101
(L3703312895L
L0L
(lp2102
(lp2103
tp2104
a(L2761717557L
L0L
(lp2105
(lp2106
tp2107
a(L2747508079L
L0L
(lp2108
(lp2109
tp2110
a(L3713248905L
L0L
(lp2111
(lp2112
tp2113
a(L1491210540L
L0L
(lp2114
(lp2115
tp2116
a(L3081491917L
L0L
(lp2117
(lp2118
tp2119
a(L1610443405L
L0L
(lp2120
(lp2121
tp2122
a(L2108110621L
L0L
(lp2123
(lp2124
tp2125
a(L1449490182L
L0L
(lp2126
(lp2127
tp2128
a(L1298875775L
L0L
(lp2129
(lp2130
tp2131
a(L3880393601L
L0L
(lp2132
(lp2133
tp2134
a(L505576675L
L0L
(lp2135
(lp2136
tp2137
a(L1610443436L
L0L
(lp2138
(lp2139
tp2140
atp2141
sI1074236808
(Vis_xmc_chip_strict
p2142
(lp2143
(L1286841609L
L0L
(lp2144
(lp2145
tp2146
a(L2234016759L
L0L
(lp2147
(lp2148
tp2149
a(L1069027148L
L0L
(lp2150
(lp2151
tp2152
a(L3021749L
L0L
(lp2153
(lp2154
tp2155
a(L1900148749L
L0L
(lp2156
(lp2157
tp2158
a(L1936875721L
L0L
(lp2159
(lp2160
tp2161
a(L3356166509L
L0L
(lp2162
(lp2163
tp2164
a(L1937769451L
L0L
(lp2165
(lp2166
tp2167
a(L2137658907L
L0L
(lp2168
(lp2169
tp2170
a(L4265949734L
L0L
(lp2171
(lp2172
tp2173
a(L3360570486L
L0L
(lp2174
(lp2175
tp2176
atp2177
sI1074246280
(Vrtc_clk_slow_freq_get
p2178
(lp2179
(L1958392837L
L0L
(lp2180
(lp2181
tp2182
atp2183
sI1074246036
(Vrtc_clk_8m_enable
p2184
(lp2185
(L2410156998L
L0L
(lp2186
(lp2187
tp2188
a(L1634976683L
L0L
(lp2189
(lp2190
tp2191
a(L2151320156L
L0L
(lp2192
(lp2193
tp2194
a(L2453986175L
L0L
(lp2195
(lp2196
tp2197
a(L3360570486L
L0L
(lp2198
(lp2199
tp2200
a(L1318267208L
L0L
(lp2201
(lp2202
tp2203
a(L163240134L
L0L
(lp2204
(lp2205
tp2206
atp2207
sI1074242196
(Vimage_load
p2208
(lp2209
(L745499722L
L0L
(lp2210
(lp2211
tp2212
a(L1899869538L
L0L
(lp2213
(lp2214
tp2215
a(L9219888L
L0L
(lp2216
(lp2217
tp2218
a(L3554472965L
L0L
(lp2219
(lp2220
tp2221
a(L3020187L
L0L
(lp2222
(lp2223
tp2224
a(L446584967L
L3785322319L
(lp2225
(lp2226
Vesp_log_early_timestamp
p2227
atp2228
a(L2068384292L
L0L
(lp2229
(lp2230
tp2231
a(L1968553470L
L3785322319L
(lp2232
(lp2233
Vbootloader_sha256_finish
p2234
atp2235
a(L4114445801L
L0L
(lp2236
(lp2237
tp2238
a(L3271848319L
L0L
(lp2239
(lp2240
tp2241
a(L1182930974L
L0L
(lp2242
(lp2243
tp2244
a(L3678851644L
L3785322319L
(lp2245
(lp2246
Vprocess_image_header
p2247
atp2248
a(L1341816907L
L0L
(lp2249
(lp2250
tp2251
a(L909494482L
L0L
(lp2252
(lp2253
tp2254
a(L1028073566L
L3785322319L
(lp2255
(lp2256
Vprocess_segments
p2257
atp2258
a(L3803885910L
L0L
(lp2259
(lp2260
tp2261
a(L94425498L
L3785322319L
(lp2262
(lp2263
Vesp_cpu_in_ocd_debug_mode
p2264
atp2265
a(L454195650L
L3785322319L
(lp2266
(lp2267
Vprocess_checksum
p2268
atp2269
a(L1651117269L
L3785322319L
(lp2270
(lp2271
Vprocess_appended_hash_and_sig
p2272
atp2273
a(L533710513L
L0L
(lp2274
(lp2275
tp2276
a(L505081362L
L0L
(lp2277
(lp2278
tp2279
a(L3212356251L
L3785322319L
(lp2280
(lp2281
Vesp_cpu_in_ocd_debug_mode
p2282
atp2283
a(L1199634961L
L1880226080L
(lp2284
(lp2285
Vbootloader_sha256_finish
p2286
aVbootloader_debug_buffer
p2287
atp2288
a(L3109766824L
L1880226080L
(lp2289
(lp2290
Vesp_log_early_timestamp
p2291
aVbootloader_debug_buffer
p2292
atp2293
a(L978077504L
L0L
(lp2294
(lp2295
tp2296
a(L2068384292L
L0L
(lp2297
(lp2298
tp2299
a(L858449684L
L3785322319L
(lp2300
(lp2301
Vbootloader_sha256_finish
p2302
atp2303
a(L3028481L
L0L
(lp2304
(lp2305
tp2306
a(L93674324L
L0L
(lp2307
(lp2308
tp2309
a(L3153282188L
L0L
(lp2310
(lp2311
tp2312
a(L2429164518L
L0L
(lp2313
(lp2314
tp2315
a(L3553619191L
L0L
(lp2316
(lp2317
tp2318
a(L85798113L
L0L
(lp2319
(lp2320
tp2321
a(L464010095L
L0L
(lp2322
(lp2323
tp2324
a(L835563811L
L3785322319L
(lp2325
(lp2326
Vshould_load
p2327
atp2328
a(L1358360603L
L0L
(lp2329
(lp2330
tp2331
a(L4224160879L
L0L
(lp2332
(lp2333
tp2334
a(L22884489L
L0L
(lp2335
(lp2336
tp2337
a(L741351569L
L0L
(lp2338
(lp2339
tp2340
a(L434644776L
L0L
(lp2341
(lp2342
tp2343
a(L106L
L0L
(lp2344
(lp2345
tp2346
a(L709419389L
L0L
(lp2347
(lp2348
tp2349
a(L1299866312L
L0L
(lp2350
(lp2351
tp2352
atp2353
sI1074237332
(Vbootloader_common_update_rtc_retain_mem
p2354
(lp2355
(L2958000229L
L0L
(lp2356
(lp2357
tp2358
a(L3212356251L
L3785322319L
(lp2359
(lp2360
Vcheck_rtc_retain_mem
p2361
atp2362
a(L94425498L
L3785322319L
(lp2363
(lp2364
Vbootloader_common_reset_rtc_retain_mem
p2365
atp2366
a(L3087290108L
L0L
(lp2367
(lp2368
tp2369
a(L4140856694L
L0L
(lp2370
(lp2371
tp2372
a(L3700310009L
L0L
(lp2373
(lp2374
tp2375
a(L1466453772L
L0L
(lp2376
(lp2377
tp2378
a(L1245596496L
L0L
(lp2379
(lp2380
tp2381
atp2382
sI1074235536
(Vbootloader_read_flash_id
p2383
(lp2384
(L3925322170L
L3785322319L
(lp2385
(lp2386
Vbootloader_execute_flash_command
p2387
atp2388
atp2389
sI1074244496
(Vwdt_hal_init
p2390
(lp2391
(L568621698L
L0L
(lp2392
(lp2393
tp2394
a(L201054830L
L0L
(lp2395
(lp2396
tp2397
a(L2805933655L
L0L
(lp2398
(lp2399
tp2400
a(L2848322767L
L0L
(lp2401
(lp2402
tp2403
a(L2415505877L
L0L
(lp2404
(lp2405
tp2406
a(L3360570486L
L0L
(lp2407
(lp2408
tp2409
a(L124768696L
L0L
(lp2410
(lp2411
tp2412
atp2413
sI1074269328
(Vbootloader_flash_update_id
p2414
(lp2415
(L2802211774L
L3785322319L
(lp2416
(lp2417
Vbootloader_read_flash_id
p2418
atp2419
atp2420
sI1074239128
(Vlog_invalid_app_partition
p2421
(lp2422
(L1467800336L
L0L
(lp2423
(lp2424
tp2425
a(L3028464L
L0L
(lp2426
(lp2427
tp2428
a(L1894287291L
L3785322319L
(lp2429
(lp2430
Vesp_log_early_timestamp
p2431
atp2432
a(L44113432L
L0L
(lp2433
(lp2434
tp2435
a(L3360570486L
L0L
(lp2436
(lp2437
tp2438
a(L1770521032L
L3785322319L
(lp2439
(lp2440
Vesp_log_early_timestamp
p2441
atp2442
a(L4008954047L
L3785322319L
(lp2443
(lp2444
Vesp_log_early_timestamp
p2445
atp2446
atp2447
sI1074246296
(Vrtc_clk_slow_freq_get_hz
p2448
(lp2449
(L1066741188L
L0L
(lp2450
(lp2451
tp2452
a(L4203585384L
L0L
(lp2453
(lp2454
tp2455
a(L1710094423L
L0L
(lp2456
(lp2457
tp2458
a(L3360570486L
L0L
(lp2459
(lp2460
tp2461
atp2462
sI1074268840
(Vbootloader_init_mem
p2463
(lp2464
(L1511720305L
L3785322319L
(lp2465
(lp2466
Vesp_cpu_configure_region_protection
p2467
atp2468
atp2469
sI1074242980
(Vesp_rom_spiflash_read_status
p2470
(lp2471
(L3562601385L
L0L
(lp2472
(lp2473
tp2474
a(L1182811815L
L0L
(lp2475
(lp2476
tp2477
a(L2393426928L
L0L
(lp2478
(lp2479
tp2480
a(L106L
L0L
(lp2481
(lp2482
tp2483
a(L340552356L
L0L
(lp2484
(lp2485
tp2486
a(L4004659960L
L0L
(lp2487
(lp2488
tp2489
a(L2123059967L
L0L
(lp2490
(lp2491
tp2492
a(L1973734210L
L0L
(lp2493
(lp2494
tp2495
a(L2392720019L
L0L
(lp2496
(lp2497
tp2498
atp2499
sI1074246820
(Vrtc_clk_cpu_freq_mhz_to_config
p2500
(lp2501
(L2601984125L
L3785322319L
(lp2502
(lp2503
Vrtc_clk_xtal_freq_get
p2504
atp2505
a(L2089656409L
L0L
(lp2506
(lp2507
tp2508
a(L3814337874L
L0L
(lp2509
(lp2510
tp2511
a(L3126521138L
L0L
(lp2512
(lp2513
tp2514
a(L2762074623L
L0L
(lp2515
(lp2516
tp2517
a(L1541996779L
L0L
(lp2518
(lp2519
tp2520
a(L2916936348L
L0L
(lp2521
(lp2522
tp2523
a(L1555485793L
L0L
(lp2524
(lp2525
tp2526
a(L2258897023L
L0L
(lp2527
(lp2528
tp2529
a(L1947499251L
L0L
(lp2530
(lp2531
tp2532
a(L1306331021L
L0L
(lp2533
(lp2534
tp2535
atp2536
sI1074269344
(Vbootloader_clear_bss_section
p2537
(lp2538
(L428317179L
L0L
(lp2539
(lp2540
tp2541
atp2542
sI1074243500
(Vesp_rom_spiflash_write
p2543
(lp2544
(L3608694936L
L0L
(lp2545
(lp2546
tp2547
a(L2258688483L
L0L
(lp2548
(lp2549
tp2550
a(L3360570486L
L0L
(lp2551
(lp2552
tp2553
a(L1590344338L
L0L
(lp2554
(lp2555
tp2556
a(L3106685987L
L0L
(lp2557
(lp2558
tp2559
a(L4249336406L
L3785322319L
(lp2560
(lp2561
Vesp_rom_spiflash_program_page_internal
p2562
atp2563
a(L1915738254L
L3785322319L
(lp2564
(lp2565
Vesp_rom_spiflash_program_page_internal
p2566
atp2567
a(L663507325L
L0L
(lp2568
(lp2569
tp2570
a(L2392967593L
L0L
(lp2571
(lp2572
tp2573
a(L564470687L
L0L
(lp2574
(lp2575
tp2576
a(L154459701L
L3785322319L
(lp2577
(lp2578
Vesp_rom_spiflash_program_page_internal
p2579
atp2580
a(L2079643754L
L0L
(lp2581
(lp2582
tp2583
atp2584
sI1074240940
(Vbootloader_util_regions_overlap
p2585
(lp2586
(L2762640130L
L0L
(lp2587
(lp2588
tp2589
a(L47664796L
L0L
(lp2590
(lp2591
tp2592
a(L4165032547L
L3785322319L
(lp2593
(lp2594
V__assert_func
p2595
atp2596
a(L97642L
L0L
(lp2597
(lp2598
tp2599
a(L3039379954L
L0L
(lp2600
(lp2601
tp2602
a(L366123053L
L0L
(lp2603
(lp2604
tp2605
a(L2258867228L
L0L
(lp2606
(lp2607
tp2608
a(L1253626734L
L0L
(lp2609
(lp2610
tp2611
a(L2258897019L
L0L
(lp2612
(lp2613
tp2614
a(L3109269495L
L0L
(lp2615
(lp2616
tp2617
atp2618
sI1074267812
(Vbootloader_common_vddsdio_configure
p2619
(lp2620
(L1922017289L
L3785322319L
(lp2621
(lp2622
Vrtc_vddsdio_get_config
p2623
atp2624
a(L1185899578L
L3785322319L
(lp2625
(lp2626
Vrtc_vddsdio_set_config
p2627
atp2628
a(L3360570486L
L0L
(lp2629
(lp2630
tp2631
atp2632
sI1074269604
(Vesp_cpu_configure_region_protection
p2633
(lp2634
(L4139078984L
L0L
(lp2635
(lp2636
tp2637
a(L180431425L
L3785322319L
(lp2638
(lp2639
Vmpu_hal_set_region_access
p2640
atp2641
a(L2537388152L
L3785322319L
(lp2642
(lp2643
Vmpu_hal_set_region_access
p2644
atp2645
atp2646
sI1074238632
(Vbootloader_clock_get_rated_freq_mhz
p2647
(lp2648
(L376617603L
L3785322319L
(lp2649
(lp2650
Vefuse_hal_get_rated_freq_mhz
p2651
atp2652
atp2653
sI1074247080
(Vrtc_clk_apb_freq_update
p2654
(lp2655
(L27642667L
L0L
(lp2656
(lp2657
tp2658
atp2659
sI1074268856
(Vbootloader_random_enable
p2660
(lp2661
(L3291935399L
L0L
(lp2662
(lp2663
tp2664
atp2665
sI1074269368
(Vbootloader_read_bootloader_header
p2666
(lp2667
(L1404422663L
L3785322319L
(lp2668
(lp2669
Vbootloader_flash_read
p2670
atp2671
a(L3043734969L
L3785322319L
(lp2672
(lp2673
Vesp_log_early_timestamp
p2674
atp2675
a(L735741265L
L0L
(lp2676
(lp2677
tp2678
atp2679
sI1074235828
(Vbootloader_flash_gpio_config
p2680
(lp2681
(L719792650L
L3785322319L
(lp2682
(lp2683
Vbootloader_common_get_chip_ver_pkg
p2684
atp2685
a(L106L
L0L
(lp2686
(lp2687
tp2688
a(L2886083034L
L0L
(lp2689
(lp2690
tp2691
a(L106L
L0L
(lp2692
(lp2693
tp2694
a(L3368466517L
L0L
(lp2695
(lp2696
tp2697
a(L3815118951L
L0L
(lp2698
(lp2699
tp2700
a(L106L
L0L
(lp2701
(lp2702
tp2703
a(L1554297586L
L0L
(lp2704
(lp2705
tp2706
a(L3448382643L
L0L
(lp2707
(lp2708
tp2709
a(L3360570486L
L0L
(lp2710
(lp2711
tp2712
atp2713
sI1074238644
(Vload_image
p2714
(lp2715
(L1133981448L
L1880226080L
(lp2716
(lp2717
Vbootloader_random_disable
p2718
aVbootloader_ana_clock_glitch_reset_config
p2719
atp2720
a(L2118498116L
L0L
(lp2721
(lp2722
tp2723
a(L106L
L0L
(lp2724
(lp2725
tp2726
a(L2015076142L
L0L
(lp2727
(lp2728
tp2729
a(L2010554219L
L0L
(lp2730
(lp2731
tp2732
a(L3268103L
L0L
(lp2733
(lp2734
tp2735
a(L3392258942L
L3785322319L
(lp2736
(lp2737
Vbootloader_console_deinit
p2738
atp2739
a(L500568817L
L0L
(lp2740
(lp2741
tp2742
a(L2902417580L
L0L
(lp2743
(lp2744
tp2745
a(L3978303710L
L3785322319L
(lp2746
(lp2747
Vesp_log_early_timestamp
p2748
atp2749
a(L2663513213L
L0L
(lp2750
(lp2751
tp2752
a(L2605789736L
L0L
(lp2753
(lp2754
tp2755
a(L2902417580L
L0L
(lp2756
(lp2757
tp2758
a(L85534451L
L3785322319L
(lp2759
(lp2760
Vesp_log_early_timestamp
p2761
atp2762
a(L902182917L
L0L
(lp2763
(lp2764
tp2765
a(L2105494657L
L0L
(lp2766
(lp2767
tp2768
atp2769
sI1074241456
(Vshould_load
p2770
(lp2771
(L823930687L
L0L
(lp2772
(lp2773
tp2774
a(L1182990556L
L0L
(lp2775
(lp2776
tp2777
a(L2357666516L
L0L
(lp2778
(lp2779
tp2780
a(L1298905564L
L0L
(lp2781
(lp2782
tp2783
a(L524505062L
L0L
(lp2784
(lp2785
tp2786
a(L2258897019L
L0L
(lp2787
(lp2788
tp2789
a(L3781799363L
L0L
(lp2790
(lp2791
tp2792
a(L3028464L
L0L
(lp2793
(lp2794
tp2795
a(L4282493355L
L0L
(lp2796
(lp2797
tp2798
a(L1314445610L
L0L
(lp2799
(lp2800
tp2801
a(L2732168465L
L0L
(lp2802
(lp2803
tp2804
a(L4185756579L
L0L
(lp2805
(lp2806
tp2807
a(L3458855836L
L0L
(lp2808
(lp2809
tp2810
a(L3126521138L
L0L
(lp2811
(lp2812
tp2813
a(L1305407438L
L0L
(lp2814
(lp2815
tp2816
a(L1305407469L
L0L
(lp2817
(lp2818
tp2819
atp2820
sI1074243760
(Vesp_rom_spiflash_read
p2821
(lp2822
(L1045433039L
L0L
(lp2823
(lp2824
tp2825
a(L795624752L
L0L
(lp2826
(lp2827
tp2828
a(L2860271684L
L0L
(lp2829
(lp2830
tp2831
a(L3017366L
L0L
(lp2832
(lp2833
tp2834
a(L106L
L0L
(lp2835
(lp2836
tp2837
a(L2373476729L
L0L
(lp2838
(lp2839
tp2840
a(L106L
L0L
(lp2841
(lp2842
tp2843
a(L334745006L
L0L
(lp2844
(lp2845
tp2846
a(L2866491045L
L0L
(lp2847
(lp2848
tp2849
a(L2438523566L
L0L
(lp2850
(lp2851
tp2852
a(L2199422967L
L0L
(lp2853
(lp2854
tp2855
a(L106L
L0L
(lp2856
(lp2857
tp2858
a(L3554806007L
L3785322319L
(lp2859
(lp2860
Vesp_rom_spiflash_wait_idle
p2861
atp2862
a(L3021737L
L0L
(lp2863
(lp2864
tp2865
a(L106L
L0L
(lp2866
(lp2867
tp2868
a(L1868280504L
L0L
(lp2869
(lp2870
tp2871
a(L106L
L0L
(lp2872
(lp2873
tp2874
a(L3736482063L
L0L
(lp2875
(lp2876
tp2877
a(L1221163038L
L0L
(lp2878
(lp2879
tp2880
a(L4122060822L
L0L
(lp2881
(lp2882
tp2883
a(L1204914256L
L0L
(lp2884
(lp2885
tp2886
a(L2989032L
L0L
(lp2887
(lp2888
tp2889
a(L3819849625L
L0L
(lp2890
(lp2891
tp2892
a(L2993377444L
L0L
(lp2893
(lp2894
tp2895
a(L4236007939L
L0L
(lp2896
(lp2897
tp2898
a(L3901820401L
L0L
(lp2899
(lp2900
tp2901
a(L587100025L
L0L
(lp2902
(lp2903
tp2904
a(L1896415737L
L0L
(lp2905
(lp2906
tp2907
a(L1522202953L
L0L
(lp2908
(lp2909
tp2910
a(L626804245L
L0L
(lp2911
(lp2912
tp2913
a(L3221344684L
L0L
(lp2914
(lp2915
tp2916
a(L2267384310L
L0L
(lp2917
(lp2918
tp2919
a(L2696140277L
L0L
(lp2920
(lp2921
tp2922
a(L2687789892L
L0L
(lp2923
(lp2924
tp2925
a(L1405253496L
L0L
(lp2926
(lp2927
tp2928
a(L4116725823L
L0L
(lp2929
(lp2930
tp2931
a(L97689L
L0L
(lp2932
(lp2933
tp2934
a(L2258897019L
L0L
(lp2935
(lp2936
tp2937
a(L4014024819L
L0L
(lp2938
(lp2939
tp2940
a(L3621567083L
L0L
(lp2941
(lp2942
tp2943
atp2944
sI1074235580
(Vbootloader_flash_xmc_startup
p2945
(lp2946
(L2358327534L
L3785322319L
(lp2947
(lp2948
Vis_xmc_chip_strict
p2949
atp2950
a(L2258688482L
L0L
(lp2951
(lp2952
tp2953
a(L3360570486L
L0L
(lp2954
(lp2955
tp2956
a(L251913992L
L3785322319L
(lp2957
(lp2958
Vbootloader_flash_read_sfdp
p2959
atp2960
a(L1623371620L
L267944800L
(lp2961
(lp2962
Vbootloader_execute_flash_command
p2963
aVbootloader_execute_flash_command
p2964
aVbootloader_execute_flash_command
p2965
aVbootloader_execute_flash_command
p2966
aVbootloader_read_flash_id
p2967
aVis_xmc_chip_strict
p2968
atp2969
a(L1760467701L
L3785322319L
(lp2970
(lp2971
Vesp_log_early_timestamp
p2972
atp2973
atp2974
sI1074245572
(Vwdt_hal_write_protect_enable
p2975
(lp2976
(L387778158L
L0L
(lp2977
(lp2978
tp2979
a(L4195472003L
L0L
(lp2980
(lp2981
tp2982
a(L3360570486L
L0L
(lp2983
(lp2984
tp2985
a(L802523425L
L0L
(lp2986
(lp2987
tp2988
atp2989
sI1074247108
(Vrtc_clk_cpu_freq_to_xtal
p2990
(lp2991
(L4053196444L
L3785322319L
(lp2992
(lp2993
Vrtc_clk_apb_freq_update
p2994
atp2995
a(L702736263L
L0L
(lp2996
(lp2997
tp2998
a(L277445412L
L0L
(lp2999
(lp3000
tp3001
a(L309988616L
L0L
(lp3002
(lp3003
tp3004
atp3005
sI1074246336
(Vrtc_clk_fast_freq_set
p3006
(lp3007
(L2765512864L
L0L
(lp3008
(lp3009
tp3010
atp3011
sI1074268100
(Vbootloader_init
p3012
(lp3013
(L4080949389L
L3785322319L
(lp3014
(lp3015
Vbootloader_init_mem
p3016
atp3017
a(L575106984L
L0L
(lp3018
(lp3019
tp3020
a(L2426858934L
L3785322319L
(lp3021
(lp3022
V__assert_func
p3023
atp3024
a(L284747271L
L0L
(lp3025
(lp3026
tp3027
a(L3422608293L
L0L
(lp3028
(lp3029
tp3030
a(L2926278337L
L0L
(lp3031
(lp3032
tp3033
a(L530840807L
L0L
(lp3034
(lp3035
tp3036
a(L3027019L
L0L
(lp3037
(lp3038
tp3039
a(L1934041795L
L0L
(lp3040
(lp3041
tp3042
a(L2020801694L
L1832448559L
(lp3043
(lp3044
Vbootloader_clear_bss_section
p3045
aVbootloader_common_vddsdio_configure
p3046
aVbootloader_clock_get_rated_freq_mhz
p3047
atp3048
a(L3987130017L
L1157885199L
(lp3049
(lp3050
Vbootloader_clock_configure
p3051
aVbootloader_console_init
p3052
aVbootloader_print_banner
p3053
aVbootloader_flash_update_id
p3054
aVbootloader_flash_xmc_startup
p3055
atp3056
a(L2286488740L
L3785322319L
(lp3057
(lp3058
Vesp_log_early_timestamp
p3059
atp3060
a(L1995368312L
L3785322319L
(lp3061
(lp3062
Vesp_log_early_timestamp
p3063
atp3064
a(L3360570486L
L0L
(lp3065
(lp3066
tp3067
a(L1375577398L
L3785322319L
(lp3068
(lp3069
Vbootloader_read_bootloader_header
p3070
atp3071
a(L1375577398L
L3785322319L
(lp3072
(lp3073
Vbootloader_check_bootloader_validity
p3074
atp3075
a(L523139930L
L2485746240L
(lp3076
(lp3077
Vbootloader_flash_gpio_config
p3078
aVbootloader_flash_dummy_config
p3079
aVbootloader_flash_cs_timing_config
p3080
aVbootloader_flash_unlock
p3081
atp3082
a(L104277116L
L0L
(lp3083
(lp3084
tp3085
a(L2642220900L
L0L
(lp3086
(lp3087
tp3088
a(L3407290851L
L0L
(lp3089
(lp3090
tp3091
a(L575140665L
L0L
(lp3092
(lp3093
tp3094
a(L1550066574L
L3785322319L
(lp3095
(lp3096
Vbootloader_enable_wp
p3097
atp3098
a(L4068889928L
L0L
(lp3099
(lp3100
tp3101
a(L269152709L
L3785322319L
(lp3102
(lp3103
Vesp_log_early_timestamp
p3104
atp3105
a(L3433272205L
L0L
(lp3106
(lp3107
tp3108
a(L569753936L
L0L
(lp3109
(lp3110
tp3111
a(L2902417580L
L0L
(lp3112
(lp3113
tp3114
a(L1944713791L
L1880226080L
(lp3115
(lp3116
Vwdt_reset_info_dump
p3117
aVwdt_reset_info_dump
p3118
atp3119
a(L1043422335L
L1880226080L
(lp3120
(lp3121
Vbootloader_config_wdt
p3122
aVbootloader_enable_random
p3123
atp3124
a(L2427037350L
L3785322319L
(lp3125
(lp3126
Vesp_log_early_timestamp
p3127
atp3128
atp3129
sI1074267864
(Vbootloader_common_get_reset_reason
p3130
(lp3131
(L3780188688L
L0L
(lp3132
(lp3133
tp3134
atp3135
sI1074236880
(Vesp_log_early_timestamp
p3136
(lp3137
(L3141612615L
L0L
(lp3138
(lp3139
tp3140
atp3141
sI1074239452
(Vbootloader_utility_get_selected_boot_partition
p3142
(lp3143
(L2803238495L
L0L
(lp3144
(lp3145
tp3146
a(L1299867982L
L0L
(lp3147
(lp3148
tp3149
a(L3360570486L
L0L
(lp3150
(lp3151
tp3152
a(L3597633866L
L0L
(lp3153
(lp3154
tp3155
a(L2925623033L
L3785322319L
(lp3156
(lp3157
Vesp_log_early_timestamp
p3158
atp3159
a(L282377750L
L0L
(lp3160
(lp3161
tp3162
a(L1375577398L
L3785322319L
(lp3163
(lp3164
Vbootloader_mmap
p3165
atp3166
a(L3259729649L
L3785322319L
(lp3167
(lp3168
Vesp_log_early_timestamp
p3169
atp3170
a(L3295391221L
L1880226080L
(lp3171
(lp3172
Vbootloader_munmap
p3173
aVbootloader_common_ota_select_invalid
p3174
atp3175
a(L1103573946L
L0L
(lp3176
(lp3177
tp3178
a(L1876827316L
L3785322319L
(lp3179
(lp3180
Vbootloader_common_get_active_otadata
p3181
atp3182
a(L569346373L
L0L
(lp3183
(lp3184
tp3185
a(L3111084448L
L3785322319L
(lp3186
(lp3187
Vbootloader_common_ota_select_invalid
p3188
atp3189
a(L45272527L
L0L
(lp3190
(lp3191
tp3192
a(L847230968L
L0L
(lp3193
(lp3194
tp3195
a(L505081345L
L0L
(lp3196
(lp3197
tp3198
a(L919052234L
L3785322319L
(lp3199
(lp3200
Vbootloader_common_ota_select_crc
p3201
atp3202
a(L2287680455L
L0L
(lp3203
(lp3204
tp3205
a(L3542558037L
L3785322319L
(lp3206
(lp3207
Vbootloader_common_ota_select_crc
p3208
atp3209
a(L1299866312L
L0L
(lp3210
(lp3211
tp3212
a(L653279817L
L0L
(lp3213
(lp3214
tp3215
a(L409903447L
L3785322319L
(lp3216
(lp3217
Vesp_log_early_timestamp
p3218
atp3219
a(L1367516498L
L0L
(lp3220
(lp3221
tp3222
a(L4142614056L
L3785322319L
(lp3223
(lp3224
Vesp_log_early_timestamp
p3225
atp3226
atp3227
sI1074245084
(Vwdt_hal_config_stage
p3228
(lp3229
(L331558507L
L0L
(lp3230
(lp3231
tp3232
a(L4279082939L
L0L
(lp3233
(lp3234
tp3235
a(L3020204L
L0L
(lp3236
(lp3237
tp3238
a(L3020187L
L0L
(lp3239
(lp3240
tp3241
a(L3020187L
L0L
(lp3242
(lp3243
tp3244
a(L94425498L
L3785322319L
(lp3245
(lp3246
Vabort
p3247
atp3248
a(L1242910818L
L0L
(lp3249
(lp3250
tp3251
a(L3360570486L
L0L
(lp3252
(lp3253
tp3254
a(L2986339358L
L0L
(lp3255
(lp3256
tp3257
a(L3497642562L
L0L
(lp3258
(lp3259
tp3260
a(L4272038176L
L0L
(lp3261
(lp3262
tp3263
a(L3020187L
L0L
(lp3264
(lp3265
tp3266
a(L2902417580L
L0L
(lp3267
(lp3268
tp3269
a(L3020187L
L0L
(lp3270
(lp3271
tp3272
a(L3028464L
L0L
(lp3273
(lp3274
tp3275
a(L1690008425L
L0L
(lp3276
(lp3277
tp3278
a(L2701923428L
L0L
(lp3279
(lp3280
tp3281
a(L2113609690L
L0L
(lp3282
(lp3283
tp3284
a(L3756790306L
L0L
(lp3285
(lp3286
tp3287
atp3288
sI1074269652
(Vrtc_clk_xtal_freq_estimate
p3289
(lp3290
(L2516060585L
L1880226080L
(lp3291
(lp3292
Vrtc_clk_8m_enabled
p3293
aVrtc_clk_8md256_enabled
p3294
atp3295
a(L967485502L
L3785322319L
(lp3296
(lp3297
Vrtc_clk_8m_enable
p3298
atp3299
a(L2621178569L
L3785322319L
(lp3300
(lp3301
Vrtc_clk_cal_ratio
p3302
atp3303
a(L93674324L
L0L
(lp3304
(lp3305
tp3306
a(L3910042627L
L0L
(lp3307
(lp3308
tp3309
a(L1299866334L
L0L
(lp3310
(lp3311
tp3312
a(L3360570486L
L0L
(lp3313
(lp3314
tp3315
a(L3936819466L
L0L
(lp3316
(lp3317
tp3318
a(L3982077265L
L0L
(lp3319
(lp3320
tp3321
a(L1641150486L
L0L
(lp3322
(lp3323
tp3324
a(L2227903144L
L3785322319L
(lp3325
(lp3326
Vesp_log_early_timestamp
p3327
atp3328
a(L2777422372L
L3785322319L
(lp3329
(lp3330
Vesp_log_early_timestamp
p3331
atp3332
a(L180441618L
L3785322319L
(lp3333
(lp3334
Vesp_log_early_timestamp
p3335
atp3336
atp3337
sI1074237400
(Vbootloader_common_ota_select_invalid
p3338
(lp3339
(L4027567199L
L0L
(lp3340
(lp3341
tp3342
a(L3397985842L
L0L
(lp3343
(lp3344
tp3345
a(L2258867228L
L0L
(lp3346
(lp3347
tp3348
a(L3785235668L
L0L
(lp3349
(lp3350
tp3351
atp3352
sI1074267880
(Vwdt_reset_info_dump
p3353
(lp3354
(L4037466985L
L0L
(lp3355
(lp3356
tp3357
a(L4162823486L
L0L
(lp3358
(lp3359
tp3360
a(L3759833313L
L0L
(lp3361
(lp3362
tp3363
a(L1103285333L
L0L
(lp3364
(lp3365
tp3366
a(L3874600256L
L3785322319L
(lp3367
(lp3368
Vesp_log_early_timestamp
p3369
atp3370
a(L2967992533L
L0L
(lp3371
(lp3372
tp3373
a(L4142801612L
L3785322319L
(lp3374
(lp3375
Vesp_log_early_timestamp
p3376
atp3377
a(L98458893L
L0L
(lp3378
(lp3379
tp3380
atp3381
sI1074270440
(Vrtc_vddsdio_set_config
p3382
(lp3383
(L3192244175L
L0L
(lp3384
(lp3385
tp3386
atp3387
sI1074240996
(Vverify_load_addresses
p3388
(lp3389
(L2763563698L
L0L
(lp3390
(lp3391
tp3392
a(L106L
L0L
(lp3393
(lp3394
tp3395
a(L97642L
L0L
(lp3396
(lp3397
tp3398
a(L3844221876L
L3785322319L
(lp3399
(lp3400
V__assert_func
p3401
atp3402
a(L167443471L
L0L
(lp3403
(lp3404
tp3405
a(L106L
L0L
(lp3406
(lp3407
tp3408
a(L2954697625L
L0L
(lp3409
(lp3410
tp3411
a(L106L
L0L
(lp3412
(lp3413
tp3414
a(L1643298922L
L3785322319L
(lp3415
(lp3416
Vbootloader_util_regions_overlap
p3417
atp3418
a(L1426964214L
L3785322319L
(lp3419
(lp3420
Vbootloader_util_regions_overlap
p3421
atp3422
a(L3028481L
L0L
(lp3423
(lp3424
tp3425
a(L3630074390L
L3785322319L
(lp3426
(lp3427
Vbootloader_util_regions_overlap
p3428
atp3429
a(L1206037860L
L0L
(lp3430
(lp3431
tp3432
a(L3166891456L
L0L
(lp3433
(lp3434
tp3435
a(L1544655401L
L0L
(lp3436
(lp3437
tp3438
a(L2145463656L
L0L
(lp3439
(lp3440
tp3441
a(L642339957L
L0L
(lp3442
(lp3443
tp3444
a(L677569396L
L3785322319L
(lp3445
(lp3446
Vverify_load_addresses
p3447
atp3448
a(L1351513776L
L0L
(lp3449
(lp3450
tp3451
a(L3197651189L
L0L
(lp3452
(lp3453
tp3454
a(L2260221013L
L0L
(lp3455
(lp3456
tp3457
a(L4086207054L
L3785322319L
(lp3458
(lp3459
Vbootloader_util_regions_overlap
p3460
atp3461
a(L3028481L
L0L
(lp3462
(lp3463
tp3464
a(L3278553398L
L3785322319L
(lp3465
(lp3466
Vbootloader_util_regions_overlap
p3467
atp3468
a(L2834699927L
L0L
(lp3469
(lp3470
tp3471
a(L771337770L
L0L
(lp3472
(lp3473
tp3474
a(L3413213874L
L0L
(lp3475
(lp3476
tp3477
a(L834357965L
L0L
(lp3478
(lp3479
tp3480
a(L307916819L
L0L
(lp3481
(lp3482
tp3483
a(L697239146L
L0L
(lp3484
(lp3485
tp3486
a(L106L
L0L
(lp3487
(lp3488
tp3489
a(L955502992L
L0L
(lp3490
(lp3491
tp3492
a(L307917389L
L0L
(lp3493
(lp3494
tp3495
a(L490080443L
L0L
(lp3496
(lp3497
tp3498
a(L106L
L0L
(lp3499
(lp3500
tp3501
a(L2953969137L
L3785322319L
(lp3502
(lp3503
Vesp_log_early_timestamp
p3504
atp3505
a(L955503116L
L0L
(lp3506
(lp3507
tp3508
a(L1303560427L
L0L
(lp3509
(lp3510
tp3511
atp3512
sI1074245860
(Vrtc_clk_32k_enable_common
p3513
(lp3514
(L27367824L
L0L
(lp3515
(lp3516
tp3517
atp3518
sI1074248164
(V_fini
p3519
(lp3520
(L3493042598L
L0L
(lp3521
(lp3522
tp3523
atp3524
sI1074245600
(Vefuse_hal_get_rated_freq_mhz
p3525
(lp3526
(L1131075142L
L0L
(lp3527
(lp3528
tp3529
a(L2965302338L
L0L
(lp3530
(lp3531
tp3532
a(L3360570486L
L0L
(lp3533
(lp3534
tp3535
atp3536
sI1074240748
(Vprocess_image_header
p3537
(lp3538
(L460646117L
L3785322319L
(lp3539
(lp3540
Vbootloader_flash_read
p3541
atp3542
a(L3020204L
L0L
(lp3543
(lp3544
tp3545
a(L1583805461L
L0L
(lp3546
(lp3547
tp3548
a(L1727394037L
L0L
(lp3549
(lp3550
tp3551
a(L1161397362L
L3785322319L
(lp3552
(lp3553
Vbootloader_sha256_start
p3554
atp3555
a(L1948257695L
L3785322319L
(lp3556
(lp3557
Vbootloader_sha256_data
p3558
atp3559
a(L1095449651L
L0L
(lp3560
(lp3561
tp3562
a(L3020204L
L0L
(lp3563
(lp3564
tp3565
a(L702739452L
L0L
(lp3566
(lp3567
tp3568
a(L3360570486L
L0L
(lp3569
(lp3570
tp3571
a(L444634274L
L3785322319L
(lp3572
(lp3573
Vesp_log_early_timestamp
p3574
atp3575
a(L3718883008L
L3785322319L
(lp3576
(lp3577
Vbootloader_common_check_chip_validity
p3578
atp3579
a(L3677035427L
L0L
(lp3580
(lp3581
tp3582
a(L3028481L
L0L
(lp3583
(lp3584
tp3585
a(L1001479848L
L3785322319L
(lp3586
(lp3587
Vesp_log_early_timestamp
p3588
atp3589
a(L2250109166L
L0L
(lp3590
(lp3591
tp3592
a(L1235012870L
L0L
(lp3593
(lp3594
tp3595
a(L3063569071L
L0L
(lp3596
(lp3597
tp3598
atp3599
sI1074239724
(Vbootloader_utility_load_boot_image_from_deep_sleep
p3600
(lp3601
(L1627653700L
L0L
(lp3602
(lp3603
tp3604
a(L3212347974L
L3785322319L
(lp3605
(lp3606
Vbootloader_common_get_rtc_retain_mem_partition
p3607
atp3608
a(L392176478L
L3785322319L
(lp3609
(lp3610
Vbootloader_load_image_no_verify
p3611
atp3612
a(L4017103105L
L1880226080L
(lp3613
(lp3614
Vbootloader_common_update_rtc_retain_mem
p3615
aVload_image
p3616
atp3617
a(L819646438L
L3785322319L
(lp3618
(lp3619
Vesp_log_early_timestamp
p3620
atp3621
a(L3360570486L
L0L
(lp3622
(lp3623
tp3624
atp3625
sI1074239212
(Vtry_load_partition
p3626
(lp3627
(L2950885718L
L0L
(lp3628
(lp3629
tp3630
a(L984595082L
L3785322319L
(lp3631
(lp3632
Vbootloader_load_image
p3633
atp3634
a(L3871473710L
L0L
(lp3635
(lp3636
tp3637
atp3638
sI1074246380
(Vrtc_clk_fast_freq_get
p3639
(lp3640
(L1267402661L
L0L
(lp3641
(lp3642
tp3643
atp3644
sI1074269412
(Vbootloader_check_bootloader_validity
p3645
(lp3646
(L2380803598L
L1880226080L
(lp3647
(lp3648
Vefuse_hal_chip_revision
p3649
aVbootloader_common_check_chip_validity
p3650
atp3651
atp3652
sI1074236648
(Vefuse_hal_chip_revision
p3653
(lp3654
(L1761205471L
L1880226080L
(lp3655
(lp3656
Vefuse_hal_get_major_chip_version
p3657
aVefuse_hal_get_minor_chip_version
p3658
atp3659
atp3660
sI1074240500
(Vbootloader_console_deinit
p3661
(lp3662
(L3657619171L
L0L
(lp3663
(lp3664
tp3665
atp3666
sI1074237428
(Vbootloader_common_select_otadata
p3667
(lp3668
(L2342662536L
L0L
(lp3669
(lp3670
tp3671
a(L3806783650L
L0L
(lp3672
(lp3673
tp3674
a(L1674928252L
L0L
(lp3675
(lp3676
tp3677
a(L251571983L
L0L
(lp3678
(lp3679
tp3680
a(L3360570486L
L0L
(lp3681
(lp3682
tp3683
a(L2045232488L
L0L
(lp3684
(lp3685
tp3686
a(L189726519L
L0L
(lp3687
(lp3688
tp3689
a(L3095066987L
L0L
(lp3690
(lp3691
tp3692
a(L3592023188L
L0L
(lp3693
(lp3694
tp3695
a(L1641201884L
L0L
(lp3696
(lp3697
tp3698
atp3699
sI1074238196
(Vbootloader_enable_wp
p3700
(lp3701
(L1117825804L
L3785322319L
(lp3702
(lp3703
Vbootloader_execute_flash_command
p3704
atp3705
atp3706
sI1074236912
(Vcheck_rtc_retain_mem
p3707
(lp3708
(L1457681768L
L0L
(lp3709
(lp3710
tp3711
atp3712
sI1074246396
(Vrtc_clk_bbpll_configure
p3713
(lp3714
(L3950659967L
L0L
(lp3715
(lp3716
tp3717
a(L106L
L0L
(lp3718
(lp3719
tp3720
a(L4217243712L
L0L
(lp3721
(lp3722
tp3723
a(L106L
L0L
(lp3724
(lp3725
tp3726
a(L83268611L
L0L
(lp3727
(lp3728
tp3729
a(L106L
L0L
(lp3730
(lp3731
tp3732
a(L82345090L
L0L
(lp3733
(lp3734
tp3735
a(L106L
L0L
(lp3736
(lp3737
tp3738
a(L2258688482L
L0L
(lp3739
(lp3740
tp3741
a(L3177466952L
L0L
(lp3742
(lp3743
tp3744
a(L1719650922L
L0L
(lp3745
(lp3746
tp3747
a(L1594024263L
L0L
(lp3748
(lp3749
tp3750
a(L1299866343L
L0L
(lp3751
(lp3752
tp3753
a(L3291765465L
L0L
(lp3754
(lp3755
tp3756
a(L3241888512L
L0L
(lp3757
(lp3758
tp3759
a(L3133210345L
L0L
(lp3760
(lp3761
tp3762
a(L83268344L
L0L
(lp3763
(lp3764
tp3765
a(L82344823L
L0L
(lp3766
(lp3767
tp3768
a(L1667153377L
L0L
(lp3769
(lp3770
tp3771
a(L2258867279L
L0L
(lp3772
(lp3773
tp3774
a(L3098298352L
L0L
(lp3775
(lp3776
tp3777
a(L1551160474L
L0L
(lp3778
(lp3779
tp3780
a(L1712476653L
L0L
(lp3781
(lp3782
tp3783
a(L4011631532L
L0L
(lp3784
(lp3785
tp3786
atp3787
sI1074246908
(Vrtc_clk_cpu_freq_get_config
p3788
(lp3789
(L2458581381L
L0L
(lp3790
(lp3791
tp3792
a(L2902417580L
L0L
(lp3793
(lp3794
tp3795
a(L1777368540L
L0L
(lp3796
(lp3797
tp3798
a(L4145610148L
L1880226080L
(lp3799
(lp3800
Vesp_log_early_timestamp
p3801
aVabort
p3802
atp3803
a(L3290511144L
L3785322319L
(lp3804
(lp3805
Vrtc_clk_xtal_freq_get
p3806
atp3807
a(L584032699L
L0L
(lp3808
(lp3809
tp3810
a(L3358442511L
L0L
(lp3811
(lp3812
tp3813
a(L3020187L
L0L
(lp3814
(lp3815
tp3816
a(L713819170L
L0L
(lp3817
(lp3818
tp3819
a(L106L
L0L
(lp3820
(lp3821
tp3822
a(L549042870L
L0L
(lp3823
(lp3824
tp3825
a(L187152368L
L0L
(lp3826
(lp3827
tp3828
a(L4149732163L
L0L
(lp3829
(lp3830
tp3831
atp3832
ssS'functionsdups'
p3833
g11
((lp3834
tp3835
Rp3836
sS'immediatedups'
p3837
g11
((lp3838
tp3839
Rp3840
sS'functiondups'
p3841
g11
((lp3842
tp3843
Rp3844
sS'fuzzy'
p3845
(dp3846
L1536L
I1074240516
sL617583950L
I1074237012
sL430153639L
I1074235828
sL3121027072L
I1074270280
sL1655084846L
I1074237332
sL2082889262L
I1074241364
sL1340445289L
I1074235580
sL3879741902L
I1074240996
sL3538491111L
I1074247108
sL2919016435L
I1074235192
sL16208487L
I1074234692
sL3889821517L
I1074239244
sL114144873L
I1074237316
sL2469233929L
I1074240304
sL1792232694L
I1074245696
sL4011111091L
I1074237764
sL1377559356L
I1074242196
sL695219290L
I1074268100
sL2475522855L
I1074269572
sL3897252859L
I1074239128
sL1065525808L
I1074236808
sL1766137975L
I1074239212
sL3979510406L
I1074267704
sL2327783177L
I1074240596
sL449860969L
I1074246820
sL1370949492L
I1074239724
sL1415908896L
I1074241576
sL518929064L
I1074238644
sL3210669721L
I1074245976
sL1332800441L
I1074237256
sL2884218272L
I1074267880
sL1345429244L
I1074240748
sL2689419264L
I1074246396
sL4160102055L
I1074239780
sL4202185385L
I1074243072
sL2453272040L
I1074247548
sL3690558760L
I1074269652
sL1768086576L
I1074236296
sL4171975289L
I1074243368
sL1565254297L
I1074243672
sL1205407754L
I1074239812
sL2191698036L
I1074269440
sL2474570535L
I1074238224
sL3428965560L
I1074247224
sL519424169L
I1074248004
sL812946199L
I1074237540
sL2800733194L
I1074239012
sL737694352L
I1074243180
sL503029138L
I1074243120
sL277788135L
I1074243760
sL3991645697L
I1074268672
sL2262558768L
I1074242980
sL424867129L
I1074243500
sL3834155367L
I1074240940
sL3883282432L
I1074241456
sL4173399607L
I1074242692
sL2726385143L
I1074245084
sL4278077574L
I1074239452
sL1667054119L
I1074240140
sL4191211306L
I1074246908
sL2687107543L
I1074269824
sL206902443L
I1074238056
ssb.