ccopy_reg
_reconstructor
p0
(crizzo
RizzoSignature
p1
c__builtin__
object
p2
Ntp3
Rp4
(dp5
S'formal'
p6
(dp7
L61540265L
I1074234700
sL3363211633L
I1074246128
sL2911663236L
I1074237572
sL2218425139L
I1074237368
sL1741170115L
I1074237896
sL2156867713L
I1074267884
sL1050249609L
I1074248524
sL867946411L
I1074269348
sL2543619213L
I1074240300
sL3559993635L
I1074239076
sL857475855L
I1074269600
sL1232716141L
I1074236564
sL218287382L
I1074270412
sL1312142368L
I1074246884
sL1324799470L
I1074246716
sL3734662019L
I1074246480
sL343306603L
I1074237400
sL3930510424L
I1074238872
sL3741909032L
I1074240740
sL1274602202L
I1074239588
sL230916576L
I1074247556
sL4204923526L
I1074243172
sL2028381634L
I1074245924
sL3331964080L
I1074245576
sL585143756L
I1074242876
sL1010441494L
I1074247340
sL3567680394L
I1074267139
sL2636348940L
I1074236920
sL4067202396L
I1074241996
sL2896295319L
I1074236816
sL2481804762L
I1074235588
sL86892053L
I1074248068
sL271775752L
I1074267724
sL2590834774L
I1074271108
sL1368716712L
I1074239044
sL4114820221L
I1074267900
sL1379875710L
I1074242984
sL585514402L
I1074236500
sL3408377187L
I1074238956
sL3978270299L
I1074247428
sL902150784L
I1074269396
sL1824840579L
I1074235836
sL110286016L
I1074242460
sL3857706427L
I1074245996
sL4261658967L
I1074236728
sL1515796238L
I1074242496
sL4182018579L
I1074245892
sL1585823442L
I1074246064
sL25036838L
I1074246092
sL1627375778L
I1074236484
sL968880352L
I1074244988
sL3129199843L
I1074269476
sL1877624969L
I1074240548
sL3893823089L
I1074239556
sL4055900839L
I1074239920
sL2764339374L
I1074236304
sL4268219159L
I1074270160
sL30365630L
I1074244164
sL3760883291L
I1074246900
sL228411627L
I1074247600
sL3453694892L
I1074269956
sL337799000L
I1074236688
sL1186130482L
I1074270000
sL4154835750L
I1074269544
sL676927194L
I1074270152
sL1410444436L
I1074269932
sL3307282855L
I1074238056
sL3516882453L
I1074240340
sL612086517L
I1074235200
sL1265725951L
I1074247628
sL1163875535L
I1074268876
sL1285310218L
I1074269860
sL465294893L
I1074271028
sL2316238995L
I1074240796
sL1878180205L
I1074246364
sL1593758812L
I1074269876
sL2919047262L
I1074241256
sL1996639905L
I1074270028
sL3240539778L
I1074238504
sL3505677393L
I1074268692
sL2755359644L
I1074241376
sL395759678L
I1074240396
sL1652900655L
I1074238492
sL3928442508L
I1074237624
sL1780788104L
I1074236452
sL1216942372L
I1074270868
sL493999838L
I1074267832
sL2997001746L
I1074237220
sL4279295651L
I1074239284
sL2691786949L
I1074248024
sL684358003L
I1074241164
sL2819127986L
I1074236940
sL1792071786L
I1074243860
sL1434273219L
I1074238176
sL366863971L
I1074240104
sL459511772L
I1074246188
sL1164083360L
I1074235544
sL1242724561L
I1074235492
sL3241059309L
I1074242924
sL2411516799L
I1074269456
sL2759391678L
I1074236888
sL2249539038L
I1074239848
sL1170963461L
I1074240316
sL1791536154L
I1074269496
sL1451088553L
I1074246784
sL2926457784L
I1074246800
sL1807607658L
I1074244252
sL2263182908L
I1074238076
sL3368650768L
I1074242784
sL3364817747L
I1074270192
sL2610866240L
I1074236976
sL3779486104L
I1074268120
sL188664287L
I1074235168
sL3458753737L
I1074237916
sL2678264385L
I1074246692
sL2959238529L
I1074237288
sL4072204123L
I1074235724
sL3627939806L
I1074270240
sL692536993L
I1074237260
sL2733247757L
I1074238084
sL334991391L
I1074246540
sL3843369465L
I1074236800
sL912186803L
I1074247744
sL1637400695L
I1074246668
sL3608561895L
I1074268860
sL2936127475L
I1074247300
sL2959802012L
I1074243992
sL67595774L
I1074246840
sL4267894680L
I1074236656
sL3322869492L
I1074269436
sL1150339437L
I1074248492
sL1805745503L
I1074239940
sL677806744L
I1074269372
ssS'immediates'
p8
(dp9
sS'formaldups'
p10
c__builtin__
set
p11
((lp12
tp13
Rp14
sS'stringdups'
p15
g11
((lp16
tp17
Rp18
sS'fuzzydups'
p19
g11
((lp20
tp21
Rp22
sS'strings'
p23
(dp24
sS'functions'
p25
(dp26
I1074247428
(Vrtc_clk_cpu_freq_get_config
p27
(lp28
(L3553043505L
L0L
(lp29
(lp30
tp31
a(L2902417580L
L0L
(lp32
(lp33
tp34
a(L1777368540L
L0L
(lp35
(lp36
tp37
a(L2069062883L
L1880226080L
(lp38
(lp39
Vesp_log_early_timestamp
p40
aVabort
p41
atp42
a(L1723268333L
L3785322319L
(lp43
(lp44
Vrtc_clk_xtal_freq_get
p45
atp46
a(L584032699L
L0L
(lp47
(lp48
tp49
a(L4215789546L
L0L
(lp50
(lp51
tp52
a(L3020187L
L0L
(lp53
(lp54
tp55
a(L713819170L
L0L
(lp56
(lp57
tp58
a(L106L
L0L
(lp59
(lp60
tp61
a(L549042870L
L0L
(lp62
(lp63
tp64
a(L187152368L
L0L
(lp65
(lp66
tp67
a(L4149732163L
L0L
(lp68
(lp69
tp70
atp71
sI1074245892
(Vwdt_hal_write_protect_disable
p72
(lp73
(L2531263906L
L0L
(lp74
(lp75
tp76
a(L4195472003L
L0L
(lp77
(lp78
tp79
a(L3360570486L
L0L
(lp80
(lp81
tp82
a(L1210571996L
L0L
(lp83
(lp84
tp85
atp86
sI1074267136
(V_init
p87
(lp88
(L3493042598L
L0L
(lp89
(lp90
tp91
atp92
sI1074236940
(Vbootloader_common_ota_select_valid
p93
(lp94
(L1563399710L
L3785322319L
(lp95
(lp96
Vbootloader_common_ota_select_invalid
p97
atp98
a(L3814720849L
L3785322319L
(lp99
(lp100
Vbootloader_common_ota_select_crc
p101
atp102
a(L3360570486L
L0L
(lp103
(lp104
tp105
atp106
sI1074246668
(Vrtc_clk_8m_enabled
p107
(lp108
(L3250035153L
L0L
(lp109
(lp110
tp111
atp112
sI1074267139
(V_text_start
p113
(lp114
(L1817914933L
L0L
(lp115
(lp116
tp117
atp118
sI1074269956
(Vbootloader_read_bootloader_header
p119
(lp120
(L1404422663L
L3785322319L
(lp121
(lp122
Vbootloader_flash_read
p123
atp124
a(L2541340850L
L3785322319L
(lp125
(lp126
Vesp_log_early_timestamp
p127
atp128
a(L735741265L
L0L
(lp129
(lp130
tp131
atp132
sI1074243860
(Vesp_rom_spiflash_erase_sector
p133
(lp134
(L1906835068L
L0L
(lp135
(lp136
tp137
a(L2258688483L
L0L
(lp138
(lp139
tp140
a(L3360570486L
L0L
(lp141
(lp142
tp143
a(L3212356251L
L3785322319L
(lp144
(lp145
Vesp_rom_spiflash_enable_write
p146
atp147
a(L184152988L
L0L
(lp148
(lp149
tp150
a(L859467298L
L3785322319L
(lp151
(lp152
Vesp_rom_spiflash_wait_idle
p153
atp154
a(L3333707777L
L0L
(lp155
(lp156
tp157
a(L3582858798L
L3785322319L
(lp158
(lp159
Vesp_rom_spiflash_wait_idle
p160
atp161
atp162
sI1074236688
(Vefuse_hal_flash_encryption_enabled
p163
(lp164
(L2698760418L
L0L
(lp165
(lp166
tp167
a(L2910371777L
L0L
(lp168
(lp169
tp170
a(L3360570486L
L0L
(lp171
(lp172
tp173
a(L3016870L
L0L
(lp174
(lp175
tp176
a(L3745038218L
L0L
(lp177
(lp178
tp179
a(L957607403L
L0L
(lp180
(lp181
tp182
atp183
sI1074269456
(Vbootloader_write_status_8b_wrsr2
p184
(lp185
(L3772914914L
L3785322319L
(lp186
(lp187
Vbootloader_execute_flash_command
p188
atp189
atp190
sI1074240796
(Vverify_load_addresses
p191
(lp192
(L2763563698L
L0L
(lp193
(lp194
tp195
a(L106L
L0L
(lp196
(lp197
tp198
a(L97642L
L0L
(lp199
(lp200
tp201
a(L1833190344L
L3785322319L
(lp202
(lp203
V__assert_func
p204
atp205
a(L503045149L
L0L
(lp206
(lp207
tp208
a(L106L
L0L
(lp209
(lp210
tp211
a(L3854218516L
L0L
(lp212
(lp213
tp214
a(L106L
L0L
(lp215
(lp216
tp217
a(L1328023786L
L3785322319L
(lp218
(lp219
Vbootloader_util_regions_overlap
p220
atp221
a(L3602021462L
L3785322319L
(lp222
(lp223
Vbootloader_util_regions_overlap
p224
atp225
a(L3028481L
L0L
(lp226
(lp227
tp228
a(L908154973L
L3785322319L
(lp229
(lp230
Vbootloader_util_regions_overlap
p231
atp232
a(L971309593L
L0L
(lp233
(lp234
tp235
a(L4108412365L
L0L
(lp236
(lp237
tp238
a(L934675383L
L0L
(lp239
(lp240
tp241
a(L4010021115L
L0L
(lp242
(lp243
tp244
a(L642339957L
L0L
(lp245
(lp246
tp247
a(L677569396L
L3785322319L
(lp248
(lp249
Vverify_load_addresses
p250
atp251
a(L1351513776L
L0L
(lp252
(lp253
tp254
a(L2905801859L
L0L
(lp255
(lp256
tp257
a(L488484809L
L0L
(lp258
(lp259
tp260
a(L2047007126L
L3785322319L
(lp261
(lp262
Vbootloader_util_regions_overlap
p263
atp264
a(L3028481L
L0L
(lp265
(lp266
tp267
a(L2112574717L
L3785322319L
(lp268
(lp269
Vbootloader_util_regions_overlap
p270
atp271
a(L2953091551L
L0L
(lp272
(lp273
tp274
a(L3656251560L
L0L
(lp275
(lp276
tp277
a(L172034977L
L0L
(lp278
(lp279
tp280
a(L2424938303L
L0L
(lp281
(lp282
tp283
a(L307916831L
L0L
(lp284
(lp285
tp286
a(L697239146L
L0L
(lp287
(lp288
tp289
a(L106L
L0L
(lp290
(lp291
tp292
a(L955502155L
L0L
(lp293
(lp294
tp295
a(L307917338L
L0L
(lp296
(lp297
tp298
a(L490080443L
L0L
(lp299
(lp300
tp301
a(L106L
L0L
(lp302
(lp303
tp304
a(L3747603147L
L3785322319L
(lp305
(lp306
Vesp_log_early_timestamp
p307
atp308
a(L955502279L
L0L
(lp309
(lp310
tp311
a(L1303560427L
L0L
(lp312
(lp313
tp314
atp315
sI1074238492
(Vbootloader_clock_get_rated_freq_mhz
p316
(lp317
(L376617603L
L3785322319L
(lp318
(lp319
Vefuse_hal_get_rated_freq_mhz
p320
atp321
atp322
sI1074268692
(Vbootloader_clock_configure
p323
(lp324
(L1154001737L
L1880226080L
(lp325
(lp326
Vesp_rom_uart_tx_wait_idle
p327
aVefuse_hal_chip_revision
p328
atp329
a(L1021040686L
L0L
(lp330
(lp331
tp332
a(L4237109696L
L3785322319L
(lp333
(lp334
Vrtc_clk_apb_freq_get
p335
atp336
a(L1955963821L
L1832448559L
(lp337
(lp338
Vrtc_clk_slow_freq_get
p339
aVrtc_clk_fast_freq_get
p340
aVrtc_clk_init
p341
atp342
a(L2925377706L
L0L
(lp343
(lp344
tp345
a(L3864824743L
L0L
(lp346
(lp347
tp348
a(L106L
L0L
(lp349
(lp350
tp351
atp352
sI1074237220
(Vbootloader_common_get_active_otadata
p353
(lp354
(L3317503532L
L0L
(lp355
(lp356
tp357
a(L2503049265L
L1832448559L
(lp358
(lp359
Vbootloader_common_ota_select_valid
p360
aVbootloader_common_ota_select_valid
p361
aVbootloader_common_select_otadata
p362
atp363
a(L735741265L
L0L
(lp364
(lp365
tp366
atp367
sI1074236452
(Vbootloader_common_get_chip_ver_pkg
p368
(lp369
(L2768515967L
L0L
(lp370
(lp371
tp372
atp373
sI1074240548
(Vprocess_image_header
p374
(lp375
(L3452694586L
L3785322319L
(lp376
(lp377
Vbootloader_flash_read
p378
atp379
a(L3020204L
L0L
(lp380
(lp381
tp382
a(L1583805461L
L0L
(lp383
(lp384
tp385
a(L1727394037L
L0L
(lp386
(lp387
tp388
a(L1161397362L
L3785322319L
(lp389
(lp390
Vbootloader_sha256_start
p391
atp392
a(L1948257695L
L3785322319L
(lp393
(lp394
Vbootloader_sha256_data
p395
atp396
a(L1095449651L
L0L
(lp397
(lp398
tp399
a(L3020204L
L0L
(lp400
(lp401
tp402
a(L702738216L
L0L
(lp403
(lp404
tp405
a(L3360570486L
L0L
(lp406
(lp407
tp408
a(L3601647088L
L3785322319L
(lp409
(lp410
Vesp_log_early_timestamp
p411
atp412
a(L3718883008L
L3785322319L
(lp413
(lp414
Vbootloader_common_check_chip_validity
p415
atp416
a(L3677035427L
L0L
(lp417
(lp418
tp419
a(L3028481L
L0L
(lp420
(lp421
tp422
a(L3569534582L
L3785322319L
(lp423
(lp424
Vesp_log_early_timestamp
p425
atp426
a(L2250109166L
L0L
(lp427
(lp428
tp429
a(L1235012870L
L0L
(lp430
(lp431
tp432
a(L3063569071L
L0L
(lp433
(lp434
tp435
atp436
sI1074245924
(Vwdt_hal_enable
p437
(lp438
(L4029830118L
L0L
(lp439
(lp440
tp441
a(L3634439744L
L0L
(lp442
(lp443
tp444
a(L3360570486L
L0L
(lp445
(lp446
tp447
a(L2011576586L
L0L
(lp448
(lp449
tp450
atp451
sI1074246692
(Vrtc_clk_8md256_enabled
p452
(lp453
(L2405563282L
L0L
(lp454
(lp455
tp456
atp457
sI1074235168
(Vbootloader_execute_flash_command
p458
(lp459
(L2481595632L
L3785322319L
(lp460
(lp461
Vbootloader_flash_execute_command_common
p462
atp463
atp464
sI1074270240
(Vrtc_clk_xtal_freq_estimate
p465
(lp466
(L2516060585L
L1880226080L
(lp467
(lp468
Vrtc_clk_8m_enabled
p469
aVrtc_clk_8md256_enabled
p470
atp471
a(L967485502L
L3785322319L
(lp472
(lp473
Vrtc_clk_8m_enable
p474
atp475
a(L821444885L
L3785322319L
(lp476
(lp477
Vrtc_clk_cal_ratio
p478
atp479
a(L93674324L
L0L
(lp480
(lp481
tp482
a(L3910042627L
L0L
(lp483
(lp484
tp485
a(L1299866334L
L0L
(lp486
(lp487
tp488
a(L3360570486L
L0L
(lp489
(lp490
tp491
a(L3936819466L
L0L
(lp492
(lp493
tp494
a(L3982077265L
L0L
(lp495
(lp496
tp497
a(L1641150486L
L0L
(lp498
(lp499
tp500
a(L508392496L
L3785322319L
(lp501
(lp502
Vesp_log_early_timestamp
p503
atp504
a(L1057911724L
L3785322319L
(lp505
(lp506
Vesp_log_early_timestamp
p507
atp508
a(L3208494769L
L3785322319L
(lp509
(lp510
Vesp_log_early_timestamp
p511
atp512
atp513
sI1074246188
(Vrtc_clk_cpu_freq_to_pll_mhz
p514
(lp515
(L3148070701L
L0L
(lp516
(lp517
tp518
a(L106L
L0L
(lp519
(lp520
tp521
a(L741667605L
L0L
(lp522
(lp523
tp524
a(L106L
L0L
(lp525
(lp526
tp527
a(L1546614651L
L0L
(lp528
(lp529
tp530
a(L1797359599L
L0L
(lp531
(lp532
tp533
a(L3372814491L
L3785322319L
(lp534
(lp535
Vrtc_clk_wait_for_slow_cycle
p536
atp537
a(L3547411263L
L1880226080L
(lp538
(lp539
Vesp_log_early_timestamp
p540
aVabort
p541
atp542
a(L2313892495L
L0L
(lp543
(lp544
tp545
a(L1306330990L
L0L
(lp546
(lp547
tp548
atp549
sI1074240300
(Vbootloader_console_deinit
p550
(lp551
(L2989565768L
L0L
(lp552
(lp553
tp554
atp555
sI1074248492
(Vrtc_clk_cal_ratio
p556
(lp557
(L782435354L
L3785322319L
(lp558
(lp559
Vrtc_clk_cal_internal
p560
atp561
atp562
sI1074269476
(Vbootloader_write_status_16b_wrsr
p563
(lp564
(L1235576642L
L3785322319L
(lp565
(lp566
Vbootloader_execute_flash_command
p567
atp568
atp569
sI1074238504
(Vload_image
p570
(lp571
(L1133981448L
L1880226080L
(lp572
(lp573
Vbootloader_random_disable
p574
aVbootloader_ana_clock_glitch_reset_config
p575
atp576
a(L2118498116L
L0L
(lp577
(lp578
tp579
a(L106L
L0L
(lp580
(lp581
tp582
a(L1061355296L
L0L
(lp583
(lp584
tp585
a(L2010554219L
L0L
(lp586
(lp587
tp588
a(L3268103L
L0L
(lp589
(lp590
tp591
a(L553745718L
L3785322319L
(lp592
(lp593
Vbootloader_console_deinit
p594
atp595
a(L1725103625L
L0L
(lp596
(lp597
tp598
a(L2902417580L
L0L
(lp599
(lp600
tp601
a(L292948230L
L3785322319L
(lp602
(lp603
Vesp_log_early_timestamp
p604
atp605
a(L2663513213L
L0L
(lp606
(lp607
tp608
a(L191737985L
L0L
(lp609
(lp610
tp611
a(L2902417580L
L0L
(lp612
(lp613
tp614
a(L3915378691L
L3785322319L
(lp615
(lp616
Vesp_log_early_timestamp
p617
atp618
a(L902182917L
L0L
(lp619
(lp620
tp621
a(L2105494657L
L0L
(lp622
(lp623
tp624
atp625
sI1074269496
(Vbootloader_read_status_8b_xmc25qu64a
p626
(lp627
(L2551701168L
L2485746240L
(lp628
(lp629
Vbootloader_execute_flash_command
p630
aVesp_rom_spiflash_wait_idle
p631
aVbootloader_execute_flash_command
p632
aVbootloader_execute_flash_command
p633
atp634
atp635
sI1074239284
(Vbootloader_utility_get_selected_boot_partition
p636
(lp637
(L2803238495L
L0L
(lp638
(lp639
tp640
a(L1299867982L
L0L
(lp641
(lp642
tp643
a(L3360570486L
L0L
(lp644
(lp645
tp646
a(L3576392883L
L0L
(lp647
(lp648
tp649
a(L88483392L
L3785322319L
(lp650
(lp651
Vesp_log_early_timestamp
p652
atp653
a(L282377750L
L0L
(lp654
(lp655
tp656
a(L1375577398L
L3785322319L
(lp657
(lp658
Vbootloader_mmap
p659
atp660
a(L1207745954L
L3785322319L
(lp661
(lp662
Vesp_log_early_timestamp
p663
atp664
a(L3610321423L
L1880226080L
(lp665
(lp666
Vbootloader_munmap
p667
aVbootloader_common_ota_select_invalid
p668
atp669
a(L1103573946L
L0L
(lp670
(lp671
tp672
a(L1876827316L
L3785322319L
(lp673
(lp674
Vbootloader_common_get_active_otadata
p675
atp676
a(L569346373L
L0L
(lp677
(lp678
tp679
a(L3111084448L
L3785322319L
(lp680
(lp681
Vbootloader_common_ota_select_invalid
p682
atp683
a(L45272527L
L0L
(lp684
(lp685
tp686
a(L847230968L
L0L
(lp687
(lp688
tp689
a(L505081345L
L0L
(lp690
(lp691
tp692
a(L919052234L
L3785322319L
(lp693
(lp694
Vbootloader_common_ota_select_crc
p695
atp696
a(L2287680455L
L0L
(lp697
(lp698
tp699
a(L3542558037L
L3785322319L
(lp700
(lp701
Vbootloader_common_ota_select_crc
p702
atp703
a(L1299866312L
L0L
(lp704
(lp705
tp706
a(L1715531634L
L0L
(lp707
(lp708
tp709
a(L3344754003L
L3785322319L
(lp710
(lp711
Vesp_log_early_timestamp
p712
atp713
a(L1367516498L
L0L
(lp714
(lp715
tp716
a(L4142612723L
L3785322319L
(lp717
(lp718
Vesp_log_early_timestamp
p719
atp720
atp721
sI1074236976
(Vbootloader_common_check_chip_validity
p722
(lp723
(L722188971L
L0L
(lp724
(lp725
tp726
a(L2585476868L
L3785322319L
(lp727
(lp728
Vesp_log_early_timestamp
p729
atp730
a(L522103407L
L3785322319L
(lp731
(lp732
Vefuse_hal_chip_revision
p733
atp734
a(L106L
L0L
(lp735
(lp736
tp737
a(L2859881759L
L0L
(lp738
(lp739
tp740
a(L2217140232L
L3785322319L
(lp741
(lp742
Vesp_log_early_timestamp
p743
atp744
a(L3028464L
L0L
(lp745
(lp746
tp747
a(L4118102069L
L0L
(lp748
(lp749
tp750
a(L3021749L
L0L
(lp751
(lp752
tp753
a(L2638107033L
L3785322319L
(lp754
(lp755
Vesp_log_early_timestamp
p756
atp757
a(L1299867982L
L0L
(lp758
(lp759
tp760
a(L3360570486L
L0L
(lp761
(lp762
tp763
atp764
sI1074270000
(Vbootloader_check_bootloader_validity
p765
(lp766
(L2380803598L
L1880226080L
(lp767
(lp768
Vefuse_hal_chip_revision
p769
aVbootloader_common_check_chip_validity
p770
atp771
atp772
sI1074240316
(V__assert_func
p773
(lp774
(L1291965001L
L0L
(lp775
(lp776
tp777
a(L106L
L0L
(lp778
(lp779
tp780
atp781
sI1074242876
(Vesp_rom_spiflash_wait_idle
p782
(lp783
(L3233076205L
L0L
(lp784
(lp785
tp786
a(L2023766174L
L0L
(lp787
(lp788
tp789
a(L2805934225L
L0L
(lp790
(lp791
tp792
a(L3086959262L
L0L
(lp793
(lp794
tp795
a(L4161019926L
L3785322319L
(lp796
(lp797
Vesp_rom_spiflash_read_status
p798
atp799
atp800
sI1074246716
(Vrtc_clk_slow_freq_set
p801
(lp802
(L2050628452L
L0L
(lp803
(lp804
tp805
atp806
sI1074271028
(Vrtc_vddsdio_set_config
p807
(lp808
(L422605257L
L0L
(lp809
(lp810
tp811
atp812
sI1074236728
(Vefuse_hal_get_major_chip_version
p813
(lp814
(L2067932744L
L0L
(lp815
(lp816
tp817
a(L894792960L
L0L
(lp818
(lp819
tp820
a(L724635033L
L0L
(lp821
(lp822
tp823
a(L3360570486L
L0L
(lp824
(lp825
tp826
atp827
sI1074239556
(Vbootloader_reset
p828
(lp829
(L1510130573L
L3785322319L
(lp830
(lp831
Vbootloader_console_deinit
p832
atp833
a(L106L
L0L
(lp834
(lp835
tp836
atp837
sI1074239044
(Vtry_load_partition
p838
(lp839
(L2950885718L
L0L
(lp840
(lp841
tp842
a(L984595082L
L3785322319L
(lp843
(lp844
Vbootloader_load_image
p845
atp846
a(L3871473710L
L0L
(lp847
(lp848
tp849
atp850
sI1074236484
(Vesp_cpu_in_ocd_debug_mode
p851
(lp852
(L3653986668L
L0L
(lp853
(lp854
tp855
atp856
sI1074244164
(Vesp_rom_spiflash_write_encrypted
p857
(lp858
(L2107077087L
L0L
(lp859
(lp860
tp861
a(L474515799L
L0L
(lp862
(lp863
tp864
a(L97689L
L0L
(lp865
(lp866
tp867
a(L3061232074L
L0L
(lp868
(lp869
tp870
a(L509755185L
L0L
(lp871
(lp872
tp873
a(L2903314395L
L3785322319L
(lp874
(lp875
Vesp_rom_spiflash_write
p876
atp877
a(L4078096124L
L0L
(lp878
(lp879
tp880
a(L735741265L
L0L
(lp881
(lp882
tp883
atp884
sI1074267724
(Vcall_start_cpu0
p885
(lp886
(L1137852827L
L0L
(lp887
(lp888
tp889
a(L549459388L
L0L
(lp890
(lp891
tp892
a(L3212347974L
L3785322319L
(lp893
(lp894
Vbootloader_init
p895
atp896
a(L94425498L
L3785322319L
(lp897
(lp898
Vbootloader_reset
p899
atp900
a(L1122046408L
L0L
(lp901
(lp902
tp903
a(L4099474112L
L0L
(lp904
(lp905
tp906
a(L3015046664L
L3785322319L
(lp907
(lp908
Vbootloader_utility_load_partition_table
p909
atp910
a(L2761094216L
L3785322319L
(lp911
(lp912
Vesp_log_early_timestamp
p913
atp914
a(L736289835L
L3785322319L
(lp915
(lp916
Vbootloader_utility_get_selected_boot_partition
p917
atp918
a(L3548846595L
L1880226080L
(lp919
(lp920
Vbootloader_common_get_reset_reason
p921
aVbootloader_utility_load_boot_image
p922
atp923
atp924
sI1074270028
(Vbootloader_config_wdt
p925
(lp926
(L3378629926L
L505859776L
(lp927
(lp928
Vwdt_hal_write_protect_disable
p929
aVwdt_hal_set_flashboot_en
p930
aVwdt_hal_write_protect_enable
p931
aVwdt_hal_init
p932
aVrtc_clk_slow_freq_get_hz
p933
aVwdt_hal_write_protect_disable
p934
aVwdt_hal_config_stage
p935
aVwdt_hal_enable
p936
aVwdt_hal_write_protect_enable
p937
aVwdt_hal_write_protect_disable
p938
aVwdt_hal_set_flashboot_en
p939
aVwdt_hal_write_protect_enable
p940
atp941
atp942
sI1074235200
(Vbootloader_flash_unlock
p943
(lp944
(L142706334L
L3785322319L
(lp945
(lp946
Vesp_rom_spiflash_wait_idle
p947
atp948
a(L4024621237L
L0L
(lp949
(lp950
tp951
a(L4292483033L
L3785322319L
(lp952
(lp953
Vbootloader_execute_flash_command
p954
atp955
a(L106L
L0L
(lp956
(lp957
tp958
a(L1303560644L
L0L
(lp959
(lp960
tp961
a(L1419965066L
L0L
(lp962
(lp963
tp964
a(L106L
L0L
(lp965
(lp966
tp967
a(L1633120054L
L0L
(lp968
(lp969
tp970
a(L106L
L0L
(lp971
(lp972
tp973
a(L2974484771L
L0L
(lp974
(lp975
tp976
a(L106L
L0L
(lp977
(lp978
tp979
a(L1481761147L
L1880226080L
(lp980
(lp981
Vbootloader_execute_flash_command
p982
aVbootloader_execute_flash_command
p983
atp984
a(L2258807654L
L0L
(lp985
(lp986
tp987
a(L489806350L
L1832448559L
(lp988
(lp989
Vesp_rom_spiflash_wait_idle
p990
aVbootloader_execute_flash_command
p991
aVbootloader_execute_flash_command
p992
atp993
a(L879744646L
L1832448559L
(lp994
(lp995
Vesp_rom_spiflash_wait_idle
p996
aVbootloader_execute_flash_command
p997
aVbootloader_execute_flash_command
p998
atp999
a(L1840772931L
L1880226080L
(lp1000
(lp1001
Vesp_rom_spiflash_wait_idle
p1002
aVbootloader_execute_flash_command
p1003
atp1004
a(L2993202392L
L0L
(lp1005
(lp1006
tp1007
a(L508800419L
L1880226080L
(lp1008
(lp1009
Vbootloader_execute_flash_command
p1010
aVbootloader_execute_flash_command
p1011
atp1012
a(L1303560369L
L0L
(lp1013
(lp1014
tp1015
a(L1596544945L
L0L
(lp1016
(lp1017
tp1018
a(L97689L
L0L
(lp1019
(lp1020
tp1021
a(L106L
L0L
(lp1022
(lp1023
tp1024
atp1025
sI1074247744
(Vrtc_clk_cpu_freq_set_config
p1026
(lp1027
(L4238119451L
L3785322319L
(lp1028
(lp1029
Vrtc_clk_xtal_freq_get
p1030
atp1031
a(L1828795533L
L1880226080L
(lp1032
(lp1033
Vrtc_clk_cpu_freq_to_xtal
p1034
aVrtc_clk_wait_for_slow_cycle
p1035
atp1036
a(L94425498L
L3785322319L
(lp1037
(lp1038
Vrtc_clk_bbpll_disable
p1039
atp1040
a(L3978916712L
L0L
(lp1041
(lp1042
tp1043
a(L2977209154L
L0L
(lp1044
(lp1045
tp1046
a(L2736411858L
L3785322319L
(lp1047
(lp1048
Vrtc_clk_cpu_freq_to_xtal
p1049
atp1050
a(L3360570486L
L0L
(lp1051
(lp1052
tp1053
a(L3020187L
L0L
(lp1054
(lp1055
tp1056
a(L106L
L0L
(lp1057
(lp1058
tp1059
a(L20936055L
L2485746240L
(lp1060
(lp1061
Vrtc_clk_wait_for_slow_cycle
p1062
aVrtc_clk_xtal_freq_get
p1063
aVrtc_clk_bbpll_configure
p1064
aVrtc_clk_cpu_freq_to_pll_mhz
p1065
atp1066
a(L3020187L
L0L
(lp1067
(lp1068
tp1069
a(L106L
L0L
(lp1070
(lp1071
tp1072
a(L807101L
L0L
(lp1073
(lp1074
tp1075
atp1076
sI1074237260
(Vbootloader_common_ota_select_invalid
p1077
(lp1078
(L4027567199L
L0L
(lp1079
(lp1080
tp1081
a(L3397985842L
L0L
(lp1082
(lp1083
tp1084
a(L2258867228L
L0L
(lp1085
(lp1086
tp1087
a(L3785235668L
L0L
(lp1088
(lp1089
tp1090
atp1091
sI1074234700
(Vbootloader_flash_execute_command_common
p1092
(lp1093
(L2935702355L
L0L
(lp1094
(lp1095
tp1096
a(L120555589L
L0L
(lp1097
(lp1098
tp1099
a(L2890397610L
L3785322319L
(lp1100
(lp1101
V__assert_func
p1102
atp1103
a(L3021749L
L0L
(lp1104
(lp1105
tp1106
a(L153183703L
L0L
(lp1107
(lp1108
tp1109
a(L901582467L
L0L
(lp1110
(lp1111
tp1112
a(L695082870L
L0L
(lp1113
(lp1114
tp1115
a(L4024113366L
L0L
(lp1116
(lp1117
tp1118
a(L3998568023L
L0L
(lp1119
(lp1120
tp1121
a(L163389185L
L0L
(lp1122
(lp1123
tp1124
a(L2336699050L
L0L
(lp1125
(lp1126
tp1127
a(L4038246755L
L0L
(lp1128
(lp1129
tp1130
a(L1065820671L
L0L
(lp1131
(lp1132
tp1133
a(L3041777204L
L0L
(lp1134
(lp1135
tp1136
a(L3333696662L
L0L
(lp1137
(lp1138
tp1139
a(L963425213L
L0L
(lp1140
(lp1141
tp1142
a(L2106665914L
L0L
(lp1143
(lp1144
tp1145
a(L3360570486L
L0L
(lp1146
(lp1147
tp1148
atp1149
sI1074235724
(Vbootloader_flash_cs_timing_config
p1150
(lp1151
(L1061398432L
L0L
(lp1152
(lp1153
tp1154
atp1155
sI1074248524
(Vrtc_clk_wait_for_slow_cycle
p1156
(lp1157
(L481386405L
L0L
(lp1158
(lp1159
tp1160
a(L287687718L
L0L
(lp1161
(lp1162
tp1163
a(L3360570486L
L0L
(lp1164
(lp1165
tp1166
a(L2366481751L
L0L
(lp1167
(lp1168
tp1169
a(L2994547433L
L0L
(lp1170
(lp1171
tp1172
a(L580986208L
L0L
(lp1173
(lp1174
tp1175
a(L2273511956L
L3785322319L
(lp1176
(lp1177
Vesp_log_early_timestamp
p1178
atp1179
atp1180
sI1074236500
(Vesp_rom_uart_tx_wait_idle
p1181
(lp1182
(L3780268457L
L0L
(lp1183
(lp1184
tp1185
a(L1301079727L
L0L
(lp1186
(lp1187
tp1188
a(L3597746521L
L0L
(lp1189
(lp1190
tp1191
a(L3694491048L
L0L
(lp1192
(lp1193
tp1194
a(L3055926844L
L0L
(lp1195
(lp1196
tp1197
a(L3360570486L
L0L
(lp1198
(lp1199
tp1200
atp1201
sI1074240340
(Vabort
p1202
(lp1203
(L2941593682L
L0L
(lp1204
(lp1205
tp1206
a(L409471316L
L0L
(lp1207
(lp1208
tp1209
a(L106L
L0L
(lp1210
(lp1211
tp1212
atp1213
sI1074246480
(Vrtc_clk_32k_enable
p1214
(lp1215
(L753387299L
L0L
(lp1216
(lp1217
tp1218
a(L1067050752L
L3785322319L
(lp1219
(lp1220
Vrtc_clk_32k_enable_common
p1221
atp1222
a(L3360570486L
L0L
(lp1223
(lp1224
tp1225
a(L428012303L
L0L
(lp1226
(lp1227
tp1228
atp1229
sI1074248024
(Vrtc_clk_apb_freq_get
p1230
(lp1231
(L96176921L
L0L
(lp1232
(lp1233
tp1234
atp1235
sI1074269544
(Vbootloader_write_status_8b_xmc25qu64a
p1236
(lp1237
(L2622489986L
L1157885199L
(lp1238
(lp1239
Vbootloader_execute_flash_command
p1240
aVesp_rom_spiflash_wait_idle
p1241
aVbootloader_execute_flash_command
p1242
aVesp_rom_spiflash_wait_idle
p1243
aVbootloader_execute_flash_command
p1244
atp1245
atp1246
sI1074243172
(Vesp_rom_spiflash_config_readmode
p1247
(lp1248
(L2433197199L
L0L
(lp1249
(lp1250
tp1251
a(L673774382L
L0L
(lp1252
(lp1253
tp1254
a(L1008982866L
L0L
(lp1255
(lp1256
tp1257
a(L3905548590L
L0L
(lp1258
(lp1259
tp1260
a(L3973197012L
L0L
(lp1261
(lp1262
tp1263
a(L106L
L0L
(lp1264
(lp1265
tp1266
a(L93837694L
L0L
(lp1267
(lp1268
tp1269
a(L106L
L0L
(lp1270
(lp1271
tp1272
a(L3020204L
L0L
(lp1273
(lp1274
tp1275
a(L3028464L
L0L
(lp1276
(lp1277
tp1278
a(L106L
L0L
(lp1279
(lp1280
tp1281
a(L100799156L
L0L
(lp1282
(lp1283
tp1284
a(L106L
L0L
(lp1285
(lp1286
tp1287
a(L2932638890L
L0L
(lp1288
(lp1289
tp1290
a(L2044702528L
L0L
(lp1291
(lp1292
tp1293
a(L3020187L
L0L
(lp1294
(lp1295
tp1296
a(L3020187L
L0L
(lp1297
(lp1298
tp1299
a(L106L
L0L
(lp1300
(lp1301
tp1302
a(L1084484930L
L0L
(lp1303
(lp1304
tp1305
a(L1084615750L
L0L
(lp1306
(lp1307
tp1308
a(L1084615626L
L0L
(lp1309
(lp1310
tp1311
a(L1084616463L
L0L
(lp1312
(lp1313
tp1314
a(L1084617083L
L0L
(lp1315
(lp1316
tp1317
a(L2715907221L
L0L
(lp1318
(lp1319
tp1320
a(L106L
L0L
(lp1321
(lp1322
tp1323
a(L2524757520L
L0L
(lp1324
(lp1325
tp1326
a(L1385162534L
L0L
(lp1327
(lp1328
tp1329
a(L2993202392L
L0L
(lp1330
(lp1331
tp1332
a(L3016870L
L0L
(lp1333
(lp1334
tp1335
a(L263149292L
L0L
(lp1336
(lp1337
tp1338
a(L3610194608L
L0L
(lp1339
(lp1340
tp1341
a(L575459300L
L0L
(lp1342
(lp1343
tp1344
a(L3463502461L
L0L
(lp1345
(lp1346
tp1347
a(L575460765L
L0L
(lp1348
(lp1349
tp1350
a(L75957818L
L0L
(lp1351
(lp1352
tp1353
a(L4182690755L
L0L
(lp1354
(lp1355
tp1356
a(L2429650609L
L0L
(lp1357
(lp1358
tp1359
a(L1979133984L
L0L
(lp1360
(lp1361
tp1362
atp1363
sI1074239588
(Vbootloader_utility_load_boot_image
p1364
(lp1365
(L1561528311L
L0L
(lp1366
(lp1367
tp1368
a(L2177418995L
L3785322319L
(lp1369
(lp1370
Vtry_load_partition
p1371
atp1372
a(L2749106626L
L3785322319L
(lp1373
(lp1374
Vload_image
p1375
atp1376
a(L2911318225L
L3785322319L
(lp1377
(lp1378
Vesp_log_early_timestamp
p1379
atp1380
a(L3827921190L
L3785322319L
(lp1381
(lp1382
Vbootloader_reset
p1383
atp1384
a(L2542673780L
L3785322319L
(lp1385
(lp1386
Vindex_to_partition
p1387
atp1388
a(L1204373741L
L3785322319L
(lp1389
(lp1390
Vtry_load_partition
p1391
atp1392
a(L3020187L
L0L
(lp1393
(lp1394
tp1395
a(L1952355944L
L0L
(lp1396
(lp1397
tp1398
a(L2070875117L
L3785322319L
(lp1399
(lp1400
Vset_actual_ota_seq
p1401
atp1402
a(L1868897605L
L3785322319L
(lp1403
(lp1404
Vlog_invalid_app_partition
p1405
atp1406
a(L831650730L
L0L
(lp1407
(lp1408
tp1409
a(L3021737L
L0L
(lp1410
(lp1411
tp1412
a(L4083823862L
L0L
(lp1413
(lp1414
tp1415
a(L3825716369L
L3785322319L
(lp1416
(lp1417
Vtry_load_partition
p1418
atp1419
a(L459467932L
L3785322319L
(lp1420
(lp1421
Vesp_log_early_timestamp
p1422
atp1423
a(L2185156151L
L3785322319L
(lp1424
(lp1425
Vindex_to_partition
p1426
atp1427
a(L1074657773L
L3785322319L
(lp1428
(lp1429
Vtry_load_partition
p1430
atp1431
a(L3027024L
L0L
(lp1432
(lp1433
tp1434
a(L1277117157L
L0L
(lp1435
(lp1436
tp1437
a(L3061261803L
L0L
(lp1438
(lp1439
tp1440
a(L3582858798L
L3785322319L
(lp1441
(lp1442
Vlog_invalid_app_partition
p1443
atp1444
a(L604189574L
L3785322319L
(lp1445
(lp1446
Vesp_log_early_timestamp
p1447
atp1448
atp1449
sI1074239076
(Vbootloader_utility_load_partition_table
p1450
(lp1451
(L2031188228L
L3785322319L
(lp1452
(lp1453
Vbootloader_mmap
p1454
atp1455
a(L1480418209L
L3785322319L
(lp1456
(lp1457
Vesp_log_early_timestamp
p1458
atp1459
a(L2258688482L
L0L
(lp1460
(lp1461
tp1462
a(L3360570486L
L0L
(lp1463
(lp1464
tp1465
a(L1520382514L
L3785322319L
(lp1466
(lp1467
Vesp_partition_table_verify
p1468
atp1469
a(L1069200939L
L3785322319L
(lp1470
(lp1471
Vesp_log_early_timestamp
p1472
atp1473
a(L148985701L
L0L
(lp1474
(lp1475
tp1476
a(L3020187L
L0L
(lp1477
(lp1478
tp1479
a(L4067319519L
L0L
(lp1480
(lp1481
tp1482
a(L3806571235L
L0L
(lp1483
(lp1484
tp1485
a(L2247926755L
L3785322319L
(lp1486
(lp1487
Vbootloader_munmap
p1488
atp1489
a(L1036489382L
L0L
(lp1490
(lp1491
tp1492
a(L3020187L
L0L
(lp1493
(lp1494
tp1495
a(L1699092113L
L0L
(lp1496
(lp1497
tp1498
a(L3926410636L
L0L
(lp1499
(lp1500
tp1501
a(L3977772390L
L0L
(lp1502
(lp1503
tp1504
a(L1535150665L
L0L
(lp1505
(lp1506
tp1507
a(L2387139071L
L0L
(lp1508
(lp1509
tp1510
a(L507291053L
L0L
(lp1511
(lp1512
tp1513
atp1514
sI1074235492
(Vbootloader_flash_read_sfdp
p1515
(lp1516
(L711701400L
L0L
(lp1517
(lp1518
tp1519
a(L3282613751L
L3785322319L
(lp1520
(lp1521
V__assert_func
p1522
atp1523
a(L3704332455L
L3785322319L
(lp1524
(lp1525
Vbootloader_flash_execute_command_common
p1526
atp1527
atp1528
sI1074241376
(Vprocess_segments
p1529
(lp1530
(L359986521L
L0L
(lp1531
(lp1532
tp1533
a(L2748309156L
L0L
(lp1534
(lp1535
tp1536
a(L2910670446L
L0L
(lp1537
(lp1538
tp1539
a(L106L
L0L
(lp1540
(lp1541
tp1542
a(L2587042390L
L0L
(lp1543
(lp1544
tp1545
a(L749210250L
L3785322319L
(lp1546
(lp1547
Vesp_log_early_timestamp
p1548
atp1549
a(L1007910832L
L3785322319L
(lp1550
(lp1551
Vbootloader_flash_read
p1552
atp1553
a(L3526271734L
L3785322319L
(lp1554
(lp1555
Vesp_log_early_timestamp
p1556
atp1557
a(L3360570486L
L0L
(lp1558
(lp1559
tp1560
a(L1890170661L
L0L
(lp1561
(lp1562
tp1563
a(L4138551778L
L3785322319L
(lp1564
(lp1565
Vbootloader_sha256_data
p1566
atp1567
a(L3910643394L
L0L
(lp1568
(lp1569
tp1570
a(L790360741L
L0L
(lp1571
(lp1572
tp1573
a(L1404461989L
L0L
(lp1574
(lp1575
tp1576
a(L1714661835L
L0L
(lp1577
(lp1578
tp1579
a(L106L
L0L
(lp1580
(lp1581
tp1582
a(L3191688883L
L0L
(lp1583
(lp1584
tp1585
a(L3656641238L
L0L
(lp1586
(lp1587
tp1588
a(L258832202L
L3785322319L
(lp1589
(lp1590
Vesp_log_early_timestamp
p1591
atp1592
a(L3648687041L
L0L
(lp1593
(lp1594
tp1595
a(L310048322L
L0L
(lp1596
(lp1597
tp1598
a(L496671104L
L3785322319L
(lp1599
(lp1600
Vesp_log_early_timestamp
p1601
atp1602
a(L1551654749L
L3785322319L
(lp1603
(lp1604
Vverify_load_addresses
p1605
atp1606
a(L106L
L0L
(lp1607
(lp1608
tp1609
a(L238852646L
L0L
(lp1610
(lp1611
tp1612
a(L2655382944L
L0L
(lp1613
(lp1614
tp1615
a(L3735077394L
L3785322319L
(lp1616
(lp1617
Vbootloader_mmap
p1618
atp1619
a(L1222295062L
L3785322319L
(lp1620
(lp1621
Vesp_log_early_timestamp
p1622
atp1623
a(L1607815472L
L0L
(lp1624
(lp1625
tp1626
a(L3420302082L
L0L
(lp1627
(lp1628
tp1629
a(L1652679798L
L3785322319L
(lp1630
(lp1631
Vbootloader_munmap
p1632
atp1633
a(L1820299912L
L0L
(lp1634
(lp1635
tp1636
a(L1782223905L
L3785322319L
(lp1637
(lp1638
Vbootloader_fill_random
p1639
atp1640
a(L3570641403L
L0L
(lp1641
(lp1642
tp1643
a(L3574335487L
L0L
(lp1644
(lp1645
tp1646
a(L3450268858L
L0L
(lp1647
(lp1648
tp1649
a(L3021749L
L0L
(lp1650
(lp1651
tp1652
a(L4179164843L
L0L
(lp1653
(lp1654
tp1655
a(L1084626871L
L0L
(lp1656
(lp1657
tp1658
a(L2902417580L
L0L
(lp1659
(lp1660
tp1661
a(L4175864319L
L0L
(lp1662
(lp1663
tp1664
a(L1797921642L
L0L
(lp1665
(lp1666
tp1667
a(L3425755096L
L0L
(lp1668
(lp1669
tp1670
a(L3396129621L
L0L
(lp1671
(lp1672
tp1673
a(L670934548L
L0L
(lp1674
(lp1675
tp1676
a(L363643669L
L3785322319L
(lp1677
(lp1678
Vbootloader_sha256_data
p1679
atp1680
a(L90548756L
L0L
(lp1681
(lp1682
tp1683
a(L4195963580L
L0L
(lp1684
(lp1685
tp1686
a(L4112551030L
L0L
(lp1687
(lp1688
tp1689
a(L617933722L
L0L
(lp1690
(lp1691
tp1692
a(L819370645L
L3785322319L
(lp1693
(lp1694
Vshould_load
p1695
atp1696
a(L3780737284L
L0L
(lp1697
(lp1698
tp1699
a(L3028481L
L0L
(lp1700
(lp1701
tp1702
a(L2136754140L
L3785322319L
(lp1703
(lp1704
Vbootloader_mmap_get_free_pages
p1705
atp1706
a(L3028481L
L0L
(lp1707
(lp1708
tp1709
a(L1228460392L
L0L
(lp1710
(lp1711
tp1712
atp1713
sI1074242924
(Vesp_rom_spiflash_enable_write
p1714
(lp1715
(L1645964007L
L3785322319L
(lp1716
(lp1717
Vesp_rom_spiflash_wait_idle
p1718
atp1719
a(L3137194272L
L0L
(lp1720
(lp1721
tp1722
a(L2258718275L
L0L
(lp1723
(lp1724
tp1725
a(L99543895L
L0L
(lp1726
(lp1727
tp1728
a(L2993202392L
L0L
(lp1729
(lp1730
tp1731
a(L1804543818L
L3785322319L
(lp1732
(lp1733
Vesp_rom_spiflash_read_status
p1734
atp1735
atp1736
sI1074245996
(Vwdt_hal_set_flashboot_en
p1737
(lp1738
(L2375320464L
L0L
(lp1739
(lp1740
tp1741
a(L2716561907L
L0L
(lp1742
(lp1743
tp1744
a(L3360570486L
L0L
(lp1745
(lp1746
tp1747
a(L174450796L
L0L
(lp1748
(lp1749
tp1750
atp1751
sI1074240104
(Vbootloader_sha256_finish
p1752
(lp1753
(L4066096136L
L0L
(lp1754
(lp1755
tp1756
a(L410358202L
L0L
(lp1757
(lp1758
tp1759
a(L1994568885L
L3785322319L
(lp1760
(lp1761
V__assert_func
p1762
atp1763
a(L3020204L
L0L
(lp1764
(lp1765
tp1766
a(L401599358L
L0L
(lp1767
(lp1768
tp1769
a(L2534656226L
L0L
(lp1770
(lp1771
tp1772
a(L2029981428L
L3785322319L
(lp1773
(lp1774
Vbootloader_sha256_data
p1775
atp1776
a(L1972895529L
L0L
(lp1777
(lp1778
tp1779
a(L3601772519L
L3785322319L
(lp1780
(lp1781
Vbootloader_sha256_data
p1782
atp1783
a(L2018160223L
L0L
(lp1784
(lp1785
tp1786
a(L657425439L
L0L
(lp1787
(lp1788
tp1789
a(L4064522047L
L0L
(lp1790
(lp1791
tp1792
a(L657425439L
L0L
(lp1793
(lp1794
tp1795
a(L3112265759L
L0L
(lp1796
(lp1797
tp1798
a(L3347799211L
L0L
(lp1799
(lp1800
tp1801
a(L3347778L
L0L
(lp1802
(lp1803
tp1804
a(L3360570486L
L0L
(lp1805
(lp1806
tp1807
atp1808
sI1074237288
(Vbootloader_common_select_otadata
p1809
(lp1810
(L2342662536L
L0L
(lp1811
(lp1812
tp1813
a(L3806783650L
L0L
(lp1814
(lp1815
tp1816
a(L1674928252L
L0L
(lp1817
(lp1818
tp1819
a(L251571983L
L0L
(lp1820
(lp1821
tp1822
a(L3360570486L
L0L
(lp1823
(lp1824
tp1825
a(L2045232488L
L0L
(lp1826
(lp1827
tp1828
a(L189726519L
L0L
(lp1829
(lp1830
tp1831
a(L3095066987L
L0L
(lp1832
(lp1833
tp1834
a(L3592023188L
L0L
(lp1835
(lp1836
tp1837
a(L1641201884L
L0L
(lp1838
(lp1839
tp1840
atp1841
sI1074238056
(Vbootloader_enable_wp
p1842
(lp1843
(L1117825804L
L3785322319L
(lp1844
(lp1845
Vbootloader_execute_flash_command
p1846
atp1847
atp1848
sI1074239848
(Vindex_to_partition
p1849
(lp1850
(L4066096119L
L0L
(lp1851
(lp1852
tp1853
a(L1739185955L
L0L
(lp1854
(lp1855
tp1856
a(L2171552758L
L0L
(lp1857
(lp1858
tp1859
a(L2808906342L
L0L
(lp1860
(lp1861
tp1862
a(L2101481936L
L0L
(lp1863
(lp1864
tp1865
a(L3698927993L
L0L
(lp1866
(lp1867
tp1868
a(L2808826781L
L0L
(lp1869
(lp1870
tp1871
a(L3003398163L
L0L
(lp1872
(lp1873
tp1874
a(L1104460200L
L0L
(lp1875
(lp1876
tp1877
a(L1087646172L
L0L
(lp1878
(lp1879
tp1880
atp1881
sI1074271100
(Vbootloader_print_banner
p1882
(lp1883
(L2100504542L
L0L
(lp1884
(lp1885
tp1886
atp1887
sI1074238076
(Vbootloader_mmap_get_free_pages
p1888
(lp1889
(L1496516875L
L0L
(lp1890
(lp1891
tp1892
atp1893
sI1074244988
(Vwdt_hal_init
p1894
(lp1895
(L1481006602L
L0L
(lp1896
(lp1897
tp1898
a(L225989897L
L0L
(lp1899
(lp1900
tp1901
a(L2805933682L
L0L
(lp1902
(lp1903
tp1904
a(L4140311368L
L0L
(lp1905
(lp1906
tp1907
a(L1668176123L
L0L
(lp1908
(lp1909
tp1910
a(L3360570486L
L0L
(lp1911
(lp1912
tp1913
a(L3702001972L
L0L
(lp1914
(lp1915
tp1916
atp1917
sI1074247300
(Vrtc_clk_xtal_freq_get
p1918
(lp1919
(L2529434240L
L0L
(lp1920
(lp1921
tp1922
a(L2847936993L
L0L
(lp1923
(lp1924
tp1925
a(L3085711098L
L0L
(lp1926
(lp1927
tp1928
a(L3360570486L
L0L
(lp1929
(lp1930
tp1931
atp1932
sI1074240388
(Vbootloader_ana_clock_glitch_reset_config
p1933
(lp1934
(L2100504542L
L0L
(lp1935
(lp1936
tp1937
atp1938
sI1074237572
(Vbootloader_munmap
p1939
(lp1940
(L1406971354L
L0L
(lp1941
(lp1942
tp1943
a(L1341401488L
L0L
(lp1944
(lp1945
tp1946
a(L3360570486L
L0L
(lp1947
(lp1948
tp1949
atp1950
sI1074238084
(Vbootloader_fill_random
p1951
(lp1952
(L3026789978L
L0L
(lp1953
(lp1954
tp1955
a(L2062332557L
L0L
(lp1956
(lp1957
tp1958
a(L97689L
L0L
(lp1959
(lp1960
tp1961
a(L3360570486L
L0L
(lp1962
(lp1963
tp1964
a(L236978680L
L3785322319L
(lp1965
(lp1966
V__assert_func
p1967
atp1968
a(L2008660626L
L0L
(lp1969
(lp1970
tp1971
a(L3028481L
L0L
(lp1972
(lp1973
tp1974
a(L983138374L
L0L
(lp1975
(lp1976
tp1977
a(L2607138306L
L0L
(lp1978
(lp1979
tp1980
a(L1982128194L
L0L
(lp1981
(lp1982
tp1983
atp1984
sI1074247556
(Vrtc_clk_xtal_freq_update
p1985
(lp1986
(L1516275926L
L0L
(lp1987
(lp1988
tp1989
a(L3509357017L
L0L
(lp1990
(lp1991
tp1992
a(L3020103887L
L0L
(lp1993
(lp1994
tp1995
atp1996
sI1074248068
(Vrtc_clk_cal_internal
p1997
(lp1998
(L2696389181L
L0L
(lp1999
(lp2000
tp2001
a(L1110793299L
L3785322319L
(lp2002
(lp2003
V__assert_func
p2004
atp2005
a(L1738030298L
L0L
(lp2006
(lp2007
tp2008
a(L3017366L
L0L
(lp2009
(lp2010
tp2011
a(L2781091364L
L0L
(lp2012
(lp2013
tp2014
a(L4169864463L
L1880226080L
(lp2015
(lp2016
Vrtc_clk_8m_enabled
p2017
aVrtc_clk_8md256_enabled
p2018
atp2019
a(L819626462L
L3785322319L
(lp2020
(lp2021
Vrtc_clk_8m_enable
p2022
atp2023
a(L2826202005L
L0L
(lp2024
(lp2025
tp2026
a(L3502850147L
L0L
(lp2027
(lp2028
tp2029
a(L97689L
L0L
(lp2030
(lp2031
tp2032
a(L3017101657L
L0L
(lp2033
(lp2034
tp2035
a(L3028464L
L0L
(lp2036
(lp2037
tp2038
a(L3028481L
L0L
(lp2039
(lp2040
tp2041
a(L3450260154L
L0L
(lp2042
(lp2043
tp2044
a(L377665976L
L3785322319L
(lp2045
(lp2046
Vrtc_clk_xtal_freq_get
p2047
atp2048
a(L2780079961L
L0L
(lp2049
(lp2050
tp2051
a(L2738685331L
L0L
(lp2052
(lp2053
tp2054
a(L3787295871L
L3785322319L
(lp2055
(lp2056
Vesp_log_early_timestamp
p2057
atp2058
a(L3360570486L
L0L
(lp2059
(lp2060
tp2061
a(L2897493890L
L0L
(lp2062
(lp2063
tp2064
a(L2312538724L
L0L
(lp2065
(lp2066
tp2067
a(L3028481L
L0L
(lp2068
(lp2069
tp2070
a(L2459281154L
L0L
(lp2071
(lp2072
tp2073
a(L755155573L
L3785322319L
(lp2074
(lp2075
Vrtc_clk_8m_enable
p2076
atp2077
a(L3631005548L
L0L
(lp2078
(lp2079
tp2080
a(L216087758L
L0L
(lp2081
(lp2082
tp2083
a(L3352263364L
L0L
(lp2084
(lp2085
tp2086
atp2087
sI1074236800
(Vefuse_hal_get_minor_chip_version
p2088
(lp2089
(L2061258687L
L0L
(lp2090
(lp2091
tp2092
atp2093
sI1074246784
(Vrtc_clk_slow_freq_get
p2094
(lp2095
(L290039985L
L0L
(lp2096
(lp2097
tp2098
atp2099
sI1074246540
(Vrtc_clk_8m_enable
p2100
(lp2101
(L2898777230L
L0L
(lp2102
(lp2103
tp2104
a(L148031710L
L0L
(lp2105
(lp2106
tp2107
a(L2151320156L
L0L
(lp2108
(lp2109
tp2110
a(L2453986175L
L0L
(lp2111
(lp2112
tp2113
a(L3360570486L
L0L
(lp2114
(lp2115
tp2116
a(L1318267208L
L0L
(lp2117
(lp2118
tp2119
a(L2367232051L
L0L
(lp2120
(lp2121
tp2122
atp2123
sI1074241164
(Vprocess_appended_hash_and_sig
p2124
(lp2125
(L3580132405L
L0L
(lp2126
(lp2127
tp2128
a(L3028481L
L0L
(lp2129
(lp2130
tp2131
a(L1591589631L
L0L
(lp2132
(lp2133
tp2134
a(L22297358L
L0L
(lp2135
(lp2136
tp2137
a(L1014590699L
L0L
(lp2138
(lp2139
tp2140
a(L822910914L
L3785322319L
(lp2141
(lp2142
Vesp_log_early_timestamp
p2143
atp2144
a(L894030452L
L3785322319L
(lp2145
(lp2146
Vbootloader_flash_read
p2147
atp2148
a(L3871473710L
L0L
(lp2149
(lp2150
tp2151
atp2152
sI1074240396
(Vprocess_checksum
p2153
(lp2154
(L1985325516L
L0L
(lp2155
(lp2156
tp2157
a(L2910371777L
L0L
(lp2158
(lp2159
tp2160
a(L1649277394L
L0L
(lp2161
(lp2162
tp2163
a(L2910371777L
L0L
(lp2164
(lp2165
tp2166
a(L2902417580L
L0L
(lp2167
(lp2168
tp2169
a(L1644002876L
L3785322319L
(lp2170
(lp2171
Vbootloader_sha256_data
p2172
atp2173
a(L3612796056L
L0L
(lp2174
(lp2175
tp2176
a(L1811888222L
L3785322319L
(lp2177
(lp2178
Vbootloader_flash_read
p2179
atp2180
a(L3126521138L
L0L
(lp2181
(lp2182
tp2183
a(L2925121199L
L0L
(lp2184
(lp2185
tp2186
a(L3441606325L
L3785322319L
(lp2187
(lp2188
Vesp_log_early_timestamp
p2189
atp2190
atp2191
sI1074271108
(Vmpu_hal_set_region_access
p2192
(lp2193
(L3538356822L
L0L
(lp2194
(lp2195
tp2196
a(L2902417580L
L0L
(lp2197
(lp2198
tp2199
a(L3020187L
L0L
(lp2200
(lp2201
tp2202
a(L3020187L
L0L
(lp2203
(lp2204
tp2205
a(L3360570486L
L0L
(lp2206
(lp2207
tp2208
a(L2258718273L
L0L
(lp2209
(lp2210
tp2211
a(L3446648619L
L0L
(lp2212
(lp2213
tp2214
a(L3739532189L
L0L
(lp2215
(lp2216
tp2217
a(L1300789895L
L0L
(lp2218
(lp2219
tp2220
a(L3472092938L
L0L
(lp2221
(lp2222
tp2223
atp2224
sI1074236564
(Vesp_rom_uart_set_clock_baudrate
p2225
(lp2226
(L1373499653L
L0L
(lp2227
(lp2228
tp2229
a(L3928422248L
L0L
(lp2230
(lp2231
tp2232
a(L1008980025L
L0L
(lp2233
(lp2234
tp2235
a(L865464961L
L0L
(lp2236
(lp2237
tp2238
a(L2805931392L
L0L
(lp2239
(lp2240
tp2241
a(L2314858808L
L0L
(lp2242
(lp2243
tp2244
atp2245
sI1074236816
(Vis_xmc_chip_strict
p2246
(lp2247
(L1286841609L
L0L
(lp2248
(lp2249
tp2250
a(L2234016759L
L0L
(lp2251
(lp2252
tp2253
a(L1069027148L
L0L
(lp2254
(lp2255
tp2256
a(L3021749L
L0L
(lp2257
(lp2258
tp2259
a(L1900148749L
L0L
(lp2260
(lp2261
tp2262
a(L1936875721L
L0L
(lp2263
(lp2264
tp2265
a(L3356166509L
L0L
(lp2266
(lp2267
tp2268
a(L1937769451L
L0L
(lp2269
(lp2270
tp2271
a(L2137658907L
L0L
(lp2272
(lp2273
tp2274
a(L4265949734L
L0L
(lp2275
(lp2276
tp2277
a(L3360570486L
L0L
(lp2278
(lp2279
tp2280
atp2281
sI1074236304
(Vbootloader_flash_dummy_config
p2282
(lp2283
(L3703312895L
L0L
(lp2284
(lp2285
tp2286
a(L2761717557L
L0L
(lp2287
(lp2288
tp2289
a(L2747508079L
L0L
(lp2290
(lp2291
tp2292
a(L3713248905L
L0L
(lp2293
(lp2294
tp2295
a(L1491210540L
L0L
(lp2296
(lp2297
tp2298
a(L3081491917L
L0L
(lp2299
(lp2300
tp2301
a(L1610443405L
L0L
(lp2302
(lp2303
tp2304
a(L2108110621L
L0L
(lp2305
(lp2306
tp2307
a(L1449490182L
L0L
(lp2308
(lp2309
tp2310
a(L1298875775L
L0L
(lp2311
(lp2312
tp2313
a(L3880393601L
L0L
(lp2314
(lp2315
tp2316
a(L505576675L
L0L
(lp2317
(lp2318
tp2319
a(L1610443436L
L0L
(lp2320
(lp2321
tp2322
atp2323
sI1074246800
(Vrtc_clk_slow_freq_get_hz
p2324
(lp2325
(L367254912L
L0L
(lp2326
(lp2327
tp2328
a(L2396380995L
L0L
(lp2329
(lp2330
tp2331
a(L2828593756L
L0L
(lp2332
(lp2333
tp2334
a(L3360570486L
L0L
(lp2335
(lp2336
tp2337
atp2338
sI1074242460
(Vbootloader_load_image
p2339
(lp2340
(L1790564413L
L3785322319L
(lp2341
(lp2342
Vimage_load
p2343
atp2344
atp2345
sI1074244252
(Vesp_rom_spiflash_read
p2346
(lp2347
(L2981393906L
L0L
(lp2348
(lp2349
tp2350
a(L736778324L
L0L
(lp2351
(lp2352
tp2353
a(L2860271684L
L0L
(lp2354
(lp2355
tp2356
a(L3017366L
L0L
(lp2357
(lp2358
tp2359
a(L106L
L0L
(lp2360
(lp2361
tp2362
a(L1095647814L
L0L
(lp2363
(lp2364
tp2365
a(L106L
L0L
(lp2366
(lp2367
tp2368
a(L3820365676L
L0L
(lp2369
(lp2370
tp2371
a(L3541244125L
L0L
(lp2372
(lp2373
tp2374
a(L427621490L
L0L
(lp2375
(lp2376
tp2377
a(L504836079L
L0L
(lp2378
(lp2379
tp2380
a(L106L
L0L
(lp2381
(lp2382
tp2383
a(L1366929490L
L3785322319L
(lp2384
(lp2385
Vesp_rom_spiflash_wait_idle
p2386
atp2387
a(L3021737L
L0L
(lp2388
(lp2389
tp2390
a(L106L
L0L
(lp2391
(lp2392
tp2393
a(L1868280504L
L0L
(lp2394
(lp2395
tp2396
a(L106L
L0L
(lp2397
(lp2398
tp2399
a(L3736482079L
L0L
(lp2400
(lp2401
tp2402
a(L1221163038L
L0L
(lp2403
(lp2404
tp2405
a(L4122060822L
L0L
(lp2406
(lp2407
tp2408
a(L3939109440L
L0L
(lp2409
(lp2410
tp2411
a(L2989032L
L0L
(lp2412
(lp2413
tp2414
a(L3819849625L
L0L
(lp2415
(lp2416
tp2417
a(L2612949583L
L0L
(lp2418
(lp2419
tp2420
a(L4283107510L
L0L
(lp2421
(lp2422
tp2423
a(L3901820428L
L0L
(lp2424
(lp2425
tp2426
a(L1359555843L
L0L
(lp2427
(lp2428
tp2429
a(L1896415737L
L0L
(lp2430
(lp2431
tp2432
a(L1522202953L
L0L
(lp2433
(lp2434
tp2435
a(L2092737841L
L0L
(lp2436
(lp2437
tp2438
a(L2565382457L
L0L
(lp2439
(lp2440
tp2441
a(L2267384310L
L0L
(lp2442
(lp2443
tp2444
a(L2696140277L
L0L
(lp2445
(lp2446
tp2447
a(L2687789892L
L0L
(lp2448
(lp2449
tp2450
a(L1405253496L
L0L
(lp2451
(lp2452
tp2453
a(L2816559L
L0L
(lp2454
(lp2455
tp2456
a(L97689L
L0L
(lp2457
(lp2458
tp2459
a(L2258897019L
L0L
(lp2460
(lp2461
tp2462
a(L4014024819L
L0L
(lp2463
(lp2464
tp2465
a(L3621567083L
L0L
(lp2466
(lp2467
tp2468
atp2469
sI1074270868
(Vrtc_vddsdio_get_config
p2470
(lp2471
(L3832267072L
L0L
(lp2472
(lp2473
tp2474
a(L147025923L
L0L
(lp2475
(lp2476
tp2477
a(L318395269L
L0L
(lp2478
(lp2479
tp2480
a(L726477921L
L0L
(lp2481
(lp2482
tp2483
a(L4233560973L
L0L
(lp2484
(lp2485
tp2486
a(L1116012092L
L0L
(lp2487
(lp2488
tp2489
a(L1719615367L
L0L
(lp2490
(lp2491
tp2492
a(L3332234298L
L0L
(lp2493
(lp2494
tp2495
atp2496
sI1074235544
(Vbootloader_read_flash_id
p2497
(lp2498
(L3925322170L
L3785322319L
(lp2499
(lp2500
Vbootloader_execute_flash_command
p2501
atp2502
atp2503
sI1074238872
(Vlog_invalid_app_partition
p2504
(lp2505
(L2033218846L
L0L
(lp2506
(lp2507
tp2508
a(L3028464L
L0L
(lp2509
(lp2510
tp2511
a(L1081264708L
L3785322319L
(lp2512
(lp2513
Vesp_log_early_timestamp
p2514
atp2515
a(L44113432L
L0L
(lp2516
(lp2517
tp2518
a(L3360570486L
L0L
(lp2519
(lp2520
tp2521
a(L1770543135L
L3785322319L
(lp2522
(lp2523
Vesp_log_early_timestamp
p2524
atp2525
a(L3315561342L
L3785322319L
(lp2526
(lp2527
Vesp_log_early_timestamp
p2528
atp2529
atp2530
sI1074243992
(Vesp_rom_spiflash_write
p2531
(lp2532
(L1437811727L
L0L
(lp2533
(lp2534
tp2535
a(L2258688483L
L0L
(lp2536
(lp2537
tp2538
a(L3360570486L
L0L
(lp2539
(lp2540
tp2541
a(L1590344338L
L0L
(lp2542
(lp2543
tp2544
a(L3106685987L
L0L
(lp2545
(lp2546
tp2547
a(L4249336406L
L3785322319L
(lp2548
(lp2549
Vesp_rom_spiflash_program_page_internal
p2550
atp2551
a(L1915738254L
L3785322319L
(lp2552
(lp2553
Vesp_rom_spiflash_program_page_internal
p2554
atp2555
a(L663507325L
L0L
(lp2556
(lp2557
tp2558
a(L2392967593L
L0L
(lp2559
(lp2560
tp2561
a(L564470687L
L0L
(lp2562
(lp2563
tp2564
a(L154459701L
L3785322319L
(lp2565
(lp2566
Vesp_rom_spiflash_program_page_internal
p2567
atp2568
a(L2079643754L
L0L
(lp2569
(lp2570
tp2571
atp2572
sI1074269600
(Vbootloader_enable_qio_mode
p2573
(lp2574
(L2372667711L
L3785322319L
(lp2575
(lp2576
Vesp_rom_spiflash_wait_idle
p2577
atp2578
a(L1303968605L
L0L
(lp2579
(lp2580
tp2581
a(L464765735L
L0L
(lp2582
(lp2583
tp2584
a(L1859526386L
L0L
(lp2585
(lp2586
tp2587
a(L3533206L
L0L
(lp2588
(lp2589
tp2590
a(L240647942L
L3785322319L
(lp2591
(lp2592
Vesp_rom_spiflash_wait_idle
p2593
atp2594
a(L3145162103L
L1880226080L
(lp2595
(lp2596
Vbootloader_execute_flash_command
p2597
aVesp_rom_spiflash_wait_idle
p2598
atp2599
a(L210609921L
L3785322319L
(lp2600
(lp2601
Vesp_log_early_timestamp
p2602
atp2603
a(L3360570486L
L0L
(lp2604
(lp2605
tp2606
a(L1192962688L
L1880226080L
(lp2607
(lp2608
Vesp_rom_spiflash_config_readmode
p2609
aVbootloader_flash_get_wp_pin
p2610
atp2611
atp2612
sI1074247340
(Vrtc_clk_cpu_freq_mhz_to_config
p2613
(lp2614
(L2601984125L
L3785322319L
(lp2615
(lp2616
Vrtc_clk_xtal_freq_get
p2617
atp2618
a(L2089656409L
L0L
(lp2619
(lp2620
tp2621
a(L3814337874L
L0L
(lp2622
(lp2623
tp2624
a(L3126521138L
L0L
(lp2625
(lp2626
tp2627
a(L2762074623L
L0L
(lp2628
(lp2629
tp2630
a(L1541996779L
L0L
(lp2631
(lp2632
tp2633
a(L2916936348L
L0L
(lp2634
(lp2635
tp2636
a(L1555485793L
L0L
(lp2637
(lp2638
tp2639
a(L2258897023L
L0L
(lp2640
(lp2641
tp2642
a(L1947499251L
L0L
(lp2643
(lp2644
tp2645
a(L1306331021L
L0L
(lp2646
(lp2647
tp2648
atp2649
sI1074269348
(Vbootloader_read_status_8b_rdsr
p2650
(lp2651
(L1945786777L
L3785322319L
(lp2652
(lp2653
Vbootloader_execute_flash_command
p2654
atp2655
atp2656
sI1074269860
(Vbootloader_flash_update_id
p2657
(lp2658
(L2802211774L
L3785322319L
(lp2659
(lp2660
Vbootloader_read_flash_id
p2661
atp2662
atp2663
sI1074239912
(Vbootloader_debug_buffer
p2664
(lp2665
(L2100504542L
L0L
(lp2666
(lp2667
tp2668
atp2669
sI1074242984
(Vesp_rom_spiflash_program_page_internal
p2670
(lp2671
(L2569069283L
L0L
(lp2672
(lp2673
tp2674
a(L2258688483L
L0L
(lp2675
(lp2676
tp2677
a(L3360570486L
L0L
(lp2678
(lp2679
tp2680
a(L1784410823L
L0L
(lp2681
(lp2682
tp2683
a(L4235661475L
L3785322319L
(lp2684
(lp2685
Vesp_rom_spiflash_wait_idle
p2686
atp2687
a(L1299866312L
L0L
(lp2688
(lp2689
tp2690
a(L3212356251L
L3785322319L
(lp2691
(lp2692
Vesp_rom_spiflash_enable_write
p2693
atp2694
a(L18400258L
L0L
(lp2695
(lp2696
tp2697
a(L3116152765L
L0L
(lp2698
(lp2699
tp2700
a(L2953702749L
L0L
(lp2701
(lp2702
tp2703
a(L2989032L
L0L
(lp2704
(lp2705
tp2706
a(L1965622133L
L0L
(lp2707
(lp2708
tp2709
a(L1401295857L
L0L
(lp2710
(lp2711
tp2712
a(L1958113242L
L0L
(lp2713
(lp2714
tp2715
a(L106L
L0L
(lp2716
(lp2717
tp2718
a(L4283177684L
L0L
(lp2719
(lp2720
tp2721
a(L1405253496L
L0L
(lp2722
(lp2723
tp2724
a(L1008982897L
L0L
(lp2725
(lp2726
tp2727
a(L1933954923L
L0L
(lp2728
(lp2729
tp2730
a(L3886319556L
L0L
(lp2731
(lp2732
tp2733
a(L2767679583L
L0L
(lp2734
(lp2735
tp2736
atp2737
sI1074267832
(Vbootloader_common_vddsdio_configure
p2738
(lp2739
(L1922017289L
L3785322319L
(lp2740
(lp2741
Vrtc_vddsdio_get_config
p2742
atp2743
a(L1185899578L
L3785322319L
(lp2744
(lp2745
Vrtc_vddsdio_set_config
p2746
atp2747
a(L3360570486L
L0L
(lp2748
(lp2749
tp2750
atp2751
sI1074268860
(Vbootloader_init_mem
p2752
(lp2753
(L1511720305L
L3785322319L
(lp2754
(lp2755
Vesp_cpu_configure_region_protection
p2756
atp2757
atp2758
sI1074269372
(Vbootloader_read_status_8b_rdsr2
p2759
(lp2760
(L3746738790L
L3785322319L
(lp2761
(lp2762
Vbootloader_execute_flash_command
p2763
atp2764
atp2765
sI1074239920
(Vbootloader_sha256_start
p2766
(lp2767
(L1113864957L
L0L
(lp2768
(lp2769
tp2770
atp2771
sI1074246064
(Vwdt_hal_write_protect_enable
p2772
(lp2773
(L387778158L
L0L
(lp2774
(lp2775
tp2776
a(L4195472003L
L0L
(lp2777
(lp2778
tp2779
a(L3360570486L
L0L
(lp2780
(lp2781
tp2782
a(L802523425L
L0L
(lp2783
(lp2784
tp2785
atp2786
sI1074247600
(Vrtc_clk_apb_freq_update
p2787
(lp2788
(L3106641879L
L0L
(lp2789
(lp2790
tp2791
atp2792
sI1074235836
(Vbootloader_flash_gpio_config
p2793
(lp2794
(L719792650L
L3785322319L
(lp2795
(lp2796
Vbootloader_common_get_chip_ver_pkg
p2797
atp2798
a(L106L
L0L
(lp2799
(lp2800
tp2801
a(L2886083034L
L0L
(lp2802
(lp2803
tp2804
a(L106L
L0L
(lp2805
(lp2806
tp2807
a(L3368466517L
L0L
(lp2808
(lp2809
tp2810
a(L3815118951L
L0L
(lp2811
(lp2812
tp2813
a(L106L
L0L
(lp2814
(lp2815
tp2816
a(L1554297586L
L0L
(lp2817
(lp2818
tp2819
a(L3448382643L
L0L
(lp2820
(lp2821
tp2822
a(L3360570486L
L0L
(lp2823
(lp2824
tp2825
atp2826
sI1074269876
(Vbootloader_flash_get_wp_pin
p2827
(lp2828
(L1163997074L
L3785322319L
(lp2829
(lp2830
Vbootloader_common_get_chip_ver_pkg
p2831
atp2832
a(L93674324L
L0L
(lp2833
(lp2834
tp2835
a(L2686642565L
L0L
(lp2836
(lp2837
tp2838
a(L2778450300L
L0L
(lp2839
(lp2840
tp2841
a(L3360570486L
L0L
(lp2842
(lp2843
tp2844
a(L3020187L
L0L
(lp2845
(lp2846
tp2847
a(L1159893170L
L0L
(lp2848
(lp2849
tp2850
a(L426835595L
L3785322319L
(lp2851
(lp2852
Vefuse_hal_chip_revision
p2853
atp2854
a(L1641149339L
L0L
(lp2855
(lp2856
tp2857
atp2858
sI1074237368
(Vspi_to_esp_err
p2859
(lp2860
(L2929827855L
L0L
(lp2861
(lp2862
tp2863
a(L366093042L
L0L
(lp2864
(lp2865
tp2866
a(L1554926539L
L0L
(lp2867
(lp2868
tp2869
a(L3126521138L
L0L
(lp2870
(lp2871
tp2872
atp2873
sI1074237624
(Vbootloader_flash_read
p2874
(lp2875
(L2699333355L
L0L
(lp2876
(lp2877
tp2878
a(L1134859429L
L3785322319L
(lp2879
(lp2880
Vesp_log_early_timestamp
p2881
atp2882
a(L44113432L
L0L
(lp2883
(lp2884
tp2885
a(L1299867982L
L0L
(lp2886
(lp2887
tp2888
a(L3360570486L
L0L
(lp2889
(lp2890
tp2891
a(L2660352519L
L0L
(lp2892
(lp2893
tp2894
a(L521141212L
L3785322319L
(lp2895
(lp2896
Vesp_log_early_timestamp
p2897
atp2898
a(L162336582L
L0L
(lp2899
(lp2900
tp2901
a(L1181807953L
L3785322319L
(lp2902
(lp2903
Vesp_log_early_timestamp
p2904
atp2905
a(L3020204L
L0L
(lp2906
(lp2907
tp2908
a(L1398573769L
L0L
(lp2909
(lp2910
tp2911
a(L97422L
L0L
(lp2912
(lp2913
tp2914
a(L2018549829L
L0L
(lp2915
(lp2916
tp2917
a(L1895240536L
L0L
(lp2918
(lp2919
tp2920
a(L486806570L
L3785322319L
(lp2921
(lp2922
Vesp_log_early_timestamp
p2923
atp2924
a(L413914689L
L0L
(lp2925
(lp2926
tp2927
a(L2869220355L
L0L
(lp2928
(lp2929
tp2930
a(L1831288176L
L1880226080L
(lp2931
(lp2932
Vesp_rom_spiflash_read
p2933
aVspi_to_esp_err
p2934
atp2935
atp2936
sI1074246840
(Vrtc_clk_fast_freq_set
p2937
(lp2938
(L2512987651L
L0L
(lp2939
(lp2940
tp2941
atp2942
sI1074270152
(Vbootloader_enable_random
p2943
(lp2944
(L1287383080L
L3785322319L
(lp2945
(lp2946
Vbootloader_random_enable
p2947
atp2948
atp2949
sI1074239940
(Vbootloader_sha256_data
p2950
(lp2951
(L4066096136L
L0L
(lp2952
(lp2953
tp2954
a(L1690221769L
L0L
(lp2955
(lp2956
tp2957
a(L1994568885L
L3785322319L
(lp2958
(lp2959
V__assert_func
p2960
atp2961
a(L498498478L
L0L
(lp2962
(lp2963
tp2964
a(L1902192097L
L0L
(lp2965
(lp2966
tp2967
a(L2910371777L
L0L
(lp2968
(lp2969
tp2970
a(L3360570486L
L0L
(lp2971
(lp2972
tp2973
a(L2419038565L
L0L
(lp2974
(lp2975
tp2976
a(L841847518L
L0L
(lp2977
(lp2978
tp2979
a(L2549761645L
L0L
(lp2980
(lp2981
tp2982
a(L244295903L
L0L
(lp2983
(lp2984
tp2985
a(L3511901613L
L0L
(lp2986
(lp2987
tp2988
a(L1390602840L
L0L
(lp2989
(lp2990
tp2991
a(L3028464L
L0L
(lp2992
(lp2993
tp2994
a(L608444677L
L0L
(lp2995
(lp2996
tp2997
a(L1710751339L
L0L
(lp2998
(lp2999
tp3000
atp3001
sI1074235588
(Vbootloader_flash_xmc_startup
p3002
(lp3003
(L2358327534L
L3785322319L
(lp3004
(lp3005
Vis_xmc_chip_strict
p3006
atp3007
a(L2258688482L
L0L
(lp3008
(lp3009
tp3010
a(L3360570486L
L0L
(lp3011
(lp3012
tp3013
a(L251913992L
L3785322319L
(lp3014
(lp3015
Vbootloader_flash_read_sfdp
p3016
atp3017
a(L1623371620L
L267944800L
(lp3018
(lp3019
Vbootloader_execute_flash_command
p3020
aVbootloader_execute_flash_command
p3021
aVbootloader_execute_flash_command
p3022
aVbootloader_execute_flash_command
p3023
aVbootloader_read_flash_id
p3024
aVis_xmc_chip_strict
p3025
atp3026
a(L1760467701L
L3785322319L
(lp3027
(lp3028
Vesp_log_early_timestamp
p3029
atp3030
atp3031
sI1074268876
(Vbootloader_random_enable
p3032
(lp3033
(L3291935399L
L0L
(lp3034
(lp3035
tp3036
atp3037
sI1074270412
(Vrtc_clk_init
p3038
(lp3039
(L771352785L
L0L
(lp3040
(lp3041
tp3042
a(L42671777L
L3785322319L
(lp3043
(lp3044
Vrtc_clk_cpu_freq_to_xtal
p3045
atp3046
a(L3727977108L
L0L
(lp3047
(lp3048
tp3049
a(L4184912069L
L0L
(lp3050
(lp3051
tp3052
a(L2873281153L
L0L
(lp3053
(lp3054
tp3055
a(L912414356L
L3785322319L
(lp3056
(lp3057
Vrtc_clk_xtal_freq_get
p3058
atp3059
a(L1065612033L
L1157885199L
(lp3060
(lp3061
Vesp_rom_uart_tx_wait_idle
p3062
aVrtc_clk_xtal_freq_update
p3063
aVrtc_clk_apb_freq_update
p3064
aVrtc_clk_cpu_freq_get_config
p3065
aVrtc_clk_cpu_freq_mhz_to_config
p3066
atp3067
a(L3046611632L
L1880226080L
(lp3068
(lp3069
Vesp_log_early_timestamp
p3070
aVabort
p3071
atp3072
a(L4187693717L
L3785322319L
(lp3073
(lp3074
Vrtc_clk_xtal_freq_estimate
p3075
atp3076
a(L616039868L
L3785322319L
(lp3077
(lp3078
Vesp_log_early_timestamp
p3079
atp3080
a(L4188325301L
L0L
(lp3081
(lp3082
tp3083
a(L1563923531L
L0L
(lp3084
(lp3085
tp3086
a(L106L
L0L
(lp3087
(lp3088
tp3089
a(L4070631878L
L3785322319L
(lp3090
(lp3091
Vrtc_clk_xtal_freq_estimate
p3092
atp3093
a(L106L
L0L
(lp3094
(lp3095
tp3096
a(L3298337843L
L3785322319L
(lp3097
(lp3098
Vesp_log_early_timestamp
p3099
atp3100
a(L1366835433L
L3785322319L
(lp3101
(lp3102
Vrtc_clk_cpu_freq_set_config
p3103
atp3104
a(L4168829660L
L3785322319L
(lp3105
(lp3106
Vrtc_clk_32k_enable
p3107
atp3108
a(L3016870L
L0L
(lp3109
(lp3110
tp3111
a(L915511936L
L3785322319L
(lp3112
(lp3113
Vrtc_clk_8m_enable
p3114
atp3115
a(L530469956L
L1880226080L
(lp3116
(lp3117
Vrtc_clk_fast_freq_set
p3118
aVrtc_clk_slow_freq_set
p3119
atp3120
atp3121
sI1074242496
(Vesp_partition_table_verify
p3122
(lp3123
(L1518656766L
L0L
(lp3124
(lp3125
tp3126
a(L3077522478L
L0L
(lp3127
(lp3128
tp3129
a(L4287435191L
L0L
(lp3130
(lp3131
tp3132
a(L2910371777L
L0L
(lp3133
(lp3134
tp3135
a(L2810785767L
L0L
(lp3136
(lp3137
tp3138
a(L3360570486L
L0L
(lp3139
(lp3140
tp3141
a(L2334946637L
L0L
(lp3142
(lp3143
tp3144
a(L2478753082L
L0L
(lp3145
(lp3146
tp3147
a(L3020204L
L0L
(lp3148
(lp3149
tp3150
a(L1988284812L
L3785322319L
(lp3151
(lp3152
Vesp_log_early_timestamp
p3153
atp3154
a(L396128998L
L3785322319L
(lp3155
(lp3156
Vesp_log_early_timestamp
p3157
atp3158
a(L3327447293L
L0L
(lp3159
(lp3160
tp3161
a(L2902417580L
L0L
(lp3162
(lp3163
tp3164
a(L3020204L
L0L
(lp3165
(lp3166
tp3167
a(L1865253546L
L3785322319L
(lp3168
(lp3169
Vesp_log_early_timestamp
p3170
atp3171
a(L1367516498L
L0L
(lp3172
(lp3173
tp3174
a(L3906691273L
L0L
(lp3175
(lp3176
tp3177
a(L2902417580L
L0L
(lp3178
(lp3179
tp3180
a(L1988284564L
L3785322319L
(lp3181
(lp3182
Vesp_log_early_timestamp
p3183
atp3184
a(L1613213999L
L0L
(lp3185
(lp3186
tp3187
a(L1167861556L
L0L
(lp3188
(lp3189
tp3190
a(L3260980605L
L0L
(lp3191
(lp3192
tp3193
a(L2910371777L
L0L
(lp3194
(lp3195
tp3196
a(L1235012932L
L0L
(lp3197
(lp3198
tp3199
a(L2012010515L
L3785322319L
(lp3200
(lp3201
Vesp_log_early_timestamp
p3202
atp3203
atp3204
sI1074241996
(Vimage_load
p3205
(lp3206
(L745499722L
L0L
(lp3207
(lp3208
tp3209
a(L1899869538L
L0L
(lp3210
(lp3211
tp3212
a(L9219888L
L0L
(lp3213
(lp3214
tp3215
a(L3172233300L
L0L
(lp3216
(lp3217
tp3218
a(L3020187L
L0L
(lp3219
(lp3220
tp3221
a(L422203645L
L3785322319L
(lp3222
(lp3223
Vesp_log_early_timestamp
p3224
atp3225
a(L2068384292L
L0L
(lp3226
(lp3227
tp3228
a(L1968553470L
L3785322319L
(lp3229
(lp3230
Vbootloader_sha256_finish
p3231
atp3232
a(L487422L
L0L
(lp3233
(lp3234
tp3235
a(L3271848319L
L0L
(lp3236
(lp3237
tp3238
a(L1182930974L
L0L
(lp3239
(lp3240
tp3241
a(L3678851644L
L3785322319L
(lp3242
(lp3243
Vprocess_image_header
p3244
atp3245
a(L1341816907L
L0L
(lp3246
(lp3247
tp3248
a(L909494482L
L0L
(lp3249
(lp3250
tp3251
a(L1028073566L
L3785322319L
(lp3252
(lp3253
Vprocess_segments
p3254
atp3255
a(L3803885910L
L0L
(lp3256
(lp3257
tp3258
a(L94425498L
L3785322319L
(lp3259
(lp3260
Vesp_cpu_in_ocd_debug_mode
p3261
atp3262
a(L454195650L
L3785322319L
(lp3263
(lp3264
Vprocess_checksum
p3265
atp3266
a(L1651117269L
L3785322319L
(lp3267
(lp3268
Vprocess_appended_hash_and_sig
p3269
atp3270
a(L533710513L
L0L
(lp3271
(lp3272
tp3273
a(L505081362L
L0L
(lp3274
(lp3275
tp3276
a(L3212356251L
L3785322319L
(lp3277
(lp3278
Vesp_cpu_in_ocd_debug_mode
p3279
atp3280
a(L1427994453L
L1880226080L
(lp3281
(lp3282
Vbootloader_sha256_finish
p3283
aVbootloader_debug_buffer
p3284
atp3285
a(L3154939648L
L1880226080L
(lp3286
(lp3287
Vesp_log_early_timestamp
p3288
aVbootloader_debug_buffer
p3289
atp3290
a(L978077504L
L0L
(lp3291
(lp3292
tp3293
a(L2068384292L
L0L
(lp3294
(lp3295
tp3296
a(L858449684L
L3785322319L
(lp3297
(lp3298
Vbootloader_sha256_finish
p3299
atp3300
a(L3028481L
L0L
(lp3301
(lp3302
tp3303
a(L93674324L
L0L
(lp3304
(lp3305
tp3306
a(L2239929500L
L0L
(lp3307
(lp3308
tp3309
a(L2429164518L
L0L
(lp3310
(lp3311
tp3312
a(L3553619191L
L0L
(lp3313
(lp3314
tp3315
a(L85798113L
L0L
(lp3316
(lp3317
tp3318
a(L464010095L
L0L
(lp3319
(lp3320
tp3321
a(L835563811L
L3785322319L
(lp3322
(lp3323
Vshould_load
p3324
atp3325
a(L1358360603L
L0L
(lp3326
(lp3327
tp3328
a(L4224160879L
L0L
(lp3329
(lp3330
tp3331
a(L22884489L
L0L
(lp3332
(lp3333
tp3334
a(L741351569L
L0L
(lp3335
(lp3336
tp3337
a(L434644776L
L0L
(lp3338
(lp3339
tp3340
a(L106L
L0L
(lp3341
(lp3342
tp3343
a(L709419389L
L0L
(lp3344
(lp3345
tp3346
a(L1299866312L
L0L
(lp3347
(lp3348
tp3349
atp3350
sI1074246092
(Vefuse_hal_get_rated_freq_mhz
p3351
(lp3352
(L1131075142L
L0L
(lp3353
(lp3354
tp3355
a(L2965302338L
L0L
(lp3356
(lp3357
tp3358
a(L3360570486L
L0L
(lp3359
(lp3360
tp3361
atp3362
sI1074247628
(Vrtc_clk_cpu_freq_to_xtal
p3363
(lp3364
(L3603368093L
L3785322319L
(lp3365
(lp3366
Vrtc_clk_apb_freq_update
p3367
atp3368
a(L702736263L
L0L
(lp3369
(lp3370
tp3371
a(L277445412L
L0L
(lp3372
(lp3373
tp3374
a(L309988616L
L0L
(lp3375
(lp3376
tp3377
atp3378
sI1074237896
(Vbootloader_flash_erase_sector
p3379
(lp3380
(L4129137686L
L1880226080L
(lp3381
(lp3382
Vesp_rom_spiflash_erase_sector
p3383
aVspi_to_esp_err
p3384
atp3385
atp3386
sI1074245576
(Vwdt_hal_config_stage
p3387
(lp3388
(L331558507L
L0L
(lp3389
(lp3390
tp3391
a(L4279082939L
L0L
(lp3392
(lp3393
tp3394
a(L3020204L
L0L
(lp3395
(lp3396
tp3397
a(L3020187L
L0L
(lp3398
(lp3399
tp3400
a(L3020187L
L0L
(lp3401
(lp3402
tp3403
a(L94425498L
L3785322319L
(lp3404
(lp3405
Vabort
p3406
atp3407
a(L3970635303L
L0L
(lp3408
(lp3409
tp3410
a(L3360570486L
L0L
(lp3411
(lp3412
tp3413
a(L1646452473L
L0L
(lp3414
(lp3415
tp3416
a(L1707054902L
L0L
(lp3417
(lp3418
tp3419
a(L2218359315L
L0L
(lp3420
(lp3421
tp3422
a(L3020187L
L0L
(lp3423
(lp3424
tp3425
a(L2902417580L
L0L
(lp3426
(lp3427
tp3428
a(L3020187L
L0L
(lp3429
(lp3430
tp3431
a(L3028464L
L0L
(lp3432
(lp3433
tp3434
a(L1610530326L
L0L
(lp3435
(lp3436
tp3437
a(L1143975977L
L0L
(lp3438
(lp3439
tp3440
a(L555662239L
L0L
(lp3441
(lp3442
tp3443
a(L3017555630L
L0L
(lp3444
(lp3445
tp3446
atp3447
sI1074268120
(Vbootloader_init
p3448
(lp3449
(L4080949389L
L3785322319L
(lp3450
(lp3451
Vbootloader_init_mem
p3452
atp3453
a(L575106984L
L0L
(lp3454
(lp3455
tp3456
a(L2426858934L
L3785322319L
(lp3457
(lp3458
V__assert_func
p3459
atp3460
a(L284747271L
L0L
(lp3461
(lp3462
tp3463
a(L3422608293L
L0L
(lp3464
(lp3465
tp3466
a(L2926278337L
L0L
(lp3467
(lp3468
tp3469
a(L530840807L
L0L
(lp3470
(lp3471
tp3472
a(L3027019L
L0L
(lp3473
(lp3474
tp3475
a(L1934041795L
L0L
(lp3476
(lp3477
tp3478
a(L2020801694L
L1832448559L
(lp3479
(lp3480
Vbootloader_clear_bss_section
p3481
aVbootloader_common_vddsdio_configure
p3482
aVbootloader_clock_get_rated_freq_mhz
p3483
atp3484
a(L3987130017L
L1157885199L
(lp3485
(lp3486
Vbootloader_clock_configure
p3487
aVbootloader_console_init
p3488
aVbootloader_print_banner
p3489
aVbootloader_flash_update_id
p3490
aVbootloader_flash_xmc_startup
p3491
atp3492
a(L2286488740L
L3785322319L
(lp3493
(lp3494
Vesp_log_early_timestamp
p3495
atp3496
a(L1995368312L
L3785322319L
(lp3497
(lp3498
Vesp_log_early_timestamp
p3499
atp3500
a(L3360570486L
L0L
(lp3501
(lp3502
tp3503
a(L1375577398L
L3785322319L
(lp3504
(lp3505
Vbootloader_read_bootloader_header
p3506
atp3507
a(L2444883382L
L3785322319L
(lp3508
(lp3509
Vbootloader_check_bootloader_validity
p3510
atp3511
a(L92836776L
L1157885199L
(lp3512
(lp3513
Vbootloader_flash_gpio_config
p3514
aVbootloader_flash_dummy_config
p3515
aVbootloader_flash_cs_timing_config
p3516
aVbootloader_flash_unlock
p3517
aVbootloader_enable_qio_mode
p3518
atp3519
a(L104277116L
L0L
(lp3520
(lp3521
tp3522
a(L2642220900L
L0L
(lp3523
(lp3524
tp3525
a(L819703139L
L0L
(lp3526
(lp3527
tp3528
a(L575140665L
L0L
(lp3529
(lp3530
tp3531
a(L474505486L
L3785322319L
(lp3532
(lp3533
Vbootloader_enable_wp
p3534
atp3535
a(L4068889928L
L0L
(lp3536
(lp3537
tp3538
a(L269152709L
L3785322319L
(lp3539
(lp3540
Vesp_log_early_timestamp
p3541
atp3542
a(L3433272205L
L0L
(lp3543
(lp3544
tp3545
a(L569753936L
L0L
(lp3546
(lp3547
tp3548
a(L2902417580L
L0L
(lp3549
(lp3550
tp3551
a(L1944713791L
L1880226080L
(lp3552
(lp3553
Vwdt_reset_info_dump
p3554
aVwdt_reset_info_dump
p3555
atp3556
a(L1043422335L
L1880226080L
(lp3557
(lp3558
Vbootloader_config_wdt
p3559
aVbootloader_enable_random
p3560
atp3561
a(L2427037350L
L3785322319L
(lp3562
(lp3563
Vesp_log_early_timestamp
p3564
atp3565
atp3566
sI1074270160
(Vbootloader_console_init
p3567
(lp3568
(L1058419023L
L1832448559L
(lp3569
(lp3570
Vesp_rom_uart_tx_wait_idle
p3571
aVrtc_clk_apb_freq_get
p3572
aVesp_rom_uart_set_clock_baudrate
p3573
atp3574
atp3575
sI1074237916
(Vbootloader_flash_write
p3576
(lp3577
(L3119145091L
L0L
(lp3578
(lp3579
tp3580
a(L464075109L
L3785322319L
(lp3581
(lp3582
Vesp_log_early_timestamp
p3583
atp3584
a(L44113432L
L0L
(lp3585
(lp3586
tp3587
a(L1610445075L
L0L
(lp3588
(lp3589
tp3590
a(L735741265L
L0L
(lp3591
(lp3592
tp3593
a(L3291333414L
L0L
(lp3594
(lp3595
tp3596
a(L2835529112L
L3785322319L
(lp3597
(lp3598
Vesp_log_early_timestamp
p3599
atp3600
a(L3283691850L
L0L
(lp3601
(lp3602
tp3603
a(L3273878970L
L3785322319L
(lp3604
(lp3605
Vesp_log_early_timestamp
p3606
atp3607
a(L3212356251L
L3785322319L
(lp3608
(lp3609
Vbootloader_flash_unlock
p3610
atp3611
a(L1799218633L
L0L
(lp3612
(lp3613
tp3614
a(L94425498L
L3785322319L
(lp3615
(lp3616
Vesp_rom_spiflash_write_encrypted
p3617
atp3618
a(L2927190544L
L3785322319L
(lp3619
(lp3620
Vspi_to_esp_err
p3621
atp3622
a(L2927190544L
L3785322319L
(lp3623
(lp3624
Vesp_rom_spiflash_write
p3625
atp3626
atp3627
sI1074246364
(Vrtc_clk_32k_enable_common
p3628
(lp3629
(L2315384216L
L0L
(lp3630
(lp3631
tp3632
atp3633
sI1074269396
(Vbootloader_read_status_16b_rdsr_rdsr2
p3634
(lp3635
(L2652824119L
L1880226080L
(lp3636
(lp3637
Vbootloader_execute_flash_command
p3638
aVbootloader_execute_flash_command
p3639
atp3640
atp3641
sI1074237400
(Vbootloader_mmap
p3642
(lp3643
(L4101837270L
L0L
(lp3644
(lp3645
tp3646
a(L1032666940L
L3785322319L
(lp3647
(lp3648
Vesp_log_early_timestamp
p3649
atp3650
a(L1182811810L
L0L
(lp3651
(lp3652
tp3653
a(L3496950L
L0L
(lp3654
(lp3655
tp3656
a(L1649230001L
L0L
(lp3657
(lp3658
tp3659
a(L3729021430L
L3785322319L
(lp3660
(lp3661
Vesp_log_early_timestamp
p3662
atp3663
a(L264945332L
L0L
(lp3664
(lp3665
tp3666
a(L3772406441L
L3785322319L
(lp3667
(lp3668
Vesp_log_early_timestamp
p3669
atp3670
a(L2067699594L
L0L
(lp3671
(lp3672
tp3673
atp3674
sI1074236888
(Vesp_log_early_timestamp
p3675
(lp3676
(L3141612615L
L0L
(lp3677
(lp3678
tp3679
atp3680
sI1074240740
(Vbootloader_util_regions_overlap
p3681
(lp3682
(L2762640130L
L0L
(lp3683
(lp3684
tp3685
a(L4270950139L
L0L
(lp3686
(lp3687
tp3688
a(L3392045470L
L3785322319L
(lp3689
(lp3690
V__assert_func
p3691
atp3692
a(L97642L
L0L
(lp3693
(lp3694
tp3695
a(L1901877882L
L0L
(lp3696
(lp3697
tp3698
a(L366123053L
L0L
(lp3699
(lp3700
tp3701
a(L2258867228L
L0L
(lp3702
(lp3703
tp3704
a(L1253626734L
L0L
(lp3705
(lp3706
tp3707
a(L2258897019L
L0L
(lp3708
(lp3709
tp3710
a(L3109269495L
L0L
(lp3711
(lp3712
tp3713
atp3714
sI1074246884
(Vrtc_clk_fast_freq_get
p3715
(lp3716
(L3894017105L
L0L
(lp3717
(lp3718
tp3719
atp3720
sI1074267884
(Vbootloader_common_get_reset_reason
p3721
(lp3722
(L3780188688L
L0L
(lp3723
(lp3724
tp3725
atp3726
sI1074269932
(Vbootloader_clear_bss_section
p3727
(lp3728
(L428317179L
L0L
(lp3729
(lp3730
tp3731
atp3732
sI1074238176
(Vbootloader_random_disable
p3733
(lp3734
(L3975857911L
L0L
(lp3735
(lp3736
tp3737
atp3738
sI1074242784
(Vesp_rom_spiflash_read_status
p3739
(lp3740
(L3562601385L
L0L
(lp3741
(lp3742
tp3743
a(L1182811815L
L0L
(lp3744
(lp3745
tp3746
a(L1247777023L
L0L
(lp3747
(lp3748
tp3749
a(L106L
L0L
(lp3750
(lp3751
tp3752
a(L2211739187L
L0L
(lp3753
(lp3754
tp3755
a(L4004659960L
L0L
(lp3756
(lp3757
tp3758
a(L2123059967L
L0L
(lp3759
(lp3760
tp3761
a(L1973734210L
L0L
(lp3762
(lp3763
tp3764
a(L2392720019L
L0L
(lp3765
(lp3766
tp3767
atp3768
sI1074238956
(Vset_actual_ota_seq
p3769
(lp3770
(L2410196993L
L1832448559L
(lp3771
(lp3772
Vbootloader_common_ota_select_crc
p3773
aVefuse_hal_flash_encryption_enabled
p3774
aVbootloader_flash_erase_sector
p3775
atp3776
a(L3383023989L
L3785322319L
(lp3777
(lp3778
Vbootloader_flash_write
p3779
atp3780
a(L2546044576L
L3785322319L
(lp3781
(lp3782
Vesp_log_early_timestamp
p3783
atp3784
a(L3496950L
L0L
(lp3785
(lp3786
tp3787
atp3788
sI1074248684
(V_fini
p3789
(lp3790
(L3493042598L
L0L
(lp3791
(lp3792
tp3793
atp3794
sI1074241256
(Vshould_load
p3795
(lp3796
(L1761829688L
L0L
(lp3797
(lp3798
tp3799
a(L1182990556L
L0L
(lp3800
(lp3801
tp3802
a(L2953514988L
L0L
(lp3803
(lp3804
tp3805
a(L1298905564L
L0L
(lp3806
(lp3807
tp3808
a(L524505062L
L0L
(lp3809
(lp3810
tp3811
a(L2258897019L
L0L
(lp3812
(lp3813
tp3814
a(L3781799363L
L0L
(lp3815
(lp3816
tp3817
a(L3028464L
L0L
(lp3818
(lp3819
tp3820
a(L3821840797L
L0L
(lp3821
(lp3822
tp3823
a(L625528061L
L0L
(lp3824
(lp3825
tp3826
a(L2538393782L
L0L
(lp3827
(lp3828
tp3829
a(L4185756579L
L0L
(lp3830
(lp3831
tp3832
a(L3458855836L
L0L
(lp3833
(lp3834
tp3835
a(L3126521138L
L0L
(lp3836
(lp3837
tp3838
a(L1305407438L
L0L
(lp3839
(lp3840
tp3841
a(L1305407469L
L0L
(lp3842
(lp3843
tp3844
atp3845
sI1074246900
(Vrtc_clk_bbpll_configure
p3846
(lp3847
(L2824303762L
L0L
(lp3848
(lp3849
tp3850
a(L106L
L0L
(lp3851
(lp3852
tp3853
a(L2517811865L
L0L
(lp3854
(lp3855
tp3856
a(L106L
L0L
(lp3857
(lp3858
tp3859
a(L83268611L
L0L
(lp3860
(lp3861
tp3862
a(L106L
L0L
(lp3863
(lp3864
tp3865
a(L82345090L
L0L
(lp3866
(lp3867
tp3868
a(L106L
L0L
(lp3869
(lp3870
tp3871
a(L2258688482L
L0L
(lp3872
(lp3873
tp3874
a(L3177466952L
L0L
(lp3875
(lp3876
tp3877
a(L799617270L
L0L
(lp3878
(lp3879
tp3880
a(L3872705056L
L0L
(lp3881
(lp3882
tp3883
a(L1299866343L
L0L
(lp3884
(lp3885
tp3886
a(L3291765465L
L0L
(lp3887
(lp3888
tp3889
a(L3241888512L
L0L
(lp3890
(lp3891
tp3892
a(L1172915521L
L0L
(lp3893
(lp3894
tp3895
a(L83268344L
L0L
(lp3896
(lp3897
tp3898
a(L82344823L
L0L
(lp3899
(lp3900
tp3901
a(L1667153377L
L0L
(lp3902
(lp3903
tp3904
a(L2258867279L
L0L
(lp3905
(lp3906
tp3907
a(L347058916L
L0L
(lp3908
(lp3909
tp3910
a(L1551160474L
L0L
(lp3911
(lp3912
tp3913
a(L1712476653L
L0L
(lp3914
(lp3915
tp3916
a(L4011631532L
L0L
(lp3917
(lp3918
tp3919
atp3920
sI1074267900
(Vwdt_reset_info_dump
p3921
(lp3922
(L4037466985L
L0L
(lp3923
(lp3924
tp3925
a(L4162823486L
L0L
(lp3926
(lp3927
tp3928
a(L3759833313L
L0L
(lp3929
(lp3930
tp3931
a(L1103285333L
L0L
(lp3932
(lp3933
tp3934
a(L3874600256L
L3785322319L
(lp3935
(lp3936
Vesp_log_early_timestamp
p3937
atp3938
a(L2967992533L
L0L
(lp3939
(lp3940
tp3941
a(L4142801612L
L3785322319L
(lp3942
(lp3943
Vesp_log_early_timestamp
p3944
atp3945
a(L98458893L
L0L
(lp3946
(lp3947
tp3948
atp3949
sI1074269436
(Vbootloader_write_status_8b_wrsr
p3950
(lp3951
(L3692606543L
L3785322319L
(lp3952
(lp3953
Vbootloader_execute_flash_command
p3954
atp3955
atp3956
sI1074236656
(Vefuse_hal_chip_revision
p3957
(lp3958
(L1761205471L
L1880226080L
(lp3959
(lp3960
Vefuse_hal_get_major_chip_version
p3961
aVefuse_hal_get_minor_chip_version
p3962
atp3963
atp3964
sI1074246128
(Vrtc_clk_bbpll_disable
p3965
(lp3966
(L2475324672L
L0L
(lp3967
(lp3968
tp3969
a(L391691750L
L0L
(lp3970
(lp3971
tp3972
a(L3360570486L
L0L
(lp3973
(lp3974
tp3975
atp3976
sI1074270192
(Vesp_cpu_configure_region_protection
p3977
(lp3978
(L1103868598L
L0L
(lp3979
(lp3980
tp3981
a(L180431425L
L3785322319L
(lp3982
(lp3983
Vmpu_hal_set_region_access
p3984
atp3985
a(L2537388152L
L3785322319L
(lp3986
(lp3987
Vmpu_hal_set_region_access
p3988
atp3989
atp3990
sI1074236920
(Vbootloader_common_ota_select_crc
p3991
(lp3992
(L259608323L
L0L
(lp3993
(lp3994
tp3995
atp3996
ssS'functionsdups'
p3997
g11
((lp3998
tp3999
Rp4000
sS'immediatedups'
p4001
g11
((lp4002
tp4003
Rp4004
sS'functiondups'
p4005
g11
((lp4006
tp4007
Rp4008
sS'fuzzy'
p4009
(dp4010
L1536L
I1074240316
sL617583950L
I1074236976
sL430153639L
I1074235836
sL1694124286L
I1074269544
sL3121027072L
I1074270868
sL2082889262L
I1074241164
sL3107765941L
I1074269600
sL1340445289L
I1074235588
sL3879741902L
I1074240796
sL3538491111L
I1074247628
sL2919016435L
I1074235200
sL16208487L
I1074234700
sL3889821517L
I1074239076
sL2469233929L
I1074240104
sL1377559356L
I1074241996
sL4011111091L
I1074237624
sL2475522855L
I1074270160
sL1924373790L
I1074269876
sL3897252859L
I1074238872
sL1065525808L
I1074236816
sL1766137975L
I1074239044
sL2327783177L
I1074240396
sL1858929274L
I1074246188
sL449860969L
I1074247340
sL1415908896L
I1074241376
sL518929064L
I1074238504
sL3210669721L
I1074246480
sL819541406L
I1074267724
sL1332800441L
I1074237220
sL2884218272L
I1074267900
sL1345429244L
I1074240548
sL2689419264L
I1074246900
sL4160102055L
I1074239556
sL4202185385L
I1074242876
sL2453272040L
I1074248068
sL3690558760L
I1074270240
sL1768086576L
I1074236304
sL4171975289L
I1074243860
sL1565254297L
I1074244164
sL152063172L
I1074268120
sL2191698036L
I1074270028
sL2474570535L
I1074238084
sL3428965560L
I1074247744
sL519424169L
I1074248524
sL3444221847L
I1074238956
sL812946199L
I1074237400
sL241693184L
I1074243172
sL737694352L
I1074242984
sL503029138L
I1074242924
sL277788135L
I1074244252
sL4253866342L
I1074239588
sL3991645697L
I1074268692
sL2262558768L
I1074242784
sL424867129L
I1074243992
sL3834155367L
I1074240740
sL3791345684L
I1074269496
sL3883282432L
I1074241256
sL4173399607L
I1074242496
sL2726385143L
I1074245576
sL4278077574L
I1074239284
sL1667054119L
I1074239940
sL4191211306L
I1074247428
sL2687107543L
I1074270412
sL206902443L
I1074237916
ssb.