ccopy_reg
_reconstructor
p0
(crizzo
RizzoSignature
p1
c__builtin__
object
p2
Ntp3
Rp4
(dp5
S'formal'
p6
(dp7
L61540265L
I1074234788
sL4149167435L
I1074235676
sL2881587142L
I1074247276
sL2048961576L
I1074240660
sL3061073278L
I1074239948
sL1741170115L
I1074238004
sL2084221494L
I1074243420
sL633479887L
I1074240676
sL277315465L
I1074245640
sL2156867713L
I1074267912
sL4250047811L
I1074243740
sL2079135992L
I1074245936
sL2226187430L
I1074238284
sL2137527423L
I1074236836
sL3871711965L
I1074238612
sL2919494937L
I1074269376
sL4213015302L
I1074242916
sL373399389L
I1074242452
sL2359915957L
I1074247020
sL104522008L
I1074237028
sL3211103558L
I1074236412
sL3955774956L
I1074237680
sL2028381634L
I1074245672
sL2470920032L
I1074246620
sL1359501856L
I1074239612
sL3341801479L
I1074244736
sL2528392861L
I1074246452
sL1010441494L
I1074247060
sL3567680394L
I1074267139
sL2896295319L
I1074236924
sL2086831704L
I1074243220
sL271775752L
I1074267752
sL2590834774L
I1074270688
sL1179533169L
I1074270456
sL869300625L
I1074245744
sL2239023670L
I1074247464
sL2467304534L
I1074236608
sL865889750L
I1074242932
sL988944056L
I1074246520
sL1390334101L
I1074247788
sL77857257L
I1074246536
sL4267727662L
I1074246276
sL3762363151L
I1074246404
sL172492057L
I1074268720
sL3062135506L
I1074246636
sL1585823442L
I1074245812
sL744601145L
I1074235832
sL1652509986L
I1074246216
sL2307242981L
I1074237508
sL2599816855L
I1074246428
sL2657357824L
I1074237084
sL695752976L
I1074243912
sL949670130L
I1074268904
sL263605983L
I1074240756
sL1509110686L
I1074269684
sL942970971L
I1074241736
sL4175760533L
I1074269656
sL2170550061L
I1074247744
sL2045471388L
I1074236672
sL2485957460L
I1074269416
sL1522857917L
I1074247320
sL833279786L
I1074243360
sL2057054749L
I1074248212
sL1140530296L
I1074240700
sL1238691665L
I1074247148
sL3307282855L
I1074238164
sL4114736847L
I1074236908
sL612086517L
I1074235288
sL242136289L
I1074238024
sL131154753L
I1074269748
sL3189110663L
I1074245324
sL3844512690L
I1074236996
sL1428927423L
I1074245876
sL2379627086L
I1074236796
sL3013888774L
I1074247348
sL83337299L
I1074237476
sL1156874576L
I1074236592
sL666229264L
I1074240300
sL1652900655L
I1074238600
sL23021043L
I1074235944
sL48580680L
I1074239188
sL1804313894L
I1074246576
sL493999838L
I1074267860
sL2997001746L
I1074237328
sL872506805L
I1074267928
sL3588042603L
I1074239236
sL243291962L
I1074240908
sL2819127986L
I1074237048
sL549239041L
I1074238192
sL1287220857L
I1074270000
sL2191677283L
I1074241524
sL1577973455L
I1074239080
sL1164083360L
I1074235632
sL1242724561L
I1074235580
sL3131344992L
I1074269392
sL4092259116L
I1074269828
sL2249539038L
I1074240208
sL4153390147L
I1074243312
sL168067540L
I1074241616
sL1016673865L
I1074246100
sL4142749756L
I1074236560
sL1865528544L
I1074245840
sL2810302546L
I1074269780
sL1997134047L
I1074244000
sL1771548993L
I1074243608
sL2346507275L
I1074269460
sL3397796702L
I1074240280
sL2263182908L
I1074238184
sL1666095504L
I1074241156
sL188664287L
I1074235256
sL2959238529L
I1074237396
sL692536993L
I1074237368
sL2319953056L
I1074238996
sL3845421789L
I1074237732
sL808851935L
I1074248244
sL2663572780L
I1074240464
sL3608561895L
I1074268888
sL4108555540L
I1074269532
sL4267894680L
I1074236764
sL3763660718L
I1074239916
sL2246062622L
I1074241100
sL402933242L
I1074270616
ssS'immediates'
p8
(dp9
sS'formaldups'
p10
c__builtin__
set
p11
((lp12
tp13
Rp14
sS'stringdups'
p15
g11
((lp16
tp17
Rp18
sS'fuzzydups'
p19
g11
((lp20
tp21
Rp22
sS'strings'
p23
(dp24
sS'functions'
p25
(dp26
I1074267912
(Vbootloader_common_get_reset_reason
p27
(lp28
(L3780188688L
L0L
(lp29
(lp30
tp31
atp32
sI1074239236
(Vbootloader_utility_load_partition_table
p33
(lp34
(L337793758L
L3785322319L
(lp35
(lp36
Vbootloader_mmap
p37
atp38
a(L1572404640L
L3785322319L
(lp39
(lp40
Vesp_log_early_timestamp
p41
atp42
a(L2258688482L
L0L
(lp43
(lp44
tp45
a(L3360570486L
L0L
(lp46
(lp47
tp48
a(L2379286607L
L3785322319L
(lp49
(lp50
Vesp_partition_table_verify
p51
atp52
a(L1824441572L
L3785322319L
(lp53
(lp54
Vesp_log_early_timestamp
p55
atp56
a(L555142709L
L1880226080L
(lp57
(lp58
Vesp_log_early_timestamp
p59
aVesp_log_early_timestamp
p60
atp61
a(L60599615L
L0L
(lp62
(lp63
tp64
a(L2509258321L
L1880226080L
(lp65
(lp66
Vbootloader_munmap
p67
aVesp_log_early_timestamp
p68
atp69
a(L4226553678L
L0L
(lp70
(lp71
tp72
a(L3028464L
L0L
(lp73
(lp74
tp75
a(L106L
L0L
(lp76
(lp77
tp78
a(L307915808L
L0L
(lp79
(lp80
tp81
a(L3021439948L
L3785322319L
(lp82
(lp83
Vesp_log_early_timestamp
p84
atp85
a(L3990577774L
L0L
(lp86
(lp87
tp88
a(L3020187L
L0L
(lp89
(lp90
tp91
a(L2559753343L
L0L
(lp92
(lp93
tp94
a(L1154512743L
L0L
(lp95
(lp96
tp97
a(L1380578767L
L0L
(lp98
(lp99
tp100
a(L1308290804L
L0L
(lp101
(lp102
tp103
a(L3477770624L
L0L
(lp104
(lp105
tp106
a(L106L
L0L
(lp107
(lp108
tp109
a(L93674324L
L0L
(lp110
(lp111
tp112
a(L2902417580L
L0L
(lp113
(lp114
tp115
a(L1245794467L
L0L
(lp116
(lp117
tp118
a(L106L
L0L
(lp119
(lp120
tp121
a(L955455903L
L0L
(lp122
(lp123
tp124
a(L1217165316L
L0L
(lp125
(lp126
tp127
a(L106L
L0L
(lp128
(lp129
tp130
a(L1256876719L
L0L
(lp131
(lp132
tp133
a(L106L
L0L
(lp134
(lp135
tp136
a(L106L
L0L
(lp137
(lp138
tp139
a(L2752742501L
L0L
(lp140
(lp141
tp142
atp143
sI1074246404
(Vrtc_clk_8m_enabled
p144
(lp145
(L581027248L
L0L
(lp146
(lp147
tp148
atp149
sI1074236672
(Vesp_rom_uart_set_clock_baudrate
p150
(lp151
(L881452272L
L0L
(lp152
(lp153
tp154
a(L3909951828L
L0L
(lp155
(lp156
tp157
a(L1008980029L
L0L
(lp158
(lp159
tp160
a(L869159045L
L0L
(lp161
(lp162
tp163
a(L2805931435L
L0L
(lp164
(lp165
tp166
a(L1926040272L
L0L
(lp167
(lp168
tp169
atp170
sI1074267136
(V_init
p171
(lp172
(L3493042598L
L0L
(lp173
(lp174
tp175
atp176
sI1074267139
(V_text_start
p177
(lp178
(L1817914933L
L0L
(lp179
(lp180
tp181
atp182
sI1074245640
(Vwdt_hal_write_protect_disable
p183
(lp184
(L2163333608L
L0L
(lp185
(lp186
tp187
a(L4195472003L
L0L
(lp188
(lp189
tp190
a(L3360570486L
L0L
(lp191
(lp192
tp193
a(L1210571996L
L0L
(lp194
(lp195
tp196
atp197
sI1074267928
(Vbootloader_init
p198
(lp199
(L3804836369L
L3785322319L
(lp200
(lp201
Vbootloader_init_mem
p202
atp203
a(L884624360L
L0L
(lp204
(lp205
tp206
a(L3437976184L
L3785322319L
(lp207
(lp208
V__assert_func
p209
atp210
a(L8634251L
L0L
(lp211
(lp212
tp213
a(L1217383532L
L0L
(lp214
(lp215
tp216
a(L2926278337L
L0L
(lp217
(lp218
tp219
a(L2620583342L
L0L
(lp220
(lp221
tp222
a(L3027019L
L0L
(lp223
(lp224
tp225
a(L4023784330L
L0L
(lp226
(lp227
tp228
a(L2921262017L
L1832448559L
(lp229
(lp230
Vbootloader_clear_bss_section
p231
aVbootloader_common_vddsdio_configure
p232
aVbootloader_clock_get_rated_freq_mhz
p233
atp234
a(L3987130017L
L1157885199L
(lp235
(lp236
Vbootloader_clock_configure
p237
aVbootloader_console_init
p238
aVbootloader_print_banner
p239
aVbootloader_flash_update_id
p240
aVbootloader_flash_xmc_startup
p241
atp242
a(L3838320684L
L3785322319L
(lp243
(lp244
Vesp_log_early_timestamp
p245
atp246
a(L3314830892L
L3785322319L
(lp247
(lp248
Vesp_log_early_timestamp
p249
atp250
a(L3360570486L
L0L
(lp251
(lp252
tp253
a(L2444883382L
L3785322319L
(lp254
(lp255
Vbootloader_read_bootloader_header
p256
atp257
a(L2444883382L
L3785322319L
(lp258
(lp259
Vbootloader_check_bootloader_validity
p260
atp261
a(L1572644154L
L2485746240L
(lp262
(lp263
Vbootloader_flash_gpio_config
p264
aVbootloader_flash_dummy_config
p265
aVbootloader_flash_cs_timing_config
p266
aVbootloader_flash_unlock
p267
atp268
a(L2251399622L
L0L
(lp269
(lp270
tp271
a(L1346649327L
L0L
(lp272
(lp273
tp274
a(L3902505652L
L0L
(lp275
(lp276
tp277
a(L1714599046L
L3785322319L
(lp278
(lp279
Vesp_log_early_timestamp
p280
atp281
a(L2740417899L
L0L
(lp282
(lp283
tp284
a(L2744111983L
L0L
(lp285
(lp286
tp287
a(L2715482832L
L0L
(lp288
(lp289
tp290
a(L2755194235L
L0L
(lp291
(lp292
tp293
a(L3201441156L
L0L
(lp294
(lp295
tp296
a(L1937114122L
L3785322319L
(lp297
(lp298
Vesp_log_early_timestamp
p299
atp300
a(L93674324L
L0L
(lp301
(lp302
tp303
a(L1628792350L
L0L
(lp304
(lp305
tp306
a(L718593913L
L0L
(lp307
(lp308
tp309
a(L1532591680L
L0L
(lp310
(lp311
tp312
a(L1489194470L
L0L
(lp313
(lp314
tp315
a(L563615447L
L3785322319L
(lp316
(lp317
Vesp_log_early_timestamp
p318
atp319
a(L104277116L
L0L
(lp320
(lp321
tp322
a(L2642220900L
L0L
(lp323
(lp324
tp325
a(L819703139L
L0L
(lp326
(lp327
tp328
a(L575140665L
L0L
(lp329
(lp330
tp331
a(L2833377629L
L3785322319L
(lp332
(lp333
Vbootloader_enable_wp
p334
atp335
a(L1092107084L
L0L
(lp336
(lp337
tp338
a(L3256259158L
L3785322319L
(lp339
(lp340
Vesp_log_early_timestamp
p341
atp342
a(L4070159054L
L0L
(lp343
(lp344
tp345
a(L106L
L0L
(lp346
(lp347
tp348
a(L569590566L
L0L
(lp349
(lp350
tp351
a(L106L
L0L
(lp352
(lp353
tp354
a(L3020204L
L0L
(lp355
(lp356
tp357
a(L2113618850L
L0L
(lp358
(lp359
tp360
a(L362391907L
L0L
(lp361
(lp362
tp363
a(L2508833713L
L3785322319L
(lp364
(lp365
Vesp_log_early_timestamp
p366
atp367
a(L1547317151L
L0L
(lp368
(lp369
tp370
a(L938198690L
L1880226080L
(lp371
(lp372
Vbootloader_config_wdt
p373
aVbootloader_enable_random
p374
atp375
a(L4054118365L
L3785322319L
(lp376
(lp377
Vesp_log_early_timestamp
p378
atp379
a(L3939353035L
L3785322319L
(lp380
(lp381
Vesp_log_early_timestamp
p382
atp383
atp384
sI1074238996
(Vlog_invalid_app_partition
p385
(lp386
(L4293078423L
L0L
(lp387
(lp388
tp389
a(L3028464L
L0L
(lp390
(lp391
tp392
a(L60127667L
L3785322319L
(lp393
(lp394
Vesp_log_early_timestamp
p395
atp396
a(L44113432L
L0L
(lp397
(lp398
tp399
a(L3360570486L
L0L
(lp400
(lp401
tp402
a(L1770519575L
L3785322319L
(lp403
(lp404
Vesp_log_early_timestamp
p405
atp406
a(L2524670070L
L3785322319L
(lp407
(lp408
Vesp_log_early_timestamp
p409
atp410
atp411
sI1074248212
(Vrtc_clk_cal_ratio
p412
(lp413
(L2006006373L
L3785322319L
(lp414
(lp415
Vrtc_clk_cal_internal
p416
atp417
atp418
sI1074240272
(Vbootloader_debug_buffer
p419
(lp420
(L2100504542L
L0L
(lp421
(lp422
tp423
atp424
sI1074235676
(Vbootloader_flash_xmc_startup
p425
(lp426
(L4031258446L
L3785322319L
(lp427
(lp428
Vis_xmc_chip_strict
p429
atp430
a(L2258688482L
L0L
(lp431
(lp432
tp433
a(L3360570486L
L0L
(lp434
(lp435
tp436
a(L2860324232L
L3785322319L
(lp437
(lp438
Vbootloader_flash_read_sfdp
p439
atp440
a(L3354428414L
L2567856111L
(lp441
(lp442
Vesp_log_early_timestamp
p443
aVbootloader_execute_flash_command
p444
aVbootloader_execute_flash_command
p445
aVbootloader_execute_flash_command
p446
aVbootloader_execute_flash_command
p447
aVbootloader_read_flash_id
p448
aVis_xmc_chip_strict
p449
atp450
a(L3332645139L
L3785322319L
(lp451
(lp452
Vesp_log_early_timestamp
p453
atp454
atp455
sI1074246428
(Vrtc_clk_8md256_enabled
p456
(lp457
(L4031522673L
L0L
(lp458
(lp459
tp460
atp461
sI1074269460
(Vbootloader_check_bootloader_validity
p462
(lp463
(L102421281L
L1832448559L
(lp464
(lp465
Vefuse_hal_chip_revision
p466
aVesp_log_early_timestamp
p467
aVbootloader_common_check_chip_validity
p468
atp469
atp470
sI1074243608
(Vesp_rom_spiflash_erase_sector
p471
(lp472
(L53722206L
L0L
(lp473
(lp474
tp475
a(L2258688483L
L0L
(lp476
(lp477
tp478
a(L3360570486L
L0L
(lp479
(lp480
tp481
a(L3212356251L
L3785322319L
(lp482
(lp483
Vesp_rom_spiflash_enable_write
p484
atp485
a(L184152988L
L0L
(lp486
(lp487
tp488
a(L576897767L
L3785322319L
(lp489
(lp490
Vesp_rom_spiflash_wait_idle
p491
atp492
a(L3333707777L
L0L
(lp493
(lp494
tp495
a(L3582858798L
L3785322319L
(lp496
(lp497
Vesp_rom_spiflash_wait_idle
p498
atp499
atp500
sI1074240280
(Vbootloader_sha256_start
p501
(lp502
(L4134328955L
L0L
(lp503
(lp504
tp505
atp506
sI1074237732
(Vbootloader_flash_read
p507
(lp508
(L2699333355L
L0L
(lp509
(lp510
tp511
a(L1175362320L
L3785322319L
(lp512
(lp513
Vesp_log_early_timestamp
p514
atp515
a(L44113432L
L0L
(lp516
(lp517
tp518
a(L1299867982L
L0L
(lp519
(lp520
tp521
a(L3360570486L
L0L
(lp522
(lp523
tp524
a(L2660352519L
L0L
(lp525
(lp526
tp527
a(L521140592L
L3785322319L
(lp528
(lp529
Vesp_log_early_timestamp
p530
atp531
a(L162336582L
L0L
(lp532
(lp533
tp534
a(L1181808077L
L3785322319L
(lp535
(lp536
Vesp_log_early_timestamp
p537
atp538
a(L3020204L
L0L
(lp539
(lp540
tp541
a(L1398573769L
L0L
(lp542
(lp543
tp544
a(L97422L
L0L
(lp545
(lp546
tp547
a(L3753789769L
L0L
(lp548
(lp549
tp550
a(L3653028369L
L0L
(lp551
(lp552
tp553
a(L4242981970L
L3785322319L
(lp554
(lp555
Vesp_log_early_timestamp
p556
atp557
a(L4138677549L
L0L
(lp558
(lp559
tp560
a(L753544199L
L0L
(lp561
(lp562
tp563
a(L3408640340L
L1880226080L
(lp564
(lp565
Vesp_rom_spiflash_read
p566
aVspi_to_esp_err
p567
atp568
atp569
sI1074237476
(Vspi_to_esp_err
p570
(lp571
(L2933521939L
L0L
(lp572
(lp573
tp574
a(L366093042L
L0L
(lp575
(lp576
tp577
a(L3549545911L
L0L
(lp578
(lp579
tp580
a(L3126521138L
L0L
(lp581
(lp582
tp583
atp584
sI1074243360
(Vesp_rom_spiflash_enable_write
p585
(lp586
(L3479651233L
L3785322319L
(lp587
(lp588
Vesp_rom_spiflash_wait_idle
p589
atp590
a(L3137194272L
L0L
(lp591
(lp592
tp593
a(L2258718275L
L0L
(lp594
(lp595
tp596
a(L99543895L
L0L
(lp597
(lp598
tp599
a(L2993202392L
L0L
(lp600
(lp601
tp602
a(L1804543818L
L3785322319L
(lp603
(lp604
Vesp_rom_spiflash_read_status
p605
atp606
atp607
sI1074240300
(Vbootloader_sha256_data
p608
(lp609
(L4066096136L
L0L
(lp610
(lp611
tp612
a(L1563173327L
L0L
(lp613
(lp614
tp615
a(L2504541789L
L3785322319L
(lp616
(lp617
V__assert_func
p618
atp619
a(L498498478L
L0L
(lp620
(lp621
tp622
a(L4268756642L
L0L
(lp623
(lp624
tp625
a(L2910371777L
L0L
(lp626
(lp627
tp628
a(L3360570486L
L0L
(lp629
(lp630
tp631
a(L301121101L
L0L
(lp632
(lp633
tp634
a(L841847518L
L0L
(lp635
(lp636
tp637
a(L1586729644L
L0L
(lp638
(lp639
tp640
a(L2700619295L
L0L
(lp641
(lp642
tp643
a(L1175956750L
L0L
(lp644
(lp645
tp646
a(L1390602840L
L0L
(lp647
(lp648
tp649
a(L3028464L
L0L
(lp650
(lp651
tp652
a(L717127773L
L0L
(lp653
(lp654
tp655
a(L784960019L
L0L
(lp656
(lp657
tp658
atp659
sI1074235944
(Vbootloader_flash_gpio_config
p660
(lp661
(L719792650L
L3785322319L
(lp662
(lp663
Vbootloader_common_get_chip_ver_pkg
p664
atp665
a(L106L
L0L
(lp666
(lp667
tp668
a(L2886083034L
L0L
(lp669
(lp670
tp671
a(L106L
L0L
(lp672
(lp673
tp674
a(L4213870169L
L0L
(lp675
(lp676
tp677
a(L3890032189L
L0L
(lp678
(lp679
tp680
a(L106L
L0L
(lp681
(lp682
tp683
a(L676119430L
L0L
(lp684
(lp685
tp686
a(L4272081986L
L0L
(lp687
(lp688
tp689
a(L3360570486L
L0L
(lp690
(lp691
tp692
atp693
sI1074245672
(Vwdt_hal_enable
p694
(lp695
(L4029830118L
L0L
(lp696
(lp697
tp698
a(L3634439744L
L0L
(lp699
(lp700
tp701
a(L3360570486L
L0L
(lp702
(lp703
tp704
a(L2011576586L
L0L
(lp705
(lp706
tp707
atp708
sI1074247464
(Vrtc_clk_cpu_freq_set_config
p709
(lp710
(L803247388L
L3785322319L
(lp711
(lp712
Vrtc_clk_xtal_freq_get
p713
atp714
a(L1828795533L
L1880226080L
(lp715
(lp716
Vrtc_clk_cpu_freq_to_xtal
p717
aVrtc_clk_wait_for_slow_cycle
p718
atp719
a(L94425498L
L3785322319L
(lp720
(lp721
Vrtc_clk_bbpll_disable
p722
atp723
a(L3978916712L
L0L
(lp724
(lp725
tp726
a(L2977209154L
L0L
(lp727
(lp728
tp729
a(L2736411858L
L3785322319L
(lp730
(lp731
Vrtc_clk_cpu_freq_to_xtal
p732
atp733
a(L3360570486L
L0L
(lp734
(lp735
tp736
a(L3020187L
L0L
(lp737
(lp738
tp739
a(L106L
L0L
(lp740
(lp741
tp742
a(L1323732045L
L2485746240L
(lp743
(lp744
Vrtc_clk_wait_for_slow_cycle
p745
aVrtc_clk_xtal_freq_get
p746
aVrtc_clk_bbpll_configure
p747
aVrtc_clk_cpu_freq_to_pll_mhz
p748
atp749
a(L3020187L
L0L
(lp750
(lp751
tp752
a(L106L
L0L
(lp753
(lp754
tp755
a(L1439738509L
L0L
(lp756
(lp757
tp758
atp759
sI1074238004
(Vbootloader_flash_erase_sector
p760
(lp761
(L4129137686L
L1880226080L
(lp762
(lp763
Vesp_rom_spiflash_erase_sector
p764
aVspi_to_esp_err
p765
atp766
atp767
sI1074246452
(Vrtc_clk_slow_freq_set
p768
(lp769
(L3675706944L
L0L
(lp770
(lp771
tp772
atp773
sI1074248244
(Vrtc_clk_wait_for_slow_cycle
p774
(lp775
(L714736875L
L0L
(lp776
(lp777
tp778
a(L287687718L
L0L
(lp779
(lp780
tp781
a(L3360570486L
L0L
(lp782
(lp783
tp784
a(L3986273454L
L0L
(lp785
(lp786
tp787
a(L2994547433L
L0L
(lp788
(lp789
tp790
a(L2947550753L
L0L
(lp791
(lp792
tp793
a(L1844411884L
L3785322319L
(lp794
(lp795
Vesp_log_early_timestamp
p796
atp797
atp798
sI1074245936
(Vrtc_clk_cpu_freq_to_pll_mhz
p799
(lp800
(L428013989L
L0L
(lp801
(lp802
tp803
a(L106L
L0L
(lp804
(lp805
tp806
a(L1541997046L
L0L
(lp807
(lp808
tp809
a(L106L
L0L
(lp810
(lp811
tp812
a(L1546614651L
L0L
(lp813
(lp814
tp815
a(L2907368881L
L0L
(lp816
(lp817
tp818
a(L634075739L
L3785322319L
(lp819
(lp820
Vrtc_clk_wait_for_slow_cycle
p821
atp822
a(L2087566375L
L1880226080L
(lp823
(lp824
Vesp_log_early_timestamp
p825
aVabort
p826
atp827
a(L1183020347L
L0L
(lp828
(lp829
tp830
a(L1305407562L
L0L
(lp831
(lp832
tp833
a(L1306330990L
L0L
(lp834
(lp835
tp836
atp837
sI1074268720
(Vbootloader_clock_configure
p838
(lp839
(L1154001737L
L1880226080L
(lp840
(lp841
Vesp_rom_uart_tx_wait_idle
p842
aVefuse_hal_chip_revision
p843
atp844
a(L64782481L
L0L
(lp845
(lp846
tp847
a(L4269432931L
L3785322319L
(lp848
(lp849
Vrtc_clk_apb_freq_get
p850
atp851
a(L2953294222L
L1832448559L
(lp852
(lp853
Vrtc_clk_slow_freq_get
p854
aVrtc_clk_fast_freq_get
p855
aVrtc_clk_init
p856
atp857
a(L2699751837L
L0L
(lp858
(lp859
tp860
a(L3864824743L
L0L
(lp861
(lp862
tp863
a(L106L
L0L
(lp864
(lp865
tp866
atp867
sI1074270000
(Vrtc_clk_init
p868
(lp869
(L2534402215L
L0L
(lp870
(lp871
tp872
a(L42671777L
L3785322319L
(lp873
(lp874
Vrtc_clk_cpu_freq_to_xtal
p875
atp876
a(L4105339554L
L0L
(lp877
(lp878
tp879
a(L4184912069L
L0L
(lp880
(lp881
tp882
a(L2873281153L
L0L
(lp883
(lp884
tp885
a(L912414356L
L3785322319L
(lp886
(lp887
Vrtc_clk_xtal_freq_get
p888
atp889
a(L3347889620L
L1157885199L
(lp890
(lp891
Vesp_rom_uart_tx_wait_idle
p892
aVrtc_clk_xtal_freq_update
p893
aVrtc_clk_apb_freq_update
p894
aVrtc_clk_cpu_freq_get_config
p895
aVrtc_clk_cpu_freq_mhz_to_config
p896
atp897
a(L1611285616L
L1880226080L
(lp898
(lp899
Vesp_log_early_timestamp
p900
aVabort
p901
atp902
a(L4187693717L
L3785322319L
(lp903
(lp904
Vrtc_clk_xtal_freq_estimate
p905
atp906
a(L3084363412L
L3785322319L
(lp907
(lp908
Vesp_log_early_timestamp
p909
atp910
a(L4188325301L
L0L
(lp911
(lp912
tp913
a(L1563923531L
L0L
(lp914
(lp915
tp916
a(L106L
L0L
(lp917
(lp918
tp919
a(L4070631878L
L3785322319L
(lp920
(lp921
Vrtc_clk_xtal_freq_estimate
p922
atp923
a(L106L
L0L
(lp924
(lp925
tp926
a(L2815814923L
L3785322319L
(lp927
(lp928
Vesp_log_early_timestamp
p929
atp930
a(L4051433479L
L3785322319L
(lp931
(lp932
Vrtc_clk_cpu_freq_set_config
p933
atp934
a(L4168829660L
L3785322319L
(lp935
(lp936
Vrtc_clk_32k_enable
p937
atp938
a(L3016870L
L0L
(lp939
(lp940
tp941
a(L550259334L
L3785322319L
(lp942
(lp943
Vrtc_clk_8m_enable
p944
atp945
a(L530469956L
L1880226080L
(lp946
(lp947
Vrtc_clk_fast_freq_set
p948
aVrtc_clk_slow_freq_set
p949
atp950
atp951
sI1074269748
(Vbootloader_console_init
p952
(lp953
(L1732948438L
L1832448559L
(lp954
(lp955
Vesp_rom_uart_tx_wait_idle
p956
aVrtc_clk_apb_freq_get
p957
aVesp_rom_uart_set_clock_baudrate
p958
atp959
atp960
sI1074237508
(Vbootloader_mmap
p961
(lp962
(L2059700562L
L0L
(lp963
(lp964
tp965
a(L3017932071L
L3785322319L
(lp966
(lp967
Vesp_log_early_timestamp
p968
atp969
a(L1182811810L
L0L
(lp970
(lp971
tp972
a(L3496950L
L0L
(lp973
(lp974
tp975
a(L1630759581L
L0L
(lp976
(lp977
tp978
a(L3536022130L
L3785322319L
(lp979
(lp980
Vesp_log_early_timestamp
p981
atp982
a(L1503832912L
L0L
(lp983
(lp984
tp985
a(L2005677777L
L3785322319L
(lp986
(lp987
Vesp_log_early_timestamp
p988
atp989
a(L1090567542L
L0L
(lp990
(lp991
tp992
atp993
sI1074236996
(Vesp_log_early_timestamp
p994
(lp995
(L3622092107L
L0L
(lp996
(lp997
tp998
atp999
sI1074247744
(Vrtc_clk_apb_freq_get
p1000
(lp1001
(L301554173L
L0L
(lp1002
(lp1003
tp1004
atp1005
sI1074241100
(Vbootloader_util_regions_overlap
p1006
(lp1007
(L2762640130L
L0L
(lp1008
(lp1009
tp1010
a(L486238211L
L0L
(lp1011
(lp1012
tp1013
a(L3823861319L
L3785322319L
(lp1014
(lp1015
V__assert_func
p1016
atp1017
a(L97642L
L0L
(lp1018
(lp1019
tp1020
a(L2752402003L
L0L
(lp1021
(lp1022
tp1023
a(L366123053L
L0L
(lp1024
(lp1025
tp1026
a(L2258867228L
L0L
(lp1027
(lp1028
tp1029
a(L1253626734L
L0L
(lp1030
(lp1031
tp1032
a(L2258897019L
L0L
(lp1033
(lp1034
tp1035
a(L3109269495L
L0L
(lp1036
(lp1037
tp1038
atp1039
sI1074238284
(Vbootloader_random_disable
p1040
(lp1041
(L2124996308L
L0L
(lp1042
(lp1043
tp1044
atp1045
sI1074238024
(Vbootloader_flash_write
p1046
(lp1047
(L3119145091L
L0L
(lp1048
(lp1049
tp1050
a(L962229776L
L3785322319L
(lp1051
(lp1052
Vesp_log_early_timestamp
p1053
atp1054
a(L44113432L
L0L
(lp1055
(lp1056
tp1057
a(L1610445075L
L0L
(lp1058
(lp1059
tp1060
a(L735741265L
L0L
(lp1061
(lp1062
tp1063
a(L3291333414L
L0L
(lp1064
(lp1065
tp1066
a(L2835528492L
L3785322319L
(lp1067
(lp1068
Vesp_log_early_timestamp
p1069
atp1070
a(L3283691850L
L0L
(lp1071
(lp1072
tp1073
a(L3823398198L
L3785322319L
(lp1074
(lp1075
Vesp_log_early_timestamp
p1076
atp1077
a(L3212356251L
L3785322319L
(lp1078
(lp1079
Vbootloader_flash_unlock
p1080
atp1081
a(L1799218633L
L0L
(lp1082
(lp1083
tp1084
a(L94425498L
L3785322319L
(lp1085
(lp1086
Vesp_rom_spiflash_write_encrypted
p1087
atp1088
a(L2927190544L
L3785322319L
(lp1089
(lp1090
Vspi_to_esp_err
p1091
atp1092
a(L2927190544L
L3785322319L
(lp1093
(lp1094
Vesp_rom_spiflash_write
p1095
atp1096
atp1097
sI1074243912
(Vesp_rom_spiflash_write_encrypted
p1098
(lp1099
(L2107077087L
L0L
(lp1100
(lp1101
tp1102
a(L4029827543L
L0L
(lp1103
(lp1104
tp1105
a(L97689L
L0L
(lp1106
(lp1107
tp1108
a(L3061232074L
L0L
(lp1109
(lp1110
tp1111
a(L185323185L
L0L
(lp1112
(lp1113
tp1114
a(L2903314395L
L3785322319L
(lp1115
(lp1116
Vesp_rom_spiflash_write
p1117
atp1118
a(L718992931L
L0L
(lp1119
(lp1120
tp1121
a(L735741265L
L0L
(lp1122
(lp1123
tp1124
atp1125
sI1074246216
(Vrtc_clk_32k_enable
p1126
(lp1127
(L753387299L
L0L
(lp1128
(lp1129
tp1130
a(L1067050752L
L3785322319L
(lp1131
(lp1132
Vrtc_clk_32k_enable_common
p1133
atp1134
a(L3360570486L
L0L
(lp1135
(lp1136
tp1137
a(L2431186214L
L0L
(lp1138
(lp1139
tp1140
atp1141
sI1074269532
(Vbootloader_config_wdt
p1142
(lp1143
(L426984287L
L505859776L
(lp1144
(lp1145
Vwdt_hal_write_protect_disable
p1146
aVwdt_hal_set_flashboot_en
p1147
aVwdt_hal_write_protect_enable
p1148
aVwdt_hal_init
p1149
aVrtc_clk_slow_freq_get_hz
p1150
aVwdt_hal_write_protect_disable
p1151
aVwdt_hal_config_stage
p1152
aVwdt_hal_enable
p1153
aVwdt_hal_write_protect_enable
p1154
aVwdt_hal_write_protect_disable
p1155
aVwdt_hal_set_flashboot_en
p1156
aVwdt_hal_write_protect_enable
p1157
atp1158
atp1159
sI1074241616
(Vshould_load
p1160
(lp1161
(L2695571604L
L0L
(lp1162
(lp1163
tp1164
a(L1182990556L
L0L
(lp1165
(lp1166
tp1167
a(L1780902349L
L0L
(lp1168
(lp1169
tp1170
a(L1298905564L
L0L
(lp1171
(lp1172
tp1173
a(L524505062L
L0L
(lp1174
(lp1175
tp1176
a(L2258897019L
L0L
(lp1177
(lp1178
tp1179
a(L3781799363L
L0L
(lp1180
(lp1181
tp1182
a(L3028464L
L0L
(lp1183
(lp1184
tp1185
a(L1441752948L
L0L
(lp1186
(lp1187
tp1188
a(L1311491770L
L0L
(lp1189
(lp1190
tp1191
a(L1906996968L
L0L
(lp1192
(lp1193
tp1194
a(L4185756579L
L0L
(lp1195
(lp1196
tp1197
a(L3458855836L
L0L
(lp1198
(lp1199
tp1200
a(L3126521138L
L0L
(lp1201
(lp1202
tp1203
a(L1305407438L
L0L
(lp1204
(lp1205
tp1206
a(L1305407469L
L0L
(lp1207
(lp1208
tp1209
atp1210
sI1074243420
(Vesp_rom_spiflash_program_page_internal
p1211
(lp1212
(L2569069283L
L0L
(lp1213
(lp1214
tp1215
a(L2258688483L
L0L
(lp1216
(lp1217
tp1218
a(L3360570486L
L0L
(lp1219
(lp1220
tp1221
a(L2861094573L
L0L
(lp1222
(lp1223
tp1224
a(L4235661475L
L3785322319L
(lp1225
(lp1226
Vesp_rom_spiflash_wait_idle
p1227
atp1228
a(L1299866312L
L0L
(lp1229
(lp1230
tp1231
a(L3212356251L
L3785322319L
(lp1232
(lp1233
Vesp_rom_spiflash_enable_write
p1234
atp1235
a(L3223836395L
L0L
(lp1236
(lp1237
tp1238
a(L3387680508L
L0L
(lp1239
(lp1240
tp1241
a(L2953702749L
L0L
(lp1242
(lp1243
tp1244
a(L2989032L
L0L
(lp1245
(lp1246
tp1247
a(L1965622133L
L0L
(lp1248
(lp1249
tp1250
a(L4108355541L
L0L
(lp1251
(lp1252
tp1253
a(L1958113242L
L0L
(lp1254
(lp1255
tp1256
a(L106L
L0L
(lp1257
(lp1258
tp1259
a(L4283177684L
L0L
(lp1260
(lp1261
tp1262
a(L1405253496L
L0L
(lp1263
(lp1264
tp1265
a(L1008982323L
L0L
(lp1266
(lp1267
tp1268
a(L1933954923L
L0L
(lp1269
(lp1270
tp1271
a(L3886319556L
L0L
(lp1272
(lp1273
tp1274
a(L2767679583L
L0L
(lp1275
(lp1276
tp1277
atp1278
sI1074236764
(Vefuse_hal_chip_revision
p1279
(lp1280
(L1761205471L
L1880226080L
(lp1281
(lp1282
Vefuse_hal_get_major_chip_version
p1283
aVefuse_hal_get_minor_chip_version
p1284
atp1285
atp1286
sI1074269780
(Vesp_cpu_configure_region_protection
p1287
(lp1288
(L3263616706L
L0L
(lp1289
(lp1290
tp1291
a(L180431425L
L3785322319L
(lp1292
(lp1293
Vmpu_hal_set_region_access
p1294
atp1295
a(L2537388152L
L3785322319L
(lp1296
(lp1297
Vmpu_hal_set_region_access
p1298
atp1299
atp1300
sI1074267752
(Vcall_start_cpu0
p1301
(lp1302
(L1137852827L
L0L
(lp1303
(lp1304
tp1305
a(L549459388L
L0L
(lp1306
(lp1307
tp1308
a(L3212347974L
L3785322319L
(lp1309
(lp1310
Vbootloader_init
p1311
atp1312
a(L94425498L
L3785322319L
(lp1313
(lp1314
Vbootloader_reset
p1315
atp1316
a(L1122046408L
L0L
(lp1317
(lp1318
tp1319
a(L4099474112L
L0L
(lp1320
(lp1321
tp1322
a(L3015046664L
L3785322319L
(lp1323
(lp1324
Vbootloader_utility_load_partition_table
p1325
atp1326
a(L2761094216L
L3785322319L
(lp1327
(lp1328
Vesp_log_early_timestamp
p1329
atp1330
a(L736289835L
L3785322319L
(lp1331
(lp1332
Vbootloader_utility_get_selected_boot_partition
p1333
atp1334
a(L3548846595L
L1880226080L
(lp1335
(lp1336
Vbootloader_common_get_reset_reason
p1337
aVbootloader_utility_load_boot_image
p1338
atp1339
atp1340
sI1074237028
(Vbootloader_common_ota_select_crc
p1341
(lp1342
(L943698951L
L0L
(lp1343
(lp1344
tp1345
atp1346
sI1074242916
(Vbootloader_load_image
p1347
(lp1348
(L1155870502L
L3785322319L
(lp1349
(lp1350
Vimage_load
p1351
atp1352
atp1353
sI1074247020
(Vrtc_clk_xtal_freq_get
p1354
(lp1355
(L4222699713L
L0L
(lp1356
(lp1357
tp1358
a(L2847936993L
L0L
(lp1359
(lp1360
tp1361
a(L2081994531L
L0L
(lp1362
(lp1363
tp1364
a(L3360570486L
L0L
(lp1365
(lp1366
tp1367
atp1368
sI1074247276
(Vrtc_clk_xtal_freq_update
p1369
(lp1370
(L563155638L
L0L
(lp1371
(lp1372
tp1373
a(L3509357017L
L0L
(lp1374
(lp1375
tp1376
a(L3020103887L
L0L
(lp1377
(lp1378
tp1379
atp1380
sI1074247788
(Vrtc_clk_cal_internal
p1381
(lp1382
(L2821064516L
L0L
(lp1383
(lp1384
tp1385
a(L1052064185L
L3785322319L
(lp1386
(lp1387
V__assert_func
p1388
atp1389
a(L2425749881L
L0L
(lp1390
(lp1391
tp1392
a(L3017366L
L0L
(lp1393
(lp1394
tp1395
a(L2781091364L
L0L
(lp1396
(lp1397
tp1398
a(L4169864463L
L1880226080L
(lp1399
(lp1400
Vrtc_clk_8m_enabled
p1401
aVrtc_clk_8md256_enabled
p1402
atp1403
a(L1743660703L
L3785322319L
(lp1404
(lp1405
Vrtc_clk_8m_enable
p1406
atp1407
a(L2780426037L
L0L
(lp1408
(lp1409
tp1410
a(L3502850147L
L0L
(lp1411
(lp1412
tp1413
a(L97689L
L0L
(lp1414
(lp1415
tp1416
a(L2476841872L
L0L
(lp1417
(lp1418
tp1419
a(L3028464L
L0L
(lp1420
(lp1421
tp1422
a(L3028481L
L0L
(lp1423
(lp1424
tp1425
a(L3450259569L
L0L
(lp1426
(lp1427
tp1428
a(L3077385976L
L3785322319L
(lp1429
(lp1430
Vrtc_clk_xtal_freq_get
p1431
atp1432
a(L2780079961L
L0L
(lp1433
(lp1434
tp1435
a(L493911464L
L0L
(lp1436
(lp1437
tp1438
a(L509755096L
L3785322319L
(lp1439
(lp1440
Vesp_log_early_timestamp
p1441
atp1442
a(L3360570486L
L0L
(lp1443
(lp1444
tp1445
a(L3975559988L
L0L
(lp1446
(lp1447
tp1448
a(L748565485L
L0L
(lp1449
(lp1450
tp1451
a(L3028481L
L0L
(lp1452
(lp1453
tp1454
a(L2520223585L
L0L
(lp1455
(lp1456
tp1457
a(L755155573L
L3785322319L
(lp1458
(lp1459
Vrtc_clk_8m_enable
p1460
atp1461
a(L3631005548L
L0L
(lp1462
(lp1463
tp1464
a(L2230358364L
L0L
(lp1465
(lp1466
tp1467
a(L3352263364L
L0L
(lp1468
(lp1469
tp1470
atp1471
sI1074239080
(Vset_actual_ota_seq
p1472
(lp1473
(L2590207476L
L1832448559L
(lp1474
(lp1475
Vbootloader_common_ota_select_crc
p1476
aVefuse_hal_flash_encryption_enabled
p1477
aVbootloader_flash_erase_sector
p1478
atp1479
a(L3292941333L
L3785322319L
(lp1480
(lp1481
Vbootloader_flash_write
p1482
atp1483
a(L3725205052L
L3785322319L
(lp1484
(lp1485
Vesp_log_early_timestamp
p1486
atp1487
a(L3876573963L
L3785322319L
(lp1488
(lp1489
Vesp_log_early_timestamp
p1490
atp1491
atp1492
sI1074242932
(Vesp_partition_table_verify
p1493
(lp1494
(L1518656766L
L0L
(lp1495
(lp1496
tp1497
a(L3068845803L
L0L
(lp1498
(lp1499
tp1500
a(L4287435191L
L0L
(lp1501
(lp1502
tp1503
a(L2910371777L
L0L
(lp1504
(lp1505
tp1506
a(L2810785767L
L0L
(lp1507
(lp1508
tp1509
a(L3360570486L
L0L
(lp1510
(lp1511
tp1512
a(L2334946637L
L0L
(lp1513
(lp1514
tp1515
a(L2478753082L
L0L
(lp1516
(lp1517
tp1518
a(L3020204L
L0L
(lp1519
(lp1520
tp1521
a(L2605244389L
L3785322319L
(lp1522
(lp1523
Vesp_log_early_timestamp
p1524
atp1525
a(L2415344191L
L3785322319L
(lp1526
(lp1527
Vesp_log_early_timestamp
p1528
atp1529
a(L3435281203L
L0L
(lp1530
(lp1531
tp1532
a(L2902417580L
L0L
(lp1533
(lp1534
tp1535
a(L3020204L
L0L
(lp1536
(lp1537
tp1538
a(L3132082162L
L3785322319L
(lp1539
(lp1540
Vesp_log_early_timestamp
p1541
atp1542
a(L1367516498L
L0L
(lp1543
(lp1544
tp1545
a(L2548687357L
L0L
(lp1546
(lp1547
tp1548
a(L2902417580L
L0L
(lp1549
(lp1550
tp1551
a(L2605266740L
L3785322319L
(lp1552
(lp1553
Vesp_log_early_timestamp
p1554
atp1555
a(L1613213999L
L0L
(lp1556
(lp1557
tp1558
a(L1167861556L
L0L
(lp1559
(lp1560
tp1561
a(L3260980605L
L0L
(lp1562
(lp1563
tp1564
a(L2910371777L
L0L
(lp1565
(lp1566
tp1567
a(L1235012932L
L0L
(lp1568
(lp1569
tp1570
a(L4031225708L
L3785322319L
(lp1571
(lp1572
Vesp_log_early_timestamp
p1573
atp1574
atp1575
sI1074245744
(Vwdt_hal_set_flashboot_en
p1576
(lp1577
(L2375320464L
L0L
(lp1578
(lp1579
tp1580
a(L2716561907L
L0L
(lp1581
(lp1582
tp1583
a(L3360570486L
L0L
(lp1584
(lp1585
tp1586
a(L558019092L
L0L
(lp1587
(lp1588
tp1589
atp1590
sI1074236796
(Vefuse_hal_flash_encryption_enabled
p1591
(lp1592
(L2780109918L
L0L
(lp1593
(lp1594
tp1595
a(L2910371777L
L0L
(lp1596
(lp1597
tp1598
a(L3360570486L
L0L
(lp1599
(lp1600
tp1601
a(L3016870L
L0L
(lp1602
(lp1603
tp1604
a(L3745038218L
L0L
(lp1605
(lp1606
tp1607
a(L957607403L
L0L
(lp1608
(lp1609
tp1610
atp1611
sI1074239612
(Vbootloader_utility_get_selected_boot_partition
p1612
(lp1613
(L2184143128L
L0L
(lp1614
(lp1615
tp1616
a(L3648837801L
L0L
(lp1617
(lp1618
tp1619
a(L3739057596L
L3785322319L
(lp1620
(lp1621
Vesp_log_early_timestamp
p1622
atp1623
a(L4026981588L
L0L
(lp1624
(lp1625
tp1626
a(L3360570486L
L0L
(lp1627
(lp1628
tp1629
a(L1375577398L
L3785322319L
(lp1630
(lp1631
Vbootloader_mmap
p1632
atp1633
a(L3668558090L
L3785322319L
(lp1634
(lp1635
Vesp_log_early_timestamp
p1636
atp1637
a(L3744659248L
L1880226080L
(lp1638
(lp1639
Vbootloader_munmap
p1640
aVbootloader_common_ota_select_invalid
p1641
atp1642
a(L1103573946L
L0L
(lp1643
(lp1644
tp1645
a(L1876835593L
L3785322319L
(lp1646
(lp1647
Vbootloader_common_get_active_otadata
p1648
atp1649
a(L106L
L0L
(lp1650
(lp1651
tp1652
a(L569346373L
L0L
(lp1653
(lp1654
tp1655
a(L788494392L
L3785322319L
(lp1656
(lp1657
Vbootloader_common_ota_select_invalid
p1658
atp1659
a(L2675958250L
L0L
(lp1660
(lp1661
tp1662
a(L4156538522L
L3785322319L
(lp1663
(lp1664
Vesp_log_early_timestamp
p1665
atp1666
a(L3946700466L
L3785322319L
(lp1667
(lp1668
Vesp_log_early_timestamp
p1669
atp1670
a(L505081345L
L0L
(lp1671
(lp1672
tp1673
a(L919052234L
L3785322319L
(lp1674
(lp1675
Vbootloader_common_ota_select_crc
p1676
atp1677
a(L2287680455L
L0L
(lp1678
(lp1679
tp1680
a(L3542558037L
L3785322319L
(lp1681
(lp1682
Vbootloader_common_ota_select_crc
p1683
atp1684
a(L1299866312L
L0L
(lp1685
(lp1686
tp1687
a(L3205436778L
L0L
(lp1688
(lp1689
tp1690
a(L3195943282L
L3785322319L
(lp1691
(lp1692
Vesp_log_early_timestamp
p1693
atp1694
a(L1367516498L
L0L
(lp1695
(lp1696
tp1697
a(L4142618861L
L3785322319L
(lp1698
(lp1699
Vesp_log_early_timestamp
p1700
atp1701
atp1702
sI1074237048
(Vbootloader_common_ota_select_valid
p1703
(lp1704
(L1563399710L
L3785322319L
(lp1705
(lp1706
Vbootloader_common_ota_select_invalid
p1707
atp1708
a(L3814720849L
L3785322319L
(lp1709
(lp1710
Vbootloader_common_ota_select_crc
p1711
atp1712
a(L3360570486L
L0L
(lp1713
(lp1714
tp1715
atp1716
sI1074235256
(Vbootloader_execute_flash_command
p1717
(lp1718
(L2481595632L
L3785322319L
(lp1719
(lp1720
Vbootloader_flash_execute_command_common
p1721
atp1722
atp1723
sI1074246520
(Vrtc_clk_slow_freq_get
p1724
(lp1725
(L753025842L
L0L
(lp1726
(lp1727
tp1728
atp1729
sI1074246276
(Vrtc_clk_8m_enable
p1730
(lp1731
(L1885459595L
L0L
(lp1732
(lp1733
tp1734
a(L2239905661L
L0L
(lp1735
(lp1736
tp1737
a(L2151320156L
L0L
(lp1738
(lp1739
tp1740
a(L1391734358L
L0L
(lp1741
(lp1742
tp1743
a(L3360570486L
L0L
(lp1744
(lp1745
tp1746
a(L1318267208L
L0L
(lp1747
(lp1748
tp1749
a(L302908596L
L0L
(lp1750
(lp1751
tp1752
atp1753
sI1074241156
(Vverify_load_addresses
p1754
(lp1755
(L2763563698L
L0L
(lp1756
(lp1757
tp1758
a(L106L
L0L
(lp1759
(lp1760
tp1761
a(L97642L
L0L
(lp1762
(lp1763
tp1764
a(L2952239952L
L3785322319L
(lp1765
(lp1766
V__assert_func
p1767
atp1768
a(L1902503151L
L0L
(lp1769
(lp1770
tp1771
a(L106L
L0L
(lp1772
(lp1773
tp1774
a(L3433004918L
L0L
(lp1775
(lp1776
tp1777
a(L106L
L0L
(lp1778
(lp1779
tp1780
a(L2295851402L
L3785322319L
(lp1781
(lp1782
Vbootloader_util_regions_overlap
p1783
atp1784
a(L3129832310L
L3785322319L
(lp1785
(lp1786
Vbootloader_util_regions_overlap
p1787
atp1788
a(L3028481L
L0L
(lp1789
(lp1790
tp1791
a(L4008903006L
L3785322319L
(lp1792
(lp1793
Vbootloader_util_regions_overlap
p1794
atp1795
a(L810308952L
L0L
(lp1796
(lp1797
tp1798
a(L1770664004L
L0L
(lp1799
(lp1800
tp1801
a(L151109921L
L0L
(lp1802
(lp1803
tp1804
a(L2015090525L
L0L
(lp1805
(lp1806
tp1807
a(L642339957L
L0L
(lp1808
(lp1809
tp1810
a(L677569396L
L3785322319L
(lp1811
(lp1812
Vverify_load_addresses
p1813
atp1814
a(L1351513776L
L0L
(lp1815
(lp1816
tp1817
a(L1306803971L
L0L
(lp1818
(lp1819
tp1820
a(L3230279966L
L0L
(lp1821
(lp1822
tp1823
a(L3473449071L
L3785322319L
(lp1824
(lp1825
Vbootloader_util_regions_overlap
p1826
atp1827
a(L3028481L
L0L
(lp1828
(lp1829
tp1830
a(L3585917462L
L3785322319L
(lp1831
(lp1832
Vbootloader_util_regions_overlap
p1833
atp1834
a(L2743136312L
L0L
(lp1835
(lp1836
tp1837
a(L1693381962L
L0L
(lp1838
(lp1839
tp1840
a(L903501041L
L0L
(lp1841
(lp1842
tp1843
a(L1327490774L
L0L
(lp1844
(lp1845
tp1846
a(L307916970L
L0L
(lp1847
(lp1848
tp1849
a(L697239146L
L0L
(lp1850
(lp1851
tp1852
a(L106L
L0L
(lp1853
(lp1854
tp1855
a(L955484020L
L0L
(lp1856
(lp1857
tp1858
a(L307916753L
L0L
(lp1859
(lp1860
tp1861
a(L490080443L
L0L
(lp1862
(lp1863
tp1864
a(L106L
L0L
(lp1865
(lp1866
tp1867
a(L2209771054L
L3785322319L
(lp1868
(lp1869
Vesp_log_early_timestamp
p1870
atp1871
a(L955485353L
L0L
(lp1872
(lp1873
tp1874
a(L1303560427L
L0L
(lp1875
(lp1876
tp1877
atp1878
sI1074244736
(Vwdt_hal_init
p1879
(lp1880
(L660692310L
L0L
(lp1881
(lp1882
tp1883
a(L372829736L
L0L
(lp1884
(lp1885
tp1886
a(L2805933841L
L0L
(lp1887
(lp1888
tp1889
a(L1800055515L
L0L
(lp1890
(lp1891
tp1892
a(L1642742850L
L0L
(lp1893
(lp1894
tp1895
a(L3360570486L
L0L
(lp1896
(lp1897
tp1898
a(L4288677124L
L0L
(lp1899
(lp1900
tp1901
atp1902
sI1074240908
(Vprocess_image_header
p1903
(lp1904
(L634255103L
L3785322319L
(lp1905
(lp1906
Vbootloader_flash_read
p1907
atp1908
a(L3020204L
L0L
(lp1909
(lp1910
tp1911
a(L1583805461L
L0L
(lp1912
(lp1913
tp1914
a(L1727394037L
L0L
(lp1915
(lp1916
tp1917
a(L1161397362L
L3785322319L
(lp1918
(lp1919
Vbootloader_sha256_start
p1920
atp1921
a(L1948257695L
L3785322319L
(lp1922
(lp1923
Vbootloader_sha256_data
p1924
atp1925
a(L1095449651L
L0L
(lp1926
(lp1927
tp1928
a(L3020204L
L0L
(lp1929
(lp1930
tp1931
a(L702739623L
L0L
(lp1932
(lp1933
tp1934
a(L3360570486L
L0L
(lp1935
(lp1936
tp1937
a(L1740884593L
L3785322319L
(lp1938
(lp1939
Vesp_log_early_timestamp
p1940
atp1941
a(L3718883008L
L3785322319L
(lp1942
(lp1943
Vbootloader_common_check_chip_validity
p1944
atp1945
a(L3677035427L
L0L
(lp1946
(lp1947
tp1948
a(L3028481L
L0L
(lp1949
(lp1950
tp1951
a(L2166811440L
L3785322319L
(lp1952
(lp1953
Vesp_log_early_timestamp
p1954
atp1955
a(L2250109166L
L0L
(lp1956
(lp1957
tp1958
a(L1235012870L
L0L
(lp1959
(lp1960
tp1961
a(L3063569071L
L0L
(lp1962
(lp1963
tp1964
atp1965
sI1074269828
(Vrtc_clk_xtal_freq_estimate
p1966
(lp1967
(L2516060585L
L1880226080L
(lp1968
(lp1969
Vrtc_clk_8m_enabled
p1970
aVrtc_clk_8md256_enabled
p1971
atp1972
a(L967485502L
L3785322319L
(lp1973
(lp1974
Vrtc_clk_8m_enable
p1975
atp1976
a(L80770077L
L3785322319L
(lp1977
(lp1978
Vrtc_clk_cal_ratio
p1979
atp1980
a(L93674324L
L0L
(lp1981
(lp1982
tp1983
a(L3910042627L
L0L
(lp1984
(lp1985
tp1986
a(L1299866334L
L0L
(lp1987
(lp1988
tp1989
a(L3360570486L
L0L
(lp1990
(lp1991
tp1992
a(L3936819466L
L0L
(lp1993
(lp1994
tp1995
a(L3982077265L
L0L
(lp1996
(lp1997
tp1998
a(L1641150486L
L0L
(lp1999
(lp2000
tp2001
a(L118857968L
L3785322319L
(lp2002
(lp2003
Vesp_log_early_timestamp
p2004
atp2005
a(L668377196L
L3785322319L
(lp2006
(lp2007
Vesp_log_early_timestamp
p2008
atp2009
a(L2710920394L
L3785322319L
(lp2010
(lp2011
Vesp_log_early_timestamp
p2012
atp2013
atp2014
sI1074238600
(Vbootloader_clock_get_rated_freq_mhz
p2015
(lp2016
(L376617603L
L3785322319L
(lp2017
(lp2018
Vefuse_hal_get_rated_freq_mhz
p2019
atp2020
atp2021
sI1074246536
(Vrtc_clk_slow_freq_get_hz
p2022
(lp2023
(L1230843922L
L0L
(lp2024
(lp2025
tp2026
a(L2897770426L
L0L
(lp2027
(lp2028
tp2029
a(L69278021L
L0L
(lp2030
(lp2031
tp2032
a(L3360570486L
L0L
(lp2033
(lp2034
tp2035
atp2036
sI1074270616
(Vrtc_vddsdio_set_config
p2037
(lp2038
(L1232305365L
L0L
(lp2039
(lp2040
tp2041
atp2042
sI1074238612
(Vload_image
p2043
(lp2044
(L3679617832L
L1832448559L
(lp2045
(lp2046
Vesp_log_early_timestamp
p2047
aVbootloader_random_disable
p2048
aVbootloader_ana_clock_glitch_reset_config
p2049
atp2050
a(L2118498116L
L0L
(lp2051
(lp2052
tp2053
a(L106L
L0L
(lp2054
(lp2055
tp2056
a(L4186884272L
L0L
(lp2057
(lp2058
tp2059
a(L751966648L
L0L
(lp2060
(lp2061
tp2062
a(L3268103L
L0L
(lp2063
(lp2064
tp2065
a(L741069426L
L3785322319L
(lp2066
(lp2067
Vbootloader_console_deinit
p2068
atp2069
a(L2307067884L
L0L
(lp2070
(lp2071
tp2072
a(L3020204L
L0L
(lp2073
(lp2074
tp2075
a(L2722520990L
L3785322319L
(lp2076
(lp2077
Vesp_log_early_timestamp
p2078
atp2079
a(L117980938L
L0L
(lp2080
(lp2081
tp2082
a(L1341709798L
L0L
(lp2083
(lp2084
tp2085
a(L3020204L
L0L
(lp2086
(lp2087
tp2088
a(L1017231636L
L3785322319L
(lp2089
(lp2090
Vesp_log_early_timestamp
p2091
atp2092
a(L233635238L
L0L
(lp2093
(lp2094
tp2095
a(L2488949783L
L0L
(lp2096
(lp2097
tp2098
atp2099
sI1074240660
(Vbootloader_console_deinit
p2100
(lp2101
(L2488395335L
L0L
(lp2102
(lp2103
tp2104
atp2105
sI1074242452
(Vimage_load
p2106
(lp2107
(L745499722L
L0L
(lp2108
(lp2109
tp2110
a(L1899869538L
L0L
(lp2111
(lp2112
tp2113
a(L9219888L
L0L
(lp2114
(lp2115
tp2116
a(L4207944434L
L0L
(lp2117
(lp2118
tp2119
a(L3020187L
L0L
(lp2120
(lp2121
tp2122
a(L1830143431L
L3785322319L
(lp2123
(lp2124
Vesp_log_early_timestamp
p2125
atp2126
a(L2068384292L
L0L
(lp2127
(lp2128
tp2129
a(L1968553470L
L3785322319L
(lp2130
(lp2131
Vbootloader_sha256_finish
p2132
atp2133
a(L4106693507L
L0L
(lp2134
(lp2135
tp2136
a(L3271848319L
L0L
(lp2137
(lp2138
tp2139
a(L1182930974L
L0L
(lp2140
(lp2141
tp2142
a(L3678851644L
L3785322319L
(lp2143
(lp2144
Vprocess_image_header
p2145
atp2146
a(L1341816907L
L0L
(lp2147
(lp2148
tp2149
a(L909494482L
L0L
(lp2150
(lp2151
tp2152
a(L1028073566L
L3785322319L
(lp2153
(lp2154
Vprocess_segments
p2155
atp2156
a(L3803885910L
L0L
(lp2157
(lp2158
tp2159
a(L94425498L
L3785322319L
(lp2160
(lp2161
Vesp_cpu_in_ocd_debug_mode
p2162
atp2163
a(L454195650L
L3785322319L
(lp2164
(lp2165
Vprocess_checksum
p2166
atp2167
a(L1651117269L
L3785322319L
(lp2168
(lp2169
Vprocess_appended_hash_and_sig
p2170
atp2171
a(L533710513L
L0L
(lp2172
(lp2173
tp2174
a(L505081362L
L0L
(lp2175
(lp2176
tp2177
a(L3212356251L
L3785322319L
(lp2178
(lp2179
Vesp_cpu_in_ocd_debug_mode
p2180
atp2181
a(L1315998173L
L1880226080L
(lp2182
(lp2183
Vbootloader_sha256_finish
p2184
aVbootloader_debug_buffer
p2185
atp2186
a(L3379218182L
L1880226080L
(lp2187
(lp2188
Vesp_log_early_timestamp
p2189
aVbootloader_debug_buffer
p2190
atp2191
a(L978077504L
L0L
(lp2192
(lp2193
tp2194
a(L2068384292L
L0L
(lp2195
(lp2196
tp2197
a(L858449684L
L3785322319L
(lp2198
(lp2199
Vbootloader_sha256_finish
p2200
atp2201
a(L3028481L
L0L
(lp2202
(lp2203
tp2204
a(L93674324L
L0L
(lp2205
(lp2206
tp2207
a(L1635062399L
L0L
(lp2208
(lp2209
tp2210
a(L2429164518L
L0L
(lp2211
(lp2212
tp2213
a(L3553619191L
L0L
(lp2214
(lp2215
tp2216
a(L85798113L
L0L
(lp2217
(lp2218
tp2219
a(L464010095L
L0L
(lp2220
(lp2221
tp2222
a(L835563811L
L3785322319L
(lp2223
(lp2224
Vshould_load
p2225
atp2226
a(L1358360603L
L0L
(lp2227
(lp2228
tp2229
a(L4224160879L
L0L
(lp2230
(lp2231
tp2232
a(L22884489L
L0L
(lp2233
(lp2234
tp2235
a(L741351569L
L0L
(lp2236
(lp2237
tp2238
a(L434644776L
L0L
(lp2239
(lp2240
tp2241
a(L106L
L0L
(lp2242
(lp2243
tp2244
a(L709419389L
L0L
(lp2245
(lp2246
tp2247
a(L1299866312L
L0L
(lp2248
(lp2249
tp2250
atp2251
sI1074243220
(Vesp_rom_spiflash_read_status
p2252
(lp2253
(L3562601385L
L0L
(lp2254
(lp2255
tp2256
a(L1182811815L
L0L
(lp2257
(lp2258
tp2259
a(L1128489438L
L0L
(lp2260
(lp2261
tp2262
a(L106L
L0L
(lp2263
(lp2264
tp2265
a(L3459753810L
L0L
(lp2266
(lp2267
tp2268
a(L4004659960L
L0L
(lp2269
(lp2270
tp2271
a(L2123059967L
L0L
(lp2272
(lp2273
tp2274
a(L1973734210L
L0L
(lp2275
(lp2276
tp2277
a(L2392720019L
L0L
(lp2278
(lp2279
tp2280
atp2281
sI1074247060
(Vrtc_clk_cpu_freq_mhz_to_config
p2282
(lp2283
(L2601984125L
L3785322319L
(lp2284
(lp2285
Vrtc_clk_xtal_freq_get
p2286
atp2287
a(L2089656409L
L0L
(lp2288
(lp2289
tp2290
a(L3814337874L
L0L
(lp2291
(lp2292
tp2293
a(L3126521138L
L0L
(lp2294
(lp2295
tp2296
a(L2762074623L
L0L
(lp2297
(lp2298
tp2299
a(L1541996779L
L0L
(lp2300
(lp2301
tp2302
a(L2916936348L
L0L
(lp2303
(lp2304
tp2305
a(L1555485793L
L0L
(lp2306
(lp2307
tp2308
a(L2258897023L
L0L
(lp2309
(lp2310
tp2311
a(L1947499251L
L0L
(lp2312
(lp2313
tp2314
a(L1306331021L
L0L
(lp2315
(lp2316
tp2317
atp2318
sI1074236560
(Vbootloader_common_get_chip_ver_pkg
p2319
(lp2320
(L1176319107L
L0L
(lp2321
(lp2322
tp2323
atp2324
sI1074237328
(Vbootloader_common_get_active_otadata
p2325
(lp2326
(L3317503532L
L0L
(lp2327
(lp2328
tp2329
a(L2503049265L
L1832448559L
(lp2330
(lp2331
Vbootloader_common_ota_select_valid
p2332
aVbootloader_common_ota_select_valid
p2333
aVbootloader_common_select_otadata
p2334
atp2335
a(L735741265L
L0L
(lp2336
(lp2337
tp2338
atp2339
sI1074243740
(Vesp_rom_spiflash_write
p2340
(lp2341
(L2011462523L
L0L
(lp2342
(lp2343
tp2344
a(L2258688483L
L0L
(lp2345
(lp2346
tp2347
a(L3360570486L
L0L
(lp2348
(lp2349
tp2350
a(L1590344338L
L0L
(lp2351
(lp2352
tp2353
a(L3106685987L
L0L
(lp2354
(lp2355
tp2356
a(L4249336406L
L3785322319L
(lp2357
(lp2358
Vesp_rom_spiflash_program_page_internal
p2359
atp2360
a(L1915738254L
L3785322319L
(lp2361
(lp2362
Vesp_rom_spiflash_program_page_internal
p2363
atp2364
a(L663507325L
L0L
(lp2365
(lp2366
tp2367
a(L2392967593L
L0L
(lp2368
(lp2369
tp2370
a(L564470687L
L0L
(lp2371
(lp2372
tp2373
a(L154459701L
L3785322319L
(lp2374
(lp2375
Vesp_rom_spiflash_program_page_internal
p2376
atp2377
a(L2079643754L
L0L
(lp2378
(lp2379
tp2380
atp2381
sI1074237084
(Vbootloader_common_check_chip_validity
p2382
(lp2383
(L722188971L
L0L
(lp2384
(lp2385
tp2386
a(L98526595L
L3785322319L
(lp2387
(lp2388
Vesp_log_early_timestamp
p2389
atp2390
a(L522103407L
L3785322319L
(lp2391
(lp2392
Vefuse_hal_chip_revision
p2393
atp2394
a(L106L
L0L
(lp2395
(lp2396
tp2397
a(L3681102491L
L0L
(lp2398
(lp2399
tp2400
a(L2449956225L
L3785322319L
(lp2401
(lp2402
Vesp_log_early_timestamp
p2403
atp2404
a(L3028464L
L0L
(lp2405
(lp2406
tp2407
a(L4118102069L
L0L
(lp2408
(lp2409
tp2410
a(L3021749L
L0L
(lp2411
(lp2412
tp2413
a(L1478707893L
L3785322319L
(lp2414
(lp2415
Vesp_log_early_timestamp
p2416
atp2417
a(L1299867982L
L0L
(lp2418
(lp2419
tp2420
a(L3360570486L
L0L
(lp2421
(lp2422
tp2423
atp2424
sI1074235288
(Vbootloader_flash_unlock
p2425
(lp2426
(L142706334L
L3785322319L
(lp2427
(lp2428
Vesp_rom_spiflash_wait_idle
p2429
atp2430
a(L4024621237L
L0L
(lp2431
(lp2432
tp2433
a(L4292483033L
L3785322319L
(lp2434
(lp2435
Vbootloader_execute_flash_command
p2436
atp2437
a(L106L
L0L
(lp2438
(lp2439
tp2440
a(L1303560644L
L0L
(lp2441
(lp2442
tp2443
a(L1419965066L
L0L
(lp2444
(lp2445
tp2446
a(L106L
L0L
(lp2447
(lp2448
tp2449
a(L1633120054L
L0L
(lp2450
(lp2451
tp2452
a(L106L
L0L
(lp2453
(lp2454
tp2455
a(L2974484771L
L0L
(lp2456
(lp2457
tp2458
a(L106L
L0L
(lp2459
(lp2460
tp2461
a(L1481761147L
L1880226080L
(lp2462
(lp2463
Vbootloader_execute_flash_command
p2464
aVbootloader_execute_flash_command
p2465
atp2466
a(L2258807654L
L0L
(lp2467
(lp2468
tp2469
a(L489806350L
L1832448559L
(lp2470
(lp2471
Vesp_rom_spiflash_wait_idle
p2472
aVbootloader_execute_flash_command
p2473
aVbootloader_execute_flash_command
p2474
atp2475
a(L879744646L
L1832448559L
(lp2476
(lp2477
Vesp_rom_spiflash_wait_idle
p2478
aVbootloader_execute_flash_command
p2479
aVbootloader_execute_flash_command
p2480
atp2481
a(L1840772931L
L1880226080L
(lp2482
(lp2483
Vesp_rom_spiflash_wait_idle
p2484
aVbootloader_execute_flash_command
p2485
atp2486
a(L2993202392L
L0L
(lp2487
(lp2488
tp2489
a(L508800419L
L1880226080L
(lp2490
(lp2491
Vbootloader_execute_flash_command
p2492
aVbootloader_execute_flash_command
p2493
atp2494
a(L1303560369L
L0L
(lp2495
(lp2496
tp2497
a(L1596544945L
L0L
(lp2498
(lp2499
tp2500
a(L97689L
L0L
(lp2501
(lp2502
tp2503
a(L106L
L0L
(lp2504
(lp2505
tp2506
atp2507
sI1074247320
(Vrtc_clk_apb_freq_update
p2508
(lp2509
(L1042502744L
L0L
(lp2510
(lp2511
tp2512
atp2513
sI1074236836
(Vefuse_hal_get_major_chip_version
p2514
(lp2515
(L208362539L
L0L
(lp2516
(lp2517
tp2518
a(L894792960L
L0L
(lp2519
(lp2520
tp2521
a(L724635033L
L0L
(lp2522
(lp2523
tp2524
a(L3360570486L
L0L
(lp2525
(lp2526
tp2527
atp2528
sI1074234788
(Vbootloader_flash_execute_command_common
p2529
(lp2530
(L2935702355L
L0L
(lp2531
(lp2532
tp2533
a(L120555589L
L0L
(lp2534
(lp2535
tp2536
a(L2890397610L
L3785322319L
(lp2537
(lp2538
V__assert_func
p2539
atp2540
a(L3021749L
L0L
(lp2541
(lp2542
tp2543
a(L153183703L
L0L
(lp2544
(lp2545
tp2546
a(L901582467L
L0L
(lp2547
(lp2548
tp2549
a(L695082870L
L0L
(lp2550
(lp2551
tp2552
a(L4024113366L
L0L
(lp2553
(lp2554
tp2555
a(L3998568023L
L0L
(lp2556
(lp2557
tp2558
a(L163389185L
L0L
(lp2559
(lp2560
tp2561
a(L2336699050L
L0L
(lp2562
(lp2563
tp2564
a(L4038246755L
L0L
(lp2565
(lp2566
tp2567
a(L1065820671L
L0L
(lp2568
(lp2569
tp2570
a(L3041777204L
L0L
(lp2571
(lp2572
tp2573
a(L3333696662L
L0L
(lp2574
(lp2575
tp2576
a(L963425213L
L0L
(lp2577
(lp2578
tp2579
a(L2106665914L
L0L
(lp2580
(lp2581
tp2582
a(L3360570486L
L0L
(lp2583
(lp2584
tp2585
atp2586
sI1074240676
(V__assert_func
p2587
(lp2588
(L4269287305L
L0L
(lp2589
(lp2590
tp2591
a(L106L
L0L
(lp2592
(lp2593
tp2594
atp2595
sI1074244000
(Vesp_rom_spiflash_read
p2596
(lp2597
(L851338500L
L0L
(lp2598
(lp2599
tp2600
a(L4163253500L
L0L
(lp2601
(lp2602
tp2603
a(L2860271684L
L0L
(lp2604
(lp2605
tp2606
a(L3017366L
L0L
(lp2607
(lp2608
tp2609
a(L106L
L0L
(lp2610
(lp2611
tp2612
a(L2778783283L
L0L
(lp2613
(lp2614
tp2615
a(L106L
L0L
(lp2616
(lp2617
tp2618
a(L3323897344L
L0L
(lp2619
(lp2620
tp2621
a(L1145544379L
L0L
(lp2622
(lp2623
tp2624
a(L187882844L
L0L
(lp2625
(lp2626
tp2627
a(L4261071817L
L0L
(lp2628
(lp2629
tp2630
a(L106L
L0L
(lp2631
(lp2632
tp2633
a(L363300621L
L3785322319L
(lp2634
(lp2635
Vesp_rom_spiflash_wait_idle
p2636
atp2637
a(L3021737L
L0L
(lp2638
(lp2639
tp2640
a(L106L
L0L
(lp2641
(lp2642
tp2643
a(L1868280504L
L0L
(lp2644
(lp2645
tp2646
a(L106L
L0L
(lp2647
(lp2648
tp2649
a(L3736481505L
L0L
(lp2650
(lp2651
tp2652
a(L1221163038L
L0L
(lp2653
(lp2654
tp2655
a(L4122060822L
L0L
(lp2656
(lp2657
tp2658
a(L3560363198L
L0L
(lp2659
(lp2660
tp2661
a(L2989032L
L0L
(lp2662
(lp2663
tp2664
a(L3819849625L
L0L
(lp2665
(lp2666
tp2667
a(L1195459888L
L0L
(lp2668
(lp2669
tp2670
a(L112815549L
L0L
(lp2671
(lp2672
tp2673
a(L3901820587L
L0L
(lp2674
(lp2675
tp2676
a(L451934354L
L0L
(lp2677
(lp2678
tp2679
a(L1896415737L
L0L
(lp2680
(lp2681
tp2682
a(L1522202953L
L0L
(lp2683
(lp2684
tp2685
a(L2729956946L
L0L
(lp2686
(lp2687
tp2688
a(L4009799660L
L0L
(lp2689
(lp2690
tp2691
a(L2267384310L
L0L
(lp2692
(lp2693
tp2694
a(L2696140277L
L0L
(lp2695
(lp2696
tp2697
a(L2687789892L
L0L
(lp2698
(lp2699
tp2700
a(L1405253496L
L0L
(lp2701
(lp2702
tp2703
a(L2097294253L
L0L
(lp2704
(lp2705
tp2706
a(L97689L
L0L
(lp2707
(lp2708
tp2709
a(L2258897019L
L0L
(lp2710
(lp2711
tp2712
a(L4014024819L
L0L
(lp2713
(lp2714
tp2715
a(L3621567083L
L0L
(lp2716
(lp2717
tp2718
atp2719
sI1074239916
(Vbootloader_reset
p2720
(lp2721
(L1822360791L
L3785322319L
(lp2722
(lp2723
Vbootloader_console_deinit
p2724
atp2725
a(L106L
L0L
(lp2726
(lp2727
tp2728
atp2729
sI1074245812
(Vwdt_hal_write_protect_enable
p2730
(lp2731
(L387778158L
L0L
(lp2732
(lp2733
tp2734
a(L4195472003L
L0L
(lp2735
(lp2736
tp2737
a(L3360570486L
L0L
(lp2738
(lp2739
tp2740
a(L802523425L
L0L
(lp2741
(lp2742
tp2743
atp2744
sI1074247348
(Vrtc_clk_cpu_freq_to_xtal
p2745
(lp2746
(L368731655L
L3785322319L
(lp2747
(lp2748
Vrtc_clk_apb_freq_update
p2749
atp2750
a(L702736306L
L0L
(lp2751
(lp2752
tp2753
a(L277445412L
L0L
(lp2754
(lp2755
tp2756
a(L309988740L
L0L
(lp2757
(lp2758
tp2759
atp2760
sI1074236592
(Vesp_cpu_in_ocd_debug_mode
p2761
(lp2762
(L2131426160L
L0L
(lp2763
(lp2764
tp2765
atp2766
sI1074246576
(Vrtc_clk_fast_freq_set
p2767
(lp2768
(L4187032856L
L0L
(lp2769
(lp2770
tp2771
atp2772
sI1074235580
(Vbootloader_flash_read_sfdp
p2773
(lp2774
(L711701400L
L0L
(lp2775
(lp2776
tp2777
a(L3282613751L
L3785322319L
(lp2778
(lp2779
V__assert_func
p2780
atp2781
a(L3704332455L
L3785322319L
(lp2782
(lp2783
Vbootloader_flash_execute_command_common
p2784
atp2785
atp2786
sI1074240700
(Vabort
p2787
(lp2788
(L73370910L
L0L
(lp2789
(lp2790
tp2791
a(L409471316L
L0L
(lp2792
(lp2793
tp2794
a(L106L
L0L
(lp2795
(lp2796
tp2797
atp2798
sI1074235832
(Vbootloader_flash_cs_timing_config
p2799
(lp2800
(L3796536297L
L0L
(lp2801
(lp2802
tp2803
atp2804
sI1074237368
(Vbootloader_common_ota_select_invalid
p2805
(lp2806
(L4027567199L
L0L
(lp2807
(lp2808
tp2809
a(L3397985842L
L0L
(lp2810
(lp2811
tp2812
a(L2258867228L
L0L
(lp2813
(lp2814
tp2815
a(L3785235668L
L0L
(lp2816
(lp2817
tp2818
atp2819
sI1074236608
(Vesp_rom_uart_tx_wait_idle
p2820
(lp2821
(L708706374L
L0L
(lp2822
(lp2823
tp2824
a(L1301079727L
L0L
(lp2825
(lp2826
tp2827
a(L3597746521L
L0L
(lp2828
(lp2829
tp2830
a(L3694491048L
L0L
(lp2831
(lp2832
tp2833
a(L3055926844L
L0L
(lp2834
(lp2835
tp2836
a(L3360570486L
L0L
(lp2837
(lp2838
tp2839
atp2840
sI1074269376
(Vbootloader_flash_update_id
p2841
(lp2842
(L3081511723L
L3785322319L
(lp2843
(lp2844
Vbootloader_read_flash_id
p2845
atp2846
atp2847
sI1074239948
(Vbootloader_utility_load_boot_image
p2848
(lp2849
(L1561528311L
L0L
(lp2850
(lp2851
tp2852
a(L2177418995L
L3785322319L
(lp2853
(lp2854
Vtry_load_partition
p2855
atp2856
a(L2749106626L
L3785322319L
(lp2857
(lp2858
Vload_image
p2859
atp2860
a(L157669688L
L3785322319L
(lp2861
(lp2862
Vesp_log_early_timestamp
p2863
atp2864
a(L3827921190L
L3785322319L
(lp2865
(lp2866
Vbootloader_reset
p2867
atp2868
a(L2542673780L
L3785322319L
(lp2869
(lp2870
Vindex_to_partition
p2871
atp2872
a(L1204373741L
L3785322319L
(lp2873
(lp2874
Vtry_load_partition
p2875
atp2876
a(L3020187L
L0L
(lp2877
(lp2878
tp2879
a(L3111076057L
L0L
(lp2880
(lp2881
tp2882
a(L2070875117L
L3785322319L
(lp2883
(lp2884
Vset_actual_ota_seq
p2885
atp2886
a(L1868897605L
L3785322319L
(lp2887
(lp2888
Vlog_invalid_app_partition
p2889
atp2890
a(L831650730L
L0L
(lp2891
(lp2892
tp2893
a(L3021737L
L0L
(lp2894
(lp2895
tp2896
a(L4083823862L
L0L
(lp2897
(lp2898
tp2899
a(L3818328201L
L3785322319L
(lp2900
(lp2901
Vtry_load_partition
p2902
atp2903
a(L1643420822L
L3785322319L
(lp2904
(lp2905
Vesp_log_early_timestamp
p2906
atp2907
a(L2185156151L
L3785322319L
(lp2908
(lp2909
Vindex_to_partition
p2910
atp2911
a(L1074657773L
L3785322319L
(lp2912
(lp2913
Vtry_load_partition
p2914
atp2915
a(L3027024L
L0L
(lp2916
(lp2917
tp2918
a(L2127949398L
L0L
(lp2919
(lp2920
tp2921
a(L3061261803L
L0L
(lp2922
(lp2923
tp2924
a(L3582858798L
L3785322319L
(lp2925
(lp2926
Vlog_invalid_app_partition
p2927
atp2928
a(L4140564132L
L3785322319L
(lp2929
(lp2930
Vesp_log_early_timestamp
p2931
atp2932
atp2933
sI1074245324
(Vwdt_hal_config_stage
p2934
(lp2935
(L331558507L
L0L
(lp2936
(lp2937
tp2938
a(L4279082939L
L0L
(lp2939
(lp2940
tp2941
a(L3020204L
L0L
(lp2942
(lp2943
tp2944
a(L3020187L
L0L
(lp2945
(lp2946
tp2947
a(L3020187L
L0L
(lp2948
(lp2949
tp2950
a(L94425498L
L3785322319L
(lp2951
(lp2952
Vabort
p2953
atp2954
a(L4285688296L
L0L
(lp2955
(lp2956
tp2957
a(L3360570486L
L0L
(lp2958
(lp2959
tp2960
a(L2823160664L
L0L
(lp2961
(lp2962
tp2963
a(L3334463868L
L0L
(lp2964
(lp2965
tp2966
a(L900714323L
L0L
(lp2967
(lp2968
tp2969
a(L3020187L
L0L
(lp2970
(lp2971
tp2972
a(L2902417580L
L0L
(lp2973
(lp2974
tp2975
a(L3020187L
L0L
(lp2976
(lp2977
tp2978
a(L3028464L
L0L
(lp2979
(lp2980
tp2981
a(L2800435414L
L0L
(lp2982
(lp2983
tp2984
a(L3812350417L
L0L
(lp2985
(lp2986
tp2987
a(L3224036679L
L0L
(lp2988
(lp2989
tp2990
a(L572249999L
L0L
(lp2991
(lp2992
tp2993
atp2994
sI1074241736
(Vprocess_segments
p2995
(lp2996
(L3883698409L
L0L
(lp2997
(lp2998
tp2999
a(L2495454333L
L0L
(lp3000
(lp3001
tp3002
a(L4578542L
L0L
(lp3003
(lp3004
tp3005
a(L106L
L0L
(lp3006
(lp3007
tp3008
a(L1315312493L
L0L
(lp3009
(lp3010
tp3011
a(L2450771951L
L3785322319L
(lp3012
(lp3013
Vesp_log_early_timestamp
p3014
atp3015
a(L1440180646L
L3785322319L
(lp3016
(lp3017
Vbootloader_flash_read
p3018
atp3019
a(L3234015318L
L3785322319L
(lp3020
(lp3021
Vesp_log_early_timestamp
p3022
atp3023
a(L3360570486L
L0L
(lp3024
(lp3025
tp3026
a(L234193771L
L0L
(lp3027
(lp3028
tp3029
a(L1635713494L
L3785322319L
(lp3030
(lp3031
Vbootloader_sha256_data
p3032
atp3033
a(L926711887L
L0L
(lp3034
(lp3035
tp3036
a(L790360741L
L0L
(lp3037
(lp3038
tp3039
a(L3997307212L
L0L
(lp3040
(lp3041
tp3042
a(L3802068284L
L0L
(lp3043
(lp3044
tp3045
a(L2942462881L
L0L
(lp3046
(lp3047
tp3048
a(L2258867228L
L0L
(lp3049
(lp3050
tp3051
a(L1355332303L
L0L
(lp3052
(lp3053
tp3054
a(L2965680995L
L0L
(lp3055
(lp3056
tp3057
a(L1849436849L
L0L
(lp3058
(lp3059
tp3060
a(L1935324052L
L3785322319L
(lp3061
(lp3062
Vesp_log_early_timestamp
p3063
atp3064
a(L3895303701L
L0L
(lp3065
(lp3066
tp3067
a(L310091939L
L0L
(lp3068
(lp3069
tp3070
a(L263715651L
L3785322319L
(lp3071
(lp3072
Vesp_log_early_timestamp
p3073
atp3074
a(L3982404358L
L3785322319L
(lp3075
(lp3076
Vverify_load_addresses
p3077
atp3078
a(L106L
L0L
(lp3079
(lp3080
tp3081
a(L2300166925L
L0L
(lp3082
(lp3083
tp3084
a(L2684012095L
L0L
(lp3085
(lp3086
tp3087
a(L1905937838L
L3785322319L
(lp3088
(lp3089
Vbootloader_mmap
p3090
atp3091
a(L691579970L
L3785322319L
(lp3092
(lp3093
Vesp_log_early_timestamp
p3094
atp3095
a(L1371162345L
L0L
(lp3096
(lp3097
tp3098
a(L147926536L
L0L
(lp3099
(lp3100
tp3101
a(L1534276982L
L3785322319L
(lp3102
(lp3103
Vbootloader_munmap
p3104
atp3105
a(L3105361649L
L0L
(lp3106
(lp3107
tp3108
a(L1216016797L
L3785322319L
(lp3109
(lp3110
Vbootloader_fill_random
p3111
atp3112
a(L3570641403L
L0L
(lp3113
(lp3114
tp3115
a(L3574335487L
L0L
(lp3116
(lp3117
tp3118
a(L3450268858L
L0L
(lp3119
(lp3120
tp3121
a(L3021749L
L0L
(lp3122
(lp3123
tp3124
a(L1609678444L
L0L
(lp3125
(lp3126
tp3127
a(L1777728568L
L0L
(lp3128
(lp3129
tp3130
a(L3020204L
L0L
(lp3131
(lp3132
tp3133
a(L705790588L
L0L
(lp3134
(lp3135
tp3136
a(L2076461546L
L0L
(lp3137
(lp3138
tp3139
a(L3832868376L
L0L
(lp3140
(lp3141
tp3142
a(L1749969336L
L0L
(lp3143
(lp3144
tp3145
a(L670934548L
L0L
(lp3146
(lp3147
tp3148
a(L1903785265L
L3785322319L
(lp3149
(lp3150
Vbootloader_sha256_data
p3151
atp3152
a(L90548756L
L0L
(lp3153
(lp3154
tp3155
a(L4195963580L
L0L
(lp3156
(lp3157
tp3158
a(L2572638616L
L0L
(lp3159
(lp3160
tp3161
a(L3740179196L
L0L
(lp3162
(lp3163
tp3164
a(L233873941L
L3785322319L
(lp3165
(lp3166
Vshould_load
p3167
atp3168
a(L3070788781L
L0L
(lp3169
(lp3170
tp3171
a(L3671383264L
L3785322319L
(lp3172
(lp3173
Vesp_log_early_timestamp
p3174
atp3175
a(L3643690669L
L0L
(lp3176
(lp3177
tp3178
a(L2104869616L
L0L
(lp3179
(lp3180
tp3181
a(L2089819021L
L0L
(lp3182
(lp3183
tp3184
a(L2902417580L
L0L
(lp3185
(lp3186
tp3187
a(L2636912524L
L0L
(lp3188
(lp3189
tp3190
a(L4195318902L
L3785322319L
(lp3191
(lp3192
Vbootloader_mmap_get_free_pages
p3193
atp3194
a(L3028481L
L0L
(lp3195
(lp3196
tp3197
a(L124545238L
L0L
(lp3198
(lp3199
tp3200
atp3201
sI1074268888
(Vbootloader_init_mem
p3202
(lp3203
(L1511720305L
L3785322319L
(lp3204
(lp3205
Vesp_cpu_configure_region_protection
p3206
atp3207
atp3208
sI1074269656
(Vbootloader_enable_random
p3209
(lp3210
(L1907486877L
L1880226080L
(lp3211
(lp3212
Vesp_log_early_timestamp
p3213
aVbootloader_random_enable
p3214
atp3215
atp3216
sI1074238164
(Vbootloader_enable_wp
p3217
(lp3218
(L1117825804L
L3785322319L
(lp3219
(lp3220
Vbootloader_execute_flash_command
p3221
atp3222
atp3223
sI1074237396
(Vbootloader_common_select_otadata
p3224
(lp3225
(L2342662536L
L0L
(lp3226
(lp3227
tp3228
a(L3806783650L
L0L
(lp3229
(lp3230
tp3231
a(L1674928252L
L0L
(lp3232
(lp3233
tp3234
a(L251571983L
L0L
(lp3235
(lp3236
tp3237
a(L3360570486L
L0L
(lp3238
(lp3239
tp3240
a(L2045232488L
L0L
(lp3241
(lp3242
tp3243
a(L189726519L
L0L
(lp3244
(lp3245
tp3246
a(L3095066987L
L0L
(lp3247
(lp3248
tp3249
a(L3592023188L
L0L
(lp3250
(lp3251
tp3252
a(L1641201884L
L0L
(lp3253
(lp3254
tp3255
atp3256
sI1074239188
(Vtry_load_partition
p3257
(lp3258
(L1263750142L
L0L
(lp3259
(lp3260
tp3261
a(L2258688482L
L0L
(lp3262
(lp3263
tp3264
a(L3360570486L
L0L
(lp3265
(lp3266
tp3267
a(L530241438L
L3785322319L
(lp3268
(lp3269
Vbootloader_load_image
p3270
atp3271
a(L2684814704L
L3785322319L
(lp3272
(lp3273
Vesp_log_early_timestamp
p3274
atp3275
atp3276
sI1074246100
(Vrtc_clk_32k_enable_common
p3277
(lp3278
(L4050916132L
L0L
(lp3279
(lp3280
tp3281
atp3282
sI1074248404
(V_fini
p3283
(lp3284
(L3493042598L
L0L
(lp3285
(lp3286
tp3287
atp3288
sI1074240464
(Vbootloader_sha256_finish
p3289
(lp3290
(L4066096136L
L0L
(lp3291
(lp3292
tp3293
a(L283309760L
L0L
(lp3294
(lp3295
tp3296
a(L2504541789L
L3785322319L
(lp3297
(lp3298
V__assert_func
p3299
atp3300
a(L3020204L
L0L
(lp3301
(lp3302
tp3303
a(L1077914239L
L0L
(lp3304
(lp3305
tp3306
a(L2534656226L
L0L
(lp3307
(lp3308
tp3309
a(L3404488268L
L3785322319L
(lp3310
(lp3311
Vbootloader_sha256_data
p3312
atp3313
a(L1076837905L
L0L
(lp3314
(lp3315
tp3316
a(L1830200745L
L3785322319L
(lp3317
(lp3318
Vbootloader_sha256_data
p3319
atp3320
a(L1563431552L
L0L
(lp3321
(lp3322
tp3323
a(L657425439L
L0L
(lp3324
(lp3325
tp3326
a(L4023907455L
L0L
(lp3327
(lp3328
tp3329
a(L657425439L
L0L
(lp3330
(lp3331
tp3332
a(L894366391L
L0L
(lp3333
(lp3334
tp3335
a(L2975660674L
L0L
(lp3336
(lp3337
tp3338
a(L3347778L
L0L
(lp3339
(lp3340
tp3341
a(L3360570486L
L0L
(lp3342
(lp3343
tp3344
atp3345
sI1074240208
(Vindex_to_partition
p3346
(lp3347
(L4066096119L
L0L
(lp3348
(lp3349
tp3350
a(L1739185955L
L0L
(lp3351
(lp3352
tp3353
a(L2171552758L
L0L
(lp3354
(lp3355
tp3356
a(L2808906342L
L0L
(lp3357
(lp3358
tp3359
a(L2101481936L
L0L
(lp3360
(lp3361
tp3362
a(L3698927993L
L0L
(lp3363
(lp3364
tp3365
a(L2808826781L
L0L
(lp3366
(lp3367
tp3368
a(L3003398163L
L0L
(lp3369
(lp3370
tp3371
a(L1104460200L
L0L
(lp3372
(lp3373
tp3374
a(L1087646172L
L0L
(lp3375
(lp3376
tp3377
atp3378
sI1074245840
(Vefuse_hal_get_rated_freq_mhz
p3379
(lp3380
(L1680594370L
L0L
(lp3381
(lp3382
tp3383
a(L2965302338L
L0L
(lp3384
(lp3385
tp3386
a(L3360570486L
L0L
(lp3387
(lp3388
tp3389
atp3390
sI1074269392
(Vbootloader_clear_bss_section
p3391
(lp3392
(L519648827L
L0L
(lp3393
(lp3394
tp3395
atp3396
sI1074246620
(Vrtc_clk_fast_freq_get
p3397
(lp3398
(L62035666L
L0L
(lp3399
(lp3400
tp3401
atp3402
sI1074267860
(Vbootloader_common_vddsdio_configure
p3403
(lp3404
(L1922017289L
L3785322319L
(lp3405
(lp3406
Vrtc_vddsdio_get_config
p3407
atp3408
a(L1185899578L
L3785322319L
(lp3409
(lp3410
Vrtc_vddsdio_set_config
p3411
atp3412
a(L3360570486L
L0L
(lp3413
(lp3414
tp3415
atp3416
sI1074268904
(Vbootloader_random_enable
p3417
(lp3418
(L2767707060L
L0L
(lp3419
(lp3420
tp3421
atp3422
sI1074269416
(Vbootloader_read_bootloader_header
p3423
(lp3424
(L1184423700L
L3785322319L
(lp3425
(lp3426
Vbootloader_flash_read
p3427
atp3428
a(L2541340850L
L3785322319L
(lp3429
(lp3430
Vesp_log_early_timestamp
p3431
atp3432
a(L735741265L
L0L
(lp3433
(lp3434
tp3435
atp3436
sI1074270688
(Vmpu_hal_set_region_access
p3437
(lp3438
(L3538356822L
L0L
(lp3439
(lp3440
tp3441
a(L2902417580L
L0L
(lp3442
(lp3443
tp3444
a(L3020187L
L0L
(lp3445
(lp3446
tp3447
a(L3020187L
L0L
(lp3448
(lp3449
tp3450
a(L3360570486L
L0L
(lp3451
(lp3452
tp3453
a(L2258718273L
L0L
(lp3454
(lp3455
tp3456
a(L3446648619L
L0L
(lp3457
(lp3458
tp3459
a(L3739532189L
L0L
(lp3460
(lp3461
tp3462
a(L1300789895L
L0L
(lp3463
(lp3464
tp3465
a(L3472092938L
L0L
(lp3466
(lp3467
tp3468
atp3469
sI1074247148
(Vrtc_clk_cpu_freq_get_config
p3470
(lp3471
(L118171442L
L0L
(lp3472
(lp3473
tp3474
a(L2902417580L
L0L
(lp3475
(lp3476
tp3477
a(L1777368540L
L0L
(lp3478
(lp3479
tp3480
a(L2843660677L
L1880226080L
(lp3481
(lp3482
Vesp_log_early_timestamp
p3483
aVabort
p3484
atp3485
a(L2752113302L
L3785322319L
(lp3486
(lp3487
Vrtc_clk_xtal_freq_get
p3488
atp3489
a(L584032699L
L0L
(lp3490
(lp3491
tp3492
a(L410065730L
L0L
(lp3493
(lp3494
tp3495
a(L3020187L
L0L
(lp3496
(lp3497
tp3498
a(L713819170L
L0L
(lp3499
(lp3500
tp3501
a(L106L
L0L
(lp3502
(lp3503
tp3504
a(L549042870L
L0L
(lp3505
(lp3506
tp3507
a(L187152368L
L0L
(lp3508
(lp3509
tp3510
a(L4149732163L
L0L
(lp3511
(lp3512
tp3513
atp3514
sI1074246636
(Vrtc_clk_bbpll_configure
p3515
(lp3516
(L3992218412L
L0L
(lp3517
(lp3518
tp3519
a(L106L
L0L
(lp3520
(lp3521
tp3522
a(L3470882097L
L0L
(lp3523
(lp3524
tp3525
a(L106L
L0L
(lp3526
(lp3527
tp3528
a(L83268611L
L0L
(lp3529
(lp3530
tp3531
a(L106L
L0L
(lp3532
(lp3533
tp3534
a(L82345090L
L0L
(lp3535
(lp3536
tp3537
a(L106L
L0L
(lp3538
(lp3539
tp3540
a(L2258688482L
L0L
(lp3541
(lp3542
tp3543
a(L3177466952L
L0L
(lp3544
(lp3545
tp3546
a(L4035242712L
L0L
(lp3547
(lp3548
tp3549
a(L333275248L
L0L
(lp3550
(lp3551
tp3552
a(L1299866343L
L0L
(lp3553
(lp3554
tp3555
a(L3291765465L
L0L
(lp3556
(lp3557
tp3558
a(L3241888512L
L0L
(lp3559
(lp3560
tp3561
a(L2711871504L
L0L
(lp3562
(lp3563
tp3564
a(L83268344L
L0L
(lp3565
(lp3566
tp3567
a(L82344823L
L0L
(lp3568
(lp3569
tp3570
a(L1667153377L
L0L
(lp3571
(lp3572
tp3573
a(L2258867279L
L0L
(lp3574
(lp3575
tp3576
a(L1867199810L
L0L
(lp3577
(lp3578
tp3579
a(L1551160474L
L0L
(lp3580
(lp3581
tp3582
a(L1712476653L
L0L
(lp3583
(lp3584
tp3585
a(L4011631532L
L0L
(lp3586
(lp3587
tp3588
atp3589
sI1074240748
(Vbootloader_ana_clock_glitch_reset_config
p3590
(lp3591
(L2100504542L
L0L
(lp3592
(lp3593
tp3594
atp3595
sI1074236908
(Vefuse_hal_get_minor_chip_version
p3596
(lp3597
(L484689204L
L0L
(lp3598
(lp3599
tp3600
atp3601
sI1074238184
(Vbootloader_mmap_get_free_pages
p3602
(lp3603
(L1496516875L
L0L
(lp3604
(lp3605
tp3606
atp3607
sI1074270456
(Vrtc_vddsdio_get_config
p3608
(lp3609
(L3719039174L
L0L
(lp3610
(lp3611
tp3612
a(L147025923L
L0L
(lp3613
(lp3614
tp3615
a(L318395269L
L0L
(lp3616
(lp3617
tp3618
a(L2902166580L
L0L
(lp3619
(lp3620
tp3621
a(L1606258427L
L0L
(lp3622
(lp3623
tp3624
a(L1116012092L
L0L
(lp3625
(lp3626
tp3627
a(L1719615367L
L0L
(lp3628
(lp3629
tp3630
a(L508976372L
L0L
(lp3631
(lp3632
tp3633
atp3634
sI1074241524
(Vprocess_appended_hash_and_sig
p3635
(lp3636
(L3580132405L
L0L
(lp3637
(lp3638
tp3639
a(L3028481L
L0L
(lp3640
(lp3641
tp3642
a(L1591589631L
L0L
(lp3643
(lp3644
tp3645
a(L22297358L
L0L
(lp3646
(lp3647
tp3648
a(L4191754026L
L0L
(lp3649
(lp3650
tp3651
a(L3911346680L
L3785322319L
(lp3652
(lp3653
Vesp_log_early_timestamp
p3654
atp3655
a(L894030452L
L3785322319L
(lp3656
(lp3657
Vbootloader_flash_read
p3658
atp3659
a(L3871473710L
L0L
(lp3660
(lp3661
tp3662
atp3663
sI1074240756
(Vprocess_checksum
p3664
(lp3665
(L1985325516L
L0L
(lp3666
(lp3667
tp3668
a(L2910371777L
L0L
(lp3669
(lp3670
tp3671
a(L1649277394L
L0L
(lp3672
(lp3673
tp3674
a(L2910371777L
L0L
(lp3675
(lp3676
tp3677
a(L2902417580L
L0L
(lp3678
(lp3679
tp3680
a(L1644002876L
L3785322319L
(lp3681
(lp3682
Vbootloader_sha256_data
p3683
atp3684
a(L3612796056L
L0L
(lp3685
(lp3686
tp3687
a(L1811888222L
L3785322319L
(lp3688
(lp3689
Vbootloader_flash_read
p3690
atp3691
a(L3126521138L
L0L
(lp3692
(lp3693
tp3694
a(L4224515246L
L0L
(lp3695
(lp3696
tp3697
a(L3744681334L
L3785322319L
(lp3698
(lp3699
Vesp_log_early_timestamp
p3700
atp3701
atp3702
sI1074245876
(Vrtc_clk_bbpll_disable
p3703
(lp3704
(L2818421224L
L0L
(lp3705
(lp3706
tp3707
a(L391691750L
L0L
(lp3708
(lp3709
tp3710
a(L3360570486L
L0L
(lp3711
(lp3712
tp3713
atp3714
sI1074243312
(Vesp_rom_spiflash_wait_idle
p3715
(lp3716
(L3233075670L
L0L
(lp3717
(lp3718
tp3719
a(L2023766174L
L0L
(lp3720
(lp3721
tp3722
a(L2805933651L
L0L
(lp3723
(lp3724
tp3725
a(L3086959262L
L0L
(lp3726
(lp3727
tp3728
a(L4161019926L
L3785322319L
(lp3729
(lp3730
Vesp_rom_spiflash_read_status
p3731
atp3732
atp3733
sI1074238192
(Vbootloader_fill_random
p3734
(lp3735
(L3026789978L
L0L
(lp3736
(lp3737
tp3738
a(L1056102925L
L0L
(lp3739
(lp3740
tp3741
a(L97689L
L0L
(lp3742
(lp3743
tp3744
a(L3360570486L
L0L
(lp3745
(lp3746
tp3747
a(L324866589L
L3785322319L
(lp3748
(lp3749
V__assert_func
p3750
atp3751
a(L2008660626L
L0L
(lp3752
(lp3753
tp3754
a(L3028481L
L0L
(lp3755
(lp3756
tp3757
a(L983138374L
L0L
(lp3758
(lp3759
tp3760
a(L2607138306L
L0L
(lp3761
(lp3762
tp3763
a(L1982128194L
L0L
(lp3764
(lp3765
tp3766
atp3767
sI1074237680
(Vbootloader_munmap
p3768
(lp3769
(L1713649238L
L0L
(lp3770
(lp3771
tp3772
a(L847703320L
L0L
(lp3773
(lp3774
tp3775
a(L3360570486L
L0L
(lp3776
(lp3777
tp3778
atp3779
sI1074235632
(Vbootloader_read_flash_id
p3780
(lp3781
(L3925322170L
L3785322319L
(lp3782
(lp3783
Vbootloader_execute_flash_command
p3784
atp3785
atp3786
sI1074236924
(Vis_xmc_chip_strict
p3787
(lp3788
(L1286841609L
L0L
(lp3789
(lp3790
tp3791
a(L2234016759L
L0L
(lp3792
(lp3793
tp3794
a(L1069027148L
L0L
(lp3795
(lp3796
tp3797
a(L3021749L
L0L
(lp3798
(lp3799
tp3800
a(L1900148749L
L0L
(lp3801
(lp3802
tp3803
a(L1936875721L
L0L
(lp3804
(lp3805
tp3806
a(L3356166509L
L0L
(lp3807
(lp3808
tp3809
a(L1937769451L
L0L
(lp3810
(lp3811
tp3812
a(L2137658907L
L0L
(lp3813
(lp3814
tp3815
a(L4265949734L
L0L
(lp3816
(lp3817
tp3818
a(L3360570486L
L0L
(lp3819
(lp3820
tp3821
atp3822
sI1074236412
(Vbootloader_flash_dummy_config
p3823
(lp3824
(L132211179L
L0L
(lp3825
(lp3826
tp3827
a(L2761717557L
L0L
(lp3828
(lp3829
tp3830
a(L705371371L
L0L
(lp3831
(lp3832
tp3833
a(L2971458626L
L0L
(lp3834
(lp3835
tp3836
a(L1491210540L
L0L
(lp3837
(lp3838
tp3839
a(L3081491917L
L0L
(lp3840
(lp3841
tp3842
a(L1610443405L
L0L
(lp3843
(lp3844
tp3845
a(L4102729993L
L0L
(lp3846
(lp3847
tp3848
a(L1449490182L
L0L
(lp3849
(lp3850
tp3851
a(L1298875775L
L0L
(lp3852
(lp3853
tp3854
a(L3880393601L
L0L
(lp3855
(lp3856
tp3857
a(L1505818087L
L0L
(lp3858
(lp3859
tp3860
a(L1610443436L
L0L
(lp3861
(lp3862
tp3863
atp3864
sI1074269684
(Vbootloader_print_banner
p3865
(lp3866
(L3661680482L
L1832448559L
(lp3867
(lp3868
Vesp_log_early_timestamp
p3869
aVesp_log_early_timestamp
p3870
aVesp_log_early_timestamp
p3871
atp3872
atp3873
ssS'functionsdups'
p3874
g11
((lp3875
tp3876
Rp3877
sS'immediatedups'
p3878
g11
((lp3879
tp3880
Rp3881
sS'functiondups'
p3882
g11
((lp3883
tp3884
Rp3885
sS'fuzzy'
p3886
(dp3887
L1536L
I1074240676
sL617583950L
I1074237084
sL430153639L
I1074235944
sL3121027072L
I1074270456
sL2082889262L
I1074241524
sL3879741902L
I1074241156
sL3538491111L
I1074247348
sL2919016435L
I1074235288
sL16208487L
I1074234788
sL2680783959L
I1074235676
sL3512578114L
I1074239188
sL2469233929L
I1074240464
sL1792232694L
I1074245936
sL4011111091L
I1074237732
sL1377559356L
I1074242452
sL3897252859L
I1074238996
sL1065525808L
I1074236924
sL2327783177L
I1074240756
sL1164839255L
I1074241736
sL449860969L
I1074247060
sL2008768000L
I1074267928
sL3210669721L
I1074246216
sL819541406L
I1074267752
sL1332800441L
I1074237328
sL1148089122L
I1074239080
sL1345429244L
I1074240908
sL2689419264L
I1074246636
sL4160102055L
I1074239916
sL4202185385L
I1074243312
sL2453272040L
I1074247788
sL3690558760L
I1074269828
sL1768086576L
I1074236412
sL4171975289L
I1074243608
sL1565254297L
I1074243912
sL2191698036L
I1074269532
sL1513350244L
I1074239612
sL2474570535L
I1074238192
sL3428965560L
I1074247464
sL519424169L
I1074248244
sL812946199L
I1074237508
sL737694352L
I1074243420
sL503029138L
I1074243360
sL277788135L
I1074244000
sL4253866342L
I1074239948
sL3991645697L
I1074268720
sL47534270L
I1074238612
sL2262558768L
I1074243220
sL424867129L
I1074243740
sL3834155367L
I1074241100
sL176878843L
I1074239236
sL3883282432L
I1074241616
sL4173399607L
I1074242932
sL2726385143L
I1074245324
sL1667054119L
I1074240300
sL4191211306L
I1074247148
sL2687107543L
I1074270000
sL206902443L
I1074238024
ssb.