ccopy_reg
_reconstructor
p0
(crizzo
RizzoSignature
p1
c__builtin__
object
p2
Ntp3
Rp4
(dp5
S'formal'
p6
(dp7
L3504718821L
I1074237892
sL2160692169L
I1074246216
sL61540265L
I1074234800
sL4149167435L
I1074235688
sL2284044839L
I1074243640
sL2424913804L
I1074237460
sL808269608L
I1074246900
sL1435365765L
I1074240544
sL1741170115L
I1074238164
sL2156867713L
I1074267964
sL863322725L
I1074244020
sL3442502945L
I1074269668
sL259373159L
I1074237840
sL1306108107L
I1074239296
sL603498988L
I1074237668
sL2137527423L
I1074236848
sL4213015302L
I1074243180
sL3064311995L
I1074240208
sL818283236L
I1074241172
sL3211103558L
I1074236424
sL2028381634L
I1074245952
sL1725516799L
I1074269892
sL581041033L
I1074240240
sL3328775232L
I1074237140
sL2301607942L
I1074241788
sL1423502578L
I1074247556
sL1939954571L
I1074248068
sL624869140L
I1074269956
sL2045232332L
I1074248524
sL3428942157L
I1074241364
sL1010441494L
I1074247340
sL3567680394L
I1074267139
sL3621260277L
I1074246800
sL3531248981L
I1074244280
sL3706122964L
I1074238184
sL2896295319L
I1074236936
sL1943272420L
I1074247628
sL2590834774L
I1074270896
sL3203236307L
I1074245604
sL4114820221L
I1074267980
sL1195111545L
I1074246380
sL3837264381L
I1074243888
sL2462083717L
I1074270824
sL2467304534L
I1074236620
sL1648348273L
I1074241420
sL2649758882L
I1074237424
sL2175640063L
I1074269988
sL1585823442L
I1074246092
sL744601145L
I1074235844
sL3643625584L
I1074268200
sL909417558L
I1074240924
sL4198635552L
I1074237084
sL740862794L
I1074270664
sL804327318L
I1074243500
sL3377882929L
I1074269112
sL2369143391L
I1074241880
sL1575106703L
I1074247428
sL3767097830L
I1074246156
sL728069141L
I1074269624
sL1847114858L
I1074240108
sL2221717791L
I1074244192
sL1631366472L
I1074246732
sL2045471388L
I1074236684
sL1977071264L
I1074246556
sL834390723L
I1074246916
sL179162836L
I1074239156
sL2057429215L
I1074246684
sL3670748491L
I1074247744
sL3307282855L
I1074238324
sL4238946862L
I1074239804
sL612086517L
I1074235300
sL4114736847L
I1074236920
sL3412901885L
I1074247600
sL3507538307L
I1074248024
sL3844512690L
I1074237008
sL1495735216L
I1074269864
sL2379627086L
I1074236808
sL4075882347L
I1074248492
sL2309182783L
I1074267804
sL2846978095L
I1074243592
sL1916505496L
I1074240964
sL2235134106L
I1074242000
sL3267469666L
I1074247300
sL1922737726L
I1074241020
sL1156874576L
I1074236604
sL1652900655L
I1074238760
sL23021043L
I1074235956
sL392769478L
I1074245016
sL493999838L
I1074267912
sL2997001746L
I1074237384
sL2255309268L
I1074237444
sL2819127986L
I1074237104
sL2629399161L
I1074269584
sL998026430L
I1074239428
sL1164083360L
I1074235644
sL1242724561L
I1074235592
sL3347699786L
I1074268928
sL2231079997L
I1074269600
sL2249539038L
I1074240472
sL4173802007L
I1074237040
sL3624870367L
I1074246856
sL4142749756L
I1074236572
sL1501210539L
I1074239380
sL1865528544L
I1074246120
sL1957579130L
I1074238772
sL2715371534L
I1074243212
sL734653982L
I1074246496
sL2263182908L
I1074238344
sL3165117309L
I1074240728
sL3591904195L
I1074246816
sL2302940057L
I1074246708
sL1142467576L
I1074245920
sL3984686945L
I1074269740
sL188664287L
I1074235268
sL2200618440L
I1074243700
sL2959238529L
I1074237556
sL2042610010L
I1074237636
sL2299069164L
I1074270036
sL692536993L
I1074237528
sL2464101941L
I1074238352
sL3283061060L
I1074238444
sL1621098576L
I1074243196
sL3608561895L
I1074269096
sL4228585470L
I1074240564
sL97097788L
I1074270208
sL3879874740L
I1074242716
sL4267894680L
I1074236776
sL2666146582L
I1074240940
sL1616440742L
I1074246024
ssS'immediates'
p8
(dp9
sS'formaldups'
p10
c__builtin__
set
p11
((lp12
tp13
Rp14
sS'stringdups'
p15
g11
((lp16
tp17
Rp18
sS'fuzzydups'
p19
g11
((lp20
tp21
Rp22
sS'strings'
p23
(dp24
sS'functions'
p25
(dp26
I1074267912
(Vbootloader_common_vddsdio_configure
p27
(lp28
(L1922017289L
L3785322319L
(lp29
(lp30
Vrtc_vddsdio_get_config
p31
atp32
a(L1185899578L
L3785322319L
(lp33
(lp34
Vrtc_vddsdio_set_config
p35
atp36
a(L3360570486L
L0L
(lp37
(lp38
tp39
atp40
sI1074237444
(Vbootloader_common_get_rtc_retain_mem_partition
p41
(lp42
(L1838455070L
L3785322319L
(lp43
(lp44
Vcheck_rtc_retain_mem
p45
atp46
a(L702736976L
L0L
(lp47
(lp48
tp49
a(L3360570486L
L0L
(lp50
(lp51
tp52
atp53
sI1074246916
(Vrtc_clk_bbpll_configure
p54
(lp55
(L3991860920L
L0L
(lp56
(lp57
tp58
a(L106L
L0L
(lp59
(lp60
tp61
a(L4133065566L
L0L
(lp62
(lp63
tp64
a(L106L
L0L
(lp65
(lp66
tp67
a(L83268611L
L0L
(lp68
(lp69
tp70
a(L106L
L0L
(lp71
(lp72
tp73
a(L82345090L
L0L
(lp74
(lp75
tp76
a(L106L
L0L
(lp77
(lp78
tp79
a(L2258688482L
L0L
(lp80
(lp81
tp82
a(L3177466952L
L0L
(lp83
(lp84
tp85
a(L3115209060L
L0L
(lp86
(lp87
tp88
a(L3852393832L
L0L
(lp89
(lp90
tp91
a(L1299866343L
L0L
(lp92
(lp93
tp94
a(L3291765465L
L0L
(lp95
(lp96
tp97
a(L3241888512L
L0L
(lp98
(lp99
tp100
a(L4283449731L
L0L
(lp101
(lp102
tp103
a(L83268344L
L0L
(lp104
(lp105
tp106
a(L82344823L
L0L
(lp107
(lp108
tp109
a(L1667153377L
L0L
(lp110
(lp111
tp112
a(L2258867279L
L0L
(lp113
(lp114
tp115
a(L3410927670L
L0L
(lp116
(lp117
tp118
a(L1551160474L
L0L
(lp119
(lp120
tp121
a(L1712476653L
L0L
(lp122
(lp123
tp124
a(L4011631532L
L0L
(lp125
(lp126
tp127
atp128
sI1074247428
(Vrtc_clk_cpu_freq_get_config
p129
(lp130
(L1912227103L
L0L
(lp131
(lp132
tp133
a(L2902417580L
L0L
(lp134
(lp135
tp136
a(L1777368540L
L0L
(lp137
(lp138
tp139
a(L767113412L
L1880226080L
(lp140
(lp141
Vesp_log_early_timestamp
p142
aVabort
p143
atp144
a(L1184870491L
L3785322319L
(lp145
(lp146
Vrtc_clk_xtal_freq_get
p147
atp148
a(L584032699L
L0L
(lp149
(lp150
tp151
a(L1267412765L
L0L
(lp152
(lp153
tp154
a(L3020187L
L0L
(lp155
(lp156
tp157
a(L713819170L
L0L
(lp158
(lp159
tp160
a(L106L
L0L
(lp161
(lp162
tp163
a(L549042870L
L0L
(lp164
(lp165
tp166
a(L187152368L
L0L
(lp167
(lp168
tp169
a(L4149732163L
L0L
(lp170
(lp171
tp172
atp173
sI1074267136
(V_init
p174
(lp175
(L3493042598L
L0L
(lp176
(lp177
tp178
atp179
sI1074268928
(Vbootloader_clock_configure
p180
(lp181
(L1154001737L
L1880226080L
(lp182
(lp183
Vesp_rom_uart_tx_wait_idle
p184
aVefuse_hal_chip_revision
p185
atp186
a(L1210868914L
L0L
(lp187
(lp188
tp189
a(L64047172L
L3785322319L
(lp190
(lp191
Vrtc_clk_apb_freq_get
p192
atp193
a(L1203878623L
L1832448559L
(lp194
(lp195
Vrtc_clk_slow_freq_get
p196
aVrtc_clk_fast_freq_get
p197
aVrtc_clk_init
p198
atp199
a(L2956993324L
L0L
(lp200
(lp201
tp202
a(L3864824743L
L0L
(lp203
(lp204
tp205
a(L106L
L0L
(lp206
(lp207
tp208
atp209
sI1074270208
(Vrtc_clk_init
p210
(lp211
(L3734878590L
L0L
(lp212
(lp213
tp214
a(L42671777L
L3785322319L
(lp215
(lp216
Vrtc_clk_cpu_freq_to_xtal
p217
atp218
a(L3536108137L
L0L
(lp219
(lp220
tp221
a(L4184912069L
L0L
(lp222
(lp223
tp224
a(L2873281153L
L0L
(lp225
(lp226
tp227
a(L912414356L
L3785322319L
(lp228
(lp229
Vrtc_clk_xtal_freq_get
p230
atp231
a(L2504323164L
L1157885199L
(lp232
(lp233
Vesp_rom_uart_tx_wait_idle
p234
aVrtc_clk_xtal_freq_update
p235
aVrtc_clk_apb_freq_update
p236
aVrtc_clk_cpu_freq_get_config
p237
aVrtc_clk_cpu_freq_mhz_to_config
p238
atp239
a(L3225914984L
L1880226080L
(lp240
(lp241
Vesp_log_early_timestamp
p242
aVabort
p243
atp244
a(L4187693717L
L3785322319L
(lp245
(lp246
Vrtc_clk_xtal_freq_estimate
p247
atp248
a(L2532622708L
L3785322319L
(lp249
(lp250
Vesp_log_early_timestamp
p251
atp252
a(L4188325301L
L0L
(lp253
(lp254
tp255
a(L1563923531L
L0L
(lp256
(lp257
tp258
a(L106L
L0L
(lp259
(lp260
tp261
a(L4070631878L
L3785322319L
(lp262
(lp263
Vrtc_clk_xtal_freq_estimate
p264
atp265
a(L106L
L0L
(lp266
(lp267
tp268
a(L3373934571L
L3785322319L
(lp269
(lp270
Vesp_log_early_timestamp
p271
atp272
a(L4130589666L
L3785322319L
(lp273
(lp274
Vrtc_clk_cpu_freq_set_config
p275
atp276
a(L4168829660L
L3785322319L
(lp277
(lp278
Vrtc_clk_32k_enable
p279
atp280
a(L3016870L
L0L
(lp281
(lp282
tp283
a(L87508165L
L3785322319L
(lp284
(lp285
Vrtc_clk_8m_enable
p286
atp287
a(L530469956L
L1880226080L
(lp288
(lp289
Vrtc_clk_fast_freq_set
p290
aVrtc_clk_slow_freq_set
p291
atp292
atp293
sI1074236684
(Vesp_rom_uart_set_clock_baudrate
p294
(lp295
(L881452272L
L0L
(lp296
(lp297
tp298
a(L3909951828L
L0L
(lp299
(lp300
tp301
a(L1008980029L
L0L
(lp302
(lp303
tp304
a(L869159045L
L0L
(lp305
(lp306
tp307
a(L2805931435L
L0L
(lp308
(lp309
tp310
a(L1926040272L
L0L
(lp311
(lp312
tp313
atp314
sI1074246156
(Vrtc_clk_bbpll_disable
p315
(lp316
(L3777840348L
L0L
(lp317
(lp318
tp319
a(L391691750L
L0L
(lp320
(lp321
tp322
a(L3360570486L
L0L
(lp323
(lp324
tp325
atp326
sI1074267139
(V_text_start
p327
(lp328
(L1817914933L
L0L
(lp329
(lp330
tp331
atp332
sI1074269956
(Vbootloader_console_init
p333
(lp334
(L375142255L
L1832448559L
(lp335
(lp336
Vesp_rom_uart_tx_wait_idle
p337
aVrtc_clk_apb_freq_get
p338
aVesp_rom_uart_set_clock_baudrate
p339
atp340
atp341
sI1074243592
(Vesp_rom_spiflash_wait_idle
p342
(lp343
(L3233075721L
L0L
(lp344
(lp345
tp346
a(L2023766174L
L0L
(lp347
(lp348
tp349
a(L2805933678L
L0L
(lp350
(lp351
tp352
a(L3086959262L
L0L
(lp353
(lp354
tp355
a(L4161019926L
L3785322319L
(lp356
(lp357
Vesp_rom_spiflash_read_status
p358
atp359
atp360
sI1074236424
(Vbootloader_flash_dummy_config
p361
(lp362
(L132211179L
L0L
(lp363
(lp364
tp365
a(L2761717557L
L0L
(lp366
(lp367
tp368
a(L705371371L
L0L
(lp369
(lp370
tp371
a(L2971458626L
L0L
(lp372
(lp373
tp374
a(L1491210540L
L0L
(lp375
(lp376
tp377
a(L3081491917L
L0L
(lp378
(lp379
tp380
a(L1610443405L
L0L
(lp381
(lp382
tp383
a(L4102729993L
L0L
(lp384
(lp385
tp386
a(L1449490182L
L0L
(lp387
(lp388
tp389
a(L1298875775L
L0L
(lp390
(lp391
tp392
a(L3880393601L
L0L
(lp393
(lp394
tp395
a(L1505818087L
L0L
(lp396
(lp397
tp398
a(L1610443436L
L0L
(lp399
(lp400
tp401
atp402
sI1074236936
(Vis_xmc_chip_strict
p403
(lp404
(L1286841609L
L0L
(lp405
(lp406
tp407
a(L2234016759L
L0L
(lp408
(lp409
tp410
a(L1069027148L
L0L
(lp411
(lp412
tp413
a(L3021749L
L0L
(lp414
(lp415
tp416
a(L1900148749L
L0L
(lp417
(lp418
tp419
a(L1936875721L
L0L
(lp420
(lp421
tp422
a(L3356166509L
L0L
(lp423
(lp424
tp425
a(L1937769451L
L0L
(lp426
(lp427
tp428
a(L2137658907L
L0L
(lp429
(lp430
tp431
a(L4265949734L
L0L
(lp432
(lp433
tp434
a(L3360570486L
L0L
(lp435
(lp436
tp437
atp438
sI1074237460
(Vbootloader_common_update_rtc_retain_mem
p439
(lp440
(L2958000229L
L0L
(lp441
(lp442
tp443
a(L3212356251L
L3785322319L
(lp444
(lp445
Vcheck_rtc_retain_mem
p446
atp447
a(L94425498L
L3785322319L
(lp448
(lp449
Vbootloader_common_reset_rtc_retain_mem
p450
atp451
a(L3283481720L
L0L
(lp452
(lp453
tp454
a(L4140856694L
L0L
(lp455
(lp456
tp457
a(L2955357437L
L0L
(lp458
(lp459
tp460
a(L1466453772L
L0L
(lp461
(lp462
tp463
a(L3940293563L
L0L
(lp464
(lp465
tp466
atp467
sI1074246684
(Vrtc_clk_8m_enabled
p468
(lp469
(L1433619747L
L0L
(lp470
(lp471
tp472
atp473
sI1074240536
(Vbootloader_debug_buffer
p474
(lp475
(L2100504542L
L0L
(lp476
(lp477
tp478
atp479
sI1074268200
(Vbootloader_init
p480
(lp481
(L2725830639L
L3785322319L
(lp482
(lp483
Vbootloader_init_mem
p484
atp485
a(L450731687L
L0L
(lp486
(lp487
tp488
a(L3336286567L
L3785322319L
(lp489
(lp490
V__assert_func
p491
atp492
a(L3188578498L
L0L
(lp493
(lp494
tp495
a(L1277172108L
L0L
(lp496
(lp497
tp498
a(L2926278337L
L0L
(lp499
(lp500
tp501
a(L2851108022L
L0L
(lp502
(lp503
tp504
a(L3027019L
L0L
(lp505
(lp506
tp507
a(L4254309010L
L0L
(lp508
(lp509
tp510
a(L2362411092L
L1832448559L
(lp511
(lp512
Vbootloader_clear_bss_section
p513
aVbootloader_common_vddsdio_configure
p514
aVbootloader_clock_get_rated_freq_mhz
p515
atp516
a(L3987130017L
L1157885199L
(lp517
(lp518
Vbootloader_clock_configure
p519
aVbootloader_console_init
p520
aVbootloader_print_banner
p521
aVbootloader_flash_update_id
p522
aVbootloader_flash_xmc_startup
p523
atp524
a(L1227450900L
L3785322319L
(lp525
(lp526
Vesp_log_early_timestamp
p527
atp528
a(L3642695687L
L3785322319L
(lp529
(lp530
Vesp_log_early_timestamp
p531
atp532
a(L3360570486L
L0L
(lp533
(lp534
tp535
a(L2444883382L
L3785322319L
(lp536
(lp537
Vbootloader_read_bootloader_header
p538
atp539
a(L2444883382L
L3785322319L
(lp540
(lp541
Vbootloader_check_bootloader_validity
p542
atp543
a(L1541487705L
L2485746240L
(lp544
(lp545
Vbootloader_flash_gpio_config
p546
aVbootloader_flash_dummy_config
p547
aVbootloader_flash_cs_timing_config
p548
aVbootloader_flash_unlock
p549
atp550
a(L2419480444L
L0L
(lp551
(lp552
tp553
a(L1350909440L
L0L
(lp554
(lp555
tp556
a(L3902505858L
L0L
(lp557
(lp558
tp559
a(L2051117730L
L3785322319L
(lp560
(lp561
Vesp_log_early_timestamp
p562
atp563
a(L4025035610L
L0L
(lp564
(lp565
tp566
a(L4028729694L
L0L
(lp567
(lp568
tp569
a(L2883563654L
L0L
(lp570
(lp571
tp572
a(L2887257738L
L0L
(lp573
(lp574
tp575
a(L3201442508L
L0L
(lp576
(lp577
tp578
a(L187795384L
L3785322319L
(lp579
(lp580
Vesp_log_early_timestamp
p581
atp582
a(L93674324L
L0L
(lp583
(lp584
tp585
a(L3316050533L
L0L
(lp586
(lp587
tp588
a(L718637778L
L0L
(lp589
(lp590
tp591
a(L2781192072L
L0L
(lp592
(lp593
tp594
a(L2773812181L
L0L
(lp595
(lp596
tp597
a(L2466579545L
L3785322319L
(lp598
(lp599
Vesp_log_early_timestamp
p600
atp601
a(L104277116L
L0L
(lp602
(lp603
tp604
a(L2642220900L
L0L
(lp605
(lp606
tp607
a(L819703139L
L0L
(lp608
(lp609
tp610
a(L575140665L
L0L
(lp611
(lp612
tp613
a(L2413747662L
L3785322319L
(lp614
(lp615
Vbootloader_enable_wp
p616
atp617
a(L1092107084L
L0L
(lp618
(lp619
tp620
a(L3239157056L
L3785322319L
(lp621
(lp622
Vesp_log_early_timestamp
p623
atp624
a(L3562778957L
L0L
(lp625
(lp626
tp627
a(L569753936L
L0L
(lp628
(lp629
tp630
a(L2902417580L
L0L
(lp631
(lp632
tp633
a(L1944713791L
L1880226080L
(lp634
(lp635
Vwdt_reset_info_dump
p636
aVwdt_reset_info_dump
p637
atp638
a(L2386818306L
L1880226080L
(lp639
(lp640
Vbootloader_config_wdt
p641
aVbootloader_enable_random
p642
atp643
a(L2867233991L
L3785322319L
(lp644
(lp645
Vesp_log_early_timestamp
p646
atp647
atp648
sI1074269740
(Vbootloader_config_wdt
p649
(lp650
(L1142438309L
L505859776L
(lp651
(lp652
Vwdt_hal_write_protect_disable
p653
aVwdt_hal_set_flashboot_en
p654
aVwdt_hal_write_protect_enable
p655
aVwdt_hal_init
p656
aVrtc_clk_slow_freq_get_hz
p657
aVwdt_hal_write_protect_disable
p658
aVwdt_hal_config_stage
p659
aVwdt_hal_enable
p660
aVwdt_hal_write_protect_enable
p661
aVwdt_hal_write_protect_disable
p662
aVwdt_hal_set_flashboot_en
p663
aVwdt_hal_write_protect_enable
p664
atp665
atp666
sI1074245920
(Vwdt_hal_write_protect_disable
p667
(lp668
(L103224028L
L0L
(lp669
(lp670
tp671
a(L4195472003L
L0L
(lp672
(lp673
tp674
a(L3360570486L
L0L
(lp675
(lp676
tp677
a(L1210571996L
L0L
(lp678
(lp679
tp680
atp681
sI1074240544
(Vbootloader_sha256_start
p682
(lp683
(L1589743578L
L0L
(lp684
(lp685
tp686
atp687
sI1074248492
(Vrtc_clk_cal_ratio
p688
(lp689
(L2936612921L
L3785322319L
(lp690
(lp691
Vrtc_clk_cal_internal
p692
atp693
atp694
sI1074269988
(Vesp_cpu_configure_region_protection
p695
(lp696
(L921839964L
L0L
(lp697
(lp698
tp699
a(L180431425L
L3785322319L
(lp700
(lp701
Vmpu_hal_set_region_access
p702
atp703
a(L2537388152L
L3785322319L
(lp704
(lp705
Vmpu_hal_set_region_access
p706
atp707
atp708
sI1074235688
(Vbootloader_flash_xmc_startup
p709
(lp710
(L4031258446L
L3785322319L
(lp711
(lp712
Vis_xmc_chip_strict
p713
atp714
a(L2258688482L
L0L
(lp715
(lp716
tp717
a(L3360570486L
L0L
(lp718
(lp719
tp720
a(L2860324232L
L3785322319L
(lp721
(lp722
Vbootloader_flash_read_sfdp
p723
atp724
a(L3354428414L
L2567856111L
(lp725
(lp726
Vesp_log_early_timestamp
p727
aVbootloader_execute_flash_command
p728
aVbootloader_execute_flash_command
p729
aVbootloader_execute_flash_command
p730
aVbootloader_execute_flash_command
p731
aVbootloader_read_flash_id
p732
aVis_xmc_chip_strict
p733
atp734
a(L3332645139L
L3785322319L
(lp735
(lp736
Vesp_log_early_timestamp
p737
atp738
atp739
sI1074238760
(Vbootloader_clock_get_rated_freq_mhz
p740
(lp741
(L376617603L
L3785322319L
(lp742
(lp743
Vefuse_hal_get_rated_freq_mhz
p744
atp745
atp746
sI1074240564
(Vbootloader_sha256_data
p747
(lp748
(L4066096136L
L0L
(lp749
(lp750
tp751
a(L3822651472L
L0L
(lp752
(lp753
tp754
a(L3506562074L
L3785322319L
(lp755
(lp756
V__assert_func
p757
atp758
a(L498498478L
L0L
(lp759
(lp760
tp761
a(L2957437766L
L0L
(lp762
(lp763
tp764
a(L2910371777L
L0L
(lp765
(lp766
tp767
a(L3360570486L
L0L
(lp768
(lp769
tp770
a(L3101997990L
L0L
(lp771
(lp772
tp773
a(L841847518L
L0L
(lp774
(lp775
tp776
a(L2394237047L
L0L
(lp777
(lp778
tp779
a(L2429041730L
L0L
(lp780
(lp781
tp782
a(L2909869923L
L0L
(lp783
(lp784
tp785
a(L1390602840L
L0L
(lp786
(lp787
tp788
a(L3028464L
L0L
(lp789
(lp790
tp791
a(L1225383360L
L0L
(lp792
(lp793
tp794
a(L596738441L
L0L
(lp795
(lp796
tp797
atp798
sI1074238772
(Vload_image
p799
(lp800
(L3299925839L
L1832448559L
(lp801
(lp802
Vesp_log_early_timestamp
p803
aVbootloader_random_disable
p804
aVbootloader_ana_clock_glitch_reset_config
p805
atp806
a(L2118498116L
L0L
(lp807
(lp808
tp809
a(L106L
L0L
(lp810
(lp811
tp812
a(L3992992218L
L0L
(lp813
(lp814
tp815
a(L751966648L
L0L
(lp816
(lp817
tp818
a(L3268103L
L0L
(lp819
(lp820
tp821
a(L3438366897L
L3785322319L
(lp822
(lp823
Vbootloader_console_deinit
p824
atp825
a(L2111711315L
L0L
(lp826
(lp827
tp828
a(L3020204L
L0L
(lp829
(lp830
tp831
a(L676315981L
L3785322319L
(lp832
(lp833
Vesp_log_early_timestamp
p834
atp835
a(L117980938L
L0L
(lp836
(lp837
tp838
a(L4174716703L
L0L
(lp839
(lp840
tp841
a(L3020204L
L0L
(lp842
(lp843
tp844
a(L1593614725L
L3785322319L
(lp845
(lp846
Vesp_log_early_timestamp
p847
atp848
a(L233635238L
L0L
(lp849
(lp850
tp851
a(L2488949783L
L0L
(lp852
(lp853
tp854
atp855
sI1074235956
(Vbootloader_flash_gpio_config
p856
(lp857
(L719792650L
L3785322319L
(lp858
(lp859
Vbootloader_common_get_chip_ver_pkg
p860
atp861
a(L106L
L0L
(lp862
(lp863
tp864
a(L2886083034L
L0L
(lp865
(lp866
tp867
a(L106L
L0L
(lp868
(lp869
tp870
a(L4213870169L
L0L
(lp871
(lp872
tp873
a(L3890032189L
L0L
(lp874
(lp875
tp876
a(L106L
L0L
(lp877
(lp878
tp879
a(L676119430L
L0L
(lp880
(lp881
tp882
a(L4272081986L
L0L
(lp883
(lp884
tp885
a(L3360570486L
L0L
(lp886
(lp887
tp888
atp889
sI1074246708
(Vrtc_clk_8md256_enabled
p890
(lp891
(L589147876L
L0L
(lp892
(lp893
tp894
atp895
sI1074267964
(Vbootloader_common_get_reset_reason
p896
(lp897
(L3780188688L
L0L
(lp898
(lp899
tp900
atp901
sI1074243888
(Vesp_rom_spiflash_erase_sector
p902
(lp903
(L2459429170L
L0L
(lp904
(lp905
tp906
a(L2258688483L
L0L
(lp907
(lp908
tp909
a(L3360570486L
L0L
(lp910
(lp911
tp912
a(L3212356251L
L3785322319L
(lp913
(lp914
Vesp_rom_spiflash_enable_write
p915
atp916
a(L184152988L
L0L
(lp917
(lp918
tp919
a(L628195371L
L3785322319L
(lp920
(lp921
Vesp_rom_spiflash_wait_idle
p922
atp923
a(L3333707777L
L0L
(lp924
(lp925
tp926
a(L3582858798L
L3785322319L
(lp927
(lp928
Vesp_rom_spiflash_wait_idle
p929
atp930
atp931
sI1074239804
(Vbootloader_utility_get_selected_boot_partition
p932
(lp933
(L2184143128L
L0L
(lp934
(lp935
tp936
a(L3692243288L
L0L
(lp937
(lp938
tp939
a(L57446091L
L3785322319L
(lp940
(lp941
Vesp_log_early_timestamp
p942
atp943
a(L4026981588L
L0L
(lp944
(lp945
tp946
a(L3360570486L
L0L
(lp947
(lp948
tp949
a(L1375577398L
L3785322319L
(lp950
(lp951
Vbootloader_mmap
p952
atp953
a(L1207749922L
L3785322319L
(lp954
(lp955
Vesp_log_early_timestamp
p956
atp957
a(L3603331199L
L1880226080L
(lp958
(lp959
Vbootloader_munmap
p960
aVbootloader_common_ota_select_invalid
p961
atp962
a(L1103573946L
L0L
(lp963
(lp964
tp965
a(L1876835593L
L3785322319L
(lp966
(lp967
Vbootloader_common_get_active_otadata
p968
atp969
a(L106L
L0L
(lp970
(lp971
tp972
a(L569346373L
L0L
(lp973
(lp974
tp975
a(L788494392L
L3785322319L
(lp976
(lp977
Vbootloader_common_ota_select_invalid
p978
atp979
a(L2683346418L
L0L
(lp980
(lp981
tp982
a(L3718116630L
L3785322319L
(lp983
(lp984
Vesp_log_early_timestamp
p985
atp986
a(L2984539950L
L3785322319L
(lp987
(lp988
Vesp_log_early_timestamp
p989
atp990
a(L505081345L
L0L
(lp991
(lp992
tp993
a(L919052234L
L3785322319L
(lp994
(lp995
Vbootloader_common_ota_select_crc
p996
atp997
a(L2287680455L
L0L
(lp998
(lp999
tp1000
a(L3542558037L
L3785322319L
(lp1001
(lp1002
Vbootloader_common_ota_select_crc
p1003
atp1004
a(L1299866312L
L0L
(lp1005
(lp1006
tp1007
a(L1715531634L
L0L
(lp1008
(lp1009
tp1010
a(L3236446173L
L3785322319L
(lp1011
(lp1012
Vesp_log_early_timestamp
p1013
atp1014
a(L1367516498L
L0L
(lp1015
(lp1016
tp1017
a(L4142618241L
L3785322319L
(lp1018
(lp1019
Vesp_log_early_timestamp
p1020
atp1021
atp1022
sI1074243640
(Vesp_rom_spiflash_enable_write
p1023
(lp1024
(L1680383254L
L3785322319L
(lp1025
(lp1026
Vesp_rom_spiflash_wait_idle
p1027
atp1028
a(L3137194272L
L0L
(lp1029
(lp1030
tp1031
a(L2258718275L
L0L
(lp1032
(lp1033
tp1034
a(L99543895L
L0L
(lp1035
(lp1036
tp1037
a(L2993202392L
L0L
(lp1038
(lp1039
tp1040
a(L1804543818L
L3785322319L
(lp1041
(lp1042
Vesp_rom_spiflash_read_status
p1043
atp1044
atp1045
sI1074267980
(Vwdt_reset_info_dump
p1046
(lp1047
(L4037466985L
L0L
(lp1048
(lp1049
tp1050
a(L4162823486L
L0L
(lp1051
(lp1052
tp1053
a(L3759833313L
L0L
(lp1054
(lp1055
tp1056
a(L1103285333L
L0L
(lp1057
(lp1058
tp1059
a(L3874600256L
L3785322319L
(lp1060
(lp1061
Vesp_log_early_timestamp
p1062
atp1063
a(L2967992533L
L0L
(lp1064
(lp1065
tp1066
a(L4142801612L
L3785322319L
(lp1067
(lp1068
Vesp_log_early_timestamp
p1069
atp1070
a(L98458893L
L0L
(lp1071
(lp1072
tp1073
atp1074
sI1074239296
(Vlog_invalid_app_partition
p1075
(lp1076
(L3313762956L
L0L
(lp1077
(lp1078
tp1079
a(L3028464L
L0L
(lp1080
(lp1081
tp1082
a(L568383254L
L3785322319L
(lp1083
(lp1084
Vesp_log_early_timestamp
p1085
atp1086
a(L44113432L
L0L
(lp1087
(lp1088
tp1089
a(L3360570486L
L0L
(lp1090
(lp1091
tp1092
a(L1770520660L
L3785322319L
(lp1093
(lp1094
Vesp_log_early_timestamp
p1095
atp1096
a(L577634924L
L3785322319L
(lp1097
(lp1098
Vesp_log_early_timestamp
p1099
atp1100
atp1101
sI1074245952
(Vwdt_hal_enable
p1102
(lp1103
(L4029830118L
L0L
(lp1104
(lp1105
tp1106
a(L3634439744L
L0L
(lp1107
(lp1108
tp1109
a(L3360570486L
L0L
(lp1110
(lp1111
tp1112
a(L2011576586L
L0L
(lp1113
(lp1114
tp1115
atp1116
sI1074247744
(Vrtc_clk_cpu_freq_set_config
p1117
(lp1118
(L2597303049L
L3785322319L
(lp1119
(lp1120
Vrtc_clk_xtal_freq_get
p1121
atp1122
a(L1828795533L
L1880226080L
(lp1123
(lp1124
Vrtc_clk_cpu_freq_to_xtal
p1125
aVrtc_clk_wait_for_slow_cycle
p1126
atp1127
a(L94425498L
L3785322319L
(lp1128
(lp1129
Vrtc_clk_bbpll_disable
p1130
atp1131
a(L3978916712L
L0L
(lp1132
(lp1133
tp1134
a(L2977209154L
L0L
(lp1135
(lp1136
tp1137
a(L2736411858L
L3785322319L
(lp1138
(lp1139
Vrtc_clk_cpu_freq_to_xtal
p1140
atp1141
a(L3360570486L
L0L
(lp1142
(lp1143
tp1144
a(L3020187L
L0L
(lp1145
(lp1146
tp1147
a(L106L
L0L
(lp1148
(lp1149
tp1150
a(L3439919769L
L2485746240L
(lp1151
(lp1152
Vrtc_clk_wait_for_slow_cycle
p1153
aVrtc_clk_xtal_freq_get
p1154
aVrtc_clk_bbpll_configure
p1155
aVrtc_clk_cpu_freq_to_pll_mhz
p1156
atp1157
a(L3020187L
L0L
(lp1158
(lp1159
tp1160
a(L106L
L0L
(lp1161
(lp1162
tp1163
a(L3227248092L
L0L
(lp1164
(lp1165
tp1166
atp1167
sI1074246732
(Vrtc_clk_slow_freq_set
p1168
(lp1169
(L3548255620L
L0L
(lp1170
(lp1171
tp1172
atp1173
sI1074248524
(Vrtc_clk_wait_for_slow_cycle
p1174
(lp1175
(L200045695L
L0L
(lp1176
(lp1177
tp1178
a(L287687718L
L0L
(lp1179
(lp1180
tp1181
a(L3360570486L
L0L
(lp1182
(lp1183
tp1184
a(L3986273454L
L0L
(lp1185
(lp1186
tp1187
a(L2994547433L
L0L
(lp1188
(lp1189
tp1190
a(L3945029326L
L0L
(lp1191
(lp1192
tp1193
a(L1998814580L
L3785322319L
(lp1194
(lp1195
Vesp_log_early_timestamp
p1196
atp1197
atp1198
sI1074246216
(Vrtc_clk_cpu_freq_to_pll_mhz
p1199
(lp1200
(L428013989L
L0L
(lp1201
(lp1202
tp1203
a(L106L
L0L
(lp1204
(lp1205
tp1206
a(L1541997046L
L0L
(lp1207
(lp1208
tp1209
a(L106L
L0L
(lp1210
(lp1211
tp1212
a(L1546614651L
L0L
(lp1213
(lp1214
tp1215
a(L2907368881L
L0L
(lp1216
(lp1217
tp1218
a(L635222928L
L3785322319L
(lp1219
(lp1220
Vrtc_clk_wait_for_slow_cycle
p1221
atp1222
a(L2961195743L
L1880226080L
(lp1223
(lp1224
Vesp_log_early_timestamp
p1225
aVabort
p1226
atp1227
a(L1183020347L
L0L
(lp1228
(lp1229
tp1230
a(L1305407562L
L0L
(lp1231
(lp1232
tp1233
a(L1306330990L
L0L
(lp1234
(lp1235
tp1236
atp1237
sI1074241364
(Vbootloader_util_regions_overlap
p1238
(lp1239
(L2762640130L
L0L
(lp1240
(lp1241
tp1242
a(L3659618723L
L0L
(lp1243
(lp1244
tp1245
a(L1647451197L
L3785322319L
(lp1246
(lp1247
V__assert_func
p1248
atp1249
a(L97642L
L0L
(lp1250
(lp1251
tp1252
a(L3340801995L
L0L
(lp1253
(lp1254
tp1255
a(L366123053L
L0L
(lp1256
(lp1257
tp1258
a(L2258867228L
L0L
(lp1259
(lp1260
tp1261
a(L1253626734L
L0L
(lp1262
(lp1263
tp1264
a(L2258897019L
L0L
(lp1265
(lp1266
tp1267
a(L3109269495L
L0L
(lp1268
(lp1269
tp1270
atp1271
sI1074237008
(Vesp_log_early_timestamp
p1272
(lp1273
(L3622092107L
L0L
(lp1274
(lp1275
tp1276
atp1277
sI1074270036
(Vrtc_clk_xtal_freq_estimate
p1278
(lp1279
(L2516060585L
L1880226080L
(lp1280
(lp1281
Vrtc_clk_8m_enabled
p1282
aVrtc_clk_8md256_enabled
p1283
atp1284
a(L967485502L
L3785322319L
(lp1285
(lp1286
Vrtc_clk_8m_enable
p1287
atp1288
a(L267257268L
L3785322319L
(lp1289
(lp1290
Vrtc_clk_cal_ratio
p1291
atp1292
a(L93674324L
L0L
(lp1293
(lp1294
tp1295
a(L3910042627L
L0L
(lp1296
(lp1297
tp1298
a(L1299866334L
L0L
(lp1299
(lp1300
tp1301
a(L3360570486L
L0L
(lp1302
(lp1303
tp1304
a(L3936819466L
L0L
(lp1305
(lp1306
tp1307
a(L3982077265L
L0L
(lp1308
(lp1309
tp1310
a(L1641150486L
L0L
(lp1311
(lp1312
tp1313
a(L3618843600L
L3785322319L
(lp1314
(lp1315
Vesp_log_early_timestamp
p1316
atp1317
a(L4168362828L
L3785322319L
(lp1318
(lp1319
Vesp_log_early_timestamp
p1320
atp1321
a(L4114389777L
L3785322319L
(lp1322
(lp1323
Vesp_log_early_timestamp
p1324
atp1325
atp1326
sI1074237528
(Vbootloader_common_ota_select_invalid
p1327
(lp1328
(L4027567199L
L0L
(lp1329
(lp1330
tp1331
a(L3397985842L
L0L
(lp1332
(lp1333
tp1334
a(L2258867228L
L0L
(lp1335
(lp1336
tp1337
a(L3785235668L
L0L
(lp1338
(lp1339
tp1340
atp1341
sI1074241880
(Vshould_load
p1342
(lp1343
(L1898440066L
L0L
(lp1344
(lp1345
tp1346
a(L1182990556L
L0L
(lp1347
(lp1348
tp1349
a(L1099394420L
L0L
(lp1350
(lp1351
tp1352
a(L1298905564L
L0L
(lp1353
(lp1354
tp1355
a(L524505062L
L0L
(lp1356
(lp1357
tp1358
a(L2258897019L
L0L
(lp1359
(lp1360
tp1361
a(L3781799363L
L0L
(lp1362
(lp1363
tp1364
a(L3028464L
L0L
(lp1365
(lp1366
tp1367
a(L3549473510L
L0L
(lp1368
(lp1369
tp1370
a(L467019899L
L0L
(lp1371
(lp1372
tp1373
a(L307469760L
L0L
(lp1374
(lp1375
tp1376
a(L4185756579L
L0L
(lp1377
(lp1378
tp1379
a(L3458855836L
L0L
(lp1380
(lp1381
tp1382
a(L3126521138L
L0L
(lp1383
(lp1384
tp1385
a(L1305407438L
L0L
(lp1386
(lp1387
tp1388
a(L1305407469L
L0L
(lp1389
(lp1390
tp1391
atp1392
sI1074248024
(Vrtc_clk_apb_freq_get
p1393
(lp1394
(L3325652652L
L0L
(lp1395
(lp1396
tp1397
atp1398
sI1074270824
(Vrtc_vddsdio_set_config
p1399
(lp1400
(L2882663635L
L0L
(lp1401
(lp1402
tp1403
atp1404
sI1074244192
(Vesp_rom_spiflash_write_encrypted
p1405
(lp1406
(L2107077087L
L0L
(lp1407
(lp1408
tp1409
a(L48601202L
L0L
(lp1410
(lp1411
tp1412
a(L97689L
L0L
(lp1413
(lp1414
tp1415
a(L3061232074L
L0L
(lp1416
(lp1417
tp1418
a(L1022857974L
L0L
(lp1419
(lp1420
tp1421
a(L2903314395L
L3785322319L
(lp1422
(lp1423
Vesp_rom_spiflash_write
p1424
atp1425
a(L2477749271L
L0L
(lp1426
(lp1427
tp1428
a(L735741265L
L0L
(lp1429
(lp1430
tp1431
atp1432
sI1074246496
(Vrtc_clk_32k_enable
p1433
(lp1434
(L753387299L
L0L
(lp1435
(lp1436
tp1437
a(L1067050752L
L3785322319L
(lp1438
(lp1439
Vrtc_clk_32k_enable_common
p1440
atp1441
a(L3360570486L
L0L
(lp1442
(lp1443
tp1444
a(L2867343393L
L0L
(lp1445
(lp1446
tp1447
atp1448
sI1074243180
(Vbootloader_load_image
p1449
(lp1450
(L1155870502L
L3785322319L
(lp1451
(lp1452
Vimage_load
p1453
atp1454
atp1455
sI1074240108
(Vbootloader_utility_load_boot_image_from_deep_sleep
p1456
(lp1457
(L1000020858L
L0L
(lp1458
(lp1459
tp1460
a(L1749343196L
L3785322319L
(lp1461
(lp1462
Vbootloader_common_get_rtc_retain_mem_partition
p1463
atp1464
a(L807480887L
L3785322319L
(lp1465
(lp1466
Vbootloader_load_image_no_verify
p1467
atp1468
a(L2724254679L
L1832448559L
(lp1469
(lp1470
Vesp_log_early_timestamp
p1471
aVbootloader_common_update_rtc_retain_mem
p1472
aVload_image
p1473
atp1474
a(L3745189004L
L1880226080L
(lp1475
(lp1476
Vesp_log_early_timestamp
p1477
aVesp_log_early_timestamp
p1478
atp1479
a(L3360570486L
L0L
(lp1480
(lp1481
tp1482
atp1483
sI1074236776
(Vefuse_hal_chip_revision
p1484
(lp1485
(L1761205471L
L1880226080L
(lp1486
(lp1487
Vefuse_hal_get_major_chip_version
p1488
aVefuse_hal_get_minor_chip_version
p1489
atp1490
atp1491
sI1074243700
(Vesp_rom_spiflash_program_page_internal
p1492
(lp1493
(L2569069283L
L0L
(lp1494
(lp1495
tp1496
a(L2258688483L
L0L
(lp1497
(lp1498
tp1499
a(L3360570486L
L0L
(lp1500
(lp1501
tp1502
a(L3979593906L
L0L
(lp1503
(lp1504
tp1505
a(L4235661475L
L3785322319L
(lp1506
(lp1507
Vesp_rom_spiflash_wait_idle
p1508
atp1509
a(L1299866312L
L0L
(lp1510
(lp1511
tp1512
a(L3212356251L
L3785322319L
(lp1513
(lp1514
Vesp_rom_spiflash_enable_write
p1515
atp1516
a(L365375006L
L0L
(lp1517
(lp1518
tp1519
a(L3373459509L
L0L
(lp1520
(lp1521
tp1522
a(L2953702749L
L0L
(lp1523
(lp1524
tp1525
a(L2989032L
L0L
(lp1526
(lp1527
tp1528
a(L1965622133L
L0L
(lp1529
(lp1530
tp1531
a(L580718687L
L0L
(lp1532
(lp1533
tp1534
a(L1958113242L
L0L
(lp1535
(lp1536
tp1537
a(L106L
L0L
(lp1538
(lp1539
tp1540
a(L4283177684L
L0L
(lp1541
(lp1542
tp1543
a(L1405253496L
L0L
(lp1544
(lp1545
tp1546
a(L1008982350L
L0L
(lp1547
(lp1548
tp1549
a(L1933954923L
L0L
(lp1550
(lp1551
tp1552
a(L3886319556L
L0L
(lp1553
(lp1554
tp1555
a(L2767679583L
L0L
(lp1556
(lp1557
tp1558
atp1559
sI1074237556
(Vbootloader_common_select_otadata
p1560
(lp1561
(L2342662536L
L0L
(lp1562
(lp1563
tp1564
a(L3806783650L
L0L
(lp1565
(lp1566
tp1567
a(L1674928252L
L0L
(lp1568
(lp1569
tp1570
a(L251571983L
L0L
(lp1571
(lp1572
tp1573
a(L3360570486L
L0L
(lp1574
(lp1575
tp1576
a(L2045232488L
L0L
(lp1577
(lp1578
tp1579
a(L189726519L
L0L
(lp1580
(lp1581
tp1582
a(L3095066987L
L0L
(lp1583
(lp1584
tp1585
a(L3592023188L
L0L
(lp1586
(lp1587
tp1588
a(L1641201884L
L0L
(lp1589
(lp1590
tp1591
atp1592
sI1074238324
(Vbootloader_enable_wp
p1593
(lp1594
(L1117825804L
L3785322319L
(lp1595
(lp1596
Vbootloader_execute_flash_command
p1597
atp1598
atp1599
sI1074237040
(Vcheck_rtc_retain_mem
p1600
(lp1601
(L2826763809L
L0L
(lp1602
(lp1603
tp1604
atp1605
sI1074243196
(Vbootloader_load_image_no_verify
p1606
(lp1607
(L3412781509L
L3785322319L
(lp1608
(lp1609
Vimage_load
p1610
atp1611
atp1612
sI1074235268
(Vbootloader_execute_flash_command
p1613
(lp1614
(L2481595632L
L3785322319L
(lp1615
(lp1616
Vbootloader_flash_execute_command_common
p1617
atp1618
atp1619
sI1074247300
(Vrtc_clk_xtal_freq_get
p1620
(lp1621
(L589915886L
L0L
(lp1622
(lp1623
tp1624
a(L2847936993L
L0L
(lp1625
(lp1626
tp1627
a(L1071097192L
L0L
(lp1628
(lp1629
tp1630
a(L3360570486L
L0L
(lp1631
(lp1632
tp1633
atp1634
sI1074247556
(Vrtc_clk_xtal_freq_update
p1635
(lp1636
(L3478075158L
L0L
(lp1637
(lp1638
tp1639
a(L3509357017L
L0L
(lp1640
(lp1641
tp1642
a(L3020103887L
L0L
(lp1643
(lp1644
tp1645
atp1646
sI1074248068
(Vrtc_clk_cal_internal
p1647
(lp1648
(L2868164087L
L0L
(lp1649
(lp1650
tp1651
a(L3264499533L
L3785322319L
(lp1652
(lp1653
V__assert_func
p1654
atp1655
a(L459043500L
L0L
(lp1656
(lp1657
tp1658
a(L3017366L
L0L
(lp1659
(lp1660
tp1661
a(L2781091364L
L0L
(lp1662
(lp1663
tp1664
a(L4169864463L
L1880226080L
(lp1665
(lp1666
Vrtc_clk_8m_enabled
p1667
aVrtc_clk_8md256_enabled
p1668
atp1669
a(L1223459660L
L3785322319L
(lp1670
(lp1671
Vrtc_clk_8m_enable
p1672
atp1673
a(L1647301351L
L0L
(lp1674
(lp1675
tp1676
a(L3502850147L
L0L
(lp1677
(lp1678
tp1679
a(L97689L
L0L
(lp1680
(lp1681
tp1682
a(L2501776939L
L0L
(lp1683
(lp1684
tp1685
a(L3028464L
L0L
(lp1686
(lp1687
tp1688
a(L3028481L
L0L
(lp1689
(lp1690
tp1691
a(L3450259596L
L0L
(lp1692
(lp1693
tp1694
a(L3541620428L
L3785322319L
(lp1695
(lp1696
Vrtc_clk_xtal_freq_get
p1697
atp1698
a(L2780079961L
L0L
(lp1699
(lp1700
tp1701
a(L3889357869L
L0L
(lp1702
(lp1703
tp1704
a(L1620127935L
L3785322319L
(lp1705
(lp1706
Vesp_log_early_timestamp
p1707
atp1708
a(L3360570486L
L0L
(lp1709
(lp1710
tp1711
a(L946855566L
L0L
(lp1712
(lp1713
tp1714
a(L748565485L
L0L
(lp1715
(lp1716
tp1717
a(L3028481L
L0L
(lp1718
(lp1719
tp1720
a(L3379927380L
L0L
(lp1721
(lp1722
tp1723
a(L755155573L
L3785322319L
(lp1724
(lp1725
Vrtc_clk_8m_enable
p1726
atp1727
a(L3631005548L
L0L
(lp1728
(lp1729
tp1730
a(L2807480841L
L0L
(lp1731
(lp1732
tp1733
a(L3352263364L
L0L
(lp1734
(lp1735
tp1736
atp1737
sI1074243212
(Vesp_partition_table_verify
p1738
(lp1739
(L1518656766L
L0L
(lp1740
(lp1741
tp1742
a(L1171913712L
L0L
(lp1743
(lp1744
tp1745
a(L4287435191L
L0L
(lp1746
(lp1747
tp1748
a(L2910371777L
L0L
(lp1749
(lp1750
tp1751
a(L2810785767L
L0L
(lp1752
(lp1753
tp1754
a(L3360570486L
L0L
(lp1755
(lp1756
tp1757
a(L2334946637L
L0L
(lp1758
(lp1759
tp1760
a(L2478753082L
L0L
(lp1761
(lp1762
tp1763
a(L3020204L
L0L
(lp1764
(lp1765
tp1766
a(L1279341933L
L3785322319L
(lp1767
(lp1768
Vesp_log_early_timestamp
p1769
atp1770
a(L3525717030L
L3785322319L
(lp1771
(lp1772
Vesp_log_early_timestamp
p1773
atp1774
a(L4060082208L
L0L
(lp1775
(lp1776
tp1777
a(L2902417580L
L0L
(lp1778
(lp1779
tp1780
a(L3020204L
L0L
(lp1781
(lp1782
tp1783
a(L1980931690L
L3785322319L
(lp1784
(lp1785
Vesp_log_early_timestamp
p1786
atp1787
a(L1367516498L
L0L
(lp1788
(lp1789
tp1790
a(L3814391302L
L0L
(lp1791
(lp1792
tp1793
a(L2902417580L
L0L
(lp1794
(lp1795
tp1796
a(L1279340476L
L3785322319L
(lp1797
(lp1798
Vesp_log_early_timestamp
p1799
atp1800
a(L1613213999L
L0L
(lp1801
(lp1802
tp1803
a(L1167861556L
L0L
(lp1804
(lp1805
tp1806
a(L3260980605L
L0L
(lp1807
(lp1808
tp1809
a(L2910371777L
L0L
(lp1810
(lp1811
tp1812
a(L1235012932L
L0L
(lp1813
(lp1814
tp1815
a(L2384762683L
L3785322319L
(lp1816
(lp1817
Vesp_log_early_timestamp
p1818
atp1819
atp1820
sI1074241420
(Vverify_load_addresses
p1821
(lp1822
(L2763563698L
L0L
(lp1823
(lp1824
tp1825
a(L106L
L0L
(lp1826
(lp1827
tp1828
a(L97642L
L0L
(lp1829
(lp1830
tp1831
a(L1003905614L
L3785322319L
(lp1832
(lp1833
V__assert_func
p1834
atp1835
a(L1143522018L
L0L
(lp1836
(lp1837
tp1838
a(L106L
L0L
(lp1839
(lp1840
tp1841
a(L2112096267L
L0L
(lp1842
(lp1843
tp1844
a(L106L
L0L
(lp1845
(lp1846
tp1847
a(L3523782570L
L3785322319L
(lp1848
(lp1849
Vbootloader_util_regions_overlap
p1850
atp1851
a(L2605817551L
L3785322319L
(lp1852
(lp1853
Vbootloader_util_regions_overlap
p1854
atp1855
a(L3028481L
L0L
(lp1856
(lp1857
tp1858
a(L2946329814L
L3785322319L
(lp1859
(lp1860
Vbootloader_util_regions_overlap
p1861
atp1862
a(L1502100891L
L0L
(lp1863
(lp1864
tp1865
a(L2387747879L
L0L
(lp1866
(lp1867
tp1868
a(L3812607188L
L0L
(lp1869
(lp1870
tp1871
a(L1378784754L
L0L
(lp1872
(lp1873
tp1874
a(L642339957L
L0L
(lp1875
(lp1876
tp1877
a(L677569396L
L3785322319L
(lp1878
(lp1879
Vverify_load_addresses
p1880
atp1881
a(L1351513776L
L0L
(lp1882
(lp1883
tp1884
a(L1681779664L
L0L
(lp1885
(lp1886
tp1887
a(L442864479L
L0L
(lp1888
(lp1889
tp1890
a(L498862735L
L3785322319L
(lp1891
(lp1892
Vbootloader_util_regions_overlap
p1893
atp1894
a(L3028481L
L0L
(lp1895
(lp1896
tp1897
a(L3990340598L
L3785322319L
(lp1898
(lp1899
Vbootloader_util_regions_overlap
p1900
atp1901
a(L2334313048L
L0L
(lp1902
(lp1903
tp1904
a(L1728651739L
L0L
(lp1905
(lp1906
tp1907
a(L938770818L
L0L
(lp1908
(lp1909
tp1910
a(L1654457071L
L0L
(lp1911
(lp1912
tp1913
a(L307918210L
L0L
(lp1914
(lp1915
tp1916
a(L697239146L
L0L
(lp1917
(lp1918
tp1919
a(L106L
L0L
(lp1920
(lp1921
tp1922
a(L955486314L
L0L
(lp1923
(lp1924
tp1925
a(L307916788L
L0L
(lp1926
(lp1927
tp1928
a(L490080443L
L0L
(lp1929
(lp1930
tp1931
a(L106L
L0L
(lp1932
(lp1933
tp1934
a(L3385379627L
L3785322319L
(lp1935
(lp1936
Vesp_log_early_timestamp
p1937
atp1938
a(L955485694L
L0L
(lp1939
(lp1940
tp1941
a(L1303560427L
L0L
(lp1942
(lp1943
tp1944
atp1945
sI1074238344
(Vbootloader_mmap_get_free_pages
p1946
(lp1947
(L1496516875L
L0L
(lp1948
(lp1949
tp1950
atp1951
sI1074236808
(Vefuse_hal_flash_encryption_enabled
p1952
(lp1953
(L2780109918L
L0L
(lp1954
(lp1955
tp1956
a(L2910371777L
L0L
(lp1957
(lp1958
tp1959
a(L3360570486L
L0L
(lp1960
(lp1961
tp1962
a(L3016870L
L0L
(lp1963
(lp1964
tp1965
a(L3745038218L
L0L
(lp1966
(lp1967
tp1968
a(L957607403L
L0L
(lp1969
(lp1970
tp1971
atp1972
sI1074246024
(Vwdt_hal_set_flashboot_en
p1973
(lp1974
(L2375320464L
L0L
(lp1975
(lp1976
tp1977
a(L2716561907L
L0L
(lp1978
(lp1979
tp1980
a(L3360570486L
L0L
(lp1981
(lp1982
tp1983
a(L2967380441L
L0L
(lp1984
(lp1985
tp1986
atp1987
sI1074239380
(Vtry_load_partition
p1988
(lp1989
(L1263750142L
L0L
(lp1990
(lp1991
tp1992
a(L2258688482L
L0L
(lp1993
(lp1994
tp1995
a(L3360570486L
L0L
(lp1996
(lp1997
tp1998
a(L530241438L
L3785322319L
(lp1999
(lp2000
Vbootloader_load_image
p2001
atp2002
a(L1279595199L
L3785322319L
(lp2003
(lp2004
Vesp_log_early_timestamp
p2005
atp2006
atp2007
sI1074241172
(Vprocess_image_header
p2008
(lp2009
(L838463841L
L3785322319L
(lp2010
(lp2011
Vbootloader_flash_read
p2012
atp2013
a(L3020204L
L0L
(lp2014
(lp2015
tp2016
a(L1583805461L
L0L
(lp2017
(lp2018
tp2019
a(L1727394037L
L0L
(lp2020
(lp2021
tp2022
a(L1161397362L
L3785322319L
(lp2023
(lp2024
Vbootloader_sha256_start
p2025
atp2026
a(L1948257695L
L3785322319L
(lp2027
(lp2028
Vbootloader_sha256_data
p2029
atp2030
a(L1095449651L
L0L
(lp2031
(lp2032
tp2033
a(L3020204L
L0L
(lp2034
(lp2035
tp2036
a(L702738890L
L0L
(lp2037
(lp2038
tp2039
a(L3360570486L
L0L
(lp2040
(lp2041
tp2042
a(L1582766538L
L3785322319L
(lp2043
(lp2044
Vesp_log_early_timestamp
p2045
atp2046
a(L3718883008L
L3785322319L
(lp2047
(lp2048
Vbootloader_common_check_chip_validity
p2049
atp2050
a(L3677035427L
L0L
(lp2051
(lp2052
tp2053
a(L3028481L
L0L
(lp2054
(lp2055
tp2056
a(L4202148072L
L3785322319L
(lp2057
(lp2058
Vesp_log_early_timestamp
p2059
atp2060
a(L2250109166L
L0L
(lp2061
(lp2062
tp2063
a(L1235012870L
L0L
(lp2064
(lp2065
tp2066
a(L3063569071L
L0L
(lp2067
(lp2068
tp2069
atp2070
sI1074267804
(Vcall_start_cpu0
p2071
(lp2072
(L1137852827L
L0L
(lp2073
(lp2074
tp2075
a(L549459388L
L0L
(lp2076
(lp2077
tp2078
a(L3212347974L
L3785322319L
(lp2079
(lp2080
Vbootloader_init
p2081
atp2082
a(L94425498L
L3785322319L
(lp2083
(lp2084
Vbootloader_reset
p2085
atp2086
a(L1122046408L
L0L
(lp2087
(lp2088
tp2089
a(L4099474112L
L0L
(lp2090
(lp2091
tp2092
a(L4004585570L
L1880226080L
(lp2093
(lp2094
Vbootloader_utility_load_boot_image_from_deep_sleep
p2095
aVbootloader_utility_load_partition_table
p2096
atp2097
a(L2761094216L
L3785322319L
(lp2098
(lp2099
Vesp_log_early_timestamp
p2100
atp2101
a(L1507585835L
L3785322319L
(lp2102
(lp2103
Vbootloader_utility_get_selected_boot_partition
p2104
atp2105
a(L3548846595L
L1880226080L
(lp2106
(lp2107
Vbootloader_common_get_reset_reason
p2108
aVbootloader_utility_load_boot_image
p2109
atp2110
atp2111
sI1074238352
(Vbootloader_fill_random
p2112
(lp2113
(L3026789978L
L0L
(lp2114
(lp2115
tp2116
a(L2241046853L
L0L
(lp2117
(lp2118
tp2119
a(L97689L
L0L
(lp2120
(lp2121
tp2122
a(L3360570486L
L0L
(lp2123
(lp2124
tp2125
a(L3626986636L
L3785322319L
(lp2126
(lp2127
V__assert_func
p2128
atp2129
a(L2008660626L
L0L
(lp2130
(lp2131
tp2132
a(L3028481L
L0L
(lp2133
(lp2134
tp2135
a(L983138374L
L0L
(lp2136
(lp2137
tp2138
a(L2607138306L
L0L
(lp2139
(lp2140
tp2141
a(L1982128194L
L0L
(lp2142
(lp2143
tp2144
atp2145
sI1074237840
(Vbootloader_munmap
p2146
(lp2147
(L255821599L
L0L
(lp2148
(lp2149
tp2150
a(L2810414182L
L0L
(lp2151
(lp2152
tp2153
a(L3360570486L
L0L
(lp2154
(lp2155
tp2156
atp2157
sI1074246800
(Vrtc_clk_slow_freq_get
p2158
(lp2159
(L772186783L
L0L
(lp2160
(lp2161
tp2162
atp2163
sI1074269584
(Vbootloader_flash_update_id
p2164
(lp2165
(L1179768297L
L3785322319L
(lp2166
(lp2167
Vbootloader_read_flash_id
p2168
atp2169
atp2170
sI1074246556
(Vrtc_clk_8m_enable
p2171
(lp2172
(L2387201586L
L0L
(lp2173
(lp2174
tp2175
a(L752960688L
L0L
(lp2176
(lp2177
tp2178
a(L2151320156L
L0L
(lp2179
(lp2180
tp2181
a(L1391734358L
L0L
(lp2182
(lp2183
tp2184
a(L3360570486L
L0L
(lp2185
(lp2186
tp2187
a(L1318267208L
L0L
(lp2188
(lp2189
tp2190
a(L2506900513L
L0L
(lp2191
(lp2192
tp2193
atp2194
sI1074242716
(Vimage_load
p2195
(lp2196
(L745499722L
L0L
(lp2197
(lp2198
tp2199
a(L1899869538L
L0L
(lp2200
(lp2201
tp2202
a(L9219888L
L0L
(lp2203
(lp2204
tp2205
a(L3287910782L
L0L
(lp2206
(lp2207
tp2208
a(L3020187L
L0L
(lp2209
(lp2210
tp2211
a(L4010488863L
L3785322319L
(lp2212
(lp2213
Vesp_log_early_timestamp
p2214
atp2215
a(L2068384292L
L0L
(lp2216
(lp2217
tp2218
a(L1968553470L
L3785322319L
(lp2219
(lp2220
Vbootloader_sha256_finish
p2221
atp2222
a(L2495752549L
L0L
(lp2223
(lp2224
tp2225
a(L3271848319L
L0L
(lp2226
(lp2227
tp2228
a(L1182930974L
L0L
(lp2229
(lp2230
tp2231
a(L3678851644L
L3785322319L
(lp2232
(lp2233
Vprocess_image_header
p2234
atp2235
a(L1341816907L
L0L
(lp2236
(lp2237
tp2238
a(L909494482L
L0L
(lp2239
(lp2240
tp2241
a(L1028073566L
L3785322319L
(lp2242
(lp2243
Vprocess_segments
p2244
atp2245
a(L3803885910L
L0L
(lp2246
(lp2247
tp2248
a(L94425498L
L3785322319L
(lp2249
(lp2250
Vesp_cpu_in_ocd_debug_mode
p2251
atp2252
a(L454195650L
L3785322319L
(lp2253
(lp2254
Vprocess_checksum
p2255
atp2256
a(L1651117269L
L3785322319L
(lp2257
(lp2258
Vprocess_appended_hash_and_sig
p2259
atp2260
a(L533710513L
L0L
(lp2261
(lp2262
tp2263
a(L505081362L
L0L
(lp2264
(lp2265
tp2266
a(L3212356251L
L3785322319L
(lp2267
(lp2268
Vesp_cpu_in_ocd_debug_mode
p2269
atp2270
a(L1708013513L
L1880226080L
(lp2271
(lp2272
Vbootloader_sha256_finish
p2273
aVbootloader_debug_buffer
p2274
atp2275
a(L2240314845L
L1880226080L
(lp2276
(lp2277
Vesp_log_early_timestamp
p2278
aVbootloader_debug_buffer
p2279
atp2280
a(L978077504L
L0L
(lp2281
(lp2282
tp2283
a(L2068384292L
L0L
(lp2284
(lp2285
tp2286
a(L858449684L
L3785322319L
(lp2287
(lp2288
Vbootloader_sha256_finish
p2289
atp2290
a(L3028481L
L0L
(lp2291
(lp2292
tp2293
a(L93674324L
L0L
(lp2294
(lp2295
tp2296
a(L3046569754L
L0L
(lp2297
(lp2298
tp2299
a(L2429164518L
L0L
(lp2300
(lp2301
tp2302
a(L3553619191L
L0L
(lp2303
(lp2304
tp2305
a(L85798113L
L0L
(lp2306
(lp2307
tp2308
a(L464010095L
L0L
(lp2309
(lp2310
tp2311
a(L835563811L
L3785322319L
(lp2312
(lp2313
Vshould_load
p2314
atp2315
a(L1358360603L
L0L
(lp2316
(lp2317
tp2318
a(L4224160879L
L0L
(lp2319
(lp2320
tp2321
a(L22884489L
L0L
(lp2322
(lp2323
tp2324
a(L741351569L
L0L
(lp2325
(lp2326
tp2327
a(L434644776L
L0L
(lp2328
(lp2329
tp2330
a(L106L
L0L
(lp2331
(lp2332
tp2333
a(L709419389L
L0L
(lp2334
(lp2335
tp2336
a(L1299866312L
L0L
(lp2337
(lp2338
tp2339
atp2340
sI1074240924
(Vbootloader_console_deinit
p2341
(lp2342
(L3555929554L
L0L
(lp2343
(lp2344
tp2345
atp2346
sI1074237084
(Vbootloader_common_ota_select_crc
p2347
(lp2348
(L2928964082L
L0L
(lp2349
(lp2350
tp2351
atp2352
sI1074236572
(Vbootloader_common_get_chip_ver_pkg
p2353
(lp2354
(L1176319107L
L0L
(lp2355
(lp2356
tp2357
atp2358
sI1074245016
(Vwdt_hal_init
p2359
(lp2360
(L1283789163L
L0L
(lp2361
(lp2362
tp2363
a(L397764803L
L0L
(lp2364
(lp2365
tp2366
a(L2805933868L
L0L
(lp2367
(lp2368
tp2369
a(L3092044116L
L0L
(lp2370
(lp2371
tp2372
a(L1157874369L
L0L
(lp2373
(lp2374
tp2375
a(L3360570486L
L0L
(lp2376
(lp2377
tp2378
a(L3570943104L
L0L
(lp2379
(lp2380
tp2381
atp2382
sI1074269096
(Vbootloader_init_mem
p2383
(lp2384
(L1511720305L
L3785322319L
(lp2385
(lp2386
Vesp_cpu_configure_region_protection
p2387
atp2388
atp2389
sI1074269864
(Vbootloader_enable_random
p2390
(lp2391
(L3629192396L
L1880226080L
(lp2392
(lp2393
Vesp_log_early_timestamp
p2394
aVbootloader_random_enable
p2395
atp2396
atp2397
sI1074235300
(Vbootloader_flash_unlock
p2398
(lp2399
(L142706334L
L3785322319L
(lp2400
(lp2401
Vesp_rom_spiflash_wait_idle
p2402
atp2403
a(L4024621237L
L0L
(lp2404
(lp2405
tp2406
a(L4292483033L
L3785322319L
(lp2407
(lp2408
Vbootloader_execute_flash_command
p2409
atp2410
a(L106L
L0L
(lp2411
(lp2412
tp2413
a(L1303560644L
L0L
(lp2414
(lp2415
tp2416
a(L1419965066L
L0L
(lp2417
(lp2418
tp2419
a(L106L
L0L
(lp2420
(lp2421
tp2422
a(L1633120054L
L0L
(lp2423
(lp2424
tp2425
a(L106L
L0L
(lp2426
(lp2427
tp2428
a(L2974484771L
L0L
(lp2429
(lp2430
tp2431
a(L106L
L0L
(lp2432
(lp2433
tp2434
a(L1481761147L
L1880226080L
(lp2435
(lp2436
Vbootloader_execute_flash_command
p2437
aVbootloader_execute_flash_command
p2438
atp2439
a(L2258807654L
L0L
(lp2440
(lp2441
tp2442
a(L489806350L
L1832448559L
(lp2443
(lp2444
Vesp_rom_spiflash_wait_idle
p2445
aVbootloader_execute_flash_command
p2446
aVbootloader_execute_flash_command
p2447
atp2448
a(L879744646L
L1832448559L
(lp2449
(lp2450
Vesp_rom_spiflash_wait_idle
p2451
aVbootloader_execute_flash_command
p2452
aVbootloader_execute_flash_command
p2453
atp2454
a(L1840772931L
L1880226080L
(lp2455
(lp2456
Vesp_rom_spiflash_wait_idle
p2457
aVbootloader_execute_flash_command
p2458
atp2459
a(L2993202392L
L0L
(lp2460
(lp2461
tp2462
a(L508800419L
L1880226080L
(lp2463
(lp2464
Vbootloader_execute_flash_command
p2465
aVbootloader_execute_flash_command
p2466
atp2467
a(L1303560369L
L0L
(lp2468
(lp2469
tp2470
a(L1596544945L
L0L
(lp2471
(lp2472
tp2473
a(L97689L
L0L
(lp2474
(lp2475
tp2476
a(L106L
L0L
(lp2477
(lp2478
tp2479
atp2480
sI1074246816
(Vrtc_clk_slow_freq_get_hz
p2481
(lp2482
(L1276746582L
L0L
(lp2483
(lp2484
tp2485
a(L1090566037L
L0L
(lp2486
(lp2487
tp2488
a(L1187777354L
L0L
(lp2489
(lp2490
tp2491
a(L3360570486L
L0L
(lp2492
(lp2493
tp2494
atp2495
sI1074269600
(Vbootloader_clear_bss_section
p2496
(lp2497
(L2349904411L
L0L
(lp2498
(lp2499
tp2500
atp2501
sI1074240940
(V__assert_func
p2502
(lp2503
(L1259813996L
L0L
(lp2504
(lp2505
tp2506
a(L106L
L0L
(lp2507
(lp2508
tp2509
atp2510
sI1074243500
(Vesp_rom_spiflash_read_status
p2511
(lp2512
(L3562601385L
L0L
(lp2513
(lp2514
tp2515
a(L1182811815L
L0L
(lp2516
(lp2517
tp2518
a(L1932570474L
L0L
(lp2519
(lp2520
tp2521
a(L106L
L0L
(lp2522
(lp2523
tp2524
a(L1922848735L
L0L
(lp2525
(lp2526
tp2527
a(L4004659960L
L0L
(lp2528
(lp2529
tp2530
a(L2123059967L
L0L
(lp2531
(lp2532
tp2533
a(L1973734210L
L0L
(lp2534
(lp2535
tp2536
a(L2392720019L
L0L
(lp2537
(lp2538
tp2539
atp2540
sI1074247340
(Vrtc_clk_cpu_freq_mhz_to_config
p2541
(lp2542
(L2601984125L
L3785322319L
(lp2543
(lp2544
Vrtc_clk_xtal_freq_get
p2545
atp2546
a(L2089656409L
L0L
(lp2547
(lp2548
tp2549
a(L3814337874L
L0L
(lp2550
(lp2551
tp2552
a(L3126521138L
L0L
(lp2553
(lp2554
tp2555
a(L2762074623L
L0L
(lp2556
(lp2557
tp2558
a(L1541996779L
L0L
(lp2559
(lp2560
tp2561
a(L2916936348L
L0L
(lp2562
(lp2563
tp2564
a(L1555485793L
L0L
(lp2565
(lp2566
tp2567
a(L2258897023L
L0L
(lp2568
(lp2569
tp2570
a(L1947499251L
L0L
(lp2571
(lp2572
tp2573
a(L1306331021L
L0L
(lp2574
(lp2575
tp2576
atp2577
sI1074269112
(Vbootloader_random_enable
p2578
(lp2579
(L971009304L
L0L
(lp2580
(lp2581
tp2582
atp2583
sI1074269624
(Vbootloader_read_bootloader_header
p2584
(lp2585
(L2035056403L
L3785322319L
(lp2586
(lp2587
Vbootloader_flash_read
p2588
atp2589
a(L3299813457L
L3785322319L
(lp2590
(lp2591
Vesp_log_early_timestamp
p2592
atp2593
a(L735741265L
L0L
(lp2594
(lp2595
tp2596
atp2597
sI1074244020
(Vesp_rom_spiflash_write
p2598
(lp2599
(L1191373647L
L0L
(lp2600
(lp2601
tp2602
a(L2258688483L
L0L
(lp2603
(lp2604
tp2605
a(L3360570486L
L0L
(lp2606
(lp2607
tp2608
a(L1590344338L
L0L
(lp2609
(lp2610
tp2611
a(L3106685987L
L0L
(lp2612
(lp2613
tp2614
a(L4249336406L
L3785322319L
(lp2615
(lp2616
Vesp_rom_spiflash_program_page_internal
p2617
atp2618
a(L1915738254L
L3785322319L
(lp2619
(lp2620
Vesp_rom_spiflash_program_page_internal
p2621
atp2622
a(L663507325L
L0L
(lp2623
(lp2624
tp2625
a(L2392967593L
L0L
(lp2626
(lp2627
tp2628
a(L564470687L
L0L
(lp2629
(lp2630
tp2631
a(L154459701L
L3785322319L
(lp2632
(lp2633
Vesp_rom_spiflash_program_page_internal
p2634
atp2635
a(L2079643754L
L0L
(lp2636
(lp2637
tp2638
atp2639
sI1074239156
(Vset_actual_ota_seq
p2640
(lp2641
(L4094723830L
L0L
(lp2642
(lp2643
tp2644
a(L823328351L
L0L
(lp2645
(lp2646
tp2647
a(L730631034L
L1832448559L
(lp2648
(lp2649
Vbootloader_common_ota_select_crc
p2650
aVefuse_hal_flash_encryption_enabled
p2651
aVbootloader_flash_erase_sector
p2652
atp2653
a(L3103250323L
L3785322319L
(lp2654
(lp2655
Vbootloader_flash_write
p2656
atp2657
a(L2328906005L
L3785322319L
(lp2658
(lp2659
Vesp_log_early_timestamp
p2660
atp2661
a(L3273741867L
L3785322319L
(lp2662
(lp2663
Vesp_log_early_timestamp
p2664
atp2665
a(L889933560L
L1880226080L
(lp2666
(lp2667
Vindex_to_partition
p2668
aVbootloader_common_update_rtc_retain_mem
p2669
atp2670
atp2671
sI1074236848
(Vefuse_hal_get_major_chip_version
p2672
(lp2673
(L208362539L
L0L
(lp2674
(lp2675
tp2676
a(L894792960L
L0L
(lp2677
(lp2678
tp2679
a(L724635033L
L0L
(lp2680
(lp2681
tp2682
a(L3360570486L
L0L
(lp2683
(lp2684
tp2685
atp2686
sI1074234800
(Vbootloader_flash_execute_command_common
p2687
(lp2688
(L2935702355L
L0L
(lp2689
(lp2690
tp2691
a(L120555589L
L0L
(lp2692
(lp2693
tp2694
a(L2890397610L
L3785322319L
(lp2695
(lp2696
V__assert_func
p2697
atp2698
a(L3021749L
L0L
(lp2699
(lp2700
tp2701
a(L153183703L
L0L
(lp2702
(lp2703
tp2704
a(L901582467L
L0L
(lp2705
(lp2706
tp2707
a(L695082870L
L0L
(lp2708
(lp2709
tp2710
a(L4024113366L
L0L
(lp2711
(lp2712
tp2713
a(L3998568023L
L0L
(lp2714
(lp2715
tp2716
a(L163389185L
L0L
(lp2717
(lp2718
tp2719
a(L2336699050L
L0L
(lp2720
(lp2721
tp2722
a(L4038246755L
L0L
(lp2723
(lp2724
tp2725
a(L1065820671L
L0L
(lp2726
(lp2727
tp2728
a(L3041777204L
L0L
(lp2729
(lp2730
tp2731
a(L3333696662L
L0L
(lp2732
(lp2733
tp2734
a(L963425213L
L0L
(lp2735
(lp2736
tp2737
a(L2106665914L
L0L
(lp2738
(lp2739
tp2740
a(L3360570486L
L0L
(lp2741
(lp2742
tp2743
atp2744
sI1074237104
(Vbootloader_common_ota_select_valid
p2745
(lp2746
(L1563399710L
L3785322319L
(lp2747
(lp2748
Vbootloader_common_ota_select_invalid
p2749
atp2750
a(L3814720849L
L3785322319L
(lp2751
(lp2752
Vbootloader_common_ota_select_crc
p2753
atp2754
a(L3360570486L
L0L
(lp2755
(lp2756
tp2757
atp2758
sI1074247600
(Vrtc_clk_apb_freq_update
p2759
(lp2760
(L1841704389L
L0L
(lp2761
(lp2762
tp2763
atp2764
sI1074270896
(Vmpu_hal_set_region_access
p2765
(lp2766
(L3538356822L
L0L
(lp2767
(lp2768
tp2769
a(L2902417580L
L0L
(lp2770
(lp2771
tp2772
a(L3020187L
L0L
(lp2773
(lp2774
tp2775
a(L3020187L
L0L
(lp2776
(lp2777
tp2778
a(L3360570486L
L0L
(lp2779
(lp2780
tp2781
a(L2258718273L
L0L
(lp2782
(lp2783
tp2784
a(L3446648619L
L0L
(lp2785
(lp2786
tp2787
a(L3739532189L
L0L
(lp2788
(lp2789
tp2790
a(L1300789895L
L0L
(lp2791
(lp2792
tp2793
a(L3472092938L
L0L
(lp2794
(lp2795
tp2796
atp2797
sI1074236604
(Vesp_cpu_in_ocd_debug_mode
p2798
(lp2799
(L2131426160L
L0L
(lp2800
(lp2801
tp2802
atp2803
sI1074244280
(Vesp_rom_spiflash_read
p2804
(lp2805
(L1049473468L
L0L
(lp2806
(lp2807
tp2808
a(L2962423754L
L0L
(lp2809
(lp2810
tp2811
a(L2860271684L
L0L
(lp2812
(lp2813
tp2814
a(L3017366L
L0L
(lp2815
(lp2816
tp2817
a(L106L
L0L
(lp2818
(lp2819
tp2820
a(L1382871118L
L0L
(lp2821
(lp2822
tp2823
a(L106L
L0L
(lp2824
(lp2825
tp2826
a(L1263787764L
L0L
(lp2827
(lp2828
tp2829
a(L3629779559L
L0L
(lp2830
(lp2831
tp2832
a(L1646084303L
L0L
(lp2833
(lp2834
tp2835
a(L3537851620L
L0L
(lp2836
(lp2837
tp2838
a(L106L
L0L
(lp2839
(lp2840
tp2841
a(L2670305459L
L3785322319L
(lp2842
(lp2843
Vesp_rom_spiflash_wait_idle
p2844
atp2845
a(L3021737L
L0L
(lp2846
(lp2847
tp2848
a(L106L
L0L
(lp2849
(lp2850
tp2851
a(L1868280504L
L0L
(lp2852
(lp2853
tp2854
a(L106L
L0L
(lp2855
(lp2856
tp2857
a(L3736481532L
L0L
(lp2858
(lp2859
tp2860
a(L1221163038L
L0L
(lp2861
(lp2862
tp2863
a(L4122060822L
L0L
(lp2864
(lp2865
tp2866
a(L121253891L
L0L
(lp2867
(lp2868
tp2869
a(L2989032L
L0L
(lp2870
(lp2871
tp2872
a(L3819849625L
L0L
(lp2873
(lp2874
tp2875
a(L2943133976L
L0L
(lp2876
(lp2877
tp2878
a(L159915120L
L0L
(lp2879
(lp2880
tp2881
a(L3901820614L
L0L
(lp2882
(lp2883
tp2884
a(L1019633599L
L0L
(lp2885
(lp2886
tp2887
a(L1896415737L
L0L
(lp2888
(lp2889
tp2890
a(L1522202953L
L0L
(lp2891
(lp2892
tp2893
a(L4279609317L
L0L
(lp2894
(lp2895
tp2896
a(L2964559468L
L0L
(lp2897
(lp2898
tp2899
a(L2267384310L
L0L
(lp2900
(lp2901
tp2902
a(L2696140277L
L0L
(lp2903
(lp2904
tp2905
a(L2687789892L
L0L
(lp2906
(lp2907
tp2908
a(L1405253496L
L0L
(lp2909
(lp2910
tp2911
a(L2402829682L
L0L
(lp2912
(lp2913
tp2914
a(L97689L
L0L
(lp2915
(lp2916
tp2917
a(L2258897019L
L0L
(lp2918
(lp2919
tp2920
a(L4014024819L
L0L
(lp2921
(lp2922
tp2923
a(L3621567083L
L0L
(lp2924
(lp2925
tp2926
atp2927
sI1074270664
(Vrtc_vddsdio_get_config
p2928
(lp2929
(L3899931077L
L0L
(lp2930
(lp2931
tp2932
a(L147025923L
L0L
(lp2933
(lp2934
tp2935
a(L318395269L
L0L
(lp2936
(lp2937
tp2938
a(L391444156L
L0L
(lp2939
(lp2940
tp2941
a(L3090886802L
L0L
(lp2942
(lp2943
tp2944
a(L1116012092L
L0L
(lp2945
(lp2946
tp2947
a(L1719615367L
L0L
(lp2948
(lp2949
tp2950
a(L2748129941L
L0L
(lp2951
(lp2952
tp2953
atp2954
sI1074235844
(Vbootloader_flash_cs_timing_config
p2955
(lp2956
(L3796536297L
L0L
(lp2957
(lp2958
tp2959
atp2960
sI1074237636
(Vspi_to_esp_err
p2961
(lp2962
(L2976927426L
L0L
(lp2963
(lp2964
tp2965
a(L366093042L
L0L
(lp2966
(lp2967
tp2968
a(L1892704703L
L0L
(lp2969
(lp2970
tp2971
a(L3126521138L
L0L
(lp2972
(lp2973
tp2974
atp2975
sI1074237892
(Vbootloader_flash_read
p2976
(lp2977
(L2699333355L
L0L
(lp2978
(lp2979
tp2980
a(L4156780288L
L3785322319L
(lp2981
(lp2982
Vesp_log_early_timestamp
p2983
atp2984
a(L44113432L
L0L
(lp2985
(lp2986
tp2987
a(L1299867982L
L0L
(lp2988
(lp2989
tp2990
a(L3360570486L
L0L
(lp2991
(lp2992
tp2993
a(L2660352519L
L0L
(lp2994
(lp2995
tp2996
a(L521140840L
L3785322319L
(lp2997
(lp2998
Vesp_log_early_timestamp
p2999
atp3000
a(L162336582L
L0L
(lp3001
(lp3002
tp3003
a(L1181809534L
L3785322319L
(lp3004
(lp3005
Vesp_log_early_timestamp
p3006
atp3007
a(L3020204L
L0L
(lp3008
(lp3009
tp3010
a(L1398573769L
L0L
(lp3011
(lp3012
tp3013
a(L97422L
L0L
(lp3014
(lp3015
tp3016
a(L1594280760L
L0L
(lp3017
(lp3018
tp3019
a(L3289831216L
L0L
(lp3020
(lp3021
tp3022
a(L2740511810L
L3785322319L
(lp3023
(lp3024
Vesp_log_early_timestamp
p3025
atp3026
a(L2648772405L
L0L
(lp3027
(lp3028
tp3029
a(L1473308190L
L0L
(lp3030
(lp3031
tp3032
a(L1142806294L
L1880226080L
(lp3033
(lp3034
Vesp_rom_spiflash_read
p3035
aVspi_to_esp_err
p3036
atp3037
atp3038
sI1074239428
(Vbootloader_utility_load_partition_table
p3039
(lp3040
(L3653897071L
L3785322319L
(lp3041
(lp3042
Vbootloader_mmap
p3043
atp3044
a(L2316166544L
L3785322319L
(lp3045
(lp3046
Vesp_log_early_timestamp
p3047
atp3048
a(L2258688482L
L0L
(lp3049
(lp3050
tp3051
a(L3360570486L
L0L
(lp3052
(lp3053
tp3054
a(L2379286607L
L3785322319L
(lp3055
(lp3056
Vesp_partition_table_verify
p3057
atp3058
a(L2923480028L
L3785322319L
(lp3059
(lp3060
Vesp_log_early_timestamp
p3061
atp3062
a(L1419108141L
L1880226080L
(lp3063
(lp3064
Vesp_log_early_timestamp
p3065
aVesp_log_early_timestamp
p3066
atp3067
a(L60599615L
L0L
(lp3068
(lp3069
tp3070
a(L3214652505L
L1880226080L
(lp3071
(lp3072
Vbootloader_munmap
p3073
aVesp_log_early_timestamp
p3074
atp3075
a(L4226553678L
L0L
(lp3076
(lp3077
tp3078
a(L3028464L
L0L
(lp3079
(lp3080
tp3081
a(L106L
L0L
(lp3082
(lp3083
tp3084
a(L307915792L
L0L
(lp3085
(lp3086
tp3087
a(L3616625116L
L3785322319L
(lp3088
(lp3089
Vesp_log_early_timestamp
p3090
atp3091
a(L3990577774L
L0L
(lp3092
(lp3093
tp3094
a(L3020187L
L0L
(lp3095
(lp3096
tp3097
a(L2603158830L
L0L
(lp3098
(lp3099
tp3100
a(L1154512247L
L0L
(lp3101
(lp3102
tp3103
a(L844524743L
L0L
(lp3104
(lp3105
tp3106
a(L1308291052L
L0L
(lp3107
(lp3108
tp3109
a(L3521176111L
L0L
(lp3110
(lp3111
tp3112
a(L106L
L0L
(lp3113
(lp3114
tp3115
a(L93674324L
L0L
(lp3116
(lp3117
tp3118
a(L2902417580L
L0L
(lp3119
(lp3120
tp3121
a(L1267035450L
L0L
(lp3122
(lp3123
tp3124
a(L106L
L0L
(lp3125
(lp3126
tp3127
a(L955456151L
L0L
(lp3128
(lp3129
tp3130
a(L1238406299L
L0L
(lp3131
(lp3132
tp3133
a(L106L
L0L
(lp3134
(lp3135
tp3136
a(L1242100383L
L0L
(lp3137
(lp3138
tp3139
a(L106L
L0L
(lp3140
(lp3141
tp3142
a(L106L
L0L
(lp3143
(lp3144
tp3145
a(L2752743958L
L0L
(lp3146
(lp3147
tp3148
atp3149
sI1074240964
(Vabort
p3150
(lp3151
(L3980865809L
L0L
(lp3152
(lp3153
tp3154
a(L409471316L
L0L
(lp3155
(lp3156
tp3157
a(L106L
L0L
(lp3158
(lp3159
tp3160
atp3161
sI1074246092
(Vwdt_hal_write_protect_enable
p3162
(lp3163
(L387778158L
L0L
(lp3164
(lp3165
tp3166
a(L4195472003L
L0L
(lp3167
(lp3168
tp3169
a(L3360570486L
L0L
(lp3170
(lp3171
tp3172
a(L802523425L
L0L
(lp3173
(lp3174
tp3175
atp3176
sI1074236620
(Vesp_rom_uart_tx_wait_idle
p3177
(lp3178
(L708706374L
L0L
(lp3179
(lp3180
tp3181
a(L1301079727L
L0L
(lp3182
(lp3183
tp3184
a(L3597746521L
L0L
(lp3185
(lp3186
tp3187
a(L3694491048L
L0L
(lp3188
(lp3189
tp3190
a(L3055926844L
L0L
(lp3191
(lp3192
tp3193
a(L3360570486L
L0L
(lp3194
(lp3195
tp3196
atp3197
sI1074247628
(Vrtc_clk_cpu_freq_to_xtal
p3198
(lp3199
(L1941718089L
L3785322319L
(lp3200
(lp3201
Vrtc_clk_apb_freq_update
p3202
atp3203
a(L702736306L
L0L
(lp3204
(lp3205
tp3206
a(L277445412L
L0L
(lp3207
(lp3208
tp3209
a(L309988740L
L0L
(lp3210
(lp3211
tp3212
atp3213
sI1074269892
(Vbootloader_print_banner
p3214
(lp3215
(L1149879147L
L1832448559L
(lp3216
(lp3217
Vesp_log_early_timestamp
p3218
aVesp_log_early_timestamp
p3219
aVesp_log_early_timestamp
p3220
atp3221
atp3222
sI1074235592
(Vbootloader_flash_read_sfdp
p3223
(lp3224
(L711701400L
L0L
(lp3225
(lp3226
tp3227
a(L3282613751L
L3785322319L
(lp3228
(lp3229
V__assert_func
p3230
atp3231
a(L3704332455L
L3785322319L
(lp3232
(lp3233
Vbootloader_flash_execute_command_common
p3234
atp3235
atp3236
sI1074237384
(Vbootloader_common_get_active_otadata
p3237
(lp3238
(L3317503532L
L0L
(lp3239
(lp3240
tp3241
a(L2503049265L
L1832448559L
(lp3242
(lp3243
Vbootloader_common_ota_select_valid
p3244
aVbootloader_common_ota_select_valid
p3245
aVbootloader_common_select_otadata
p3246
atp3247
a(L735741265L
L0L
(lp3248
(lp3249
tp3250
atp3251
sI1074246856
(Vrtc_clk_fast_freq_set
p3252
(lp3253
(L1561398871L
L0L
(lp3254
(lp3255
tp3256
atp3257
sI1074237140
(Vbootloader_common_check_chip_validity
p3258
(lp3259
(L722188971L
L0L
(lp3260
(lp3261
tp3262
a(L3834070763L
L3785322319L
(lp3263
(lp3264
Vesp_log_early_timestamp
p3265
atp3266
a(L522103407L
L3785322319L
(lp3267
(lp3268
Vefuse_hal_chip_revision
p3269
atp3270
a(L106L
L0L
(lp3271
(lp3272
tp3273
a(L207355927L
L0L
(lp3274
(lp3275
tp3276
a(L3784621632L
L3785322319L
(lp3277
(lp3278
Vesp_log_early_timestamp
p3279
atp3280
a(L3028464L
L0L
(lp3281
(lp3282
tp3283
a(L4118102069L
L0L
(lp3284
(lp3285
tp3286
a(L3021749L
L0L
(lp3287
(lp3288
tp3289
a(L90432689L
L3785322319L
(lp3290
(lp3291
Vesp_log_early_timestamp
p3292
atp3293
a(L1299867982L
L0L
(lp3294
(lp3295
tp3296
a(L3360570486L
L0L
(lp3297
(lp3298
tp3299
atp3300
sI1074238164
(Vbootloader_flash_erase_sector
p3301
(lp3302
(L4129137686L
L1880226080L
(lp3303
(lp3304
Vesp_rom_spiflash_erase_sector
p3305
aVspi_to_esp_err
p3306
atp3307
atp3308
sI1074240208
(Vbootloader_reset
p3309
(lp3310
(L3354842388L
L3785322319L
(lp3311
(lp3312
Vbootloader_console_deinit
p3313
atp3314
a(L106L
L0L
(lp3315
(lp3316
tp3317
atp3318
sI1074242000
(Vprocess_segments
p3319
(lp3320
(L3883698409L
L0L
(lp3321
(lp3322
tp3323
a(L2495454333L
L0L
(lp3324
(lp3325
tp3326
a(L4578542L
L0L
(lp3327
(lp3328
tp3329
a(L106L
L0L
(lp3330
(lp3331
tp3332
a(L1315312493L
L0L
(lp3333
(lp3334
tp3335
a(L2930165679L
L3785322319L
(lp3336
(lp3337
Vesp_log_early_timestamp
p3338
atp3339
a(L1440180646L
L3785322319L
(lp3340
(lp3341
Vbootloader_flash_read
p3342
atp3343
a(L2279901358L
L3785322319L
(lp3344
(lp3345
Vesp_log_early_timestamp
p3346
atp3347
a(L3360570486L
L0L
(lp3348
(lp3349
tp3350
a(L234193771L
L0L
(lp3351
(lp3352
tp3353
a(L1635713494L
L3785322319L
(lp3354
(lp3355
Vbootloader_sha256_data
p3356
atp3357
a(L926711887L
L0L
(lp3358
(lp3359
tp3360
a(L790360741L
L0L
(lp3361
(lp3362
tp3363
a(L1080561541L
L0L
(lp3364
(lp3365
tp3366
a(L3802068284L
L0L
(lp3367
(lp3368
tp3369
a(L3006419688L
L0L
(lp3370
(lp3371
tp3372
a(L2258867228L
L0L
(lp3373
(lp3374
tp3375
a(L1355332303L
L0L
(lp3376
(lp3377
tp3378
a(L2965680995L
L0L
(lp3379
(lp3380
tp3381
a(L1849436849L
L0L
(lp3382
(lp3383
tp3384
a(L408546132L
L3785322319L
(lp3385
(lp3386
Vesp_log_early_timestamp
p3387
atp3388
a(L3895303701L
L0L
(lp3389
(lp3390
tp3391
a(L310069216L
L0L
(lp3392
(lp3393
tp3394
a(L743109379L
L3785322319L
(lp3395
(lp3396
Vesp_log_early_timestamp
p3397
atp3398
a(L3982404358L
L3785322319L
(lp3399
(lp3400
Vverify_load_addresses
p3401
atp3402
a(L106L
L0L
(lp3403
(lp3404
tp3405
a(L2300166925L
L0L
(lp3406
(lp3407
tp3408
a(L2684012095L
L0L
(lp3409
(lp3410
tp3411
a(L1905937838L
L3785322319L
(lp3412
(lp3413
Vbootloader_mmap
p3414
atp3415
a(L588540138L
L3785322319L
(lp3416
(lp3417
Vesp_log_early_timestamp
p3418
atp3419
a(L3858925252L
L0L
(lp3420
(lp3421
tp3422
a(L1065006348L
L0L
(lp3423
(lp3424
tp3425
a(L1534276982L
L3785322319L
(lp3426
(lp3427
Vbootloader_munmap
p3428
atp3429
a(L3105361649L
L0L
(lp3430
(lp3431
tp3432
a(L1216016797L
L3785322319L
(lp3433
(lp3434
Vbootloader_fill_random
p3435
atp3436
a(L3570641403L
L0L
(lp3437
(lp3438
tp3439
a(L3574335487L
L0L
(lp3440
(lp3441
tp3442
a(L3450268858L
L0L
(lp3443
(lp3444
tp3445
a(L3021749L
L0L
(lp3446
(lp3447
tp3448
a(L1609678444L
L0L
(lp3449
(lp3450
tp3451
a(L1777728568L
L0L
(lp3452
(lp3453
tp3454
a(L3020204L
L0L
(lp3455
(lp3456
tp3457
a(L1478777665L
L0L
(lp3458
(lp3459
tp3460
a(L2076461546L
L0L
(lp3461
(lp3462
tp3463
a(L3832868376L
L0L
(lp3464
(lp3465
tp3466
a(L1749969336L
L0L
(lp3467
(lp3468
tp3469
a(L670934548L
L0L
(lp3470
(lp3471
tp3472
a(L1903785265L
L3785322319L
(lp3473
(lp3474
Vbootloader_sha256_data
p3475
atp3476
a(L90548756L
L0L
(lp3477
(lp3478
tp3479
a(L4195963580L
L0L
(lp3480
(lp3481
tp3482
a(L2572638616L
L0L
(lp3483
(lp3484
tp3485
a(L3740179196L
L0L
(lp3486
(lp3487
tp3488
a(L233873941L
L3785322319L
(lp3489
(lp3490
Vshould_load
p3491
atp3492
a(L3070788781L
L0L
(lp3493
(lp3494
tp3495
a(L1864178875L
L3785322319L
(lp3496
(lp3497
Vesp_log_early_timestamp
p3498
atp3499
a(L1836486280L
L0L
(lp3500
(lp3501
tp3502
a(L2104869604L
L0L
(lp3503
(lp3504
tp3505
a(L3052981012L
L0L
(lp3506
(lp3507
tp3508
a(L2902417580L
L0L
(lp3509
(lp3510
tp3511
a(L2636912524L
L0L
(lp3512
(lp3513
tp3514
a(L4195318902L
L3785322319L
(lp3515
(lp3516
Vbootloader_mmap_get_free_pages
p3517
atp3518
a(L3028481L
L0L
(lp3519
(lp3520
tp3521
a(L124545238L
L0L
(lp3522
(lp3523
tp3524
atp3525
sI1074240728
(Vbootloader_sha256_finish
p3526
(lp3527
(L4066096136L
L0L
(lp3528
(lp3529
tp3530
a(L2542787905L
L0L
(lp3531
(lp3532
tp3533
a(L3506562074L
L3785322319L
(lp3534
(lp3535
V__assert_func
p3536
atp3537
a(L3020204L
L0L
(lp3538
(lp3539
tp3540
a(L1723205667L
L0L
(lp3541
(lp3542
tp3543
a(L2534656226L
L0L
(lp3544
(lp3545
tp3546
a(L3596634543L
L3785322319L
(lp3547
(lp3548
Vbootloader_sha256_data
p3549
atp3550
a(L235060650L
L0L
(lp3551
(lp3552
tp3553
a(L3504422227L
L3785322319L
(lp3554
(lp3555
Vbootloader_sha256_data
p3556
atp3557
a(L8738296L
L0L
(lp3558
(lp3559
tp3560
a(L657425439L
L0L
(lp3561
(lp3562
tp3563
a(L41057186L
L0L
(lp3564
(lp3565
tp3566
a(L657425439L
L0L
(lp3567
(lp3568
tp3569
a(L1015565604L
L0L
(lp3570
(lp3571
tp3572
a(L2061826288L
L0L
(lp3573
(lp3574
tp3575
a(L3347778L
L0L
(lp3576
(lp3577
tp3578
a(L3360570486L
L0L
(lp3579
(lp3580
tp3581
atp3582
sI1074240472
(Vindex_to_partition
p3583
(lp3584
(L4066096119L
L0L
(lp3585
(lp3586
tp3587
a(L1739185955L
L0L
(lp3588
(lp3589
tp3590
a(L2171552758L
L0L
(lp3591
(lp3592
tp3593
a(L2808906342L
L0L
(lp3594
(lp3595
tp3596
a(L2101481936L
L0L
(lp3597
(lp3598
tp3599
a(L3698927993L
L0L
(lp3600
(lp3601
tp3602
a(L2808826781L
L0L
(lp3603
(lp3604
tp3605
a(L3003398163L
L0L
(lp3606
(lp3607
tp3608
a(L1104460200L
L0L
(lp3609
(lp3610
tp3611
a(L1087646172L
L0L
(lp3612
(lp3613
tp3614
atp3615
sI1074237668
(Vbootloader_mmap
p3616
(lp3617
(L3202316379L
L0L
(lp3618
(lp3619
tp3620
a(L281569559L
L3785322319L
(lp3621
(lp3622
Vesp_log_early_timestamp
p3623
atp3624
a(L1182811810L
L0L
(lp3625
(lp3626
tp3627
a(L3496950L
L0L
(lp3628
(lp3629
tp3630
a(L1638147749L
L0L
(lp3631
(lp3632
tp3633
a(L194538531L
L3785322319L
(lp3634
(lp3635
Vesp_log_early_timestamp
p3636
atp3637
a(L1046395873L
L0L
(lp3638
(lp3639
tp3640
a(L135388865L
L3785322319L
(lp3641
(lp3642
Vesp_log_early_timestamp
p3643
atp3644
a(L2340413822L
L0L
(lp3645
(lp3646
tp3647
atp3648
sI1074245604
(Vwdt_hal_config_stage
p3649
(lp3650
(L331558507L
L0L
(lp3651
(lp3652
tp3653
a(L4279082939L
L0L
(lp3654
(lp3655
tp3656
a(L3020204L
L0L
(lp3657
(lp3658
tp3659
a(L3020187L
L0L
(lp3660
(lp3661
tp3662
a(L3020187L
L0L
(lp3663
(lp3664
tp3665
a(L94425498L
L3785322319L
(lp3666
(lp3667
Vabort
p3668
atp3669
a(L3169146260L
L0L
(lp3670
(lp3671
tp3672
a(L3360570486L
L0L
(lp3673
(lp3674
tp3675
a(L2570095916L
L0L
(lp3676
(lp3677
tp3678
a(L2630698345L
L0L
(lp3679
(lp3680
tp3681
a(L3142002758L
L0L
(lp3682
(lp3683
tp3684
a(L3020187L
L0L
(lp3685
(lp3686
tp3687
a(L2902417580L
L0L
(lp3688
(lp3689
tp3690
a(L3020187L
L0L
(lp3691
(lp3692
tp3693
a(L3028464L
L0L
(lp3694
(lp3695
tp3696
a(L2720957315L
L0L
(lp3697
(lp3698
tp3699
a(L2254402966L
L0L
(lp3700
(lp3701
tp3702
a(L1666089228L
L0L
(lp3703
(lp3704
tp3705
a(L4127982619L
L0L
(lp3706
(lp3707
tp3708
atp3709
sI1074238444
(Vbootloader_random_disable
p3710
(lp3711
(L42066006L
L0L
(lp3712
(lp3713
tp3714
atp3715
sI1074246380
(Vrtc_clk_32k_enable_common
p3716
(lp3717
(L3938095923L
L0L
(lp3718
(lp3719
tp3720
atp3721
sI1074248684
(V_fini
p3722
(lp3723
(L3493042598L
L0L
(lp3724
(lp3725
tp3726
atp3727
sI1074269668
(Vbootloader_check_bootloader_validity
p3728
(lp3729
(L1057666116L
L1832448559L
(lp3730
(lp3731
Vefuse_hal_chip_revision
p3732
aVesp_log_early_timestamp
p3733
aVbootloader_common_check_chip_validity
p3734
atp3735
atp3736
sI1074238184
(Vbootloader_flash_write
p3737
(lp3738
(L3119145091L
L0L
(lp3739
(lp3740
tp3741
a(L1875582464L
L3785322319L
(lp3742
(lp3743
Vesp_log_early_timestamp
p3744
atp3745
a(L44113432L
L0L
(lp3746
(lp3747
tp3748
a(L1610445075L
L0L
(lp3749
(lp3750
tp3751
a(L735741265L
L0L
(lp3752
(lp3753
tp3754
a(L3291333414L
L0L
(lp3755
(lp3756
tp3757
a(L2835528740L
L3785322319L
(lp3758
(lp3759
Vesp_log_early_timestamp
p3760
atp3761
a(L3283691850L
L0L
(lp3762
(lp3763
tp3764
a(L3837798183L
L3785322319L
(lp3765
(lp3766
Vesp_log_early_timestamp
p3767
atp3768
a(L3212356251L
L3785322319L
(lp3769
(lp3770
Vbootloader_flash_unlock
p3771
atp3772
a(L1799218633L
L0L
(lp3773
(lp3774
tp3775
a(L94425498L
L3785322319L
(lp3776
(lp3777
Vesp_rom_spiflash_write_encrypted
p3778
atp3779
a(L2927190544L
L3785322319L
(lp3780
(lp3781
Vspi_to_esp_err
p3782
atp3783
a(L2927190544L
L3785322319L
(lp3784
(lp3785
Vesp_rom_spiflash_write
p3786
atp3787
atp3788
sI1074246120
(Vefuse_hal_get_rated_freq_mhz
p3789
(lp3790
(L1680594370L
L0L
(lp3791
(lp3792
tp3793
a(L2965302338L
L0L
(lp3794
(lp3795
tp3796
a(L3360570486L
L0L
(lp3797
(lp3798
tp3799
atp3800
sI1074241012
(Vbootloader_ana_clock_glitch_reset_config
p3801
(lp3802
(L2100504542L
L0L
(lp3803
(lp3804
tp3805
atp3806
sI1074246900
(Vrtc_clk_fast_freq_get
p3807
(lp3808
(L81196607L
L0L
(lp3809
(lp3810
tp3811
atp3812
sI1074237424
(Vbootloader_common_reset_rtc_retain_mem
p3813
(lp3814
(L2303323211L
L0L
(lp3815
(lp3816
tp3817
atp3818
sI1074240240
(Vbootloader_utility_load_boot_image
p3819
(lp3820
(L3912290829L
L0L
(lp3821
(lp3822
tp3823
a(L1971697651L
L3785322319L
(lp3824
(lp3825
Vtry_load_partition
p3826
atp3827
a(L1305243774L
L3785322319L
(lp3828
(lp3829
Vload_image
p3830
atp3831
a(L883666170L
L3785322319L
(lp3832
(lp3833
Vesp_log_early_timestamp
p3834
atp3835
a(L3827921190L
L3785322319L
(lp3836
(lp3837
Vbootloader_reset
p3838
atp3839
a(L2542673780L
L3785322319L
(lp3840
(lp3841
Vindex_to_partition
p3842
atp3843
a(L1204373741L
L3785322319L
(lp3844
(lp3845
Vtry_load_partition
p3846
atp3847
a(L4185757536L
L0L
(lp3848
(lp3849
tp3850
a(L2070875117L
L3785322319L
(lp3851
(lp3852
Vset_actual_ota_seq
p3853
atp3854
a(L1868897605L
L3785322319L
(lp3855
(lp3856
Vlog_invalid_app_partition
p3857
atp3858
a(L831650730L
L0L
(lp3859
(lp3860
tp3861
a(L3021737L
L0L
(lp3862
(lp3863
tp3864
a(L695456438L
L0L
(lp3865
(lp3866
tp3867
a(L2367973777L
L3785322319L
(lp3868
(lp3869
Vtry_load_partition
p3870
atp3871
a(L365950802L
L3785322319L
(lp3872
(lp3873
Vesp_log_early_timestamp
p3874
atp3875
a(L2185156151L
L3785322319L
(lp3876
(lp3877
Vindex_to_partition
p3878
atp3879
a(L1204373741L
L3785322319L
(lp3880
(lp3881
Vtry_load_partition
p3882
atp3883
a(L3061261803L
L0L
(lp3884
(lp3885
tp3886
a(L3582858798L
L3785322319L
(lp3887
(lp3888
Vlog_invalid_app_partition
p3889
atp3890
a(L2305433642L
L3785322319L
(lp3891
(lp3892
Vesp_log_early_timestamp
p3893
atp3894
atp3895
sI1074241788
(Vprocess_appended_hash_and_sig
p3896
(lp3897
(L3580132405L
L0L
(lp3898
(lp3899
tp3900
a(L3028481L
L0L
(lp3901
(lp3902
tp3903
a(L1591589631L
L0L
(lp3904
(lp3905
tp3906
a(L22297358L
L0L
(lp3907
(lp3908
tp3909
a(L2191617549L
L0L
(lp3910
(lp3911
tp3912
a(L2860206299L
L3785322319L
(lp3913
(lp3914
Vesp_log_early_timestamp
p3915
atp3916
a(L894030452L
L3785322319L
(lp3917
(lp3918
Vbootloader_flash_read
p3919
atp3920
a(L3871473710L
L0L
(lp3921
(lp3922
tp3923
atp3924
sI1074241020
(Vprocess_checksum
p3925
(lp3926
(L1985325516L
L0L
(lp3927
(lp3928
tp3929
a(L2910371777L
L0L
(lp3930
(lp3931
tp3932
a(L1649277394L
L0L
(lp3933
(lp3934
tp3935
a(L2910371777L
L0L
(lp3936
(lp3937
tp3938
a(L2902417580L
L0L
(lp3939
(lp3940
tp3941
a(L1644002876L
L3785322319L
(lp3942
(lp3943
Vbootloader_sha256_data
p3944
atp3945
a(L3612796056L
L0L
(lp3946
(lp3947
tp3948
a(L1811888222L
L3785322319L
(lp3949
(lp3950
Vbootloader_flash_read
p3951
atp3952
a(L3126521138L
L0L
(lp3953
(lp3954
tp3955
a(L3547574353L
L0L
(lp3956
(lp3957
tp3958
a(L2109318166L
L3785322319L
(lp3959
(lp3960
Vesp_log_early_timestamp
p3961
atp3962
atp3963
sI1074235644
(Vbootloader_read_flash_id
p3964
(lp3965
(L3925322170L
L3785322319L
(lp3966
(lp3967
Vbootloader_execute_flash_command
p3968
atp3969
atp3970
sI1074236920
(Vefuse_hal_get_minor_chip_version
p3971
(lp3972
(L484689204L
L0L
(lp3973
(lp3974
tp3975
atp3976
ssS'functionsdups'
p3977
g11
((lp3978
tp3979
Rp3980
sS'immediatedups'
p3981
g11
((lp3982
tp3983
Rp3984
sS'functiondups'
p3985
g11
((lp3986
tp3987
Rp3988
sS'fuzzy'
p3989
(dp3990
L1536L
I1074240940
sL617583950L
I1074237140
sL430153639L
I1074235956
sL3121027072L
I1074270664
sL1655084846L
I1074237460
sL2082889262L
I1074241788
sL3879741902L
I1074241420
sL3538491111L
I1074247628
sL2919016435L
I1074235300
sL16208487L
I1074234800
sL1613424182L
I1074240108
sL2680783959L
I1074235688
sL3512578114L
I1074239380
sL114144873L
I1074237444
sL2469233929L
I1074240728
sL1792232694L
I1074246216
sL4011111091L
I1074237892
sL1377559356L
I1074242716
sL3897252859L
I1074239296
sL1065525808L
I1074236936
sL3979510406L
I1074267804
sL2327783177L
I1074241020
sL1164839255L
I1074242000
sL449860969L
I1074247340
sL3210669721L
I1074246496
sL1332800441L
I1074237384
sL2884218272L
I1074267980
sL1345429244L
I1074241172
sL2689419264L
I1074246916
sL4160102055L
I1074240208
sL4202185385L
I1074243592
sL2453272040L
I1074248068
sL3690558760L
I1074270036
sL1768086576L
I1074236424
sL4171975289L
I1074243888
sL1565254297L
I1074244192
sL1205407754L
I1074240240
sL1636176981L
I1074268200
sL2191698036L
I1074269740
sL1513350244L
I1074239804
sL2474570535L
I1074238352
sL3428965560L
I1074247744
sL519424169L
I1074248524
sL99418163L
I1074239156
sL812946199L
I1074237668
sL737694352L
I1074243700
sL503029138L
I1074243640
sL277788135L
I1074244280
sL3991645697L
I1074268928
sL47534270L
I1074238772
sL2262558768L
I1074243500
sL424867129L
I1074244020
sL3834155367L
I1074241364
sL176878843L
I1074239428
sL3883282432L
I1074241880
sL4173399607L
I1074243212
sL2726385143L
I1074245604
sL1667054119L
I1074240564
sL4191211306L
I1074247428
sL2687107543L
I1074270208
sL206902443L
I1074238184
ssb.