ccopy_reg
_reconstructor
p0
(crizzo
RizzoSignature
p1
c__builtin__
object
p2
Ntp3
Rp4
(dp5
S'formal'
p6
(dp7
L61540265L
I1074234800
sL4149167435L
I1074235688
sL2074603168L
I1074269136
sL2048961576L
I1074240672
sL1986973543L
I1074269980
sL3061073278L
I1074239960
sL2432811019L
I1074247032
sL1741170115L
I1074238016
sL633479887L
I1074240688
sL2156867713L
I1074267968
sL432834268L
I1074248224
sL2226187430L
I1074238296
sL2137527423L
I1074236848
sL777872458L
I1074248256
sL3871711965L
I1074238624
sL4213015302L
I1074242928
sL1984013661L
I1074247332
sL104522008L
I1074237040
sL3211103558L
I1074236424
sL3955774956L
I1074237692
sL2028381634L
I1074245684
sL2321455737L
I1074248416
sL1359501856L
I1074239624
sL1010441494L
I1074247072
sL2896295319L
I1074236936
sL271775752L
I1074267808
sL2590834774L
I1074270920
sL4114820221L
I1074267984
sL855787331L
I1074243752
sL1104514710L
I1074269764
sL2467304534L
I1074236620
sL1680425056L
I1074243924
sL2064138823L
I1074269888
sL4065997320L
I1074246632
sL3083583385L
I1074270012
sL900327418L
I1074247160
sL359363645L
I1074241748
sL1585823442L
I1074245824
sL744601145L
I1074235844
sL4003205572L
I1074270232
sL2347959722L
I1074268952
sL4026536540L
I1074243620
sL26887879L
I1074243232
sL2307242981L
I1074237520
sL2657357824L
I1074237096
sL3961899840L
I1074243372
sL263605983L
I1074240768
sL731792885L
I1074268204
sL1426318444L
I1074247800
sL2045471388L
I1074236684
sL3247711715L
I1074245756
sL3412731112L
I1074243324
sL3730295765L
I1074245652
sL1140530296L
I1074240712
sL676927194L
I1074248480
sL3712974027L
I1074246440
sL3307282855L
I1074238176
sL4040482908L
I1074246112
sL450290526L
I1074270848
sL2171678973L
I1074247360
sL612086517L
I1074235300
sL4114736847L
I1074236920
sL242136289L
I1074238036
sL3844512690L
I1074237008
sL2379627086L
I1074236808
sL395154964L
I1074269608
sL3035696490L
I1074245336
sL1540116328L
I1074242944
sL83337299L
I1074237488
sL1156874576L
I1074236604
sL666229264L
I1074240312
sL4013669788L
I1074247476
sL1652900655L
I1074238612
sL1371353105L
I1074246288
sL23021043L
I1074235956
sL48580680L
I1074239200
sL493999838L
I1074267916
sL2997001746L
I1074237340
sL3970660634L
I1074241536
sL1901372901L
I1074246532
sL1419107873L
I1074247756
sL541879289L
I1074246648
sL3588042603L
I1074239248
sL3636909694L
I1074269692
sL2610239788L
I1074246464
sL2819127986L
I1074237060
sL243291962L
I1074240920
sL2988777118L
I1074243432
sL549239041L
I1074238204
sL960764153L
I1074267139
sL4033052637L
I1074246228
sL3783856456L
I1074244748
sL1164083360L
I1074235644
sL1577973455L
I1074239092
sL1242724561L
I1074235592
sL294958673L
I1074241628
sL2231079997L
I1074269624
sL593775276L
I1074246416
sL2249539038L
I1074240220
sL1012036252L
I1074244012
sL4142749756L
I1074236572
sL1865528544L
I1074245852
sL3791647789L
I1074270060
sL2160092182L
I1074270688
sL3397796702L
I1074240292
sL2263182908L
I1074238196
sL952628764L
I1074246588
sL84692951L
I1074269916
sL1677784797L
I1074245888
sL2467527886L
I1074245948
sL188664287L
I1074235268
sL721128985L
I1074241168
sL2959238529L
I1074237408
sL692536993L
I1074237380
sL2319953056L
I1074239008
sL3845421789L
I1074237744
sL4079009225L
I1074242464
sL2663572780L
I1074240476
sL3726875853L
I1074269648
sL3608561895L
I1074269120
sL321099729L
I1074246548
sL2986091524L
I1074247288
sL4267894680L
I1074236776
sL3763660718L
I1074239928
sL2246062622L
I1074241112
ssS'immediates'
p8
(dp9
sS'formaldups'
p10
c__builtin__
set
p11
((lp12
tp13
Rp14
sS'stringdups'
p15
g11
((lp16
tp17
Rp18
sS'fuzzydups'
p19
g11
((lp20
tp21
Rp22
sS'strings'
p23
(dp24
sS'functions'
p25
(dp26
I1074267916
(Vbootloader_common_vddsdio_configure
p27
(lp28
(L1922017289L
L3785322319L
(lp29
(lp30
Vrtc_vddsdio_get_config
p31
atp32
a(L1185899578L
L3785322319L
(lp33
(lp34
Vrtc_vddsdio_set_config
p35
atp36
a(L3360570486L
L0L
(lp37
(lp38
tp39
atp40
sI1074241536
(Vprocess_appended_hash_and_sig
p41
(lp42
(L3580132405L
L0L
(lp43
(lp44
tp45
a(L3028481L
L0L
(lp46
(lp47
tp48
a(L1591589631L
L0L
(lp49
(lp50
tp51
a(L22297358L
L0L
(lp52
(lp53
tp54
a(L4191754026L
L0L
(lp55
(lp56
tp57
a(L728545027L
L3785322319L
(lp58
(lp59
Vesp_log_early_timestamp
p60
atp61
a(L894030452L
L3785322319L
(lp62
(lp63
Vbootloader_flash_read
p64
atp65
a(L3871473710L
L0L
(lp66
(lp67
tp68
atp69
sI1074240768
(Vprocess_checksum
p70
(lp71
(L1985325516L
L0L
(lp72
(lp73
tp74
a(L2910371777L
L0L
(lp75
(lp76
tp77
a(L1649277394L
L0L
(lp78
(lp79
tp80
a(L2910371777L
L0L
(lp81
(lp82
tp83
a(L2902417580L
L0L
(lp84
(lp85
tp86
a(L1644002876L
L3785322319L
(lp87
(lp88
Vbootloader_sha256_data
p89
atp90
a(L3612796056L
L0L
(lp91
(lp92
tp93
a(L1811888222L
L3785322319L
(lp94
(lp95
Vbootloader_flash_read
p96
atp97
a(L3126521138L
L0L
(lp98
(lp99
tp100
a(L4224515246L
L0L
(lp101
(lp102
tp103
a(L3744681334L
L3785322319L
(lp104
(lp105
Vesp_log_early_timestamp
p106
atp107
atp108
sI1074245888
(Vrtc_clk_bbpll_disable
p109
(lp110
(L369314231L
L0L
(lp111
(lp112
tp113
a(L391691750L
L0L
(lp114
(lp115
tp116
a(L3360570486L
L0L
(lp117
(lp118
tp119
atp120
sI1074267136
(V_init
p121
(lp122
(L3493042598L
L0L
(lp123
(lp124
tp125
atp126
sI1074236684
(Vesp_rom_uart_set_clock_baudrate
p127
(lp128
(L881452272L
L0L
(lp129
(lp130
tp131
a(L3909951828L
L0L
(lp132
(lp133
tp134
a(L1008980029L
L0L
(lp135
(lp136
tp137
a(L869159045L
L0L
(lp138
(lp139
tp140
a(L2805931435L
L0L
(lp141
(lp142
tp143
a(L1926040272L
L0L
(lp144
(lp145
tp146
atp147
sI1074267139
(V_text_start
p148
(lp149
(L2301627893L
L0L
(lp150
(lp151
tp152
atp153
sI1074236936
(Vis_xmc_chip_strict
p154
(lp155
(L1286841609L
L0L
(lp156
(lp157
tp158
a(L2234016759L
L0L
(lp159
(lp160
tp161
a(L1069027148L
L0L
(lp162
(lp163
tp164
a(L3021749L
L0L
(lp165
(lp166
tp167
a(L1900148749L
L0L
(lp168
(lp169
tp170
a(L1936875721L
L0L
(lp171
(lp172
tp173
a(L3356166509L
L0L
(lp174
(lp175
tp176
a(L1937769451L
L0L
(lp177
(lp178
tp179
a(L2137658907L
L0L
(lp180
(lp181
tp182
a(L4265949734L
L0L
(lp183
(lp184
tp185
a(L3360570486L
L0L
(lp186
(lp187
tp188
atp189
sI1074236424
(Vbootloader_flash_dummy_config
p190
(lp191
(L132211179L
L0L
(lp192
(lp193
tp194
a(L2761717557L
L0L
(lp195
(lp196
tp197
a(L705371371L
L0L
(lp198
(lp199
tp200
a(L2971458626L
L0L
(lp201
(lp202
tp203
a(L1491210540L
L0L
(lp204
(lp205
tp206
a(L3081491917L
L0L
(lp207
(lp208
tp209
a(L1610443405L
L0L
(lp210
(lp211
tp212
a(L4102729993L
L0L
(lp213
(lp214
tp215
a(L1449490182L
L0L
(lp216
(lp217
tp218
a(L1298875775L
L0L
(lp219
(lp220
tp221
a(L3880393601L
L0L
(lp222
(lp223
tp224
a(L1505818087L
L0L
(lp225
(lp226
tp227
a(L1610443436L
L0L
(lp228
(lp229
tp230
atp231
sI1074268952
(Vbootloader_clock_configure
p232
(lp233
(L1154001737L
L1880226080L
(lp234
(lp235
Vesp_rom_uart_tx_wait_idle
p236
aVefuse_hal_chip_revision
p237
atp238
a(L3073528758L
L0L
(lp239
(lp240
tp241
a(L103758575L
L3785322319L
(lp242
(lp243
Vrtc_clk_apb_freq_get
p244
atp245
a(L3737620638L
L1832448559L
(lp246
(lp247
Vrtc_clk_slow_freq_get
p248
aVrtc_clk_fast_freq_get
p249
aVrtc_clk_init
p250
atp251
a(L708382524L
L0L
(lp252
(lp253
tp254
a(L3864824743L
L0L
(lp255
(lp256
tp257
a(L106L
L0L
(lp258
(lp259
tp260
atp261
sI1074270232
(Vrtc_clk_init
p262
(lp263
(L2270943738L
L0L
(lp264
(lp265
tp266
a(L42671777L
L3785322319L
(lp267
(lp268
Vrtc_clk_cpu_freq_to_xtal
p269
atp270
a(L243604311L
L0L
(lp271
(lp272
tp273
a(L4184912069L
L0L
(lp274
(lp275
tp276
a(L2873281153L
L0L
(lp277
(lp278
tp279
a(L912414356L
L3785322319L
(lp280
(lp281
Vrtc_clk_xtal_freq_get
p282
atp283
a(L101925704L
L1157885199L
(lp284
(lp285
Vesp_rom_uart_tx_wait_idle
p286
aVrtc_clk_xtal_freq_update
p287
aVrtc_clk_apb_freq_update
p288
aVrtc_clk_cpu_freq_get_config
p289
aVrtc_clk_cpu_freq_mhz_to_config
p290
atp291
a(L3993941480L
L1880226080L
(lp292
(lp293
Vesp_log_early_timestamp
p294
aVabort
p295
atp296
a(L4187693717L
L3785322319L
(lp297
(lp298
Vrtc_clk_xtal_freq_estimate
p299
atp300
a(L2631690484L
L3785322319L
(lp301
(lp302
Vesp_log_early_timestamp
p303
atp304
a(L4188325301L
L0L
(lp305
(lp306
tp307
a(L1563923531L
L0L
(lp308
(lp309
tp310
a(L106L
L0L
(lp311
(lp312
tp313
a(L4070631878L
L3785322319L
(lp314
(lp315
Vrtc_clk_xtal_freq_estimate
p316
atp317
a(L106L
L0L
(lp318
(lp319
tp320
a(L1889950948L
L3785322319L
(lp321
(lp322
Vesp_log_early_timestamp
p323
atp324
a(L2938525249L
L3785322319L
(lp325
(lp326
Vrtc_clk_cpu_freq_set_config
p327
atp328
a(L4168829660L
L3785322319L
(lp329
(lp330
Vrtc_clk_32k_enable
p331
atp332
a(L3016870L
L0L
(lp333
(lp334
tp335
a(L1839546177L
L3785322319L
(lp336
(lp337
Vrtc_clk_8m_enable
p338
atp339
a(L530469956L
L1880226080L
(lp340
(lp341
Vrtc_clk_fast_freq_set
p342
aVrtc_clk_slow_freq_set
p343
atp344
atp345
sI1074245652
(Vwdt_hal_write_protect_disable
p346
(lp347
(L2655380989L
L0L
(lp348
(lp349
tp350
a(L4195472003L
L0L
(lp351
(lp352
tp353
a(L3360570486L
L0L
(lp354
(lp355
tp356
a(L1210571996L
L0L
(lp357
(lp358
tp359
atp360
sI1074269980
(Vbootloader_console_init
p361
(lp362
(L1755974766L
L1832448559L
(lp363
(lp364
Vesp_rom_uart_tx_wait_idle
p365
aVrtc_clk_apb_freq_get
p366
aVesp_rom_uart_set_clock_baudrate
p367
atp368
atp369
sI1074239248
(Vbootloader_utility_load_partition_table
p370
(lp371
(L337793758L
L3785322319L
(lp372
(lp373
Vbootloader_mmap
p374
atp375
a(L1572404640L
L3785322319L
(lp376
(lp377
Vesp_log_early_timestamp
p378
atp379
a(L2258688482L
L0L
(lp380
(lp381
tp382
a(L3360570486L
L0L
(lp383
(lp384
tp385
a(L2379286607L
L3785322319L
(lp386
(lp387
Vesp_partition_table_verify
p388
atp389
a(L1824441572L
L3785322319L
(lp390
(lp391
Vesp_log_early_timestamp
p392
atp393
a(L555142709L
L1880226080L
(lp394
(lp395
Vesp_log_early_timestamp
p396
aVesp_log_early_timestamp
p397
atp398
a(L60599615L
L0L
(lp399
(lp400
tp401
a(L2509258321L
L1880226080L
(lp402
(lp403
Vbootloader_munmap
p404
aVesp_log_early_timestamp
p405
atp406
a(L4226553678L
L0L
(lp407
(lp408
tp409
a(L3028464L
L0L
(lp410
(lp411
tp412
a(L106L
L0L
(lp413
(lp414
tp415
a(L307915808L
L0L
(lp416
(lp417
tp418
a(L3021439948L
L3785322319L
(lp419
(lp420
Vesp_log_early_timestamp
p421
atp422
a(L3990577774L
L0L
(lp423
(lp424
tp425
a(L3020187L
L0L
(lp426
(lp427
tp428
a(L2559753343L
L0L
(lp429
(lp430
tp431
a(L1154512743L
L0L
(lp432
(lp433
tp434
a(L1380578767L
L0L
(lp435
(lp436
tp437
a(L1308290804L
L0L
(lp438
(lp439
tp440
a(L3477770624L
L0L
(lp441
(lp442
tp443
a(L106L
L0L
(lp444
(lp445
tp446
a(L93674324L
L0L
(lp447
(lp448
tp449
a(L2902417580L
L0L
(lp450
(lp451
tp452
a(L1245794467L
L0L
(lp453
(lp454
tp455
a(L106L
L0L
(lp456
(lp457
tp458
a(L955455903L
L0L
(lp459
(lp460
tp461
a(L1217165316L
L0L
(lp462
(lp463
tp464
a(L106L
L0L
(lp465
(lp466
tp467
a(L1256876719L
L0L
(lp468
(lp469
tp470
a(L106L
L0L
(lp471
(lp472
tp473
a(L106L
L0L
(lp474
(lp475
tp476
a(L2752742501L
L0L
(lp477
(lp478
tp479
atp480
sI1074246416
(Vrtc_clk_8m_enabled
p481
(lp482
(L3754594988L
L0L
(lp483
(lp484
tp485
atp486
sI1074240284
(Vbootloader_debug_buffer
p487
(lp488
(L2100504542L
L0L
(lp489
(lp490
tp491
atp492
sI1074243620
(Vesp_rom_spiflash_erase_sector
p493
(lp494
(L3898401745L
L0L
(lp495
(lp496
tp497
a(L2258688483L
L0L
(lp498
(lp499
tp500
a(L3360570486L
L0L
(lp501
(lp502
tp503
a(L3212356251L
L3785322319L
(lp504
(lp505
Vesp_rom_spiflash_enable_write
p506
atp507
a(L184152988L
L0L
(lp508
(lp509
tp510
a(L1417699914L
L3785322319L
(lp511
(lp512
Vesp_rom_spiflash_wait_idle
p513
atp514
a(L3333707777L
L0L
(lp515
(lp516
tp517
a(L3582858798L
L3785322319L
(lp518
(lp519
Vesp_rom_spiflash_wait_idle
p520
atp521
atp522
sI1074240292
(Vbootloader_sha256_start
p523
(lp524
(L4134328955L
L0L
(lp525
(lp526
tp527
atp528
sI1074268204
(Vbootloader_init
p529
(lp530
(L2725830639L
L3785322319L
(lp531
(lp532
Vbootloader_init_mem
p533
atp534
a(L450731687L
L0L
(lp535
(lp536
tp537
a(L3336286567L
L3785322319L
(lp538
(lp539
V__assert_func
p540
atp541
a(L3188578498L
L0L
(lp542
(lp543
tp544
a(L1277172108L
L0L
(lp545
(lp546
tp547
a(L2926278337L
L0L
(lp548
(lp549
tp550
a(L2851108022L
L0L
(lp551
(lp552
tp553
a(L3027019L
L0L
(lp554
(lp555
tp556
a(L4254309010L
L0L
(lp557
(lp558
tp559
a(L3493878106L
L1157885199L
(lp560
(lp561
Vbootloader_clear_bss_section
p562
aVesp_log_early_timestamp
p563
aVesp_efuse_init_virtual_mode_in_ram
p564
aVbootloader_common_vddsdio_configure
p565
aVbootloader_clock_get_rated_freq_mhz
p566
atp567
a(L3987130017L
L1157885199L
(lp568
(lp569
Vbootloader_clock_configure
p570
aVbootloader_console_init
p571
aVbootloader_print_banner
p572
aVbootloader_flash_update_id
p573
aVbootloader_flash_xmc_startup
p574
atp575
a(L3454443822L
L3785322319L
(lp576
(lp577
Vesp_log_early_timestamp
p578
atp579
a(L2686828954L
L3785322319L
(lp580
(lp581
Vesp_log_early_timestamp
p582
atp583
a(L3360570486L
L0L
(lp584
(lp585
tp586
a(L2444883382L
L3785322319L
(lp587
(lp588
Vbootloader_read_bootloader_header
p589
atp590
a(L2444883382L
L3785322319L
(lp591
(lp592
Vbootloader_check_bootloader_validity
p593
atp594
a(L3224062199L
L2485746240L
(lp595
(lp596
Vbootloader_flash_gpio_config
p597
aVbootloader_flash_dummy_config
p598
aVbootloader_flash_cs_timing_config
p599
aVbootloader_flash_unlock
p600
atp601
a(L2383493498L
L0L
(lp602
(lp603
tp604
a(L2595673921L
L0L
(lp605
(lp606
tp607
a(L3902505858L
L0L
(lp608
(lp609
tp610
a(L105940550L
L3785322319L
(lp611
(lp612
Vesp_log_early_timestamp
p613
atp614
a(L1237620123L
L0L
(lp615
(lp616
tp617
a(L1241314207L
L0L
(lp618
(lp619
tp620
a(L96148167L
L0L
(lp621
(lp622
tp623
a(L99842251L
L0L
(lp624
(lp625
tp626
a(L1404491149L
L0L
(lp627
(lp628
tp629
a(L1867584743L
L3785322319L
(lp630
(lp631
Vesp_log_early_timestamp
p632
atp633
a(L93674324L
L0L
(lp634
(lp635
tp636
a(L3316050533L
L0L
(lp637
(lp638
tp639
a(L718637778L
L0L
(lp640
(lp641
tp642
a(L2781192072L
L0L
(lp643
(lp644
tp645
a(L2773812181L
L0L
(lp646
(lp647
tp648
a(L2127762231L
L3785322319L
(lp649
(lp650
Vesp_log_early_timestamp
p651
atp652
a(L2591789949L
L0L
(lp653
(lp654
tp655
a(L90063939L
L0L
(lp656
(lp657
tp658
a(L820626660L
L0L
(lp659
(lp660
tp661
a(L603769816L
L0L
(lp662
(lp663
tp664
a(L460989957L
L3785322319L
(lp665
(lp666
Vbootloader_enable_wp
p667
atp668
a(L1092107084L
L0L
(lp669
(lp670
tp671
a(L2709958045L
L3785322319L
(lp672
(lp673
Vesp_log_early_timestamp
p674
atp675
a(L1524722668L
L0L
(lp676
(lp677
tp678
a(L502323150L
L0L
(lp679
(lp680
tp681
a(L2902417580L
L0L
(lp682
(lp683
tp684
a(L1944713791L
L1880226080L
(lp685
(lp686
Vwdt_reset_info_dump
p687
aVwdt_reset_info_dump
p688
atp689
a(L428268438L
L1880226080L
(lp690
(lp691
Vbootloader_config_wdt
p692
aVbootloader_enable_random
p693
atp694
a(L4080723741L
L3785322319L
(lp695
(lp696
Vesp_log_early_timestamp
p697
atp698
atp699
sI1074239008
(Vlog_invalid_app_partition
p700
(lp701
(L4293078423L
L0L
(lp702
(lp703
tp704
a(L3028464L
L0L
(lp705
(lp706
tp707
a(L60127667L
L3785322319L
(lp708
(lp709
Vesp_log_early_timestamp
p710
atp711
a(L44113432L
L0L
(lp712
(lp713
tp714
a(L3360570486L
L0L
(lp715
(lp716
tp717
a(L1770519575L
L3785322319L
(lp718
(lp719
Vesp_log_early_timestamp
p720
atp721
a(L2524670070L
L3785322319L
(lp722
(lp723
Vesp_log_early_timestamp
p724
atp725
atp726
sI1074248224
(Vrtc_clk_cal_ratio
p727
(lp728
(L1321915745L
L3785322319L
(lp729
(lp730
Vrtc_clk_cal_internal
p731
atp732
atp733
sI1074248480
(Vesp_efuse_init_virtual_mode_in_ram
p734
(lp735
(L1287383080L
L3785322319L
(lp736
(lp737
Vesp_efuse_utility_update_virt_blocks
p738
atp739
atp740
sI1074243372
(Vesp_rom_spiflash_enable_write
p741
(lp742
(L212476449L
L3785322319L
(lp743
(lp744
Vesp_rom_spiflash_wait_idle
p745
atp746
a(L3137194272L
L0L
(lp747
(lp748
tp749
a(L2258718275L
L0L
(lp750
(lp751
tp752
a(L99543895L
L0L
(lp753
(lp754
tp755
a(L2993202392L
L0L
(lp756
(lp757
tp758
a(L1804543818L
L3785322319L
(lp759
(lp760
Vesp_rom_spiflash_read_status
p761
atp762
atp763
sI1074235688
(Vbootloader_flash_xmc_startup
p764
(lp765
(L4031258446L
L3785322319L
(lp766
(lp767
Vis_xmc_chip_strict
p768
atp769
a(L2258688482L
L0L
(lp770
(lp771
tp772
a(L3360570486L
L0L
(lp773
(lp774
tp775
a(L2860324232L
L3785322319L
(lp776
(lp777
Vbootloader_flash_read_sfdp
p778
atp779
a(L3354428414L
L2567856111L
(lp780
(lp781
Vesp_log_early_timestamp
p782
aVbootloader_execute_flash_command
p783
aVbootloader_execute_flash_command
p784
aVbootloader_execute_flash_command
p785
aVbootloader_execute_flash_command
p786
aVbootloader_read_flash_id
p787
aVis_xmc_chip_strict
p788
atp789
a(L3332645139L
L3785322319L
(lp790
(lp791
Vesp_log_early_timestamp
p792
atp793
atp794
sI1074246440
(Vrtc_clk_8md256_enabled
p795
(lp796
(L2910123117L
L0L
(lp797
(lp798
tp799
atp800
sI1074248488
(V_fini
p801
(lp802
(L3493042598L
L0L
(lp803
(lp804
tp805
atp806
sI1074235956
(Vbootloader_flash_gpio_config
p807
(lp808
(L719792650L
L3785322319L
(lp809
(lp810
Vbootloader_common_get_chip_ver_pkg
p811
atp812
a(L106L
L0L
(lp813
(lp814
tp815
a(L2886083034L
L0L
(lp816
(lp817
tp818
a(L106L
L0L
(lp819
(lp820
tp821
a(L4213870169L
L0L
(lp822
(lp823
tp824
a(L3890032189L
L0L
(lp825
(lp826
tp827
a(L106L
L0L
(lp828
(lp829
tp830
a(L676119430L
L0L
(lp831
(lp832
tp833
a(L4272081986L
L0L
(lp834
(lp835
tp836
a(L3360570486L
L0L
(lp837
(lp838
tp839
atp840
sI1074245684
(Vwdt_hal_enable
p841
(lp842
(L4029830118L
L0L
(lp843
(lp844
tp845
a(L3634439744L
L0L
(lp846
(lp847
tp848
a(L3360570486L
L0L
(lp849
(lp850
tp851
a(L2011576586L
L0L
(lp852
(lp853
tp854
atp855
sI1074247476
(Vrtc_clk_cpu_freq_set_config
p856
(lp857
(L1591980960L
L3785322319L
(lp858
(lp859
Vrtc_clk_xtal_freq_get
p860
atp861
a(L1828795533L
L1880226080L
(lp862
(lp863
Vrtc_clk_cpu_freq_to_xtal
p864
aVrtc_clk_wait_for_slow_cycle
p865
atp866
a(L94425498L
L3785322319L
(lp867
(lp868
Vrtc_clk_bbpll_disable
p869
atp870
a(L3978916712L
L0L
(lp871
(lp872
tp873
a(L2977209154L
L0L
(lp874
(lp875
tp876
a(L2736411858L
L3785322319L
(lp877
(lp878
Vrtc_clk_cpu_freq_to_xtal
p879
atp880
a(L3360570486L
L0L
(lp881
(lp882
tp883
a(L3020187L
L0L
(lp884
(lp885
tp886
a(L106L
L0L
(lp887
(lp888
tp889
a(L3964531486L
L2485746240L
(lp890
(lp891
Vrtc_clk_wait_for_slow_cycle
p892
aVrtc_clk_xtal_freq_get
p893
aVrtc_clk_bbpll_configure
p894
aVrtc_clk_cpu_freq_to_pll_mhz
p895
atp896
a(L3020187L
L0L
(lp897
(lp898
tp899
a(L106L
L0L
(lp900
(lp901
tp902
a(L2214558639L
L0L
(lp903
(lp904
tp905
atp906
sI1074270012
(Vesp_cpu_configure_region_protection
p907
(lp908
(L376178788L
L0L
(lp909
(lp910
tp911
a(L180431425L
L3785322319L
(lp912
(lp913
Vmpu_hal_set_region_access
p914
atp915
a(L2537388152L
L3785322319L
(lp916
(lp917
Vmpu_hal_set_region_access
p918
atp919
atp920
sI1074237744
(Vbootloader_flash_read
p921
(lp922
(L2699333355L
L0L
(lp923
(lp924
tp925
a(L1175362320L
L3785322319L
(lp926
(lp927
Vesp_log_early_timestamp
p928
atp929
a(L44113432L
L0L
(lp930
(lp931
tp932
a(L1299867982L
L0L
(lp933
(lp934
tp935
a(L3360570486L
L0L
(lp936
(lp937
tp938
a(L2660352519L
L0L
(lp939
(lp940
tp941
a(L521140592L
L3785322319L
(lp942
(lp943
Vesp_log_early_timestamp
p944
atp945
a(L162336582L
L0L
(lp946
(lp947
tp948
a(L1181808077L
L3785322319L
(lp949
(lp950
Vesp_log_early_timestamp
p951
atp952
a(L3020204L
L0L
(lp953
(lp954
tp955
a(L1398573769L
L0L
(lp956
(lp957
tp958
a(L97422L
L0L
(lp959
(lp960
tp961
a(L3753789769L
L0L
(lp962
(lp963
tp964
a(L3653028369L
L0L
(lp965
(lp966
tp967
a(L4242981970L
L3785322319L
(lp968
(lp969
Vesp_log_early_timestamp
p970
atp971
a(L4138677549L
L0L
(lp972
(lp973
tp974
a(L753544199L
L0L
(lp975
(lp976
tp977
a(L3408640340L
L1880226080L
(lp978
(lp979
Vesp_rom_spiflash_read
p980
aVspi_to_esp_err
p981
atp982
atp983
sI1074237488
(Vspi_to_esp_err
p984
(lp985
(L2933521939L
L0L
(lp986
(lp987
tp988
a(L366093042L
L0L
(lp989
(lp990
tp991
a(L3549545911L
L0L
(lp992
(lp993
tp994
a(L3126521138L
L0L
(lp995
(lp996
tp997
atp998
sI1074245948
(Vrtc_clk_cpu_freq_to_pll_mhz
p999
(lp1000
(L428013989L
L0L
(lp1001
(lp1002
tp1003
a(L106L
L0L
(lp1004
(lp1005
tp1006
a(L1541997046L
L0L
(lp1007
(lp1008
tp1009
a(L106L
L0L
(lp1010
(lp1011
tp1012
a(L1546614651L
L0L
(lp1013
(lp1014
tp1015
a(L2907368881L
L0L
(lp1016
(lp1017
tp1018
a(L1231145073L
L3785322319L
(lp1019
(lp1020
Vrtc_clk_wait_for_slow_cycle
p1021
atp1022
a(L3451441343L
L1880226080L
(lp1023
(lp1024
Vesp_log_early_timestamp
p1025
aVabort
p1026
atp1027
a(L1183020347L
L0L
(lp1028
(lp1029
tp1030
a(L1305407562L
L0L
(lp1031
(lp1032
tp1033
a(L1306330990L
L0L
(lp1034
(lp1035
tp1036
atp1037
sI1074240312
(Vbootloader_sha256_data
p1038
(lp1039
(L4066096136L
L0L
(lp1040
(lp1041
tp1042
a(L1563173327L
L0L
(lp1043
(lp1044
tp1045
a(L2504541789L
L3785322319L
(lp1046
(lp1047
V__assert_func
p1048
atp1049
a(L498498478L
L0L
(lp1050
(lp1051
tp1052
a(L4268756642L
L0L
(lp1053
(lp1054
tp1055
a(L2910371777L
L0L
(lp1056
(lp1057
tp1058
a(L3360570486L
L0L
(lp1059
(lp1060
tp1061
a(L301121101L
L0L
(lp1062
(lp1063
tp1064
a(L841847518L
L0L
(lp1065
(lp1066
tp1067
a(L1586729644L
L0L
(lp1068
(lp1069
tp1070
a(L2700619295L
L0L
(lp1071
(lp1072
tp1073
a(L1175956750L
L0L
(lp1074
(lp1075
tp1076
a(L1390602840L
L0L
(lp1077
(lp1078
tp1079
a(L3028464L
L0L
(lp1080
(lp1081
tp1082
a(L717127773L
L0L
(lp1083
(lp1084
tp1085
a(L784960019L
L0L
(lp1086
(lp1087
tp1088
atp1089
sI1074238016
(Vbootloader_flash_erase_sector
p1090
(lp1091
(L4129137686L
L1880226080L
(lp1092
(lp1093
Vesp_rom_spiflash_erase_sector
p1094
aVspi_to_esp_err
p1095
atp1096
atp1097
sI1074246464
(Vrtc_clk_slow_freq_set
p1098
(lp1099
(L2675301828L
L0L
(lp1100
(lp1101
tp1102
atp1103
sI1074248256
(Vrtc_clk_wait_for_slow_cycle
p1104
(lp1105
(L3016661646L
L0L
(lp1106
(lp1107
tp1108
a(L287687718L
L0L
(lp1109
(lp1110
tp1111
a(L3360570486L
L0L
(lp1112
(lp1113
tp1114
a(L3986273454L
L0L
(lp1115
(lp1116
tp1117
a(L2994547433L
L0L
(lp1118
(lp1119
tp1120
a(L2509841317L
L0L
(lp1121
(lp1122
tp1123
a(L3358736429L
L3785322319L
(lp1124
(lp1125
Vesp_log_early_timestamp
p1126
atp1127
atp1128
sI1074267968
(Vbootloader_common_get_reset_reason
p1129
(lp1130
(L3780188688L
L0L
(lp1131
(lp1132
tp1133
atp1134
sI1074247756
(Vrtc_clk_apb_freq_get
p1135
(lp1136
(L2039249796L
L0L
(lp1137
(lp1138
tp1139
atp1140
sI1074269764
(Vbootloader_config_wdt
p1141
(lp1142
(L2212638462L
L505859776L
(lp1143
(lp1144
Vwdt_hal_write_protect_disable
p1145
aVwdt_hal_set_flashboot_en
p1146
aVwdt_hal_write_protect_enable
p1147
aVwdt_hal_init
p1148
aVrtc_clk_slow_freq_get_hz
p1149
aVwdt_hal_write_protect_disable
p1150
aVwdt_hal_config_stage
p1151
aVwdt_hal_enable
p1152
aVwdt_hal_write_protect_enable
p1153
aVwdt_hal_write_protect_disable
p1154
aVwdt_hal_set_flashboot_en
p1155
aVwdt_hal_write_protect_enable
p1156
atp1157
atp1158
sI1074238036
(Vbootloader_flash_write
p1159
(lp1160
(L3119145091L
L0L
(lp1161
(lp1162
tp1163
a(L962229776L
L3785322319L
(lp1164
(lp1165
Vesp_log_early_timestamp
p1166
atp1167
a(L44113432L
L0L
(lp1168
(lp1169
tp1170
a(L1610445075L
L0L
(lp1171
(lp1172
tp1173
a(L735741265L
L0L
(lp1174
(lp1175
tp1176
a(L3291333414L
L0L
(lp1177
(lp1178
tp1179
a(L2835528492L
L3785322319L
(lp1180
(lp1181
Vesp_log_early_timestamp
p1182
atp1183
a(L3283691850L
L0L
(lp1184
(lp1185
tp1186
a(L3823398198L
L3785322319L
(lp1187
(lp1188
Vesp_log_early_timestamp
p1189
atp1190
a(L3212356251L
L3785322319L
(lp1191
(lp1192
Vbootloader_flash_unlock
p1193
atp1194
a(L1799218633L
L0L
(lp1195
(lp1196
tp1197
a(L94425498L
L3785322319L
(lp1198
(lp1199
Vesp_rom_spiflash_write_encrypted
p1200
atp1201
a(L2927190544L
L3785322319L
(lp1202
(lp1203
Vspi_to_esp_err
p1204
atp1205
a(L2927190544L
L3785322319L
(lp1206
(lp1207
Vesp_rom_spiflash_write
p1208
atp1209
atp1210
sI1074243924
(Vesp_rom_spiflash_write_encrypted
p1211
(lp1212
(L2107077087L
L0L
(lp1213
(lp1214
tp1215
a(L2710764499L
L0L
(lp1216
(lp1217
tp1218
a(L97689L
L0L
(lp1219
(lp1220
tp1221
a(L3061232074L
L0L
(lp1222
(lp1223
tp1224
a(L61243957L
L0L
(lp1225
(lp1226
tp1227
a(L2903314395L
L3785322319L
(lp1228
(lp1229
Vesp_rom_spiflash_write
p1230
atp1231
a(L220838264L
L0L
(lp1232
(lp1233
tp1234
a(L735741265L
L0L
(lp1235
(lp1236
tp1237
atp1238
sI1074246228
(Vrtc_clk_32k_enable
p1239
(lp1240
(L753387299L
L0L
(lp1241
(lp1242
tp1243
a(L1067050752L
L3785322319L
(lp1244
(lp1245
Vrtc_clk_32k_enable_common
p1246
atp1247
a(L3360570486L
L0L
(lp1248
(lp1249
tp1250
a(L2048424610L
L0L
(lp1251
(lp1252
tp1253
atp1254
sI1074237520
(Vbootloader_mmap
p1255
(lp1256
(L2059700562L
L0L
(lp1257
(lp1258
tp1259
a(L3017932071L
L3785322319L
(lp1260
(lp1261
Vesp_log_early_timestamp
p1262
atp1263
a(L1182811810L
L0L
(lp1264
(lp1265
tp1266
a(L3496950L
L0L
(lp1267
(lp1268
tp1269
a(L1630759581L
L0L
(lp1270
(lp1271
tp1272
a(L3536022130L
L3785322319L
(lp1273
(lp1274
Vesp_log_early_timestamp
p1275
atp1276
a(L1503832912L
L0L
(lp1277
(lp1278
tp1279
a(L2005677777L
L3785322319L
(lp1280
(lp1281
Vesp_log_early_timestamp
p1282
atp1283
a(L1090567542L
L0L
(lp1284
(lp1285
tp1286
atp1287
sI1074237008
(Vesp_log_early_timestamp
p1288
(lp1289
(L3622092107L
L0L
(lp1290
(lp1291
tp1292
atp1293
sI1074267984
(Vwdt_reset_info_dump
p1294
(lp1295
(L4037466985L
L0L
(lp1296
(lp1297
tp1298
a(L4162823486L
L0L
(lp1299
(lp1300
tp1301
a(L3759833313L
L0L
(lp1302
(lp1303
tp1304
a(L1103285333L
L0L
(lp1305
(lp1306
tp1307
a(L3874600256L
L3785322319L
(lp1308
(lp1309
Vesp_log_early_timestamp
p1310
atp1311
a(L2967992533L
L0L
(lp1312
(lp1313
tp1314
a(L4142801612L
L3785322319L
(lp1315
(lp1316
Vesp_log_early_timestamp
p1317
atp1318
a(L98458893L
L0L
(lp1319
(lp1320
tp1321
atp1322
sI1074241628
(Vshould_load
p1323
(lp1324
(L2819894745L
L0L
(lp1325
(lp1326
tp1327
a(L1182990556L
L0L
(lp1328
(lp1329
tp1330
a(L1780902349L
L0L
(lp1331
(lp1332
tp1333
a(L1298905564L
L0L
(lp1334
(lp1335
tp1336
a(L524505062L
L0L
(lp1337
(lp1338
tp1339
a(L2258897019L
L0L
(lp1340
(lp1341
tp1342
a(L3781799363L
L0L
(lp1343
(lp1344
tp1345
a(L3028464L
L0L
(lp1346
(lp1347
tp1348
a(L476756448L
L0L
(lp1349
(lp1350
tp1351
a(L1004813886L
L0L
(lp1352
(lp1353
tp1354
a(L3959408124L
L0L
(lp1355
(lp1356
tp1357
a(L4185756579L
L0L
(lp1358
(lp1359
tp1360
a(L3458855836L
L0L
(lp1361
(lp1362
tp1363
a(L3126521138L
L0L
(lp1364
(lp1365
tp1366
a(L1305407438L
L0L
(lp1367
(lp1368
tp1369
a(L1305407469L
L0L
(lp1370
(lp1371
tp1372
atp1373
sI1074241112
(Vbootloader_util_regions_overlap
p1374
(lp1375
(L2762640130L
L0L
(lp1376
(lp1377
tp1378
a(L486238211L
L0L
(lp1379
(lp1380
tp1381
a(L3823861319L
L3785322319L
(lp1382
(lp1383
V__assert_func
p1384
atp1385
a(L97642L
L0L
(lp1386
(lp1387
tp1388
a(L2752402003L
L0L
(lp1389
(lp1390
tp1391
a(L366123053L
L0L
(lp1392
(lp1393
tp1394
a(L2258867228L
L0L
(lp1395
(lp1396
tp1397
a(L1253626734L
L0L
(lp1398
(lp1399
tp1400
a(L2258897019L
L0L
(lp1401
(lp1402
tp1403
a(L3109269495L
L0L
(lp1404
(lp1405
tp1406
atp1407
sI1074238296
(Vbootloader_random_disable
p1408
(lp1409
(L2124996308L
L0L
(lp1410
(lp1411
tp1412
atp1413
sI1074270060
(Vrtc_clk_xtal_freq_estimate
p1414
(lp1415
(L2516060585L
L1880226080L
(lp1416
(lp1417
Vrtc_clk_8m_enabled
p1418
aVrtc_clk_8md256_enabled
p1419
atp1420
a(L967485502L
L3785322319L
(lp1421
(lp1422
Vrtc_clk_8m_enable
p1423
atp1424
a(L2017446436L
L3785322319L
(lp1425
(lp1426
Vrtc_clk_cal_ratio
p1427
atp1428
a(L93674324L
L0L
(lp1429
(lp1430
tp1431
a(L3910042627L
L0L
(lp1432
(lp1433
tp1434
a(L1299866334L
L0L
(lp1435
(lp1436
tp1437
a(L3360570486L
L0L
(lp1438
(lp1439
tp1440
a(L3936819466L
L0L
(lp1441
(lp1442
tp1443
a(L3982077265L
L0L
(lp1444
(lp1445
tp1446
a(L1641150486L
L0L
(lp1447
(lp1448
tp1449
a(L4137325392L
L3785322319L
(lp1450
(lp1451
Vesp_log_early_timestamp
p1452
atp1453
a(L3602206149L
L3785322319L
(lp1454
(lp1455
Vesp_log_early_timestamp
p1456
atp1457
a(L745380729L
L3785322319L
(lp1458
(lp1459
Vesp_log_early_timestamp
p1460
atp1461
atp1462
sI1074243432
(Vesp_rom_spiflash_program_page_internal
p1463
(lp1464
(L2569069283L
L0L
(lp1465
(lp1466
tp1467
a(L2258688483L
L0L
(lp1468
(lp1469
tp1470
a(L3360570486L
L0L
(lp1471
(lp1472
tp1473
a(L3649828145L
L0L
(lp1474
(lp1475
tp1476
a(L4235661475L
L3785322319L
(lp1477
(lp1478
Vesp_rom_spiflash_wait_idle
p1479
atp1480
a(L1299866312L
L0L
(lp1481
(lp1482
tp1483
a(L3212356251L
L3785322319L
(lp1484
(lp1485
Vesp_rom_spiflash_enable_write
p1486
atp1487
a(L334355199L
L0L
(lp1488
(lp1489
tp1490
a(L3721244181L
L0L
(lp1491
(lp1492
tp1493
a(L2953702749L
L0L
(lp1494
(lp1495
tp1496
a(L2989032L
L0L
(lp1497
(lp1498
tp1499
a(L1965622133L
L0L
(lp1500
(lp1501
tp1502
a(L3994676957L
L0L
(lp1503
(lp1504
tp1505
a(L1958113242L
L0L
(lp1506
(lp1507
tp1508
a(L106L
L0L
(lp1509
(lp1510
tp1511
a(L4283177684L
L0L
(lp1512
(lp1513
tp1514
a(L1405253496L
L0L
(lp1515
(lp1516
tp1517
a(L1008982319L
L0L
(lp1518
(lp1519
tp1520
a(L1933954923L
L0L
(lp1521
(lp1522
tp1523
a(L3886319556L
L0L
(lp1524
(lp1525
tp1526
a(L2767679583L
L0L
(lp1527
(lp1528
tp1529
atp1530
sI1074236776
(Vefuse_hal_chip_revision
p1531
(lp1532
(L1761205471L
L1880226080L
(lp1533
(lp1534
Vefuse_hal_get_major_chip_version
p1535
aVefuse_hal_get_minor_chip_version
p1536
atp1537
atp1538
sI1074239092
(Vset_actual_ota_seq
p1539
(lp1540
(L2590207476L
L1832448559L
(lp1541
(lp1542
Vbootloader_common_ota_select_crc
p1543
aVefuse_hal_flash_encryption_enabled
p1544
aVbootloader_flash_erase_sector
p1545
atp1546
a(L3292941333L
L3785322319L
(lp1547
(lp1548
Vbootloader_flash_write
p1549
atp1550
a(L3725205052L
L3785322319L
(lp1551
(lp1552
Vesp_log_early_timestamp
p1553
atp1554
a(L3876573963L
L3785322319L
(lp1555
(lp1556
Vesp_log_early_timestamp
p1557
atp1558
atp1559
sI1074237040
(Vbootloader_common_ota_select_crc
p1560
(lp1561
(L943698951L
L0L
(lp1562
(lp1563
tp1564
atp1565
sI1074242928
(Vbootloader_load_image
p1566
(lp1567
(L1155870502L
L3785322319L
(lp1568
(lp1569
Vimage_load
p1570
atp1571
atp1572
sI1074245756
(Vwdt_hal_set_flashboot_en
p1573
(lp1574
(L2375320464L
L0L
(lp1575
(lp1576
tp1577
a(L2716561907L
L0L
(lp1578
(lp1579
tp1580
a(L3360570486L
L0L
(lp1581
(lp1582
tp1583
a(L996440984L
L0L
(lp1584
(lp1585
tp1586
atp1587
sI1074247032
(Vrtc_clk_xtal_freq_get
p1588
(lp1589
(L1197992749L
L0L
(lp1590
(lp1591
tp1592
a(L2847936993L
L0L
(lp1593
(lp1594
tp1595
a(L2868048551L
L0L
(lp1596
(lp1597
tp1598
a(L3360570486L
L0L
(lp1599
(lp1600
tp1601
atp1602
sI1074247288
(Vrtc_clk_xtal_freq_update
p1603
(lp1604
(L1200971062L
L0L
(lp1605
(lp1606
tp1607
a(L3509357017L
L0L
(lp1608
(lp1609
tp1610
a(L3020103887L
L0L
(lp1611
(lp1612
tp1613
atp1614
sI1074247800
(Vrtc_clk_cal_internal
p1615
(lp1616
(L2839534936L
L0L
(lp1617
(lp1618
tp1619
a(L2905548494L
L3785322319L
(lp1620
(lp1621
V__assert_func
p1622
atp1623
a(L2570522997L
L0L
(lp1624
(lp1625
tp1626
a(L3017366L
L0L
(lp1627
(lp1628
tp1629
a(L2781091364L
L0L
(lp1630
(lp1631
tp1632
a(L4169864463L
L1880226080L
(lp1633
(lp1634
Vrtc_clk_8m_enabled
p1635
aVrtc_clk_8md256_enabled
p1636
atp1637
a(L4286589987L
L3785322319L
(lp1638
(lp1639
Vrtc_clk_8m_enable
p1640
atp1641
a(L1052965478L
L0L
(lp1642
(lp1643
tp1644
a(L3502850147L
L0L
(lp1645
(lp1646
tp1647
a(L97689L
L0L
(lp1648
(lp1649
tp1650
a(L2473147788L
L0L
(lp1651
(lp1652
tp1653
a(L3028464L
L0L
(lp1654
(lp1655
tp1656
a(L3028481L
L0L
(lp1657
(lp1658
tp1659
a(L3450259565L
L0L
(lp1660
(lp1661
tp1662
a(L2839590900L
L3785322319L
(lp1663
(lp1664
Vrtc_clk_xtal_freq_get
p1665
atp1666
a(L2780079961L
L0L
(lp1667
(lp1668
tp1669
a(L2536048172L
L0L
(lp1670
(lp1671
tp1672
a(L3420444319L
L3785322319L
(lp1673
(lp1674
Vesp_log_early_timestamp
p1675
atp1676
a(L3360570486L
L0L
(lp1677
(lp1678
tp1679
a(L4135273484L
L0L
(lp1680
(lp1681
tp1682
a(L748565485L
L0L
(lp1683
(lp1684
tp1685
a(L3028481L
L0L
(lp1686
(lp1687
tp1688
a(L4112420445L
L0L
(lp1689
(lp1690
tp1691
a(L755155573L
L3785322319L
(lp1692
(lp1693
Vrtc_clk_8m_enable
p1694
atp1695
a(L3631005548L
L0L
(lp1696
(lp1697
tp1698
a(L2456680904L
L0L
(lp1699
(lp1700
tp1701
a(L3352263364L
L0L
(lp1702
(lp1703
tp1704
atp1705
sI1074237060
(Vbootloader_common_ota_select_valid
p1706
(lp1707
(L1563399710L
L3785322319L
(lp1708
(lp1709
Vbootloader_common_ota_select_invalid
p1710
atp1711
a(L3814720849L
L3785322319L
(lp1712
(lp1713
Vbootloader_common_ota_select_crc
p1714
atp1715
a(L3360570486L
L0L
(lp1716
(lp1717
tp1718
atp1719
sI1074235268
(Vbootloader_execute_flash_command
p1720
(lp1721
(L2481595632L
L3785322319L
(lp1722
(lp1723
Vbootloader_flash_execute_command_common
p1724
atp1725
atp1726
sI1074246532
(Vrtc_clk_slow_freq_get
p1727
(lp1728
(L3496640438L
L0L
(lp1729
(lp1730
tp1731
atp1732
sI1074242944
(Vesp_partition_table_verify
p1733
(lp1734
(L1518656766L
L0L
(lp1735
(lp1736
tp1737
a(L2872654191L
L0L
(lp1738
(lp1739
tp1740
a(L4287435191L
L0L
(lp1741
(lp1742
tp1743
a(L2910371777L
L0L
(lp1744
(lp1745
tp1746
a(L2810785767L
L0L
(lp1747
(lp1748
tp1749
a(L3360570486L
L0L
(lp1750
(lp1751
tp1752
a(L2334946637L
L0L
(lp1753
(lp1754
tp1755
a(L2478753082L
L0L
(lp1756
(lp1757
tp1758
a(L3020204L
L0L
(lp1759
(lp1760
tp1761
a(L1688188261L
L3785322319L
(lp1762
(lp1763
Vesp_log_early_timestamp
p1764
atp1765
a(L1031066118L
L3785322319L
(lp1766
(lp1767
Vesp_log_early_timestamp
p1768
atp1769
a(L3848731295L
L0L
(lp1770
(lp1771
tp1772
a(L2902417580L
L0L
(lp1773
(lp1774
tp1775
a(L3020204L
L0L
(lp1776
(lp1777
tp1778
a(L2825404274L
L3785322319L
(lp1779
(lp1780
Vesp_log_early_timestamp
p1781
atp1782
a(L1367516498L
L0L
(lp1783
(lp1784
tp1785
a(L3291987620L
L0L
(lp1786
(lp1787
tp1788
a(L2902417580L
L0L
(lp1789
(lp1790
tp1791
a(L1688186804L
L3785322319L
(lp1792
(lp1793
Vesp_log_early_timestamp
p1794
atp1795
a(L1613213999L
L0L
(lp1796
(lp1797
tp1798
a(L1167861556L
L0L
(lp1799
(lp1800
tp1801
a(L3260980605L
L0L
(lp1802
(lp1803
tp1804
a(L2910371777L
L0L
(lp1805
(lp1806
tp1807
a(L1235012932L
L0L
(lp1808
(lp1809
tp1810
a(L2646947635L
L3785322319L
(lp1811
(lp1812
Vesp_log_early_timestamp
p1813
atp1814
atp1815
sI1074270848
(Vrtc_vddsdio_set_config
p1816
(lp1817
(L3038651581L
L0L
(lp1818
(lp1819
tp1820
atp1821
sI1074244748
(Vwdt_hal_init
p1822
(lp1823
(L679162730L
L0L
(lp1824
(lp1825
tp1826
a(L369135652L
L0L
(lp1827
(lp1828
tp1829
a(L2805933837L
L0L
(lp1830
(lp1831
tp1832
a(L2550927442L
L0L
(lp1833
(lp1834
tp1835
a(L1390686929L
L0L
(lp1836
(lp1837
tp1838
a(L3360570486L
L0L
(lp1839
(lp1840
tp1841
a(L901431428L
L0L
(lp1842
(lp1843
tp1844
atp1845
sI1074236808
(Vefuse_hal_flash_encryption_enabled
p1846
(lp1847
(L2780109918L
L0L
(lp1848
(lp1849
tp1850
a(L2910371777L
L0L
(lp1851
(lp1852
tp1853
a(L3360570486L
L0L
(lp1854
(lp1855
tp1856
a(L3016870L
L0L
(lp1857
(lp1858
tp1859
a(L3745038218L
L0L
(lp1860
(lp1861
tp1862
a(L957607403L
L0L
(lp1863
(lp1864
tp1865
atp1866
sI1074239624
(Vbootloader_utility_get_selected_boot_partition
p1867
(lp1868
(L2184143128L
L0L
(lp1869
(lp1870
tp1871
a(L3648837801L
L0L
(lp1872
(lp1873
tp1874
a(L3739057596L
L3785322319L
(lp1875
(lp1876
Vesp_log_early_timestamp
p1877
atp1878
a(L4026981588L
L0L
(lp1879
(lp1880
tp1881
a(L3360570486L
L0L
(lp1882
(lp1883
tp1884
a(L1375577398L
L3785322319L
(lp1885
(lp1886
Vbootloader_mmap
p1887
atp1888
a(L3668558090L
L3785322319L
(lp1889
(lp1890
Vesp_log_early_timestamp
p1891
atp1892
a(L3744659248L
L1880226080L
(lp1893
(lp1894
Vbootloader_munmap
p1895
aVbootloader_common_ota_select_invalid
p1896
atp1897
a(L1103573946L
L0L
(lp1898
(lp1899
tp1900
a(L1876835593L
L3785322319L
(lp1901
(lp1902
Vbootloader_common_get_active_otadata
p1903
atp1904
a(L106L
L0L
(lp1905
(lp1906
tp1907
a(L569346373L
L0L
(lp1908
(lp1909
tp1910
a(L788494392L
L3785322319L
(lp1911
(lp1912
Vbootloader_common_ota_select_invalid
p1913
atp1914
a(L2675958250L
L0L
(lp1915
(lp1916
tp1917
a(L4156538522L
L3785322319L
(lp1918
(lp1919
Vesp_log_early_timestamp
p1920
atp1921
a(L3946700466L
L3785322319L
(lp1922
(lp1923
Vesp_log_early_timestamp
p1924
atp1925
a(L505081345L
L0L
(lp1926
(lp1927
tp1928
a(L919052234L
L3785322319L
(lp1929
(lp1930
Vbootloader_common_ota_select_crc
p1931
atp1932
a(L2287680455L
L0L
(lp1933
(lp1934
tp1935
a(L3542558037L
L3785322319L
(lp1936
(lp1937
Vbootloader_common_ota_select_crc
p1938
atp1939
a(L1299866312L
L0L
(lp1940
(lp1941
tp1942
a(L3205436778L
L0L
(lp1943
(lp1944
tp1945
a(L3195943282L
L3785322319L
(lp1946
(lp1947
Vesp_log_early_timestamp
p1948
atp1949
a(L1367516498L
L0L
(lp1950
(lp1951
tp1952
a(L4142618861L
L3785322319L
(lp1953
(lp1954
Vesp_log_early_timestamp
p1955
atp1956
atp1957
sI1074238612
(Vbootloader_clock_get_rated_freq_mhz
p1958
(lp1959
(L376617603L
L3785322319L
(lp1960
(lp1961
Vefuse_hal_get_rated_freq_mhz
p1962
atp1963
atp1964
sI1074246548
(Vrtc_clk_slow_freq_get_hz
p1965
(lp1966
(L3773773206L
L0L
(lp1967
(lp1968
tp1969
a(L3642722998L
L0L
(lp1970
(lp1971
tp1972
a(L858011593L
L0L
(lp1973
(lp1974
tp1975
a(L3360570486L
L0L
(lp1976
(lp1977
tp1978
atp1979
sI1074246288
(Vrtc_clk_8m_enable
p1980
(lp1981
(L2831000540L
L0L
(lp1982
(lp1983
tp1984
a(L309349265L
L0L
(lp1985
(lp1986
tp1987
a(L2151320156L
L0L
(lp1988
(lp1989
tp1990
a(L1391734358L
L0L
(lp1991
(lp1992
tp1993
a(L3360570486L
L0L
(lp1994
(lp1995
tp1996
a(L1318267208L
L0L
(lp1997
(lp1998
tp1999
a(L2514659872L
L0L
(lp2000
(lp2001
tp2002
atp2003
sI1074241168
(Vverify_load_addresses
p2004
(lp2005
(L2763563698L
L0L
(lp2006
(lp2007
tp2008
a(L106L
L0L
(lp2009
(lp2010
tp2011
a(L97642L
L0L
(lp2012
(lp2013
tp2014
a(L2952239952L
L3785322319L
(lp2015
(lp2016
V__assert_func
p2017
atp2018
a(L1902503151L
L0L
(lp2019
(lp2020
tp2021
a(L106L
L0L
(lp2022
(lp2023
tp2024
a(L3433004918L
L0L
(lp2025
(lp2026
tp2027
a(L106L
L0L
(lp2028
(lp2029
tp2030
a(L2295851402L
L3785322319L
(lp2031
(lp2032
Vbootloader_util_regions_overlap
p2033
atp2034
a(L3129832310L
L3785322319L
(lp2035
(lp2036
Vbootloader_util_regions_overlap
p2037
atp2038
a(L3028481L
L0L
(lp2039
(lp2040
tp2041
a(L4008903006L
L3785322319L
(lp2042
(lp2043
Vbootloader_util_regions_overlap
p2044
atp2045
a(L810308952L
L0L
(lp2046
(lp2047
tp2048
a(L1770664004L
L0L
(lp2049
(lp2050
tp2051
a(L151109921L
L0L
(lp2052
(lp2053
tp2054
a(L2015090525L
L0L
(lp2055
(lp2056
tp2057
a(L642339957L
L0L
(lp2058
(lp2059
tp2060
a(L677569396L
L3785322319L
(lp2061
(lp2062
Vverify_load_addresses
p2063
atp2064
a(L1351513776L
L0L
(lp2065
(lp2066
tp2067
a(L2071984958L
L0L
(lp2068
(lp2069
tp2070
a(L957547170L
L0L
(lp2071
(lp2072
tp2073
a(L3693032374L
L3785322319L
(lp2074
(lp2075
Vbootloader_util_regions_overlap
p2076
atp2077
a(L3028481L
L0L
(lp2078
(lp2079
tp2080
a(L2780947582L
L3785322319L
(lp2081
(lp2082
Vbootloader_util_regions_overlap
p2083
atp2084
a(L1826055167L
L0L
(lp2085
(lp2086
tp2087
a(L3901439154L
L0L
(lp2088
(lp2089
tp2090
a(L1280432842L
L0L
(lp2091
(lp2092
tp2093
a(L4075086914L
L0L
(lp2094
(lp2095
tp2096
a(L307916966L
L0L
(lp2097
(lp2098
tp2099
a(L697239146L
L0L
(lp2100
(lp2101
tp2102
a(L106L
L0L
(lp2103
(lp2104
tp2105
a(L955484020L
L0L
(lp2106
(lp2107
tp2108
a(L307916753L
L0L
(lp2109
(lp2110
tp2111
a(L490080443L
L0L
(lp2112
(lp2113
tp2114
a(L106L
L0L
(lp2115
(lp2116
tp2117
a(L1287163434L
L3785322319L
(lp2118
(lp2119
Vesp_log_early_timestamp
p2120
atp2121
a(L955485353L
L0L
(lp2122
(lp2123
tp2124
a(L1303560427L
L0L
(lp2125
(lp2126
tp2127
atp2128
sI1074236572
(Vbootloader_common_get_chip_ver_pkg
p2129
(lp2130
(L1176319107L
L0L
(lp2131
(lp2132
tp2133
atp2134
sI1074237340
(Vbootloader_common_get_active_otadata
p2135
(lp2136
(L3317503532L
L0L
(lp2137
(lp2138
tp2139
a(L2503049265L
L1832448559L
(lp2140
(lp2141
Vbootloader_common_ota_select_valid
p2142
aVbootloader_common_ota_select_valid
p2143
aVbootloader_common_select_otadata
p2144
atp2145
a(L735741265L
L0L
(lp2146
(lp2147
tp2148
atp2149
sI1074240920
(Vprocess_image_header
p2150
(lp2151
(L634255103L
L3785322319L
(lp2152
(lp2153
Vbootloader_flash_read
p2154
atp2155
a(L3020204L
L0L
(lp2156
(lp2157
tp2158
a(L1583805461L
L0L
(lp2159
(lp2160
tp2161
a(L1727394037L
L0L
(lp2162
(lp2163
tp2164
a(L1161397362L
L3785322319L
(lp2165
(lp2166
Vbootloader_sha256_start
p2167
atp2168
a(L1948257695L
L3785322319L
(lp2169
(lp2170
Vbootloader_sha256_data
p2171
atp2172
a(L1095449651L
L0L
(lp2173
(lp2174
tp2175
a(L3020204L
L0L
(lp2176
(lp2177
tp2178
a(L702739623L
L0L
(lp2179
(lp2180
tp2181
a(L3360570486L
L0L
(lp2182
(lp2183
tp2184
a(L1740884593L
L3785322319L
(lp2185
(lp2186
Vesp_log_early_timestamp
p2187
atp2188
a(L3718883008L
L3785322319L
(lp2189
(lp2190
Vbootloader_common_check_chip_validity
p2191
atp2192
a(L3677035427L
L0L
(lp2193
(lp2194
tp2195
a(L3028481L
L0L
(lp2196
(lp2197
tp2198
a(L2166811440L
L3785322319L
(lp2199
(lp2200
Vesp_log_early_timestamp
p2201
atp2202
a(L2250109166L
L0L
(lp2203
(lp2204
tp2205
a(L1235012870L
L0L
(lp2206
(lp2207
tp2208
a(L3063569071L
L0L
(lp2209
(lp2210
tp2211
atp2212
sI1074269608
(Vbootloader_flash_update_id
p2213
(lp2214
(L2025171949L
L3785322319L
(lp2215
(lp2216
Vbootloader_read_flash_id
p2217
atp2218
atp2219
sI1074235300
(Vbootloader_flash_unlock
p2220
(lp2221
(L142706334L
L3785322319L
(lp2222
(lp2223
Vesp_rom_spiflash_wait_idle
p2224
atp2225
a(L4024621237L
L0L
(lp2226
(lp2227
tp2228
a(L4292483033L
L3785322319L
(lp2229
(lp2230
Vbootloader_execute_flash_command
p2231
atp2232
a(L106L
L0L
(lp2233
(lp2234
tp2235
a(L1303560644L
L0L
(lp2236
(lp2237
tp2238
a(L1419965066L
L0L
(lp2239
(lp2240
tp2241
a(L106L
L0L
(lp2242
(lp2243
tp2244
a(L1633120054L
L0L
(lp2245
(lp2246
tp2247
a(L106L
L0L
(lp2248
(lp2249
tp2250
a(L2974484771L
L0L
(lp2251
(lp2252
tp2253
a(L106L
L0L
(lp2254
(lp2255
tp2256
a(L1481761147L
L1880226080L
(lp2257
(lp2258
Vbootloader_execute_flash_command
p2259
aVbootloader_execute_flash_command
p2260
atp2261
a(L2258807654L
L0L
(lp2262
(lp2263
tp2264
a(L489806350L
L1832448559L
(lp2265
(lp2266
Vesp_rom_spiflash_wait_idle
p2267
aVbootloader_execute_flash_command
p2268
aVbootloader_execute_flash_command
p2269
atp2270
a(L879744646L
L1832448559L
(lp2271
(lp2272
Vesp_rom_spiflash_wait_idle
p2273
aVbootloader_execute_flash_command
p2274
aVbootloader_execute_flash_command
p2275
atp2276
a(L1840772931L
L1880226080L
(lp2277
(lp2278
Vesp_rom_spiflash_wait_idle
p2279
aVbootloader_execute_flash_command
p2280
atp2281
a(L2993202392L
L0L
(lp2282
(lp2283
tp2284
a(L508800419L
L1880226080L
(lp2285
(lp2286
Vbootloader_execute_flash_command
p2287
aVbootloader_execute_flash_command
p2288
atp2289
a(L1303560369L
L0L
(lp2290
(lp2291
tp2292
a(L1596544945L
L0L
(lp2293
(lp2294
tp2295
a(L97689L
L0L
(lp2296
(lp2297
tp2298
a(L106L
L0L
(lp2299
(lp2300
tp2301
atp2302
sI1074247332
(Vrtc_clk_apb_freq_update
p2303
(lp2304
(L1310529756L
L0L
(lp2305
(lp2306
tp2307
atp2308
sI1074238624
(Vload_image
p2309
(lp2310
(L3679617832L
L1832448559L
(lp2311
(lp2312
Vesp_log_early_timestamp
p2313
aVbootloader_random_disable
p2314
aVbootloader_ana_clock_glitch_reset_config
p2315
atp2316
a(L2118498116L
L0L
(lp2317
(lp2318
tp2319
a(L106L
L0L
(lp2320
(lp2321
tp2322
a(L4186884272L
L0L
(lp2323
(lp2324
tp2325
a(L751966648L
L0L
(lp2326
(lp2327
tp2328
a(L3268103L
L0L
(lp2329
(lp2330
tp2331
a(L741069426L
L3785322319L
(lp2332
(lp2333
Vbootloader_console_deinit
p2334
atp2335
a(L2307067884L
L0L
(lp2336
(lp2337
tp2338
a(L3020204L
L0L
(lp2339
(lp2340
tp2341
a(L2722520990L
L3785322319L
(lp2342
(lp2343
Vesp_log_early_timestamp
p2344
atp2345
a(L117980938L
L0L
(lp2346
(lp2347
tp2348
a(L1341709798L
L0L
(lp2349
(lp2350
tp2351
a(L3020204L
L0L
(lp2352
(lp2353
tp2354
a(L1017231636L
L3785322319L
(lp2355
(lp2356
Vesp_log_early_timestamp
p2357
atp2358
a(L233635238L
L0L
(lp2359
(lp2360
tp2361
a(L2488949783L
L0L
(lp2362
(lp2363
tp2364
atp2365
sI1074240672
(Vbootloader_console_deinit
p2366
(lp2367
(L2488395335L
L0L
(lp2368
(lp2369
tp2370
atp2371
sI1074242464
(Vimage_load
p2372
(lp2373
(L745499722L
L0L
(lp2374
(lp2375
tp2376
a(L1899869538L
L0L
(lp2377
(lp2378
tp2379
a(L9219888L
L0L
(lp2380
(lp2381
tp2382
a(L4132382653L
L0L
(lp2383
(lp2384
tp2385
a(L3020187L
L0L
(lp2386
(lp2387
tp2388
a(L955629275L
L3785322319L
(lp2389
(lp2390
Vesp_log_early_timestamp
p2391
atp2392
a(L2068384292L
L0L
(lp2393
(lp2394
tp2395
a(L1968553470L
L3785322319L
(lp2396
(lp2397
Vbootloader_sha256_finish
p2398
atp2399
a(L4106693507L
L0L
(lp2400
(lp2401
tp2402
a(L3271848319L
L0L
(lp2403
(lp2404
tp2405
a(L1182930974L
L0L
(lp2406
(lp2407
tp2408
a(L3678851644L
L3785322319L
(lp2409
(lp2410
Vprocess_image_header
p2411
atp2412
a(L1341816907L
L0L
(lp2413
(lp2414
tp2415
a(L909494482L
L0L
(lp2416
(lp2417
tp2418
a(L1028073566L
L3785322319L
(lp2419
(lp2420
Vprocess_segments
p2421
atp2422
a(L3803885910L
L0L
(lp2423
(lp2424
tp2425
a(L94425498L
L3785322319L
(lp2426
(lp2427
Vesp_cpu_in_ocd_debug_mode
p2428
atp2429
a(L454195650L
L3785322319L
(lp2430
(lp2431
Vprocess_checksum
p2432
atp2433
a(L1651117269L
L3785322319L
(lp2434
(lp2435
Vprocess_appended_hash_and_sig
p2436
atp2437
a(L533710513L
L0L
(lp2438
(lp2439
tp2440
a(L505081362L
L0L
(lp2441
(lp2442
tp2443
a(L3212356251L
L3785322319L
(lp2444
(lp2445
Vesp_cpu_in_ocd_debug_mode
p2446
atp2447
a(L3885489389L
L1880226080L
(lp2448
(lp2449
Vbootloader_sha256_finish
p2450
aVbootloader_debug_buffer
p2451
atp2452
a(L2959909343L
L1880226080L
(lp2453
(lp2454
Vesp_log_early_timestamp
p2455
aVbootloader_debug_buffer
p2456
atp2457
a(L978077504L
L0L
(lp2458
(lp2459
tp2460
a(L2068384292L
L0L
(lp2461
(lp2462
tp2463
a(L858449684L
L3785322319L
(lp2464
(lp2465
Vbootloader_sha256_finish
p2466
atp2467
a(L3028481L
L0L
(lp2468
(lp2469
tp2470
a(L93674324L
L0L
(lp2471
(lp2472
tp2473
a(L789658747L
L0L
(lp2474
(lp2475
tp2476
a(L2429164518L
L0L
(lp2477
(lp2478
tp2479
a(L3553619191L
L0L
(lp2480
(lp2481
tp2482
a(L85798113L
L0L
(lp2483
(lp2484
tp2485
a(L464010095L
L0L
(lp2486
(lp2487
tp2488
a(L835563811L
L3785322319L
(lp2489
(lp2490
Vshould_load
p2491
atp2492
a(L1358360603L
L0L
(lp2493
(lp2494
tp2495
a(L4224160879L
L0L
(lp2496
(lp2497
tp2498
a(L22884489L
L0L
(lp2499
(lp2500
tp2501
a(L741351569L
L0L
(lp2502
(lp2503
tp2504
a(L434644776L
L0L
(lp2505
(lp2506
tp2507
a(L106L
L0L
(lp2508
(lp2509
tp2510
a(L709419389L
L0L
(lp2511
(lp2512
tp2513
a(L1299866312L
L0L
(lp2514
(lp2515
tp2516
atp2517
sI1074243232
(Vesp_rom_spiflash_read_status
p2518
(lp2519
(L3562601385L
L0L
(lp2520
(lp2521
tp2522
a(L1182811815L
L0L
(lp2523
(lp2524
tp2525
a(L4009779817L
L0L
(lp2526
(lp2527
tp2528
a(L106L
L0L
(lp2529
(lp2530
tp2531
a(L1380309822L
L0L
(lp2532
(lp2533
tp2534
a(L4004659960L
L0L
(lp2535
(lp2536
tp2537
a(L2123059967L
L0L
(lp2538
(lp2539
tp2540
a(L1973734210L
L0L
(lp2541
(lp2542
tp2543
a(L2392720019L
L0L
(lp2544
(lp2545
tp2546
atp2547
sI1074247072
(Vrtc_clk_cpu_freq_mhz_to_config
p2548
(lp2549
(L2601984125L
L3785322319L
(lp2550
(lp2551
Vrtc_clk_xtal_freq_get
p2552
atp2553
a(L2089656409L
L0L
(lp2554
(lp2555
tp2556
a(L3814337874L
L0L
(lp2557
(lp2558
tp2559
a(L3126521138L
L0L
(lp2560
(lp2561
tp2562
a(L2762074623L
L0L
(lp2563
(lp2564
tp2565
a(L1541996779L
L0L
(lp2566
(lp2567
tp2568
a(L2916936348L
L0L
(lp2569
(lp2570
tp2571
a(L1555485793L
L0L
(lp2572
(lp2573
tp2574
a(L2258897023L
L0L
(lp2575
(lp2576
tp2577
a(L1947499251L
L0L
(lp2578
(lp2579
tp2580
a(L1306331021L
L0L
(lp2581
(lp2582
tp2583
atp2584
sI1074267808
(Vcall_start_cpu0
p2585
(lp2586
(L1137852827L
L0L
(lp2587
(lp2588
tp2589
a(L549459388L
L0L
(lp2590
(lp2591
tp2592
a(L3212347974L
L3785322319L
(lp2593
(lp2594
Vbootloader_init
p2595
atp2596
a(L94425498L
L3785322319L
(lp2597
(lp2598
Vbootloader_reset
p2599
atp2600
a(L1122046408L
L0L
(lp2601
(lp2602
tp2603
a(L4099474112L
L0L
(lp2604
(lp2605
tp2606
a(L3015046664L
L3785322319L
(lp2607
(lp2608
Vbootloader_utility_load_partition_table
p2609
atp2610
a(L2761094216L
L3785322319L
(lp2611
(lp2612
Vesp_log_early_timestamp
p2613
atp2614
a(L736289835L
L3785322319L
(lp2615
(lp2616
Vbootloader_utility_get_selected_boot_partition
p2617
atp2618
a(L3548846595L
L1880226080L
(lp2619
(lp2620
Vbootloader_common_get_reset_reason
p2621
aVbootloader_utility_load_boot_image
p2622
atp2623
atp2624
sI1074244012
(Vesp_rom_spiflash_read
p2625
(lp2626
(L3733264284L
L0L
(lp2627
(lp2628
tp2629
a(L2067992876L
L0L
(lp2630
(lp2631
tp2632
a(L2860271684L
L0L
(lp2633
(lp2634
tp2635
a(L3017366L
L0L
(lp2636
(lp2637
tp2638
a(L106L
L0L
(lp2639
(lp2640
tp2641
a(L599492143L
L0L
(lp2642
(lp2643
tp2644
a(L106L
L0L
(lp2645
(lp2646
tp2647
a(L3815944725L
L0L
(lp2648
(lp2649
tp2650
a(L2845455366L
L0L
(lp2651
(lp2652
tp2653
a(L89392942L
L0L
(lp2654
(lp2655
tp2656
a(L3413778373L
L0L
(lp2657
(lp2658
tp2659
a(L106L
L0L
(lp2660
(lp2661
tp2662
a(L2386205522L
L3785322319L
(lp2663
(lp2664
Vesp_rom_spiflash_wait_idle
p2665
atp2666
a(L3021737L
L0L
(lp2667
(lp2668
tp2669
a(L106L
L0L
(lp2670
(lp2671
tp2672
a(L1868280504L
L0L
(lp2673
(lp2674
tp2675
a(L106L
L0L
(lp2676
(lp2677
tp2678
a(L3736481501L
L0L
(lp2679
(lp2680
tp2681
a(L1221163038L
L0L
(lp2682
(lp2683
tp2684
a(L4122060822L
L0L
(lp2685
(lp2686
tp2687
a(L729330754L
L0L
(lp2688
(lp2689
tp2690
a(L2989032L
L0L
(lp2691
(lp2692
tp2693
a(L3819849625L
L0L
(lp2694
(lp2695
tp2696
a(L657593818L
L0L
(lp2697
(lp2698
tp2699
a(L131285969L
L0L
(lp2700
(lp2701
tp2702
a(L3901820583L
L0L
(lp2703
(lp2704
tp2705
a(L4003688926L
L0L
(lp2706
(lp2707
tp2708
a(L1896415737L
L0L
(lp2709
(lp2710
tp2711
a(L1522202953L
L0L
(lp2712
(lp2713
tp2714
a(L3574008326L
L0L
(lp2715
(lp2716
tp2717
a(L2769753228L
L0L
(lp2718
(lp2719
tp2720
a(L2267384310L
L0L
(lp2721
(lp2722
tp2723
a(L2696140277L
L0L
(lp2724
(lp2725
tp2726
a(L2687789892L
L0L
(lp2727
(lp2728
tp2729
a(L1405253496L
L0L
(lp2730
(lp2731
tp2732
a(L2052029745L
L0L
(lp2733
(lp2734
tp2735
a(L97689L
L0L
(lp2736
(lp2737
tp2738
a(L2258897019L
L0L
(lp2739
(lp2740
tp2741
a(L4014024819L
L0L
(lp2742
(lp2743
tp2744
a(L3621567083L
L0L
(lp2745
(lp2746
tp2747
atp2748
sI1074243752
(Vesp_rom_spiflash_write
p2749
(lp2750
(L4057159726L
L0L
(lp2751
(lp2752
tp2753
a(L2258688483L
L0L
(lp2754
(lp2755
tp2756
a(L3360570486L
L0L
(lp2757
(lp2758
tp2759
a(L1590344338L
L0L
(lp2760
(lp2761
tp2762
a(L3106685987L
L0L
(lp2763
(lp2764
tp2765
a(L4249336406L
L3785322319L
(lp2766
(lp2767
Vesp_rom_spiflash_program_page_internal
p2768
atp2769
a(L1915738254L
L3785322319L
(lp2770
(lp2771
Vesp_rom_spiflash_program_page_internal
p2772
atp2773
a(L663507325L
L0L
(lp2774
(lp2775
tp2776
a(L2392967593L
L0L
(lp2777
(lp2778
tp2779
a(L564470687L
L0L
(lp2780
(lp2781
tp2782
a(L154459701L
L3785322319L
(lp2783
(lp2784
Vesp_rom_spiflash_program_page_internal
p2785
atp2786
a(L2079643754L
L0L
(lp2787
(lp2788
tp2789
atp2790
sI1074237096
(Vbootloader_common_check_chip_validity
p2791
(lp2792
(L722188971L
L0L
(lp2793
(lp2794
tp2795
a(L98526595L
L3785322319L
(lp2796
(lp2797
Vesp_log_early_timestamp
p2798
atp2799
a(L522103407L
L3785322319L
(lp2800
(lp2801
Vefuse_hal_chip_revision
p2802
atp2803
a(L106L
L0L
(lp2804
(lp2805
tp2806
a(L3681102491L
L0L
(lp2807
(lp2808
tp2809
a(L2449956225L
L3785322319L
(lp2810
(lp2811
Vesp_log_early_timestamp
p2812
atp2813
a(L3028464L
L0L
(lp2814
(lp2815
tp2816
a(L4118102069L
L0L
(lp2817
(lp2818
tp2819
a(L3021749L
L0L
(lp2820
(lp2821
tp2822
a(L1478707893L
L3785322319L
(lp2823
(lp2824
Vesp_log_early_timestamp
p2825
atp2826
a(L1299867982L
L0L
(lp2827
(lp2828
tp2829
a(L3360570486L
L0L
(lp2830
(lp2831
tp2832
atp2833
sI1074269624
(Vbootloader_clear_bss_section
p2834
(lp2835
(L2349904411L
L0L
(lp2836
(lp2837
tp2838
atp2839
sI1074236848
(Vefuse_hal_get_major_chip_version
p2840
(lp2841
(L208362539L
L0L
(lp2842
(lp2843
tp2844
a(L894792960L
L0L
(lp2845
(lp2846
tp2847
a(L724635033L
L0L
(lp2848
(lp2849
tp2850
a(L3360570486L
L0L
(lp2851
(lp2852
tp2853
atp2854
sI1074234800
(Vbootloader_flash_execute_command_common
p2855
(lp2856
(L2935702355L
L0L
(lp2857
(lp2858
tp2859
a(L120555589L
L0L
(lp2860
(lp2861
tp2862
a(L2890397610L
L3785322319L
(lp2863
(lp2864
V__assert_func
p2865
atp2866
a(L3021749L
L0L
(lp2867
(lp2868
tp2869
a(L153183703L
L0L
(lp2870
(lp2871
tp2872
a(L901582467L
L0L
(lp2873
(lp2874
tp2875
a(L695082870L
L0L
(lp2876
(lp2877
tp2878
a(L4024113366L
L0L
(lp2879
(lp2880
tp2881
a(L3998568023L
L0L
(lp2882
(lp2883
tp2884
a(L163389185L
L0L
(lp2885
(lp2886
tp2887
a(L2336699050L
L0L
(lp2888
(lp2889
tp2890
a(L4038246755L
L0L
(lp2891
(lp2892
tp2893
a(L1065820671L
L0L
(lp2894
(lp2895
tp2896
a(L3041777204L
L0L
(lp2897
(lp2898
tp2899
a(L3333696662L
L0L
(lp2900
(lp2901
tp2902
a(L963425213L
L0L
(lp2903
(lp2904
tp2905
a(L2106665914L
L0L
(lp2906
(lp2907
tp2908
a(L3360570486L
L0L
(lp2909
(lp2910
tp2911
atp2912
sI1074240688
(V__assert_func
p2913
(lp2914
(L4269287305L
L0L
(lp2915
(lp2916
tp2917
a(L106L
L0L
(lp2918
(lp2919
tp2920
atp2921
sI1074236604
(Vesp_cpu_in_ocd_debug_mode
p2922
(lp2923
(L2131426160L
L0L
(lp2924
(lp2925
tp2926
atp2927
sI1074246588
(Vrtc_clk_fast_freq_set
p2928
(lp2929
(L1500658463L
L0L
(lp2930
(lp2931
tp2932
atp2933
sI1074239928
(Vbootloader_reset
p2934
(lp2935
(L1822360791L
L3785322319L
(lp2936
(lp2937
Vbootloader_console_deinit
p2938
atp2939
a(L106L
L0L
(lp2940
(lp2941
tp2942
atp2943
sI1074270920
(Vmpu_hal_set_region_access
p2944
(lp2945
(L3538356822L
L0L
(lp2946
(lp2947
tp2948
a(L2902417580L
L0L
(lp2949
(lp2950
tp2951
a(L3020187L
L0L
(lp2952
(lp2953
tp2954
a(L3020187L
L0L
(lp2955
(lp2956
tp2957
a(L3360570486L
L0L
(lp2958
(lp2959
tp2960
a(L2258718273L
L0L
(lp2961
(lp2962
tp2963
a(L3446648619L
L0L
(lp2964
(lp2965
tp2966
a(L3739532189L
L0L
(lp2967
(lp2968
tp2969
a(L1300789895L
L0L
(lp2970
(lp2971
tp2972
a(L3472092938L
L0L
(lp2973
(lp2974
tp2975
atp2976
sI1074235844
(Vbootloader_flash_cs_timing_config
p2977
(lp2978
(L3796536297L
L0L
(lp2979
(lp2980
tp2981
atp2982
sI1074237380
(Vbootloader_common_ota_select_invalid
p2983
(lp2984
(L4027567199L
L0L
(lp2985
(lp2986
tp2987
a(L3397985842L
L0L
(lp2988
(lp2989
tp2990
a(L2258867228L
L0L
(lp2991
(lp2992
tp2993
a(L3785235668L
L0L
(lp2994
(lp2995
tp2996
atp2997
sI1074245824
(Vwdt_hal_write_protect_enable
p2998
(lp2999
(L387778158L
L0L
(lp3000
(lp3001
tp3002
a(L4195472003L
L0L
(lp3003
(lp3004
tp3005
a(L3360570486L
L0L
(lp3006
(lp3007
tp3008
a(L802523425L
L0L
(lp3009
(lp3010
tp3011
atp3012
sI1074247360
(Vrtc_clk_cpu_freq_to_xtal
p3013
(lp3014
(L3821147692L
L3785322319L
(lp3015
(lp3016
Vrtc_clk_apb_freq_update
p3017
atp3018
a(L702736306L
L0L
(lp3019
(lp3020
tp3021
a(L277445412L
L0L
(lp3022
(lp3023
tp3024
a(L309988740L
L0L
(lp3025
(lp3026
tp3027
atp3028
sI1074269120
(Vbootloader_init_mem
p3029
(lp3030
(L1511720305L
L3785322319L
(lp3031
(lp3032
Vesp_cpu_configure_region_protection
p3033
atp3034
atp3035
sI1074269888
(Vbootloader_enable_random
p3036
(lp3037
(L2247217716L
L1880226080L
(lp3038
(lp3039
Vesp_log_early_timestamp
p3040
aVbootloader_random_enable
p3041
atp3042
atp3043
sI1074236620
(Vesp_rom_uart_tx_wait_idle
p3044
(lp3045
(L708706374L
L0L
(lp3046
(lp3047
tp3048
a(L1301079727L
L0L
(lp3049
(lp3050
tp3051
a(L3597746521L
L0L
(lp3052
(lp3053
tp3054
a(L3694491048L
L0L
(lp3055
(lp3056
tp3057
a(L3055926844L
L0L
(lp3058
(lp3059
tp3060
a(L3360570486L
L0L
(lp3061
(lp3062
tp3063
atp3064
sI1074235592
(Vbootloader_flash_read_sfdp
p3065
(lp3066
(L711701400L
L0L
(lp3067
(lp3068
tp3069
a(L3282613751L
L3785322319L
(lp3070
(lp3071
V__assert_func
p3072
atp3073
a(L3704332455L
L3785322319L
(lp3074
(lp3075
Vbootloader_flash_execute_command_common
p3076
atp3077
atp3078
sI1074240712
(Vabort
p3079
(lp3080
(L73370910L
L0L
(lp3081
(lp3082
tp3083
a(L409471316L
L0L
(lp3084
(lp3085
tp3086
a(L106L
L0L
(lp3087
(lp3088
tp3089
atp3090
sI1074241748
(Vprocess_segments
p3091
(lp3092
(L3883698409L
L0L
(lp3093
(lp3094
tp3095
a(L2495454333L
L0L
(lp3096
(lp3097
tp3098
a(L4578542L
L0L
(lp3099
(lp3100
tp3101
a(L106L
L0L
(lp3102
(lp3103
tp3104
a(L1315312493L
L0L
(lp3105
(lp3106
tp3107
a(L2718798963L
L3785322319L
(lp3108
(lp3109
Vesp_log_early_timestamp
p3110
atp3111
a(L1440180646L
L3785322319L
(lp3112
(lp3113
Vbootloader_flash_read
p3114
atp3115
a(L2510149738L
L3785322319L
(lp3116
(lp3117
Vesp_log_early_timestamp
p3118
atp3119
a(L3360570486L
L0L
(lp3120
(lp3121
tp3122
a(L234193771L
L0L
(lp3123
(lp3124
tp3125
a(L1635713494L
L3785322319L
(lp3126
(lp3127
Vbootloader_sha256_data
p3128
atp3129
a(L926711887L
L0L
(lp3130
(lp3131
tp3132
a(L790360741L
L0L
(lp3133
(lp3134
tp3135
a(L3997307212L
L0L
(lp3136
(lp3137
tp3138
a(L3802068284L
L0L
(lp3139
(lp3140
tp3141
a(L2942462881L
L0L
(lp3142
(lp3143
tp3144
a(L2258867228L
L0L
(lp3145
(lp3146
tp3147
a(L1355332303L
L0L
(lp3148
(lp3149
tp3150
a(L2965680995L
L0L
(lp3151
(lp3152
tp3153
a(L1849436849L
L0L
(lp3154
(lp3155
tp3156
a(L1385804824L
L3785322319L
(lp3157
(lp3158
Vesp_log_early_timestamp
p3159
atp3160
a(L3895303701L
L0L
(lp3161
(lp3162
tp3163
a(L310091939L
L0L
(lp3164
(lp3165
tp3166
a(L531742663L
L3785322319L
(lp3167
(lp3168
Vesp_log_early_timestamp
p3169
atp3170
a(L3982404358L
L3785322319L
(lp3171
(lp3172
Vverify_load_addresses
p3173
atp3174
a(L106L
L0L
(lp3175
(lp3176
tp3177
a(L2300166925L
L0L
(lp3178
(lp3179
tp3180
a(L2684012095L
L0L
(lp3181
(lp3182
tp3183
a(L1905937838L
L3785322319L
(lp3184
(lp3185
Vbootloader_mmap
p3186
atp3187
a(L1098327470L
L3785322319L
(lp3188
(lp3189
Vesp_log_early_timestamp
p3190
atp3191
a(L2116114917L
L0L
(lp3192
(lp3193
tp3194
a(L147926536L
L0L
(lp3195
(lp3196
tp3197
a(L1534276982L
L3785322319L
(lp3198
(lp3199
Vbootloader_munmap
p3200
atp3201
a(L3105361649L
L0L
(lp3202
(lp3203
tp3204
a(L1216016797L
L3785322319L
(lp3205
(lp3206
Vbootloader_fill_random
p3207
atp3208
a(L3570641403L
L0L
(lp3209
(lp3210
tp3211
a(L3574335487L
L0L
(lp3212
(lp3213
tp3214
a(L3450268858L
L0L
(lp3215
(lp3216
tp3217
a(L3021749L
L0L
(lp3218
(lp3219
tp3220
a(L1609678444L
L0L
(lp3221
(lp3222
tp3223
a(L1777728568L
L0L
(lp3224
(lp3225
tp3226
a(L3020204L
L0L
(lp3227
(lp3228
tp3229
a(L591273984L
L0L
(lp3230
(lp3231
tp3232
a(L2076461546L
L0L
(lp3233
(lp3234
tp3235
a(L3832868376L
L0L
(lp3236
(lp3237
tp3238
a(L1749969336L
L0L
(lp3239
(lp3240
tp3241
a(L670934548L
L0L
(lp3242
(lp3243
tp3244
a(L1903785265L
L3785322319L
(lp3245
(lp3246
Vbootloader_sha256_data
p3247
atp3248
a(L90548756L
L0L
(lp3249
(lp3250
tp3251
a(L4195963580L
L0L
(lp3252
(lp3253
tp3254
a(L2572638616L
L0L
(lp3255
(lp3256
tp3257
a(L3740179196L
L0L
(lp3258
(lp3259
tp3260
a(L233873941L
L3785322319L
(lp3261
(lp3262
Vshould_load
p3263
atp3264
a(L3070788781L
L0L
(lp3265
(lp3266
tp3267
a(L121368540L
L3785322319L
(lp3268
(lp3269
Vesp_log_early_timestamp
p3270
atp3271
a(L93675945L
L0L
(lp3272
(lp3273
tp3274
a(L2104869573L
L0L
(lp3275
(lp3276
tp3277
a(L4007649496L
L0L
(lp3278
(lp3279
tp3280
a(L2902417580L
L0L
(lp3281
(lp3282
tp3283
a(L2636912524L
L0L
(lp3284
(lp3285
tp3286
a(L4195318902L
L3785322319L
(lp3287
(lp3288
Vbootloader_mmap_get_free_pages
p3289
atp3290
a(L3028481L
L0L
(lp3291
(lp3292
tp3293
a(L124545238L
L0L
(lp3294
(lp3295
tp3296
atp3297
sI1074269916
(Vbootloader_print_banner
p3298
(lp3299
(L3350900566L
L1832448559L
(lp3300
(lp3301
Vesp_log_early_timestamp
p3302
aVesp_log_early_timestamp
p3303
aVesp_log_early_timestamp
p3304
atp3305
atp3306
sI1074269136
(Vbootloader_random_enable
p3307
(lp3308
(L958980313L
L0L
(lp3309
(lp3310
tp3311
atp3312
sI1074269648
(Vbootloader_read_bootloader_header
p3313
(lp3314
(L3817908602L
L3785322319L
(lp3315
(lp3316
Vbootloader_flash_read
p3317
atp3318
a(L2367040441L
L3785322319L
(lp3319
(lp3320
Vesp_log_early_timestamp
p3321
atp3322
a(L735741265L
L0L
(lp3323
(lp3324
tp3325
atp3326
sI1074240476
(Vbootloader_sha256_finish
p3327
(lp3328
(L4066096136L
L0L
(lp3329
(lp3330
tp3331
a(L283309760L
L0L
(lp3332
(lp3333
tp3334
a(L2504541789L
L3785322319L
(lp3335
(lp3336
V__assert_func
p3337
atp3338
a(L3020204L
L0L
(lp3339
(lp3340
tp3341
a(L1077914239L
L0L
(lp3342
(lp3343
tp3344
a(L2534656226L
L0L
(lp3345
(lp3346
tp3347
a(L3404488268L
L3785322319L
(lp3348
(lp3349
Vbootloader_sha256_data
p3350
atp3351
a(L1076837905L
L0L
(lp3352
(lp3353
tp3354
a(L1830200745L
L3785322319L
(lp3355
(lp3356
Vbootloader_sha256_data
p3357
atp3358
a(L1563431552L
L0L
(lp3359
(lp3360
tp3361
a(L657425439L
L0L
(lp3362
(lp3363
tp3364
a(L4023907455L
L0L
(lp3365
(lp3366
tp3367
a(L657425439L
L0L
(lp3368
(lp3369
tp3370
a(L894366391L
L0L
(lp3371
(lp3372
tp3373
a(L2975660674L
L0L
(lp3374
(lp3375
tp3376
a(L3347778L
L0L
(lp3377
(lp3378
tp3379
a(L3360570486L
L0L
(lp3380
(lp3381
tp3382
atp3383
sI1074240220
(Vindex_to_partition
p3384
(lp3385
(L4066096119L
L0L
(lp3386
(lp3387
tp3388
a(L1739185955L
L0L
(lp3389
(lp3390
tp3391
a(L2171552758L
L0L
(lp3392
(lp3393
tp3394
a(L2808906342L
L0L
(lp3395
(lp3396
tp3397
a(L2101481936L
L0L
(lp3398
(lp3399
tp3400
a(L3698927993L
L0L
(lp3401
(lp3402
tp3403
a(L2808826781L
L0L
(lp3404
(lp3405
tp3406
a(L3003398163L
L0L
(lp3407
(lp3408
tp3409
a(L1104460200L
L0L
(lp3410
(lp3411
tp3412
a(L1087646172L
L0L
(lp3413
(lp3414
tp3415
atp3416
sI1074245852
(Vefuse_hal_get_rated_freq_mhz
p3417
(lp3418
(L1680594370L
L0L
(lp3419
(lp3420
tp3421
a(L2965302338L
L0L
(lp3422
(lp3423
tp3424
a(L3360570486L
L0L
(lp3425
(lp3426
tp3427
atp3428
sI1074239960
(Vbootloader_utility_load_boot_image
p3429
(lp3430
(L1561528311L
L0L
(lp3431
(lp3432
tp3433
a(L2177418995L
L3785322319L
(lp3434
(lp3435
Vtry_load_partition
p3436
atp3437
a(L2749106626L
L3785322319L
(lp3438
(lp3439
Vload_image
p3440
atp3441
a(L157669688L
L3785322319L
(lp3442
(lp3443
Vesp_log_early_timestamp
p3444
atp3445
a(L3827921190L
L3785322319L
(lp3446
(lp3447
Vbootloader_reset
p3448
atp3449
a(L2542673780L
L3785322319L
(lp3450
(lp3451
Vindex_to_partition
p3452
atp3453
a(L1204373741L
L3785322319L
(lp3454
(lp3455
Vtry_load_partition
p3456
atp3457
a(L3020187L
L0L
(lp3458
(lp3459
tp3460
a(L3111076057L
L0L
(lp3461
(lp3462
tp3463
a(L2070875117L
L3785322319L
(lp3464
(lp3465
Vset_actual_ota_seq
p3466
atp3467
a(L1868897605L
L3785322319L
(lp3468
(lp3469
Vlog_invalid_app_partition
p3470
atp3471
a(L831650730L
L0L
(lp3472
(lp3473
tp3474
a(L3021737L
L0L
(lp3475
(lp3476
tp3477
a(L4083823862L
L0L
(lp3478
(lp3479
tp3480
a(L3818328201L
L3785322319L
(lp3481
(lp3482
Vtry_load_partition
p3483
atp3484
a(L1643420822L
L3785322319L
(lp3485
(lp3486
Vesp_log_early_timestamp
p3487
atp3488
a(L2185156151L
L3785322319L
(lp3489
(lp3490
Vindex_to_partition
p3491
atp3492
a(L1074657773L
L3785322319L
(lp3493
(lp3494
Vtry_load_partition
p3495
atp3496
a(L3027024L
L0L
(lp3497
(lp3498
tp3499
a(L2127949398L
L0L
(lp3500
(lp3501
tp3502
a(L3061261803L
L0L
(lp3503
(lp3504
tp3505
a(L3582858798L
L3785322319L
(lp3506
(lp3507
Vlog_invalid_app_partition
p3508
atp3509
a(L4140564132L
L3785322319L
(lp3510
(lp3511
Vesp_log_early_timestamp
p3512
atp3513
atp3514
sI1074245336
(Vwdt_hal_config_stage
p3515
(lp3516
(L331558507L
L0L
(lp3517
(lp3518
tp3519
a(L4279082939L
L0L
(lp3520
(lp3521
tp3522
a(L3020204L
L0L
(lp3523
(lp3524
tp3525
a(L3020187L
L0L
(lp3526
(lp3527
tp3528
a(L3020187L
L0L
(lp3529
(lp3530
tp3531
a(L94425498L
L3785322319L
(lp3532
(lp3533
Vabort
p3534
atp3535
a(L2927143788L
L0L
(lp3536
(lp3537
tp3538
a(L3360570486L
L0L
(lp3539
(lp3540
tp3541
a(L3657953876L
L0L
(lp3542
(lp3543
tp3544
a(L3718556305L
L0L
(lp3545
(lp3546
tp3547
a(L4229860718L
L0L
(lp3548
(lp3549
tp3550
a(L3020187L
L0L
(lp3551
(lp3552
tp3553
a(L2902417580L
L0L
(lp3554
(lp3555
tp3556
a(L3020187L
L0L
(lp3557
(lp3558
tp3559
a(L3028464L
L0L
(lp3560
(lp3561
tp3562
a(L2600837442L
L0L
(lp3563
(lp3564
tp3565
a(L2134283093L
L0L
(lp3566
(lp3567
tp3568
a(L1545969355L
L0L
(lp3569
(lp3570
tp3571
a(L4007862746L
L0L
(lp3572
(lp3573
tp3574
atp3575
sI1074238176
(Vbootloader_enable_wp
p3576
(lp3577
(L1117825804L
L3785322319L
(lp3578
(lp3579
Vbootloader_execute_flash_command
p3580
atp3581
atp3582
sI1074237408
(Vbootloader_common_select_otadata
p3583
(lp3584
(L2342662536L
L0L
(lp3585
(lp3586
tp3587
a(L3806783650L
L0L
(lp3588
(lp3589
tp3590
a(L1674928252L
L0L
(lp3591
(lp3592
tp3593
a(L251571983L
L0L
(lp3594
(lp3595
tp3596
a(L3360570486L
L0L
(lp3597
(lp3598
tp3599
a(L2045232488L
L0L
(lp3600
(lp3601
tp3602
a(L189726519L
L0L
(lp3603
(lp3604
tp3605
a(L3095066987L
L0L
(lp3606
(lp3607
tp3608
a(L3592023188L
L0L
(lp3609
(lp3610
tp3611
a(L1641201884L
L0L
(lp3612
(lp3613
tp3614
atp3615
sI1074239200
(Vtry_load_partition
p3616
(lp3617
(L1263750142L
L0L
(lp3618
(lp3619
tp3620
a(L2258688482L
L0L
(lp3621
(lp3622
tp3623
a(L3360570486L
L0L
(lp3624
(lp3625
tp3626
a(L530241438L
L3785322319L
(lp3627
(lp3628
Vbootloader_load_image
p3629
atp3630
a(L2684814704L
L3785322319L
(lp3631
(lp3632
Vesp_log_early_timestamp
p3633
atp3634
atp3635
sI1074246112
(Vrtc_clk_32k_enable_common
p3636
(lp3637
(L3622748675L
L0L
(lp3638
(lp3639
tp3640
atp3641
sI1074248416
(Vesp_efuse_utility_update_virt_blocks
p3642
(lp3643
(L4126549225L
L3785322319L
(lp3644
(lp3645
Vesp_log_early_timestamp
p3646
atp3647
a(L1900679720L
L0L
(lp3648
(lp3649
tp3650
a(L3021749L
L0L
(lp3651
(lp3652
tp3653
a(L2329022007L
L0L
(lp3654
(lp3655
tp3656
a(L3360570486L
L0L
(lp3657
(lp3658
tp3659
a(L3309002545L
L0L
(lp3660
(lp3661
tp3662
atp3663
sI1074270688
(Vrtc_vddsdio_get_config
p3664
(lp3665
(L39377082L
L0L
(lp3666
(lp3667
tp3668
a(L147025923L
L0L
(lp3669
(lp3670
tp3671
a(L318395269L
L0L
(lp3672
(lp3673
tp3674
a(L1265958312L
L0L
(lp3675
(lp3676
tp3677
a(L3172236302L
L0L
(lp3678
(lp3679
tp3680
a(L1116012092L
L0L
(lp3681
(lp3682
tp3683
a(L1719615367L
L0L
(lp3684
(lp3685
tp3686
a(L183785369L
L0L
(lp3687
(lp3688
tp3689
atp3690
sI1074246632
(Vrtc_clk_fast_freq_get
p3691
(lp3692
(L2805650262L
L0L
(lp3693
(lp3694
tp3695
atp3696
sI1074238196
(Vbootloader_mmap_get_free_pages
p3697
(lp3698
(L1496516875L
L0L
(lp3699
(lp3700
tp3701
atp3702
sI1074269692
(Vbootloader_check_bootloader_validity
p3703
(lp3704
(L890560707L
L1832448559L
(lp3705
(lp3706
Vefuse_hal_chip_revision
p3707
aVesp_log_early_timestamp
p3708
aVbootloader_common_check_chip_validity
p3709
atp3710
atp3711
sI1074243324
(Vesp_rom_spiflash_wait_idle
p3712
(lp3713
(L3233075690L
L0L
(lp3714
(lp3715
tp3716
a(L2023766174L
L0L
(lp3717
(lp3718
tp3719
a(L2805933647L
L0L
(lp3720
(lp3721
tp3722
a(L3086959262L
L0L
(lp3723
(lp3724
tp3725
a(L4161019926L
L3785322319L
(lp3726
(lp3727
Vesp_rom_spiflash_read_status
p3728
atp3729
atp3730
sI1074238204
(Vbootloader_fill_random
p3731
(lp3732
(L3026789978L
L0L
(lp3733
(lp3734
tp3735
a(L1056102925L
L0L
(lp3736
(lp3737
tp3738
a(L97689L
L0L
(lp3739
(lp3740
tp3741
a(L3360570486L
L0L
(lp3742
(lp3743
tp3744
a(L324866589L
L3785322319L
(lp3745
(lp3746
V__assert_func
p3747
atp3748
a(L2008660626L
L0L
(lp3749
(lp3750
tp3751
a(L3028481L
L0L
(lp3752
(lp3753
tp3754
a(L983138374L
L0L
(lp3755
(lp3756
tp3757
a(L2607138306L
L0L
(lp3758
(lp3759
tp3760
a(L1982128194L
L0L
(lp3761
(lp3762
tp3763
atp3764
sI1074237692
(Vbootloader_munmap
p3765
(lp3766
(L1713649238L
L0L
(lp3767
(lp3768
tp3769
a(L847703320L
L0L
(lp3770
(lp3771
tp3772
a(L3360570486L
L0L
(lp3773
(lp3774
tp3775
atp3776
sI1074235644
(Vbootloader_read_flash_id
p3777
(lp3778
(L3925322170L
L3785322319L
(lp3779
(lp3780
Vbootloader_execute_flash_command
p3781
atp3782
atp3783
sI1074247160
(Vrtc_clk_cpu_freq_get_config
p3784
(lp3785
(L906905014L
L0L
(lp3786
(lp3787
tp3788
a(L2902417580L
L0L
(lp3789
(lp3790
tp3791
a(L1777368540L
L0L
(lp3792
(lp3793
tp3794
a(L1257359012L
L1880226080L
(lp3795
(lp3796
Vesp_log_early_timestamp
p3797
aVabort
p3798
atp3799
a(L1393568794L
L3785322319L
(lp3800
(lp3801
Vrtc_clk_xtal_freq_get
p3802
atp3803
a(L584032699L
L0L
(lp3804
(lp3805
tp3806
a(L4100800062L
L0L
(lp3807
(lp3808
tp3809
a(L3020187L
L0L
(lp3810
(lp3811
tp3812
a(L713819170L
L0L
(lp3813
(lp3814
tp3815
a(L106L
L0L
(lp3816
(lp3817
tp3818
a(L549042870L
L0L
(lp3819
(lp3820
tp3821
a(L187152368L
L0L
(lp3822
(lp3823
tp3824
a(L4149732163L
L0L
(lp3825
(lp3826
tp3827
atp3828
sI1074246648
(Vrtc_clk_bbpll_configure
p3829
(lp3830
(L3990937399L
L0L
(lp3831
(lp3832
tp3833
a(L106L
L0L
(lp3834
(lp3835
tp3836
a(L446175133L
L0L
(lp3837
(lp3838
tp3839
a(L106L
L0L
(lp3840
(lp3841
tp3842
a(L83268611L
L0L
(lp3843
(lp3844
tp3845
a(L106L
L0L
(lp3846
(lp3847
tp3848
a(L82345090L
L0L
(lp3849
(lp3850
tp3851
a(L106L
L0L
(lp3852
(lp3853
tp3854
a(L2258688482L
L0L
(lp3855
(lp3856
tp3857
a(L3177466952L
L0L
(lp3858
(lp3859
tp3860
a(L3959680931L
L0L
(lp3861
(lp3862
tp3863
a(L946534576L
L0L
(lp3864
(lp3865
tp3866
a(L1299866343L
L0L
(lp3867
(lp3868
tp3869
a(L3291765465L
L0L
(lp3870
(lp3871
tp3872
a(L3241888512L
L0L
(lp3873
(lp3874
tp3875
a(L3075531556L
L0L
(lp3876
(lp3877
tp3878
a(L83268344L
L0L
(lp3879
(lp3880
tp3881
a(L82344823L
L0L
(lp3882
(lp3883
tp3884
a(L1667153377L
L0L
(lp3885
(lp3886
tp3887
a(L2258867279L
L0L
(lp3888
(lp3889
tp3890
a(L3819751895L
L0L
(lp3891
(lp3892
tp3893
a(L1551160474L
L0L
(lp3894
(lp3895
tp3896
a(L1712476653L
L0L
(lp3897
(lp3898
tp3899
a(L4011631532L
L0L
(lp3900
(lp3901
tp3902
atp3903
sI1074240760
(Vbootloader_ana_clock_glitch_reset_config
p3904
(lp3905
(L2100504542L
L0L
(lp3906
(lp3907
tp3908
atp3909
sI1074236920
(Vefuse_hal_get_minor_chip_version
p3910
(lp3911
(L484689204L
L0L
(lp3912
(lp3913
tp3914
atp3915
ssS'functionsdups'
p3916
g11
((lp3917
tp3918
Rp3919
sS'immediatedups'
p3920
g11
((lp3921
tp3922
Rp3923
sS'functiondups'
p3924
g11
((lp3925
tp3926
Rp3927
sS'fuzzy'
p3928
(dp3929
L1536L
I1074240688
sL617583950L
I1074237096
sL430153639L
I1074235956
sL3121027072L
I1074270688
sL2082889262L
I1074241536
sL3879741902L
I1074241168
sL3538491111L
I1074247360
sL2919016435L
I1074235300
sL16208487L
I1074234800
sL2680783959L
I1074235688
sL3512578114L
I1074239200
sL2469233929L
I1074240476
sL1792232694L
I1074245948
sL4011111091L
I1074237744
sL1377559356L
I1074242464
sL3897252859L
I1074239008
sL1065525808L
I1074236936
sL2327783177L
I1074240768
sL1164839255L
I1074241748
sL449860969L
I1074247072
sL3210669721L
I1074246228
sL819541406L
I1074267808
sL1332800441L
I1074237340
sL2884218272L
I1074267984
sL1148089122L
I1074239092
sL1345429244L
I1074240920
sL2689419264L
I1074246648
sL4160102055L
I1074239928
sL4202185385L
I1074243324
sL2453272040L
I1074247800
sL3690558760L
I1074270060
sL1768086576L
I1074236424
sL4171975289L
I1074243620
sL1565254297L
I1074243924
sL2191698036L
I1074269764
sL1513350244L
I1074239624
sL2474570535L
I1074238204
sL3428965560L
I1074247476
sL3170828071L
I1074248416
sL519424169L
I1074248256
sL2117090412L
I1074268204
sL812946199L
I1074237520
sL737694352L
I1074243432
sL503029138L
I1074243372
sL277788135L
I1074244012
sL4253866342L
I1074239960
sL3991645697L
I1074268952
sL47534270L
I1074238624
sL2262558768L
I1074243232
sL424867129L
I1074243752
sL3834155367L
I1074241112
sL176878843L
I1074239248
sL3883282432L
I1074241628
sL4173399607L
I1074242944
sL2726385143L
I1074245336
sL1667054119L
I1074240312
sL4191211306L
I1074247160
sL2687107543L
I1074270232
sL206902443L
I1074238036
ssb.