ccopy_reg
_reconstructor
p0
(crizzo
RizzoSignature
p1
c__builtin__
object
p2
Ntp3
Rp4
(dp5
S'formal'
p6
(dp7
L61540265L
I1074234788
sL4149167435L
I1074235676
sL2881587142L
I1074247276
sL2048961576L
I1074240660
sL3061073278L
I1074239948
sL1741170115L
I1074238004
sL633479887L
I1074240676
sL2156867713L
I1074267964
sL3442502945L
I1074269668
sL2226187430L
I1074238284
sL2137527423L
I1074236836
sL3871711965L
I1074238612
sL4213015302L
I1074242916
sL2359915957L
I1074247020
sL1984013661L
I1074247320
sL104522008L
I1074237028
sL3211103558L
I1074236412
sL3955774956L
I1074237680
sL2028381634L
I1074245672
sL1725516799L
I1074269892
sL1359501856L
I1074239612
sL624869140L
I1074269956
sL1010441494L
I1074247060
sL3567680394L
I1074267139
sL2896295319L
I1074236924
sL271775752L
I1074267804
sL2590834774L
I1074270896
sL4114820221L
I1074267980
sL855787331L
I1074243740
sL2462083717L
I1074270824
sL2467304534L
I1074236608
sL1680425056L
I1074243912
sL4065997320L
I1074246620
sL3428240388L
I1074247744
sL2175640063L
I1074269988
sL359363645L
I1074241736
sL1585823442L
I1074245812
sL744601145L
I1074235832
sL4026536540L
I1074243608
sL1870897119L
I1074247464
sL26887879L
I1074243220
sL3643625584L
I1074268200
sL2307242981L
I1074237508
sL740862794L
I1074270664
sL2657357824L
I1074237084
sL3961899840L
I1074243360
sL3377882929L
I1074269112
sL263605983L
I1074240756
sL1799339094L
I1074247788
sL728069141L
I1074269624
sL2045471388L
I1074236672
sL3247711715L
I1074245744
sL2057054749L
I1074248212
sL3412731112L
I1074243312
sL3730295765L
I1074245640
sL1140530296L
I1074240700
sL3712974027L
I1074246428
sL3307282855L
I1074238164
sL4040482908L
I1074246100
sL612086517L
I1074235288
sL4114736847L
I1074236908
sL242136289L
I1074238024
sL3844512690L
I1074236996
sL1495735216L
I1074269864
sL2379627086L
I1074236796
sL1364128470L
I1074247348
sL3035696490L
I1074245324
sL1540116328L
I1074242932
sL83337299L
I1074237476
sL1156874576L
I1074236592
sL666229264L
I1074240300
sL1652900655L
I1074238600
sL1371353105L
I1074246276
sL23021043L
I1074235944
sL48580680L
I1074239188
sL493999838L
I1074267912
sL2997001746L
I1074237328
sL3970660634L
I1074241524
sL1901372901L
I1074246520
sL3588042603L
I1074239236
sL2610239788L
I1074246452
sL2819127986L
I1074237048
sL243291962L
I1074240908
sL2988777118L
I1074243420
sL549239041L
I1074238192
sL4033052637L
I1074246216
sL2629399161L
I1074269584
sL3783856456L
I1074244736
sL1164083360L
I1074235632
sL1577973455L
I1074239080
sL1242724561L
I1074235580
sL3347699786L
I1074268928
sL294958673L
I1074241616
sL2231079997L
I1074269600
sL593775276L
I1074246404
sL2249539038L
I1074240208
sL3412203182L
I1074246536
sL1012036252L
I1074244000
sL4142749756L
I1074236560
sL1865528544L
I1074245840
sL3397796702L
I1074240280
sL2263182908L
I1074238184
sL952628764L
I1074246576
sL1677784797L
I1074245876
sL2467527886L
I1074245936
sL3984686945L
I1074269740
sL188664287L
I1074235256
sL721128985L
I1074241156
sL2959238529L
I1074237396
sL2299069164L
I1074270036
sL692536993L
I1074237368
sL2319953056L
I1074238996
sL3845421789L
I1074237732
sL4079009225L
I1074242452
sL2663572780L
I1074240464
sL806410976L
I1074248244
sL3608561895L
I1074269096
sL1901078693L
I1074247148
sL97097788L
I1074270208
sL821349378L
I1074246636
sL4267894680L
I1074236764
sL3763660718L
I1074239916
sL2246062622L
I1074241100
ssS'immediates'
p8
(dp9
sS'formaldups'
p10
c__builtin__
set
p11
((lp12
tp13
Rp14
sS'stringdups'
p15
g11
((lp16
tp17
Rp18
sS'fuzzydups'
p19
g11
((lp20
tp21
Rp22
sS'strings'
p23
(dp24
sS'functions'
p25
(dp26
I1074267912
(Vbootloader_common_vddsdio_configure
p27
(lp28
(L1922017289L
L3785322319L
(lp29
(lp30
Vrtc_vddsdio_get_config
p31
atp32
a(L1185899578L
L3785322319L
(lp33
(lp34
Vrtc_vddsdio_set_config
p35
atp36
a(L3360570486L
L0L
(lp37
(lp38
tp39
atp40
sI1074239236
(Vbootloader_utility_load_partition_table
p41
(lp42
(L337793758L
L3785322319L
(lp43
(lp44
Vbootloader_mmap
p45
atp46
a(L1572404640L
L3785322319L
(lp47
(lp48
Vesp_log_early_timestamp
p49
atp50
a(L2258688482L
L0L
(lp51
(lp52
tp53
a(L3360570486L
L0L
(lp54
(lp55
tp56
a(L2379286607L
L3785322319L
(lp57
(lp58
Vesp_partition_table_verify
p59
atp60
a(L1824441572L
L3785322319L
(lp61
(lp62
Vesp_log_early_timestamp
p63
atp64
a(L555142709L
L1880226080L
(lp65
(lp66
Vesp_log_early_timestamp
p67
aVesp_log_early_timestamp
p68
atp69
a(L60599615L
L0L
(lp70
(lp71
tp72
a(L2509258321L
L1880226080L
(lp73
(lp74
Vbootloader_munmap
p75
aVesp_log_early_timestamp
p76
atp77
a(L4226553678L
L0L
(lp78
(lp79
tp80
a(L3028464L
L0L
(lp81
(lp82
tp83
a(L106L
L0L
(lp84
(lp85
tp86
a(L307915808L
L0L
(lp87
(lp88
tp89
a(L3021439948L
L3785322319L
(lp90
(lp91
Vesp_log_early_timestamp
p92
atp93
a(L3990577774L
L0L
(lp94
(lp95
tp96
a(L3020187L
L0L
(lp97
(lp98
tp99
a(L2559753343L
L0L
(lp100
(lp101
tp102
a(L1154512743L
L0L
(lp103
(lp104
tp105
a(L1380578767L
L0L
(lp106
(lp107
tp108
a(L1308290804L
L0L
(lp109
(lp110
tp111
a(L3477770624L
L0L
(lp112
(lp113
tp114
a(L106L
L0L
(lp115
(lp116
tp117
a(L93674324L
L0L
(lp118
(lp119
tp120
a(L2902417580L
L0L
(lp121
(lp122
tp123
a(L1245794467L
L0L
(lp124
(lp125
tp126
a(L106L
L0L
(lp127
(lp128
tp129
a(L955455903L
L0L
(lp130
(lp131
tp132
a(L1217165316L
L0L
(lp133
(lp134
tp135
a(L106L
L0L
(lp136
(lp137
tp138
a(L1256876719L
L0L
(lp139
(lp140
tp141
a(L106L
L0L
(lp142
(lp143
tp144
a(L106L
L0L
(lp145
(lp146
tp147
a(L2752742501L
L0L
(lp148
(lp149
tp150
atp151
sI1074246404
(Vrtc_clk_8m_enabled
p152
(lp153
(L3754594988L
L0L
(lp154
(lp155
tp156
atp157
sI1074236672
(Vesp_rom_uart_set_clock_baudrate
p158
(lp159
(L881452272L
L0L
(lp160
(lp161
tp162
a(L3909951828L
L0L
(lp163
(lp164
tp165
a(L1008980029L
L0L
(lp166
(lp167
tp168
a(L869159045L
L0L
(lp169
(lp170
tp171
a(L2805931435L
L0L
(lp172
(lp173
tp174
a(L1926040272L
L0L
(lp175
(lp176
tp177
atp178
sI1074267136
(V_init
p179
(lp180
(L3493042598L
L0L
(lp181
(lp182
tp183
atp184
sI1074268928
(Vbootloader_clock_configure
p185
(lp186
(L1154001737L
L1880226080L
(lp187
(lp188
Vesp_rom_uart_tx_wait_idle
p189
aVefuse_hal_chip_revision
p190
atp191
a(L1210868914L
L0L
(lp192
(lp193
tp194
a(L64047172L
L3785322319L
(lp195
(lp196
Vrtc_clk_apb_freq_get
p197
atp198
a(L1203878623L
L1832448559L
(lp199
(lp200
Vrtc_clk_slow_freq_get
p201
aVrtc_clk_fast_freq_get
p202
aVrtc_clk_init
p203
atp204
a(L2956993324L
L0L
(lp205
(lp206
tp207
a(L3864824743L
L0L
(lp208
(lp209
tp210
a(L106L
L0L
(lp211
(lp212
tp213
atp214
sI1074270208
(Vrtc_clk_init
p215
(lp216
(L3734878590L
L0L
(lp217
(lp218
tp219
a(L42671777L
L3785322319L
(lp220
(lp221
Vrtc_clk_cpu_freq_to_xtal
p222
atp223
a(L3536108137L
L0L
(lp224
(lp225
tp226
a(L4184912069L
L0L
(lp227
(lp228
tp229
a(L2873281153L
L0L
(lp230
(lp231
tp232
a(L912414356L
L3785322319L
(lp233
(lp234
Vrtc_clk_xtal_freq_get
p235
atp236
a(L2504323164L
L1157885199L
(lp237
(lp238
Vesp_rom_uart_tx_wait_idle
p239
aVrtc_clk_xtal_freq_update
p240
aVrtc_clk_apb_freq_update
p241
aVrtc_clk_cpu_freq_get_config
p242
aVrtc_clk_cpu_freq_mhz_to_config
p243
atp244
a(L3225914984L
L1880226080L
(lp245
(lp246
Vesp_log_early_timestamp
p247
aVabort
p248
atp249
a(L4187693717L
L3785322319L
(lp250
(lp251
Vrtc_clk_xtal_freq_estimate
p252
atp253
a(L2532622708L
L3785322319L
(lp254
(lp255
Vesp_log_early_timestamp
p256
atp257
a(L4188325301L
L0L
(lp258
(lp259
tp260
a(L1563923531L
L0L
(lp261
(lp262
tp263
a(L106L
L0L
(lp264
(lp265
tp266
a(L4070631878L
L3785322319L
(lp267
(lp268
Vrtc_clk_xtal_freq_estimate
p269
atp270
a(L106L
L0L
(lp271
(lp272
tp273
a(L3373934571L
L3785322319L
(lp274
(lp275
Vesp_log_early_timestamp
p276
atp277
a(L4130589666L
L3785322319L
(lp278
(lp279
Vrtc_clk_cpu_freq_set_config
p280
atp281
a(L4168829660L
L3785322319L
(lp282
(lp283
Vrtc_clk_32k_enable
p284
atp285
a(L3016870L
L0L
(lp286
(lp287
tp288
a(L87508165L
L3785322319L
(lp289
(lp290
Vrtc_clk_8m_enable
p291
atp292
a(L530469956L
L1880226080L
(lp293
(lp294
Vrtc_clk_fast_freq_set
p295
aVrtc_clk_slow_freq_set
p296
atp297
atp298
sI1074267139
(V_text_start
p299
(lp300
(L1817914933L
L0L
(lp301
(lp302
tp303
atp304
sI1074269956
(Vbootloader_console_init
p305
(lp306
(L375142255L
L1832448559L
(lp307
(lp308
Vesp_rom_uart_tx_wait_idle
p309
aVrtc_clk_apb_freq_get
p310
aVesp_rom_uart_set_clock_baudrate
p311
atp312
atp313
sI1074245640
(Vwdt_hal_write_protect_disable
p314
(lp315
(L2655380989L
L0L
(lp316
(lp317
tp318
a(L4195472003L
L0L
(lp319
(lp320
tp321
a(L3360570486L
L0L
(lp322
(lp323
tp324
a(L1210571996L
L0L
(lp325
(lp326
tp327
atp328
sI1074238996
(Vlog_invalid_app_partition
p329
(lp330
(L4293078423L
L0L
(lp331
(lp332
tp333
a(L3028464L
L0L
(lp334
(lp335
tp336
a(L60127667L
L3785322319L
(lp337
(lp338
Vesp_log_early_timestamp
p339
atp340
a(L44113432L
L0L
(lp341
(lp342
tp343
a(L3360570486L
L0L
(lp344
(lp345
tp346
a(L1770519575L
L3785322319L
(lp347
(lp348
Vesp_log_early_timestamp
p349
atp350
a(L2524670070L
L3785322319L
(lp351
(lp352
Vesp_log_early_timestamp
p353
atp354
atp355
sI1074248212
(Vrtc_clk_cal_ratio
p356
(lp357
(L2006006373L
L3785322319L
(lp358
(lp359
Vrtc_clk_cal_internal
p360
atp361
atp362
sI1074240272
(Vbootloader_debug_buffer
p363
(lp364
(L2100504542L
L0L
(lp365
(lp366
tp367
atp368
sI1074235676
(Vbootloader_flash_xmc_startup
p369
(lp370
(L4031258446L
L3785322319L
(lp371
(lp372
Vis_xmc_chip_strict
p373
atp374
a(L2258688482L
L0L
(lp375
(lp376
tp377
a(L3360570486L
L0L
(lp378
(lp379
tp380
a(L2860324232L
L3785322319L
(lp381
(lp382
Vbootloader_flash_read_sfdp
p383
atp384
a(L3354428414L
L2567856111L
(lp385
(lp386
Vesp_log_early_timestamp
p387
aVbootloader_execute_flash_command
p388
aVbootloader_execute_flash_command
p389
aVbootloader_execute_flash_command
p390
aVbootloader_execute_flash_command
p391
aVbootloader_read_flash_id
p392
aVis_xmc_chip_strict
p393
atp394
a(L3332645139L
L3785322319L
(lp395
(lp396
Vesp_log_early_timestamp
p397
atp398
atp399
sI1074246428
(Vrtc_clk_8md256_enabled
p400
(lp401
(L2910123117L
L0L
(lp402
(lp403
tp404
atp405
sI1074243608
(Vesp_rom_spiflash_erase_sector
p406
(lp407
(L3898401745L
L0L
(lp408
(lp409
tp410
a(L2258688483L
L0L
(lp411
(lp412
tp413
a(L3360570486L
L0L
(lp414
(lp415
tp416
a(L3212356251L
L3785322319L
(lp417
(lp418
Vesp_rom_spiflash_enable_write
p419
atp420
a(L184152988L
L0L
(lp421
(lp422
tp423
a(L1417699914L
L3785322319L
(lp424
(lp425
Vesp_rom_spiflash_wait_idle
p426
atp427
a(L3333707777L
L0L
(lp428
(lp429
tp430
a(L3582858798L
L3785322319L
(lp431
(lp432
Vesp_rom_spiflash_wait_idle
p433
atp434
atp435
sI1074240280
(Vbootloader_sha256_start
p436
(lp437
(L4134328955L
L0L
(lp438
(lp439
tp440
atp441
sI1074268200
(Vbootloader_init
p442
(lp443
(L2725830639L
L3785322319L
(lp444
(lp445
Vbootloader_init_mem
p446
atp447
a(L450731687L
L0L
(lp448
(lp449
tp450
a(L3336286567L
L3785322319L
(lp451
(lp452
V__assert_func
p453
atp454
a(L3188578498L
L0L
(lp455
(lp456
tp457
a(L1277172108L
L0L
(lp458
(lp459
tp460
a(L2926278337L
L0L
(lp461
(lp462
tp463
a(L2851108022L
L0L
(lp464
(lp465
tp466
a(L3027019L
L0L
(lp467
(lp468
tp469
a(L4254309010L
L0L
(lp470
(lp471
tp472
a(L2362411092L
L1832448559L
(lp473
(lp474
Vbootloader_clear_bss_section
p475
aVbootloader_common_vddsdio_configure
p476
aVbootloader_clock_get_rated_freq_mhz
p477
atp478
a(L3987130017L
L1157885199L
(lp479
(lp480
Vbootloader_clock_configure
p481
aVbootloader_console_init
p482
aVbootloader_print_banner
p483
aVbootloader_flash_update_id
p484
aVbootloader_flash_xmc_startup
p485
atp486
a(L1227450900L
L3785322319L
(lp487
(lp488
Vesp_log_early_timestamp
p489
atp490
a(L3642695687L
L3785322319L
(lp491
(lp492
Vesp_log_early_timestamp
p493
atp494
a(L3360570486L
L0L
(lp495
(lp496
tp497
a(L2444883382L
L3785322319L
(lp498
(lp499
Vbootloader_read_bootloader_header
p500
atp501
a(L2444883382L
L3785322319L
(lp502
(lp503
Vbootloader_check_bootloader_validity
p504
atp505
a(L1541487705L
L2485746240L
(lp506
(lp507
Vbootloader_flash_gpio_config
p508
aVbootloader_flash_dummy_config
p509
aVbootloader_flash_cs_timing_config
p510
aVbootloader_flash_unlock
p511
atp512
a(L2419480444L
L0L
(lp513
(lp514
tp515
a(L1350909440L
L0L
(lp516
(lp517
tp518
a(L3902505858L
L0L
(lp519
(lp520
tp521
a(L2051117730L
L3785322319L
(lp522
(lp523
Vesp_log_early_timestamp
p524
atp525
a(L4025035610L
L0L
(lp526
(lp527
tp528
a(L4028729694L
L0L
(lp529
(lp530
tp531
a(L2883563654L
L0L
(lp532
(lp533
tp534
a(L2887257738L
L0L
(lp535
(lp536
tp537
a(L3201442508L
L0L
(lp538
(lp539
tp540
a(L187795384L
L3785322319L
(lp541
(lp542
Vesp_log_early_timestamp
p543
atp544
a(L93674324L
L0L
(lp545
(lp546
tp547
a(L3316050533L
L0L
(lp548
(lp549
tp550
a(L718637778L
L0L
(lp551
(lp552
tp553
a(L2781192072L
L0L
(lp554
(lp555
tp556
a(L2773812181L
L0L
(lp557
(lp558
tp559
a(L2466579545L
L3785322319L
(lp560
(lp561
Vesp_log_early_timestamp
p562
atp563
a(L104277116L
L0L
(lp564
(lp565
tp566
a(L2642220900L
L0L
(lp567
(lp568
tp569
a(L819703139L
L0L
(lp570
(lp571
tp572
a(L575140665L
L0L
(lp573
(lp574
tp575
a(L2413747662L
L3785322319L
(lp576
(lp577
Vbootloader_enable_wp
p578
atp579
a(L1092107084L
L0L
(lp580
(lp581
tp582
a(L3239157056L
L3785322319L
(lp583
(lp584
Vesp_log_early_timestamp
p585
atp586
a(L3562778957L
L0L
(lp587
(lp588
tp589
a(L569753936L
L0L
(lp590
(lp591
tp592
a(L2902417580L
L0L
(lp593
(lp594
tp595
a(L1944713791L
L1880226080L
(lp596
(lp597
Vwdt_reset_info_dump
p598
aVwdt_reset_info_dump
p599
atp600
a(L2386818306L
L1880226080L
(lp601
(lp602
Vbootloader_config_wdt
p603
aVbootloader_enable_random
p604
atp605
a(L2867233991L
L3785322319L
(lp606
(lp607
Vesp_log_early_timestamp
p608
atp609
atp610
sI1074237732
(Vbootloader_flash_read
p611
(lp612
(L2699333355L
L0L
(lp613
(lp614
tp615
a(L1175362320L
L3785322319L
(lp616
(lp617
Vesp_log_early_timestamp
p618
atp619
a(L44113432L
L0L
(lp620
(lp621
tp622
a(L1299867982L
L0L
(lp623
(lp624
tp625
a(L3360570486L
L0L
(lp626
(lp627
tp628
a(L2660352519L
L0L
(lp629
(lp630
tp631
a(L521140592L
L3785322319L
(lp632
(lp633
Vesp_log_early_timestamp
p634
atp635
a(L162336582L
L0L
(lp636
(lp637
tp638
a(L1181808077L
L3785322319L
(lp639
(lp640
Vesp_log_early_timestamp
p641
atp642
a(L3020204L
L0L
(lp643
(lp644
tp645
a(L1398573769L
L0L
(lp646
(lp647
tp648
a(L97422L
L0L
(lp649
(lp650
tp651
a(L3753789769L
L0L
(lp652
(lp653
tp654
a(L3653028369L
L0L
(lp655
(lp656
tp657
a(L4242981970L
L3785322319L
(lp658
(lp659
Vesp_log_early_timestamp
p660
atp661
a(L4138677549L
L0L
(lp662
(lp663
tp664
a(L753544199L
L0L
(lp665
(lp666
tp667
a(L3408640340L
L1880226080L
(lp668
(lp669
Vesp_rom_spiflash_read
p670
aVspi_to_esp_err
p671
atp672
atp673
sI1074237476
(Vspi_to_esp_err
p674
(lp675
(L2933521939L
L0L
(lp676
(lp677
tp678
a(L366093042L
L0L
(lp679
(lp680
tp681
a(L3549545911L
L0L
(lp682
(lp683
tp684
a(L3126521138L
L0L
(lp685
(lp686
tp687
atp688
sI1074269740
(Vbootloader_config_wdt
p689
(lp690
(L1142438309L
L505859776L
(lp691
(lp692
Vwdt_hal_write_protect_disable
p693
aVwdt_hal_set_flashboot_en
p694
aVwdt_hal_write_protect_enable
p695
aVwdt_hal_init
p696
aVrtc_clk_slow_freq_get_hz
p697
aVwdt_hal_write_protect_disable
p698
aVwdt_hal_config_stage
p699
aVwdt_hal_enable
p700
aVwdt_hal_write_protect_enable
p701
aVwdt_hal_write_protect_disable
p702
aVwdt_hal_set_flashboot_en
p703
aVwdt_hal_write_protect_enable
p704
atp705
atp706
sI1074243360
(Vesp_rom_spiflash_enable_write
p707
(lp708
(L212476449L
L3785322319L
(lp709
(lp710
Vesp_rom_spiflash_wait_idle
p711
atp712
a(L3137194272L
L0L
(lp713
(lp714
tp715
a(L2258718275L
L0L
(lp716
(lp717
tp718
a(L99543895L
L0L
(lp719
(lp720
tp721
a(L2993202392L
L0L
(lp722
(lp723
tp724
a(L1804543818L
L3785322319L
(lp725
(lp726
Vesp_rom_spiflash_read_status
p727
atp728
atp729
sI1074240300
(Vbootloader_sha256_data
p730
(lp731
(L4066096136L
L0L
(lp732
(lp733
tp734
a(L1563173327L
L0L
(lp735
(lp736
tp737
a(L2504541789L
L3785322319L
(lp738
(lp739
V__assert_func
p740
atp741
a(L498498478L
L0L
(lp742
(lp743
tp744
a(L4268756642L
L0L
(lp745
(lp746
tp747
a(L2910371777L
L0L
(lp748
(lp749
tp750
a(L3360570486L
L0L
(lp751
(lp752
tp753
a(L301121101L
L0L
(lp754
(lp755
tp756
a(L841847518L
L0L
(lp757
(lp758
tp759
a(L1586729644L
L0L
(lp760
(lp761
tp762
a(L2700619295L
L0L
(lp763
(lp764
tp765
a(L1175956750L
L0L
(lp766
(lp767
tp768
a(L1390602840L
L0L
(lp769
(lp770
tp771
a(L3028464L
L0L
(lp772
(lp773
tp774
a(L717127773L
L0L
(lp775
(lp776
tp777
a(L784960019L
L0L
(lp778
(lp779
tp780
atp781
sI1074269988
(Vesp_cpu_configure_region_protection
p782
(lp783
(L921839964L
L0L
(lp784
(lp785
tp786
a(L180431425L
L3785322319L
(lp787
(lp788
Vmpu_hal_set_region_access
p789
atp790
a(L2537388152L
L3785322319L
(lp791
(lp792
Vmpu_hal_set_region_access
p793
atp794
atp795
sI1074235944
(Vbootloader_flash_gpio_config
p796
(lp797
(L719792650L
L3785322319L
(lp798
(lp799
Vbootloader_common_get_chip_ver_pkg
p800
atp801
a(L106L
L0L
(lp802
(lp803
tp804
a(L2886083034L
L0L
(lp805
(lp806
tp807
a(L106L
L0L
(lp808
(lp809
tp810
a(L4213870169L
L0L
(lp811
(lp812
tp813
a(L3890032189L
L0L
(lp814
(lp815
tp816
a(L106L
L0L
(lp817
(lp818
tp819
a(L676119430L
L0L
(lp820
(lp821
tp822
a(L4272081986L
L0L
(lp823
(lp824
tp825
a(L3360570486L
L0L
(lp826
(lp827
tp828
atp829
sI1074245672
(Vwdt_hal_enable
p830
(lp831
(L4029830118L
L0L
(lp832
(lp833
tp834
a(L3634439744L
L0L
(lp835
(lp836
tp837
a(L3360570486L
L0L
(lp838
(lp839
tp840
a(L2011576586L
L0L
(lp841
(lp842
tp843
atp844
sI1074247464
(Vrtc_clk_cpu_freq_set_config
p845
(lp846
(L1591980960L
L3785322319L
(lp847
(lp848
Vrtc_clk_xtal_freq_get
p849
atp850
a(L1828795533L
L1880226080L
(lp851
(lp852
Vrtc_clk_cpu_freq_to_xtal
p853
aVrtc_clk_wait_for_slow_cycle
p854
atp855
a(L94425498L
L3785322319L
(lp856
(lp857
Vrtc_clk_bbpll_disable
p858
atp859
a(L3978916712L
L0L
(lp860
(lp861
tp862
a(L2977209154L
L0L
(lp863
(lp864
tp865
a(L2736411858L
L3785322319L
(lp866
(lp867
Vrtc_clk_cpu_freq_to_xtal
p868
atp869
a(L3360570486L
L0L
(lp870
(lp871
tp872
a(L3020187L
L0L
(lp873
(lp874
tp875
a(L106L
L0L
(lp876
(lp877
tp878
a(L1323732045L
L2485746240L
(lp879
(lp880
Vrtc_clk_wait_for_slow_cycle
p881
aVrtc_clk_xtal_freq_get
p882
aVrtc_clk_bbpll_configure
p883
aVrtc_clk_cpu_freq_to_pll_mhz
p884
atp885
a(L3020187L
L0L
(lp886
(lp887
tp888
a(L106L
L0L
(lp889
(lp890
tp891
a(L3381800460L
L0L
(lp892
(lp893
tp894
atp895
sI1074238004
(Vbootloader_flash_erase_sector
p896
(lp897
(L4129137686L
L1880226080L
(lp898
(lp899
Vesp_rom_spiflash_erase_sector
p900
aVspi_to_esp_err
p901
atp902
atp903
sI1074246452
(Vrtc_clk_slow_freq_set
p904
(lp905
(L2675301828L
L0L
(lp906
(lp907
tp908
atp909
sI1074248244
(Vrtc_clk_wait_for_slow_cycle
p910
(lp911
(L714736875L
L0L
(lp912
(lp913
tp914
a(L287687718L
L0L
(lp915
(lp916
tp917
a(L3360570486L
L0L
(lp918
(lp919
tp920
a(L3986273454L
L0L
(lp921
(lp922
tp923
a(L2994547433L
L0L
(lp924
(lp925
tp926
a(L2509841317L
L0L
(lp927
(lp928
tp929
a(L1844411884L
L3785322319L
(lp930
(lp931
Vesp_log_early_timestamp
p932
atp933
atp934
sI1074267964
(Vbootloader_common_get_reset_reason
p935
(lp936
(L3780188688L
L0L
(lp937
(lp938
tp939
atp940
sI1074245936
(Vrtc_clk_cpu_freq_to_pll_mhz
p941
(lp942
(L428013989L
L0L
(lp943
(lp944
tp945
a(L106L
L0L
(lp946
(lp947
tp948
a(L1541997046L
L0L
(lp949
(lp950
tp951
a(L106L
L0L
(lp952
(lp953
tp954
a(L1546614651L
L0L
(lp955
(lp956
tp957
a(L2907368881L
L0L
(lp958
(lp959
tp960
a(L1231145073L
L3785322319L
(lp961
(lp962
Vrtc_clk_wait_for_slow_cycle
p963
atp964
a(L3451441343L
L1880226080L
(lp965
(lp966
Vesp_log_early_timestamp
p967
aVabort
p968
atp969
a(L1183020347L
L0L
(lp970
(lp971
tp972
a(L1305407562L
L0L
(lp973
(lp974
tp975
a(L1306330990L
L0L
(lp976
(lp977
tp978
atp979
sI1074237508
(Vbootloader_mmap
p980
(lp981
(L2059700562L
L0L
(lp982
(lp983
tp984
a(L3017932071L
L3785322319L
(lp985
(lp986
Vesp_log_early_timestamp
p987
atp988
a(L1182811810L
L0L
(lp989
(lp990
tp991
a(L3496950L
L0L
(lp992
(lp993
tp994
a(L1630759581L
L0L
(lp995
(lp996
tp997
a(L3536022130L
L3785322319L
(lp998
(lp999
Vesp_log_early_timestamp
p1000
atp1001
a(L1503832912L
L0L
(lp1002
(lp1003
tp1004
a(L2005677777L
L3785322319L
(lp1005
(lp1006
Vesp_log_early_timestamp
p1007
atp1008
a(L1090567542L
L0L
(lp1009
(lp1010
tp1011
atp1012
sI1074236996
(Vesp_log_early_timestamp
p1013
(lp1014
(L3622092107L
L0L
(lp1015
(lp1016
tp1017
atp1018
sI1074267980
(Vwdt_reset_info_dump
p1019
(lp1020
(L4037466985L
L0L
(lp1021
(lp1022
tp1023
a(L4162823486L
L0L
(lp1024
(lp1025
tp1026
a(L3759833313L
L0L
(lp1027
(lp1028
tp1029
a(L1103285333L
L0L
(lp1030
(lp1031
tp1032
a(L3874600256L
L3785322319L
(lp1033
(lp1034
Vesp_log_early_timestamp
p1035
atp1036
a(L2967992533L
L0L
(lp1037
(lp1038
tp1039
a(L4142801612L
L3785322319L
(lp1040
(lp1041
Vesp_log_early_timestamp
p1042
atp1043
a(L98458893L
L0L
(lp1044
(lp1045
tp1046
atp1047
sI1074247744
(Vrtc_clk_apb_freq_get
p1048
(lp1049
(L2634611841L
L0L
(lp1050
(lp1051
tp1052
atp1053
sI1074241100
(Vbootloader_util_regions_overlap
p1054
(lp1055
(L2762640130L
L0L
(lp1056
(lp1057
tp1058
a(L486238211L
L0L
(lp1059
(lp1060
tp1061
a(L3823861319L
L3785322319L
(lp1062
(lp1063
V__assert_func
p1064
atp1065
a(L97642L
L0L
(lp1066
(lp1067
tp1068
a(L2752402003L
L0L
(lp1069
(lp1070
tp1071
a(L366123053L
L0L
(lp1072
(lp1073
tp1074
a(L2258867228L
L0L
(lp1075
(lp1076
tp1077
a(L1253626734L
L0L
(lp1078
(lp1079
tp1080
a(L2258897019L
L0L
(lp1081
(lp1082
tp1083
a(L3109269495L
L0L
(lp1084
(lp1085
tp1086
atp1087
sI1074238284
(Vbootloader_random_disable
p1088
(lp1089
(L2124996308L
L0L
(lp1090
(lp1091
tp1092
atp1093
sI1074238024
(Vbootloader_flash_write
p1094
(lp1095
(L3119145091L
L0L
(lp1096
(lp1097
tp1098
a(L962229776L
L3785322319L
(lp1099
(lp1100
Vesp_log_early_timestamp
p1101
atp1102
a(L44113432L
L0L
(lp1103
(lp1104
tp1105
a(L1610445075L
L0L
(lp1106
(lp1107
tp1108
a(L735741265L
L0L
(lp1109
(lp1110
tp1111
a(L3291333414L
L0L
(lp1112
(lp1113
tp1114
a(L2835528492L
L3785322319L
(lp1115
(lp1116
Vesp_log_early_timestamp
p1117
atp1118
a(L3283691850L
L0L
(lp1119
(lp1120
tp1121
a(L3823398198L
L3785322319L
(lp1122
(lp1123
Vesp_log_early_timestamp
p1124
atp1125
a(L3212356251L
L3785322319L
(lp1126
(lp1127
Vbootloader_flash_unlock
p1128
atp1129
a(L1799218633L
L0L
(lp1130
(lp1131
tp1132
a(L94425498L
L3785322319L
(lp1133
(lp1134
Vesp_rom_spiflash_write_encrypted
p1135
atp1136
a(L2927190544L
L3785322319L
(lp1137
(lp1138
Vspi_to_esp_err
p1139
atp1140
a(L2927190544L
L3785322319L
(lp1141
(lp1142
Vesp_rom_spiflash_write
p1143
atp1144
atp1145
sI1074243912
(Vesp_rom_spiflash_write_encrypted
p1146
(lp1147
(L2107077087L
L0L
(lp1148
(lp1149
tp1150
a(L2710764499L
L0L
(lp1151
(lp1152
tp1153
a(L97689L
L0L
(lp1154
(lp1155
tp1156
a(L3061232074L
L0L
(lp1157
(lp1158
tp1159
a(L61243957L
L0L
(lp1160
(lp1161
tp1162
a(L2903314395L
L3785322319L
(lp1163
(lp1164
Vesp_rom_spiflash_write
p1165
atp1166
a(L220838264L
L0L
(lp1167
(lp1168
tp1169
a(L735741265L
L0L
(lp1170
(lp1171
tp1172
atp1173
sI1074246216
(Vrtc_clk_32k_enable
p1174
(lp1175
(L753387299L
L0L
(lp1176
(lp1177
tp1178
a(L1067050752L
L3785322319L
(lp1179
(lp1180
Vrtc_clk_32k_enable_common
p1181
atp1182
a(L3360570486L
L0L
(lp1183
(lp1184
tp1185
a(L2048424610L
L0L
(lp1186
(lp1187
tp1188
atp1189
sI1074241616
(Vshould_load
p1190
(lp1191
(L2819894745L
L0L
(lp1192
(lp1193
tp1194
a(L1182990556L
L0L
(lp1195
(lp1196
tp1197
a(L1780902349L
L0L
(lp1198
(lp1199
tp1200
a(L1298905564L
L0L
(lp1201
(lp1202
tp1203
a(L524505062L
L0L
(lp1204
(lp1205
tp1206
a(L2258897019L
L0L
(lp1207
(lp1208
tp1209
a(L3781799363L
L0L
(lp1210
(lp1211
tp1212
a(L3028464L
L0L
(lp1213
(lp1214
tp1215
a(L476756448L
L0L
(lp1216
(lp1217
tp1218
a(L1004813886L
L0L
(lp1219
(lp1220
tp1221
a(L3959408124L
L0L
(lp1222
(lp1223
tp1224
a(L4185756579L
L0L
(lp1225
(lp1226
tp1227
a(L3458855836L
L0L
(lp1228
(lp1229
tp1230
a(L3126521138L
L0L
(lp1231
(lp1232
tp1233
a(L1305407438L
L0L
(lp1234
(lp1235
tp1236
a(L1305407469L
L0L
(lp1237
(lp1238
tp1239
atp1240
sI1074243420
(Vesp_rom_spiflash_program_page_internal
p1241
(lp1242
(L2569069283L
L0L
(lp1243
(lp1244
tp1245
a(L2258688483L
L0L
(lp1246
(lp1247
tp1248
a(L3360570486L
L0L
(lp1249
(lp1250
tp1251
a(L3649828145L
L0L
(lp1252
(lp1253
tp1254
a(L4235661475L
L3785322319L
(lp1255
(lp1256
Vesp_rom_spiflash_wait_idle
p1257
atp1258
a(L1299866312L
L0L
(lp1259
(lp1260
tp1261
a(L3212356251L
L3785322319L
(lp1262
(lp1263
Vesp_rom_spiflash_enable_write
p1264
atp1265
a(L334355199L
L0L
(lp1266
(lp1267
tp1268
a(L3721244181L
L0L
(lp1269
(lp1270
tp1271
a(L2953702749L
L0L
(lp1272
(lp1273
tp1274
a(L2989032L
L0L
(lp1275
(lp1276
tp1277
a(L1965622133L
L0L
(lp1278
(lp1279
tp1280
a(L3994676957L
L0L
(lp1281
(lp1282
tp1283
a(L1958113242L
L0L
(lp1284
(lp1285
tp1286
a(L106L
L0L
(lp1287
(lp1288
tp1289
a(L4283177684L
L0L
(lp1290
(lp1291
tp1292
a(L1405253496L
L0L
(lp1293
(lp1294
tp1295
a(L1008982319L
L0L
(lp1296
(lp1297
tp1298
a(L1933954923L
L0L
(lp1299
(lp1300
tp1301
a(L3886319556L
L0L
(lp1302
(lp1303
tp1304
a(L2767679583L
L0L
(lp1305
(lp1306
tp1307
atp1308
sI1074236764
(Vefuse_hal_chip_revision
p1309
(lp1310
(L1761205471L
L1880226080L
(lp1311
(lp1312
Vefuse_hal_get_major_chip_version
p1313
aVefuse_hal_get_minor_chip_version
p1314
atp1315
atp1316
sI1074270036
(Vrtc_clk_xtal_freq_estimate
p1317
(lp1318
(L2516060585L
L1880226080L
(lp1319
(lp1320
Vrtc_clk_8m_enabled
p1321
aVrtc_clk_8md256_enabled
p1322
atp1323
a(L967485502L
L3785322319L
(lp1324
(lp1325
Vrtc_clk_8m_enable
p1326
atp1327
a(L267257268L
L3785322319L
(lp1328
(lp1329
Vrtc_clk_cal_ratio
p1330
atp1331
a(L93674324L
L0L
(lp1332
(lp1333
tp1334
a(L3910042627L
L0L
(lp1335
(lp1336
tp1337
a(L1299866334L
L0L
(lp1338
(lp1339
tp1340
a(L3360570486L
L0L
(lp1341
(lp1342
tp1343
a(L3936819466L
L0L
(lp1344
(lp1345
tp1346
a(L3982077265L
L0L
(lp1347
(lp1348
tp1349
a(L1641150486L
L0L
(lp1350
(lp1351
tp1352
a(L3618843600L
L3785322319L
(lp1353
(lp1354
Vesp_log_early_timestamp
p1355
atp1356
a(L4168362828L
L3785322319L
(lp1357
(lp1358
Vesp_log_early_timestamp
p1359
atp1360
a(L4114389777L
L3785322319L
(lp1361
(lp1362
Vesp_log_early_timestamp
p1363
atp1364
atp1365
sI1074270824
(Vrtc_vddsdio_set_config
p1366
(lp1367
(L2882663635L
L0L
(lp1368
(lp1369
tp1370
atp1371
sI1074237028
(Vbootloader_common_ota_select_crc
p1372
(lp1373
(L943698951L
L0L
(lp1374
(lp1375
tp1376
atp1377
sI1074242916
(Vbootloader_load_image
p1378
(lp1379
(L1155870502L
L3785322319L
(lp1380
(lp1381
Vimage_load
p1382
atp1383
atp1384
sI1074247020
(Vrtc_clk_xtal_freq_get
p1385
(lp1386
(L4222699713L
L0L
(lp1387
(lp1388
tp1389
a(L2847936993L
L0L
(lp1390
(lp1391
tp1392
a(L2081994531L
L0L
(lp1393
(lp1394
tp1395
a(L3360570486L
L0L
(lp1396
(lp1397
tp1398
atp1399
sI1074247276
(Vrtc_clk_xtal_freq_update
p1400
(lp1401
(L563155638L
L0L
(lp1402
(lp1403
tp1404
a(L3509357017L
L0L
(lp1405
(lp1406
tp1407
a(L3020103887L
L0L
(lp1408
(lp1409
tp1410
atp1411
sI1074247788
(Vrtc_clk_cal_internal
p1412
(lp1413
(L2821064516L
L0L
(lp1414
(lp1415
tp1416
a(L1052064185L
L3785322319L
(lp1417
(lp1418
V__assert_func
p1419
atp1420
a(L2570522997L
L0L
(lp1421
(lp1422
tp1423
a(L3017366L
L0L
(lp1424
(lp1425
tp1426
a(L2781091364L
L0L
(lp1427
(lp1428
tp1429
a(L4169864463L
L1880226080L
(lp1430
(lp1431
Vrtc_clk_8m_enabled
p1432
aVrtc_clk_8md256_enabled
p1433
atp1434
a(L4286589987L
L3785322319L
(lp1435
(lp1436
Vrtc_clk_8m_enable
p1437
atp1438
a(L242089662L
L0L
(lp1439
(lp1440
tp1441
a(L3502850147L
L0L
(lp1442
(lp1443
tp1444
a(L97689L
L0L
(lp1445
(lp1446
tp1447
a(L2473147788L
L0L
(lp1448
(lp1449
tp1450
a(L3028464L
L0L
(lp1451
(lp1452
tp1453
a(L3028481L
L0L
(lp1454
(lp1455
tp1456
a(L3450259565L
L0L
(lp1457
(lp1458
tp1459
a(L3077385976L
L3785322319L
(lp1460
(lp1461
Vrtc_clk_xtal_freq_get
p1462
atp1463
a(L2780079961L
L0L
(lp1464
(lp1465
tp1466
a(L493911464L
L0L
(lp1467
(lp1468
tp1469
a(L509755096L
L3785322319L
(lp1470
(lp1471
Vesp_log_early_timestamp
p1472
atp1473
a(L3360570486L
L0L
(lp1474
(lp1475
tp1476
a(L4136889248L
L0L
(lp1477
(lp1478
tp1479
a(L748565485L
L0L
(lp1480
(lp1481
tp1482
a(L3028481L
L0L
(lp1483
(lp1484
tp1485
a(L4112420445L
L0L
(lp1486
(lp1487
tp1488
a(L755155573L
L3785322319L
(lp1489
(lp1490
Vrtc_clk_8m_enable
p1491
atp1492
a(L3631005548L
L0L
(lp1493
(lp1494
tp1495
a(L2230358364L
L0L
(lp1496
(lp1497
tp1498
a(L3352263364L
L0L
(lp1499
(lp1500
tp1501
atp1502
sI1074239080
(Vset_actual_ota_seq
p1503
(lp1504
(L2590207476L
L1832448559L
(lp1505
(lp1506
Vbootloader_common_ota_select_crc
p1507
aVefuse_hal_flash_encryption_enabled
p1508
aVbootloader_flash_erase_sector
p1509
atp1510
a(L3292941333L
L3785322319L
(lp1511
(lp1512
Vbootloader_flash_write
p1513
atp1514
a(L3725205052L
L3785322319L
(lp1515
(lp1516
Vesp_log_early_timestamp
p1517
atp1518
a(L3876573963L
L3785322319L
(lp1519
(lp1520
Vesp_log_early_timestamp
p1521
atp1522
atp1523
sI1074242932
(Vesp_partition_table_verify
p1524
(lp1525
(L1518656766L
L0L
(lp1526
(lp1527
tp1528
a(L2872654191L
L0L
(lp1529
(lp1530
tp1531
a(L4287435191L
L0L
(lp1532
(lp1533
tp1534
a(L2910371777L
L0L
(lp1535
(lp1536
tp1537
a(L2810785767L
L0L
(lp1538
(lp1539
tp1540
a(L3360570486L
L0L
(lp1541
(lp1542
tp1543
a(L2334946637L
L0L
(lp1544
(lp1545
tp1546
a(L2478753082L
L0L
(lp1547
(lp1548
tp1549
a(L3020204L
L0L
(lp1550
(lp1551
tp1552
a(L1688188261L
L3785322319L
(lp1553
(lp1554
Vesp_log_early_timestamp
p1555
atp1556
a(L1031066118L
L3785322319L
(lp1557
(lp1558
Vesp_log_early_timestamp
p1559
atp1560
a(L3848731295L
L0L
(lp1561
(lp1562
tp1563
a(L2902417580L
L0L
(lp1564
(lp1565
tp1566
a(L3020204L
L0L
(lp1567
(lp1568
tp1569
a(L2825404274L
L3785322319L
(lp1570
(lp1571
Vesp_log_early_timestamp
p1572
atp1573
a(L1367516498L
L0L
(lp1574
(lp1575
tp1576
a(L3291987620L
L0L
(lp1577
(lp1578
tp1579
a(L2902417580L
L0L
(lp1580
(lp1581
tp1582
a(L1688186804L
L3785322319L
(lp1583
(lp1584
Vesp_log_early_timestamp
p1585
atp1586
a(L1613213999L
L0L
(lp1587
(lp1588
tp1589
a(L1167861556L
L0L
(lp1590
(lp1591
tp1592
a(L3260980605L
L0L
(lp1593
(lp1594
tp1595
a(L2910371777L
L0L
(lp1596
(lp1597
tp1598
a(L1235012932L
L0L
(lp1599
(lp1600
tp1601
a(L2646947635L
L3785322319L
(lp1602
(lp1603
Vesp_log_early_timestamp
p1604
atp1605
atp1606
sI1074245744
(Vwdt_hal_set_flashboot_en
p1607
(lp1608
(L2375320464L
L0L
(lp1609
(lp1610
tp1611
a(L2716561907L
L0L
(lp1612
(lp1613
tp1614
a(L3360570486L
L0L
(lp1615
(lp1616
tp1617
a(L996440984L
L0L
(lp1618
(lp1619
tp1620
atp1621
sI1074236796
(Vefuse_hal_flash_encryption_enabled
p1622
(lp1623
(L2780109918L
L0L
(lp1624
(lp1625
tp1626
a(L2910371777L
L0L
(lp1627
(lp1628
tp1629
a(L3360570486L
L0L
(lp1630
(lp1631
tp1632
a(L3016870L
L0L
(lp1633
(lp1634
tp1635
a(L3745038218L
L0L
(lp1636
(lp1637
tp1638
a(L957607403L
L0L
(lp1639
(lp1640
tp1641
atp1642
sI1074239612
(Vbootloader_utility_get_selected_boot_partition
p1643
(lp1644
(L2184143128L
L0L
(lp1645
(lp1646
tp1647
a(L3648837801L
L0L
(lp1648
(lp1649
tp1650
a(L3739057596L
L3785322319L
(lp1651
(lp1652
Vesp_log_early_timestamp
p1653
atp1654
a(L4026981588L
L0L
(lp1655
(lp1656
tp1657
a(L3360570486L
L0L
(lp1658
(lp1659
tp1660
a(L1375577398L
L3785322319L
(lp1661
(lp1662
Vbootloader_mmap
p1663
atp1664
a(L3668558090L
L3785322319L
(lp1665
(lp1666
Vesp_log_early_timestamp
p1667
atp1668
a(L3744659248L
L1880226080L
(lp1669
(lp1670
Vbootloader_munmap
p1671
aVbootloader_common_ota_select_invalid
p1672
atp1673
a(L1103573946L
L0L
(lp1674
(lp1675
tp1676
a(L1876835593L
L3785322319L
(lp1677
(lp1678
Vbootloader_common_get_active_otadata
p1679
atp1680
a(L106L
L0L
(lp1681
(lp1682
tp1683
a(L569346373L
L0L
(lp1684
(lp1685
tp1686
a(L788494392L
L3785322319L
(lp1687
(lp1688
Vbootloader_common_ota_select_invalid
p1689
atp1690
a(L2675958250L
L0L
(lp1691
(lp1692
tp1693
a(L4156538522L
L3785322319L
(lp1694
(lp1695
Vesp_log_early_timestamp
p1696
atp1697
a(L3946700466L
L3785322319L
(lp1698
(lp1699
Vesp_log_early_timestamp
p1700
atp1701
a(L505081345L
L0L
(lp1702
(lp1703
tp1704
a(L919052234L
L3785322319L
(lp1705
(lp1706
Vbootloader_common_ota_select_crc
p1707
atp1708
a(L2287680455L
L0L
(lp1709
(lp1710
tp1711
a(L3542558037L
L3785322319L
(lp1712
(lp1713
Vbootloader_common_ota_select_crc
p1714
atp1715
a(L1299866312L
L0L
(lp1716
(lp1717
tp1718
a(L3205436778L
L0L
(lp1719
(lp1720
tp1721
a(L3195943282L
L3785322319L
(lp1722
(lp1723
Vesp_log_early_timestamp
p1724
atp1725
a(L1367516498L
L0L
(lp1726
(lp1727
tp1728
a(L4142618861L
L3785322319L
(lp1729
(lp1730
Vesp_log_early_timestamp
p1731
atp1732
atp1733
sI1074237048
(Vbootloader_common_ota_select_valid
p1734
(lp1735
(L1563399710L
L3785322319L
(lp1736
(lp1737
Vbootloader_common_ota_select_invalid
p1738
atp1739
a(L3814720849L
L3785322319L
(lp1740
(lp1741
Vbootloader_common_ota_select_crc
p1742
atp1743
a(L3360570486L
L0L
(lp1744
(lp1745
tp1746
atp1747
sI1074235256
(Vbootloader_execute_flash_command
p1748
(lp1749
(L2481595632L
L3785322319L
(lp1750
(lp1751
Vbootloader_flash_execute_command_common
p1752
atp1753
atp1754
sI1074246520
(Vrtc_clk_slow_freq_get
p1755
(lp1756
(L3496640438L
L0L
(lp1757
(lp1758
tp1759
atp1760
sI1074246276
(Vrtc_clk_8m_enable
p1761
(lp1762
(L2831000540L
L0L
(lp1763
(lp1764
tp1765
a(L309349265L
L0L
(lp1766
(lp1767
tp1768
a(L2151320156L
L0L
(lp1769
(lp1770
tp1771
a(L1391734358L
L0L
(lp1772
(lp1773
tp1774
a(L3360570486L
L0L
(lp1775
(lp1776
tp1777
a(L1318267208L
L0L
(lp1778
(lp1779
tp1780
a(L2514659872L
L0L
(lp1781
(lp1782
tp1783
atp1784
sI1074241156
(Vverify_load_addresses
p1785
(lp1786
(L2763563698L
L0L
(lp1787
(lp1788
tp1789
a(L106L
L0L
(lp1790
(lp1791
tp1792
a(L97642L
L0L
(lp1793
(lp1794
tp1795
a(L2952239952L
L3785322319L
(lp1796
(lp1797
V__assert_func
p1798
atp1799
a(L1902503151L
L0L
(lp1800
(lp1801
tp1802
a(L106L
L0L
(lp1803
(lp1804
tp1805
a(L3433004918L
L0L
(lp1806
(lp1807
tp1808
a(L106L
L0L
(lp1809
(lp1810
tp1811
a(L2295851402L
L3785322319L
(lp1812
(lp1813
Vbootloader_util_regions_overlap
p1814
atp1815
a(L3129832310L
L3785322319L
(lp1816
(lp1817
Vbootloader_util_regions_overlap
p1818
atp1819
a(L3028481L
L0L
(lp1820
(lp1821
tp1822
a(L4008903006L
L3785322319L
(lp1823
(lp1824
Vbootloader_util_regions_overlap
p1825
atp1826
a(L810308952L
L0L
(lp1827
(lp1828
tp1829
a(L1770664004L
L0L
(lp1830
(lp1831
tp1832
a(L151109921L
L0L
(lp1833
(lp1834
tp1835
a(L2015090525L
L0L
(lp1836
(lp1837
tp1838
a(L642339957L
L0L
(lp1839
(lp1840
tp1841
a(L677569396L
L3785322319L
(lp1842
(lp1843
Vverify_load_addresses
p1844
atp1845
a(L1351513776L
L0L
(lp1846
(lp1847
tp1848
a(L2071984958L
L0L
(lp1849
(lp1850
tp1851
a(L957547170L
L0L
(lp1852
(lp1853
tp1854
a(L3693032374L
L3785322319L
(lp1855
(lp1856
Vbootloader_util_regions_overlap
p1857
atp1858
a(L3028481L
L0L
(lp1859
(lp1860
tp1861
a(L2780947582L
L3785322319L
(lp1862
(lp1863
Vbootloader_util_regions_overlap
p1864
atp1865
a(L1826055167L
L0L
(lp1866
(lp1867
tp1868
a(L3901439154L
L0L
(lp1869
(lp1870
tp1871
a(L1280432842L
L0L
(lp1872
(lp1873
tp1874
a(L4075086914L
L0L
(lp1875
(lp1876
tp1877
a(L307916966L
L0L
(lp1878
(lp1879
tp1880
a(L697239146L
L0L
(lp1881
(lp1882
tp1883
a(L106L
L0L
(lp1884
(lp1885
tp1886
a(L955484020L
L0L
(lp1887
(lp1888
tp1889
a(L307916753L
L0L
(lp1890
(lp1891
tp1892
a(L490080443L
L0L
(lp1893
(lp1894
tp1895
a(L106L
L0L
(lp1896
(lp1897
tp1898
a(L1287163434L
L3785322319L
(lp1899
(lp1900
Vesp_log_early_timestamp
p1901
atp1902
a(L955485353L
L0L
(lp1903
(lp1904
tp1905
a(L1303560427L
L0L
(lp1906
(lp1907
tp1908
atp1909
sI1074244736
(Vwdt_hal_init
p1910
(lp1911
(L679162730L
L0L
(lp1912
(lp1913
tp1914
a(L369135652L
L0L
(lp1915
(lp1916
tp1917
a(L2805933837L
L0L
(lp1918
(lp1919
tp1920
a(L2550927442L
L0L
(lp1921
(lp1922
tp1923
a(L1390686929L
L0L
(lp1924
(lp1925
tp1926
a(L3360570486L
L0L
(lp1927
(lp1928
tp1929
a(L901431428L
L0L
(lp1930
(lp1931
tp1932
atp1933
sI1074240908
(Vprocess_image_header
p1934
(lp1935
(L634255103L
L3785322319L
(lp1936
(lp1937
Vbootloader_flash_read
p1938
atp1939
a(L3020204L
L0L
(lp1940
(lp1941
tp1942
a(L1583805461L
L0L
(lp1943
(lp1944
tp1945
a(L1727394037L
L0L
(lp1946
(lp1947
tp1948
a(L1161397362L
L3785322319L
(lp1949
(lp1950
Vbootloader_sha256_start
p1951
atp1952
a(L1948257695L
L3785322319L
(lp1953
(lp1954
Vbootloader_sha256_data
p1955
atp1956
a(L1095449651L
L0L
(lp1957
(lp1958
tp1959
a(L3020204L
L0L
(lp1960
(lp1961
tp1962
a(L702739623L
L0L
(lp1963
(lp1964
tp1965
a(L3360570486L
L0L
(lp1966
(lp1967
tp1968
a(L1740884593L
L3785322319L
(lp1969
(lp1970
Vesp_log_early_timestamp
p1971
atp1972
a(L3718883008L
L3785322319L
(lp1973
(lp1974
Vbootloader_common_check_chip_validity
p1975
atp1976
a(L3677035427L
L0L
(lp1977
(lp1978
tp1979
a(L3028481L
L0L
(lp1980
(lp1981
tp1982
a(L2166811440L
L3785322319L
(lp1983
(lp1984
Vesp_log_early_timestamp
p1985
atp1986
a(L2250109166L
L0L
(lp1987
(lp1988
tp1989
a(L1235012870L
L0L
(lp1990
(lp1991
tp1992
a(L3063569071L
L0L
(lp1993
(lp1994
tp1995
atp1996
sI1074238600
(Vbootloader_clock_get_rated_freq_mhz
p1997
(lp1998
(L376617603L
L3785322319L
(lp1999
(lp2000
Vefuse_hal_get_rated_freq_mhz
p2001
atp2002
atp2003
sI1074246536
(Vrtc_clk_slow_freq_get_hz
p2004
(lp2005
(L2994244635L
L0L
(lp2006
(lp2007
tp2008
a(L3642722998L
L0L
(lp2009
(lp2010
tp2011
a(L858011593L
L0L
(lp2012
(lp2013
tp2014
a(L3360570486L
L0L
(lp2015
(lp2016
tp2017
atp2018
sI1074238612
(Vload_image
p2019
(lp2020
(L3679617832L
L1832448559L
(lp2021
(lp2022
Vesp_log_early_timestamp
p2023
aVbootloader_random_disable
p2024
aVbootloader_ana_clock_glitch_reset_config
p2025
atp2026
a(L2118498116L
L0L
(lp2027
(lp2028
tp2029
a(L106L
L0L
(lp2030
(lp2031
tp2032
a(L4186884272L
L0L
(lp2033
(lp2034
tp2035
a(L751966648L
L0L
(lp2036
(lp2037
tp2038
a(L3268103L
L0L
(lp2039
(lp2040
tp2041
a(L741069426L
L3785322319L
(lp2042
(lp2043
Vbootloader_console_deinit
p2044
atp2045
a(L2307067884L
L0L
(lp2046
(lp2047
tp2048
a(L3020204L
L0L
(lp2049
(lp2050
tp2051
a(L2722520990L
L3785322319L
(lp2052
(lp2053
Vesp_log_early_timestamp
p2054
atp2055
a(L117980938L
L0L
(lp2056
(lp2057
tp2058
a(L1341709798L
L0L
(lp2059
(lp2060
tp2061
a(L3020204L
L0L
(lp2062
(lp2063
tp2064
a(L1017231636L
L3785322319L
(lp2065
(lp2066
Vesp_log_early_timestamp
p2067
atp2068
a(L233635238L
L0L
(lp2069
(lp2070
tp2071
a(L2488949783L
L0L
(lp2072
(lp2073
tp2074
atp2075
sI1074240660
(Vbootloader_console_deinit
p2076
(lp2077
(L2488395335L
L0L
(lp2078
(lp2079
tp2080
atp2081
sI1074242452
(Vimage_load
p2082
(lp2083
(L745499722L
L0L
(lp2084
(lp2085
tp2086
a(L1899869538L
L0L
(lp2087
(lp2088
tp2089
a(L9219888L
L0L
(lp2090
(lp2091
tp2092
a(L4132382653L
L0L
(lp2093
(lp2094
tp2095
a(L3020187L
L0L
(lp2096
(lp2097
tp2098
a(L955629275L
L3785322319L
(lp2099
(lp2100
Vesp_log_early_timestamp
p2101
atp2102
a(L2068384292L
L0L
(lp2103
(lp2104
tp2105
a(L1968553470L
L3785322319L
(lp2106
(lp2107
Vbootloader_sha256_finish
p2108
atp2109
a(L4106693507L
L0L
(lp2110
(lp2111
tp2112
a(L3271848319L
L0L
(lp2113
(lp2114
tp2115
a(L1182930974L
L0L
(lp2116
(lp2117
tp2118
a(L3678851644L
L3785322319L
(lp2119
(lp2120
Vprocess_image_header
p2121
atp2122
a(L1341816907L
L0L
(lp2123
(lp2124
tp2125
a(L909494482L
L0L
(lp2126
(lp2127
tp2128
a(L1028073566L
L3785322319L
(lp2129
(lp2130
Vprocess_segments
p2131
atp2132
a(L3803885910L
L0L
(lp2133
(lp2134
tp2135
a(L94425498L
L3785322319L
(lp2136
(lp2137
Vesp_cpu_in_ocd_debug_mode
p2138
atp2139
a(L454195650L
L3785322319L
(lp2140
(lp2141
Vprocess_checksum
p2142
atp2143
a(L1651117269L
L3785322319L
(lp2144
(lp2145
Vprocess_appended_hash_and_sig
p2146
atp2147
a(L533710513L
L0L
(lp2148
(lp2149
tp2150
a(L505081362L
L0L
(lp2151
(lp2152
tp2153
a(L3212356251L
L3785322319L
(lp2154
(lp2155
Vesp_cpu_in_ocd_debug_mode
p2156
atp2157
a(L3885489389L
L1880226080L
(lp2158
(lp2159
Vbootloader_sha256_finish
p2160
aVbootloader_debug_buffer
p2161
atp2162
a(L2959909343L
L1880226080L
(lp2163
(lp2164
Vesp_log_early_timestamp
p2165
aVbootloader_debug_buffer
p2166
atp2167
a(L978077504L
L0L
(lp2168
(lp2169
tp2170
a(L2068384292L
L0L
(lp2171
(lp2172
tp2173
a(L858449684L
L3785322319L
(lp2174
(lp2175
Vbootloader_sha256_finish
p2176
atp2177
a(L3028481L
L0L
(lp2178
(lp2179
tp2180
a(L93674324L
L0L
(lp2181
(lp2182
tp2183
a(L789658747L
L0L
(lp2184
(lp2185
tp2186
a(L2429164518L
L0L
(lp2187
(lp2188
tp2189
a(L3553619191L
L0L
(lp2190
(lp2191
tp2192
a(L85798113L
L0L
(lp2193
(lp2194
tp2195
a(L464010095L
L0L
(lp2196
(lp2197
tp2198
a(L835563811L
L3785322319L
(lp2199
(lp2200
Vshould_load
p2201
atp2202
a(L1358360603L
L0L
(lp2203
(lp2204
tp2205
a(L4224160879L
L0L
(lp2206
(lp2207
tp2208
a(L22884489L
L0L
(lp2209
(lp2210
tp2211
a(L741351569L
L0L
(lp2212
(lp2213
tp2214
a(L434644776L
L0L
(lp2215
(lp2216
tp2217
a(L106L
L0L
(lp2218
(lp2219
tp2220
a(L709419389L
L0L
(lp2221
(lp2222
tp2223
a(L1299866312L
L0L
(lp2224
(lp2225
tp2226
atp2227
sI1074243220
(Vesp_rom_spiflash_read_status
p2228
(lp2229
(L3562601385L
L0L
(lp2230
(lp2231
tp2232
a(L1182811815L
L0L
(lp2233
(lp2234
tp2235
a(L4009779817L
L0L
(lp2236
(lp2237
tp2238
a(L106L
L0L
(lp2239
(lp2240
tp2241
a(L1380309822L
L0L
(lp2242
(lp2243
tp2244
a(L4004659960L
L0L
(lp2245
(lp2246
tp2247
a(L2123059967L
L0L
(lp2248
(lp2249
tp2250
a(L1973734210L
L0L
(lp2251
(lp2252
tp2253
a(L2392720019L
L0L
(lp2254
(lp2255
tp2256
atp2257
sI1074247060
(Vrtc_clk_cpu_freq_mhz_to_config
p2258
(lp2259
(L2601984125L
L3785322319L
(lp2260
(lp2261
Vrtc_clk_xtal_freq_get
p2262
atp2263
a(L2089656409L
L0L
(lp2264
(lp2265
tp2266
a(L3814337874L
L0L
(lp2267
(lp2268
tp2269
a(L3126521138L
L0L
(lp2270
(lp2271
tp2272
a(L2762074623L
L0L
(lp2273
(lp2274
tp2275
a(L1541996779L
L0L
(lp2276
(lp2277
tp2278
a(L2916936348L
L0L
(lp2279
(lp2280
tp2281
a(L1555485793L
L0L
(lp2282
(lp2283
tp2284
a(L2258897023L
L0L
(lp2285
(lp2286
tp2287
a(L1947499251L
L0L
(lp2288
(lp2289
tp2290
a(L1306331021L
L0L
(lp2291
(lp2292
tp2293
atp2294
sI1074267804
(Vcall_start_cpu0
p2295
(lp2296
(L1137852827L
L0L
(lp2297
(lp2298
tp2299
a(L549459388L
L0L
(lp2300
(lp2301
tp2302
a(L3212347974L
L3785322319L
(lp2303
(lp2304
Vbootloader_init
p2305
atp2306
a(L94425498L
L3785322319L
(lp2307
(lp2308
Vbootloader_reset
p2309
atp2310
a(L1122046408L
L0L
(lp2311
(lp2312
tp2313
a(L4099474112L
L0L
(lp2314
(lp2315
tp2316
a(L3015046664L
L3785322319L
(lp2317
(lp2318
Vbootloader_utility_load_partition_table
p2319
atp2320
a(L2761094216L
L3785322319L
(lp2321
(lp2322
Vesp_log_early_timestamp
p2323
atp2324
a(L736289835L
L3785322319L
(lp2325
(lp2326
Vbootloader_utility_get_selected_boot_partition
p2327
atp2328
a(L3548846595L
L1880226080L
(lp2329
(lp2330
Vbootloader_common_get_reset_reason
p2331
aVbootloader_utility_load_boot_image
p2332
atp2333
atp2334
sI1074236560
(Vbootloader_common_get_chip_ver_pkg
p2335
(lp2336
(L1176319107L
L0L
(lp2337
(lp2338
tp2339
atp2340
sI1074237328
(Vbootloader_common_get_active_otadata
p2341
(lp2342
(L3317503532L
L0L
(lp2343
(lp2344
tp2345
a(L2503049265L
L1832448559L
(lp2346
(lp2347
Vbootloader_common_ota_select_valid
p2348
aVbootloader_common_ota_select_valid
p2349
aVbootloader_common_select_otadata
p2350
atp2351
a(L735741265L
L0L
(lp2352
(lp2353
tp2354
atp2355
sI1074269584
(Vbootloader_flash_update_id
p2356
(lp2357
(L1179768297L
L3785322319L
(lp2358
(lp2359
Vbootloader_read_flash_id
p2360
atp2361
atp2362
sI1074243740
(Vesp_rom_spiflash_write
p2363
(lp2364
(L4057159726L
L0L
(lp2365
(lp2366
tp2367
a(L2258688483L
L0L
(lp2368
(lp2369
tp2370
a(L3360570486L
L0L
(lp2371
(lp2372
tp2373
a(L1590344338L
L0L
(lp2374
(lp2375
tp2376
a(L3106685987L
L0L
(lp2377
(lp2378
tp2379
a(L4249336406L
L3785322319L
(lp2380
(lp2381
Vesp_rom_spiflash_program_page_internal
p2382
atp2383
a(L1915738254L
L3785322319L
(lp2384
(lp2385
Vesp_rom_spiflash_program_page_internal
p2386
atp2387
a(L663507325L
L0L
(lp2388
(lp2389
tp2390
a(L2392967593L
L0L
(lp2391
(lp2392
tp2393
a(L564470687L
L0L
(lp2394
(lp2395
tp2396
a(L154459701L
L3785322319L
(lp2397
(lp2398
Vesp_rom_spiflash_program_page_internal
p2399
atp2400
a(L2079643754L
L0L
(lp2401
(lp2402
tp2403
atp2404
sI1074237084
(Vbootloader_common_check_chip_validity
p2405
(lp2406
(L722188971L
L0L
(lp2407
(lp2408
tp2409
a(L98526595L
L3785322319L
(lp2410
(lp2411
Vesp_log_early_timestamp
p2412
atp2413
a(L522103407L
L3785322319L
(lp2414
(lp2415
Vefuse_hal_chip_revision
p2416
atp2417
a(L106L
L0L
(lp2418
(lp2419
tp2420
a(L3681102491L
L0L
(lp2421
(lp2422
tp2423
a(L2449956225L
L3785322319L
(lp2424
(lp2425
Vesp_log_early_timestamp
p2426
atp2427
a(L3028464L
L0L
(lp2428
(lp2429
tp2430
a(L4118102069L
L0L
(lp2431
(lp2432
tp2433
a(L3021749L
L0L
(lp2434
(lp2435
tp2436
a(L1478707893L
L3785322319L
(lp2437
(lp2438
Vesp_log_early_timestamp
p2439
atp2440
a(L1299867982L
L0L
(lp2441
(lp2442
tp2443
a(L3360570486L
L0L
(lp2444
(lp2445
tp2446
atp2447
sI1074235288
(Vbootloader_flash_unlock
p2448
(lp2449
(L142706334L
L3785322319L
(lp2450
(lp2451
Vesp_rom_spiflash_wait_idle
p2452
atp2453
a(L4024621237L
L0L
(lp2454
(lp2455
tp2456
a(L4292483033L
L3785322319L
(lp2457
(lp2458
Vbootloader_execute_flash_command
p2459
atp2460
a(L106L
L0L
(lp2461
(lp2462
tp2463
a(L1303560644L
L0L
(lp2464
(lp2465
tp2466
a(L1419965066L
L0L
(lp2467
(lp2468
tp2469
a(L106L
L0L
(lp2470
(lp2471
tp2472
a(L1633120054L
L0L
(lp2473
(lp2474
tp2475
a(L106L
L0L
(lp2476
(lp2477
tp2478
a(L2974484771L
L0L
(lp2479
(lp2480
tp2481
a(L106L
L0L
(lp2482
(lp2483
tp2484
a(L1481761147L
L1880226080L
(lp2485
(lp2486
Vbootloader_execute_flash_command
p2487
aVbootloader_execute_flash_command
p2488
atp2489
a(L2258807654L
L0L
(lp2490
(lp2491
tp2492
a(L489806350L
L1832448559L
(lp2493
(lp2494
Vesp_rom_spiflash_wait_idle
p2495
aVbootloader_execute_flash_command
p2496
aVbootloader_execute_flash_command
p2497
atp2498
a(L879744646L
L1832448559L
(lp2499
(lp2500
Vesp_rom_spiflash_wait_idle
p2501
aVbootloader_execute_flash_command
p2502
aVbootloader_execute_flash_command
p2503
atp2504
a(L1840772931L
L1880226080L
(lp2505
(lp2506
Vesp_rom_spiflash_wait_idle
p2507
aVbootloader_execute_flash_command
p2508
atp2509
a(L2993202392L
L0L
(lp2510
(lp2511
tp2512
a(L508800419L
L1880226080L
(lp2513
(lp2514
Vbootloader_execute_flash_command
p2515
aVbootloader_execute_flash_command
p2516
atp2517
a(L1303560369L
L0L
(lp2518
(lp2519
tp2520
a(L1596544945L
L0L
(lp2521
(lp2522
tp2523
a(L97689L
L0L
(lp2524
(lp2525
tp2526
a(L106L
L0L
(lp2527
(lp2528
tp2529
atp2530
sI1074247320
(Vrtc_clk_apb_freq_update
p2531
(lp2532
(L1310529756L
L0L
(lp2533
(lp2534
tp2535
atp2536
sI1074269096
(Vbootloader_init_mem
p2537
(lp2538
(L1511720305L
L3785322319L
(lp2539
(lp2540
Vesp_cpu_configure_region_protection
p2541
atp2542
atp2543
sI1074269864
(Vbootloader_enable_random
p2544
(lp2545
(L3629192396L
L1880226080L
(lp2546
(lp2547
Vesp_log_early_timestamp
p2548
aVbootloader_random_enable
p2549
atp2550
atp2551
sI1074236836
(Vefuse_hal_get_major_chip_version
p2552
(lp2553
(L208362539L
L0L
(lp2554
(lp2555
tp2556
a(L894792960L
L0L
(lp2557
(lp2558
tp2559
a(L724635033L
L0L
(lp2560
(lp2561
tp2562
a(L3360570486L
L0L
(lp2563
(lp2564
tp2565
atp2566
sI1074234788
(Vbootloader_flash_execute_command_common
p2567
(lp2568
(L2935702355L
L0L
(lp2569
(lp2570
tp2571
a(L120555589L
L0L
(lp2572
(lp2573
tp2574
a(L2890397610L
L3785322319L
(lp2575
(lp2576
V__assert_func
p2577
atp2578
a(L3021749L
L0L
(lp2579
(lp2580
tp2581
a(L153183703L
L0L
(lp2582
(lp2583
tp2584
a(L901582467L
L0L
(lp2585
(lp2586
tp2587
a(L695082870L
L0L
(lp2588
(lp2589
tp2590
a(L4024113366L
L0L
(lp2591
(lp2592
tp2593
a(L3998568023L
L0L
(lp2594
(lp2595
tp2596
a(L163389185L
L0L
(lp2597
(lp2598
tp2599
a(L2336699050L
L0L
(lp2600
(lp2601
tp2602
a(L4038246755L
L0L
(lp2603
(lp2604
tp2605
a(L1065820671L
L0L
(lp2606
(lp2607
tp2608
a(L3041777204L
L0L
(lp2609
(lp2610
tp2611
a(L3333696662L
L0L
(lp2612
(lp2613
tp2614
a(L963425213L
L0L
(lp2615
(lp2616
tp2617
a(L2106665914L
L0L
(lp2618
(lp2619
tp2620
a(L3360570486L
L0L
(lp2621
(lp2622
tp2623
atp2624
sI1074240676
(V__assert_func
p2625
(lp2626
(L4269287305L
L0L
(lp2627
(lp2628
tp2629
a(L106L
L0L
(lp2630
(lp2631
tp2632
atp2633
sI1074244000
(Vesp_rom_spiflash_read
p2634
(lp2635
(L3733264284L
L0L
(lp2636
(lp2637
tp2638
a(L2067992876L
L0L
(lp2639
(lp2640
tp2641
a(L2860271684L
L0L
(lp2642
(lp2643
tp2644
a(L3017366L
L0L
(lp2645
(lp2646
tp2647
a(L106L
L0L
(lp2648
(lp2649
tp2650
a(L599492143L
L0L
(lp2651
(lp2652
tp2653
a(L106L
L0L
(lp2654
(lp2655
tp2656
a(L3815944725L
L0L
(lp2657
(lp2658
tp2659
a(L2845455366L
L0L
(lp2660
(lp2661
tp2662
a(L89392942L
L0L
(lp2663
(lp2664
tp2665
a(L3413778373L
L0L
(lp2666
(lp2667
tp2668
a(L106L
L0L
(lp2669
(lp2670
tp2671
a(L2386205522L
L3785322319L
(lp2672
(lp2673
Vesp_rom_spiflash_wait_idle
p2674
atp2675
a(L3021737L
L0L
(lp2676
(lp2677
tp2678
a(L106L
L0L
(lp2679
(lp2680
tp2681
a(L1868280504L
L0L
(lp2682
(lp2683
tp2684
a(L106L
L0L
(lp2685
(lp2686
tp2687
a(L3736481501L
L0L
(lp2688
(lp2689
tp2690
a(L1221163038L
L0L
(lp2691
(lp2692
tp2693
a(L4122060822L
L0L
(lp2694
(lp2695
tp2696
a(L729330754L
L0L
(lp2697
(lp2698
tp2699
a(L2989032L
L0L
(lp2700
(lp2701
tp2702
a(L3819849625L
L0L
(lp2703
(lp2704
tp2705
a(L657593818L
L0L
(lp2706
(lp2707
tp2708
a(L131285969L
L0L
(lp2709
(lp2710
tp2711
a(L3901820583L
L0L
(lp2712
(lp2713
tp2714
a(L4003688926L
L0L
(lp2715
(lp2716
tp2717
a(L1896415737L
L0L
(lp2718
(lp2719
tp2720
a(L1522202953L
L0L
(lp2721
(lp2722
tp2723
a(L3574008326L
L0L
(lp2724
(lp2725
tp2726
a(L2769753228L
L0L
(lp2727
(lp2728
tp2729
a(L2267384310L
L0L
(lp2730
(lp2731
tp2732
a(L2696140277L
L0L
(lp2733
(lp2734
tp2735
a(L2687789892L
L0L
(lp2736
(lp2737
tp2738
a(L1405253496L
L0L
(lp2739
(lp2740
tp2741
a(L2052029745L
L0L
(lp2742
(lp2743
tp2744
a(L97689L
L0L
(lp2745
(lp2746
tp2747
a(L2258897019L
L0L
(lp2748
(lp2749
tp2750
a(L4014024819L
L0L
(lp2751
(lp2752
tp2753
a(L3621567083L
L0L
(lp2754
(lp2755
tp2756
atp2757
sI1074269600
(Vbootloader_clear_bss_section
p2758
(lp2759
(L2349904411L
L0L
(lp2760
(lp2761
tp2762
atp2763
sI1074239916
(Vbootloader_reset
p2764
(lp2765
(L1822360791L
L3785322319L
(lp2766
(lp2767
Vbootloader_console_deinit
p2768
atp2769
a(L106L
L0L
(lp2770
(lp2771
tp2772
atp2773
sI1074269112
(Vbootloader_random_enable
p2774
(lp2775
(L971009304L
L0L
(lp2776
(lp2777
tp2778
atp2779
sI1074269624
(Vbootloader_read_bootloader_header
p2780
(lp2781
(L2035056403L
L3785322319L
(lp2782
(lp2783
Vbootloader_flash_read
p2784
atp2785
a(L3299813457L
L3785322319L
(lp2786
(lp2787
Vesp_log_early_timestamp
p2788
atp2789
a(L735741265L
L0L
(lp2790
(lp2791
tp2792
atp2793
sI1074245812
(Vwdt_hal_write_protect_enable
p2794
(lp2795
(L387778158L
L0L
(lp2796
(lp2797
tp2798
a(L4195472003L
L0L
(lp2799
(lp2800
tp2801
a(L3360570486L
L0L
(lp2802
(lp2803
tp2804
a(L802523425L
L0L
(lp2805
(lp2806
tp2807
atp2808
sI1074247348
(Vrtc_clk_cpu_freq_to_xtal
p2809
(lp2810
(L932062516L
L3785322319L
(lp2811
(lp2812
Vrtc_clk_apb_freq_update
p2813
atp2814
a(L702736306L
L0L
(lp2815
(lp2816
tp2817
a(L277445412L
L0L
(lp2818
(lp2819
tp2820
a(L309988740L
L0L
(lp2821
(lp2822
tp2823
atp2824
sI1074236592
(Vesp_cpu_in_ocd_debug_mode
p2825
(lp2826
(L2131426160L
L0L
(lp2827
(lp2828
tp2829
atp2830
sI1074246576
(Vrtc_clk_fast_freq_set
p2831
(lp2832
(L1500658463L
L0L
(lp2833
(lp2834
tp2835
atp2836
sI1074270896
(Vmpu_hal_set_region_access
p2837
(lp2838
(L3538356822L
L0L
(lp2839
(lp2840
tp2841
a(L2902417580L
L0L
(lp2842
(lp2843
tp2844
a(L3020187L
L0L
(lp2845
(lp2846
tp2847
a(L3020187L
L0L
(lp2848
(lp2849
tp2850
a(L3360570486L
L0L
(lp2851
(lp2852
tp2853
a(L2258718273L
L0L
(lp2854
(lp2855
tp2856
a(L3446648619L
L0L
(lp2857
(lp2858
tp2859
a(L3739532189L
L0L
(lp2860
(lp2861
tp2862
a(L1300789895L
L0L
(lp2863
(lp2864
tp2865
a(L3472092938L
L0L
(lp2866
(lp2867
tp2868
atp2869
sI1074235580
(Vbootloader_flash_read_sfdp
p2870
(lp2871
(L711701400L
L0L
(lp2872
(lp2873
tp2874
a(L3282613751L
L3785322319L
(lp2875
(lp2876
V__assert_func
p2877
atp2878
a(L3704332455L
L3785322319L
(lp2879
(lp2880
Vbootloader_flash_execute_command_common
p2881
atp2882
atp2883
sI1074240700
(Vabort
p2884
(lp2885
(L73370910L
L0L
(lp2886
(lp2887
tp2888
a(L409471316L
L0L
(lp2889
(lp2890
tp2891
a(L106L
L0L
(lp2892
(lp2893
tp2894
atp2895
sI1074235832
(Vbootloader_flash_cs_timing_config
p2896
(lp2897
(L3796536297L
L0L
(lp2898
(lp2899
tp2900
atp2901
sI1074237368
(Vbootloader_common_ota_select_invalid
p2902
(lp2903
(L4027567199L
L0L
(lp2904
(lp2905
tp2906
a(L3397985842L
L0L
(lp2907
(lp2908
tp2909
a(L2258867228L
L0L
(lp2910
(lp2911
tp2912
a(L3785235668L
L0L
(lp2913
(lp2914
tp2915
atp2916
sI1074270664
(Vrtc_vddsdio_get_config
p2917
(lp2918
(L3899931077L
L0L
(lp2919
(lp2920
tp2921
a(L147025923L
L0L
(lp2922
(lp2923
tp2924
a(L318395269L
L0L
(lp2925
(lp2926
tp2927
a(L391444156L
L0L
(lp2928
(lp2929
tp2930
a(L3090886802L
L0L
(lp2931
(lp2932
tp2933
a(L1116012092L
L0L
(lp2934
(lp2935
tp2936
a(L1719615367L
L0L
(lp2937
(lp2938
tp2939
a(L2748129941L
L0L
(lp2940
(lp2941
tp2942
atp2943
sI1074236608
(Vesp_rom_uart_tx_wait_idle
p2944
(lp2945
(L708706374L
L0L
(lp2946
(lp2947
tp2948
a(L1301079727L
L0L
(lp2949
(lp2950
tp2951
a(L3597746521L
L0L
(lp2952
(lp2953
tp2954
a(L3694491048L
L0L
(lp2955
(lp2956
tp2957
a(L3055926844L
L0L
(lp2958
(lp2959
tp2960
a(L3360570486L
L0L
(lp2961
(lp2962
tp2963
atp2964
sI1074239948
(Vbootloader_utility_load_boot_image
p2965
(lp2966
(L1561528311L
L0L
(lp2967
(lp2968
tp2969
a(L2177418995L
L3785322319L
(lp2970
(lp2971
Vtry_load_partition
p2972
atp2973
a(L2749106626L
L3785322319L
(lp2974
(lp2975
Vload_image
p2976
atp2977
a(L157669688L
L3785322319L
(lp2978
(lp2979
Vesp_log_early_timestamp
p2980
atp2981
a(L3827921190L
L3785322319L
(lp2982
(lp2983
Vbootloader_reset
p2984
atp2985
a(L2542673780L
L3785322319L
(lp2986
(lp2987
Vindex_to_partition
p2988
atp2989
a(L1204373741L
L3785322319L
(lp2990
(lp2991
Vtry_load_partition
p2992
atp2993
a(L3020187L
L0L
(lp2994
(lp2995
tp2996
a(L3111076057L
L0L
(lp2997
(lp2998
tp2999
a(L2070875117L
L3785322319L
(lp3000
(lp3001
Vset_actual_ota_seq
p3002
atp3003
a(L1868897605L
L3785322319L
(lp3004
(lp3005
Vlog_invalid_app_partition
p3006
atp3007
a(L831650730L
L0L
(lp3008
(lp3009
tp3010
a(L3021737L
L0L
(lp3011
(lp3012
tp3013
a(L4083823862L
L0L
(lp3014
(lp3015
tp3016
a(L3818328201L
L3785322319L
(lp3017
(lp3018
Vtry_load_partition
p3019
atp3020
a(L1643420822L
L3785322319L
(lp3021
(lp3022
Vesp_log_early_timestamp
p3023
atp3024
a(L2185156151L
L3785322319L
(lp3025
(lp3026
Vindex_to_partition
p3027
atp3028
a(L1074657773L
L3785322319L
(lp3029
(lp3030
Vtry_load_partition
p3031
atp3032
a(L3027024L
L0L
(lp3033
(lp3034
tp3035
a(L2127949398L
L0L
(lp3036
(lp3037
tp3038
a(L3061261803L
L0L
(lp3039
(lp3040
tp3041
a(L3582858798L
L3785322319L
(lp3042
(lp3043
Vlog_invalid_app_partition
p3044
atp3045
a(L4140564132L
L3785322319L
(lp3046
(lp3047
Vesp_log_early_timestamp
p3048
atp3049
atp3050
sI1074245324
(Vwdt_hal_config_stage
p3051
(lp3052
(L331558507L
L0L
(lp3053
(lp3054
tp3055
a(L4279082939L
L0L
(lp3056
(lp3057
tp3058
a(L3020204L
L0L
(lp3059
(lp3060
tp3061
a(L3020187L
L0L
(lp3062
(lp3063
tp3064
a(L3020187L
L0L
(lp3065
(lp3066
tp3067
a(L94425498L
L3785322319L
(lp3068
(lp3069
Vabort
p3070
atp3071
a(L2927143788L
L0L
(lp3072
(lp3073
tp3074
a(L3360570486L
L0L
(lp3075
(lp3076
tp3077
a(L3657953876L
L0L
(lp3078
(lp3079
tp3080
a(L3718556305L
L0L
(lp3081
(lp3082
tp3083
a(L4229860718L
L0L
(lp3084
(lp3085
tp3086
a(L3020187L
L0L
(lp3087
(lp3088
tp3089
a(L2902417580L
L0L
(lp3090
(lp3091
tp3092
a(L3020187L
L0L
(lp3093
(lp3094
tp3095
a(L3028464L
L0L
(lp3096
(lp3097
tp3098
a(L2600837442L
L0L
(lp3099
(lp3100
tp3101
a(L2134283093L
L0L
(lp3102
(lp3103
tp3104
a(L1545969355L
L0L
(lp3105
(lp3106
tp3107
a(L4007862746L
L0L
(lp3108
(lp3109
tp3110
atp3111
sI1074269892
(Vbootloader_print_banner
p3112
(lp3113
(L1149879147L
L1832448559L
(lp3114
(lp3115
Vesp_log_early_timestamp
p3116
aVesp_log_early_timestamp
p3117
aVesp_log_early_timestamp
p3118
atp3119
atp3120
sI1074241736
(Vprocess_segments
p3121
(lp3122
(L3883698409L
L0L
(lp3123
(lp3124
tp3125
a(L2495454333L
L0L
(lp3126
(lp3127
tp3128
a(L4578542L
L0L
(lp3129
(lp3130
tp3131
a(L106L
L0L
(lp3132
(lp3133
tp3134
a(L1315312493L
L0L
(lp3135
(lp3136
tp3137
a(L2718798963L
L3785322319L
(lp3138
(lp3139
Vesp_log_early_timestamp
p3140
atp3141
a(L1440180646L
L3785322319L
(lp3142
(lp3143
Vbootloader_flash_read
p3144
atp3145
a(L2510149738L
L3785322319L
(lp3146
(lp3147
Vesp_log_early_timestamp
p3148
atp3149
a(L3360570486L
L0L
(lp3150
(lp3151
tp3152
a(L234193771L
L0L
(lp3153
(lp3154
tp3155
a(L1635713494L
L3785322319L
(lp3156
(lp3157
Vbootloader_sha256_data
p3158
atp3159
a(L926711887L
L0L
(lp3160
(lp3161
tp3162
a(L790360741L
L0L
(lp3163
(lp3164
tp3165
a(L3997307212L
L0L
(lp3166
(lp3167
tp3168
a(L3802068284L
L0L
(lp3169
(lp3170
tp3171
a(L2942462881L
L0L
(lp3172
(lp3173
tp3174
a(L2258867228L
L0L
(lp3175
(lp3176
tp3177
a(L1355332303L
L0L
(lp3178
(lp3179
tp3180
a(L2965680995L
L0L
(lp3181
(lp3182
tp3183
a(L1849436849L
L0L
(lp3184
(lp3185
tp3186
a(L1385804824L
L3785322319L
(lp3187
(lp3188
Vesp_log_early_timestamp
p3189
atp3190
a(L3895303701L
L0L
(lp3191
(lp3192
tp3193
a(L310091939L
L0L
(lp3194
(lp3195
tp3196
a(L531742663L
L3785322319L
(lp3197
(lp3198
Vesp_log_early_timestamp
p3199
atp3200
a(L3982404358L
L3785322319L
(lp3201
(lp3202
Vverify_load_addresses
p3203
atp3204
a(L106L
L0L
(lp3205
(lp3206
tp3207
a(L2300166925L
L0L
(lp3208
(lp3209
tp3210
a(L2684012095L
L0L
(lp3211
(lp3212
tp3213
a(L1905937838L
L3785322319L
(lp3214
(lp3215
Vbootloader_mmap
p3216
atp3217
a(L1098327470L
L3785322319L
(lp3218
(lp3219
Vesp_log_early_timestamp
p3220
atp3221
a(L2116114917L
L0L
(lp3222
(lp3223
tp3224
a(L147926536L
L0L
(lp3225
(lp3226
tp3227
a(L1534276982L
L3785322319L
(lp3228
(lp3229
Vbootloader_munmap
p3230
atp3231
a(L3105361649L
L0L
(lp3232
(lp3233
tp3234
a(L1216016797L
L3785322319L
(lp3235
(lp3236
Vbootloader_fill_random
p3237
atp3238
a(L3570641403L
L0L
(lp3239
(lp3240
tp3241
a(L3574335487L
L0L
(lp3242
(lp3243
tp3244
a(L3450268858L
L0L
(lp3245
(lp3246
tp3247
a(L3021749L
L0L
(lp3248
(lp3249
tp3250
a(L1609678444L
L0L
(lp3251
(lp3252
tp3253
a(L1777728568L
L0L
(lp3254
(lp3255
tp3256
a(L3020204L
L0L
(lp3257
(lp3258
tp3259
a(L591273984L
L0L
(lp3260
(lp3261
tp3262
a(L2076461546L
L0L
(lp3263
(lp3264
tp3265
a(L3832868376L
L0L
(lp3266
(lp3267
tp3268
a(L1749969336L
L0L
(lp3269
(lp3270
tp3271
a(L670934548L
L0L
(lp3272
(lp3273
tp3274
a(L1903785265L
L3785322319L
(lp3275
(lp3276
Vbootloader_sha256_data
p3277
atp3278
a(L90548756L
L0L
(lp3279
(lp3280
tp3281
a(L4195963580L
L0L
(lp3282
(lp3283
tp3284
a(L2572638616L
L0L
(lp3285
(lp3286
tp3287
a(L3740179196L
L0L
(lp3288
(lp3289
tp3290
a(L233873941L
L3785322319L
(lp3291
(lp3292
Vshould_load
p3293
atp3294
a(L3070788781L
L0L
(lp3295
(lp3296
tp3297
a(L121368540L
L3785322319L
(lp3298
(lp3299
Vesp_log_early_timestamp
p3300
atp3301
a(L93675945L
L0L
(lp3302
(lp3303
tp3304
a(L2104869573L
L0L
(lp3305
(lp3306
tp3307
a(L4007649496L
L0L
(lp3308
(lp3309
tp3310
a(L2902417580L
L0L
(lp3311
(lp3312
tp3313
a(L2636912524L
L0L
(lp3314
(lp3315
tp3316
a(L4195318902L
L3785322319L
(lp3317
(lp3318
Vbootloader_mmap_get_free_pages
p3319
atp3320
a(L3028481L
L0L
(lp3321
(lp3322
tp3323
a(L124545238L
L0L
(lp3324
(lp3325
tp3326
atp3327
sI1074238164
(Vbootloader_enable_wp
p3328
(lp3329
(L1117825804L
L3785322319L
(lp3330
(lp3331
Vbootloader_execute_flash_command
p3332
atp3333
atp3334
sI1074237396
(Vbootloader_common_select_otadata
p3335
(lp3336
(L2342662536L
L0L
(lp3337
(lp3338
tp3339
a(L3806783650L
L0L
(lp3340
(lp3341
tp3342
a(L1674928252L
L0L
(lp3343
(lp3344
tp3345
a(L251571983L
L0L
(lp3346
(lp3347
tp3348
a(L3360570486L
L0L
(lp3349
(lp3350
tp3351
a(L2045232488L
L0L
(lp3352
(lp3353
tp3354
a(L189726519L
L0L
(lp3355
(lp3356
tp3357
a(L3095066987L
L0L
(lp3358
(lp3359
tp3360
a(L3592023188L
L0L
(lp3361
(lp3362
tp3363
a(L1641201884L
L0L
(lp3364
(lp3365
tp3366
atp3367
sI1074239188
(Vtry_load_partition
p3368
(lp3369
(L1263750142L
L0L
(lp3370
(lp3371
tp3372
a(L2258688482L
L0L
(lp3373
(lp3374
tp3375
a(L3360570486L
L0L
(lp3376
(lp3377
tp3378
a(L530241438L
L3785322319L
(lp3379
(lp3380
Vbootloader_load_image
p3381
atp3382
a(L2684814704L
L3785322319L
(lp3383
(lp3384
Vesp_log_early_timestamp
p3385
atp3386
atp3387
sI1074246100
(Vrtc_clk_32k_enable_common
p3388
(lp3389
(L3622748675L
L0L
(lp3390
(lp3391
tp3392
atp3393
sI1074248404
(V_fini
p3394
(lp3395
(L3493042598L
L0L
(lp3396
(lp3397
tp3398
atp3399
sI1074240464
(Vbootloader_sha256_finish
p3400
(lp3401
(L4066096136L
L0L
(lp3402
(lp3403
tp3404
a(L283309760L
L0L
(lp3405
(lp3406
tp3407
a(L2504541789L
L3785322319L
(lp3408
(lp3409
V__assert_func
p3410
atp3411
a(L3020204L
L0L
(lp3412
(lp3413
tp3414
a(L1077914239L
L0L
(lp3415
(lp3416
tp3417
a(L2534656226L
L0L
(lp3418
(lp3419
tp3420
a(L3404488268L
L3785322319L
(lp3421
(lp3422
Vbootloader_sha256_data
p3423
atp3424
a(L1076837905L
L0L
(lp3425
(lp3426
tp3427
a(L1830200745L
L3785322319L
(lp3428
(lp3429
Vbootloader_sha256_data
p3430
atp3431
a(L1563431552L
L0L
(lp3432
(lp3433
tp3434
a(L657425439L
L0L
(lp3435
(lp3436
tp3437
a(L4023907455L
L0L
(lp3438
(lp3439
tp3440
a(L657425439L
L0L
(lp3441
(lp3442
tp3443
a(L894366391L
L0L
(lp3444
(lp3445
tp3446
a(L2975660674L
L0L
(lp3447
(lp3448
tp3449
a(L3347778L
L0L
(lp3450
(lp3451
tp3452
a(L3360570486L
L0L
(lp3453
(lp3454
tp3455
atp3456
sI1074240208
(Vindex_to_partition
p3457
(lp3458
(L4066096119L
L0L
(lp3459
(lp3460
tp3461
a(L1739185955L
L0L
(lp3462
(lp3463
tp3464
a(L2171552758L
L0L
(lp3465
(lp3466
tp3467
a(L2808906342L
L0L
(lp3468
(lp3469
tp3470
a(L2101481936L
L0L
(lp3471
(lp3472
tp3473
a(L3698927993L
L0L
(lp3474
(lp3475
tp3476
a(L2808826781L
L0L
(lp3477
(lp3478
tp3479
a(L3003398163L
L0L
(lp3480
(lp3481
tp3482
a(L1104460200L
L0L
(lp3483
(lp3484
tp3485
a(L1087646172L
L0L
(lp3486
(lp3487
tp3488
atp3489
sI1074245840
(Vefuse_hal_get_rated_freq_mhz
p3490
(lp3491
(L1680594370L
L0L
(lp3492
(lp3493
tp3494
a(L2965302338L
L0L
(lp3495
(lp3496
tp3497
a(L3360570486L
L0L
(lp3498
(lp3499
tp3500
atp3501
sI1074246620
(Vrtc_clk_fast_freq_get
p3502
(lp3503
(L2805650262L
L0L
(lp3504
(lp3505
tp3506
atp3507
sI1074247148
(Vrtc_clk_cpu_freq_get_config
p3508
(lp3509
(L906905014L
L0L
(lp3510
(lp3511
tp3512
a(L2902417580L
L0L
(lp3513
(lp3514
tp3515
a(L1777368540L
L0L
(lp3516
(lp3517
tp3518
a(L3188589465L
L1880226080L
(lp3519
(lp3520
Vesp_log_early_timestamp
p3521
aVabort
p3522
atp3523
a(L2752113302L
L3785322319L
(lp3524
(lp3525
Vrtc_clk_xtal_freq_get
p3526
atp3527
a(L584032699L
L0L
(lp3528
(lp3529
tp3530
a(L4100800062L
L0L
(lp3531
(lp3532
tp3533
a(L3020187L
L0L
(lp3534
(lp3535
tp3536
a(L713819170L
L0L
(lp3537
(lp3538
tp3539
a(L106L
L0L
(lp3540
(lp3541
tp3542
a(L549042870L
L0L
(lp3543
(lp3544
tp3545
a(L187152368L
L0L
(lp3546
(lp3547
tp3548
a(L4149732163L
L0L
(lp3549
(lp3550
tp3551
atp3552
sI1074246636
(Vrtc_clk_bbpll_configure
p3553
(lp3554
(L3990937399L
L0L
(lp3555
(lp3556
tp3557
a(L106L
L0L
(lp3558
(lp3559
tp3560
a(L446175133L
L0L
(lp3561
(lp3562
tp3563
a(L106L
L0L
(lp3564
(lp3565
tp3566
a(L83268611L
L0L
(lp3567
(lp3568
tp3569
a(L106L
L0L
(lp3570
(lp3571
tp3572
a(L82345090L
L0L
(lp3573
(lp3574
tp3575
a(L106L
L0L
(lp3576
(lp3577
tp3578
a(L2258688482L
L0L
(lp3579
(lp3580
tp3581
a(L3177466952L
L0L
(lp3582
(lp3583
tp3584
a(L4035242712L
L0L
(lp3585
(lp3586
tp3587
a(L2837583344L
L0L
(lp3588
(lp3589
tp3590
a(L1299866343L
L0L
(lp3591
(lp3592
tp3593
a(L3291765465L
L0L
(lp3594
(lp3595
tp3596
a(L3241888512L
L0L
(lp3597
(lp3598
tp3599
a(L3075531556L
L0L
(lp3600
(lp3601
tp3602
a(L83268344L
L0L
(lp3603
(lp3604
tp3605
a(L82344823L
L0L
(lp3606
(lp3607
tp3608
a(L1667153377L
L0L
(lp3609
(lp3610
tp3611
a(L2258867279L
L0L
(lp3612
(lp3613
tp3614
a(L1867199810L
L0L
(lp3615
(lp3616
tp3617
a(L1551160474L
L0L
(lp3618
(lp3619
tp3620
a(L1712476653L
L0L
(lp3621
(lp3622
tp3623
a(L4011631532L
L0L
(lp3624
(lp3625
tp3626
atp3627
sI1074240748
(Vbootloader_ana_clock_glitch_reset_config
p3628
(lp3629
(L2100504542L
L0L
(lp3630
(lp3631
tp3632
atp3633
sI1074236908
(Vefuse_hal_get_minor_chip_version
p3634
(lp3635
(L484689204L
L0L
(lp3636
(lp3637
tp3638
atp3639
sI1074269668
(Vbootloader_check_bootloader_validity
p3640
(lp3641
(L1057666116L
L1832448559L
(lp3642
(lp3643
Vefuse_hal_chip_revision
p3644
aVesp_log_early_timestamp
p3645
aVbootloader_common_check_chip_validity
p3646
atp3647
atp3648
sI1074238184
(Vbootloader_mmap_get_free_pages
p3649
(lp3650
(L1496516875L
L0L
(lp3651
(lp3652
tp3653
atp3654
sI1074241524
(Vprocess_appended_hash_and_sig
p3655
(lp3656
(L3580132405L
L0L
(lp3657
(lp3658
tp3659
a(L3028481L
L0L
(lp3660
(lp3661
tp3662
a(L1591589631L
L0L
(lp3663
(lp3664
tp3665
a(L22297358L
L0L
(lp3666
(lp3667
tp3668
a(L4191754026L
L0L
(lp3669
(lp3670
tp3671
a(L728545027L
L3785322319L
(lp3672
(lp3673
Vesp_log_early_timestamp
p3674
atp3675
a(L894030452L
L3785322319L
(lp3676
(lp3677
Vbootloader_flash_read
p3678
atp3679
a(L3871473710L
L0L
(lp3680
(lp3681
tp3682
atp3683
sI1074240756
(Vprocess_checksum
p3684
(lp3685
(L1985325516L
L0L
(lp3686
(lp3687
tp3688
a(L2910371777L
L0L
(lp3689
(lp3690
tp3691
a(L1649277394L
L0L
(lp3692
(lp3693
tp3694
a(L2910371777L
L0L
(lp3695
(lp3696
tp3697
a(L2902417580L
L0L
(lp3698
(lp3699
tp3700
a(L1644002876L
L3785322319L
(lp3701
(lp3702
Vbootloader_sha256_data
p3703
atp3704
a(L3612796056L
L0L
(lp3705
(lp3706
tp3707
a(L1811888222L
L3785322319L
(lp3708
(lp3709
Vbootloader_flash_read
p3710
atp3711
a(L3126521138L
L0L
(lp3712
(lp3713
tp3714
a(L4224515246L
L0L
(lp3715
(lp3716
tp3717
a(L3744681334L
L3785322319L
(lp3718
(lp3719
Vesp_log_early_timestamp
p3720
atp3721
atp3722
sI1074245876
(Vrtc_clk_bbpll_disable
p3723
(lp3724
(L369314231L
L0L
(lp3725
(lp3726
tp3727
a(L391691750L
L0L
(lp3728
(lp3729
tp3730
a(L3360570486L
L0L
(lp3731
(lp3732
tp3733
atp3734
sI1074243312
(Vesp_rom_spiflash_wait_idle
p3735
(lp3736
(L3233075690L
L0L
(lp3737
(lp3738
tp3739
a(L2023766174L
L0L
(lp3740
(lp3741
tp3742
a(L2805933647L
L0L
(lp3743
(lp3744
tp3745
a(L3086959262L
L0L
(lp3746
(lp3747
tp3748
a(L4161019926L
L3785322319L
(lp3749
(lp3750
Vesp_rom_spiflash_read_status
p3751
atp3752
atp3753
sI1074238192
(Vbootloader_fill_random
p3754
(lp3755
(L3026789978L
L0L
(lp3756
(lp3757
tp3758
a(L1056102925L
L0L
(lp3759
(lp3760
tp3761
a(L97689L
L0L
(lp3762
(lp3763
tp3764
a(L3360570486L
L0L
(lp3765
(lp3766
tp3767
a(L324866589L
L3785322319L
(lp3768
(lp3769
V__assert_func
p3770
atp3771
a(L2008660626L
L0L
(lp3772
(lp3773
tp3774
a(L3028481L
L0L
(lp3775
(lp3776
tp3777
a(L983138374L
L0L
(lp3778
(lp3779
tp3780
a(L2607138306L
L0L
(lp3781
(lp3782
tp3783
a(L1982128194L
L0L
(lp3784
(lp3785
tp3786
atp3787
sI1074237680
(Vbootloader_munmap
p3788
(lp3789
(L1713649238L
L0L
(lp3790
(lp3791
tp3792
a(L847703320L
L0L
(lp3793
(lp3794
tp3795
a(L3360570486L
L0L
(lp3796
(lp3797
tp3798
atp3799
sI1074235632
(Vbootloader_read_flash_id
p3800
(lp3801
(L3925322170L
L3785322319L
(lp3802
(lp3803
Vbootloader_execute_flash_command
p3804
atp3805
atp3806
sI1074236924
(Vis_xmc_chip_strict
p3807
(lp3808
(L1286841609L
L0L
(lp3809
(lp3810
tp3811
a(L2234016759L
L0L
(lp3812
(lp3813
tp3814
a(L1069027148L
L0L
(lp3815
(lp3816
tp3817
a(L3021749L
L0L
(lp3818
(lp3819
tp3820
a(L1900148749L
L0L
(lp3821
(lp3822
tp3823
a(L1936875721L
L0L
(lp3824
(lp3825
tp3826
a(L3356166509L
L0L
(lp3827
(lp3828
tp3829
a(L1937769451L
L0L
(lp3830
(lp3831
tp3832
a(L2137658907L
L0L
(lp3833
(lp3834
tp3835
a(L4265949734L
L0L
(lp3836
(lp3837
tp3838
a(L3360570486L
L0L
(lp3839
(lp3840
tp3841
atp3842
sI1074236412
(Vbootloader_flash_dummy_config
p3843
(lp3844
(L132211179L
L0L
(lp3845
(lp3846
tp3847
a(L2761717557L
L0L
(lp3848
(lp3849
tp3850
a(L705371371L
L0L
(lp3851
(lp3852
tp3853
a(L2971458626L
L0L
(lp3854
(lp3855
tp3856
a(L1491210540L
L0L
(lp3857
(lp3858
tp3859
a(L3081491917L
L0L
(lp3860
(lp3861
tp3862
a(L1610443405L
L0L
(lp3863
(lp3864
tp3865
a(L4102729993L
L0L
(lp3866
(lp3867
tp3868
a(L1449490182L
L0L
(lp3869
(lp3870
tp3871
a(L1298875775L
L0L
(lp3872
(lp3873
tp3874
a(L3880393601L
L0L
(lp3875
(lp3876
tp3877
a(L1505818087L
L0L
(lp3878
(lp3879
tp3880
a(L1610443436L
L0L
(lp3881
(lp3882
tp3883
atp3884
ssS'functionsdups'
p3885
g11
((lp3886
tp3887
Rp3888
sS'immediatedups'
p3889
g11
((lp3890
tp3891
Rp3892
sS'functiondups'
p3893
g11
((lp3894
tp3895
Rp3896
sS'fuzzy'
p3897
(dp3898
L1536L
I1074240676
sL617583950L
I1074237084
sL430153639L
I1074235944
sL3121027072L
I1074270664
sL2082889262L
I1074241524
sL3879741902L
I1074241156
sL3538491111L
I1074247348
sL2919016435L
I1074235288
sL16208487L
I1074234788
sL2680783959L
I1074235676
sL3512578114L
I1074239188
sL2469233929L
I1074240464
sL1792232694L
I1074245936
sL4011111091L
I1074237732
sL1377559356L
I1074242452
sL3897252859L
I1074238996
sL1065525808L
I1074236924
sL2327783177L
I1074240756
sL1164839255L
I1074241736
sL449860969L
I1074247060
sL3210669721L
I1074246216
sL819541406L
I1074267804
sL1332800441L
I1074237328
sL2884218272L
I1074267980
sL1148089122L
I1074239080
sL1345429244L
I1074240908
sL2689419264L
I1074246636
sL4160102055L
I1074239916
sL4202185385L
I1074243312
sL2453272040L
I1074247788
sL3690558760L
I1074270036
sL1768086576L
I1074236412
sL4171975289L
I1074243608
sL1565254297L
I1074243912
sL1636176981L
I1074268200
sL2191698036L
I1074269740
sL1513350244L
I1074239612
sL2474570535L
I1074238192
sL3428965560L
I1074247464
sL519424169L
I1074248244
sL812946199L
I1074237508
sL737694352L
I1074243420
sL503029138L
I1074243360
sL277788135L
I1074244000
sL4253866342L
I1074239948
sL3991645697L
I1074268928
sL47534270L
I1074238612
sL2262558768L
I1074243220
sL424867129L
I1074243740
sL3834155367L
I1074241100
sL176878843L
I1074239236
sL3883282432L
I1074241616
sL4173399607L
I1074242932
sL2726385143L
I1074245324
sL1667054119L
I1074240300
sL4191211306L
I1074247148
sL2687107543L
I1074270208
sL206902443L
I1074238024
ssb.