ccopy_reg
_reconstructor
p0
(crizzo
RizzoSignature
p1
c__builtin__
object
p2
Ntp3
Rp4
(dp5
S'formal'
p6
(dp7
L61540265L
I1074234808
sL699175086L
I1074248740
sL4149167435L
I1074235696
sL2048961576L
I1074240680
sL3061073278L
I1074239968
sL1741170115L
I1074238024
sL2084221494L
I1074243440
sL633479887L
I1074240696
sL277315465L
I1074245660
sL2156867713L
I1074267912
sL4250047811L
I1074243760
sL2079135992L
I1074245956
sL2226187430L
I1074238304
sL2137527423L
I1074236856
sL3871711965L
I1074238632
sL2919494937L
I1074269392
sL4213015302L
I1074242936
sL373399389L
I1074242472
sL633612761L
I1074247064
sL104522008L
I1074237048
sL3211103558L
I1074236432
sL3955774956L
I1074237700
sL2028381634L
I1074245692
sL2470920032L
I1074247148
sL1359501856L
I1074239632
sL3341801479L
I1074244756
sL2528392861L
I1074246980
sL1010441494L
I1074247588
sL3567680394L
I1074267139
sL2896295319L
I1074236944
sL2086831704L
I1074243240
sL271775752L
I1074267752
sL2590834774L
I1074270704
sL1179533169L
I1074270472
sL869300625L
I1074245764
sL3476318838L
I1074246788
sL2467304534L
I1074236628
sL865889750L
I1074242952
sL988944056L
I1074247048
sL3762363151L
I1074246932
sL1269264631L
I1074247548
sL1585823442L
I1074245832
sL744601145L
I1074235852
sL1652509986L
I1074246236
sL2307242981L
I1074237528
sL2599816855L
I1074246956
sL3477333536L
I1074248316
sL2657357824L
I1074237104
sL695752976L
I1074243932
sL949670130L
I1074268920
sL263605983L
I1074240776
sL1509110686L
I1074269700
sL942970971L
I1074241756
sL4175760533L
I1074269672
sL2045471388L
I1074236692
sL2485957460L
I1074269432
sL1522857917L
I1074247848
sL833279786L
I1074243380
sL1140530296L
I1074240720
sL3307282855L
I1074238184
sL4114736847L
I1074236928
sL612086517L
I1074235308
sL242136289L
I1074238044
sL439845816L
I1074247876
sL131154753L
I1074269764
sL3189110663L
I1074245344
sL3844512690L
I1074237016
sL1428927423L
I1074245896
sL652190795L
I1074247992
sL4031550170L
I1074247676
sL2379627086L
I1074236816
sL474521833L
I1074247804
sL83337299L
I1074237496
sL1156874576L
I1074236612
sL666229264L
I1074240320
sL1652900655L
I1074238620
sL23021043L
I1074235964
sL48580680L
I1074239208
sL1804313894L
I1074247104
sL493999838L
I1074267860
sL2997001746L
I1074237348
sL2974749694L
I1074246804
sL1395924870L
I1074247164
sL872506805L
I1074267928
sL3588042603L
I1074239256
sL3484319256L
I1074248272
sL243291962L
I1074240928
sL2819127986L
I1074237068
sL549239041L
I1074238212
sL1287220857L
I1074270016
sL2191677283L
I1074241544
sL1577973455L
I1074239100
sL1164083360L
I1074235652
sL1242724561L
I1074235600
sL2497901350L
I1074248772
sL3131344992L
I1074269408
sL4092259116L
I1074269844
sL2249539038L
I1074240228
sL4153390147L
I1074243332
sL1016673865L
I1074246120
sL168067540L
I1074241636
sL4142749756L
I1074236580
sL1865528544L
I1074245860
sL2810302546L
I1074269796
sL1771548993L
I1074243628
sL1997134047L
I1074244020
sL2346507275L
I1074269476
sL3397796702L
I1074240300
sL2263182908L
I1074238204
sL1666095504L
I1074241176
sL188664287L
I1074235276
sL2959238529L
I1074237416
sL692536993L
I1074237388
sL2319953056L
I1074239016
sL3845421789L
I1074237752
sL2663572780L
I1074240484
sL2156404856L
I1074246296
sL3608561895L
I1074268904
sL3980936895L
I1074268720
sL4108555540L
I1074269548
sL4267894680L
I1074236784
sL3763660718L
I1074239936
sL2246062622L
I1074241120
sL402933242L
I1074270632
ssS'immediates'
p8
(dp9
sS'formaldups'
p10
c__builtin__
set
p11
((lp12
tp13
Rp14
sS'stringdups'
p15
g11
((lp16
tp17
Rp18
sS'fuzzydups'
p19
g11
((lp20
tp21
Rp22
sS'strings'
p23
(dp24
sS'functions'
p25
(dp26
I1074267912
(Vbootloader_common_get_reset_reason
p27
(lp28
(L3780188688L
L0L
(lp29
(lp30
tp31
atp32
sI1074270472
(Vrtc_vddsdio_get_config
p33
(lp34
(L3719039174L
L0L
(lp35
(lp36
tp37
a(L147025923L
L0L
(lp38
(lp39
tp40
a(L318395269L
L0L
(lp41
(lp42
tp43
a(L2902166580L
L0L
(lp44
(lp45
tp46
a(L1606258427L
L0L
(lp47
(lp48
tp49
a(L1116012092L
L0L
(lp50
(lp51
tp52
a(L1719615367L
L0L
(lp53
(lp54
tp55
a(L508976372L
L0L
(lp56
(lp57
tp58
atp59
sI1074243332
(Vesp_rom_spiflash_wait_idle
p60
(lp61
(L3233075670L
L0L
(lp62
(lp63
tp64
a(L2023766174L
L0L
(lp65
(lp66
tp67
a(L2805933651L
L0L
(lp68
(lp69
tp70
a(L3086959262L
L0L
(lp71
(lp72
tp73
a(L4161019926L
L3785322319L
(lp74
(lp75
Vesp_rom_spiflash_read_status
p76
atp77
atp78
sI1074238212
(Vbootloader_fill_random
p79
(lp80
(L3026789978L
L0L
(lp81
(lp82
tp83
a(L1056102925L
L0L
(lp84
(lp85
tp86
a(L97689L
L0L
(lp87
(lp88
tp89
a(L3360570486L
L0L
(lp90
(lp91
tp92
a(L324866589L
L3785322319L
(lp93
(lp94
V__assert_func
p95
atp96
a(L2008660626L
L0L
(lp97
(lp98
tp99
a(L3028481L
L0L
(lp100
(lp101
tp102
a(L983138374L
L0L
(lp103
(lp104
tp105
a(L2607138306L
L0L
(lp106
(lp107
tp108
a(L1982128194L
L0L
(lp109
(lp110
tp111
atp112
sI1074237700
(Vbootloader_munmap
p113
(lp114
(L1713649238L
L0L
(lp115
(lp116
tp117
a(L847703320L
L0L
(lp118
(lp119
tp120
a(L3360570486L
L0L
(lp121
(lp122
tp123
atp124
sI1074235652
(Vbootloader_read_flash_id
p125
(lp126
(L3925322170L
L3785322319L
(lp127
(lp128
Vbootloader_execute_flash_command
p129
atp130
atp131
sI1074236928
(Vefuse_hal_get_minor_chip_version
p132
(lp133
(L484689204L
L0L
(lp134
(lp135
tp136
atp137
sI1074240768
(Vbootloader_ana_clock_glitch_reset_config
p138
(lp139
(L2100504542L
L0L
(lp140
(lp141
tp142
atp143
sI1074267136
(V_init
p144
(lp145
(L3493042598L
L0L
(lp146
(lp147
tp148
atp149
sI1074267139
(V_text_start
p150
(lp151
(L1817914933L
L0L
(lp152
(lp153
tp154
atp155
sI1074269700
(Vbootloader_print_banner
p156
(lp157
(L3661680482L
L1832448559L
(lp158
(lp159
Vesp_log_early_timestamp
p160
aVesp_log_early_timestamp
p161
aVesp_log_early_timestamp
p162
atp163
atp164
sI1074245896
(Vrtc_clk_bbpll_disable
p165
(lp166
(L2818421224L
L0L
(lp167
(lp168
tp169
a(L391691750L
L0L
(lp170
(lp171
tp172
a(L3360570486L
L0L
(lp173
(lp174
tp175
atp176
sI1074241544
(Vprocess_appended_hash_and_sig
p177
(lp178
(L3580132405L
L0L
(lp179
(lp180
tp181
a(L3028481L
L0L
(lp182
(lp183
tp184
a(L1591589631L
L0L
(lp185
(lp186
tp187
a(L22297358L
L0L
(lp188
(lp189
tp190
a(L4191754026L
L0L
(lp191
(lp192
tp193
a(L3911346680L
L3785322319L
(lp194
(lp195
Vesp_log_early_timestamp
p196
atp197
a(L894030452L
L3785322319L
(lp198
(lp199
Vbootloader_flash_read
p200
atp201
a(L3871473710L
L0L
(lp202
(lp203
tp204
atp205
sI1074240776
(Vprocess_checksum
p206
(lp207
(L1985325516L
L0L
(lp208
(lp209
tp210
a(L2910371777L
L0L
(lp211
(lp212
tp213
a(L1649277394L
L0L
(lp214
(lp215
tp216
a(L2910371777L
L0L
(lp217
(lp218
tp219
a(L2902417580L
L0L
(lp220
(lp221
tp222
a(L1644002876L
L3785322319L
(lp223
(lp224
Vbootloader_sha256_data
p225
atp226
a(L3612796056L
L0L
(lp227
(lp228
tp229
a(L1811888222L
L3785322319L
(lp230
(lp231
Vbootloader_flash_read
p232
atp233
a(L3126521138L
L0L
(lp234
(lp235
tp236
a(L4224515246L
L0L
(lp237
(lp238
tp239
a(L3744681334L
L3785322319L
(lp240
(lp241
Vesp_log_early_timestamp
p242
atp243
atp244
sI1074267928
(Vbootloader_init
p245
(lp246
(L3804836369L
L3785322319L
(lp247
(lp248
Vbootloader_init_mem
p249
atp250
a(L884624360L
L0L
(lp251
(lp252
tp253
a(L3437976184L
L3785322319L
(lp254
(lp255
V__assert_func
p256
atp257
a(L8634251L
L0L
(lp258
(lp259
tp260
a(L1217383532L
L0L
(lp261
(lp262
tp263
a(L2926278337L
L0L
(lp264
(lp265
tp266
a(L2620583342L
L0L
(lp267
(lp268
tp269
a(L3027019L
L0L
(lp270
(lp271
tp272
a(L4023784330L
L0L
(lp273
(lp274
tp275
a(L2921262017L
L1832448559L
(lp276
(lp277
Vbootloader_clear_bss_section
p278
aVbootloader_common_vddsdio_configure
p279
aVbootloader_clock_get_rated_freq_mhz
p280
atp281
a(L3987130017L
L1157885199L
(lp282
(lp283
Vbootloader_clock_configure
p284
aVbootloader_console_init
p285
aVbootloader_print_banner
p286
aVbootloader_flash_update_id
p287
aVbootloader_flash_xmc_startup
p288
atp289
a(L3838320684L
L3785322319L
(lp290
(lp291
Vesp_log_early_timestamp
p292
atp293
a(L3314830892L
L3785322319L
(lp294
(lp295
Vesp_log_early_timestamp
p296
atp297
a(L3360570486L
L0L
(lp298
(lp299
tp300
a(L2444883382L
L3785322319L
(lp301
(lp302
Vbootloader_read_bootloader_header
p303
atp304
a(L2444883382L
L3785322319L
(lp305
(lp306
Vbootloader_check_bootloader_validity
p307
atp308
a(L1572644154L
L2485746240L
(lp309
(lp310
Vbootloader_flash_gpio_config
p311
aVbootloader_flash_dummy_config
p312
aVbootloader_flash_cs_timing_config
p313
aVbootloader_flash_unlock
p314
atp315
a(L2251399622L
L0L
(lp316
(lp317
tp318
a(L1346649327L
L0L
(lp319
(lp320
tp321
a(L3902505652L
L0L
(lp322
(lp323
tp324
a(L1714599046L
L3785322319L
(lp325
(lp326
Vesp_log_early_timestamp
p327
atp328
a(L2740417899L
L0L
(lp329
(lp330
tp331
a(L2744111983L
L0L
(lp332
(lp333
tp334
a(L2715482832L
L0L
(lp335
(lp336
tp337
a(L2755194235L
L0L
(lp338
(lp339
tp340
a(L3201441156L
L0L
(lp341
(lp342
tp343
a(L1937114122L
L3785322319L
(lp344
(lp345
Vesp_log_early_timestamp
p346
atp347
a(L93674324L
L0L
(lp348
(lp349
tp350
a(L1628792350L
L0L
(lp351
(lp352
tp353
a(L718593913L
L0L
(lp354
(lp355
tp356
a(L1532591680L
L0L
(lp357
(lp358
tp359
a(L1489194470L
L0L
(lp360
(lp361
tp362
a(L563615447L
L3785322319L
(lp363
(lp364
Vesp_log_early_timestamp
p365
atp366
a(L104277116L
L0L
(lp367
(lp368
tp369
a(L2642220900L
L0L
(lp370
(lp371
tp372
a(L819703139L
L0L
(lp373
(lp374
tp375
a(L575140665L
L0L
(lp376
(lp377
tp378
a(L2833377629L
L3785322319L
(lp379
(lp380
Vbootloader_enable_wp
p381
atp382
a(L1092107084L
L0L
(lp383
(lp384
tp385
a(L3256259158L
L3785322319L
(lp386
(lp387
Vesp_log_early_timestamp
p388
atp389
a(L4070159054L
L0L
(lp390
(lp391
tp392
a(L106L
L0L
(lp393
(lp394
tp395
a(L569590566L
L0L
(lp396
(lp397
tp398
a(L106L
L0L
(lp399
(lp400
tp401
a(L3020204L
L0L
(lp402
(lp403
tp404
a(L2113618850L
L0L
(lp405
(lp406
tp407
a(L362391907L
L0L
(lp408
(lp409
tp410
a(L2508833713L
L3785322319L
(lp411
(lp412
Vesp_log_early_timestamp
p413
atp414
a(L1547317151L
L0L
(lp415
(lp416
tp417
a(L938198690L
L1880226080L
(lp418
(lp419
Vbootloader_config_wdt
p420
aVbootloader_enable_random
p421
atp422
a(L4054118365L
L3785322319L
(lp423
(lp424
Vesp_log_early_timestamp
p425
atp426
a(L3939353035L
L3785322319L
(lp427
(lp428
Vesp_log_early_timestamp
p429
atp430
atp431
sI1074236692
(Vesp_rom_uart_set_clock_baudrate
p432
(lp433
(L881452272L
L0L
(lp434
(lp435
tp436
a(L3909951828L
L0L
(lp437
(lp438
tp439
a(L1008980029L
L0L
(lp440
(lp441
tp442
a(L869159045L
L0L
(lp443
(lp444
tp445
a(L2805931435L
L0L
(lp446
(lp447
tp448
a(L1926040272L
L0L
(lp449
(lp450
tp451
atp452
sI1074246932
(Vrtc_clk_8m_enabled
p453
(lp454
(L581027248L
L0L
(lp455
(lp456
tp457
atp458
sI1074236944
(Vis_xmc_chip_strict
p459
(lp460
(L1286841609L
L0L
(lp461
(lp462
tp463
a(L2234016759L
L0L
(lp464
(lp465
tp466
a(L1069027148L
L0L
(lp467
(lp468
tp469
a(L3021749L
L0L
(lp470
(lp471
tp472
a(L1900148749L
L0L
(lp473
(lp474
tp475
a(L1936875721L
L0L
(lp476
(lp477
tp478
a(L3356166509L
L0L
(lp479
(lp480
tp481
a(L1937769451L
L0L
(lp482
(lp483
tp484
a(L2137658907L
L0L
(lp485
(lp486
tp487
a(L4265949734L
L0L
(lp488
(lp489
tp490
a(L3360570486L
L0L
(lp491
(lp492
tp493
atp494
sI1074236432
(Vbootloader_flash_dummy_config
p495
(lp496
(L132211179L
L0L
(lp497
(lp498
tp499
a(L2761717557L
L0L
(lp500
(lp501
tp502
a(L705371371L
L0L
(lp503
(lp504
tp505
a(L2971458626L
L0L
(lp506
(lp507
tp508
a(L1491210540L
L0L
(lp509
(lp510
tp511
a(L3081491917L
L0L
(lp512
(lp513
tp514
a(L1610443405L
L0L
(lp515
(lp516
tp517
a(L4102729993L
L0L
(lp518
(lp519
tp520
a(L1449490182L
L0L
(lp521
(lp522
tp523
a(L1298875775L
L0L
(lp524
(lp525
tp526
a(L3880393601L
L0L
(lp527
(lp528
tp529
a(L1505818087L
L0L
(lp530
(lp531
tp532
a(L1610443436L
L0L
(lp533
(lp534
tp535
atp536
sI1074245660
(Vwdt_hal_write_protect_disable
p537
(lp538
(L2163333608L
L0L
(lp539
(lp540
tp541
a(L4195472003L
L0L
(lp542
(lp543
tp544
a(L3360570486L
L0L
(lp545
(lp546
tp547
a(L1210571996L
L0L
(lp548
(lp549
tp550
atp551
sI1074239256
(Vbootloader_utility_load_partition_table
p552
(lp553
(L337793758L
L3785322319L
(lp554
(lp555
Vbootloader_mmap
p556
atp557
a(L1572404640L
L3785322319L
(lp558
(lp559
Vesp_log_early_timestamp
p560
atp561
a(L2258688482L
L0L
(lp562
(lp563
tp564
a(L3360570486L
L0L
(lp565
(lp566
tp567
a(L2379286607L
L3785322319L
(lp568
(lp569
Vesp_partition_table_verify
p570
atp571
a(L1824441572L
L3785322319L
(lp572
(lp573
Vesp_log_early_timestamp
p574
atp575
a(L555142709L
L1880226080L
(lp576
(lp577
Vesp_log_early_timestamp
p578
aVesp_log_early_timestamp
p579
atp580
a(L60599615L
L0L
(lp581
(lp582
tp583
a(L2509258321L
L1880226080L
(lp584
(lp585
Vbootloader_munmap
p586
aVesp_log_early_timestamp
p587
atp588
a(L4226553678L
L0L
(lp589
(lp590
tp591
a(L3028464L
L0L
(lp592
(lp593
tp594
a(L106L
L0L
(lp595
(lp596
tp597
a(L307915808L
L0L
(lp598
(lp599
tp600
a(L3021439948L
L3785322319L
(lp601
(lp602
Vesp_log_early_timestamp
p603
atp604
a(L3990577774L
L0L
(lp605
(lp606
tp607
a(L3020187L
L0L
(lp608
(lp609
tp610
a(L2559753343L
L0L
(lp611
(lp612
tp613
a(L1154512743L
L0L
(lp614
(lp615
tp616
a(L1380578767L
L0L
(lp617
(lp618
tp619
a(L1308290804L
L0L
(lp620
(lp621
tp622
a(L3477770624L
L0L
(lp623
(lp624
tp625
a(L106L
L0L
(lp626
(lp627
tp628
a(L93674324L
L0L
(lp629
(lp630
tp631
a(L2902417580L
L0L
(lp632
(lp633
tp634
a(L1245794467L
L0L
(lp635
(lp636
tp637
a(L106L
L0L
(lp638
(lp639
tp640
a(L955455903L
L0L
(lp641
(lp642
tp643
a(L1217165316L
L0L
(lp644
(lp645
tp646
a(L106L
L0L
(lp647
(lp648
tp649
a(L1256876719L
L0L
(lp650
(lp651
tp652
a(L106L
L0L
(lp653
(lp654
tp655
a(L106L
L0L
(lp656
(lp657
tp658
a(L2752742501L
L0L
(lp659
(lp660
tp661
atp662
sI1074240292
(Vbootloader_debug_buffer
p663
(lp664
(L2100504542L
L0L
(lp665
(lp666
tp667
atp668
sI1074248740
(Vrtc_clk_cal_ratio
p669
(lp670
(L9826881L
L3785322319L
(lp671
(lp672
Vrtc_clk_cal_internal
p673
atp674
atp675
sI1074240300
(Vbootloader_sha256_start
p676
(lp677
(L4134328955L
L0L
(lp678
(lp679
tp680
atp681
sI1074243628
(Vesp_rom_spiflash_erase_sector
p682
(lp683
(L53722206L
L0L
(lp684
(lp685
tp686
a(L2258688483L
L0L
(lp687
(lp688
tp689
a(L3360570486L
L0L
(lp690
(lp691
tp692
a(L3212356251L
L3785322319L
(lp693
(lp694
Vesp_rom_spiflash_enable_write
p695
atp696
a(L184152988L
L0L
(lp697
(lp698
tp699
a(L576897767L
L3785322319L
(lp700
(lp701
Vesp_rom_spiflash_wait_idle
p702
atp703
a(L3333707777L
L0L
(lp704
(lp705
tp706
a(L3582858798L
L3785322319L
(lp707
(lp708
Vesp_rom_spiflash_wait_idle
p709
atp710
atp711
sI1074246956
(Vrtc_clk_8md256_enabled
p712
(lp713
(L4031522673L
L0L
(lp714
(lp715
tp716
atp717
sI1074269476
(Vbootloader_check_bootloader_validity
p718
(lp719
(L102421281L
L1832448559L
(lp720
(lp721
Vefuse_hal_chip_revision
p722
aVesp_log_early_timestamp
p723
aVbootloader_common_check_chip_validity
p724
atp725
atp726
sI1074239016
(Vlog_invalid_app_partition
p727
(lp728
(L4293078423L
L0L
(lp729
(lp730
tp731
a(L3028464L
L0L
(lp732
(lp733
tp734
a(L60127667L
L3785322319L
(lp735
(lp736
Vesp_log_early_timestamp
p737
atp738
a(L44113432L
L0L
(lp739
(lp740
tp741
a(L3360570486L
L0L
(lp742
(lp743
tp744
a(L1770519575L
L3785322319L
(lp745
(lp746
Vesp_log_early_timestamp
p747
atp748
a(L2524670070L
L3785322319L
(lp749
(lp750
Vesp_log_early_timestamp
p751
atp752
atp753
sI1074243380
(Vesp_rom_spiflash_enable_write
p754
(lp755
(L3479651233L
L3785322319L
(lp756
(lp757
Vesp_rom_spiflash_wait_idle
p758
atp759
a(L3137194272L
L0L
(lp760
(lp761
tp762
a(L2258718275L
L0L
(lp763
(lp764
tp765
a(L99543895L
L0L
(lp766
(lp767
tp768
a(L2993202392L
L0L
(lp769
(lp770
tp771
a(L1804543818L
L3785322319L
(lp772
(lp773
Vesp_rom_spiflash_read_status
p774
atp775
atp776
sI1074235696
(Vbootloader_flash_xmc_startup
p777
(lp778
(L4031258446L
L3785322319L
(lp779
(lp780
Vis_xmc_chip_strict
p781
atp782
a(L2258688482L
L0L
(lp783
(lp784
tp785
a(L3360570486L
L0L
(lp786
(lp787
tp788
a(L2860324232L
L3785322319L
(lp789
(lp790
Vbootloader_flash_read_sfdp
p791
atp792
a(L3354428414L
L2567856111L
(lp793
(lp794
Vesp_log_early_timestamp
p795
aVbootloader_execute_flash_command
p796
aVbootloader_execute_flash_command
p797
aVbootloader_execute_flash_command
p798
aVbootloader_execute_flash_command
p799
aVbootloader_read_flash_id
p800
aVis_xmc_chip_strict
p801
atp802
a(L3332645139L
L3785322319L
(lp803
(lp804
Vesp_log_early_timestamp
p805
atp806
atp807
sI1074268720
(Vbootloader_clock_configure
p808
(lp809
(L1154001737L
L1880226080L
(lp810
(lp811
Vesp_rom_uart_tx_wait_idle
p812
aVefuse_hal_chip_revision
p813
atp814
a(L64782481L
L0L
(lp815
(lp816
tp817
a(L4269427661L
L3785322319L
(lp818
(lp819
Vrtc_clk_apb_freq_get
p820
atp821
a(L106L
L0L
(lp822
(lp823
tp824
a(L1176490254L
L1832448559L
(lp825
(lp826
Vrtc_clk_slow_freq_get
p827
aVrtc_clk_fast_freq_get
p828
aVrtc_clk_init
p829
atp830
a(L3287840219L
L3785322319L
(lp831
(lp832
Vrtc_clk_32k_enabled
p833
atp834
a(L4283346264L
L3785322319L
(lp835
(lp836
Vrtc_clk_32k_bootstrap
p837
atp838
a(L2699751837L
L0L
(lp839
(lp840
tp841
a(L3864816466L
L0L
(lp842
(lp843
tp844
a(L106L
L0L
(lp845
(lp846
tp847
a(L106L
L0L
(lp848
(lp849
tp850
atp851
sI1074235964
(Vbootloader_flash_gpio_config
p852
(lp853
(L719792650L
L3785322319L
(lp854
(lp855
Vbootloader_common_get_chip_ver_pkg
p856
atp857
a(L106L
L0L
(lp858
(lp859
tp860
a(L2886083034L
L0L
(lp861
(lp862
tp863
a(L106L
L0L
(lp864
(lp865
tp866
a(L4213870169L
L0L
(lp867
(lp868
tp869
a(L3890032189L
L0L
(lp870
(lp871
tp872
a(L106L
L0L
(lp873
(lp874
tp875
a(L676119430L
L0L
(lp876
(lp877
tp878
a(L4272081986L
L0L
(lp879
(lp880
tp881
a(L3360570486L
L0L
(lp882
(lp883
tp884
atp885
sI1074245692
(Vwdt_hal_enable
p886
(lp887
(L4029830118L
L0L
(lp888
(lp889
tp890
a(L3634439744L
L0L
(lp891
(lp892
tp893
a(L3360570486L
L0L
(lp894
(lp895
tp896
a(L2011576586L
L0L
(lp897
(lp898
tp899
atp900
sI1074237752
(Vbootloader_flash_read
p901
(lp902
(L2699333355L
L0L
(lp903
(lp904
tp905
a(L1175362320L
L3785322319L
(lp906
(lp907
Vesp_log_early_timestamp
p908
atp909
a(L44113432L
L0L
(lp910
(lp911
tp912
a(L1299867982L
L0L
(lp913
(lp914
tp915
a(L3360570486L
L0L
(lp916
(lp917
tp918
a(L2660352519L
L0L
(lp919
(lp920
tp921
a(L521140592L
L3785322319L
(lp922
(lp923
Vesp_log_early_timestamp
p924
atp925
a(L162336582L
L0L
(lp926
(lp927
tp928
a(L1181808077L
L3785322319L
(lp929
(lp930
Vesp_log_early_timestamp
p931
atp932
a(L3020204L
L0L
(lp933
(lp934
tp935
a(L1398573769L
L0L
(lp936
(lp937
tp938
a(L97422L
L0L
(lp939
(lp940
tp941
a(L3753789769L
L0L
(lp942
(lp943
tp944
a(L3653028369L
L0L
(lp945
(lp946
tp947
a(L4242981970L
L3785322319L
(lp948
(lp949
Vesp_log_early_timestamp
p950
atp951
a(L4138677549L
L0L
(lp952
(lp953
tp954
a(L753544199L
L0L
(lp955
(lp956
tp957
a(L3408640340L
L1880226080L
(lp958
(lp959
Vesp_rom_spiflash_read
p960
aVspi_to_esp_err
p961
atp962
atp963
sI1074237496
(Vspi_to_esp_err
p964
(lp965
(L2933521939L
L0L
(lp966
(lp967
tp968
a(L366093042L
L0L
(lp969
(lp970
tp971
a(L3549545911L
L0L
(lp972
(lp973
tp974
a(L3126521138L
L0L
(lp975
(lp976
tp977
atp978
sI1074247992
(Vrtc_clk_cpu_freq_set_config
p979
(lp980
(L803247388L
L3785322319L
(lp981
(lp982
Vrtc_clk_xtal_freq_get
p983
atp984
a(L1828795533L
L1880226080L
(lp985
(lp986
Vrtc_clk_cpu_freq_to_xtal
p987
aVrtc_clk_wait_for_slow_cycle
p988
atp989
a(L94425498L
L3785322319L
(lp990
(lp991
Vrtc_clk_bbpll_disable
p992
atp993
a(L3978916712L
L0L
(lp994
(lp995
tp996
a(L2977209154L
L0L
(lp997
(lp998
tp999
a(L2736411858L
L3785322319L
(lp1000
(lp1001
Vrtc_clk_cpu_freq_to_xtal
p1002
atp1003
a(L3360570486L
L0L
(lp1004
(lp1005
tp1006
a(L3020187L
L0L
(lp1007
(lp1008
tp1009
a(L106L
L0L
(lp1010
(lp1011
tp1012
a(L2987770274L
L2485746240L
(lp1013
(lp1014
Vrtc_clk_wait_for_slow_cycle
p1015
aVrtc_clk_xtal_freq_get
p1016
aVrtc_clk_bbpll_configure
p1017
aVrtc_clk_cpu_freq_to_pll_mhz
p1018
atp1019
a(L3020187L
L0L
(lp1020
(lp1021
tp1022
a(L106L
L0L
(lp1023
(lp1024
tp1025
a(L2311807227L
L0L
(lp1026
(lp1027
tp1028
atp1029
sI1074245956
(Vrtc_clk_cpu_freq_to_pll_mhz
p1030
(lp1031
(L428013989L
L0L
(lp1032
(lp1033
tp1034
a(L106L
L0L
(lp1035
(lp1036
tp1037
a(L1541997046L
L0L
(lp1038
(lp1039
tp1040
a(L106L
L0L
(lp1041
(lp1042
tp1043
a(L1546614651L
L0L
(lp1044
(lp1045
tp1046
a(L2907368881L
L0L
(lp1047
(lp1048
tp1049
a(L634075739L
L3785322319L
(lp1050
(lp1051
Vrtc_clk_wait_for_slow_cycle
p1052
atp1053
a(L2087566375L
L1880226080L
(lp1054
(lp1055
Vesp_log_early_timestamp
p1056
aVabort
p1057
atp1058
a(L1183020347L
L0L
(lp1059
(lp1060
tp1061
a(L1305407562L
L0L
(lp1062
(lp1063
tp1064
a(L1306330990L
L0L
(lp1065
(lp1066
tp1067
atp1068
sI1074246980
(Vrtc_clk_slow_freq_set
p1069
(lp1070
(L3675706944L
L0L
(lp1071
(lp1072
tp1073
atp1074
sI1074248772
(Vrtc_clk_wait_for_slow_cycle
p1075
(lp1076
(L3318102664L
L0L
(lp1077
(lp1078
tp1079
a(L287687718L
L0L
(lp1080
(lp1081
tp1082
a(L3360570486L
L0L
(lp1083
(lp1084
tp1085
a(L3986273454L
L0L
(lp1086
(lp1087
tp1088
a(L2994547433L
L0L
(lp1089
(lp1090
tp1091
a(L2947550753L
L0L
(lp1092
(lp1093
tp1094
a(L2289202355L
L3785322319L
(lp1095
(lp1096
Vesp_log_early_timestamp
p1097
atp1098
atp1099
sI1074240320
(Vbootloader_sha256_data
p1100
(lp1101
(L4066096136L
L0L
(lp1102
(lp1103
tp1104
a(L1563173327L
L0L
(lp1105
(lp1106
tp1107
a(L2504541789L
L3785322319L
(lp1108
(lp1109
V__assert_func
p1110
atp1111
a(L498498478L
L0L
(lp1112
(lp1113
tp1114
a(L4268756642L
L0L
(lp1115
(lp1116
tp1117
a(L2910371777L
L0L
(lp1118
(lp1119
tp1120
a(L3360570486L
L0L
(lp1121
(lp1122
tp1123
a(L301121101L
L0L
(lp1124
(lp1125
tp1126
a(L841847518L
L0L
(lp1127
(lp1128
tp1129
a(L1586729644L
L0L
(lp1130
(lp1131
tp1132
a(L2700619295L
L0L
(lp1133
(lp1134
tp1135
a(L1175956750L
L0L
(lp1136
(lp1137
tp1138
a(L1390602840L
L0L
(lp1139
(lp1140
tp1141
a(L3028464L
L0L
(lp1142
(lp1143
tp1144
a(L717127773L
L0L
(lp1145
(lp1146
tp1147
a(L784960019L
L0L
(lp1148
(lp1149
tp1150
atp1151
sI1074270016
(Vrtc_clk_init
p1152
(lp1153
(L2534402215L
L0L
(lp1154
(lp1155
tp1156
a(L42671777L
L3785322319L
(lp1157
(lp1158
Vrtc_clk_cpu_freq_to_xtal
p1159
atp1160
a(L4105339554L
L0L
(lp1161
(lp1162
tp1163
a(L4184912069L
L0L
(lp1164
(lp1165
tp1166
a(L2873281153L
L0L
(lp1167
(lp1168
tp1169
a(L912414356L
L3785322319L
(lp1170
(lp1171
Vrtc_clk_xtal_freq_get
p1172
atp1173
a(L3347889620L
L1157885199L
(lp1174
(lp1175
Vesp_rom_uart_tx_wait_idle
p1176
aVrtc_clk_xtal_freq_update
p1177
aVrtc_clk_apb_freq_update
p1178
aVrtc_clk_cpu_freq_get_config
p1179
aVrtc_clk_cpu_freq_mhz_to_config
p1180
atp1181
a(L1611285616L
L1880226080L
(lp1182
(lp1183
Vesp_log_early_timestamp
p1184
aVabort
p1185
atp1186
a(L4187693717L
L3785322319L
(lp1187
(lp1188
Vrtc_clk_xtal_freq_estimate
p1189
atp1190
a(L3084363412L
L3785322319L
(lp1191
(lp1192
Vesp_log_early_timestamp
p1193
atp1194
a(L4188325301L
L0L
(lp1195
(lp1196
tp1197
a(L1563923531L
L0L
(lp1198
(lp1199
tp1200
a(L106L
L0L
(lp1201
(lp1202
tp1203
a(L4070631878L
L3785322319L
(lp1204
(lp1205
Vrtc_clk_xtal_freq_estimate
p1206
atp1207
a(L106L
L0L
(lp1208
(lp1209
tp1210
a(L2815814923L
L3785322319L
(lp1211
(lp1212
Vesp_log_early_timestamp
p1213
atp1214
a(L4051433479L
L3785322319L
(lp1215
(lp1216
Vrtc_clk_cpu_freq_set_config
p1217
atp1218
a(L4168829660L
L3785322319L
(lp1219
(lp1220
Vrtc_clk_32k_enable
p1221
atp1222
a(L3016870L
L0L
(lp1223
(lp1224
tp1225
a(L550259334L
L3785322319L
(lp1226
(lp1227
Vrtc_clk_8m_enable
p1228
atp1229
a(L530469956L
L1880226080L
(lp1230
(lp1231
Vrtc_clk_fast_freq_set
p1232
aVrtc_clk_slow_freq_set
p1233
atp1234
atp1235
sI1074269764
(Vbootloader_console_init
p1236
(lp1237
(L1732948438L
L1832448559L
(lp1238
(lp1239
Vesp_rom_uart_tx_wait_idle
p1240
aVrtc_clk_apb_freq_get
p1241
aVesp_rom_uart_set_clock_baudrate
p1242
atp1243
atp1244
sI1074238024
(Vbootloader_flash_erase_sector
p1245
(lp1246
(L4129137686L
L1880226080L
(lp1247
(lp1248
Vesp_rom_spiflash_erase_sector
p1249
aVspi_to_esp_err
p1250
atp1251
atp1252
sI1074248272
(Vrtc_clk_apb_freq_get
p1253
(lp1254
(L3391388223L
L0L
(lp1255
(lp1256
tp1257
atp1258
sI1074238044
(Vbootloader_flash_write
p1259
(lp1260
(L3119145091L
L0L
(lp1261
(lp1262
tp1263
a(L962229776L
L3785322319L
(lp1264
(lp1265
Vesp_log_early_timestamp
p1266
atp1267
a(L44113432L
L0L
(lp1268
(lp1269
tp1270
a(L1610445075L
L0L
(lp1271
(lp1272
tp1273
a(L735741265L
L0L
(lp1274
(lp1275
tp1276
a(L3291333414L
L0L
(lp1277
(lp1278
tp1279
a(L2835528492L
L3785322319L
(lp1280
(lp1281
Vesp_log_early_timestamp
p1282
atp1283
a(L3283691850L
L0L
(lp1284
(lp1285
tp1286
a(L3823398198L
L3785322319L
(lp1287
(lp1288
Vesp_log_early_timestamp
p1289
atp1290
a(L3212356251L
L3785322319L
(lp1291
(lp1292
Vbootloader_flash_unlock
p1293
atp1294
a(L1799218633L
L0L
(lp1295
(lp1296
tp1297
a(L94425498L
L3785322319L
(lp1298
(lp1299
Vesp_rom_spiflash_write_encrypted
p1300
atp1301
a(L2927190544L
L3785322319L
(lp1302
(lp1303
Vspi_to_esp_err
p1304
atp1305
a(L2927190544L
L3785322319L
(lp1306
(lp1307
Vesp_rom_spiflash_write
p1308
atp1309
atp1310
sI1074243932
(Vesp_rom_spiflash_write_encrypted
p1311
(lp1312
(L2107077087L
L0L
(lp1313
(lp1314
tp1315
a(L4029827543L
L0L
(lp1316
(lp1317
tp1318
a(L97689L
L0L
(lp1319
(lp1320
tp1321
a(L3061232074L
L0L
(lp1322
(lp1323
tp1324
a(L185323185L
L0L
(lp1325
(lp1326
tp1327
a(L2903314395L
L3785322319L
(lp1328
(lp1329
Vesp_rom_spiflash_write
p1330
atp1331
a(L718992931L
L0L
(lp1332
(lp1333
tp1334
a(L735741265L
L0L
(lp1335
(lp1336
tp1337
atp1338
sI1074246236
(Vrtc_clk_32k_enable
p1339
(lp1340
(L753387299L
L0L
(lp1341
(lp1342
tp1343
a(L1067050752L
L3785322319L
(lp1344
(lp1345
Vrtc_clk_32k_enable_common
p1346
atp1347
a(L3360570486L
L0L
(lp1348
(lp1349
tp1350
a(L2431186214L
L0L
(lp1351
(lp1352
tp1353
atp1354
sI1074237528
(Vbootloader_mmap
p1355
(lp1356
(L2059700562L
L0L
(lp1357
(lp1358
tp1359
a(L3017932071L
L3785322319L
(lp1360
(lp1361
Vesp_log_early_timestamp
p1362
atp1363
a(L1182811810L
L0L
(lp1364
(lp1365
tp1366
a(L3496950L
L0L
(lp1367
(lp1368
tp1369
a(L1630759581L
L0L
(lp1370
(lp1371
tp1372
a(L3536022130L
L3785322319L
(lp1373
(lp1374
Vesp_log_early_timestamp
p1375
atp1376
a(L1503832912L
L0L
(lp1377
(lp1378
tp1379
a(L2005677777L
L3785322319L
(lp1380
(lp1381
Vesp_log_early_timestamp
p1382
atp1383
a(L1090567542L
L0L
(lp1384
(lp1385
tp1386
atp1387
sI1074237016
(Vesp_log_early_timestamp
p1388
(lp1389
(L3622092107L
L0L
(lp1390
(lp1391
tp1392
atp1393
sI1074267752
(Vcall_start_cpu0
p1394
(lp1395
(L1137852827L
L0L
(lp1396
(lp1397
tp1398
a(L549459388L
L0L
(lp1399
(lp1400
tp1401
a(L3212347974L
L3785322319L
(lp1402
(lp1403
Vbootloader_init
p1404
atp1405
a(L94425498L
L3785322319L
(lp1406
(lp1407
Vbootloader_reset
p1408
atp1409
a(L1122046408L
L0L
(lp1410
(lp1411
tp1412
a(L4099474112L
L0L
(lp1413
(lp1414
tp1415
a(L3015046664L
L3785322319L
(lp1416
(lp1417
Vbootloader_utility_load_partition_table
p1418
atp1419
a(L2761094216L
L3785322319L
(lp1420
(lp1421
Vesp_log_early_timestamp
p1422
atp1423
a(L736289835L
L3785322319L
(lp1424
(lp1425
Vbootloader_utility_get_selected_boot_partition
p1426
atp1427
a(L3548846595L
L1880226080L
(lp1428
(lp1429
Vbootloader_common_get_reset_reason
p1430
aVbootloader_utility_load_boot_image
p1431
atp1432
atp1433
sI1074241636
(Vshould_load
p1434
(lp1435
(L2695571604L
L0L
(lp1436
(lp1437
tp1438
a(L1182990556L
L0L
(lp1439
(lp1440
tp1441
a(L1780902349L
L0L
(lp1442
(lp1443
tp1444
a(L1298905564L
L0L
(lp1445
(lp1446
tp1447
a(L524505062L
L0L
(lp1448
(lp1449
tp1450
a(L2258897019L
L0L
(lp1451
(lp1452
tp1453
a(L3781799363L
L0L
(lp1454
(lp1455
tp1456
a(L3028464L
L0L
(lp1457
(lp1458
tp1459
a(L1441752948L
L0L
(lp1460
(lp1461
tp1462
a(L1311491770L
L0L
(lp1463
(lp1464
tp1465
a(L1906996968L
L0L
(lp1466
(lp1467
tp1468
a(L4185756579L
L0L
(lp1469
(lp1470
tp1471
a(L3458855836L
L0L
(lp1472
(lp1473
tp1474
a(L3126521138L
L0L
(lp1475
(lp1476
tp1477
a(L1305407438L
L0L
(lp1478
(lp1479
tp1480
a(L1305407469L
L0L
(lp1481
(lp1482
tp1483
atp1484
sI1074269548
(Vbootloader_config_wdt
p1485
(lp1486
(L426984287L
L505859776L
(lp1487
(lp1488
Vwdt_hal_write_protect_disable
p1489
aVwdt_hal_set_flashboot_en
p1490
aVwdt_hal_write_protect_enable
p1491
aVwdt_hal_init
p1492
aVrtc_clk_slow_freq_get_hz
p1493
aVwdt_hal_write_protect_disable
p1494
aVwdt_hal_config_stage
p1495
aVwdt_hal_enable
p1496
aVwdt_hal_write_protect_enable
p1497
aVwdt_hal_write_protect_disable
p1498
aVwdt_hal_set_flashboot_en
p1499
aVwdt_hal_write_protect_enable
p1500
atp1501
atp1502
sI1074241120
(Vbootloader_util_regions_overlap
p1503
(lp1504
(L2762640130L
L0L
(lp1505
(lp1506
tp1507
a(L486238211L
L0L
(lp1508
(lp1509
tp1510
a(L3823861319L
L3785322319L
(lp1511
(lp1512
V__assert_func
p1513
atp1514
a(L97642L
L0L
(lp1515
(lp1516
tp1517
a(L2752402003L
L0L
(lp1518
(lp1519
tp1520
a(L366123053L
L0L
(lp1521
(lp1522
tp1523
a(L2258867228L
L0L
(lp1524
(lp1525
tp1526
a(L1253626734L
L0L
(lp1527
(lp1528
tp1529
a(L2258897019L
L0L
(lp1530
(lp1531
tp1532
a(L3109269495L
L0L
(lp1533
(lp1534
tp1535
atp1536
sI1074238304
(Vbootloader_random_disable
p1537
(lp1538
(L2124996308L
L0L
(lp1539
(lp1540
tp1541
atp1542
sI1074269796
(Vesp_cpu_configure_region_protection
p1543
(lp1544
(L3263616706L
L0L
(lp1545
(lp1546
tp1547
a(L180431425L
L3785322319L
(lp1548
(lp1549
Vmpu_hal_set_region_access
p1550
atp1551
a(L2537388152L
L3785322319L
(lp1552
(lp1553
Vmpu_hal_set_region_access
p1554
atp1555
atp1556
sI1074236784
(Vefuse_hal_chip_revision
p1557
(lp1558
(L1761205471L
L1880226080L
(lp1559
(lp1560
Vefuse_hal_get_major_chip_version
p1561
aVefuse_hal_get_minor_chip_version
p1562
atp1563
atp1564
sI1074243440
(Vesp_rom_spiflash_program_page_internal
p1565
(lp1566
(L2569069283L
L0L
(lp1567
(lp1568
tp1569
a(L2258688483L
L0L
(lp1570
(lp1571
tp1572
a(L3360570486L
L0L
(lp1573
(lp1574
tp1575
a(L2861094573L
L0L
(lp1576
(lp1577
tp1578
a(L4235661475L
L3785322319L
(lp1579
(lp1580
Vesp_rom_spiflash_wait_idle
p1581
atp1582
a(L1299866312L
L0L
(lp1583
(lp1584
tp1585
a(L3212356251L
L3785322319L
(lp1586
(lp1587
Vesp_rom_spiflash_enable_write
p1588
atp1589
a(L3223836395L
L0L
(lp1590
(lp1591
tp1592
a(L3387680508L
L0L
(lp1593
(lp1594
tp1595
a(L2953702749L
L0L
(lp1596
(lp1597
tp1598
a(L2989032L
L0L
(lp1599
(lp1600
tp1601
a(L1965622133L
L0L
(lp1602
(lp1603
tp1604
a(L4108355541L
L0L
(lp1605
(lp1606
tp1607
a(L1958113242L
L0L
(lp1608
(lp1609
tp1610
a(L106L
L0L
(lp1611
(lp1612
tp1613
a(L4283177684L
L0L
(lp1614
(lp1615
tp1616
a(L1405253496L
L0L
(lp1617
(lp1618
tp1619
a(L1008982323L
L0L
(lp1620
(lp1621
tp1622
a(L1933954923L
L0L
(lp1623
(lp1624
tp1625
a(L3886319556L
L0L
(lp1626
(lp1627
tp1628
a(L2767679583L
L0L
(lp1629
(lp1630
tp1631
atp1632
sI1074247548
(Vrtc_clk_xtal_freq_get
p1633
(lp1634
(L2150687998L
L0L
(lp1635
(lp1636
tp1637
a(L2847936993L
L0L
(lp1638
(lp1639
tp1640
a(L3793956448L
L0L
(lp1641
(lp1642
tp1643
a(L3360570486L
L0L
(lp1644
(lp1645
tp1646
atp1647
sI1074239100
(Vset_actual_ota_seq
p1648
(lp1649
(L2590207476L
L1832448559L
(lp1650
(lp1651
Vbootloader_common_ota_select_crc
p1652
aVefuse_hal_flash_encryption_enabled
p1653
aVbootloader_flash_erase_sector
p1654
atp1655
a(L3292941333L
L3785322319L
(lp1656
(lp1657
Vbootloader_flash_write
p1658
atp1659
a(L3725205052L
L3785322319L
(lp1660
(lp1661
Vesp_log_early_timestamp
p1662
atp1663
a(L3876573963L
L3785322319L
(lp1664
(lp1665
Vesp_log_early_timestamp
p1666
atp1667
atp1668
sI1074247804
(Vrtc_clk_xtal_freq_update
p1669
(lp1670
(L3826816278L
L0L
(lp1671
(lp1672
tp1673
a(L3509357017L
L0L
(lp1674
(lp1675
tp1676
a(L3020103887L
L0L
(lp1677
(lp1678
tp1679
atp1680
sI1074248316
(Vrtc_clk_cal_internal
p1681
(lp1682
(L2853387751L
L0L
(lp1683
(lp1684
tp1685
a(L4266917149L
L3785322319L
(lp1686
(lp1687
V__assert_func
p1688
atp1689
a(L2425749881L
L0L
(lp1690
(lp1691
tp1692
a(L3017366L
L0L
(lp1693
(lp1694
tp1695
a(L2781091364L
L0L
(lp1696
(lp1697
tp1698
a(L4169864463L
L1880226080L
(lp1699
(lp1700
Vrtc_clk_8m_enabled
p1701
aVrtc_clk_8md256_enabled
p1702
atp1703
a(L1743660703L
L3785322319L
(lp1704
(lp1705
Vrtc_clk_8m_enable
p1706
atp1707
a(L426013779L
L0L
(lp1708
(lp1709
tp1710
a(L3502850147L
L0L
(lp1711
(lp1712
tp1713
a(L97689L
L0L
(lp1714
(lp1715
tp1716
a(L2545182426L
L0L
(lp1717
(lp1718
tp1719
a(L3028464L
L0L
(lp1720
(lp1721
tp1722
a(L3028481L
L0L
(lp1723
(lp1724
tp1725
a(L3450259604L
L0L
(lp1726
(lp1727
tp1728
a(L4017210580L
L3785322319L
(lp1729
(lp1730
Vrtc_clk_xtal_freq_get
p1731
atp1732
a(L2780079961L
L0L
(lp1733
(lp1734
tp1735
a(L4100051749L
L0L
(lp1736
(lp1737
tp1738
a(L4026235998L
L3785322319L
(lp1739
(lp1740
Vesp_log_early_timestamp
p1741
atp1742
a(L3360570486L
L0L
(lp1743
(lp1744
tp1745
a(L751506929L
L0L
(lp1746
(lp1747
tp1748
a(L748565485L
L0L
(lp1749
(lp1750
tp1751
a(L3028481L
L0L
(lp1752
(lp1753
tp1754
a(L2520223585L
L0L
(lp1755
(lp1756
tp1757
a(L755155573L
L3785322319L
(lp1758
(lp1759
Vrtc_clk_8m_enable
p1760
atp1761
a(L3631005548L
L0L
(lp1762
(lp1763
tp1764
a(L3422718464L
L0L
(lp1765
(lp1766
tp1767
a(L3352263364L
L0L
(lp1768
(lp1769
tp1770
atp1771
sI1074237048
(Vbootloader_common_ota_select_crc
p1772
(lp1773
(L943698951L
L0L
(lp1774
(lp1775
tp1776
atp1777
sI1074242936
(Vbootloader_load_image
p1778
(lp1779
(L1155870502L
L3785322319L
(lp1780
(lp1781
Vimage_load
p1782
atp1783
atp1784
sI1074245764
(Vwdt_hal_set_flashboot_en
p1785
(lp1786
(L2375320464L
L0L
(lp1787
(lp1788
tp1789
a(L2716561907L
L0L
(lp1790
(lp1791
tp1792
a(L3360570486L
L0L
(lp1793
(lp1794
tp1795
a(L558019092L
L0L
(lp1796
(lp1797
tp1798
atp1799
sI1074246788
(Vrtc_clk_32k_enabled
p1800
(lp1801
(L2671776460L
L0L
(lp1802
(lp1803
tp1804
atp1805
sI1074237068
(Vbootloader_common_ota_select_valid
p1806
(lp1807
(L1563399710L
L3785322319L
(lp1808
(lp1809
Vbootloader_common_ota_select_invalid
p1810
atp1811
a(L3814720849L
L3785322319L
(lp1812
(lp1813
Vbootloader_common_ota_select_crc
p1814
atp1815
a(L3360570486L
L0L
(lp1816
(lp1817
tp1818
atp1819
sI1074235276
(Vbootloader_execute_flash_command
p1820
(lp1821
(L2481595632L
L3785322319L
(lp1822
(lp1823
Vbootloader_flash_execute_command_common
p1824
atp1825
atp1826
sI1074242952
(Vesp_partition_table_verify
p1827
(lp1828
(L1518656766L
L0L
(lp1829
(lp1830
tp1831
a(L3068845803L
L0L
(lp1832
(lp1833
tp1834
a(L4287435191L
L0L
(lp1835
(lp1836
tp1837
a(L2910371777L
L0L
(lp1838
(lp1839
tp1840
a(L2810785767L
L0L
(lp1841
(lp1842
tp1843
a(L3360570486L
L0L
(lp1844
(lp1845
tp1846
a(L2334946637L
L0L
(lp1847
(lp1848
tp1849
a(L2478753082L
L0L
(lp1850
(lp1851
tp1852
a(L3020204L
L0L
(lp1853
(lp1854
tp1855
a(L2605244389L
L3785322319L
(lp1856
(lp1857
Vesp_log_early_timestamp
p1858
atp1859
a(L2415344191L
L3785322319L
(lp1860
(lp1861
Vesp_log_early_timestamp
p1862
atp1863
a(L3435281203L
L0L
(lp1864
(lp1865
tp1866
a(L2902417580L
L0L
(lp1867
(lp1868
tp1869
a(L3020204L
L0L
(lp1870
(lp1871
tp1872
a(L3132082162L
L3785322319L
(lp1873
(lp1874
Vesp_log_early_timestamp
p1875
atp1876
a(L1367516498L
L0L
(lp1877
(lp1878
tp1879
a(L2548687357L
L0L
(lp1880
(lp1881
tp1882
a(L2902417580L
L0L
(lp1883
(lp1884
tp1885
a(L2605266740L
L3785322319L
(lp1886
(lp1887
Vesp_log_early_timestamp
p1888
atp1889
a(L1613213999L
L0L
(lp1890
(lp1891
tp1892
a(L1167861556L
L0L
(lp1893
(lp1894
tp1895
a(L3260980605L
L0L
(lp1896
(lp1897
tp1898
a(L2910371777L
L0L
(lp1899
(lp1900
tp1901
a(L1235012932L
L0L
(lp1902
(lp1903
tp1904
a(L4031225708L
L3785322319L
(lp1905
(lp1906
Vesp_log_early_timestamp
p1907
atp1908
atp1909
sI1074247048
(Vrtc_clk_slow_freq_get
p1910
(lp1911
(L753025842L
L0L
(lp1912
(lp1913
tp1914
atp1915
sI1074246804
(Vrtc_clk_8m_enable
p1916
(lp1917
(L1895618326L
L0L
(lp1918
(lp1919
tp1920
a(L3156399264L
L0L
(lp1921
(lp1922
tp1923
a(L2151320156L
L0L
(lp1924
(lp1925
tp1926
a(L1391734358L
L0L
(lp1927
(lp1928
tp1929
a(L3360570486L
L0L
(lp1930
(lp1931
tp1932
a(L1318267208L
L0L
(lp1933
(lp1934
tp1935
a(L4173473329L
L0L
(lp1936
(lp1937
tp1938
atp1939
sI1074244756
(Vwdt_hal_init
p1940
(lp1941
(L660692310L
L0L
(lp1942
(lp1943
tp1944
a(L372829736L
L0L
(lp1945
(lp1946
tp1947
a(L2805933841L
L0L
(lp1948
(lp1949
tp1950
a(L1800055515L
L0L
(lp1951
(lp1952
tp1953
a(L1642742850L
L0L
(lp1954
(lp1955
tp1956
a(L3360570486L
L0L
(lp1957
(lp1958
tp1959
a(L4288677124L
L0L
(lp1960
(lp1961
tp1962
atp1963
sI1074236816
(Vefuse_hal_flash_encryption_enabled
p1964
(lp1965
(L2780109918L
L0L
(lp1966
(lp1967
tp1968
a(L2910371777L
L0L
(lp1969
(lp1970
tp1971
a(L3360570486L
L0L
(lp1972
(lp1973
tp1974
a(L3016870L
L0L
(lp1975
(lp1976
tp1977
a(L3745038218L
L0L
(lp1978
(lp1979
tp1980
a(L957607403L
L0L
(lp1981
(lp1982
tp1983
atp1984
sI1074239632
(Vbootloader_utility_get_selected_boot_partition
p1985
(lp1986
(L2184143128L
L0L
(lp1987
(lp1988
tp1989
a(L3648837801L
L0L
(lp1990
(lp1991
tp1992
a(L3739057596L
L3785322319L
(lp1993
(lp1994
Vesp_log_early_timestamp
p1995
atp1996
a(L4026981588L
L0L
(lp1997
(lp1998
tp1999
a(L3360570486L
L0L
(lp2000
(lp2001
tp2002
a(L1375577398L
L3785322319L
(lp2003
(lp2004
Vbootloader_mmap
p2005
atp2006
a(L3668558090L
L3785322319L
(lp2007
(lp2008
Vesp_log_early_timestamp
p2009
atp2010
a(L3744659248L
L1880226080L
(lp2011
(lp2012
Vbootloader_munmap
p2013
aVbootloader_common_ota_select_invalid
p2014
atp2015
a(L1103573946L
L0L
(lp2016
(lp2017
tp2018
a(L1876835593L
L3785322319L
(lp2019
(lp2020
Vbootloader_common_get_active_otadata
p2021
atp2022
a(L106L
L0L
(lp2023
(lp2024
tp2025
a(L569346373L
L0L
(lp2026
(lp2027
tp2028
a(L788494392L
L3785322319L
(lp2029
(lp2030
Vbootloader_common_ota_select_invalid
p2031
atp2032
a(L2675958250L
L0L
(lp2033
(lp2034
tp2035
a(L4156538522L
L3785322319L
(lp2036
(lp2037
Vesp_log_early_timestamp
p2038
atp2039
a(L3946700466L
L3785322319L
(lp2040
(lp2041
Vesp_log_early_timestamp
p2042
atp2043
a(L505081345L
L0L
(lp2044
(lp2045
tp2046
a(L919052234L
L3785322319L
(lp2047
(lp2048
Vbootloader_common_ota_select_crc
p2049
atp2050
a(L2287680455L
L0L
(lp2051
(lp2052
tp2053
a(L3542558037L
L3785322319L
(lp2054
(lp2055
Vbootloader_common_ota_select_crc
p2056
atp2057
a(L1299866312L
L0L
(lp2058
(lp2059
tp2060
a(L3205436778L
L0L
(lp2061
(lp2062
tp2063
a(L3195943282L
L3785322319L
(lp2064
(lp2065
Vesp_log_early_timestamp
p2066
atp2067
a(L1367516498L
L0L
(lp2068
(lp2069
tp2070
a(L4142618861L
L3785322319L
(lp2071
(lp2072
Vesp_log_early_timestamp
p2073
atp2074
atp2075
sI1074238620
(Vbootloader_clock_get_rated_freq_mhz
p2076
(lp2077
(L376617603L
L3785322319L
(lp2078
(lp2079
Vefuse_hal_get_rated_freq_mhz
p2080
atp2081
atp2082
sI1074269844
(Vrtc_clk_xtal_freq_estimate
p2083
(lp2084
(L2516060585L
L1880226080L
(lp2085
(lp2086
Vrtc_clk_8m_enabled
p2087
aVrtc_clk_8md256_enabled
p2088
atp2089
a(L967485502L
L3785322319L
(lp2090
(lp2091
Vrtc_clk_8m_enable
p2092
atp2093
a(L80770077L
L3785322319L
(lp2094
(lp2095
Vrtc_clk_cal_ratio
p2096
atp2097
a(L93674324L
L0L
(lp2098
(lp2099
tp2100
a(L3910042627L
L0L
(lp2101
(lp2102
tp2103
a(L1299866334L
L0L
(lp2104
(lp2105
tp2106
a(L3360570486L
L0L
(lp2107
(lp2108
tp2109
a(L3936819466L
L0L
(lp2110
(lp2111
tp2112
a(L3982077265L
L0L
(lp2113
(lp2114
tp2115
a(L1641150486L
L0L
(lp2116
(lp2117
tp2118
a(L118857968L
L3785322319L
(lp2119
(lp2120
Vesp_log_early_timestamp
p2121
atp2122
a(L668377196L
L3785322319L
(lp2123
(lp2124
Vesp_log_early_timestamp
p2125
atp2126
a(L2710920394L
L3785322319L
(lp2127
(lp2128
Vesp_log_early_timestamp
p2129
atp2130
atp2131
sI1074241176
(Vverify_load_addresses
p2132
(lp2133
(L2763563698L
L0L
(lp2134
(lp2135
tp2136
a(L106L
L0L
(lp2137
(lp2138
tp2139
a(L97642L
L0L
(lp2140
(lp2141
tp2142
a(L2952239952L
L3785322319L
(lp2143
(lp2144
V__assert_func
p2145
atp2146
a(L1902503151L
L0L
(lp2147
(lp2148
tp2149
a(L106L
L0L
(lp2150
(lp2151
tp2152
a(L3433004918L
L0L
(lp2153
(lp2154
tp2155
a(L106L
L0L
(lp2156
(lp2157
tp2158
a(L2295851402L
L3785322319L
(lp2159
(lp2160
Vbootloader_util_regions_overlap
p2161
atp2162
a(L3129832310L
L3785322319L
(lp2163
(lp2164
Vbootloader_util_regions_overlap
p2165
atp2166
a(L3028481L
L0L
(lp2167
(lp2168
tp2169
a(L4008903006L
L3785322319L
(lp2170
(lp2171
Vbootloader_util_regions_overlap
p2172
atp2173
a(L810308952L
L0L
(lp2174
(lp2175
tp2176
a(L1770664004L
L0L
(lp2177
(lp2178
tp2179
a(L151109921L
L0L
(lp2180
(lp2181
tp2182
a(L2015090525L
L0L
(lp2183
(lp2184
tp2185
a(L642339957L
L0L
(lp2186
(lp2187
tp2188
a(L677569396L
L3785322319L
(lp2189
(lp2190
Vverify_load_addresses
p2191
atp2192
a(L1351513776L
L0L
(lp2193
(lp2194
tp2195
a(L1306803971L
L0L
(lp2196
(lp2197
tp2198
a(L3230279966L
L0L
(lp2199
(lp2200
tp2201
a(L3473449071L
L3785322319L
(lp2202
(lp2203
Vbootloader_util_regions_overlap
p2204
atp2205
a(L3028481L
L0L
(lp2206
(lp2207
tp2208
a(L3585917462L
L3785322319L
(lp2209
(lp2210
Vbootloader_util_regions_overlap
p2211
atp2212
a(L2743136312L
L0L
(lp2213
(lp2214
tp2215
a(L1693381962L
L0L
(lp2216
(lp2217
tp2218
a(L903501041L
L0L
(lp2219
(lp2220
tp2221
a(L1327490774L
L0L
(lp2222
(lp2223
tp2224
a(L307916970L
L0L
(lp2225
(lp2226
tp2227
a(L697239146L
L0L
(lp2228
(lp2229
tp2230
a(L106L
L0L
(lp2231
(lp2232
tp2233
a(L955484020L
L0L
(lp2234
(lp2235
tp2236
a(L307916753L
L0L
(lp2237
(lp2238
tp2239
a(L490080443L
L0L
(lp2240
(lp2241
tp2242
a(L106L
L0L
(lp2243
(lp2244
tp2245
a(L2209771054L
L3785322319L
(lp2246
(lp2247
Vesp_log_early_timestamp
p2248
atp2249
a(L955485353L
L0L
(lp2250
(lp2251
tp2252
a(L1303560427L
L0L
(lp2253
(lp2254
tp2255
atp2256
sI1074246296
(Vrtc_clk_32k_bootstrap
p2257
(lp2258
(L4123346161L
L0L
(lp2259
(lp2260
tp2261
a(L1101730277L
L0L
(lp2262
(lp2263
tp2264
a(L988886939L
L0L
(lp2265
(lp2266
tp2267
a(L2410235878L
L0L
(lp2268
(lp2269
tp2270
a(L2339554353L
L3785322319L
(lp2271
(lp2272
Vrtc_clk_32k_enable_common
p2273
atp2274
atp2275
sI1074247064
(Vrtc_clk_slow_freq_get_hz
p2276
(lp2277
(L1230843922L
L0L
(lp2278
(lp2279
tp2280
a(L3895628189L
L0L
(lp2281
(lp2282
tp2283
a(L2657576123L
L0L
(lp2284
(lp2285
tp2286
a(L3360570486L
L0L
(lp2287
(lp2288
tp2289
atp2290
sI1074270632
(Vrtc_vddsdio_set_config
p2291
(lp2292
(L1232305365L
L0L
(lp2293
(lp2294
tp2295
atp2296
sI1074236580
(Vbootloader_common_get_chip_ver_pkg
p2297
(lp2298
(L1176319107L
L0L
(lp2299
(lp2300
tp2301
atp2302
sI1074237348
(Vbootloader_common_get_active_otadata
p2303
(lp2304
(L3317503532L
L0L
(lp2305
(lp2306
tp2307
a(L2503049265L
L1832448559L
(lp2308
(lp2309
Vbootloader_common_ota_select_valid
p2310
aVbootloader_common_ota_select_valid
p2311
aVbootloader_common_select_otadata
p2312
atp2313
a(L735741265L
L0L
(lp2314
(lp2315
tp2316
atp2317
sI1074247588
(Vrtc_clk_cpu_freq_mhz_to_config
p2318
(lp2319
(L2601984125L
L3785322319L
(lp2320
(lp2321
Vrtc_clk_xtal_freq_get
p2322
atp2323
a(L2089656409L
L0L
(lp2324
(lp2325
tp2326
a(L3814337874L
L0L
(lp2327
(lp2328
tp2329
a(L3126521138L
L0L
(lp2330
(lp2331
tp2332
a(L2762074623L
L0L
(lp2333
(lp2334
tp2335
a(L1541996779L
L0L
(lp2336
(lp2337
tp2338
a(L2916936348L
L0L
(lp2339
(lp2340
tp2341
a(L1555485793L
L0L
(lp2342
(lp2343
tp2344
a(L2258897023L
L0L
(lp2345
(lp2346
tp2347
a(L1947499251L
L0L
(lp2348
(lp2349
tp2350
a(L1306331021L
L0L
(lp2351
(lp2352
tp2353
atp2354
sI1074240928
(Vprocess_image_header
p2355
(lp2356
(L634255103L
L3785322319L
(lp2357
(lp2358
Vbootloader_flash_read
p2359
atp2360
a(L3020204L
L0L
(lp2361
(lp2362
tp2363
a(L1583805461L
L0L
(lp2364
(lp2365
tp2366
a(L1727394037L
L0L
(lp2367
(lp2368
tp2369
a(L1161397362L
L3785322319L
(lp2370
(lp2371
Vbootloader_sha256_start
p2372
atp2373
a(L1948257695L
L3785322319L
(lp2374
(lp2375
Vbootloader_sha256_data
p2376
atp2377
a(L1095449651L
L0L
(lp2378
(lp2379
tp2380
a(L3020204L
L0L
(lp2381
(lp2382
tp2383
a(L702739623L
L0L
(lp2384
(lp2385
tp2386
a(L3360570486L
L0L
(lp2387
(lp2388
tp2389
a(L1740884593L
L3785322319L
(lp2390
(lp2391
Vesp_log_early_timestamp
p2392
atp2393
a(L3718883008L
L3785322319L
(lp2394
(lp2395
Vbootloader_common_check_chip_validity
p2396
atp2397
a(L3677035427L
L0L
(lp2398
(lp2399
tp2400
a(L3028481L
L0L
(lp2401
(lp2402
tp2403
a(L2166811440L
L3785322319L
(lp2404
(lp2405
Vesp_log_early_timestamp
p2406
atp2407
a(L2250109166L
L0L
(lp2408
(lp2409
tp2410
a(L1235012870L
L0L
(lp2411
(lp2412
tp2413
a(L3063569071L
L0L
(lp2414
(lp2415
tp2416
atp2417
sI1074235308
(Vbootloader_flash_unlock
p2418
(lp2419
(L142706334L
L3785322319L
(lp2420
(lp2421
Vesp_rom_spiflash_wait_idle
p2422
atp2423
a(L4024621237L
L0L
(lp2424
(lp2425
tp2426
a(L4292483033L
L3785322319L
(lp2427
(lp2428
Vbootloader_execute_flash_command
p2429
atp2430
a(L106L
L0L
(lp2431
(lp2432
tp2433
a(L1303560644L
L0L
(lp2434
(lp2435
tp2436
a(L1419965066L
L0L
(lp2437
(lp2438
tp2439
a(L106L
L0L
(lp2440
(lp2441
tp2442
a(L1633120054L
L0L
(lp2443
(lp2444
tp2445
a(L106L
L0L
(lp2446
(lp2447
tp2448
a(L2974484771L
L0L
(lp2449
(lp2450
tp2451
a(L106L
L0L
(lp2452
(lp2453
tp2454
a(L1481761147L
L1880226080L
(lp2455
(lp2456
Vbootloader_execute_flash_command
p2457
aVbootloader_execute_flash_command
p2458
atp2459
a(L2258807654L
L0L
(lp2460
(lp2461
tp2462
a(L489806350L
L1832448559L
(lp2463
(lp2464
Vesp_rom_spiflash_wait_idle
p2465
aVbootloader_execute_flash_command
p2466
aVbootloader_execute_flash_command
p2467
atp2468
a(L879744646L
L1832448559L
(lp2469
(lp2470
Vesp_rom_spiflash_wait_idle
p2471
aVbootloader_execute_flash_command
p2472
aVbootloader_execute_flash_command
p2473
atp2474
a(L1840772931L
L1880226080L
(lp2475
(lp2476
Vesp_rom_spiflash_wait_idle
p2477
aVbootloader_execute_flash_command
p2478
atp2479
a(L2993202392L
L0L
(lp2480
(lp2481
tp2482
a(L508800419L
L1880226080L
(lp2483
(lp2484
Vbootloader_execute_flash_command
p2485
aVbootloader_execute_flash_command
p2486
atp2487
a(L1303560369L
L0L
(lp2488
(lp2489
tp2490
a(L1596544945L
L0L
(lp2491
(lp2492
tp2493
a(L97689L
L0L
(lp2494
(lp2495
tp2496
a(L106L
L0L
(lp2497
(lp2498
tp2499
atp2500
sI1074238632
(Vload_image
p2501
(lp2502
(L3679617832L
L1832448559L
(lp2503
(lp2504
Vesp_log_early_timestamp
p2505
aVbootloader_random_disable
p2506
aVbootloader_ana_clock_glitch_reset_config
p2507
atp2508
a(L2118498116L
L0L
(lp2509
(lp2510
tp2511
a(L106L
L0L
(lp2512
(lp2513
tp2514
a(L4186884272L
L0L
(lp2515
(lp2516
tp2517
a(L751966648L
L0L
(lp2518
(lp2519
tp2520
a(L3268103L
L0L
(lp2521
(lp2522
tp2523
a(L741069426L
L3785322319L
(lp2524
(lp2525
Vbootloader_console_deinit
p2526
atp2527
a(L2307067884L
L0L
(lp2528
(lp2529
tp2530
a(L3020204L
L0L
(lp2531
(lp2532
tp2533
a(L2722520990L
L3785322319L
(lp2534
(lp2535
Vesp_log_early_timestamp
p2536
atp2537
a(L117980938L
L0L
(lp2538
(lp2539
tp2540
a(L1341709798L
L0L
(lp2541
(lp2542
tp2543
a(L3020204L
L0L
(lp2544
(lp2545
tp2546
a(L1017231636L
L3785322319L
(lp2547
(lp2548
Vesp_log_early_timestamp
p2549
atp2550
a(L233635238L
L0L
(lp2551
(lp2552
tp2553
a(L2488949783L
L0L
(lp2554
(lp2555
tp2556
atp2557
sI1074240680
(Vbootloader_console_deinit
p2558
(lp2559
(L2488395335L
L0L
(lp2560
(lp2561
tp2562
atp2563
sI1074242472
(Vimage_load
p2564
(lp2565
(L745499722L
L0L
(lp2566
(lp2567
tp2568
a(L1899869538L
L0L
(lp2569
(lp2570
tp2571
a(L9219888L
L0L
(lp2572
(lp2573
tp2574
a(L4207944434L
L0L
(lp2575
(lp2576
tp2577
a(L3020187L
L0L
(lp2578
(lp2579
tp2580
a(L1830143431L
L3785322319L
(lp2581
(lp2582
Vesp_log_early_timestamp
p2583
atp2584
a(L2068384292L
L0L
(lp2585
(lp2586
tp2587
a(L1968553470L
L3785322319L
(lp2588
(lp2589
Vbootloader_sha256_finish
p2590
atp2591
a(L4106693507L
L0L
(lp2592
(lp2593
tp2594
a(L3271848319L
L0L
(lp2595
(lp2596
tp2597
a(L1182930974L
L0L
(lp2598
(lp2599
tp2600
a(L3678851644L
L3785322319L
(lp2601
(lp2602
Vprocess_image_header
p2603
atp2604
a(L1341816907L
L0L
(lp2605
(lp2606
tp2607
a(L909494482L
L0L
(lp2608
(lp2609
tp2610
a(L1028073566L
L3785322319L
(lp2611
(lp2612
Vprocess_segments
p2613
atp2614
a(L3803885910L
L0L
(lp2615
(lp2616
tp2617
a(L94425498L
L3785322319L
(lp2618
(lp2619
Vesp_cpu_in_ocd_debug_mode
p2620
atp2621
a(L454195650L
L3785322319L
(lp2622
(lp2623
Vprocess_checksum
p2624
atp2625
a(L1651117269L
L3785322319L
(lp2626
(lp2627
Vprocess_appended_hash_and_sig
p2628
atp2629
a(L533710513L
L0L
(lp2630
(lp2631
tp2632
a(L505081362L
L0L
(lp2633
(lp2634
tp2635
a(L3212356251L
L3785322319L
(lp2636
(lp2637
Vesp_cpu_in_ocd_debug_mode
p2638
atp2639
a(L1315998173L
L1880226080L
(lp2640
(lp2641
Vbootloader_sha256_finish
p2642
aVbootloader_debug_buffer
p2643
atp2644
a(L3379218182L
L1880226080L
(lp2645
(lp2646
Vesp_log_early_timestamp
p2647
aVbootloader_debug_buffer
p2648
atp2649
a(L978077504L
L0L
(lp2650
(lp2651
tp2652
a(L2068384292L
L0L
(lp2653
(lp2654
tp2655
a(L858449684L
L3785322319L
(lp2656
(lp2657
Vbootloader_sha256_finish
p2658
atp2659
a(L3028481L
L0L
(lp2660
(lp2661
tp2662
a(L93674324L
L0L
(lp2663
(lp2664
tp2665
a(L1635062399L
L0L
(lp2666
(lp2667
tp2668
a(L2429164518L
L0L
(lp2669
(lp2670
tp2671
a(L3553619191L
L0L
(lp2672
(lp2673
tp2674
a(L85798113L
L0L
(lp2675
(lp2676
tp2677
a(L464010095L
L0L
(lp2678
(lp2679
tp2680
a(L835563811L
L3785322319L
(lp2681
(lp2682
Vshould_load
p2683
atp2684
a(L1358360603L
L0L
(lp2685
(lp2686
tp2687
a(L4224160879L
L0L
(lp2688
(lp2689
tp2690
a(L22884489L
L0L
(lp2691
(lp2692
tp2693
a(L741351569L
L0L
(lp2694
(lp2695
tp2696
a(L434644776L
L0L
(lp2697
(lp2698
tp2699
a(L106L
L0L
(lp2700
(lp2701
tp2702
a(L709419389L
L0L
(lp2703
(lp2704
tp2705
a(L1299866312L
L0L
(lp2706
(lp2707
tp2708
atp2709
sI1074243240
(Vesp_rom_spiflash_read_status
p2710
(lp2711
(L3562601385L
L0L
(lp2712
(lp2713
tp2714
a(L1182811815L
L0L
(lp2715
(lp2716
tp2717
a(L1128489438L
L0L
(lp2718
(lp2719
tp2720
a(L106L
L0L
(lp2721
(lp2722
tp2723
a(L3459753810L
L0L
(lp2724
(lp2725
tp2726
a(L4004659960L
L0L
(lp2727
(lp2728
tp2729
a(L2123059967L
L0L
(lp2730
(lp2731
tp2732
a(L1973734210L
L0L
(lp2733
(lp2734
tp2735
a(L2392720019L
L0L
(lp2736
(lp2737
tp2738
atp2739
sI1074247848
(Vrtc_clk_apb_freq_update
p2740
(lp2741
(L1042502744L
L0L
(lp2742
(lp2743
tp2744
atp2745
sI1074244020
(Vesp_rom_spiflash_read
p2746
(lp2747
(L851338500L
L0L
(lp2748
(lp2749
tp2750
a(L4163253500L
L0L
(lp2751
(lp2752
tp2753
a(L2860271684L
L0L
(lp2754
(lp2755
tp2756
a(L3017366L
L0L
(lp2757
(lp2758
tp2759
a(L106L
L0L
(lp2760
(lp2761
tp2762
a(L2778783283L
L0L
(lp2763
(lp2764
tp2765
a(L106L
L0L
(lp2766
(lp2767
tp2768
a(L3323897344L
L0L
(lp2769
(lp2770
tp2771
a(L1145544379L
L0L
(lp2772
(lp2773
tp2774
a(L187882844L
L0L
(lp2775
(lp2776
tp2777
a(L4261071817L
L0L
(lp2778
(lp2779
tp2780
a(L106L
L0L
(lp2781
(lp2782
tp2783
a(L363300621L
L3785322319L
(lp2784
(lp2785
Vesp_rom_spiflash_wait_idle
p2786
atp2787
a(L3021737L
L0L
(lp2788
(lp2789
tp2790
a(L106L
L0L
(lp2791
(lp2792
tp2793
a(L1868280504L
L0L
(lp2794
(lp2795
tp2796
a(L106L
L0L
(lp2797
(lp2798
tp2799
a(L3736481505L
L0L
(lp2800
(lp2801
tp2802
a(L1221163038L
L0L
(lp2803
(lp2804
tp2805
a(L4122060822L
L0L
(lp2806
(lp2807
tp2808
a(L3560363198L
L0L
(lp2809
(lp2810
tp2811
a(L2989032L
L0L
(lp2812
(lp2813
tp2814
a(L3819849625L
L0L
(lp2815
(lp2816
tp2817
a(L1195459888L
L0L
(lp2818
(lp2819
tp2820
a(L112815549L
L0L
(lp2821
(lp2822
tp2823
a(L3901820587L
L0L
(lp2824
(lp2825
tp2826
a(L451934354L
L0L
(lp2827
(lp2828
tp2829
a(L1896415737L
L0L
(lp2830
(lp2831
tp2832
a(L1522202953L
L0L
(lp2833
(lp2834
tp2835
a(L2729956946L
L0L
(lp2836
(lp2837
tp2838
a(L4009799660L
L0L
(lp2839
(lp2840
tp2841
a(L2267384310L
L0L
(lp2842
(lp2843
tp2844
a(L2696140277L
L0L
(lp2845
(lp2846
tp2847
a(L2687789892L
L0L
(lp2848
(lp2849
tp2850
a(L1405253496L
L0L
(lp2851
(lp2852
tp2853
a(L2097294253L
L0L
(lp2854
(lp2855
tp2856
a(L97689L
L0L
(lp2857
(lp2858
tp2859
a(L2258897019L
L0L
(lp2860
(lp2861
tp2862
a(L4014024819L
L0L
(lp2863
(lp2864
tp2865
a(L3621567083L
L0L
(lp2866
(lp2867
tp2868
atp2869
sI1074237104
(Vbootloader_common_check_chip_validity
p2870
(lp2871
(L722188971L
L0L
(lp2872
(lp2873
tp2874
a(L98526595L
L3785322319L
(lp2875
(lp2876
Vesp_log_early_timestamp
p2877
atp2878
a(L522103407L
L3785322319L
(lp2879
(lp2880
Vefuse_hal_chip_revision
p2881
atp2882
a(L106L
L0L
(lp2883
(lp2884
tp2885
a(L3681102491L
L0L
(lp2886
(lp2887
tp2888
a(L2449956225L
L3785322319L
(lp2889
(lp2890
Vesp_log_early_timestamp
p2891
atp2892
a(L3028464L
L0L
(lp2893
(lp2894
tp2895
a(L4118102069L
L0L
(lp2896
(lp2897
tp2898
a(L3021749L
L0L
(lp2899
(lp2900
tp2901
a(L1478707893L
L3785322319L
(lp2902
(lp2903
Vesp_log_early_timestamp
p2904
atp2905
a(L1299867982L
L0L
(lp2906
(lp2907
tp2908
a(L3360570486L
L0L
(lp2909
(lp2910
tp2911
atp2912
sI1074243760
(Vesp_rom_spiflash_write
p2913
(lp2914
(L2011462523L
L0L
(lp2915
(lp2916
tp2917
a(L2258688483L
L0L
(lp2918
(lp2919
tp2920
a(L3360570486L
L0L
(lp2921
(lp2922
tp2923
a(L1590344338L
L0L
(lp2924
(lp2925
tp2926
a(L3106685987L
L0L
(lp2927
(lp2928
tp2929
a(L4249336406L
L3785322319L
(lp2930
(lp2931
Vesp_rom_spiflash_program_page_internal
p2932
atp2933
a(L1915738254L
L3785322319L
(lp2934
(lp2935
Vesp_rom_spiflash_program_page_internal
p2936
atp2937
a(L663507325L
L0L
(lp2938
(lp2939
tp2940
a(L2392967593L
L0L
(lp2941
(lp2942
tp2943
a(L564470687L
L0L
(lp2944
(lp2945
tp2946
a(L154459701L
L3785322319L
(lp2947
(lp2948
Vesp_rom_spiflash_program_page_internal
p2949
atp2950
a(L2079643754L
L0L
(lp2951
(lp2952
tp2953
atp2954
sI1074236856
(Vefuse_hal_get_major_chip_version
p2955
(lp2956
(L208362539L
L0L
(lp2957
(lp2958
tp2959
a(L894792960L
L0L
(lp2960
(lp2961
tp2962
a(L724635033L
L0L
(lp2963
(lp2964
tp2965
a(L3360570486L
L0L
(lp2966
(lp2967
tp2968
atp2969
sI1074234808
(Vbootloader_flash_execute_command_common
p2970
(lp2971
(L2935702355L
L0L
(lp2972
(lp2973
tp2974
a(L120555589L
L0L
(lp2975
(lp2976
tp2977
a(L2890397610L
L3785322319L
(lp2978
(lp2979
V__assert_func
p2980
atp2981
a(L3021749L
L0L
(lp2982
(lp2983
tp2984
a(L153183703L
L0L
(lp2985
(lp2986
tp2987
a(L901582467L
L0L
(lp2988
(lp2989
tp2990
a(L695082870L
L0L
(lp2991
(lp2992
tp2993
a(L4024113366L
L0L
(lp2994
(lp2995
tp2996
a(L3998568023L
L0L
(lp2997
(lp2998
tp2999
a(L163389185L
L0L
(lp3000
(lp3001
tp3002
a(L2336699050L
L0L
(lp3003
(lp3004
tp3005
a(L4038246755L
L0L
(lp3006
(lp3007
tp3008
a(L1065820671L
L0L
(lp3009
(lp3010
tp3011
a(L3041777204L
L0L
(lp3012
(lp3013
tp3014
a(L3333696662L
L0L
(lp3015
(lp3016
tp3017
a(L963425213L
L0L
(lp3018
(lp3019
tp3020
a(L2106665914L
L0L
(lp3021
(lp3022
tp3023
a(L3360570486L
L0L
(lp3024
(lp3025
tp3026
atp3027
sI1074240696
(V__assert_func
p3028
(lp3029
(L4269287305L
L0L
(lp3030
(lp3031
tp3032
a(L106L
L0L
(lp3033
(lp3034
tp3035
atp3036
sI1074236612
(Vesp_cpu_in_ocd_debug_mode
p3037
(lp3038
(L2131426160L
L0L
(lp3039
(lp3040
tp3041
atp3042
sI1074247876
(Vrtc_clk_cpu_freq_to_xtal
p3043
(lp3044
(L3993921716L
L3785322319L
(lp3045
(lp3046
Vrtc_clk_apb_freq_update
p3047
atp3048
a(L702736306L
L0L
(lp3049
(lp3050
tp3051
a(L277445412L
L0L
(lp3052
(lp3053
tp3054
a(L309988740L
L0L
(lp3055
(lp3056
tp3057
atp3058
sI1074239936
(Vbootloader_reset
p3059
(lp3060
(L1822360791L
L3785322319L
(lp3061
(lp3062
Vbootloader_console_deinit
p3063
atp3064
a(L106L
L0L
(lp3065
(lp3066
tp3067
atp3068
sI1074247104
(Vrtc_clk_fast_freq_set
p3069
(lp3070
(L4187032856L
L0L
(lp3071
(lp3072
tp3073
atp3074
sI1074235852
(Vbootloader_flash_cs_timing_config
p3075
(lp3076
(L3796536297L
L0L
(lp3077
(lp3078
tp3079
atp3080
sI1074237388
(Vbootloader_common_ota_select_invalid
p3081
(lp3082
(L4027567199L
L0L
(lp3083
(lp3084
tp3085
a(L3397985842L
L0L
(lp3086
(lp3087
tp3088
a(L2258867228L
L0L
(lp3089
(lp3090
tp3091
a(L3785235668L
L0L
(lp3092
(lp3093
tp3094
atp3095
sI1074245832
(Vwdt_hal_write_protect_enable
p3096
(lp3097
(L387778158L
L0L
(lp3098
(lp3099
tp3100
a(L4195472003L
L0L
(lp3101
(lp3102
tp3103
a(L3360570486L
L0L
(lp3104
(lp3105
tp3106
a(L802523425L
L0L
(lp3107
(lp3108
tp3109
atp3110
sI1074236628
(Vesp_rom_uart_tx_wait_idle
p3111
(lp3112
(L708706374L
L0L
(lp3113
(lp3114
tp3115
a(L1301079727L
L0L
(lp3116
(lp3117
tp3118
a(L3597746521L
L0L
(lp3119
(lp3120
tp3121
a(L3694491048L
L0L
(lp3122
(lp3123
tp3124
a(L3055926844L
L0L
(lp3125
(lp3126
tp3127
a(L3360570486L
L0L
(lp3128
(lp3129
tp3130
atp3131
sI1074235600
(Vbootloader_flash_read_sfdp
p3132
(lp3133
(L711701400L
L0L
(lp3134
(lp3135
tp3136
a(L3282613751L
L3785322319L
(lp3137
(lp3138
V__assert_func
p3139
atp3140
a(L3704332455L
L3785322319L
(lp3141
(lp3142
Vbootloader_flash_execute_command_common
p3143
atp3144
atp3145
sI1074240720
(Vabort
p3146
(lp3147
(L73370910L
L0L
(lp3148
(lp3149
tp3150
a(L409471316L
L0L
(lp3151
(lp3152
tp3153
a(L106L
L0L
(lp3154
(lp3155
tp3156
atp3157
sI1074269392
(Vbootloader_flash_update_id
p3158
(lp3159
(L3081511723L
L3785322319L
(lp3160
(lp3161
Vbootloader_read_flash_id
p3162
atp3163
atp3164
sI1074241756
(Vprocess_segments
p3165
(lp3166
(L3883698409L
L0L
(lp3167
(lp3168
tp3169
a(L2495454333L
L0L
(lp3170
(lp3171
tp3172
a(L4578542L
L0L
(lp3173
(lp3174
tp3175
a(L106L
L0L
(lp3176
(lp3177
tp3178
a(L1315312493L
L0L
(lp3179
(lp3180
tp3181
a(L2450771951L
L3785322319L
(lp3182
(lp3183
Vesp_log_early_timestamp
p3184
atp3185
a(L1440180646L
L3785322319L
(lp3186
(lp3187
Vbootloader_flash_read
p3188
atp3189
a(L3234015318L
L3785322319L
(lp3190
(lp3191
Vesp_log_early_timestamp
p3192
atp3193
a(L3360570486L
L0L
(lp3194
(lp3195
tp3196
a(L234193771L
L0L
(lp3197
(lp3198
tp3199
a(L1635713494L
L3785322319L
(lp3200
(lp3201
Vbootloader_sha256_data
p3202
atp3203
a(L926711887L
L0L
(lp3204
(lp3205
tp3206
a(L790360741L
L0L
(lp3207
(lp3208
tp3209
a(L3997307212L
L0L
(lp3210
(lp3211
tp3212
a(L3802068284L
L0L
(lp3213
(lp3214
tp3215
a(L2942462881L
L0L
(lp3216
(lp3217
tp3218
a(L2258867228L
L0L
(lp3219
(lp3220
tp3221
a(L1355332303L
L0L
(lp3222
(lp3223
tp3224
a(L2965680995L
L0L
(lp3225
(lp3226
tp3227
a(L1849436849L
L0L
(lp3228
(lp3229
tp3230
a(L1935324052L
L3785322319L
(lp3231
(lp3232
Vesp_log_early_timestamp
p3233
atp3234
a(L3895303701L
L0L
(lp3235
(lp3236
tp3237
a(L310091939L
L0L
(lp3238
(lp3239
tp3240
a(L263715651L
L3785322319L
(lp3241
(lp3242
Vesp_log_early_timestamp
p3243
atp3244
a(L3982404358L
L3785322319L
(lp3245
(lp3246
Vverify_load_addresses
p3247
atp3248
a(L106L
L0L
(lp3249
(lp3250
tp3251
a(L2300166925L
L0L
(lp3252
(lp3253
tp3254
a(L2684012095L
L0L
(lp3255
(lp3256
tp3257
a(L1905937838L
L3785322319L
(lp3258
(lp3259
Vbootloader_mmap
p3260
atp3261
a(L691579970L
L3785322319L
(lp3262
(lp3263
Vesp_log_early_timestamp
p3264
atp3265
a(L1371162345L
L0L
(lp3266
(lp3267
tp3268
a(L147926536L
L0L
(lp3269
(lp3270
tp3271
a(L1534276982L
L3785322319L
(lp3272
(lp3273
Vbootloader_munmap
p3274
atp3275
a(L3105361649L
L0L
(lp3276
(lp3277
tp3278
a(L1216016797L
L3785322319L
(lp3279
(lp3280
Vbootloader_fill_random
p3281
atp3282
a(L3570641403L
L0L
(lp3283
(lp3284
tp3285
a(L3574335487L
L0L
(lp3286
(lp3287
tp3288
a(L3450268858L
L0L
(lp3289
(lp3290
tp3291
a(L3021749L
L0L
(lp3292
(lp3293
tp3294
a(L1609678444L
L0L
(lp3295
(lp3296
tp3297
a(L1777728568L
L0L
(lp3298
(lp3299
tp3300
a(L3020204L
L0L
(lp3301
(lp3302
tp3303
a(L705790588L
L0L
(lp3304
(lp3305
tp3306
a(L2076461546L
L0L
(lp3307
(lp3308
tp3309
a(L3832868376L
L0L
(lp3310
(lp3311
tp3312
a(L1749969336L
L0L
(lp3313
(lp3314
tp3315
a(L670934548L
L0L
(lp3316
(lp3317
tp3318
a(L1903785265L
L3785322319L
(lp3319
(lp3320
Vbootloader_sha256_data
p3321
atp3322
a(L90548756L
L0L
(lp3323
(lp3324
tp3325
a(L4195963580L
L0L
(lp3326
(lp3327
tp3328
a(L2572638616L
L0L
(lp3329
(lp3330
tp3331
a(L3740179196L
L0L
(lp3332
(lp3333
tp3334
a(L233873941L
L3785322319L
(lp3335
(lp3336
Vshould_load
p3337
atp3338
a(L3070788781L
L0L
(lp3339
(lp3340
tp3341
a(L3671383264L
L3785322319L
(lp3342
(lp3343
Vesp_log_early_timestamp
p3344
atp3345
a(L3643690669L
L0L
(lp3346
(lp3347
tp3348
a(L2104869616L
L0L
(lp3349
(lp3350
tp3351
a(L2089819021L
L0L
(lp3352
(lp3353
tp3354
a(L2902417580L
L0L
(lp3355
(lp3356
tp3357
a(L2636912524L
L0L
(lp3358
(lp3359
tp3360
a(L4195318902L
L3785322319L
(lp3361
(lp3362
Vbootloader_mmap_get_free_pages
p3363
atp3364
a(L3028481L
L0L
(lp3365
(lp3366
tp3367
a(L124545238L
L0L
(lp3368
(lp3369
tp3370
atp3371
sI1074267860
(Vbootloader_common_vddsdio_configure
p3372
(lp3373
(L1922017289L
L3785322319L
(lp3374
(lp3375
Vrtc_vddsdio_get_config
p3376
atp3377
a(L1185899578L
L3785322319L
(lp3378
(lp3379
Vrtc_vddsdio_set_config
p3380
atp3381
a(L3360570486L
L0L
(lp3382
(lp3383
tp3384
atp3385
sI1074268904
(Vbootloader_init_mem
p3386
(lp3387
(L1511720305L
L3785322319L
(lp3388
(lp3389
Vesp_cpu_configure_region_protection
p3390
atp3391
atp3392
sI1074269672
(Vbootloader_enable_random
p3393
(lp3394
(L1907486877L
L1880226080L
(lp3395
(lp3396
Vesp_log_early_timestamp
p3397
aVbootloader_random_enable
p3398
atp3399
atp3400
sI1074240484
(Vbootloader_sha256_finish
p3401
(lp3402
(L4066096136L
L0L
(lp3403
(lp3404
tp3405
a(L283309760L
L0L
(lp3406
(lp3407
tp3408
a(L2504541789L
L3785322319L
(lp3409
(lp3410
V__assert_func
p3411
atp3412
a(L3020204L
L0L
(lp3413
(lp3414
tp3415
a(L1077914239L
L0L
(lp3416
(lp3417
tp3418
a(L2534656226L
L0L
(lp3419
(lp3420
tp3421
a(L3404488268L
L3785322319L
(lp3422
(lp3423
Vbootloader_sha256_data
p3424
atp3425
a(L1076837905L
L0L
(lp3426
(lp3427
tp3428
a(L1830200745L
L3785322319L
(lp3429
(lp3430
Vbootloader_sha256_data
p3431
atp3432
a(L1563431552L
L0L
(lp3433
(lp3434
tp3435
a(L657425439L
L0L
(lp3436
(lp3437
tp3438
a(L4023907455L
L0L
(lp3439
(lp3440
tp3441
a(L657425439L
L0L
(lp3442
(lp3443
tp3444
a(L894366391L
L0L
(lp3445
(lp3446
tp3447
a(L2975660674L
L0L
(lp3448
(lp3449
tp3450
a(L3347778L
L0L
(lp3451
(lp3452
tp3453
a(L3360570486L
L0L
(lp3454
(lp3455
tp3456
atp3457
sI1074240228
(Vindex_to_partition
p3458
(lp3459
(L4066096119L
L0L
(lp3460
(lp3461
tp3462
a(L1739185955L
L0L
(lp3463
(lp3464
tp3465
a(L2171552758L
L0L
(lp3466
(lp3467
tp3468
a(L2808906342L
L0L
(lp3469
(lp3470
tp3471
a(L2101481936L
L0L
(lp3472
(lp3473
tp3474
a(L3698927993L
L0L
(lp3475
(lp3476
tp3477
a(L2808826781L
L0L
(lp3478
(lp3479
tp3480
a(L3003398163L
L0L
(lp3481
(lp3482
tp3483
a(L1104460200L
L0L
(lp3484
(lp3485
tp3486
a(L1087646172L
L0L
(lp3487
(lp3488
tp3489
atp3490
sI1074245860
(Vefuse_hal_get_rated_freq_mhz
p3491
(lp3492
(L1680594370L
L0L
(lp3493
(lp3494
tp3495
a(L2965302338L
L0L
(lp3496
(lp3497
tp3498
a(L3360570486L
L0L
(lp3499
(lp3500
tp3501
atp3502
sI1074248932
(V_fini
p3503
(lp3504
(L3493042598L
L0L
(lp3505
(lp3506
tp3507
atp3508
sI1074239968
(Vbootloader_utility_load_boot_image
p3509
(lp3510
(L1561528311L
L0L
(lp3511
(lp3512
tp3513
a(L2177418995L
L3785322319L
(lp3514
(lp3515
Vtry_load_partition
p3516
atp3517
a(L2749106626L
L3785322319L
(lp3518
(lp3519
Vload_image
p3520
atp3521
a(L157669688L
L3785322319L
(lp3522
(lp3523
Vesp_log_early_timestamp
p3524
atp3525
a(L3827921190L
L3785322319L
(lp3526
(lp3527
Vbootloader_reset
p3528
atp3529
a(L2542673780L
L3785322319L
(lp3530
(lp3531
Vindex_to_partition
p3532
atp3533
a(L1204373741L
L3785322319L
(lp3534
(lp3535
Vtry_load_partition
p3536
atp3537
a(L3020187L
L0L
(lp3538
(lp3539
tp3540
a(L3111076057L
L0L
(lp3541
(lp3542
tp3543
a(L2070875117L
L3785322319L
(lp3544
(lp3545
Vset_actual_ota_seq
p3546
atp3547
a(L1868897605L
L3785322319L
(lp3548
(lp3549
Vlog_invalid_app_partition
p3550
atp3551
a(L831650730L
L0L
(lp3552
(lp3553
tp3554
a(L3021737L
L0L
(lp3555
(lp3556
tp3557
a(L4083823862L
L0L
(lp3558
(lp3559
tp3560
a(L3818328201L
L3785322319L
(lp3561
(lp3562
Vtry_load_partition
p3563
atp3564
a(L1643420822L
L3785322319L
(lp3565
(lp3566
Vesp_log_early_timestamp
p3567
atp3568
a(L2185156151L
L3785322319L
(lp3569
(lp3570
Vindex_to_partition
p3571
atp3572
a(L1074657773L
L3785322319L
(lp3573
(lp3574
Vtry_load_partition
p3575
atp3576
a(L3027024L
L0L
(lp3577
(lp3578
tp3579
a(L2127949398L
L0L
(lp3580
(lp3581
tp3582
a(L3061261803L
L0L
(lp3583
(lp3584
tp3585
a(L3582858798L
L3785322319L
(lp3586
(lp3587
Vlog_invalid_app_partition
p3588
atp3589
a(L4140564132L
L3785322319L
(lp3590
(lp3591
Vesp_log_early_timestamp
p3592
atp3593
atp3594
sI1074245344
(Vwdt_hal_config_stage
p3595
(lp3596
(L331558507L
L0L
(lp3597
(lp3598
tp3599
a(L4279082939L
L0L
(lp3600
(lp3601
tp3602
a(L3020204L
L0L
(lp3603
(lp3604
tp3605
a(L3020187L
L0L
(lp3606
(lp3607
tp3608
a(L3020187L
L0L
(lp3609
(lp3610
tp3611
a(L94425498L
L3785322319L
(lp3612
(lp3613
Vabort
p3614
atp3615
a(L4285688296L
L0L
(lp3616
(lp3617
tp3618
a(L3360570486L
L0L
(lp3619
(lp3620
tp3621
a(L2823160664L
L0L
(lp3622
(lp3623
tp3624
a(L3334463868L
L0L
(lp3625
(lp3626
tp3627
a(L900714323L
L0L
(lp3628
(lp3629
tp3630
a(L3020187L
L0L
(lp3631
(lp3632
tp3633
a(L2902417580L
L0L
(lp3634
(lp3635
tp3636
a(L3020187L
L0L
(lp3637
(lp3638
tp3639
a(L3028464L
L0L
(lp3640
(lp3641
tp3642
a(L2800435414L
L0L
(lp3643
(lp3644
tp3645
a(L3812350417L
L0L
(lp3646
(lp3647
tp3648
a(L3224036679L
L0L
(lp3649
(lp3650
tp3651
a(L572249999L
L0L
(lp3652
(lp3653
tp3654
atp3655
sI1074269408
(Vbootloader_clear_bss_section
p3656
(lp3657
(L519648827L
L0L
(lp3658
(lp3659
tp3660
atp3661
sI1074247148
(Vrtc_clk_fast_freq_get
p3662
(lp3663
(L62035666L
L0L
(lp3664
(lp3665
tp3666
atp3667
sI1074238184
(Vbootloader_enable_wp
p3668
(lp3669
(L1117825804L
L3785322319L
(lp3670
(lp3671
Vbootloader_execute_flash_command
p3672
atp3673
atp3674
sI1074237416
(Vbootloader_common_select_otadata
p3675
(lp3676
(L2342662536L
L0L
(lp3677
(lp3678
tp3679
a(L3806783650L
L0L
(lp3680
(lp3681
tp3682
a(L1674928252L
L0L
(lp3683
(lp3684
tp3685
a(L251571983L
L0L
(lp3686
(lp3687
tp3688
a(L3360570486L
L0L
(lp3689
(lp3690
tp3691
a(L2045232488L
L0L
(lp3692
(lp3693
tp3694
a(L189726519L
L0L
(lp3695
(lp3696
tp3697
a(L3095066987L
L0L
(lp3698
(lp3699
tp3700
a(L3592023188L
L0L
(lp3701
(lp3702
tp3703
a(L1641201884L
L0L
(lp3704
(lp3705
tp3706
atp3707
sI1074239208
(Vtry_load_partition
p3708
(lp3709
(L1263750142L
L0L
(lp3710
(lp3711
tp3712
a(L2258688482L
L0L
(lp3713
(lp3714
tp3715
a(L3360570486L
L0L
(lp3716
(lp3717
tp3718
a(L530241438L
L3785322319L
(lp3719
(lp3720
Vbootloader_load_image
p3721
atp3722
a(L2684814704L
L3785322319L
(lp3723
(lp3724
Vesp_log_early_timestamp
p3725
atp3726
atp3727
sI1074246120
(Vrtc_clk_32k_enable_common
p3728
(lp3729
(L4050916132L
L0L
(lp3730
(lp3731
tp3732
atp3733
sI1074268920
(Vbootloader_random_enable
p3734
(lp3735
(L2767707060L
L0L
(lp3736
(lp3737
tp3738
atp3739
sI1074269432
(Vbootloader_read_bootloader_header
p3740
(lp3741
(L1184423700L
L3785322319L
(lp3742
(lp3743
Vbootloader_flash_read
p3744
atp3745
a(L2541340850L
L3785322319L
(lp3746
(lp3747
Vesp_log_early_timestamp
p3748
atp3749
a(L735741265L
L0L
(lp3750
(lp3751
tp3752
atp3753
sI1074270704
(Vmpu_hal_set_region_access
p3754
(lp3755
(L3538356822L
L0L
(lp3756
(lp3757
tp3758
a(L2902417580L
L0L
(lp3759
(lp3760
tp3761
a(L3020187L
L0L
(lp3762
(lp3763
tp3764
a(L3020187L
L0L
(lp3765
(lp3766
tp3767
a(L3360570486L
L0L
(lp3768
(lp3769
tp3770
a(L2258718273L
L0L
(lp3771
(lp3772
tp3773
a(L3446648619L
L0L
(lp3774
(lp3775
tp3776
a(L3739532189L
L0L
(lp3777
(lp3778
tp3779
a(L1300789895L
L0L
(lp3780
(lp3781
tp3782
a(L3472092938L
L0L
(lp3783
(lp3784
tp3785
atp3786
sI1074247164
(Vrtc_clk_bbpll_configure
p3787
(lp3788
(L3992218412L
L0L
(lp3789
(lp3790
tp3791
a(L106L
L0L
(lp3792
(lp3793
tp3794
a(L3470882097L
L0L
(lp3795
(lp3796
tp3797
a(L106L
L0L
(lp3798
(lp3799
tp3800
a(L83268611L
L0L
(lp3801
(lp3802
tp3803
a(L106L
L0L
(lp3804
(lp3805
tp3806
a(L82345090L
L0L
(lp3807
(lp3808
tp3809
a(L106L
L0L
(lp3810
(lp3811
tp3812
a(L2258688482L
L0L
(lp3813
(lp3814
tp3815
a(L3177466952L
L0L
(lp3816
(lp3817
tp3818
a(L1657381421L
L0L
(lp3819
(lp3820
tp3821
a(L3613754800L
L0L
(lp3822
(lp3823
tp3824
a(L1299866343L
L0L
(lp3825
(lp3826
tp3827
a(L3291765465L
L0L
(lp3828
(lp3829
tp3830
a(L3241888512L
L0L
(lp3831
(lp3832
tp3833
a(L2711871504L
L0L
(lp3834
(lp3835
tp3836
a(L83268344L
L0L
(lp3837
(lp3838
tp3839
a(L82344823L
L0L
(lp3840
(lp3841
tp3842
a(L1667153377L
L0L
(lp3843
(lp3844
tp3845
a(L2258867279L
L0L
(lp3846
(lp3847
tp3848
a(L1167943821L
L0L
(lp3849
(lp3850
tp3851
a(L1551160474L
L0L
(lp3852
(lp3853
tp3854
a(L1712476653L
L0L
(lp3855
(lp3856
tp3857
a(L4011631532L
L0L
(lp3858
(lp3859
tp3860
atp3861
sI1074238204
(Vbootloader_mmap_get_free_pages
p3862
(lp3863
(L1496516875L
L0L
(lp3864
(lp3865
tp3866
atp3867
sI1074247676
(Vrtc_clk_cpu_freq_get_config
p3868
(lp3869
(L118171442L
L0L
(lp3870
(lp3871
tp3872
a(L2902417580L
L0L
(lp3873
(lp3874
tp3875
a(L1777368540L
L0L
(lp3876
(lp3877
tp3878
a(L41558682L
L1880226080L
(lp3879
(lp3880
Vesp_log_early_timestamp
p3881
aVabort
p3882
atp3883
a(L2115382924L
L3785322319L
(lp3884
(lp3885
Vrtc_clk_xtal_freq_get
p3886
atp3887
a(L584032699L
L0L
(lp3888
(lp3889
tp3890
a(L410065730L
L0L
(lp3891
(lp3892
tp3893
a(L3020187L
L0L
(lp3894
(lp3895
tp3896
a(L713819170L
L0L
(lp3897
(lp3898
tp3899
a(L106L
L0L
(lp3900
(lp3901
tp3902
a(L549042870L
L0L
(lp3903
(lp3904
tp3905
a(L187152368L
L0L
(lp3906
(lp3907
tp3908
a(L4149732163L
L0L
(lp3909
(lp3910
tp3911
atp3912
ssS'functionsdups'
p3913
g11
((lp3914
tp3915
Rp3916
sS'immediatedups'
p3917
g11
((lp3918
tp3919
Rp3920
sS'functiondups'
p3921
g11
((lp3922
tp3923
Rp3924
sS'fuzzy'
p3925
(dp3926
L1536L
I1074240696
sL617583950L
I1074237104
sL430153639L
I1074235964
sL3121027072L
I1074270472
sL2082889262L
I1074241544
sL3879741902L
I1074241176
sL3538491111L
I1074247876
sL2919016435L
I1074235308
sL16208487L
I1074234808
sL2680783959L
I1074235696
sL3512578114L
I1074239208
sL2469233929L
I1074240484
sL1792232694L
I1074245956
sL4011111091L
I1074237752
sL1377559356L
I1074242472
sL3897252859L
I1074239016
sL1065525808L
I1074236944
sL2327783177L
I1074240776
sL1164839255L
I1074241756
sL449860969L
I1074247588
sL2008768000L
I1074267928
sL3210669721L
I1074246236
sL819541406L
I1074267752
sL1332800441L
I1074237348
sL3968568769L
I1074268720
sL1148089122L
I1074239100
sL1345429244L
I1074240928
sL2689419264L
I1074247164
sL4160102055L
I1074239936
sL2453272040L
I1074248316
sL3690558760L
I1074269844
sL1768086576L
I1074236432
sL4171975289L
I1074243628
sL1565254297L
I1074243932
sL2191698036L
I1074269548
sL1513350244L
I1074239632
sL2474570535L
I1074238212
sL3428965560L
I1074247992
sL519424169L
I1074248772
sL812946199L
I1074237528
sL737694352L
I1074243440
sL503029138L
I1074243380
sL277788135L
I1074244020
sL4253866342L
I1074239968
sL47534270L
I1074238632
sL2262558768L
I1074243240
sL424867129L
I1074243760
sL3834155367L
I1074241120
sL176878843L
I1074239256
sL3883282432L
I1074241636
sL4173399607L
I1074242952
sL2726385143L
I1074245344
sL1667054119L
I1074240320
sL4191211306L
I1074247676
sL2687107543L
I1074270016
sL206902443L
I1074238044
ssb.