ccopy_reg
_reconstructor
p0
(crizzo
RizzoSignature
p1
c__builtin__
object
p2
Ntp3
Rp4
(dp5
S'formal'
p6
(dp7
L61540265L
I1074234784
sL2628236197L
I1074270876
sL4149167435L
I1074235672
sL2048961576L
I1074240656
sL3061073278L
I1074239944
sL2432811019L
I1074247016
sL1741170115L
I1074238000
sL633479887L
I1074240672
sL432834268L
I1074248208
sL673101071L
I1074270260
sL2226187430L
I1074238280
sL2137527423L
I1074236832
sL777872458L
I1074248240
sL3871711965L
I1074238608
sL4213015302L
I1074242912
sL1984013661L
I1074247316
sL283107522L
I1074269636
sL104522008L
I1074237024
sL3211103558L
I1074236408
sL3955774956L
I1074237676
sL2028381634L
I1074245668
sL1359501856L
I1074239608
sL1010441494L
I1074247056
sL2896295319L
I1074236920
sL2590834774L
I1074270956
sL855787331L
I1074243736
sL3721868182L
I1074268016
sL2815678096L
I1074270040
sL2467304534L
I1074236604
sL1680425056L
I1074243908
sL3803348220L
I1074269164
sL4065997320L
I1074246616
sL900327418L
I1074247144
sL359363645L
I1074241732
sL1585823442L
I1074245808
sL744601145L
I1074235828
sL4026536540L
I1074243604
sL26887879L
I1074243216
sL2307242981L
I1074237504
sL2657357824L
I1074237080
sL2358951678L
I1074269792
sL3961899840L
I1074243356
sL2446651580L
I1074267940
sL263605983L
I1074240752
sL1700135484L
I1074267139
sL502037127L
I1074270716
sL1426318444L
I1074247784
sL2045471388L
I1074236668
sL3247711715L
I1074245740
sL3412731112L
I1074243308
sL3730295765L
I1074245636
sL1140530296L
I1074240696
sL3712974027L
I1074246424
sL3307282855L
I1074238160
sL4040482908L
I1074246096
sL2171678973L
I1074247344
sL612086517L
I1074235284
sL4114736847L
I1074236904
sL242136289L
I1074238020
sL3844512690L
I1074236992
sL2234017981L
I1074269916
sL2379627086L
I1074236792
sL4286763290L
I1074267816
sL864360223L
I1074267916
sL3035696490L
I1074245320
sL1540116328L
I1074242928
sL83337299L
I1074237472
sL1156874576L
I1074236588
sL4108513862L
I1074269652
sL666229264L
I1074240296
sL4013669788L
I1074247460
sL1652900655L
I1074238596
sL2081827772L
I1074268252
sL1371353105L
I1074246272
sL23021043L
I1074235940
sL48580680L
I1074239184
sL2997001746L
I1074237324
sL3970660634L
I1074241520
sL1901372901L
I1074246516
sL1419107873L
I1074247740
sL680367929L
I1074269944
sL541879289L
I1074246632
sL3588042603L
I1074239232
sL2610239788L
I1074246448
sL518564945L
I1074269676
sL2819127986L
I1074237044
sL243291962L
I1074240904
sL2988777118L
I1074243416
sL549239041L
I1074238188
sL4267529184L
I1074270088
sL4033052637L
I1074246212
sL3783856456L
I1074244732
sL1164083360L
I1074235628
sL1577973455L
I1074239076
sL1242724561L
I1074235576
sL2169343630L
I1074268032
sL294958673L
I1074241612
sL368503601L
I1074268980
sL593775276L
I1074246400
sL2249539038L
I1074240204
sL1012036252L
I1074243996
sL4142749756L
I1074236556
sL1865528544L
I1074245836
sL2513341723L
I1074269720
sL3397796702L
I1074240276
sL2263182908L
I1074238180
sL952628764L
I1074246572
sL1677784797L
I1074245872
sL2467527886L
I1074245932
sL188664287L
I1074235252
sL721128985L
I1074241152
sL2959238529L
I1074237392
sL138608800L
I1074270008
sL692536993L
I1074237364
sL2319953056L
I1074238992
sL3845421789L
I1074237728
sL4079009225L
I1074242448
sL2663572780L
I1074240460
sL3608561895L
I1074269148
sL321099729L
I1074246532
sL2986091524L
I1074247272
sL4267894680L
I1074236760
sL3763660718L
I1074239912
sL548661070L
I1074267964
sL2246062622L
I1074241096
ssS'immediates'
p8
(dp9
sS'formaldups'
p10
c__builtin__
set
p11
((lp12
tp13
Rp14
sS'stringdups'
p15
g11
((lp16
tp17
Rp18
sS'fuzzydups'
p19
g11
((lp20
tp21
Rp22
sS'strings'
p23
(dp24
sS'functions'
p25
(dp26
I1074245636
(Vwdt_hal_write_protect_disable
p27
(lp28
(L2655380989L
L0L
(lp29
(lp30
tp31
a(L4195472003L
L0L
(lp32
(lp33
tp34
a(L3360570486L
L0L
(lp35
(lp36
tp37
a(L1210571996L
L0L
(lp38
(lp39
tp40
atp41
sI1074267916
(Vbootloader_before_init
p42
(lp43
(L73242784L
L3785322319L
(lp44
(lp45
Vesp_log_early_timestamp
p46
atp47
atp48
sI1074239232
(Vbootloader_utility_load_partition_table
p49
(lp50
(L337793758L
L3785322319L
(lp51
(lp52
Vbootloader_mmap
p53
atp54
a(L1572404640L
L3785322319L
(lp55
(lp56
Vesp_log_early_timestamp
p57
atp58
a(L2258688482L
L0L
(lp59
(lp60
tp61
a(L3360570486L
L0L
(lp62
(lp63
tp64
a(L2379286607L
L3785322319L
(lp65
(lp66
Vesp_partition_table_verify
p67
atp68
a(L1824441572L
L3785322319L
(lp69
(lp70
Vesp_log_early_timestamp
p71
atp72
a(L555142709L
L1880226080L
(lp73
(lp74
Vesp_log_early_timestamp
p75
aVesp_log_early_timestamp
p76
atp77
a(L60599615L
L0L
(lp78
(lp79
tp80
a(L2509258321L
L1880226080L
(lp81
(lp82
Vbootloader_munmap
p83
aVesp_log_early_timestamp
p84
atp85
a(L4226553678L
L0L
(lp86
(lp87
tp88
a(L3028464L
L0L
(lp89
(lp90
tp91
a(L106L
L0L
(lp92
(lp93
tp94
a(L307915808L
L0L
(lp95
(lp96
tp97
a(L3021439948L
L3785322319L
(lp98
(lp99
Vesp_log_early_timestamp
p100
atp101
a(L3990577774L
L0L
(lp102
(lp103
tp104
a(L3020187L
L0L
(lp105
(lp106
tp107
a(L2559753343L
L0L
(lp108
(lp109
tp110
a(L1154512743L
L0L
(lp111
(lp112
tp113
a(L1380578767L
L0L
(lp114
(lp115
tp116
a(L1308290804L
L0L
(lp117
(lp118
tp119
a(L3477770624L
L0L
(lp120
(lp121
tp122
a(L106L
L0L
(lp123
(lp124
tp125
a(L93674324L
L0L
(lp126
(lp127
tp128
a(L2902417580L
L0L
(lp129
(lp130
tp131
a(L1245794467L
L0L
(lp132
(lp133
tp134
a(L106L
L0L
(lp135
(lp136
tp137
a(L955455903L
L0L
(lp138
(lp139
tp140
a(L1217165316L
L0L
(lp141
(lp142
tp143
a(L106L
L0L
(lp144
(lp145
tp146
a(L1256876719L
L0L
(lp147
(lp148
tp149
a(L106L
L0L
(lp150
(lp151
tp152
a(L106L
L0L
(lp153
(lp154
tp155
a(L2752742501L
L0L
(lp156
(lp157
tp158
atp159
sI1074246400
(Vrtc_clk_8m_enabled
p160
(lp161
(L3754594988L
L0L
(lp162
(lp163
tp164
atp165
sI1074267136
(V_init
p166
(lp167
(L3493042598L
L0L
(lp168
(lp169
tp170
atp171
sI1074240268
(Vbootloader_debug_buffer
p172
(lp173
(L2100504542L
L0L
(lp174
(lp175
tp176
atp177
sI1074267139
(V_text_start
p178
(lp179
(L1288801741L
L0L
(lp180
(lp181
tp182
atp183
sI1074269720
(Vbootloader_check_bootloader_validity
p184
(lp185
(L1968007091L
L1832448559L
(lp186
(lp187
Vefuse_hal_chip_revision
p188
aVesp_log_early_timestamp
p189
aVbootloader_common_check_chip_validity
p190
atp191
atp192
sI1074243604
(Vesp_rom_spiflash_erase_sector
p193
(lp194
(L3898401745L
L0L
(lp195
(lp196
tp197
a(L2258688483L
L0L
(lp198
(lp199
tp200
a(L3360570486L
L0L
(lp201
(lp202
tp203
a(L3212356251L
L3785322319L
(lp204
(lp205
Vesp_rom_spiflash_enable_write
p206
atp207
a(L184152988L
L0L
(lp208
(lp209
tp210
a(L1417699914L
L3785322319L
(lp211
(lp212
Vesp_rom_spiflash_wait_idle
p213
atp214
a(L3333707777L
L0L
(lp215
(lp216
tp217
a(L3582858798L
L3785322319L
(lp218
(lp219
Vesp_rom_spiflash_wait_idle
p220
atp221
atp222
sI1074240276
(Vbootloader_sha256_start
p223
(lp224
(L4134328955L
L0L
(lp225
(lp226
tp227
atp228
sI1074238992
(Vlog_invalid_app_partition
p229
(lp230
(L4293078423L
L0L
(lp231
(lp232
tp233
a(L3028464L
L0L
(lp234
(lp235
tp236
a(L60127667L
L3785322319L
(lp237
(lp238
Vesp_log_early_timestamp
p239
atp240
a(L44113432L
L0L
(lp241
(lp242
tp243
a(L3360570486L
L0L
(lp244
(lp245
tp246
a(L1770519575L
L3785322319L
(lp247
(lp248
Vesp_log_early_timestamp
p249
atp250
a(L2524670070L
L3785322319L
(lp251
(lp252
Vesp_log_early_timestamp
p253
atp254
atp255
sI1074248208
(Vrtc_clk_cal_ratio
p256
(lp257
(L1321915745L
L3785322319L
(lp258
(lp259
Vrtc_clk_cal_internal
p260
atp261
atp262
sI1074243356
(Vesp_rom_spiflash_enable_write
p263
(lp264
(L212476449L
L3785322319L
(lp265
(lp266
Vesp_rom_spiflash_wait_idle
p267
atp268
a(L3137194272L
L0L
(lp269
(lp270
tp271
a(L2258718275L
L0L
(lp272
(lp273
tp274
a(L99543895L
L0L
(lp275
(lp276
tp277
a(L2993202392L
L0L
(lp278
(lp279
tp280
a(L1804543818L
L3785322319L
(lp281
(lp282
Vesp_rom_spiflash_read_status
p283
atp284
atp285
sI1074235672
(Vbootloader_flash_xmc_startup
p286
(lp287
(L4031258446L
L3785322319L
(lp288
(lp289
Vis_xmc_chip_strict
p290
atp291
a(L2258688482L
L0L
(lp292
(lp293
tp294
a(L3360570486L
L0L
(lp295
(lp296
tp297
a(L2860324232L
L3785322319L
(lp298
(lp299
Vbootloader_flash_read_sfdp
p300
atp301
a(L3354428414L
L2567856111L
(lp302
(lp303
Vesp_log_early_timestamp
p304
aVbootloader_execute_flash_command
p305
aVbootloader_execute_flash_command
p306
aVbootloader_execute_flash_command
p307
aVbootloader_execute_flash_command
p308
aVbootloader_read_flash_id
p309
aVis_xmc_chip_strict
p310
atp311
a(L3332645139L
L3785322319L
(lp312
(lp313
Vesp_log_early_timestamp
p314
atp315
atp316
sI1074246424
(Vrtc_clk_8md256_enabled
p317
(lp318
(L2910123117L
L0L
(lp319
(lp320
tp321
atp322
sI1074235940
(Vbootloader_flash_gpio_config
p323
(lp324
(L719792650L
L3785322319L
(lp325
(lp326
Vbootloader_common_get_chip_ver_pkg
p327
atp328
a(L106L
L0L
(lp329
(lp330
tp331
a(L2886083034L
L0L
(lp332
(lp333
tp334
a(L106L
L0L
(lp335
(lp336
tp337
a(L4213870169L
L0L
(lp338
(lp339
tp340
a(L3890032189L
L0L
(lp341
(lp342
tp343
a(L106L
L0L
(lp344
(lp345
tp346
a(L676119430L
L0L
(lp347
(lp348
tp349
a(L4272081986L
L0L
(lp350
(lp351
tp352
a(L3360570486L
L0L
(lp353
(lp354
tp355
atp356
sI1074245668
(Vwdt_hal_enable
p357
(lp358
(L4029830118L
L0L
(lp359
(lp360
tp361
a(L3634439744L
L0L
(lp362
(lp363
tp364
a(L3360570486L
L0L
(lp365
(lp366
tp367
a(L2011576586L
L0L
(lp368
(lp369
tp370
atp371
sI1074247460
(Vrtc_clk_cpu_freq_set_config
p372
(lp373
(L1591980960L
L3785322319L
(lp374
(lp375
Vrtc_clk_xtal_freq_get
p376
atp377
a(L1828795533L
L1880226080L
(lp378
(lp379
Vrtc_clk_cpu_freq_to_xtal
p380
aVrtc_clk_wait_for_slow_cycle
p381
atp382
a(L94425498L
L3785322319L
(lp383
(lp384
Vrtc_clk_bbpll_disable
p385
atp386
a(L3978916712L
L0L
(lp387
(lp388
tp389
a(L2977209154L
L0L
(lp390
(lp391
tp392
a(L2736411858L
L3785322319L
(lp393
(lp394
Vrtc_clk_cpu_freq_to_xtal
p395
atp396
a(L3360570486L
L0L
(lp397
(lp398
tp399
a(L3020187L
L0L
(lp400
(lp401
tp402
a(L106L
L0L
(lp403
(lp404
tp405
a(L3964531486L
L2485746240L
(lp406
(lp407
Vrtc_clk_wait_for_slow_cycle
p408
aVrtc_clk_xtal_freq_get
p409
aVrtc_clk_bbpll_configure
p410
aVrtc_clk_cpu_freq_to_pll_mhz
p411
atp412
a(L3020187L
L0L
(lp413
(lp414
tp415
a(L106L
L0L
(lp416
(lp417
tp418
a(L2214558639L
L0L
(lp419
(lp420
tp421
atp422
sI1074237728
(Vbootloader_flash_read
p423
(lp424
(L2699333355L
L0L
(lp425
(lp426
tp427
a(L1175362320L
L3785322319L
(lp428
(lp429
Vesp_log_early_timestamp
p430
atp431
a(L44113432L
L0L
(lp432
(lp433
tp434
a(L1299867982L
L0L
(lp435
(lp436
tp437
a(L3360570486L
L0L
(lp438
(lp439
tp440
a(L2660352519L
L0L
(lp441
(lp442
tp443
a(L521140592L
L3785322319L
(lp444
(lp445
Vesp_log_early_timestamp
p446
atp447
a(L162336582L
L0L
(lp448
(lp449
tp450
a(L1181808077L
L3785322319L
(lp451
(lp452
Vesp_log_early_timestamp
p453
atp454
a(L3020204L
L0L
(lp455
(lp456
tp457
a(L1398573769L
L0L
(lp458
(lp459
tp460
a(L97422L
L0L
(lp461
(lp462
tp463
a(L3753789769L
L0L
(lp464
(lp465
tp466
a(L3653028369L
L0L
(lp467
(lp468
tp469
a(L4242981970L
L3785322319L
(lp470
(lp471
Vesp_log_early_timestamp
p472
atp473
a(L4138677549L
L0L
(lp474
(lp475
tp476
a(L753544199L
L0L
(lp477
(lp478
tp479
a(L3408640340L
L1880226080L
(lp480
(lp481
Vesp_rom_spiflash_read
p482
aVspi_to_esp_err
p483
atp484
atp485
sI1074237472
(Vspi_to_esp_err
p486
(lp487
(L2933521939L
L0L
(lp488
(lp489
tp490
a(L366093042L
L0L
(lp491
(lp492
tp493
a(L3549545911L
L0L
(lp494
(lp495
tp496
a(L3126521138L
L0L
(lp497
(lp498
tp499
atp500
sI1074245932
(Vrtc_clk_cpu_freq_to_pll_mhz
p501
(lp502
(L428013989L
L0L
(lp503
(lp504
tp505
a(L106L
L0L
(lp506
(lp507
tp508
a(L1541997046L
L0L
(lp509
(lp510
tp511
a(L106L
L0L
(lp512
(lp513
tp514
a(L1546614651L
L0L
(lp515
(lp516
tp517
a(L2907368881L
L0L
(lp518
(lp519
tp520
a(L1231145073L
L3785322319L
(lp521
(lp522
Vrtc_clk_wait_for_slow_cycle
p523
atp524
a(L3451441343L
L1880226080L
(lp525
(lp526
Vesp_log_early_timestamp
p527
aVabort
p528
atp529
a(L1183020347L
L0L
(lp530
(lp531
tp532
a(L1305407562L
L0L
(lp533
(lp534
tp535
a(L1306330990L
L0L
(lp536
(lp537
tp538
atp539
sI1074267940
(Vbootloader_after_init
p540
(lp541
(L2845649572L
L3785322319L
(lp542
(lp543
Vesp_log_early_timestamp
p544
atp545
atp546
sI1074240296
(Vbootloader_sha256_data
p547
(lp548
(L4066096136L
L0L
(lp549
(lp550
tp551
a(L1563173327L
L0L
(lp552
(lp553
tp554
a(L2504541789L
L3785322319L
(lp555
(lp556
V__assert_func
p557
atp558
a(L498498478L
L0L
(lp559
(lp560
tp561
a(L4268756642L
L0L
(lp562
(lp563
tp564
a(L2910371777L
L0L
(lp565
(lp566
tp567
a(L3360570486L
L0L
(lp568
(lp569
tp570
a(L301121101L
L0L
(lp571
(lp572
tp573
a(L841847518L
L0L
(lp574
(lp575
tp576
a(L1586729644L
L0L
(lp577
(lp578
tp579
a(L2700619295L
L0L
(lp580
(lp581
tp582
a(L1175956750L
L0L
(lp583
(lp584
tp585
a(L1390602840L
L0L
(lp586
(lp587
tp588
a(L3028464L
L0L
(lp589
(lp590
tp591
a(L717127773L
L0L
(lp592
(lp593
tp594
a(L784960019L
L0L
(lp595
(lp596
tp597
atp598
sI1074270008
(Vbootloader_console_init
p599
(lp600
(L3274218838L
L1832448559L
(lp601
(lp602
Vesp_rom_uart_tx_wait_idle
p603
aVrtc_clk_apb_freq_get
p604
aVesp_rom_uart_set_clock_baudrate
p605
atp606
atp607
sI1074267964
(Vbootloader_common_vddsdio_configure
p608
(lp609
(L1922017289L
L3785322319L
(lp610
(lp611
Vrtc_vddsdio_get_config
p612
atp613
a(L3336520737L
L3785322319L
(lp614
(lp615
Vrtc_vddsdio_set_config
p616
atp617
a(L3360570486L
L0L
(lp618
(lp619
tp620
atp621
sI1074238000
(Vbootloader_flash_erase_sector
p622
(lp623
(L4129137686L
L1880226080L
(lp624
(lp625
Vesp_rom_spiflash_erase_sector
p626
aVspi_to_esp_err
p627
atp628
atp629
sI1074246448
(Vrtc_clk_slow_freq_set
p630
(lp631
(L2675301828L
L0L
(lp632
(lp633
tp634
atp635
sI1074248240
(Vrtc_clk_wait_for_slow_cycle
p636
(lp637
(L3016661646L
L0L
(lp638
(lp639
tp640
a(L287687718L
L0L
(lp641
(lp642
tp643
a(L3360570486L
L0L
(lp644
(lp645
tp646
a(L3986273454L
L0L
(lp647
(lp648
tp649
a(L2994547433L
L0L
(lp650
(lp651
tp652
a(L2509841317L
L0L
(lp653
(lp654
tp655
a(L3358736429L
L3785322319L
(lp656
(lp657
Vesp_log_early_timestamp
p658
atp659
atp660
sI1074247740
(Vrtc_clk_apb_freq_get
p661
(lp662
(L2039249796L
L0L
(lp663
(lp664
tp665
atp666
sI1074268980
(Vbootloader_clock_configure
p667
(lp668
(L1154001737L
L1880226080L
(lp669
(lp670
Vesp_rom_uart_tx_wait_idle
p671
aVefuse_hal_chip_revision
p672
atp673
a(L1972662797L
L0L
(lp674
(lp675
tp676
a(L88982239L
L3785322319L
(lp677
(lp678
Vrtc_clk_apb_freq_get
p679
atp680
a(L1127565710L
L1832448559L
(lp681
(lp682
Vrtc_clk_slow_freq_get
p683
aVrtc_clk_fast_freq_get
p684
aVrtc_clk_init
p685
atp686
a(L1903138725L
L0L
(lp687
(lp688
tp689
a(L2591778306L
L0L
(lp690
(lp691
tp692
a(L106L
L0L
(lp693
(lp694
tp695
atp696
sI1074270260
(Vrtc_clk_init
p697
(lp698
(L102094763L
L0L
(lp699
(lp700
tp701
a(L42671777L
L3785322319L
(lp702
(lp703
Vrtc_clk_cpu_freq_to_xtal
p704
atp705
a(L720805542L
L0L
(lp706
(lp707
tp708
a(L4184912069L
L0L
(lp709
(lp710
tp711
a(L2873281153L
L0L
(lp712
(lp713
tp714
a(L912414356L
L3785322319L
(lp715
(lp716
Vrtc_clk_xtal_freq_get
p717
atp718
a(L1062884688L
L1157885199L
(lp719
(lp720
Vesp_rom_uart_tx_wait_idle
p721
aVrtc_clk_xtal_freq_update
p722
aVrtc_clk_apb_freq_update
p723
aVrtc_clk_cpu_freq_get_config
p724
aVrtc_clk_cpu_freq_mhz_to_config
p725
atp726
a(L2280834568L
L1880226080L
(lp727
(lp728
Vesp_log_early_timestamp
p729
aVabort
p730
atp731
a(L4187693717L
L3785322319L
(lp732
(lp733
Vrtc_clk_xtal_freq_estimate
p734
atp735
a(L4233170988L
L3785322319L
(lp736
(lp737
Vesp_log_early_timestamp
p738
atp739
a(L4188325301L
L0L
(lp740
(lp741
tp742
a(L1563923531L
L0L
(lp743
(lp744
tp745
a(L106L
L0L
(lp746
(lp747
tp748
a(L4070631878L
L3785322319L
(lp749
(lp750
Vrtc_clk_xtal_freq_estimate
p751
atp752
a(L106L
L0L
(lp753
(lp754
tp755
a(L2105032355L
L3785322319L
(lp756
(lp757
Vesp_log_early_timestamp
p758
atp759
a(L3482129551L
L3785322319L
(lp760
(lp761
Vrtc_clk_cpu_freq_set_config
p762
atp763
a(L4168829660L
L3785322319L
(lp764
(lp765
Vrtc_clk_32k_enable
p766
atp767
a(L3016870L
L0L
(lp768
(lp769
tp770
a(L3323830154L
L3785322319L
(lp771
(lp772
Vrtc_clk_8m_enable
p773
atp774
a(L530469956L
L1880226080L
(lp775
(lp776
Vrtc_clk_fast_freq_set
p777
aVrtc_clk_slow_freq_set
p778
atp779
atp780
sI1074238020
(Vbootloader_flash_write
p781
(lp782
(L3119145091L
L0L
(lp783
(lp784
tp785
a(L962229776L
L3785322319L
(lp786
(lp787
Vesp_log_early_timestamp
p788
atp789
a(L44113432L
L0L
(lp790
(lp791
tp792
a(L1610445075L
L0L
(lp793
(lp794
tp795
a(L735741265L
L0L
(lp796
(lp797
tp798
a(L3291333414L
L0L
(lp799
(lp800
tp801
a(L2835528492L
L3785322319L
(lp802
(lp803
Vesp_log_early_timestamp
p804
atp805
a(L3283691850L
L0L
(lp806
(lp807
tp808
a(L3823398198L
L3785322319L
(lp809
(lp810
Vesp_log_early_timestamp
p811
atp812
a(L3212356251L
L3785322319L
(lp813
(lp814
Vbootloader_flash_unlock
p815
atp816
a(L1799218633L
L0L
(lp817
(lp818
tp819
a(L94425498L
L3785322319L
(lp820
(lp821
Vesp_rom_spiflash_write_encrypted
p822
atp823
a(L2927190544L
L3785322319L
(lp824
(lp825
Vspi_to_esp_err
p826
atp827
a(L2927190544L
L3785322319L
(lp828
(lp829
Vesp_rom_spiflash_write
p830
atp831
atp832
sI1074243908
(Vesp_rom_spiflash_write_encrypted
p833
(lp834
(L2107077087L
L0L
(lp835
(lp836
tp837
a(L2710764499L
L0L
(lp838
(lp839
tp840
a(L97689L
L0L
(lp841
(lp842
tp843
a(L3061232074L
L0L
(lp844
(lp845
tp846
a(L61243957L
L0L
(lp847
(lp848
tp849
a(L2903314395L
L3785322319L
(lp850
(lp851
Vesp_rom_spiflash_write
p852
atp853
a(L220838264L
L0L
(lp854
(lp855
tp856
a(L735741265L
L0L
(lp857
(lp858
tp859
atp860
sI1074246212
(Vrtc_clk_32k_enable
p861
(lp862
(L753387299L
L0L
(lp863
(lp864
tp865
a(L1067050752L
L3785322319L
(lp866
(lp867
Vrtc_clk_32k_enable_common
p868
atp869
a(L3360570486L
L0L
(lp870
(lp871
tp872
a(L2048424610L
L0L
(lp873
(lp874
tp875
atp876
sI1074237504
(Vbootloader_mmap
p877
(lp878
(L2059700562L
L0L
(lp879
(lp880
tp881
a(L3017932071L
L3785322319L
(lp882
(lp883
Vesp_log_early_timestamp
p884
atp885
a(L1182811810L
L0L
(lp886
(lp887
tp888
a(L3496950L
L0L
(lp889
(lp890
tp891
a(L1630759581L
L0L
(lp892
(lp893
tp894
a(L3536022130L
L3785322319L
(lp895
(lp896
Vesp_log_early_timestamp
p897
atp898
a(L1503832912L
L0L
(lp899
(lp900
tp901
a(L2005677777L
L3785322319L
(lp902
(lp903
Vesp_log_early_timestamp
p904
atp905
a(L1090567542L
L0L
(lp906
(lp907
tp908
atp909
sI1074236992
(Vesp_log_early_timestamp
p910
(lp911
(L3622092107L
L0L
(lp912
(lp913
tp914
atp915
sI1074241612
(Vshould_load
p916
(lp917
(L2819894745L
L0L
(lp918
(lp919
tp920
a(L1182990556L
L0L
(lp921
(lp922
tp923
a(L1780902349L
L0L
(lp924
(lp925
tp926
a(L1298905564L
L0L
(lp927
(lp928
tp929
a(L524505062L
L0L
(lp930
(lp931
tp932
a(L2258897019L
L0L
(lp933
(lp934
tp935
a(L3781799363L
L0L
(lp936
(lp937
tp938
a(L3028464L
L0L
(lp939
(lp940
tp941
a(L476756448L
L0L
(lp942
(lp943
tp944
a(L1004813886L
L0L
(lp945
(lp946
tp947
a(L3959408124L
L0L
(lp948
(lp949
tp950
a(L4185756579L
L0L
(lp951
(lp952
tp953
a(L3458855836L
L0L
(lp954
(lp955
tp956
a(L3126521138L
L0L
(lp957
(lp958
tp959
a(L1305407438L
L0L
(lp960
(lp961
tp962
a(L1305407469L
L0L
(lp963
(lp964
tp965
atp966
sI1074241096
(Vbootloader_util_regions_overlap
p967
(lp968
(L2762640130L
L0L
(lp969
(lp970
tp971
a(L486238211L
L0L
(lp972
(lp973
tp974
a(L3823861319L
L3785322319L
(lp975
(lp976
V__assert_func
p977
atp978
a(L97642L
L0L
(lp979
(lp980
tp981
a(L2752402003L
L0L
(lp982
(lp983
tp984
a(L366123053L
L0L
(lp985
(lp986
tp987
a(L2258867228L
L0L
(lp988
(lp989
tp990
a(L1253626734L
L0L
(lp991
(lp992
tp993
a(L2258897019L
L0L
(lp994
(lp995
tp996
a(L3109269495L
L0L
(lp997
(lp998
tp999
atp1000
sI1074238280
(Vbootloader_random_disable
p1001
(lp1002
(L2124996308L
L0L
(lp1003
(lp1004
tp1005
atp1006
sI1074270040
(Vesp_cpu_configure_region_protection
p1007
(lp1008
(L1941753066L
L0L
(lp1009
(lp1010
tp1011
a(L180431425L
L3785322319L
(lp1012
(lp1013
Vmpu_hal_set_region_access
p1014
atp1015
a(L2537388152L
L3785322319L
(lp1016
(lp1017
Vmpu_hal_set_region_access
p1018
atp1019
atp1020
sI1074268252
(Vbootloader_init
p1021
(lp1022
(L644760381L
L3785322319L
(lp1023
(lp1024
Vbootloader_init_mem
p1025
atp1026
a(L4277103200L
L0L
(lp1027
(lp1028
tp1029
a(L1257635098L
L3785322319L
(lp1030
(lp1031
V__assert_func
p1032
atp1033
a(L330053624L
L0L
(lp1034
(lp1035
tp1036
a(L3134276364L
L0L
(lp1037
(lp1038
tp1039
a(L2926278337L
L0L
(lp1040
(lp1041
tp1042
a(L1038804533L
L0L
(lp1043
(lp1044
tp1045
a(L3027019L
L0L
(lp1046
(lp1047
tp1048
a(L2612741625L
L0L
(lp1049
(lp1050
tp1051
a(L712625721L
L1832448559L
(lp1052
(lp1053
Vbootloader_clear_bss_section
p1054
aVbootloader_common_vddsdio_configure
p1055
aVbootloader_clock_get_rated_freq_mhz
p1056
atp1057
a(L3987130017L
L1157885199L
(lp1058
(lp1059
Vbootloader_clock_configure
p1060
aVbootloader_console_init
p1061
aVbootloader_print_banner
p1062
aVbootloader_flash_update_id
p1063
aVbootloader_flash_xmc_startup
p1064
atp1065
a(L410521787L
L3785322319L
(lp1066
(lp1067
Vesp_log_early_timestamp
p1068
atp1069
a(L458754727L
L3785322319L
(lp1070
(lp1071
Vesp_log_early_timestamp
p1072
atp1073
a(L3360570486L
L0L
(lp1074
(lp1075
tp1076
a(L2444883382L
L3785322319L
(lp1077
(lp1078
Vbootloader_read_bootloader_header
p1079
atp1080
a(L2444883382L
L3785322319L
(lp1081
(lp1082
Vbootloader_check_bootloader_validity
p1083
atp1084
a(L3285236601L
L2485746240L
(lp1085
(lp1086
Vbootloader_flash_gpio_config
p1087
aVbootloader_flash_dummy_config
p1088
aVbootloader_flash_cs_timing_config
p1089
aVbootloader_flash_unlock
p1090
atp1091
a(L2444415511L
L0L
(lp1092
(lp1093
tp1094
a(L1351713797L
L0L
(lp1095
(lp1096
tp1097
a(L3902505846L
L0L
(lp1098
(lp1099
tp1100
a(L1291300358L
L3785322319L
(lp1101
(lp1102
Vesp_log_early_timestamp
p1103
atp1104
a(L4072135181L
L0L
(lp1105
(lp1106
tp1107
a(L4053664761L
L0L
(lp1108
(lp1109
tp1110
a(L4025035610L
L0L
(lp1111
(lp1112
tp1113
a(L4028729694L
L0L
(lp1114
(lp1115
tp1116
a(L3201442535L
L0L
(lp1117
(lp1118
tp1119
a(L3660448177L
L3785322319L
(lp1120
(lp1121
Vesp_log_early_timestamp
p1122
atp1123
a(L93674324L
L0L
(lp1124
(lp1125
tp1126
a(L1255940953L
L0L
(lp1127
(lp1128
tp1129
a(L718637406L
L0L
(lp1130
(lp1131
tp1132
a(L2806127139L
L0L
(lp1133
(lp1134
tp1135
a(L2820911752L
L0L
(lp1136
(lp1137
tp1138
a(L3940864326L
L3785322319L
(lp1139
(lp1140
Vesp_log_early_timestamp
p1141
atp1142
a(L104277116L
L0L
(lp1143
(lp1144
tp1145
a(L2642220900L
L0L
(lp1146
(lp1147
tp1148
a(L819703139L
L0L
(lp1149
(lp1150
tp1151
a(L575140665L
L0L
(lp1152
(lp1153
tp1154
a(L539148750L
L3785322319L
(lp1155
(lp1156
Vbootloader_enable_wp
p1157
atp1158
a(L1092107084L
L0L
(lp1159
(lp1160
tp1161
a(L2294167429L
L3785322319L
(lp1162
(lp1163
Vesp_log_early_timestamp
p1164
atp1165
a(L3562778957L
L0L
(lp1166
(lp1167
tp1168
a(L569753936L
L0L
(lp1169
(lp1170
tp1171
a(L2902417580L
L0L
(lp1172
(lp1173
tp1174
a(L1944713791L
L1880226080L
(lp1175
(lp1176
Vwdt_reset_info_dump
p1177
aVwdt_reset_info_dump
p1178
atp1179
a(L352694926L
L1880226080L
(lp1180
(lp1181
Vbootloader_config_wdt
p1182
aVbootloader_enable_random
p1183
atp1184
a(L490746892L
L3785322319L
(lp1185
(lp1186
Vesp_log_early_timestamp
p1187
atp1188
atp1189
sI1074243416
(Vesp_rom_spiflash_program_page_internal
p1190
(lp1191
(L2569069283L
L0L
(lp1192
(lp1193
tp1194
a(L2258688483L
L0L
(lp1195
(lp1196
tp1197
a(L3360570486L
L0L
(lp1198
(lp1199
tp1200
a(L3649828145L
L0L
(lp1201
(lp1202
tp1203
a(L4235661475L
L3785322319L
(lp1204
(lp1205
Vesp_rom_spiflash_wait_idle
p1206
atp1207
a(L1299866312L
L0L
(lp1208
(lp1209
tp1210
a(L3212356251L
L3785322319L
(lp1211
(lp1212
Vesp_rom_spiflash_enable_write
p1213
atp1214
a(L334355199L
L0L
(lp1215
(lp1216
tp1217
a(L3721244181L
L0L
(lp1218
(lp1219
tp1220
a(L2953702749L
L0L
(lp1221
(lp1222
tp1223
a(L2989032L
L0L
(lp1224
(lp1225
tp1226
a(L1965622133L
L0L
(lp1227
(lp1228
tp1229
a(L3994676957L
L0L
(lp1230
(lp1231
tp1232
a(L1958113242L
L0L
(lp1233
(lp1234
tp1235
a(L106L
L0L
(lp1236
(lp1237
tp1238
a(L4283177684L
L0L
(lp1239
(lp1240
tp1241
a(L1405253496L
L0L
(lp1242
(lp1243
tp1244
a(L1008982319L
L0L
(lp1245
(lp1246
tp1247
a(L1933954923L
L0L
(lp1248
(lp1249
tp1250
a(L3886319556L
L0L
(lp1251
(lp1252
tp1253
a(L2767679583L
L0L
(lp1254
(lp1255
tp1256
atp1257
sI1074236760
(Vefuse_hal_chip_revision
p1258
(lp1259
(L1761205471L
L1880226080L
(lp1260
(lp1261
Vefuse_hal_get_major_chip_version
p1262
aVefuse_hal_get_minor_chip_version
p1263
atp1264
atp1265
sI1074239076
(Vset_actual_ota_seq
p1266
(lp1267
(L2590207476L
L1832448559L
(lp1268
(lp1269
Vbootloader_common_ota_select_crc
p1270
aVefuse_hal_flash_encryption_enabled
p1271
aVbootloader_flash_erase_sector
p1272
atp1273
a(L3292941333L
L3785322319L
(lp1274
(lp1275
Vbootloader_flash_write
p1276
atp1277
a(L3725205052L
L3785322319L
(lp1278
(lp1279
Vesp_log_early_timestamp
p1280
atp1281
a(L3876573963L
L3785322319L
(lp1282
(lp1283
Vesp_log_early_timestamp
p1284
atp1285
atp1286
sI1074237024
(Vbootloader_common_ota_select_crc
p1287
(lp1288
(L943698951L
L0L
(lp1289
(lp1290
tp1291
atp1292
sI1074242912
(Vbootloader_load_image
p1293
(lp1294
(L1155870502L
L3785322319L
(lp1295
(lp1296
Vimage_load
p1297
atp1298
atp1299
sI1074269792
(Vbootloader_config_wdt
p1300
(lp1301
(L2399946503L
L505859776L
(lp1302
(lp1303
Vwdt_hal_write_protect_disable
p1304
aVwdt_hal_set_flashboot_en
p1305
aVwdt_hal_write_protect_enable
p1306
aVwdt_hal_init
p1307
aVrtc_clk_slow_freq_get_hz
p1308
aVwdt_hal_write_protect_disable
p1309
aVwdt_hal_config_stage
p1310
aVwdt_hal_enable
p1311
aVwdt_hal_write_protect_enable
p1312
aVwdt_hal_write_protect_disable
p1313
aVwdt_hal_set_flashboot_en
p1314
aVwdt_hal_write_protect_enable
p1315
atp1316
atp1317
sI1074245740
(Vwdt_hal_set_flashboot_en
p1318
(lp1319
(L2375320464L
L0L
(lp1320
(lp1321
tp1322
a(L2716561907L
L0L
(lp1323
(lp1324
tp1325
a(L3360570486L
L0L
(lp1326
(lp1327
tp1328
a(L996440984L
L0L
(lp1329
(lp1330
tp1331
atp1332
sI1074247016
(Vrtc_clk_xtal_freq_get
p1333
(lp1334
(L1197992749L
L0L
(lp1335
(lp1336
tp1337
a(L2847936993L
L0L
(lp1338
(lp1339
tp1340
a(L2868048551L
L0L
(lp1341
(lp1342
tp1343
a(L3360570486L
L0L
(lp1344
(lp1345
tp1346
atp1347
sI1074247272
(Vrtc_clk_xtal_freq_update
p1348
(lp1349
(L1200971062L
L0L
(lp1350
(lp1351
tp1352
a(L3509357017L
L0L
(lp1353
(lp1354
tp1355
a(L3020103887L
L0L
(lp1356
(lp1357
tp1358
atp1359
sI1074247784
(Vrtc_clk_cal_internal
p1360
(lp1361
(L2839534936L
L0L
(lp1362
(lp1363
tp1364
a(L2905548494L
L3785322319L
(lp1365
(lp1366
V__assert_func
p1367
atp1368
a(L2570522997L
L0L
(lp1369
(lp1370
tp1371
a(L3017366L
L0L
(lp1372
(lp1373
tp1374
a(L2781091364L
L0L
(lp1375
(lp1376
tp1377
a(L4169864463L
L1880226080L
(lp1378
(lp1379
Vrtc_clk_8m_enabled
p1380
aVrtc_clk_8md256_enabled
p1381
atp1382
a(L4286589987L
L3785322319L
(lp1383
(lp1384
Vrtc_clk_8m_enable
p1385
atp1386
a(L1052965478L
L0L
(lp1387
(lp1388
tp1389
a(L3502850147L
L0L
(lp1390
(lp1391
tp1392
a(L97689L
L0L
(lp1393
(lp1394
tp1395
a(L2473147788L
L0L
(lp1396
(lp1397
tp1398
a(L3028464L
L0L
(lp1399
(lp1400
tp1401
a(L3028481L
L0L
(lp1402
(lp1403
tp1404
a(L3450259565L
L0L
(lp1405
(lp1406
tp1407
a(L2839590900L
L3785322319L
(lp1408
(lp1409
Vrtc_clk_xtal_freq_get
p1410
atp1411
a(L2780079961L
L0L
(lp1412
(lp1413
tp1414
a(L2536048172L
L0L
(lp1415
(lp1416
tp1417
a(L3420444319L
L3785322319L
(lp1418
(lp1419
Vesp_log_early_timestamp
p1420
atp1421
a(L3360570486L
L0L
(lp1422
(lp1423
tp1424
a(L4135273484L
L0L
(lp1425
(lp1426
tp1427
a(L748565485L
L0L
(lp1428
(lp1429
tp1430
a(L3028481L
L0L
(lp1431
(lp1432
tp1433
a(L4112420445L
L0L
(lp1434
(lp1435
tp1436
a(L755155573L
L3785322319L
(lp1437
(lp1438
Vrtc_clk_8m_enable
p1439
atp1440
a(L3631005548L
L0L
(lp1441
(lp1442
tp1443
a(L2456680904L
L0L
(lp1444
(lp1445
tp1446
a(L3352263364L
L0L
(lp1447
(lp1448
tp1449
atp1450
sI1074237044
(Vbootloader_common_ota_select_valid
p1451
(lp1452
(L1563399710L
L3785322319L
(lp1453
(lp1454
Vbootloader_common_ota_select_invalid
p1455
atp1456
a(L3814720849L
L3785322319L
(lp1457
(lp1458
Vbootloader_common_ota_select_crc
p1459
atp1460
a(L3360570486L
L0L
(lp1461
(lp1462
tp1463
atp1464
sI1074235252
(Vbootloader_execute_flash_command
p1465
(lp1466
(L2481595632L
L3785322319L
(lp1467
(lp1468
Vbootloader_flash_execute_command_common
p1469
atp1470
atp1471
sI1074246516
(Vrtc_clk_slow_freq_get
p1472
(lp1473
(L3496640438L
L0L
(lp1474
(lp1475
tp1476
atp1477
sI1074242928
(Vesp_partition_table_verify
p1478
(lp1479
(L1518656766L
L0L
(lp1480
(lp1481
tp1482
a(L2872654191L
L0L
(lp1483
(lp1484
tp1485
a(L4287435191L
L0L
(lp1486
(lp1487
tp1488
a(L2910371777L
L0L
(lp1489
(lp1490
tp1491
a(L2810785767L
L0L
(lp1492
(lp1493
tp1494
a(L3360570486L
L0L
(lp1495
(lp1496
tp1497
a(L2334946637L
L0L
(lp1498
(lp1499
tp1500
a(L2478753082L
L0L
(lp1501
(lp1502
tp1503
a(L3020204L
L0L
(lp1504
(lp1505
tp1506
a(L1688188261L
L3785322319L
(lp1507
(lp1508
Vesp_log_early_timestamp
p1509
atp1510
a(L1031066118L
L3785322319L
(lp1511
(lp1512
Vesp_log_early_timestamp
p1513
atp1514
a(L3848731295L
L0L
(lp1515
(lp1516
tp1517
a(L2902417580L
L0L
(lp1518
(lp1519
tp1520
a(L3020204L
L0L
(lp1521
(lp1522
tp1523
a(L2825404274L
L3785322319L
(lp1524
(lp1525
Vesp_log_early_timestamp
p1526
atp1527
a(L1367516498L
L0L
(lp1528
(lp1529
tp1530
a(L3291987620L
L0L
(lp1531
(lp1532
tp1533
a(L2902417580L
L0L
(lp1534
(lp1535
tp1536
a(L1688186804L
L3785322319L
(lp1537
(lp1538
Vesp_log_early_timestamp
p1539
atp1540
a(L1613213999L
L0L
(lp1541
(lp1542
tp1543
a(L1167861556L
L0L
(lp1544
(lp1545
tp1546
a(L3260980605L
L0L
(lp1547
(lp1548
tp1549
a(L2910371777L
L0L
(lp1550
(lp1551
tp1552
a(L1235012932L
L0L
(lp1553
(lp1554
tp1555
a(L2646947635L
L3785322319L
(lp1556
(lp1557
Vesp_log_early_timestamp
p1558
atp1559
atp1560
sI1074268016
(Vbootloader_common_get_reset_reason
p1561
(lp1562
(L3029091307L
L0L
(lp1563
(lp1564
tp1565
atp1566
sI1074244732
(Vwdt_hal_init
p1567
(lp1568
(L679162730L
L0L
(lp1569
(lp1570
tp1571
a(L369135652L
L0L
(lp1572
(lp1573
tp1574
a(L2805933837L
L0L
(lp1575
(lp1576
tp1577
a(L2550927442L
L0L
(lp1578
(lp1579
tp1580
a(L1390686929L
L0L
(lp1581
(lp1582
tp1583
a(L3360570486L
L0L
(lp1584
(lp1585
tp1586
a(L901431428L
L0L
(lp1587
(lp1588
tp1589
atp1590
sI1074236792
(Vefuse_hal_flash_encryption_enabled
p1591
(lp1592
(L2780109918L
L0L
(lp1593
(lp1594
tp1595
a(L2910371777L
L0L
(lp1596
(lp1597
tp1598
a(L3360570486L
L0L
(lp1599
(lp1600
tp1601
a(L3016870L
L0L
(lp1602
(lp1603
tp1604
a(L3745038218L
L0L
(lp1605
(lp1606
tp1607
a(L957607403L
L0L
(lp1608
(lp1609
tp1610
atp1611
sI1074239608
(Vbootloader_utility_get_selected_boot_partition
p1612
(lp1613
(L2184143128L
L0L
(lp1614
(lp1615
tp1616
a(L3648837801L
L0L
(lp1617
(lp1618
tp1619
a(L3739057596L
L3785322319L
(lp1620
(lp1621
Vesp_log_early_timestamp
p1622
atp1623
a(L4026981588L
L0L
(lp1624
(lp1625
tp1626
a(L3360570486L
L0L
(lp1627
(lp1628
tp1629
a(L1375577398L
L3785322319L
(lp1630
(lp1631
Vbootloader_mmap
p1632
atp1633
a(L3668558090L
L3785322319L
(lp1634
(lp1635
Vesp_log_early_timestamp
p1636
atp1637
a(L3744659248L
L1880226080L
(lp1638
(lp1639
Vbootloader_munmap
p1640
aVbootloader_common_ota_select_invalid
p1641
atp1642
a(L1103573946L
L0L
(lp1643
(lp1644
tp1645
a(L1876835593L
L3785322319L
(lp1646
(lp1647
Vbootloader_common_get_active_otadata
p1648
atp1649
a(L106L
L0L
(lp1650
(lp1651
tp1652
a(L569346373L
L0L
(lp1653
(lp1654
tp1655
a(L788494392L
L3785322319L
(lp1656
(lp1657
Vbootloader_common_ota_select_invalid
p1658
atp1659
a(L2675958250L
L0L
(lp1660
(lp1661
tp1662
a(L4156538522L
L3785322319L
(lp1663
(lp1664
Vesp_log_early_timestamp
p1665
atp1666
a(L3946700466L
L3785322319L
(lp1667
(lp1668
Vesp_log_early_timestamp
p1669
atp1670
a(L505081345L
L0L
(lp1671
(lp1672
tp1673
a(L919052234L
L3785322319L
(lp1674
(lp1675
Vbootloader_common_ota_select_crc
p1676
atp1677
a(L2287680455L
L0L
(lp1678
(lp1679
tp1680
a(L3542558037L
L3785322319L
(lp1681
(lp1682
Vbootloader_common_ota_select_crc
p1683
atp1684
a(L1299866312L
L0L
(lp1685
(lp1686
tp1687
a(L3205436778L
L0L
(lp1688
(lp1689
tp1690
a(L3195943282L
L3785322319L
(lp1691
(lp1692
Vesp_log_early_timestamp
p1693
atp1694
a(L1367516498L
L0L
(lp1695
(lp1696
tp1697
a(L4142618861L
L3785322319L
(lp1698
(lp1699
Vesp_log_early_timestamp
p1700
atp1701
atp1702
sI1074270088
(Vrtc_clk_xtal_freq_estimate
p1703
(lp1704
(L2516060585L
L1880226080L
(lp1705
(lp1706
Vrtc_clk_8m_enabled
p1707
aVrtc_clk_8md256_enabled
p1708
atp1709
a(L967485502L
L3785322319L
(lp1710
(lp1711
Vrtc_clk_8m_enable
p1712
atp1713
a(L1110162293L
L3785322319L
(lp1714
(lp1715
Vrtc_clk_cal_ratio
p1716
atp1717
a(L93674324L
L0L
(lp1718
(lp1719
tp1720
a(L3910042627L
L0L
(lp1721
(lp1722
tp1723
a(L1299866334L
L0L
(lp1724
(lp1725
tp1726
a(L3360570486L
L0L
(lp1727
(lp1728
tp1729
a(L3936819466L
L0L
(lp1730
(lp1731
tp1732
a(L3982077265L
L0L
(lp1733
(lp1734
tp1735
a(L1641150486L
L0L
(lp1736
(lp1737
tp1738
a(L489920136L
L3785322319L
(lp1739
(lp1740
Vesp_log_early_timestamp
p1741
atp1742
a(L1039439364L
L3785322319L
(lp1743
(lp1744
Vesp_log_early_timestamp
p1745
atp1746
a(L1895182898L
L3785322319L
(lp1747
(lp1748
Vesp_log_early_timestamp
p1749
atp1750
atp1751
sI1074238596
(Vbootloader_clock_get_rated_freq_mhz
p1752
(lp1753
(L376617603L
L3785322319L
(lp1754
(lp1755
Vefuse_hal_get_rated_freq_mhz
p1756
atp1757
atp1758
sI1074246532
(Vrtc_clk_slow_freq_get_hz
p1759
(lp1760
(L3773773206L
L0L
(lp1761
(lp1762
tp1763
a(L3642722998L
L0L
(lp1764
(lp1765
tp1766
a(L858011593L
L0L
(lp1767
(lp1768
tp1769
a(L3360570486L
L0L
(lp1770
(lp1771
tp1772
atp1773
sI1074246272
(Vrtc_clk_8m_enable
p1774
(lp1775
(L2831000540L
L0L
(lp1776
(lp1777
tp1778
a(L309349265L
L0L
(lp1779
(lp1780
tp1781
a(L2151320156L
L0L
(lp1782
(lp1783
tp1784
a(L1391734358L
L0L
(lp1785
(lp1786
tp1787
a(L3360570486L
L0L
(lp1788
(lp1789
tp1790
a(L1318267208L
L0L
(lp1791
(lp1792
tp1793
a(L2514659872L
L0L
(lp1794
(lp1795
tp1796
atp1797
sI1074241152
(Vverify_load_addresses
p1798
(lp1799
(L2763563698L
L0L
(lp1800
(lp1801
tp1802
a(L106L
L0L
(lp1803
(lp1804
tp1805
a(L97642L
L0L
(lp1806
(lp1807
tp1808
a(L2952239952L
L3785322319L
(lp1809
(lp1810
V__assert_func
p1811
atp1812
a(L1902503151L
L0L
(lp1813
(lp1814
tp1815
a(L106L
L0L
(lp1816
(lp1817
tp1818
a(L3433004918L
L0L
(lp1819
(lp1820
tp1821
a(L106L
L0L
(lp1822
(lp1823
tp1824
a(L2295851402L
L3785322319L
(lp1825
(lp1826
Vbootloader_util_regions_overlap
p1827
atp1828
a(L3129832310L
L3785322319L
(lp1829
(lp1830
Vbootloader_util_regions_overlap
p1831
atp1832
a(L3028481L
L0L
(lp1833
(lp1834
tp1835
a(L4008903006L
L3785322319L
(lp1836
(lp1837
Vbootloader_util_regions_overlap
p1838
atp1839
a(L810308952L
L0L
(lp1840
(lp1841
tp1842
a(L1770664004L
L0L
(lp1843
(lp1844
tp1845
a(L151109921L
L0L
(lp1846
(lp1847
tp1848
a(L2015090525L
L0L
(lp1849
(lp1850
tp1851
a(L642339957L
L0L
(lp1852
(lp1853
tp1854
a(L677569396L
L3785322319L
(lp1855
(lp1856
Vverify_load_addresses
p1857
atp1858
a(L1351513776L
L0L
(lp1859
(lp1860
tp1861
a(L2071984958L
L0L
(lp1862
(lp1863
tp1864
a(L957547170L
L0L
(lp1865
(lp1866
tp1867
a(L3693032374L
L3785322319L
(lp1868
(lp1869
Vbootloader_util_regions_overlap
p1870
atp1871
a(L3028481L
L0L
(lp1872
(lp1873
tp1874
a(L2780947582L
L3785322319L
(lp1875
(lp1876
Vbootloader_util_regions_overlap
p1877
atp1878
a(L1826055167L
L0L
(lp1879
(lp1880
tp1881
a(L3901439154L
L0L
(lp1882
(lp1883
tp1884
a(L1280432842L
L0L
(lp1885
(lp1886
tp1887
a(L4075086914L
L0L
(lp1888
(lp1889
tp1890
a(L307916966L
L0L
(lp1891
(lp1892
tp1893
a(L697239146L
L0L
(lp1894
(lp1895
tp1896
a(L106L
L0L
(lp1897
(lp1898
tp1899
a(L955484020L
L0L
(lp1900
(lp1901
tp1902
a(L307916753L
L0L
(lp1903
(lp1904
tp1905
a(L490080443L
L0L
(lp1906
(lp1907
tp1908
a(L106L
L0L
(lp1909
(lp1910
tp1911
a(L1287163434L
L3785322319L
(lp1912
(lp1913
Vesp_log_early_timestamp
p1914
atp1915
a(L955485353L
L0L
(lp1916
(lp1917
tp1918
a(L1303560427L
L0L
(lp1919
(lp1920
tp1921
atp1922
sI1074268032
(Vwdt_reset_info_dump
p1923
(lp1924
(L4037466985L
L0L
(lp1925
(lp1926
tp1927
a(L2684131747L
L0L
(lp1928
(lp1929
tp1930
a(L1777880788L
L0L
(lp1931
(lp1932
tp1933
a(L1103285333L
L0L
(lp1934
(lp1935
tp1936
a(L461296667L
L3785322319L
(lp1937
(lp1938
Vesp_log_early_timestamp
p1939
atp1940
a(L2967992533L
L0L
(lp1941
(lp1942
tp1943
a(L4142802449L
L3785322319L
(lp1944
(lp1945
Vesp_log_early_timestamp
p1946
atp1947
a(L4084437322L
L0L
(lp1948
(lp1949
tp1950
atp1951
sI1074236556
(Vbootloader_common_get_chip_ver_pkg
p1952
(lp1953
(L1176319107L
L0L
(lp1954
(lp1955
tp1956
atp1957
sI1074237324
(Vbootloader_common_get_active_otadata
p1958
(lp1959
(L3317503532L
L0L
(lp1960
(lp1961
tp1962
a(L2503049265L
L1832448559L
(lp1963
(lp1964
Vbootloader_common_ota_select_valid
p1965
aVbootloader_common_ota_select_valid
p1966
aVbootloader_common_select_otadata
p1967
atp1968
a(L735741265L
L0L
(lp1969
(lp1970
tp1971
atp1972
sI1074240904
(Vprocess_image_header
p1973
(lp1974
(L634255103L
L3785322319L
(lp1975
(lp1976
Vbootloader_flash_read
p1977
atp1978
a(L3020204L
L0L
(lp1979
(lp1980
tp1981
a(L1583805461L
L0L
(lp1982
(lp1983
tp1984
a(L1727394037L
L0L
(lp1985
(lp1986
tp1987
a(L1161397362L
L3785322319L
(lp1988
(lp1989
Vbootloader_sha256_start
p1990
atp1991
a(L1948257695L
L3785322319L
(lp1992
(lp1993
Vbootloader_sha256_data
p1994
atp1995
a(L1095449651L
L0L
(lp1996
(lp1997
tp1998
a(L3020204L
L0L
(lp1999
(lp2000
tp2001
a(L702739623L
L0L
(lp2002
(lp2003
tp2004
a(L3360570486L
L0L
(lp2005
(lp2006
tp2007
a(L1740884593L
L3785322319L
(lp2008
(lp2009
Vesp_log_early_timestamp
p2010
atp2011
a(L3718883008L
L3785322319L
(lp2012
(lp2013
Vbootloader_common_check_chip_validity
p2014
atp2015
a(L3677035427L
L0L
(lp2016
(lp2017
tp2018
a(L3028481L
L0L
(lp2019
(lp2020
tp2021
a(L2166811440L
L3785322319L
(lp2022
(lp2023
Vesp_log_early_timestamp
p2024
atp2025
a(L2250109166L
L0L
(lp2026
(lp2027
tp2028
a(L1235012870L
L0L
(lp2029
(lp2030
tp2031
a(L3063569071L
L0L
(lp2032
(lp2033
tp2034
atp2035
sI1074235284
(Vbootloader_flash_unlock
p2036
(lp2037
(L142706334L
L3785322319L
(lp2038
(lp2039
Vesp_rom_spiflash_wait_idle
p2040
atp2041
a(L4024621237L
L0L
(lp2042
(lp2043
tp2044
a(L4292483033L
L3785322319L
(lp2045
(lp2046
Vbootloader_execute_flash_command
p2047
atp2048
a(L106L
L0L
(lp2049
(lp2050
tp2051
a(L1303560644L
L0L
(lp2052
(lp2053
tp2054
a(L1419965066L
L0L
(lp2055
(lp2056
tp2057
a(L106L
L0L
(lp2058
(lp2059
tp2060
a(L1633120054L
L0L
(lp2061
(lp2062
tp2063
a(L106L
L0L
(lp2064
(lp2065
tp2066
a(L2974484771L
L0L
(lp2067
(lp2068
tp2069
a(L106L
L0L
(lp2070
(lp2071
tp2072
a(L1481761147L
L1880226080L
(lp2073
(lp2074
Vbootloader_execute_flash_command
p2075
aVbootloader_execute_flash_command
p2076
atp2077
a(L2258807654L
L0L
(lp2078
(lp2079
tp2080
a(L489806350L
L1832448559L
(lp2081
(lp2082
Vesp_rom_spiflash_wait_idle
p2083
aVbootloader_execute_flash_command
p2084
aVbootloader_execute_flash_command
p2085
atp2086
a(L879744646L
L1832448559L
(lp2087
(lp2088
Vesp_rom_spiflash_wait_idle
p2089
aVbootloader_execute_flash_command
p2090
aVbootloader_execute_flash_command
p2091
atp2092
a(L1840772931L
L1880226080L
(lp2093
(lp2094
Vesp_rom_spiflash_wait_idle
p2095
aVbootloader_execute_flash_command
p2096
atp2097
a(L2993202392L
L0L
(lp2098
(lp2099
tp2100
a(L508800419L
L1880226080L
(lp2101
(lp2102
Vbootloader_execute_flash_command
p2103
aVbootloader_execute_flash_command
p2104
atp2105
a(L1303560369L
L0L
(lp2106
(lp2107
tp2108
a(L1596544945L
L0L
(lp2109
(lp2110
tp2111
a(L97689L
L0L
(lp2112
(lp2113
tp2114
a(L106L
L0L
(lp2115
(lp2116
tp2117
atp2118
sI1074247316
(Vrtc_clk_apb_freq_update
p2119
(lp2120
(L1310529756L
L0L
(lp2121
(lp2122
tp2123
atp2124
sI1074270876
(Vrtc_vddsdio_set_config
p2125
(lp2126
(L1179750148L
L0L
(lp2127
(lp2128
tp2129
atp2130
sI1074238608
(Vload_image
p2131
(lp2132
(L3679617832L
L1832448559L
(lp2133
(lp2134
Vesp_log_early_timestamp
p2135
aVbootloader_random_disable
p2136
aVbootloader_ana_clock_glitch_reset_config
p2137
atp2138
a(L2118498116L
L0L
(lp2139
(lp2140
tp2141
a(L106L
L0L
(lp2142
(lp2143
tp2144
a(L4186884272L
L0L
(lp2145
(lp2146
tp2147
a(L751966648L
L0L
(lp2148
(lp2149
tp2150
a(L3268103L
L0L
(lp2151
(lp2152
tp2153
a(L741069426L
L3785322319L
(lp2154
(lp2155
Vbootloader_console_deinit
p2156
atp2157
a(L2307067884L
L0L
(lp2158
(lp2159
tp2160
a(L3020204L
L0L
(lp2161
(lp2162
tp2163
a(L2722520990L
L3785322319L
(lp2164
(lp2165
Vesp_log_early_timestamp
p2166
atp2167
a(L117980938L
L0L
(lp2168
(lp2169
tp2170
a(L1341709798L
L0L
(lp2171
(lp2172
tp2173
a(L3020204L
L0L
(lp2174
(lp2175
tp2176
a(L1017231636L
L3785322319L
(lp2177
(lp2178
Vesp_log_early_timestamp
p2179
atp2180
a(L233635238L
L0L
(lp2181
(lp2182
tp2183
a(L2488949783L
L0L
(lp2184
(lp2185
tp2186
atp2187
sI1074240656
(Vbootloader_console_deinit
p2188
(lp2189
(L2488395335L
L0L
(lp2190
(lp2191
tp2192
atp2193
sI1074242448
(Vimage_load
p2194
(lp2195
(L745499722L
L0L
(lp2196
(lp2197
tp2198
a(L1899869538L
L0L
(lp2199
(lp2200
tp2201
a(L9219888L
L0L
(lp2202
(lp2203
tp2204
a(L4132382653L
L0L
(lp2205
(lp2206
tp2207
a(L3020187L
L0L
(lp2208
(lp2209
tp2210
a(L955629275L
L3785322319L
(lp2211
(lp2212
Vesp_log_early_timestamp
p2213
atp2214
a(L2068384292L
L0L
(lp2215
(lp2216
tp2217
a(L1968553470L
L3785322319L
(lp2218
(lp2219
Vbootloader_sha256_finish
p2220
atp2221
a(L4106693507L
L0L
(lp2222
(lp2223
tp2224
a(L3271848319L
L0L
(lp2225
(lp2226
tp2227
a(L1182930974L
L0L
(lp2228
(lp2229
tp2230
a(L3678851644L
L3785322319L
(lp2231
(lp2232
Vprocess_image_header
p2233
atp2234
a(L1341816907L
L0L
(lp2235
(lp2236
tp2237
a(L909494482L
L0L
(lp2238
(lp2239
tp2240
a(L1028073566L
L3785322319L
(lp2241
(lp2242
Vprocess_segments
p2243
atp2244
a(L3803885910L
L0L
(lp2245
(lp2246
tp2247
a(L94425498L
L3785322319L
(lp2248
(lp2249
Vesp_cpu_in_ocd_debug_mode
p2250
atp2251
a(L454195650L
L3785322319L
(lp2252
(lp2253
Vprocess_checksum
p2254
atp2255
a(L1651117269L
L3785322319L
(lp2256
(lp2257
Vprocess_appended_hash_and_sig
p2258
atp2259
a(L533710513L
L0L
(lp2260
(lp2261
tp2262
a(L505081362L
L0L
(lp2263
(lp2264
tp2265
a(L3212356251L
L3785322319L
(lp2266
(lp2267
Vesp_cpu_in_ocd_debug_mode
p2268
atp2269
a(L3885489389L
L1880226080L
(lp2270
(lp2271
Vbootloader_sha256_finish
p2272
aVbootloader_debug_buffer
p2273
atp2274
a(L2959909343L
L1880226080L
(lp2275
(lp2276
Vesp_log_early_timestamp
p2277
aVbootloader_debug_buffer
p2278
atp2279
a(L978077504L
L0L
(lp2280
(lp2281
tp2282
a(L2068384292L
L0L
(lp2283
(lp2284
tp2285
a(L858449684L
L3785322319L
(lp2286
(lp2287
Vbootloader_sha256_finish
p2288
atp2289
a(L3028481L
L0L
(lp2290
(lp2291
tp2292
a(L93674324L
L0L
(lp2293
(lp2294
tp2295
a(L789658747L
L0L
(lp2296
(lp2297
tp2298
a(L2429164518L
L0L
(lp2299
(lp2300
tp2301
a(L3553619191L
L0L
(lp2302
(lp2303
tp2304
a(L85798113L
L0L
(lp2305
(lp2306
tp2307
a(L464010095L
L0L
(lp2308
(lp2309
tp2310
a(L835563811L
L3785322319L
(lp2311
(lp2312
Vshould_load
p2313
atp2314
a(L1358360603L
L0L
(lp2315
(lp2316
tp2317
a(L4224160879L
L0L
(lp2318
(lp2319
tp2320
a(L22884489L
L0L
(lp2321
(lp2322
tp2323
a(L741351569L
L0L
(lp2324
(lp2325
tp2326
a(L434644776L
L0L
(lp2327
(lp2328
tp2329
a(L106L
L0L
(lp2330
(lp2331
tp2332
a(L709419389L
L0L
(lp2333
(lp2334
tp2335
a(L1299866312L
L0L
(lp2336
(lp2337
tp2338
atp2339
sI1074243216
(Vesp_rom_spiflash_read_status
p2340
(lp2341
(L3562601385L
L0L
(lp2342
(lp2343
tp2344
a(L1182811815L
L0L
(lp2345
(lp2346
tp2347
a(L4009779817L
L0L
(lp2348
(lp2349
tp2350
a(L106L
L0L
(lp2351
(lp2352
tp2353
a(L1380309822L
L0L
(lp2354
(lp2355
tp2356
a(L4004659960L
L0L
(lp2357
(lp2358
tp2359
a(L2123059967L
L0L
(lp2360
(lp2361
tp2362
a(L1973734210L
L0L
(lp2363
(lp2364
tp2365
a(L2392720019L
L0L
(lp2366
(lp2367
tp2368
atp2369
sI1074247056
(Vrtc_clk_cpu_freq_mhz_to_config
p2370
(lp2371
(L2601984125L
L3785322319L
(lp2372
(lp2373
Vrtc_clk_xtal_freq_get
p2374
atp2375
a(L2089656409L
L0L
(lp2376
(lp2377
tp2378
a(L3814337874L
L0L
(lp2379
(lp2380
tp2381
a(L3126521138L
L0L
(lp2382
(lp2383
tp2384
a(L2762074623L
L0L
(lp2385
(lp2386
tp2387
a(L1541996779L
L0L
(lp2388
(lp2389
tp2390
a(L2916936348L
L0L
(lp2391
(lp2392
tp2393
a(L1555485793L
L0L
(lp2394
(lp2395
tp2396
a(L2258897023L
L0L
(lp2397
(lp2398
tp2399
a(L1947499251L
L0L
(lp2400
(lp2401
tp2402
a(L1306331021L
L0L
(lp2403
(lp2404
tp2405
atp2406
sI1074243996
(Vesp_rom_spiflash_read
p2407
(lp2408
(L3733264284L
L0L
(lp2409
(lp2410
tp2411
a(L2067992876L
L0L
(lp2412
(lp2413
tp2414
a(L2860271684L
L0L
(lp2415
(lp2416
tp2417
a(L3017366L
L0L
(lp2418
(lp2419
tp2420
a(L106L
L0L
(lp2421
(lp2422
tp2423
a(L599492143L
L0L
(lp2424
(lp2425
tp2426
a(L106L
L0L
(lp2427
(lp2428
tp2429
a(L3815944725L
L0L
(lp2430
(lp2431
tp2432
a(L2845455366L
L0L
(lp2433
(lp2434
tp2435
a(L89392942L
L0L
(lp2436
(lp2437
tp2438
a(L3413778373L
L0L
(lp2439
(lp2440
tp2441
a(L106L
L0L
(lp2442
(lp2443
tp2444
a(L2386205522L
L3785322319L
(lp2445
(lp2446
Vesp_rom_spiflash_wait_idle
p2447
atp2448
a(L3021737L
L0L
(lp2449
(lp2450
tp2451
a(L106L
L0L
(lp2452
(lp2453
tp2454
a(L1868280504L
L0L
(lp2455
(lp2456
tp2457
a(L106L
L0L
(lp2458
(lp2459
tp2460
a(L3736481501L
L0L
(lp2461
(lp2462
tp2463
a(L1221163038L
L0L
(lp2464
(lp2465
tp2466
a(L4122060822L
L0L
(lp2467
(lp2468
tp2469
a(L729330754L
L0L
(lp2470
(lp2471
tp2472
a(L2989032L
L0L
(lp2473
(lp2474
tp2475
a(L3819849625L
L0L
(lp2476
(lp2477
tp2478
a(L657593818L
L0L
(lp2479
(lp2480
tp2481
a(L131285969L
L0L
(lp2482
(lp2483
tp2484
a(L3901820583L
L0L
(lp2485
(lp2486
tp2487
a(L4003688926L
L0L
(lp2488
(lp2489
tp2490
a(L1896415737L
L0L
(lp2491
(lp2492
tp2493
a(L1522202953L
L0L
(lp2494
(lp2495
tp2496
a(L3574008326L
L0L
(lp2497
(lp2498
tp2499
a(L2769753228L
L0L
(lp2500
(lp2501
tp2502
a(L2267384310L
L0L
(lp2503
(lp2504
tp2505
a(L2696140277L
L0L
(lp2506
(lp2507
tp2508
a(L2687789892L
L0L
(lp2509
(lp2510
tp2511
a(L1405253496L
L0L
(lp2512
(lp2513
tp2514
a(L2052029745L
L0L
(lp2515
(lp2516
tp2517
a(L97689L
L0L
(lp2518
(lp2519
tp2520
a(L2258897019L
L0L
(lp2521
(lp2522
tp2523
a(L4014024819L
L0L
(lp2524
(lp2525
tp2526
a(L3621567083L
L0L
(lp2527
(lp2528
tp2529
atp2530
sI1074243736
(Vesp_rom_spiflash_write
p2531
(lp2532
(L4057159726L
L0L
(lp2533
(lp2534
tp2535
a(L2258688483L
L0L
(lp2536
(lp2537
tp2538
a(L3360570486L
L0L
(lp2539
(lp2540
tp2541
a(L1590344338L
L0L
(lp2542
(lp2543
tp2544
a(L3106685987L
L0L
(lp2545
(lp2546
tp2547
a(L4249336406L
L3785322319L
(lp2548
(lp2549
Vesp_rom_spiflash_program_page_internal
p2550
atp2551
a(L1915738254L
L3785322319L
(lp2552
(lp2553
Vesp_rom_spiflash_program_page_internal
p2554
atp2555
a(L663507325L
L0L
(lp2556
(lp2557
tp2558
a(L2392967593L
L0L
(lp2559
(lp2560
tp2561
a(L564470687L
L0L
(lp2562
(lp2563
tp2564
a(L154459701L
L3785322319L
(lp2565
(lp2566
Vesp_rom_spiflash_program_page_internal
p2567
atp2568
a(L2079643754L
L0L
(lp2569
(lp2570
tp2571
atp2572
sI1074237080
(Vbootloader_common_check_chip_validity
p2573
(lp2574
(L722188971L
L0L
(lp2575
(lp2576
tp2577
a(L98526595L
L3785322319L
(lp2578
(lp2579
Vesp_log_early_timestamp
p2580
atp2581
a(L522103407L
L3785322319L
(lp2582
(lp2583
Vefuse_hal_chip_revision
p2584
atp2585
a(L106L
L0L
(lp2586
(lp2587
tp2588
a(L3681102491L
L0L
(lp2589
(lp2590
tp2591
a(L2449956225L
L3785322319L
(lp2592
(lp2593
Vesp_log_early_timestamp
p2594
atp2595
a(L3028464L
L0L
(lp2596
(lp2597
tp2598
a(L4118102069L
L0L
(lp2599
(lp2600
tp2601
a(L3021749L
L0L
(lp2602
(lp2603
tp2604
a(L1478707893L
L3785322319L
(lp2605
(lp2606
Vesp_log_early_timestamp
p2607
atp2608
a(L1299867982L
L0L
(lp2609
(lp2610
tp2611
a(L3360570486L
L0L
(lp2612
(lp2613
tp2614
atp2615
sI1074267816
(Vcall_start_cpu0
p2616
(lp2617
(L1137852827L
L0L
(lp2618
(lp2619
tp2620
a(L94425498L
L3785322319L
(lp2621
(lp2622
Vbootloader_before_init
p2623
atp2624
a(L3279886022L
L3785322319L
(lp2625
(lp2626
Vbootloader_init
p2627
atp2628
a(L94425498L
L3785322319L
(lp2629
(lp2630
Vbootloader_reset
p2631
atp2632
a(L1122046408L
L0L
(lp2633
(lp2634
tp2635
a(L94425498L
L3785322319L
(lp2636
(lp2637
Vbootloader_after_init
p2638
atp2639
a(L3267676744L
L3785322319L
(lp2640
(lp2641
Vbootloader_utility_load_partition_table
p2642
atp2643
a(L2761094216L
L3785322319L
(lp2644
(lp2645
Vesp_log_early_timestamp
p2646
atp2647
a(L736289835L
L3785322319L
(lp2648
(lp2649
Vbootloader_utility_get_selected_boot_partition
p2650
atp2651
a(L3548846595L
L1880226080L
(lp2652
(lp2653
Vbootloader_common_get_reset_reason
p2654
aVbootloader_utility_load_boot_image
p2655
atp2656
atp2657
sI1074236832
(Vefuse_hal_get_major_chip_version
p2658
(lp2659
(L208362539L
L0L
(lp2660
(lp2661
tp2662
a(L894792960L
L0L
(lp2663
(lp2664
tp2665
a(L724635033L
L0L
(lp2666
(lp2667
tp2668
a(L3360570486L
L0L
(lp2669
(lp2670
tp2671
atp2672
sI1074234784
(Vbootloader_flash_execute_command_common
p2673
(lp2674
(L2935702355L
L0L
(lp2675
(lp2676
tp2677
a(L120555589L
L0L
(lp2678
(lp2679
tp2680
a(L2890397610L
L3785322319L
(lp2681
(lp2682
V__assert_func
p2683
atp2684
a(L3021749L
L0L
(lp2685
(lp2686
tp2687
a(L153183703L
L0L
(lp2688
(lp2689
tp2690
a(L901582467L
L0L
(lp2691
(lp2692
tp2693
a(L695082870L
L0L
(lp2694
(lp2695
tp2696
a(L4024113366L
L0L
(lp2697
(lp2698
tp2699
a(L3998568023L
L0L
(lp2700
(lp2701
tp2702
a(L163389185L
L0L
(lp2703
(lp2704
tp2705
a(L2336699050L
L0L
(lp2706
(lp2707
tp2708
a(L4038246755L
L0L
(lp2709
(lp2710
tp2711
a(L1065820671L
L0L
(lp2712
(lp2713
tp2714
a(L3041777204L
L0L
(lp2715
(lp2716
tp2717
a(L3333696662L
L0L
(lp2718
(lp2719
tp2720
a(L963425213L
L0L
(lp2721
(lp2722
tp2723
a(L2106665914L
L0L
(lp2724
(lp2725
tp2726
a(L3360570486L
L0L
(lp2727
(lp2728
tp2729
atp2730
sI1074240672
(V__assert_func
p2731
(lp2732
(L4269287305L
L0L
(lp2733
(lp2734
tp2735
a(L106L
L0L
(lp2736
(lp2737
tp2738
atp2739
sI1074236588
(Vesp_cpu_in_ocd_debug_mode
p2740
(lp2741
(L2131426160L
L0L
(lp2742
(lp2743
tp2744
atp2745
sI1074246572
(Vrtc_clk_fast_freq_set
p2746
(lp2747
(L1500658463L
L0L
(lp2748
(lp2749
tp2750
atp2751
sI1074239912
(Vbootloader_reset
p2752
(lp2753
(L1822360791L
L3785322319L
(lp2754
(lp2755
Vbootloader_console_deinit
p2756
atp2757
a(L106L
L0L
(lp2758
(lp2759
tp2760
atp2761
sI1074235828
(Vbootloader_flash_cs_timing_config
p2762
(lp2763
(L3796536297L
L0L
(lp2764
(lp2765
tp2766
atp2767
sI1074237364
(Vbootloader_common_ota_select_invalid
p2768
(lp2769
(L4027567199L
L0L
(lp2770
(lp2771
tp2772
a(L3397985842L
L0L
(lp2773
(lp2774
tp2775
a(L2258867228L
L0L
(lp2776
(lp2777
tp2778
a(L3785235668L
L0L
(lp2779
(lp2780
tp2781
atp2782
sI1074245808
(Vwdt_hal_write_protect_enable
p2783
(lp2784
(L387778158L
L0L
(lp2785
(lp2786
tp2787
a(L4195472003L
L0L
(lp2788
(lp2789
tp2790
a(L3360570486L
L0L
(lp2791
(lp2792
tp2793
a(L802523425L
L0L
(lp2794
(lp2795
tp2796
atp2797
sI1074247344
(Vrtc_clk_cpu_freq_to_xtal
p2798
(lp2799
(L3821147692L
L3785322319L
(lp2800
(lp2801
Vrtc_clk_apb_freq_update
p2802
atp2803
a(L702736306L
L0L
(lp2804
(lp2805
tp2806
a(L277445412L
L0L
(lp2807
(lp2808
tp2809
a(L309988740L
L0L
(lp2810
(lp2811
tp2812
atp2813
sI1074236604
(Vesp_rom_uart_tx_wait_idle
p2814
(lp2815
(L708706374L
L0L
(lp2816
(lp2817
tp2818
a(L1301079727L
L0L
(lp2819
(lp2820
tp2821
a(L3597746521L
L0L
(lp2822
(lp2823
tp2824
a(L3694491048L
L0L
(lp2825
(lp2826
tp2827
a(L3055926844L
L0L
(lp2828
(lp2829
tp2830
a(L3360570486L
L0L
(lp2831
(lp2832
tp2833
atp2834
sI1074235576
(Vbootloader_flash_read_sfdp
p2835
(lp2836
(L711701400L
L0L
(lp2837
(lp2838
tp2839
a(L3282613751L
L3785322319L
(lp2840
(lp2841
V__assert_func
p2842
atp2843
a(L3704332455L
L3785322319L
(lp2844
(lp2845
Vbootloader_flash_execute_command_common
p2846
atp2847
atp2848
sI1074240696
(Vabort
p2849
(lp2850
(L73370910L
L0L
(lp2851
(lp2852
tp2853
a(L409471316L
L0L
(lp2854
(lp2855
tp2856
a(L106L
L0L
(lp2857
(lp2858
tp2859
atp2860
sI1074241732
(Vprocess_segments
p2861
(lp2862
(L3883698409L
L0L
(lp2863
(lp2864
tp2865
a(L2495454333L
L0L
(lp2866
(lp2867
tp2868
a(L4578542L
L0L
(lp2869
(lp2870
tp2871
a(L106L
L0L
(lp2872
(lp2873
tp2874
a(L1315312493L
L0L
(lp2875
(lp2876
tp2877
a(L2718798963L
L3785322319L
(lp2878
(lp2879
Vesp_log_early_timestamp
p2880
atp2881
a(L1440180646L
L3785322319L
(lp2882
(lp2883
Vbootloader_flash_read
p2884
atp2885
a(L2510149738L
L3785322319L
(lp2886
(lp2887
Vesp_log_early_timestamp
p2888
atp2889
a(L3360570486L
L0L
(lp2890
(lp2891
tp2892
a(L234193771L
L0L
(lp2893
(lp2894
tp2895
a(L1635713494L
L3785322319L
(lp2896
(lp2897
Vbootloader_sha256_data
p2898
atp2899
a(L926711887L
L0L
(lp2900
(lp2901
tp2902
a(L790360741L
L0L
(lp2903
(lp2904
tp2905
a(L3997307212L
L0L
(lp2906
(lp2907
tp2908
a(L3802068284L
L0L
(lp2909
(lp2910
tp2911
a(L2942462881L
L0L
(lp2912
(lp2913
tp2914
a(L2258867228L
L0L
(lp2915
(lp2916
tp2917
a(L1355332303L
L0L
(lp2918
(lp2919
tp2920
a(L2965680995L
L0L
(lp2921
(lp2922
tp2923
a(L1849436849L
L0L
(lp2924
(lp2925
tp2926
a(L1385804824L
L3785322319L
(lp2927
(lp2928
Vesp_log_early_timestamp
p2929
atp2930
a(L3895303701L
L0L
(lp2931
(lp2932
tp2933
a(L310091939L
L0L
(lp2934
(lp2935
tp2936
a(L531742663L
L3785322319L
(lp2937
(lp2938
Vesp_log_early_timestamp
p2939
atp2940
a(L3982404358L
L3785322319L
(lp2941
(lp2942
Vverify_load_addresses
p2943
atp2944
a(L106L
L0L
(lp2945
(lp2946
tp2947
a(L2300166925L
L0L
(lp2948
(lp2949
tp2950
a(L2684012095L
L0L
(lp2951
(lp2952
tp2953
a(L1905937838L
L3785322319L
(lp2954
(lp2955
Vbootloader_mmap
p2956
atp2957
a(L1098327470L
L3785322319L
(lp2958
(lp2959
Vesp_log_early_timestamp
p2960
atp2961
a(L2116114917L
L0L
(lp2962
(lp2963
tp2964
a(L147926536L
L0L
(lp2965
(lp2966
tp2967
a(L1534276982L
L3785322319L
(lp2968
(lp2969
Vbootloader_munmap
p2970
atp2971
a(L3105361649L
L0L
(lp2972
(lp2973
tp2974
a(L1216016797L
L3785322319L
(lp2975
(lp2976
Vbootloader_fill_random
p2977
atp2978
a(L3570641403L
L0L
(lp2979
(lp2980
tp2981
a(L3574335487L
L0L
(lp2982
(lp2983
tp2984
a(L3450268858L
L0L
(lp2985
(lp2986
tp2987
a(L3021749L
L0L
(lp2988
(lp2989
tp2990
a(L1609678444L
L0L
(lp2991
(lp2992
tp2993
a(L1777728568L
L0L
(lp2994
(lp2995
tp2996
a(L3020204L
L0L
(lp2997
(lp2998
tp2999
a(L591273984L
L0L
(lp3000
(lp3001
tp3002
a(L2076461546L
L0L
(lp3003
(lp3004
tp3005
a(L3832868376L
L0L
(lp3006
(lp3007
tp3008
a(L1749969336L
L0L
(lp3009
(lp3010
tp3011
a(L670934548L
L0L
(lp3012
(lp3013
tp3014
a(L1903785265L
L3785322319L
(lp3015
(lp3016
Vbootloader_sha256_data
p3017
atp3018
a(L90548756L
L0L
(lp3019
(lp3020
tp3021
a(L4195963580L
L0L
(lp3022
(lp3023
tp3024
a(L2572638616L
L0L
(lp3025
(lp3026
tp3027
a(L3740179196L
L0L
(lp3028
(lp3029
tp3030
a(L233873941L
L3785322319L
(lp3031
(lp3032
Vshould_load
p3033
atp3034
a(L3070788781L
L0L
(lp3035
(lp3036
tp3037
a(L121368540L
L3785322319L
(lp3038
(lp3039
Vesp_log_early_timestamp
p3040
atp3041
a(L93675945L
L0L
(lp3042
(lp3043
tp3044
a(L2104869573L
L0L
(lp3045
(lp3046
tp3047
a(L4007649496L
L0L
(lp3048
(lp3049
tp3050
a(L2902417580L
L0L
(lp3051
(lp3052
tp3053
a(L2636912524L
L0L
(lp3054
(lp3055
tp3056
a(L4195318902L
L3785322319L
(lp3057
(lp3058
Vbootloader_mmap_get_free_pages
p3059
atp3060
a(L3028481L
L0L
(lp3061
(lp3062
tp3063
a(L124545238L
L0L
(lp3064
(lp3065
tp3066
atp3067
sI1074240460
(Vbootloader_sha256_finish
p3068
(lp3069
(L4066096136L
L0L
(lp3070
(lp3071
tp3072
a(L283309760L
L0L
(lp3073
(lp3074
tp3075
a(L2504541789L
L3785322319L
(lp3076
(lp3077
V__assert_func
p3078
atp3079
a(L3020204L
L0L
(lp3080
(lp3081
tp3082
a(L1077914239L
L0L
(lp3083
(lp3084
tp3085
a(L2534656226L
L0L
(lp3086
(lp3087
tp3088
a(L3404488268L
L3785322319L
(lp3089
(lp3090
Vbootloader_sha256_data
p3091
atp3092
a(L1076837905L
L0L
(lp3093
(lp3094
tp3095
a(L1830200745L
L3785322319L
(lp3096
(lp3097
Vbootloader_sha256_data
p3098
atp3099
a(L1563431552L
L0L
(lp3100
(lp3101
tp3102
a(L657425439L
L0L
(lp3103
(lp3104
tp3105
a(L4023907455L
L0L
(lp3106
(lp3107
tp3108
a(L657425439L
L0L
(lp3109
(lp3110
tp3111
a(L894366391L
L0L
(lp3112
(lp3113
tp3114
a(L2975660674L
L0L
(lp3115
(lp3116
tp3117
a(L3347778L
L0L
(lp3118
(lp3119
tp3120
a(L3360570486L
L0L
(lp3121
(lp3122
tp3123
atp3124
sI1074240204
(Vindex_to_partition
p3125
(lp3126
(L4066096119L
L0L
(lp3127
(lp3128
tp3129
a(L1739185955L
L0L
(lp3130
(lp3131
tp3132
a(L2171552758L
L0L
(lp3133
(lp3134
tp3135
a(L2808906342L
L0L
(lp3136
(lp3137
tp3138
a(L2101481936L
L0L
(lp3139
(lp3140
tp3141
a(L3698927993L
L0L
(lp3142
(lp3143
tp3144
a(L2808826781L
L0L
(lp3145
(lp3146
tp3147
a(L3003398163L
L0L
(lp3148
(lp3149
tp3150
a(L1104460200L
L0L
(lp3151
(lp3152
tp3153
a(L1087646172L
L0L
(lp3154
(lp3155
tp3156
atp3157
sI1074245836
(Vefuse_hal_get_rated_freq_mhz
p3158
(lp3159
(L1680594370L
L0L
(lp3160
(lp3161
tp3162
a(L2965302338L
L0L
(lp3163
(lp3164
tp3165
a(L3360570486L
L0L
(lp3166
(lp3167
tp3168
atp3169
sI1074269636
(Vbootloader_flash_update_id
p3170
(lp3171
(L3368730268L
L3785322319L
(lp3172
(lp3173
Vbootloader_read_flash_id
p3174
atp3175
atp3176
sI1074239944
(Vbootloader_utility_load_boot_image
p3177
(lp3178
(L1561528311L
L0L
(lp3179
(lp3180
tp3181
a(L2177418995L
L3785322319L
(lp3182
(lp3183
Vtry_load_partition
p3184
atp3185
a(L2749106626L
L3785322319L
(lp3186
(lp3187
Vload_image
p3188
atp3189
a(L157669688L
L3785322319L
(lp3190
(lp3191
Vesp_log_early_timestamp
p3192
atp3193
a(L3827921190L
L3785322319L
(lp3194
(lp3195
Vbootloader_reset
p3196
atp3197
a(L2542673780L
L3785322319L
(lp3198
(lp3199
Vindex_to_partition
p3200
atp3201
a(L1204373741L
L3785322319L
(lp3202
(lp3203
Vtry_load_partition
p3204
atp3205
a(L3020187L
L0L
(lp3206
(lp3207
tp3208
a(L3111076057L
L0L
(lp3209
(lp3210
tp3211
a(L2070875117L
L3785322319L
(lp3212
(lp3213
Vset_actual_ota_seq
p3214
atp3215
a(L1868897605L
L3785322319L
(lp3216
(lp3217
Vlog_invalid_app_partition
p3218
atp3219
a(L831650730L
L0L
(lp3220
(lp3221
tp3222
a(L3021737L
L0L
(lp3223
(lp3224
tp3225
a(L4083823862L
L0L
(lp3226
(lp3227
tp3228
a(L3818328201L
L3785322319L
(lp3229
(lp3230
Vtry_load_partition
p3231
atp3232
a(L1643420822L
L3785322319L
(lp3233
(lp3234
Vesp_log_early_timestamp
p3235
atp3236
a(L2185156151L
L3785322319L
(lp3237
(lp3238
Vindex_to_partition
p3239
atp3240
a(L1074657773L
L3785322319L
(lp3241
(lp3242
Vtry_load_partition
p3243
atp3244
a(L3027024L
L0L
(lp3245
(lp3246
tp3247
a(L2127949398L
L0L
(lp3248
(lp3249
tp3250
a(L3061261803L
L0L
(lp3251
(lp3252
tp3253
a(L3582858798L
L3785322319L
(lp3254
(lp3255
Vlog_invalid_app_partition
p3256
atp3257
a(L4140564132L
L3785322319L
(lp3258
(lp3259
Vesp_log_early_timestamp
p3260
atp3261
atp3262
sI1074245320
(Vwdt_hal_config_stage
p3263
(lp3264
(L331558507L
L0L
(lp3265
(lp3266
tp3267
a(L4279082939L
L0L
(lp3268
(lp3269
tp3270
a(L3020204L
L0L
(lp3271
(lp3272
tp3273
a(L3020187L
L0L
(lp3274
(lp3275
tp3276
a(L3020187L
L0L
(lp3277
(lp3278
tp3279
a(L94425498L
L3785322319L
(lp3280
(lp3281
Vabort
p3282
atp3283
a(L2927143788L
L0L
(lp3284
(lp3285
tp3286
a(L3360570486L
L0L
(lp3287
(lp3288
tp3289
a(L3657953876L
L0L
(lp3290
(lp3291
tp3292
a(L3718556305L
L0L
(lp3293
(lp3294
tp3295
a(L4229860718L
L0L
(lp3296
(lp3297
tp3298
a(L3020187L
L0L
(lp3299
(lp3300
tp3301
a(L2902417580L
L0L
(lp3302
(lp3303
tp3304
a(L3020187L
L0L
(lp3305
(lp3306
tp3307
a(L3028464L
L0L
(lp3308
(lp3309
tp3310
a(L2600837442L
L0L
(lp3311
(lp3312
tp3313
a(L2134283093L
L0L
(lp3314
(lp3315
tp3316
a(L1545969355L
L0L
(lp3317
(lp3318
tp3319
a(L4007862746L
L0L
(lp3320
(lp3321
tp3322
atp3323
sI1074269148
(Vbootloader_init_mem
p3324
(lp3325
(L1511720305L
L3785322319L
(lp3326
(lp3327
Vesp_cpu_configure_region_protection
p3328
atp3329
atp3330
sI1074269916
(Vbootloader_enable_random
p3331
(lp3332
(L539320069L
L1880226080L
(lp3333
(lp3334
Vesp_log_early_timestamp
p3335
aVbootloader_random_enable
p3336
atp3337
atp3338
sI1074238160
(Vbootloader_enable_wp
p3339
(lp3340
(L1117825804L
L3785322319L
(lp3341
(lp3342
Vbootloader_execute_flash_command
p3343
atp3344
atp3345
sI1074237392
(Vbootloader_common_select_otadata
p3346
(lp3347
(L2342662536L
L0L
(lp3348
(lp3349
tp3350
a(L3806783650L
L0L
(lp3351
(lp3352
tp3353
a(L1674928252L
L0L
(lp3354
(lp3355
tp3356
a(L251571983L
L0L
(lp3357
(lp3358
tp3359
a(L3360570486L
L0L
(lp3360
(lp3361
tp3362
a(L2045232488L
L0L
(lp3363
(lp3364
tp3365
a(L189726519L
L0L
(lp3366
(lp3367
tp3368
a(L3095066987L
L0L
(lp3369
(lp3370
tp3371
a(L3592023188L
L0L
(lp3372
(lp3373
tp3374
a(L1641201884L
L0L
(lp3375
(lp3376
tp3377
atp3378
sI1074239184
(Vtry_load_partition
p3379
(lp3380
(L1263750142L
L0L
(lp3381
(lp3382
tp3383
a(L2258688482L
L0L
(lp3384
(lp3385
tp3386
a(L3360570486L
L0L
(lp3387
(lp3388
tp3389
a(L530241438L
L3785322319L
(lp3390
(lp3391
Vbootloader_load_image
p3392
atp3393
a(L2684814704L
L3785322319L
(lp3394
(lp3395
Vesp_log_early_timestamp
p3396
atp3397
atp3398
sI1074246096
(Vrtc_clk_32k_enable_common
p3399
(lp3400
(L3622748675L
L0L
(lp3401
(lp3402
tp3403
atp3404
sI1074248400
(V_fini
p3405
(lp3406
(L3493042598L
L0L
(lp3407
(lp3408
tp3409
atp3410
sI1074269652
(Vbootloader_clear_bss_section
p3411
(lp3412
(L3321145955L
L0L
(lp3413
(lp3414
tp3415
atp3416
sI1074246616
(Vrtc_clk_fast_freq_get
p3417
(lp3418
(L2805650262L
L0L
(lp3419
(lp3420
tp3421
atp3422
sI1074238180
(Vbootloader_mmap_get_free_pages
p3423
(lp3424
(L1496516875L
L0L
(lp3425
(lp3426
tp3427
atp3428
sI1074269164
(Vbootloader_random_enable
p3429
(lp3430
(L2375596164L
L0L
(lp3431
(lp3432
tp3433
atp3434
sI1074269676
(Vbootloader_read_bootloader_header
p3435
(lp3436
(L825744731L
L3785322319L
(lp3437
(lp3438
Vbootloader_flash_read
p3439
atp3440
a(L1317474610L
L3785322319L
(lp3441
(lp3442
Vesp_log_early_timestamp
p3443
atp3444
a(L735741265L
L0L
(lp3445
(lp3446
tp3447
atp3448
sI1074270956
(Vmpu_hal_set_region_access
p3449
(lp3450
(L3538356822L
L0L
(lp3451
(lp3452
tp3453
a(L2902417580L
L0L
(lp3454
(lp3455
tp3456
a(L3020187L
L0L
(lp3457
(lp3458
tp3459
a(L3020187L
L0L
(lp3460
(lp3461
tp3462
a(L3360570486L
L0L
(lp3463
(lp3464
tp3465
a(L2258718273L
L0L
(lp3466
(lp3467
tp3468
a(L3446648619L
L0L
(lp3469
(lp3470
tp3471
a(L3739532189L
L0L
(lp3472
(lp3473
tp3474
a(L1300789895L
L0L
(lp3475
(lp3476
tp3477
a(L3472092938L
L0L
(lp3478
(lp3479
tp3480
atp3481
sI1074243308
(Vesp_rom_spiflash_wait_idle
p3482
(lp3483
(L3233075690L
L0L
(lp3484
(lp3485
tp3486
a(L2023766174L
L0L
(lp3487
(lp3488
tp3489
a(L2805933647L
L0L
(lp3490
(lp3491
tp3492
a(L3086959262L
L0L
(lp3493
(lp3494
tp3495
a(L4161019926L
L3785322319L
(lp3496
(lp3497
Vesp_rom_spiflash_read_status
p3498
atp3499
atp3500
sI1074238188
(Vbootloader_fill_random
p3501
(lp3502
(L3026789978L
L0L
(lp3503
(lp3504
tp3505
a(L1056102925L
L0L
(lp3506
(lp3507
tp3508
a(L97689L
L0L
(lp3509
(lp3510
tp3511
a(L3360570486L
L0L
(lp3512
(lp3513
tp3514
a(L324866589L
L3785322319L
(lp3515
(lp3516
V__assert_func
p3517
atp3518
a(L2008660626L
L0L
(lp3519
(lp3520
tp3521
a(L3028481L
L0L
(lp3522
(lp3523
tp3524
a(L983138374L
L0L
(lp3525
(lp3526
tp3527
a(L2607138306L
L0L
(lp3528
(lp3529
tp3530
a(L1982128194L
L0L
(lp3531
(lp3532
tp3533
atp3534
sI1074237676
(Vbootloader_munmap
p3535
(lp3536
(L1713649238L
L0L
(lp3537
(lp3538
tp3539
a(L847703320L
L0L
(lp3540
(lp3541
tp3542
a(L3360570486L
L0L
(lp3543
(lp3544
tp3545
atp3546
sI1074235628
(Vbootloader_read_flash_id
p3547
(lp3548
(L3925322170L
L3785322319L
(lp3549
(lp3550
Vbootloader_execute_flash_command
p3551
atp3552
atp3553
sI1074270948
(Vbootloader_hooks_include
p3554
(lp3555
(L2100504542L
L0L
(lp3556
(lp3557
tp3558
atp3559
sI1074247144
(Vrtc_clk_cpu_freq_get_config
p3560
(lp3561
(L906905014L
L0L
(lp3562
(lp3563
tp3564
a(L2902417580L
L0L
(lp3565
(lp3566
tp3567
a(L1777368540L
L0L
(lp3568
(lp3569
tp3570
a(L1257359012L
L1880226080L
(lp3571
(lp3572
Vesp_log_early_timestamp
p3573
aVabort
p3574
atp3575
a(L1393568794L
L3785322319L
(lp3576
(lp3577
Vrtc_clk_xtal_freq_get
p3578
atp3579
a(L584032699L
L0L
(lp3580
(lp3581
tp3582
a(L4100800062L
L0L
(lp3583
(lp3584
tp3585
a(L3020187L
L0L
(lp3586
(lp3587
tp3588
a(L713819170L
L0L
(lp3589
(lp3590
tp3591
a(L106L
L0L
(lp3592
(lp3593
tp3594
a(L549042870L
L0L
(lp3595
(lp3596
tp3597
a(L187152368L
L0L
(lp3598
(lp3599
tp3600
a(L4149732163L
L0L
(lp3601
(lp3602
tp3603
atp3604
sI1074246632
(Vrtc_clk_bbpll_configure
p3605
(lp3606
(L3990937399L
L0L
(lp3607
(lp3608
tp3609
a(L106L
L0L
(lp3610
(lp3611
tp3612
a(L446175133L
L0L
(lp3613
(lp3614
tp3615
a(L106L
L0L
(lp3616
(lp3617
tp3618
a(L83268611L
L0L
(lp3619
(lp3620
tp3621
a(L106L
L0L
(lp3622
(lp3623
tp3624
a(L82345090L
L0L
(lp3625
(lp3626
tp3627
a(L106L
L0L
(lp3628
(lp3629
tp3630
a(L2258688482L
L0L
(lp3631
(lp3632
tp3633
a(L3177466952L
L0L
(lp3634
(lp3635
tp3636
a(L3959680931L
L0L
(lp3637
(lp3638
tp3639
a(L946534576L
L0L
(lp3640
(lp3641
tp3642
a(L1299866343L
L0L
(lp3643
(lp3644
tp3645
a(L3291765465L
L0L
(lp3646
(lp3647
tp3648
a(L3241888512L
L0L
(lp3649
(lp3650
tp3651
a(L3075531556L
L0L
(lp3652
(lp3653
tp3654
a(L83268344L
L0L
(lp3655
(lp3656
tp3657
a(L82344823L
L0L
(lp3658
(lp3659
tp3660
a(L1667153377L
L0L
(lp3661
(lp3662
tp3663
a(L2258867279L
L0L
(lp3664
(lp3665
tp3666
a(L3819751895L
L0L
(lp3667
(lp3668
tp3669
a(L1551160474L
L0L
(lp3670
(lp3671
tp3672
a(L1712476653L
L0L
(lp3673
(lp3674
tp3675
a(L4011631532L
L0L
(lp3676
(lp3677
tp3678
atp3679
sI1074240744
(Vbootloader_ana_clock_glitch_reset_config
p3680
(lp3681
(L2100504542L
L0L
(lp3682
(lp3683
tp3684
atp3685
sI1074236904
(Vefuse_hal_get_minor_chip_version
p3686
(lp3687
(L484689204L
L0L
(lp3688
(lp3689
tp3690
atp3691
sI1074269944
(Vbootloader_print_banner
p3692
(lp3693
(L228192270L
L1832448559L
(lp3694
(lp3695
Vesp_log_early_timestamp
p3696
aVesp_log_early_timestamp
p3697
aVesp_log_early_timestamp
p3698
atp3699
atp3700
sI1074270716
(Vrtc_vddsdio_get_config
p3701
(lp3702
(L3773170378L
L0L
(lp3703
(lp3704
tp3705
a(L147025923L
L0L
(lp3706
(lp3707
tp3708
a(L318395269L
L0L
(lp3709
(lp3710
tp3711
a(L2634139568L
L0L
(lp3712
(lp3713
tp3714
a(L4128092927L
L0L
(lp3715
(lp3716
tp3717
a(L1116012092L
L0L
(lp3718
(lp3719
tp3720
a(L1719615367L
L0L
(lp3721
(lp3722
tp3723
a(L639639657L
L0L
(lp3724
(lp3725
tp3726
atp3727
sI1074241520
(Vprocess_appended_hash_and_sig
p3728
(lp3729
(L3580132405L
L0L
(lp3730
(lp3731
tp3732
a(L3028481L
L0L
(lp3733
(lp3734
tp3735
a(L1591589631L
L0L
(lp3736
(lp3737
tp3738
a(L22297358L
L0L
(lp3739
(lp3740
tp3741
a(L4191754026L
L0L
(lp3742
(lp3743
tp3744
a(L728545027L
L3785322319L
(lp3745
(lp3746
Vesp_log_early_timestamp
p3747
atp3748
a(L894030452L
L3785322319L
(lp3749
(lp3750
Vbootloader_flash_read
p3751
atp3752
a(L3871473710L
L0L
(lp3753
(lp3754
tp3755
atp3756
sI1074240752
(Vprocess_checksum
p3757
(lp3758
(L1985325516L
L0L
(lp3759
(lp3760
tp3761
a(L2910371777L
L0L
(lp3762
(lp3763
tp3764
a(L1649277394L
L0L
(lp3765
(lp3766
tp3767
a(L2910371777L
L0L
(lp3768
(lp3769
tp3770
a(L2902417580L
L0L
(lp3771
(lp3772
tp3773
a(L1644002876L
L3785322319L
(lp3774
(lp3775
Vbootloader_sha256_data
p3776
atp3777
a(L3612796056L
L0L
(lp3778
(lp3779
tp3780
a(L1811888222L
L3785322319L
(lp3781
(lp3782
Vbootloader_flash_read
p3783
atp3784
a(L3126521138L
L0L
(lp3785
(lp3786
tp3787
a(L4224515246L
L0L
(lp3788
(lp3789
tp3790
a(L3744681334L
L3785322319L
(lp3791
(lp3792
Vesp_log_early_timestamp
p3793
atp3794
atp3795
sI1074245872
(Vrtc_clk_bbpll_disable
p3796
(lp3797
(L369314231L
L0L
(lp3798
(lp3799
tp3800
a(L391691750L
L0L
(lp3801
(lp3802
tp3803
a(L3360570486L
L0L
(lp3804
(lp3805
tp3806
atp3807
sI1074236668
(Vesp_rom_uart_set_clock_baudrate
p3808
(lp3809
(L881452272L
L0L
(lp3810
(lp3811
tp3812
a(L3909951828L
L0L
(lp3813
(lp3814
tp3815
a(L1008980029L
L0L
(lp3816
(lp3817
tp3818
a(L869159045L
L0L
(lp3819
(lp3820
tp3821
a(L2805931435L
L0L
(lp3822
(lp3823
tp3824
a(L1926040272L
L0L
(lp3825
(lp3826
tp3827
atp3828
sI1074236920
(Vis_xmc_chip_strict
p3829
(lp3830
(L1286841609L
L0L
(lp3831
(lp3832
tp3833
a(L2234016759L
L0L
(lp3834
(lp3835
tp3836
a(L1069027148L
L0L
(lp3837
(lp3838
tp3839
a(L3021749L
L0L
(lp3840
(lp3841
tp3842
a(L1900148749L
L0L
(lp3843
(lp3844
tp3845
a(L1936875721L
L0L
(lp3846
(lp3847
tp3848
a(L3356166509L
L0L
(lp3849
(lp3850
tp3851
a(L1937769451L
L0L
(lp3852
(lp3853
tp3854
a(L2137658907L
L0L
(lp3855
(lp3856
tp3857
a(L4265949734L
L0L
(lp3858
(lp3859
tp3860
a(L3360570486L
L0L
(lp3861
(lp3862
tp3863
atp3864
sI1074236408
(Vbootloader_flash_dummy_config
p3865
(lp3866
(L132211179L
L0L
(lp3867
(lp3868
tp3869
a(L2761717557L
L0L
(lp3870
(lp3871
tp3872
a(L705371371L
L0L
(lp3873
(lp3874
tp3875
a(L2971458626L
L0L
(lp3876
(lp3877
tp3878
a(L1491210540L
L0L
(lp3879
(lp3880
tp3881
a(L3081491917L
L0L
(lp3882
(lp3883
tp3884
a(L1610443405L
L0L
(lp3885
(lp3886
tp3887
a(L4102729993L
L0L
(lp3888
(lp3889
tp3890
a(L1449490182L
L0L
(lp3891
(lp3892
tp3893
a(L1298875775L
L0L
(lp3894
(lp3895
tp3896
a(L3880393601L
L0L
(lp3897
(lp3898
tp3899
a(L1505818087L
L0L
(lp3900
(lp3901
tp3902
a(L1610443436L
L0L
(lp3903
(lp3904
tp3905
atp3906
ssS'functionsdups'
p3907
g11
((lp3908
tp3909
Rp3910
sS'immediatedups'
p3911
g11
((lp3912
tp3913
Rp3914
sS'functiondups'
p3915
g11
((lp3916
tp3917
Rp3918
sS'fuzzy'
p3919
(dp3920
L1536L
I1074240672
sL617583950L
I1074237080
sL430153639L
I1074235940
sL3121027072L
I1074270716
sL2082889262L
I1074241520
sL3879741902L
I1074241152
sL3538491111L
I1074247344
sL2919016435L
I1074235284
sL16208487L
I1074234784
sL2680783959L
I1074235672
sL3512578114L
I1074239184
sL2469233929L
I1074240460
sL2235442074L
I1074267816
sL1792232694L
I1074245932
sL4011111091L
I1074237728
sL1377559356L
I1074242448
sL3897252859L
I1074238992
sL1065525808L
I1074236920
sL2327783177L
I1074240752
sL1164839255L
I1074241732
sL449860969L
I1074247056
sL3210669721L
I1074246212
sL1332800441L
I1074237324
sL2884218272L
I1074268032
sL1148089122L
I1074239076
sL1345429244L
I1074240904
sL2689419264L
I1074246632
sL4160102055L
I1074239912
sL4202185385L
I1074243308
sL2453272040L
I1074247784
sL3690558760L
I1074270088
sL1768086576L
I1074236408
sL4171975289L
I1074243604
sL1565254297L
I1074243908
sL1636176981L
I1074268252
sL2191698036L
I1074269792
sL1513350244L
I1074239608
sL2474570535L
I1074238188
sL3428965560L
I1074247460
sL519424169L
I1074248240
sL812946199L
I1074237504
sL737694352L
I1074243416
sL503029138L
I1074243356
sL277788135L
I1074243996
sL4253866342L
I1074239944
sL3991645697L
I1074268980
sL47534270L
I1074238608
sL2262558768L
I1074243216
sL424867129L
I1074243736
sL3834155367L
I1074241096
sL176878843L
I1074239232
sL3883282432L
I1074241612
sL4173399607L
I1074242928
sL2726385143L
I1074245320
sL1667054119L
I1074240296
sL4191211306L
I1074247144
sL2687107543L
I1074270260
sL206902443L
I1074238020
ssb.