ccopy_reg
_reconstructor
p0
(crizzo
RizzoSignature
p1
c__builtin__
object
p2
Ntp3
Rp4
(dp5
S'formal'
p6
(dp7
L61540265L
I1074234784
sL4149167435L
I1074235672
sL2048961576L
I1074240656
sL3061073278L
I1074239944
sL2432811019L
I1074247016
sL1741170115L
I1074238000
sL633479887L
I1074240672
sL2156867713L
I1074267964
sL432834268L
I1074248208
sL3442502945L
I1074269668
sL2226187430L
I1074238280
sL2137527423L
I1074236832
sL777872458L
I1074248240
sL3871711965L
I1074238608
sL4213015302L
I1074242912
sL1984013661L
I1074247316
sL104522008L
I1074237024
sL3211103558L
I1074236408
sL3955774956L
I1074237676
sL2028381634L
I1074245668
sL1725516799L
I1074269892
sL1359501856L
I1074239608
sL624869140L
I1074269956
sL1010441494L
I1074247056
sL3567680394L
I1074267139
sL2896295319L
I1074236920
sL271775752L
I1074267804
sL2590834774L
I1074270896
sL4114820221L
I1074267980
sL855787331L
I1074243736
sL2462083717L
I1074270824
sL2467304534L
I1074236604
sL1680425056L
I1074243908
sL4065997320L
I1074246616
sL2175640063L
I1074269988
sL900327418L
I1074247144
sL359363645L
I1074241732
sL1585823442L
I1074245808
sL744601145L
I1074235828
sL4026536540L
I1074243604
sL26887879L
I1074243216
sL3643625584L
I1074268200
sL2307242981L
I1074237504
sL740862794L
I1074270664
sL2657357824L
I1074237080
sL3961899840L
I1074243356
sL3377882929L
I1074269112
sL263605983L
I1074240752
sL1426318444L
I1074247784
sL728069141L
I1074269624
sL2045471388L
I1074236668
sL3247711715L
I1074245740
sL3412731112L
I1074243308
sL3730295765L
I1074245636
sL1140530296L
I1074240696
sL3712974027L
I1074246424
sL3307282855L
I1074238160
sL4040482908L
I1074246096
sL2171678973L
I1074247344
sL612086517L
I1074235284
sL4114736847L
I1074236904
sL242136289L
I1074238020
sL3844512690L
I1074236992
sL1495735216L
I1074269864
sL2379627086L
I1074236792
sL3035696490L
I1074245320
sL1540116328L
I1074242928
sL83337299L
I1074237472
sL1156874576L
I1074236588
sL666229264L
I1074240296
sL4013669788L
I1074247460
sL1652900655L
I1074238596
sL1371353105L
I1074246272
sL23021043L
I1074235940
sL48580680L
I1074239184
sL493999838L
I1074267912
sL2997001746L
I1074237324
sL3970660634L
I1074241520
sL1901372901L
I1074246516
sL1419107873L
I1074247740
sL541879289L
I1074246632
sL3588042603L
I1074239232
sL2610239788L
I1074246448
sL2819127986L
I1074237044
sL243291962L
I1074240904
sL2988777118L
I1074243416
sL549239041L
I1074238188
sL4033052637L
I1074246212
sL2629399161L
I1074269584
sL3783856456L
I1074244732
sL1164083360L
I1074235628
sL1577973455L
I1074239076
sL1242724561L
I1074235576
sL3347699786L
I1074268928
sL294958673L
I1074241612
sL2231079997L
I1074269600
sL593775276L
I1074246400
sL2249539038L
I1074240204
sL1012036252L
I1074243996
sL4142749756L
I1074236556
sL1865528544L
I1074245836
sL3397796702L
I1074240276
sL2263182908L
I1074238180
sL952628764L
I1074246572
sL1677784797L
I1074245872
sL2467527886L
I1074245932
sL3984686945L
I1074269740
sL188664287L
I1074235252
sL721128985L
I1074241152
sL2959238529L
I1074237392
sL2299069164L
I1074270036
sL692536993L
I1074237364
sL2319953056L
I1074238992
sL3845421789L
I1074237728
sL4079009225L
I1074242448
sL2663572780L
I1074240460
sL3608561895L
I1074269096
sL321099729L
I1074246532
sL97097788L
I1074270208
sL2986091524L
I1074247272
sL4267894680L
I1074236760
sL3763660718L
I1074239912
sL2246062622L
I1074241096
ssS'immediates'
p8
(dp9
sS'formaldups'
p10
c__builtin__
set
p11
((lp12
tp13
Rp14
sS'stringdups'
p15
g11
((lp16
tp17
Rp18
sS'fuzzydups'
p19
g11
((lp20
tp21
Rp22
sS'strings'
p23
(dp24
sS'functions'
p25
(dp26
I1074267912
(Vbootloader_common_vddsdio_configure
p27
(lp28
(L1922017289L
L3785322319L
(lp29
(lp30
Vrtc_vddsdio_get_config
p31
atp32
a(L1185899578L
L3785322319L
(lp33
(lp34
Vrtc_vddsdio_set_config
p35
atp36
a(L3360570486L
L0L
(lp37
(lp38
tp39
atp40
sI1074245636
(Vwdt_hal_write_protect_disable
p41
(lp42
(L2655380989L
L0L
(lp43
(lp44
tp45
a(L4195472003L
L0L
(lp46
(lp47
tp48
a(L3360570486L
L0L
(lp49
(lp50
tp51
a(L1210571996L
L0L
(lp52
(lp53
tp54
atp55
sI1074239232
(Vbootloader_utility_load_partition_table
p56
(lp57
(L337793758L
L3785322319L
(lp58
(lp59
Vbootloader_mmap
p60
atp61
a(L1572404640L
L3785322319L
(lp62
(lp63
Vesp_log_early_timestamp
p64
atp65
a(L2258688482L
L0L
(lp66
(lp67
tp68
a(L3360570486L
L0L
(lp69
(lp70
tp71
a(L2379286607L
L3785322319L
(lp72
(lp73
Vesp_partition_table_verify
p74
atp75
a(L1824441572L
L3785322319L
(lp76
(lp77
Vesp_log_early_timestamp
p78
atp79
a(L555142709L
L1880226080L
(lp80
(lp81
Vesp_log_early_timestamp
p82
aVesp_log_early_timestamp
p83
atp84
a(L60599615L
L0L
(lp85
(lp86
tp87
a(L2509258321L
L1880226080L
(lp88
(lp89
Vbootloader_munmap
p90
aVesp_log_early_timestamp
p91
atp92
a(L4226553678L
L0L
(lp93
(lp94
tp95
a(L3028464L
L0L
(lp96
(lp97
tp98
a(L106L
L0L
(lp99
(lp100
tp101
a(L307915808L
L0L
(lp102
(lp103
tp104
a(L3021439948L
L3785322319L
(lp105
(lp106
Vesp_log_early_timestamp
p107
atp108
a(L3990577774L
L0L
(lp109
(lp110
tp111
a(L3020187L
L0L
(lp112
(lp113
tp114
a(L2559753343L
L0L
(lp115
(lp116
tp117
a(L1154512743L
L0L
(lp118
(lp119
tp120
a(L1380578767L
L0L
(lp121
(lp122
tp123
a(L1308290804L
L0L
(lp124
(lp125
tp126
a(L3477770624L
L0L
(lp127
(lp128
tp129
a(L106L
L0L
(lp130
(lp131
tp132
a(L93674324L
L0L
(lp133
(lp134
tp135
a(L2902417580L
L0L
(lp136
(lp137
tp138
a(L1245794467L
L0L
(lp139
(lp140
tp141
a(L106L
L0L
(lp142
(lp143
tp144
a(L955455903L
L0L
(lp145
(lp146
tp147
a(L1217165316L
L0L
(lp148
(lp149
tp150
a(L106L
L0L
(lp151
(lp152
tp153
a(L1256876719L
L0L
(lp154
(lp155
tp156
a(L106L
L0L
(lp157
(lp158
tp159
a(L106L
L0L
(lp160
(lp161
tp162
a(L2752742501L
L0L
(lp163
(lp164
tp165
atp166
sI1074246400
(Vrtc_clk_8m_enabled
p167
(lp168
(L3754594988L
L0L
(lp169
(lp170
tp171
atp172
sI1074267136
(V_init
p173
(lp174
(L3493042598L
L0L
(lp175
(lp176
tp177
atp178
sI1074268928
(Vbootloader_clock_configure
p179
(lp180
(L1154001737L
L1880226080L
(lp181
(lp182
Vesp_rom_uart_tx_wait_idle
p183
aVefuse_hal_chip_revision
p184
atp185
a(L1210868914L
L0L
(lp186
(lp187
tp188
a(L64047172L
L3785322319L
(lp189
(lp190
Vrtc_clk_apb_freq_get
p191
atp192
a(L1203878623L
L1832448559L
(lp193
(lp194
Vrtc_clk_slow_freq_get
p195
aVrtc_clk_fast_freq_get
p196
aVrtc_clk_init
p197
atp198
a(L2956993324L
L0L
(lp199
(lp200
tp201
a(L3864824743L
L0L
(lp202
(lp203
tp204
a(L106L
L0L
(lp205
(lp206
tp207
atp208
sI1074270208
(Vrtc_clk_init
p209
(lp210
(L3734878590L
L0L
(lp211
(lp212
tp213
a(L42671777L
L3785322319L
(lp214
(lp215
Vrtc_clk_cpu_freq_to_xtal
p216
atp217
a(L3536108137L
L0L
(lp218
(lp219
tp220
a(L4184912069L
L0L
(lp221
(lp222
tp223
a(L2873281153L
L0L
(lp224
(lp225
tp226
a(L912414356L
L3785322319L
(lp227
(lp228
Vrtc_clk_xtal_freq_get
p229
atp230
a(L2504323164L
L1157885199L
(lp231
(lp232
Vesp_rom_uart_tx_wait_idle
p233
aVrtc_clk_xtal_freq_update
p234
aVrtc_clk_apb_freq_update
p235
aVrtc_clk_cpu_freq_get_config
p236
aVrtc_clk_cpu_freq_mhz_to_config
p237
atp238
a(L3225914984L
L1880226080L
(lp239
(lp240
Vesp_log_early_timestamp
p241
aVabort
p242
atp243
a(L4187693717L
L3785322319L
(lp244
(lp245
Vrtc_clk_xtal_freq_estimate
p246
atp247
a(L2532622708L
L3785322319L
(lp248
(lp249
Vesp_log_early_timestamp
p250
atp251
a(L4188325301L
L0L
(lp252
(lp253
tp254
a(L1563923531L
L0L
(lp255
(lp256
tp257
a(L106L
L0L
(lp258
(lp259
tp260
a(L4070631878L
L3785322319L
(lp261
(lp262
Vrtc_clk_xtal_freq_estimate
p263
atp264
a(L106L
L0L
(lp265
(lp266
tp267
a(L3373934571L
L3785322319L
(lp268
(lp269
Vesp_log_early_timestamp
p270
atp271
a(L4130589666L
L3785322319L
(lp272
(lp273
Vrtc_clk_cpu_freq_set_config
p274
atp275
a(L4168829660L
L3785322319L
(lp276
(lp277
Vrtc_clk_32k_enable
p278
atp279
a(L3016870L
L0L
(lp280
(lp281
tp282
a(L87508165L
L3785322319L
(lp283
(lp284
Vrtc_clk_8m_enable
p285
atp286
a(L530469956L
L1880226080L
(lp287
(lp288
Vrtc_clk_fast_freq_set
p289
aVrtc_clk_slow_freq_set
p290
atp291
atp292
sI1074240268
(Vbootloader_debug_buffer
p293
(lp294
(L2100504542L
L0L
(lp295
(lp296
tp297
atp298
sI1074267139
(V_text_start
p299
(lp300
(L1817914933L
L0L
(lp301
(lp302
tp303
atp304
sI1074269956
(Vbootloader_console_init
p305
(lp306
(L375142255L
L1832448559L
(lp307
(lp308
Vesp_rom_uart_tx_wait_idle
p309
aVrtc_clk_apb_freq_get
p310
aVesp_rom_uart_set_clock_baudrate
p311
atp312
atp313
sI1074243604
(Vesp_rom_spiflash_erase_sector
p314
(lp315
(L3898401745L
L0L
(lp316
(lp317
tp318
a(L2258688483L
L0L
(lp319
(lp320
tp321
a(L3360570486L
L0L
(lp322
(lp323
tp324
a(L3212356251L
L3785322319L
(lp325
(lp326
Vesp_rom_spiflash_enable_write
p327
atp328
a(L184152988L
L0L
(lp329
(lp330
tp331
a(L1417699914L
L3785322319L
(lp332
(lp333
Vesp_rom_spiflash_wait_idle
p334
atp335
a(L3333707777L
L0L
(lp336
(lp337
tp338
a(L3582858798L
L3785322319L
(lp339
(lp340
Vesp_rom_spiflash_wait_idle
p341
atp342
atp343
sI1074240276
(Vbootloader_sha256_start
p344
(lp345
(L4134328955L
L0L
(lp346
(lp347
tp348
atp349
sI1074238992
(Vlog_invalid_app_partition
p350
(lp351
(L4293078423L
L0L
(lp352
(lp353
tp354
a(L3028464L
L0L
(lp355
(lp356
tp357
a(L60127667L
L3785322319L
(lp358
(lp359
Vesp_log_early_timestamp
p360
atp361
a(L44113432L
L0L
(lp362
(lp363
tp364
a(L3360570486L
L0L
(lp365
(lp366
tp367
a(L1770519575L
L3785322319L
(lp368
(lp369
Vesp_log_early_timestamp
p370
atp371
a(L2524670070L
L3785322319L
(lp372
(lp373
Vesp_log_early_timestamp
p374
atp375
atp376
sI1074248208
(Vrtc_clk_cal_ratio
p377
(lp378
(L1321915745L
L3785322319L
(lp379
(lp380
Vrtc_clk_cal_internal
p381
atp382
atp383
sI1074243356
(Vesp_rom_spiflash_enable_write
p384
(lp385
(L212476449L
L3785322319L
(lp386
(lp387
Vesp_rom_spiflash_wait_idle
p388
atp389
a(L3137194272L
L0L
(lp390
(lp391
tp392
a(L2258718275L
L0L
(lp393
(lp394
tp395
a(L99543895L
L0L
(lp396
(lp397
tp398
a(L2993202392L
L0L
(lp399
(lp400
tp401
a(L1804543818L
L3785322319L
(lp402
(lp403
Vesp_rom_spiflash_read_status
p404
atp405
atp406
sI1074235672
(Vbootloader_flash_xmc_startup
p407
(lp408
(L4031258446L
L3785322319L
(lp409
(lp410
Vis_xmc_chip_strict
p411
atp412
a(L2258688482L
L0L
(lp413
(lp414
tp415
a(L3360570486L
L0L
(lp416
(lp417
tp418
a(L2860324232L
L3785322319L
(lp419
(lp420
Vbootloader_flash_read_sfdp
p421
atp422
a(L3354428414L
L2567856111L
(lp423
(lp424
Vesp_log_early_timestamp
p425
aVbootloader_execute_flash_command
p426
aVbootloader_execute_flash_command
p427
aVbootloader_execute_flash_command
p428
aVbootloader_execute_flash_command
p429
aVbootloader_read_flash_id
p430
aVis_xmc_chip_strict
p431
atp432
a(L3332645139L
L3785322319L
(lp433
(lp434
Vesp_log_early_timestamp
p435
atp436
atp437
sI1074246424
(Vrtc_clk_8md256_enabled
p438
(lp439
(L2910123117L
L0L
(lp440
(lp441
tp442
atp443
sI1074268200
(Vbootloader_init
p444
(lp445
(L2725830639L
L3785322319L
(lp446
(lp447
Vbootloader_init_mem
p448
atp449
a(L450731687L
L0L
(lp450
(lp451
tp452
a(L3336286567L
L3785322319L
(lp453
(lp454
V__assert_func
p455
atp456
a(L3188578498L
L0L
(lp457
(lp458
tp459
a(L1277172108L
L0L
(lp460
(lp461
tp462
a(L2926278337L
L0L
(lp463
(lp464
tp465
a(L2851108022L
L0L
(lp466
(lp467
tp468
a(L3027019L
L0L
(lp469
(lp470
tp471
a(L4254309010L
L0L
(lp472
(lp473
tp474
a(L2362411092L
L1832448559L
(lp475
(lp476
Vbootloader_clear_bss_section
p477
aVbootloader_common_vddsdio_configure
p478
aVbootloader_clock_get_rated_freq_mhz
p479
atp480
a(L3987130017L
L1157885199L
(lp481
(lp482
Vbootloader_clock_configure
p483
aVbootloader_console_init
p484
aVbootloader_print_banner
p485
aVbootloader_flash_update_id
p486
aVbootloader_flash_xmc_startup
p487
atp488
a(L1227450900L
L3785322319L
(lp489
(lp490
Vesp_log_early_timestamp
p491
atp492
a(L3642695687L
L3785322319L
(lp493
(lp494
Vesp_log_early_timestamp
p495
atp496
a(L3360570486L
L0L
(lp497
(lp498
tp499
a(L2444883382L
L3785322319L
(lp500
(lp501
Vbootloader_read_bootloader_header
p502
atp503
a(L2444883382L
L3785322319L
(lp504
(lp505
Vbootloader_check_bootloader_validity
p506
atp507
a(L1541487705L
L2485746240L
(lp508
(lp509
Vbootloader_flash_gpio_config
p510
aVbootloader_flash_dummy_config
p511
aVbootloader_flash_cs_timing_config
p512
aVbootloader_flash_unlock
p513
atp514
a(L2419480444L
L0L
(lp515
(lp516
tp517
a(L1350909440L
L0L
(lp518
(lp519
tp520
a(L3902505858L
L0L
(lp521
(lp522
tp523
a(L2051117730L
L3785322319L
(lp524
(lp525
Vesp_log_early_timestamp
p526
atp527
a(L4025035610L
L0L
(lp528
(lp529
tp530
a(L4028729694L
L0L
(lp531
(lp532
tp533
a(L2883563654L
L0L
(lp534
(lp535
tp536
a(L2887257738L
L0L
(lp537
(lp538
tp539
a(L3201442508L
L0L
(lp540
(lp541
tp542
a(L187795384L
L3785322319L
(lp543
(lp544
Vesp_log_early_timestamp
p545
atp546
a(L93674324L
L0L
(lp547
(lp548
tp549
a(L3316050533L
L0L
(lp550
(lp551
tp552
a(L718637778L
L0L
(lp553
(lp554
tp555
a(L2781192072L
L0L
(lp556
(lp557
tp558
a(L2773812181L
L0L
(lp559
(lp560
tp561
a(L2466579545L
L3785322319L
(lp562
(lp563
Vesp_log_early_timestamp
p564
atp565
a(L104277116L
L0L
(lp566
(lp567
tp568
a(L2642220900L
L0L
(lp569
(lp570
tp571
a(L819703139L
L0L
(lp572
(lp573
tp574
a(L575140665L
L0L
(lp575
(lp576
tp577
a(L2413747662L
L3785322319L
(lp578
(lp579
Vbootloader_enable_wp
p580
atp581
a(L1092107084L
L0L
(lp582
(lp583
tp584
a(L3239157056L
L3785322319L
(lp585
(lp586
Vesp_log_early_timestamp
p587
atp588
a(L3562778957L
L0L
(lp589
(lp590
tp591
a(L569753936L
L0L
(lp592
(lp593
tp594
a(L2902417580L
L0L
(lp595
(lp596
tp597
a(L1944713791L
L1880226080L
(lp598
(lp599
Vwdt_reset_info_dump
p600
aVwdt_reset_info_dump
p601
atp602
a(L2386818306L
L1880226080L
(lp603
(lp604
Vbootloader_config_wdt
p605
aVbootloader_enable_random
p606
atp607
a(L2867233991L
L3785322319L
(lp608
(lp609
Vesp_log_early_timestamp
p610
atp611
atp612
sI1074235940
(Vbootloader_flash_gpio_config
p613
(lp614
(L719792650L
L3785322319L
(lp615
(lp616
Vbootloader_common_get_chip_ver_pkg
p617
atp618
a(L106L
L0L
(lp619
(lp620
tp621
a(L2886083034L
L0L
(lp622
(lp623
tp624
a(L106L
L0L
(lp625
(lp626
tp627
a(L4213870169L
L0L
(lp628
(lp629
tp630
a(L3890032189L
L0L
(lp631
(lp632
tp633
a(L106L
L0L
(lp634
(lp635
tp636
a(L676119430L
L0L
(lp637
(lp638
tp639
a(L4272081986L
L0L
(lp640
(lp641
tp642
a(L3360570486L
L0L
(lp643
(lp644
tp645
atp646
sI1074245668
(Vwdt_hal_enable
p647
(lp648
(L4029830118L
L0L
(lp649
(lp650
tp651
a(L3634439744L
L0L
(lp652
(lp653
tp654
a(L3360570486L
L0L
(lp655
(lp656
tp657
a(L2011576586L
L0L
(lp658
(lp659
tp660
atp661
sI1074247460
(Vrtc_clk_cpu_freq_set_config
p662
(lp663
(L1591980960L
L3785322319L
(lp664
(lp665
Vrtc_clk_xtal_freq_get
p666
atp667
a(L1828795533L
L1880226080L
(lp668
(lp669
Vrtc_clk_cpu_freq_to_xtal
p670
aVrtc_clk_wait_for_slow_cycle
p671
atp672
a(L94425498L
L3785322319L
(lp673
(lp674
Vrtc_clk_bbpll_disable
p675
atp676
a(L3978916712L
L0L
(lp677
(lp678
tp679
a(L2977209154L
L0L
(lp680
(lp681
tp682
a(L2736411858L
L3785322319L
(lp683
(lp684
Vrtc_clk_cpu_freq_to_xtal
p685
atp686
a(L3360570486L
L0L
(lp687
(lp688
tp689
a(L3020187L
L0L
(lp690
(lp691
tp692
a(L106L
L0L
(lp693
(lp694
tp695
a(L3964531486L
L2485746240L
(lp696
(lp697
Vrtc_clk_wait_for_slow_cycle
p698
aVrtc_clk_xtal_freq_get
p699
aVrtc_clk_bbpll_configure
p700
aVrtc_clk_cpu_freq_to_pll_mhz
p701
atp702
a(L3020187L
L0L
(lp703
(lp704
tp705
a(L106L
L0L
(lp706
(lp707
tp708
a(L2214558639L
L0L
(lp709
(lp710
tp711
atp712
sI1074269740
(Vbootloader_config_wdt
p713
(lp714
(L1142438309L
L505859776L
(lp715
(lp716
Vwdt_hal_write_protect_disable
p717
aVwdt_hal_set_flashboot_en
p718
aVwdt_hal_write_protect_enable
p719
aVwdt_hal_init
p720
aVrtc_clk_slow_freq_get_hz
p721
aVwdt_hal_write_protect_disable
p722
aVwdt_hal_config_stage
p723
aVwdt_hal_enable
p724
aVwdt_hal_write_protect_enable
p725
aVwdt_hal_write_protect_disable
p726
aVwdt_hal_set_flashboot_en
p727
aVwdt_hal_write_protect_enable
p728
atp729
atp730
sI1074237728
(Vbootloader_flash_read
p731
(lp732
(L2699333355L
L0L
(lp733
(lp734
tp735
a(L1175362320L
L3785322319L
(lp736
(lp737
Vesp_log_early_timestamp
p738
atp739
a(L44113432L
L0L
(lp740
(lp741
tp742
a(L1299867982L
L0L
(lp743
(lp744
tp745
a(L3360570486L
L0L
(lp746
(lp747
tp748
a(L2660352519L
L0L
(lp749
(lp750
tp751
a(L521140592L
L3785322319L
(lp752
(lp753
Vesp_log_early_timestamp
p754
atp755
a(L162336582L
L0L
(lp756
(lp757
tp758
a(L1181808077L
L3785322319L
(lp759
(lp760
Vesp_log_early_timestamp
p761
atp762
a(L3020204L
L0L
(lp763
(lp764
tp765
a(L1398573769L
L0L
(lp766
(lp767
tp768
a(L97422L
L0L
(lp769
(lp770
tp771
a(L3753789769L
L0L
(lp772
(lp773
tp774
a(L3653028369L
L0L
(lp775
(lp776
tp777
a(L4242981970L
L3785322319L
(lp778
(lp779
Vesp_log_early_timestamp
p780
atp781
a(L4138677549L
L0L
(lp782
(lp783
tp784
a(L753544199L
L0L
(lp785
(lp786
tp787
a(L3408640340L
L1880226080L
(lp788
(lp789
Vesp_rom_spiflash_read
p790
aVspi_to_esp_err
p791
atp792
atp793
sI1074237472
(Vspi_to_esp_err
p794
(lp795
(L2933521939L
L0L
(lp796
(lp797
tp798
a(L366093042L
L0L
(lp799
(lp800
tp801
a(L3549545911L
L0L
(lp802
(lp803
tp804
a(L3126521138L
L0L
(lp805
(lp806
tp807
atp808
sI1074245932
(Vrtc_clk_cpu_freq_to_pll_mhz
p809
(lp810
(L428013989L
L0L
(lp811
(lp812
tp813
a(L106L
L0L
(lp814
(lp815
tp816
a(L1541997046L
L0L
(lp817
(lp818
tp819
a(L106L
L0L
(lp820
(lp821
tp822
a(L1546614651L
L0L
(lp823
(lp824
tp825
a(L2907368881L
L0L
(lp826
(lp827
tp828
a(L1231145073L
L3785322319L
(lp829
(lp830
Vrtc_clk_wait_for_slow_cycle
p831
atp832
a(L3451441343L
L1880226080L
(lp833
(lp834
Vesp_log_early_timestamp
p835
aVabort
p836
atp837
a(L1183020347L
L0L
(lp838
(lp839
tp840
a(L1305407562L
L0L
(lp841
(lp842
tp843
a(L1306330990L
L0L
(lp844
(lp845
tp846
atp847
sI1074269988
(Vesp_cpu_configure_region_protection
p848
(lp849
(L921839964L
L0L
(lp850
(lp851
tp852
a(L180431425L
L3785322319L
(lp853
(lp854
Vmpu_hal_set_region_access
p855
atp856
a(L2537388152L
L3785322319L
(lp857
(lp858
Vmpu_hal_set_region_access
p859
atp860
atp861
sI1074240296
(Vbootloader_sha256_data
p862
(lp863
(L4066096136L
L0L
(lp864
(lp865
tp866
a(L1563173327L
L0L
(lp867
(lp868
tp869
a(L2504541789L
L3785322319L
(lp870
(lp871
V__assert_func
p872
atp873
a(L498498478L
L0L
(lp874
(lp875
tp876
a(L4268756642L
L0L
(lp877
(lp878
tp879
a(L2910371777L
L0L
(lp880
(lp881
tp882
a(L3360570486L
L0L
(lp883
(lp884
tp885
a(L301121101L
L0L
(lp886
(lp887
tp888
a(L841847518L
L0L
(lp889
(lp890
tp891
a(L1586729644L
L0L
(lp892
(lp893
tp894
a(L2700619295L
L0L
(lp895
(lp896
tp897
a(L1175956750L
L0L
(lp898
(lp899
tp900
a(L1390602840L
L0L
(lp901
(lp902
tp903
a(L3028464L
L0L
(lp904
(lp905
tp906
a(L717127773L
L0L
(lp907
(lp908
tp909
a(L784960019L
L0L
(lp910
(lp911
tp912
atp913
sI1074267964
(Vbootloader_common_get_reset_reason
p914
(lp915
(L3780188688L
L0L
(lp916
(lp917
tp918
atp919
sI1074238000
(Vbootloader_flash_erase_sector
p920
(lp921
(L4129137686L
L1880226080L
(lp922
(lp923
Vesp_rom_spiflash_erase_sector
p924
aVspi_to_esp_err
p925
atp926
atp927
sI1074246448
(Vrtc_clk_slow_freq_set
p928
(lp929
(L2675301828L
L0L
(lp930
(lp931
tp932
atp933
sI1074248240
(Vrtc_clk_wait_for_slow_cycle
p934
(lp935
(L3016661646L
L0L
(lp936
(lp937
tp938
a(L287687718L
L0L
(lp939
(lp940
tp941
a(L3360570486L
L0L
(lp942
(lp943
tp944
a(L3986273454L
L0L
(lp945
(lp946
tp947
a(L2994547433L
L0L
(lp948
(lp949
tp950
a(L2509841317L
L0L
(lp951
(lp952
tp953
a(L3358736429L
L3785322319L
(lp954
(lp955
Vesp_log_early_timestamp
p956
atp957
atp958
sI1074247740
(Vrtc_clk_apb_freq_get
p959
(lp960
(L2039249796L
L0L
(lp961
(lp962
tp963
atp964
sI1074238020
(Vbootloader_flash_write
p965
(lp966
(L3119145091L
L0L
(lp967
(lp968
tp969
a(L962229776L
L3785322319L
(lp970
(lp971
Vesp_log_early_timestamp
p972
atp973
a(L44113432L
L0L
(lp974
(lp975
tp976
a(L1610445075L
L0L
(lp977
(lp978
tp979
a(L735741265L
L0L
(lp980
(lp981
tp982
a(L3291333414L
L0L
(lp983
(lp984
tp985
a(L2835528492L
L3785322319L
(lp986
(lp987
Vesp_log_early_timestamp
p988
atp989
a(L3283691850L
L0L
(lp990
(lp991
tp992
a(L3823398198L
L3785322319L
(lp993
(lp994
Vesp_log_early_timestamp
p995
atp996
a(L3212356251L
L3785322319L
(lp997
(lp998
Vbootloader_flash_unlock
p999
atp1000
a(L1799218633L
L0L
(lp1001
(lp1002
tp1003
a(L94425498L
L3785322319L
(lp1004
(lp1005
Vesp_rom_spiflash_write_encrypted
p1006
atp1007
a(L2927190544L
L3785322319L
(lp1008
(lp1009
Vspi_to_esp_err
p1010
atp1011
a(L2927190544L
L3785322319L
(lp1012
(lp1013
Vesp_rom_spiflash_write
p1014
atp1015
atp1016
sI1074243908
(Vesp_rom_spiflash_write_encrypted
p1017
(lp1018
(L2107077087L
L0L
(lp1019
(lp1020
tp1021
a(L2710764499L
L0L
(lp1022
(lp1023
tp1024
a(L97689L
L0L
(lp1025
(lp1026
tp1027
a(L3061232074L
L0L
(lp1028
(lp1029
tp1030
a(L61243957L
L0L
(lp1031
(lp1032
tp1033
a(L2903314395L
L3785322319L
(lp1034
(lp1035
Vesp_rom_spiflash_write
p1036
atp1037
a(L220838264L
L0L
(lp1038
(lp1039
tp1040
a(L735741265L
L0L
(lp1041
(lp1042
tp1043
atp1044
sI1074246212
(Vrtc_clk_32k_enable
p1045
(lp1046
(L753387299L
L0L
(lp1047
(lp1048
tp1049
a(L1067050752L
L3785322319L
(lp1050
(lp1051
Vrtc_clk_32k_enable_common
p1052
atp1053
a(L3360570486L
L0L
(lp1054
(lp1055
tp1056
a(L2048424610L
L0L
(lp1057
(lp1058
tp1059
atp1060
sI1074267980
(Vwdt_reset_info_dump
p1061
(lp1062
(L4037466985L
L0L
(lp1063
(lp1064
tp1065
a(L4162823486L
L0L
(lp1066
(lp1067
tp1068
a(L3759833313L
L0L
(lp1069
(lp1070
tp1071
a(L1103285333L
L0L
(lp1072
(lp1073
tp1074
a(L3874600256L
L3785322319L
(lp1075
(lp1076
Vesp_log_early_timestamp
p1077
atp1078
a(L2967992533L
L0L
(lp1079
(lp1080
tp1081
a(L4142801612L
L3785322319L
(lp1082
(lp1083
Vesp_log_early_timestamp
p1084
atp1085
a(L98458893L
L0L
(lp1086
(lp1087
tp1088
atp1089
sI1074237504
(Vbootloader_mmap
p1090
(lp1091
(L2059700562L
L0L
(lp1092
(lp1093
tp1094
a(L3017932071L
L3785322319L
(lp1095
(lp1096
Vesp_log_early_timestamp
p1097
atp1098
a(L1182811810L
L0L
(lp1099
(lp1100
tp1101
a(L3496950L
L0L
(lp1102
(lp1103
tp1104
a(L1630759581L
L0L
(lp1105
(lp1106
tp1107
a(L3536022130L
L3785322319L
(lp1108
(lp1109
Vesp_log_early_timestamp
p1110
atp1111
a(L1503832912L
L0L
(lp1112
(lp1113
tp1114
a(L2005677777L
L3785322319L
(lp1115
(lp1116
Vesp_log_early_timestamp
p1117
atp1118
a(L1090567542L
L0L
(lp1119
(lp1120
tp1121
atp1122
sI1074236992
(Vesp_log_early_timestamp
p1123
(lp1124
(L3622092107L
L0L
(lp1125
(lp1126
tp1127
atp1128
sI1074241612
(Vshould_load
p1129
(lp1130
(L2819894745L
L0L
(lp1131
(lp1132
tp1133
a(L1182990556L
L0L
(lp1134
(lp1135
tp1136
a(L1780902349L
L0L
(lp1137
(lp1138
tp1139
a(L1298905564L
L0L
(lp1140
(lp1141
tp1142
a(L524505062L
L0L
(lp1143
(lp1144
tp1145
a(L2258897019L
L0L
(lp1146
(lp1147
tp1148
a(L3781799363L
L0L
(lp1149
(lp1150
tp1151
a(L3028464L
L0L
(lp1152
(lp1153
tp1154
a(L476756448L
L0L
(lp1155
(lp1156
tp1157
a(L1004813886L
L0L
(lp1158
(lp1159
tp1160
a(L3959408124L
L0L
(lp1161
(lp1162
tp1163
a(L4185756579L
L0L
(lp1164
(lp1165
tp1166
a(L3458855836L
L0L
(lp1167
(lp1168
tp1169
a(L3126521138L
L0L
(lp1170
(lp1171
tp1172
a(L1305407438L
L0L
(lp1173
(lp1174
tp1175
a(L1305407469L
L0L
(lp1176
(lp1177
tp1178
atp1179
sI1074241096
(Vbootloader_util_regions_overlap
p1180
(lp1181
(L2762640130L
L0L
(lp1182
(lp1183
tp1184
a(L486238211L
L0L
(lp1185
(lp1186
tp1187
a(L3823861319L
L3785322319L
(lp1188
(lp1189
V__assert_func
p1190
atp1191
a(L97642L
L0L
(lp1192
(lp1193
tp1194
a(L2752402003L
L0L
(lp1195
(lp1196
tp1197
a(L366123053L
L0L
(lp1198
(lp1199
tp1200
a(L2258867228L
L0L
(lp1201
(lp1202
tp1203
a(L1253626734L
L0L
(lp1204
(lp1205
tp1206
a(L2258897019L
L0L
(lp1207
(lp1208
tp1209
a(L3109269495L
L0L
(lp1210
(lp1211
tp1212
atp1213
sI1074238280
(Vbootloader_random_disable
p1214
(lp1215
(L2124996308L
L0L
(lp1216
(lp1217
tp1218
atp1219
sI1074270036
(Vrtc_clk_xtal_freq_estimate
p1220
(lp1221
(L2516060585L
L1880226080L
(lp1222
(lp1223
Vrtc_clk_8m_enabled
p1224
aVrtc_clk_8md256_enabled
p1225
atp1226
a(L967485502L
L3785322319L
(lp1227
(lp1228
Vrtc_clk_8m_enable
p1229
atp1230
a(L267257268L
L3785322319L
(lp1231
(lp1232
Vrtc_clk_cal_ratio
p1233
atp1234
a(L93674324L
L0L
(lp1235
(lp1236
tp1237
a(L3910042627L
L0L
(lp1238
(lp1239
tp1240
a(L1299866334L
L0L
(lp1241
(lp1242
tp1243
a(L3360570486L
L0L
(lp1244
(lp1245
tp1246
a(L3936819466L
L0L
(lp1247
(lp1248
tp1249
a(L3982077265L
L0L
(lp1250
(lp1251
tp1252
a(L1641150486L
L0L
(lp1253
(lp1254
tp1255
a(L3618843600L
L3785322319L
(lp1256
(lp1257
Vesp_log_early_timestamp
p1258
atp1259
a(L4168362828L
L3785322319L
(lp1260
(lp1261
Vesp_log_early_timestamp
p1262
atp1263
a(L4114389777L
L3785322319L
(lp1264
(lp1265
Vesp_log_early_timestamp
p1266
atp1267
atp1268
sI1074243416
(Vesp_rom_spiflash_program_page_internal
p1269
(lp1270
(L2569069283L
L0L
(lp1271
(lp1272
tp1273
a(L2258688483L
L0L
(lp1274
(lp1275
tp1276
a(L3360570486L
L0L
(lp1277
(lp1278
tp1279
a(L3649828145L
L0L
(lp1280
(lp1281
tp1282
a(L4235661475L
L3785322319L
(lp1283
(lp1284
Vesp_rom_spiflash_wait_idle
p1285
atp1286
a(L1299866312L
L0L
(lp1287
(lp1288
tp1289
a(L3212356251L
L3785322319L
(lp1290
(lp1291
Vesp_rom_spiflash_enable_write
p1292
atp1293
a(L334355199L
L0L
(lp1294
(lp1295
tp1296
a(L3721244181L
L0L
(lp1297
(lp1298
tp1299
a(L2953702749L
L0L
(lp1300
(lp1301
tp1302
a(L2989032L
L0L
(lp1303
(lp1304
tp1305
a(L1965622133L
L0L
(lp1306
(lp1307
tp1308
a(L3994676957L
L0L
(lp1309
(lp1310
tp1311
a(L1958113242L
L0L
(lp1312
(lp1313
tp1314
a(L106L
L0L
(lp1315
(lp1316
tp1317
a(L4283177684L
L0L
(lp1318
(lp1319
tp1320
a(L1405253496L
L0L
(lp1321
(lp1322
tp1323
a(L1008982319L
L0L
(lp1324
(lp1325
tp1326
a(L1933954923L
L0L
(lp1327
(lp1328
tp1329
a(L3886319556L
L0L
(lp1330
(lp1331
tp1332
a(L2767679583L
L0L
(lp1333
(lp1334
tp1335
atp1336
sI1074236760
(Vefuse_hal_chip_revision
p1337
(lp1338
(L1761205471L
L1880226080L
(lp1339
(lp1340
Vefuse_hal_get_major_chip_version
p1341
aVefuse_hal_get_minor_chip_version
p1342
atp1343
atp1344
sI1074270824
(Vrtc_vddsdio_set_config
p1345
(lp1346
(L2882663635L
L0L
(lp1347
(lp1348
tp1349
atp1350
sI1074239076
(Vset_actual_ota_seq
p1351
(lp1352
(L2590207476L
L1832448559L
(lp1353
(lp1354
Vbootloader_common_ota_select_crc
p1355
aVefuse_hal_flash_encryption_enabled
p1356
aVbootloader_flash_erase_sector
p1357
atp1358
a(L3292941333L
L3785322319L
(lp1359
(lp1360
Vbootloader_flash_write
p1361
atp1362
a(L3725205052L
L3785322319L
(lp1363
(lp1364
Vesp_log_early_timestamp
p1365
atp1366
a(L3876573963L
L3785322319L
(lp1367
(lp1368
Vesp_log_early_timestamp
p1369
atp1370
atp1371
sI1074237024
(Vbootloader_common_ota_select_crc
p1372
(lp1373
(L943698951L
L0L
(lp1374
(lp1375
tp1376
atp1377
sI1074242912
(Vbootloader_load_image
p1378
(lp1379
(L1155870502L
L3785322319L
(lp1380
(lp1381
Vimage_load
p1382
atp1383
atp1384
sI1074245740
(Vwdt_hal_set_flashboot_en
p1385
(lp1386
(L2375320464L
L0L
(lp1387
(lp1388
tp1389
a(L2716561907L
L0L
(lp1390
(lp1391
tp1392
a(L3360570486L
L0L
(lp1393
(lp1394
tp1395
a(L996440984L
L0L
(lp1396
(lp1397
tp1398
atp1399
sI1074247016
(Vrtc_clk_xtal_freq_get
p1400
(lp1401
(L1197992749L
L0L
(lp1402
(lp1403
tp1404
a(L2847936993L
L0L
(lp1405
(lp1406
tp1407
a(L2868048551L
L0L
(lp1408
(lp1409
tp1410
a(L3360570486L
L0L
(lp1411
(lp1412
tp1413
atp1414
sI1074247272
(Vrtc_clk_xtal_freq_update
p1415
(lp1416
(L1200971062L
L0L
(lp1417
(lp1418
tp1419
a(L3509357017L
L0L
(lp1420
(lp1421
tp1422
a(L3020103887L
L0L
(lp1423
(lp1424
tp1425
atp1426
sI1074247784
(Vrtc_clk_cal_internal
p1427
(lp1428
(L2839534936L
L0L
(lp1429
(lp1430
tp1431
a(L2905548494L
L3785322319L
(lp1432
(lp1433
V__assert_func
p1434
atp1435
a(L2570522997L
L0L
(lp1436
(lp1437
tp1438
a(L3017366L
L0L
(lp1439
(lp1440
tp1441
a(L2781091364L
L0L
(lp1442
(lp1443
tp1444
a(L4169864463L
L1880226080L
(lp1445
(lp1446
Vrtc_clk_8m_enabled
p1447
aVrtc_clk_8md256_enabled
p1448
atp1449
a(L4286589987L
L3785322319L
(lp1450
(lp1451
Vrtc_clk_8m_enable
p1452
atp1453
a(L1052965478L
L0L
(lp1454
(lp1455
tp1456
a(L3502850147L
L0L
(lp1457
(lp1458
tp1459
a(L97689L
L0L
(lp1460
(lp1461
tp1462
a(L2473147788L
L0L
(lp1463
(lp1464
tp1465
a(L3028464L
L0L
(lp1466
(lp1467
tp1468
a(L3028481L
L0L
(lp1469
(lp1470
tp1471
a(L3450259565L
L0L
(lp1472
(lp1473
tp1474
a(L2839590900L
L3785322319L
(lp1475
(lp1476
Vrtc_clk_xtal_freq_get
p1477
atp1478
a(L2780079961L
L0L
(lp1479
(lp1480
tp1481
a(L2536048172L
L0L
(lp1482
(lp1483
tp1484
a(L3420444319L
L3785322319L
(lp1485
(lp1486
Vesp_log_early_timestamp
p1487
atp1488
a(L3360570486L
L0L
(lp1489
(lp1490
tp1491
a(L4135273484L
L0L
(lp1492
(lp1493
tp1494
a(L748565485L
L0L
(lp1495
(lp1496
tp1497
a(L3028481L
L0L
(lp1498
(lp1499
tp1500
a(L4112420445L
L0L
(lp1501
(lp1502
tp1503
a(L755155573L
L3785322319L
(lp1504
(lp1505
Vrtc_clk_8m_enable
p1506
atp1507
a(L3631005548L
L0L
(lp1508
(lp1509
tp1510
a(L2456680904L
L0L
(lp1511
(lp1512
tp1513
a(L3352263364L
L0L
(lp1514
(lp1515
tp1516
atp1517
sI1074237044
(Vbootloader_common_ota_select_valid
p1518
(lp1519
(L1563399710L
L3785322319L
(lp1520
(lp1521
Vbootloader_common_ota_select_invalid
p1522
atp1523
a(L3814720849L
L3785322319L
(lp1524
(lp1525
Vbootloader_common_ota_select_crc
p1526
atp1527
a(L3360570486L
L0L
(lp1528
(lp1529
tp1530
atp1531
sI1074235252
(Vbootloader_execute_flash_command
p1532
(lp1533
(L2481595632L
L3785322319L
(lp1534
(lp1535
Vbootloader_flash_execute_command_common
p1536
atp1537
atp1538
sI1074246516
(Vrtc_clk_slow_freq_get
p1539
(lp1540
(L3496640438L
L0L
(lp1541
(lp1542
tp1543
atp1544
sI1074242928
(Vesp_partition_table_verify
p1545
(lp1546
(L1518656766L
L0L
(lp1547
(lp1548
tp1549
a(L2872654191L
L0L
(lp1550
(lp1551
tp1552
a(L4287435191L
L0L
(lp1553
(lp1554
tp1555
a(L2910371777L
L0L
(lp1556
(lp1557
tp1558
a(L2810785767L
L0L
(lp1559
(lp1560
tp1561
a(L3360570486L
L0L
(lp1562
(lp1563
tp1564
a(L2334946637L
L0L
(lp1565
(lp1566
tp1567
a(L2478753082L
L0L
(lp1568
(lp1569
tp1570
a(L3020204L
L0L
(lp1571
(lp1572
tp1573
a(L1688188261L
L3785322319L
(lp1574
(lp1575
Vesp_log_early_timestamp
p1576
atp1577
a(L1031066118L
L3785322319L
(lp1578
(lp1579
Vesp_log_early_timestamp
p1580
atp1581
a(L3848731295L
L0L
(lp1582
(lp1583
tp1584
a(L2902417580L
L0L
(lp1585
(lp1586
tp1587
a(L3020204L
L0L
(lp1588
(lp1589
tp1590
a(L2825404274L
L3785322319L
(lp1591
(lp1592
Vesp_log_early_timestamp
p1593
atp1594
a(L1367516498L
L0L
(lp1595
(lp1596
tp1597
a(L3291987620L
L0L
(lp1598
(lp1599
tp1600
a(L2902417580L
L0L
(lp1601
(lp1602
tp1603
a(L1688186804L
L3785322319L
(lp1604
(lp1605
Vesp_log_early_timestamp
p1606
atp1607
a(L1613213999L
L0L
(lp1608
(lp1609
tp1610
a(L1167861556L
L0L
(lp1611
(lp1612
tp1613
a(L3260980605L
L0L
(lp1614
(lp1615
tp1616
a(L2910371777L
L0L
(lp1617
(lp1618
tp1619
a(L1235012932L
L0L
(lp1620
(lp1621
tp1622
a(L2646947635L
L3785322319L
(lp1623
(lp1624
Vesp_log_early_timestamp
p1625
atp1626
atp1627
sI1074244732
(Vwdt_hal_init
p1628
(lp1629
(L679162730L
L0L
(lp1630
(lp1631
tp1632
a(L369135652L
L0L
(lp1633
(lp1634
tp1635
a(L2805933837L
L0L
(lp1636
(lp1637
tp1638
a(L2550927442L
L0L
(lp1639
(lp1640
tp1641
a(L1390686929L
L0L
(lp1642
(lp1643
tp1644
a(L3360570486L
L0L
(lp1645
(lp1646
tp1647
a(L901431428L
L0L
(lp1648
(lp1649
tp1650
atp1651
sI1074236792
(Vefuse_hal_flash_encryption_enabled
p1652
(lp1653
(L2780109918L
L0L
(lp1654
(lp1655
tp1656
a(L2910371777L
L0L
(lp1657
(lp1658
tp1659
a(L3360570486L
L0L
(lp1660
(lp1661
tp1662
a(L3016870L
L0L
(lp1663
(lp1664
tp1665
a(L3745038218L
L0L
(lp1666
(lp1667
tp1668
a(L957607403L
L0L
(lp1669
(lp1670
tp1671
atp1672
sI1074239608
(Vbootloader_utility_get_selected_boot_partition
p1673
(lp1674
(L2184143128L
L0L
(lp1675
(lp1676
tp1677
a(L3648837801L
L0L
(lp1678
(lp1679
tp1680
a(L3739057596L
L3785322319L
(lp1681
(lp1682
Vesp_log_early_timestamp
p1683
atp1684
a(L4026981588L
L0L
(lp1685
(lp1686
tp1687
a(L3360570486L
L0L
(lp1688
(lp1689
tp1690
a(L1375577398L
L3785322319L
(lp1691
(lp1692
Vbootloader_mmap
p1693
atp1694
a(L3668558090L
L3785322319L
(lp1695
(lp1696
Vesp_log_early_timestamp
p1697
atp1698
a(L3744659248L
L1880226080L
(lp1699
(lp1700
Vbootloader_munmap
p1701
aVbootloader_common_ota_select_invalid
p1702
atp1703
a(L1103573946L
L0L
(lp1704
(lp1705
tp1706
a(L1876835593L
L3785322319L
(lp1707
(lp1708
Vbootloader_common_get_active_otadata
p1709
atp1710
a(L106L
L0L
(lp1711
(lp1712
tp1713
a(L569346373L
L0L
(lp1714
(lp1715
tp1716
a(L788494392L
L3785322319L
(lp1717
(lp1718
Vbootloader_common_ota_select_invalid
p1719
atp1720
a(L2675958250L
L0L
(lp1721
(lp1722
tp1723
a(L4156538522L
L3785322319L
(lp1724
(lp1725
Vesp_log_early_timestamp
p1726
atp1727
a(L3946700466L
L3785322319L
(lp1728
(lp1729
Vesp_log_early_timestamp
p1730
atp1731
a(L505081345L
L0L
(lp1732
(lp1733
tp1734
a(L919052234L
L3785322319L
(lp1735
(lp1736
Vbootloader_common_ota_select_crc
p1737
atp1738
a(L2287680455L
L0L
(lp1739
(lp1740
tp1741
a(L3542558037L
L3785322319L
(lp1742
(lp1743
Vbootloader_common_ota_select_crc
p1744
atp1745
a(L1299866312L
L0L
(lp1746
(lp1747
tp1748
a(L3205436778L
L0L
(lp1749
(lp1750
tp1751
a(L3195943282L
L3785322319L
(lp1752
(lp1753
Vesp_log_early_timestamp
p1754
atp1755
a(L1367516498L
L0L
(lp1756
(lp1757
tp1758
a(L4142618861L
L3785322319L
(lp1759
(lp1760
Vesp_log_early_timestamp
p1761
atp1762
atp1763
sI1074238596
(Vbootloader_clock_get_rated_freq_mhz
p1764
(lp1765
(L376617603L
L3785322319L
(lp1766
(lp1767
Vefuse_hal_get_rated_freq_mhz
p1768
atp1769
atp1770
sI1074246532
(Vrtc_clk_slow_freq_get_hz
p1771
(lp1772
(L3773773206L
L0L
(lp1773
(lp1774
tp1775
a(L3642722998L
L0L
(lp1776
(lp1777
tp1778
a(L858011593L
L0L
(lp1779
(lp1780
tp1781
a(L3360570486L
L0L
(lp1782
(lp1783
tp1784
atp1785
sI1074246272
(Vrtc_clk_8m_enable
p1786
(lp1787
(L2831000540L
L0L
(lp1788
(lp1789
tp1790
a(L309349265L
L0L
(lp1791
(lp1792
tp1793
a(L2151320156L
L0L
(lp1794
(lp1795
tp1796
a(L1391734358L
L0L
(lp1797
(lp1798
tp1799
a(L3360570486L
L0L
(lp1800
(lp1801
tp1802
a(L1318267208L
L0L
(lp1803
(lp1804
tp1805
a(L2514659872L
L0L
(lp1806
(lp1807
tp1808
atp1809
sI1074241152
(Vverify_load_addresses
p1810
(lp1811
(L2763563698L
L0L
(lp1812
(lp1813
tp1814
a(L106L
L0L
(lp1815
(lp1816
tp1817
a(L97642L
L0L
(lp1818
(lp1819
tp1820
a(L2952239952L
L3785322319L
(lp1821
(lp1822
V__assert_func
p1823
atp1824
a(L1902503151L
L0L
(lp1825
(lp1826
tp1827
a(L106L
L0L
(lp1828
(lp1829
tp1830
a(L3433004918L
L0L
(lp1831
(lp1832
tp1833
a(L106L
L0L
(lp1834
(lp1835
tp1836
a(L2295851402L
L3785322319L
(lp1837
(lp1838
Vbootloader_util_regions_overlap
p1839
atp1840
a(L3129832310L
L3785322319L
(lp1841
(lp1842
Vbootloader_util_regions_overlap
p1843
atp1844
a(L3028481L
L0L
(lp1845
(lp1846
tp1847
a(L4008903006L
L3785322319L
(lp1848
(lp1849
Vbootloader_util_regions_overlap
p1850
atp1851
a(L810308952L
L0L
(lp1852
(lp1853
tp1854
a(L1770664004L
L0L
(lp1855
(lp1856
tp1857
a(L151109921L
L0L
(lp1858
(lp1859
tp1860
a(L2015090525L
L0L
(lp1861
(lp1862
tp1863
a(L642339957L
L0L
(lp1864
(lp1865
tp1866
a(L677569396L
L3785322319L
(lp1867
(lp1868
Vverify_load_addresses
p1869
atp1870
a(L1351513776L
L0L
(lp1871
(lp1872
tp1873
a(L2071984958L
L0L
(lp1874
(lp1875
tp1876
a(L957547170L
L0L
(lp1877
(lp1878
tp1879
a(L3693032374L
L3785322319L
(lp1880
(lp1881
Vbootloader_util_regions_overlap
p1882
atp1883
a(L3028481L
L0L
(lp1884
(lp1885
tp1886
a(L2780947582L
L3785322319L
(lp1887
(lp1888
Vbootloader_util_regions_overlap
p1889
atp1890
a(L1826055167L
L0L
(lp1891
(lp1892
tp1893
a(L3901439154L
L0L
(lp1894
(lp1895
tp1896
a(L1280432842L
L0L
(lp1897
(lp1898
tp1899
a(L4075086914L
L0L
(lp1900
(lp1901
tp1902
a(L307916966L
L0L
(lp1903
(lp1904
tp1905
a(L697239146L
L0L
(lp1906
(lp1907
tp1908
a(L106L
L0L
(lp1909
(lp1910
tp1911
a(L955484020L
L0L
(lp1912
(lp1913
tp1914
a(L307916753L
L0L
(lp1915
(lp1916
tp1917
a(L490080443L
L0L
(lp1918
(lp1919
tp1920
a(L106L
L0L
(lp1921
(lp1922
tp1923
a(L1287163434L
L3785322319L
(lp1924
(lp1925
Vesp_log_early_timestamp
p1926
atp1927
a(L955485353L
L0L
(lp1928
(lp1929
tp1930
a(L1303560427L
L0L
(lp1931
(lp1932
tp1933
atp1934
sI1074236556
(Vbootloader_common_get_chip_ver_pkg
p1935
(lp1936
(L1176319107L
L0L
(lp1937
(lp1938
tp1939
atp1940
sI1074237324
(Vbootloader_common_get_active_otadata
p1941
(lp1942
(L3317503532L
L0L
(lp1943
(lp1944
tp1945
a(L2503049265L
L1832448559L
(lp1946
(lp1947
Vbootloader_common_ota_select_valid
p1948
aVbootloader_common_ota_select_valid
p1949
aVbootloader_common_select_otadata
p1950
atp1951
a(L735741265L
L0L
(lp1952
(lp1953
tp1954
atp1955
sI1074240904
(Vprocess_image_header
p1956
(lp1957
(L634255103L
L3785322319L
(lp1958
(lp1959
Vbootloader_flash_read
p1960
atp1961
a(L3020204L
L0L
(lp1962
(lp1963
tp1964
a(L1583805461L
L0L
(lp1965
(lp1966
tp1967
a(L1727394037L
L0L
(lp1968
(lp1969
tp1970
a(L1161397362L
L3785322319L
(lp1971
(lp1972
Vbootloader_sha256_start
p1973
atp1974
a(L1948257695L
L3785322319L
(lp1975
(lp1976
Vbootloader_sha256_data
p1977
atp1978
a(L1095449651L
L0L
(lp1979
(lp1980
tp1981
a(L3020204L
L0L
(lp1982
(lp1983
tp1984
a(L702739623L
L0L
(lp1985
(lp1986
tp1987
a(L3360570486L
L0L
(lp1988
(lp1989
tp1990
a(L1740884593L
L3785322319L
(lp1991
(lp1992
Vesp_log_early_timestamp
p1993
atp1994
a(L3718883008L
L3785322319L
(lp1995
(lp1996
Vbootloader_common_check_chip_validity
p1997
atp1998
a(L3677035427L
L0L
(lp1999
(lp2000
tp2001
a(L3028481L
L0L
(lp2002
(lp2003
tp2004
a(L2166811440L
L3785322319L
(lp2005
(lp2006
Vesp_log_early_timestamp
p2007
atp2008
a(L2250109166L
L0L
(lp2009
(lp2010
tp2011
a(L1235012870L
L0L
(lp2012
(lp2013
tp2014
a(L3063569071L
L0L
(lp2015
(lp2016
tp2017
atp2018
sI1074235284
(Vbootloader_flash_unlock
p2019
(lp2020
(L142706334L
L3785322319L
(lp2021
(lp2022
Vesp_rom_spiflash_wait_idle
p2023
atp2024
a(L4024621237L
L0L
(lp2025
(lp2026
tp2027
a(L4292483033L
L3785322319L
(lp2028
(lp2029
Vbootloader_execute_flash_command
p2030
atp2031
a(L106L
L0L
(lp2032
(lp2033
tp2034
a(L1303560644L
L0L
(lp2035
(lp2036
tp2037
a(L1419965066L
L0L
(lp2038
(lp2039
tp2040
a(L106L
L0L
(lp2041
(lp2042
tp2043
a(L1633120054L
L0L
(lp2044
(lp2045
tp2046
a(L106L
L0L
(lp2047
(lp2048
tp2049
a(L2974484771L
L0L
(lp2050
(lp2051
tp2052
a(L106L
L0L
(lp2053
(lp2054
tp2055
a(L1481761147L
L1880226080L
(lp2056
(lp2057
Vbootloader_execute_flash_command
p2058
aVbootloader_execute_flash_command
p2059
atp2060
a(L2258807654L
L0L
(lp2061
(lp2062
tp2063
a(L489806350L
L1832448559L
(lp2064
(lp2065
Vesp_rom_spiflash_wait_idle
p2066
aVbootloader_execute_flash_command
p2067
aVbootloader_execute_flash_command
p2068
atp2069
a(L879744646L
L1832448559L
(lp2070
(lp2071
Vesp_rom_spiflash_wait_idle
p2072
aVbootloader_execute_flash_command
p2073
aVbootloader_execute_flash_command
p2074
atp2075
a(L1840772931L
L1880226080L
(lp2076
(lp2077
Vesp_rom_spiflash_wait_idle
p2078
aVbootloader_execute_flash_command
p2079
atp2080
a(L2993202392L
L0L
(lp2081
(lp2082
tp2083
a(L508800419L
L1880226080L
(lp2084
(lp2085
Vbootloader_execute_flash_command
p2086
aVbootloader_execute_flash_command
p2087
atp2088
a(L1303560369L
L0L
(lp2089
(lp2090
tp2091
a(L1596544945L
L0L
(lp2092
(lp2093
tp2094
a(L97689L
L0L
(lp2095
(lp2096
tp2097
a(L106L
L0L
(lp2098
(lp2099
tp2100
atp2101
sI1074247316
(Vrtc_clk_apb_freq_update
p2102
(lp2103
(L1310529756L
L0L
(lp2104
(lp2105
tp2106
atp2107
sI1074267804
(Vcall_start_cpu0
p2108
(lp2109
(L1137852827L
L0L
(lp2110
(lp2111
tp2112
a(L549459388L
L0L
(lp2113
(lp2114
tp2115
a(L3212347974L
L3785322319L
(lp2116
(lp2117
Vbootloader_init
p2118
atp2119
a(L94425498L
L3785322319L
(lp2120
(lp2121
Vbootloader_reset
p2122
atp2123
a(L1122046408L
L0L
(lp2124
(lp2125
tp2126
a(L4099474112L
L0L
(lp2127
(lp2128
tp2129
a(L3015046664L
L3785322319L
(lp2130
(lp2131
Vbootloader_utility_load_partition_table
p2132
atp2133
a(L2761094216L
L3785322319L
(lp2134
(lp2135
Vesp_log_early_timestamp
p2136
atp2137
a(L736289835L
L3785322319L
(lp2138
(lp2139
Vbootloader_utility_get_selected_boot_partition
p2140
atp2141
a(L3548846595L
L1880226080L
(lp2142
(lp2143
Vbootloader_common_get_reset_reason
p2144
aVbootloader_utility_load_boot_image
p2145
atp2146
atp2147
sI1074238608
(Vload_image
p2148
(lp2149
(L3679617832L
L1832448559L
(lp2150
(lp2151
Vesp_log_early_timestamp
p2152
aVbootloader_random_disable
p2153
aVbootloader_ana_clock_glitch_reset_config
p2154
atp2155
a(L2118498116L
L0L
(lp2156
(lp2157
tp2158
a(L106L
L0L
(lp2159
(lp2160
tp2161
a(L4186884272L
L0L
(lp2162
(lp2163
tp2164
a(L751966648L
L0L
(lp2165
(lp2166
tp2167
a(L3268103L
L0L
(lp2168
(lp2169
tp2170
a(L741069426L
L3785322319L
(lp2171
(lp2172
Vbootloader_console_deinit
p2173
atp2174
a(L2307067884L
L0L
(lp2175
(lp2176
tp2177
a(L3020204L
L0L
(lp2178
(lp2179
tp2180
a(L2722520990L
L3785322319L
(lp2181
(lp2182
Vesp_log_early_timestamp
p2183
atp2184
a(L117980938L
L0L
(lp2185
(lp2186
tp2187
a(L1341709798L
L0L
(lp2188
(lp2189
tp2190
a(L3020204L
L0L
(lp2191
(lp2192
tp2193
a(L1017231636L
L3785322319L
(lp2194
(lp2195
Vesp_log_early_timestamp
p2196
atp2197
a(L233635238L
L0L
(lp2198
(lp2199
tp2200
a(L2488949783L
L0L
(lp2201
(lp2202
tp2203
atp2204
sI1074240656
(Vbootloader_console_deinit
p2205
(lp2206
(L2488395335L
L0L
(lp2207
(lp2208
tp2209
atp2210
sI1074242448
(Vimage_load
p2211
(lp2212
(L745499722L
L0L
(lp2213
(lp2214
tp2215
a(L1899869538L
L0L
(lp2216
(lp2217
tp2218
a(L9219888L
L0L
(lp2219
(lp2220
tp2221
a(L4132382653L
L0L
(lp2222
(lp2223
tp2224
a(L3020187L
L0L
(lp2225
(lp2226
tp2227
a(L955629275L
L3785322319L
(lp2228
(lp2229
Vesp_log_early_timestamp
p2230
atp2231
a(L2068384292L
L0L
(lp2232
(lp2233
tp2234
a(L1968553470L
L3785322319L
(lp2235
(lp2236
Vbootloader_sha256_finish
p2237
atp2238
a(L4106693507L
L0L
(lp2239
(lp2240
tp2241
a(L3271848319L
L0L
(lp2242
(lp2243
tp2244
a(L1182930974L
L0L
(lp2245
(lp2246
tp2247
a(L3678851644L
L3785322319L
(lp2248
(lp2249
Vprocess_image_header
p2250
atp2251
a(L1341816907L
L0L
(lp2252
(lp2253
tp2254
a(L909494482L
L0L
(lp2255
(lp2256
tp2257
a(L1028073566L
L3785322319L
(lp2258
(lp2259
Vprocess_segments
p2260
atp2261
a(L3803885910L
L0L
(lp2262
(lp2263
tp2264
a(L94425498L
L3785322319L
(lp2265
(lp2266
Vesp_cpu_in_ocd_debug_mode
p2267
atp2268
a(L454195650L
L3785322319L
(lp2269
(lp2270
Vprocess_checksum
p2271
atp2272
a(L1651117269L
L3785322319L
(lp2273
(lp2274
Vprocess_appended_hash_and_sig
p2275
atp2276
a(L533710513L
L0L
(lp2277
(lp2278
tp2279
a(L505081362L
L0L
(lp2280
(lp2281
tp2282
a(L3212356251L
L3785322319L
(lp2283
(lp2284
Vesp_cpu_in_ocd_debug_mode
p2285
atp2286
a(L3885489389L
L1880226080L
(lp2287
(lp2288
Vbootloader_sha256_finish
p2289
aVbootloader_debug_buffer
p2290
atp2291
a(L2959909343L
L1880226080L
(lp2292
(lp2293
Vesp_log_early_timestamp
p2294
aVbootloader_debug_buffer
p2295
atp2296
a(L978077504L
L0L
(lp2297
(lp2298
tp2299
a(L2068384292L
L0L
(lp2300
(lp2301
tp2302
a(L858449684L
L3785322319L
(lp2303
(lp2304
Vbootloader_sha256_finish
p2305
atp2306
a(L3028481L
L0L
(lp2307
(lp2308
tp2309
a(L93674324L
L0L
(lp2310
(lp2311
tp2312
a(L789658747L
L0L
(lp2313
(lp2314
tp2315
a(L2429164518L
L0L
(lp2316
(lp2317
tp2318
a(L3553619191L
L0L
(lp2319
(lp2320
tp2321
a(L85798113L
L0L
(lp2322
(lp2323
tp2324
a(L464010095L
L0L
(lp2325
(lp2326
tp2327
a(L835563811L
L3785322319L
(lp2328
(lp2329
Vshould_load
p2330
atp2331
a(L1358360603L
L0L
(lp2332
(lp2333
tp2334
a(L4224160879L
L0L
(lp2335
(lp2336
tp2337
a(L22884489L
L0L
(lp2338
(lp2339
tp2340
a(L741351569L
L0L
(lp2341
(lp2342
tp2343
a(L434644776L
L0L
(lp2344
(lp2345
tp2346
a(L106L
L0L
(lp2347
(lp2348
tp2349
a(L709419389L
L0L
(lp2350
(lp2351
tp2352
a(L1299866312L
L0L
(lp2353
(lp2354
tp2355
atp2356
sI1074243216
(Vesp_rom_spiflash_read_status
p2357
(lp2358
(L3562601385L
L0L
(lp2359
(lp2360
tp2361
a(L1182811815L
L0L
(lp2362
(lp2363
tp2364
a(L4009779817L
L0L
(lp2365
(lp2366
tp2367
a(L106L
L0L
(lp2368
(lp2369
tp2370
a(L1380309822L
L0L
(lp2371
(lp2372
tp2373
a(L4004659960L
L0L
(lp2374
(lp2375
tp2376
a(L2123059967L
L0L
(lp2377
(lp2378
tp2379
a(L1973734210L
L0L
(lp2380
(lp2381
tp2382
a(L2392720019L
L0L
(lp2383
(lp2384
tp2385
atp2386
sI1074247056
(Vrtc_clk_cpu_freq_mhz_to_config
p2387
(lp2388
(L2601984125L
L3785322319L
(lp2389
(lp2390
Vrtc_clk_xtal_freq_get
p2391
atp2392
a(L2089656409L
L0L
(lp2393
(lp2394
tp2395
a(L3814337874L
L0L
(lp2396
(lp2397
tp2398
a(L3126521138L
L0L
(lp2399
(lp2400
tp2401
a(L2762074623L
L0L
(lp2402
(lp2403
tp2404
a(L1541996779L
L0L
(lp2405
(lp2406
tp2407
a(L2916936348L
L0L
(lp2408
(lp2409
tp2410
a(L1555485793L
L0L
(lp2411
(lp2412
tp2413
a(L2258897023L
L0L
(lp2414
(lp2415
tp2416
a(L1947499251L
L0L
(lp2417
(lp2418
tp2419
a(L1306331021L
L0L
(lp2420
(lp2421
tp2422
atp2423
sI1074269584
(Vbootloader_flash_update_id
p2424
(lp2425
(L1179768297L
L3785322319L
(lp2426
(lp2427
Vbootloader_read_flash_id
p2428
atp2429
atp2430
sI1074243996
(Vesp_rom_spiflash_read
p2431
(lp2432
(L3733264284L
L0L
(lp2433
(lp2434
tp2435
a(L2067992876L
L0L
(lp2436
(lp2437
tp2438
a(L2860271684L
L0L
(lp2439
(lp2440
tp2441
a(L3017366L
L0L
(lp2442
(lp2443
tp2444
a(L106L
L0L
(lp2445
(lp2446
tp2447
a(L599492143L
L0L
(lp2448
(lp2449
tp2450
a(L106L
L0L
(lp2451
(lp2452
tp2453
a(L3815944725L
L0L
(lp2454
(lp2455
tp2456
a(L2845455366L
L0L
(lp2457
(lp2458
tp2459
a(L89392942L
L0L
(lp2460
(lp2461
tp2462
a(L3413778373L
L0L
(lp2463
(lp2464
tp2465
a(L106L
L0L
(lp2466
(lp2467
tp2468
a(L2386205522L
L3785322319L
(lp2469
(lp2470
Vesp_rom_spiflash_wait_idle
p2471
atp2472
a(L3021737L
L0L
(lp2473
(lp2474
tp2475
a(L106L
L0L
(lp2476
(lp2477
tp2478
a(L1868280504L
L0L
(lp2479
(lp2480
tp2481
a(L106L
L0L
(lp2482
(lp2483
tp2484
a(L3736481501L
L0L
(lp2485
(lp2486
tp2487
a(L1221163038L
L0L
(lp2488
(lp2489
tp2490
a(L4122060822L
L0L
(lp2491
(lp2492
tp2493
a(L729330754L
L0L
(lp2494
(lp2495
tp2496
a(L2989032L
L0L
(lp2497
(lp2498
tp2499
a(L3819849625L
L0L
(lp2500
(lp2501
tp2502
a(L657593818L
L0L
(lp2503
(lp2504
tp2505
a(L131285969L
L0L
(lp2506
(lp2507
tp2508
a(L3901820583L
L0L
(lp2509
(lp2510
tp2511
a(L4003688926L
L0L
(lp2512
(lp2513
tp2514
a(L1896415737L
L0L
(lp2515
(lp2516
tp2517
a(L1522202953L
L0L
(lp2518
(lp2519
tp2520
a(L3574008326L
L0L
(lp2521
(lp2522
tp2523
a(L2769753228L
L0L
(lp2524
(lp2525
tp2526
a(L2267384310L
L0L
(lp2527
(lp2528
tp2529
a(L2696140277L
L0L
(lp2530
(lp2531
tp2532
a(L2687789892L
L0L
(lp2533
(lp2534
tp2535
a(L1405253496L
L0L
(lp2536
(lp2537
tp2538
a(L2052029745L
L0L
(lp2539
(lp2540
tp2541
a(L97689L
L0L
(lp2542
(lp2543
tp2544
a(L2258897019L
L0L
(lp2545
(lp2546
tp2547
a(L4014024819L
L0L
(lp2548
(lp2549
tp2550
a(L3621567083L
L0L
(lp2551
(lp2552
tp2553
atp2554
sI1074243736
(Vesp_rom_spiflash_write
p2555
(lp2556
(L4057159726L
L0L
(lp2557
(lp2558
tp2559
a(L2258688483L
L0L
(lp2560
(lp2561
tp2562
a(L3360570486L
L0L
(lp2563
(lp2564
tp2565
a(L1590344338L
L0L
(lp2566
(lp2567
tp2568
a(L3106685987L
L0L
(lp2569
(lp2570
tp2571
a(L4249336406L
L3785322319L
(lp2572
(lp2573
Vesp_rom_spiflash_program_page_internal
p2574
atp2575
a(L1915738254L
L3785322319L
(lp2576
(lp2577
Vesp_rom_spiflash_program_page_internal
p2578
atp2579
a(L663507325L
L0L
(lp2580
(lp2581
tp2582
a(L2392967593L
L0L
(lp2583
(lp2584
tp2585
a(L564470687L
L0L
(lp2586
(lp2587
tp2588
a(L154459701L
L3785322319L
(lp2589
(lp2590
Vesp_rom_spiflash_program_page_internal
p2591
atp2592
a(L2079643754L
L0L
(lp2593
(lp2594
tp2595
atp2596
sI1074237080
(Vbootloader_common_check_chip_validity
p2597
(lp2598
(L722188971L
L0L
(lp2599
(lp2600
tp2601
a(L98526595L
L3785322319L
(lp2602
(lp2603
Vesp_log_early_timestamp
p2604
atp2605
a(L522103407L
L3785322319L
(lp2606
(lp2607
Vefuse_hal_chip_revision
p2608
atp2609
a(L106L
L0L
(lp2610
(lp2611
tp2612
a(L3681102491L
L0L
(lp2613
(lp2614
tp2615
a(L2449956225L
L3785322319L
(lp2616
(lp2617
Vesp_log_early_timestamp
p2618
atp2619
a(L3028464L
L0L
(lp2620
(lp2621
tp2622
a(L4118102069L
L0L
(lp2623
(lp2624
tp2625
a(L3021749L
L0L
(lp2626
(lp2627
tp2628
a(L1478707893L
L3785322319L
(lp2629
(lp2630
Vesp_log_early_timestamp
p2631
atp2632
a(L1299867982L
L0L
(lp2633
(lp2634
tp2635
a(L3360570486L
L0L
(lp2636
(lp2637
tp2638
atp2639
sI1074269096
(Vbootloader_init_mem
p2640
(lp2641
(L1511720305L
L3785322319L
(lp2642
(lp2643
Vesp_cpu_configure_region_protection
p2644
atp2645
atp2646
sI1074269864
(Vbootloader_enable_random
p2647
(lp2648
(L3629192396L
L1880226080L
(lp2649
(lp2650
Vesp_log_early_timestamp
p2651
aVbootloader_random_enable
p2652
atp2653
atp2654
sI1074236832
(Vefuse_hal_get_major_chip_version
p2655
(lp2656
(L208362539L
L0L
(lp2657
(lp2658
tp2659
a(L894792960L
L0L
(lp2660
(lp2661
tp2662
a(L724635033L
L0L
(lp2663
(lp2664
tp2665
a(L3360570486L
L0L
(lp2666
(lp2667
tp2668
atp2669
sI1074234784
(Vbootloader_flash_execute_command_common
p2670
(lp2671
(L2935702355L
L0L
(lp2672
(lp2673
tp2674
a(L120555589L
L0L
(lp2675
(lp2676
tp2677
a(L2890397610L
L3785322319L
(lp2678
(lp2679
V__assert_func
p2680
atp2681
a(L3021749L
L0L
(lp2682
(lp2683
tp2684
a(L153183703L
L0L
(lp2685
(lp2686
tp2687
a(L901582467L
L0L
(lp2688
(lp2689
tp2690
a(L695082870L
L0L
(lp2691
(lp2692
tp2693
a(L4024113366L
L0L
(lp2694
(lp2695
tp2696
a(L3998568023L
L0L
(lp2697
(lp2698
tp2699
a(L163389185L
L0L
(lp2700
(lp2701
tp2702
a(L2336699050L
L0L
(lp2703
(lp2704
tp2705
a(L4038246755L
L0L
(lp2706
(lp2707
tp2708
a(L1065820671L
L0L
(lp2709
(lp2710
tp2711
a(L3041777204L
L0L
(lp2712
(lp2713
tp2714
a(L3333696662L
L0L
(lp2715
(lp2716
tp2717
a(L963425213L
L0L
(lp2718
(lp2719
tp2720
a(L2106665914L
L0L
(lp2721
(lp2722
tp2723
a(L3360570486L
L0L
(lp2724
(lp2725
tp2726
atp2727
sI1074240672
(V__assert_func
p2728
(lp2729
(L4269287305L
L0L
(lp2730
(lp2731
tp2732
a(L106L
L0L
(lp2733
(lp2734
tp2735
atp2736
sI1074269600
(Vbootloader_clear_bss_section
p2737
(lp2738
(L2349904411L
L0L
(lp2739
(lp2740
tp2741
atp2742
sI1074236588
(Vesp_cpu_in_ocd_debug_mode
p2743
(lp2744
(L2131426160L
L0L
(lp2745
(lp2746
tp2747
atp2748
sI1074246572
(Vrtc_clk_fast_freq_set
p2749
(lp2750
(L1500658463L
L0L
(lp2751
(lp2752
tp2753
atp2754
sI1074239912
(Vbootloader_reset
p2755
(lp2756
(L1822360791L
L3785322319L
(lp2757
(lp2758
Vbootloader_console_deinit
p2759
atp2760
a(L106L
L0L
(lp2761
(lp2762
tp2763
atp2764
sI1074269112
(Vbootloader_random_enable
p2765
(lp2766
(L971009304L
L0L
(lp2767
(lp2768
tp2769
atp2770
sI1074269624
(Vbootloader_read_bootloader_header
p2771
(lp2772
(L2035056403L
L3785322319L
(lp2773
(lp2774
Vbootloader_flash_read
p2775
atp2776
a(L3299813457L
L3785322319L
(lp2777
(lp2778
Vesp_log_early_timestamp
p2779
atp2780
a(L735741265L
L0L
(lp2781
(lp2782
tp2783
atp2784
sI1074235828
(Vbootloader_flash_cs_timing_config
p2785
(lp2786
(L3796536297L
L0L
(lp2787
(lp2788
tp2789
atp2790
sI1074237364
(Vbootloader_common_ota_select_invalid
p2791
(lp2792
(L4027567199L
L0L
(lp2793
(lp2794
tp2795
a(L3397985842L
L0L
(lp2796
(lp2797
tp2798
a(L2258867228L
L0L
(lp2799
(lp2800
tp2801
a(L3785235668L
L0L
(lp2802
(lp2803
tp2804
atp2805
sI1074245808
(Vwdt_hal_write_protect_enable
p2806
(lp2807
(L387778158L
L0L
(lp2808
(lp2809
tp2810
a(L4195472003L
L0L
(lp2811
(lp2812
tp2813
a(L3360570486L
L0L
(lp2814
(lp2815
tp2816
a(L802523425L
L0L
(lp2817
(lp2818
tp2819
atp2820
sI1074247344
(Vrtc_clk_cpu_freq_to_xtal
p2821
(lp2822
(L3821147692L
L3785322319L
(lp2823
(lp2824
Vrtc_clk_apb_freq_update
p2825
atp2826
a(L702736306L
L0L
(lp2827
(lp2828
tp2829
a(L277445412L
L0L
(lp2830
(lp2831
tp2832
a(L309988740L
L0L
(lp2833
(lp2834
tp2835
atp2836
sI1074270896
(Vmpu_hal_set_region_access
p2837
(lp2838
(L3538356822L
L0L
(lp2839
(lp2840
tp2841
a(L2902417580L
L0L
(lp2842
(lp2843
tp2844
a(L3020187L
L0L
(lp2845
(lp2846
tp2847
a(L3020187L
L0L
(lp2848
(lp2849
tp2850
a(L3360570486L
L0L
(lp2851
(lp2852
tp2853
a(L2258718273L
L0L
(lp2854
(lp2855
tp2856
a(L3446648619L
L0L
(lp2857
(lp2858
tp2859
a(L3739532189L
L0L
(lp2860
(lp2861
tp2862
a(L1300789895L
L0L
(lp2863
(lp2864
tp2865
a(L3472092938L
L0L
(lp2866
(lp2867
tp2868
atp2869
sI1074236604
(Vesp_rom_uart_tx_wait_idle
p2870
(lp2871
(L708706374L
L0L
(lp2872
(lp2873
tp2874
a(L1301079727L
L0L
(lp2875
(lp2876
tp2877
a(L3597746521L
L0L
(lp2878
(lp2879
tp2880
a(L3694491048L
L0L
(lp2881
(lp2882
tp2883
a(L3055926844L
L0L
(lp2884
(lp2885
tp2886
a(L3360570486L
L0L
(lp2887
(lp2888
tp2889
atp2890
sI1074235576
(Vbootloader_flash_read_sfdp
p2891
(lp2892
(L711701400L
L0L
(lp2893
(lp2894
tp2895
a(L3282613751L
L3785322319L
(lp2896
(lp2897
V__assert_func
p2898
atp2899
a(L3704332455L
L3785322319L
(lp2900
(lp2901
Vbootloader_flash_execute_command_common
p2902
atp2903
atp2904
sI1074240696
(Vabort
p2905
(lp2906
(L73370910L
L0L
(lp2907
(lp2908
tp2909
a(L409471316L
L0L
(lp2910
(lp2911
tp2912
a(L106L
L0L
(lp2913
(lp2914
tp2915
atp2916
sI1074270664
(Vrtc_vddsdio_get_config
p2917
(lp2918
(L3899931077L
L0L
(lp2919
(lp2920
tp2921
a(L147025923L
L0L
(lp2922
(lp2923
tp2924
a(L318395269L
L0L
(lp2925
(lp2926
tp2927
a(L391444156L
L0L
(lp2928
(lp2929
tp2930
a(L3090886802L
L0L
(lp2931
(lp2932
tp2933
a(L1116012092L
L0L
(lp2934
(lp2935
tp2936
a(L1719615367L
L0L
(lp2937
(lp2938
tp2939
a(L2748129941L
L0L
(lp2940
(lp2941
tp2942
atp2943
sI1074241732
(Vprocess_segments
p2944
(lp2945
(L3883698409L
L0L
(lp2946
(lp2947
tp2948
a(L2495454333L
L0L
(lp2949
(lp2950
tp2951
a(L4578542L
L0L
(lp2952
(lp2953
tp2954
a(L106L
L0L
(lp2955
(lp2956
tp2957
a(L1315312493L
L0L
(lp2958
(lp2959
tp2960
a(L2718798963L
L3785322319L
(lp2961
(lp2962
Vesp_log_early_timestamp
p2963
atp2964
a(L1440180646L
L3785322319L
(lp2965
(lp2966
Vbootloader_flash_read
p2967
atp2968
a(L2510149738L
L3785322319L
(lp2969
(lp2970
Vesp_log_early_timestamp
p2971
atp2972
a(L3360570486L
L0L
(lp2973
(lp2974
tp2975
a(L234193771L
L0L
(lp2976
(lp2977
tp2978
a(L1635713494L
L3785322319L
(lp2979
(lp2980
Vbootloader_sha256_data
p2981
atp2982
a(L926711887L
L0L
(lp2983
(lp2984
tp2985
a(L790360741L
L0L
(lp2986
(lp2987
tp2988
a(L3997307212L
L0L
(lp2989
(lp2990
tp2991
a(L3802068284L
L0L
(lp2992
(lp2993
tp2994
a(L2942462881L
L0L
(lp2995
(lp2996
tp2997
a(L2258867228L
L0L
(lp2998
(lp2999
tp3000
a(L1355332303L
L0L
(lp3001
(lp3002
tp3003
a(L2965680995L
L0L
(lp3004
(lp3005
tp3006
a(L1849436849L
L0L
(lp3007
(lp3008
tp3009
a(L1385804824L
L3785322319L
(lp3010
(lp3011
Vesp_log_early_timestamp
p3012
atp3013
a(L3895303701L
L0L
(lp3014
(lp3015
tp3016
a(L310091939L
L0L
(lp3017
(lp3018
tp3019
a(L531742663L
L3785322319L
(lp3020
(lp3021
Vesp_log_early_timestamp
p3022
atp3023
a(L3982404358L
L3785322319L
(lp3024
(lp3025
Vverify_load_addresses
p3026
atp3027
a(L106L
L0L
(lp3028
(lp3029
tp3030
a(L2300166925L
L0L
(lp3031
(lp3032
tp3033
a(L2684012095L
L0L
(lp3034
(lp3035
tp3036
a(L1905937838L
L3785322319L
(lp3037
(lp3038
Vbootloader_mmap
p3039
atp3040
a(L1098327470L
L3785322319L
(lp3041
(lp3042
Vesp_log_early_timestamp
p3043
atp3044
a(L2116114917L
L0L
(lp3045
(lp3046
tp3047
a(L147926536L
L0L
(lp3048
(lp3049
tp3050
a(L1534276982L
L3785322319L
(lp3051
(lp3052
Vbootloader_munmap
p3053
atp3054
a(L3105361649L
L0L
(lp3055
(lp3056
tp3057
a(L1216016797L
L3785322319L
(lp3058
(lp3059
Vbootloader_fill_random
p3060
atp3061
a(L3570641403L
L0L
(lp3062
(lp3063
tp3064
a(L3574335487L
L0L
(lp3065
(lp3066
tp3067
a(L3450268858L
L0L
(lp3068
(lp3069
tp3070
a(L3021749L
L0L
(lp3071
(lp3072
tp3073
a(L1609678444L
L0L
(lp3074
(lp3075
tp3076
a(L1777728568L
L0L
(lp3077
(lp3078
tp3079
a(L3020204L
L0L
(lp3080
(lp3081
tp3082
a(L591273984L
L0L
(lp3083
(lp3084
tp3085
a(L2076461546L
L0L
(lp3086
(lp3087
tp3088
a(L3832868376L
L0L
(lp3089
(lp3090
tp3091
a(L1749969336L
L0L
(lp3092
(lp3093
tp3094
a(L670934548L
L0L
(lp3095
(lp3096
tp3097
a(L1903785265L
L3785322319L
(lp3098
(lp3099
Vbootloader_sha256_data
p3100
atp3101
a(L90548756L
L0L
(lp3102
(lp3103
tp3104
a(L4195963580L
L0L
(lp3105
(lp3106
tp3107
a(L2572638616L
L0L
(lp3108
(lp3109
tp3110
a(L3740179196L
L0L
(lp3111
(lp3112
tp3113
a(L233873941L
L3785322319L
(lp3114
(lp3115
Vshould_load
p3116
atp3117
a(L3070788781L
L0L
(lp3118
(lp3119
tp3120
a(L121368540L
L3785322319L
(lp3121
(lp3122
Vesp_log_early_timestamp
p3123
atp3124
a(L93675945L
L0L
(lp3125
(lp3126
tp3127
a(L2104869573L
L0L
(lp3128
(lp3129
tp3130
a(L4007649496L
L0L
(lp3131
(lp3132
tp3133
a(L2902417580L
L0L
(lp3134
(lp3135
tp3136
a(L2636912524L
L0L
(lp3137
(lp3138
tp3139
a(L4195318902L
L3785322319L
(lp3140
(lp3141
Vbootloader_mmap_get_free_pages
p3142
atp3143
a(L3028481L
L0L
(lp3144
(lp3145
tp3146
a(L124545238L
L0L
(lp3147
(lp3148
tp3149
atp3150
sI1074240460
(Vbootloader_sha256_finish
p3151
(lp3152
(L4066096136L
L0L
(lp3153
(lp3154
tp3155
a(L283309760L
L0L
(lp3156
(lp3157
tp3158
a(L2504541789L
L3785322319L
(lp3159
(lp3160
V__assert_func
p3161
atp3162
a(L3020204L
L0L
(lp3163
(lp3164
tp3165
a(L1077914239L
L0L
(lp3166
(lp3167
tp3168
a(L2534656226L
L0L
(lp3169
(lp3170
tp3171
a(L3404488268L
L3785322319L
(lp3172
(lp3173
Vbootloader_sha256_data
p3174
atp3175
a(L1076837905L
L0L
(lp3176
(lp3177
tp3178
a(L1830200745L
L3785322319L
(lp3179
(lp3180
Vbootloader_sha256_data
p3181
atp3182
a(L1563431552L
L0L
(lp3183
(lp3184
tp3185
a(L657425439L
L0L
(lp3186
(lp3187
tp3188
a(L4023907455L
L0L
(lp3189
(lp3190
tp3191
a(L657425439L
L0L
(lp3192
(lp3193
tp3194
a(L894366391L
L0L
(lp3195
(lp3196
tp3197
a(L2975660674L
L0L
(lp3198
(lp3199
tp3200
a(L3347778L
L0L
(lp3201
(lp3202
tp3203
a(L3360570486L
L0L
(lp3204
(lp3205
tp3206
atp3207
sI1074240204
(Vindex_to_partition
p3208
(lp3209
(L4066096119L
L0L
(lp3210
(lp3211
tp3212
a(L1739185955L
L0L
(lp3213
(lp3214
tp3215
a(L2171552758L
L0L
(lp3216
(lp3217
tp3218
a(L2808906342L
L0L
(lp3219
(lp3220
tp3221
a(L2101481936L
L0L
(lp3222
(lp3223
tp3224
a(L3698927993L
L0L
(lp3225
(lp3226
tp3227
a(L2808826781L
L0L
(lp3228
(lp3229
tp3230
a(L3003398163L
L0L
(lp3231
(lp3232
tp3233
a(L1104460200L
L0L
(lp3234
(lp3235
tp3236
a(L1087646172L
L0L
(lp3237
(lp3238
tp3239
atp3240
sI1074245836
(Vefuse_hal_get_rated_freq_mhz
p3241
(lp3242
(L1680594370L
L0L
(lp3243
(lp3244
tp3245
a(L2965302338L
L0L
(lp3246
(lp3247
tp3248
a(L3360570486L
L0L
(lp3249
(lp3250
tp3251
atp3252
sI1074269892
(Vbootloader_print_banner
p3253
(lp3254
(L1149879147L
L1832448559L
(lp3255
(lp3256
Vesp_log_early_timestamp
p3257
aVesp_log_early_timestamp
p3258
aVesp_log_early_timestamp
p3259
atp3260
atp3261
sI1074239944
(Vbootloader_utility_load_boot_image
p3262
(lp3263
(L1561528311L
L0L
(lp3264
(lp3265
tp3266
a(L2177418995L
L3785322319L
(lp3267
(lp3268
Vtry_load_partition
p3269
atp3270
a(L2749106626L
L3785322319L
(lp3271
(lp3272
Vload_image
p3273
atp3274
a(L157669688L
L3785322319L
(lp3275
(lp3276
Vesp_log_early_timestamp
p3277
atp3278
a(L3827921190L
L3785322319L
(lp3279
(lp3280
Vbootloader_reset
p3281
atp3282
a(L2542673780L
L3785322319L
(lp3283
(lp3284
Vindex_to_partition
p3285
atp3286
a(L1204373741L
L3785322319L
(lp3287
(lp3288
Vtry_load_partition
p3289
atp3290
a(L3020187L
L0L
(lp3291
(lp3292
tp3293
a(L3111076057L
L0L
(lp3294
(lp3295
tp3296
a(L2070875117L
L3785322319L
(lp3297
(lp3298
Vset_actual_ota_seq
p3299
atp3300
a(L1868897605L
L3785322319L
(lp3301
(lp3302
Vlog_invalid_app_partition
p3303
atp3304
a(L831650730L
L0L
(lp3305
(lp3306
tp3307
a(L3021737L
L0L
(lp3308
(lp3309
tp3310
a(L4083823862L
L0L
(lp3311
(lp3312
tp3313
a(L3818328201L
L3785322319L
(lp3314
(lp3315
Vtry_load_partition
p3316
atp3317
a(L1643420822L
L3785322319L
(lp3318
(lp3319
Vesp_log_early_timestamp
p3320
atp3321
a(L2185156151L
L3785322319L
(lp3322
(lp3323
Vindex_to_partition
p3324
atp3325
a(L1074657773L
L3785322319L
(lp3326
(lp3327
Vtry_load_partition
p3328
atp3329
a(L3027024L
L0L
(lp3330
(lp3331
tp3332
a(L2127949398L
L0L
(lp3333
(lp3334
tp3335
a(L3061261803L
L0L
(lp3336
(lp3337
tp3338
a(L3582858798L
L3785322319L
(lp3339
(lp3340
Vlog_invalid_app_partition
p3341
atp3342
a(L4140564132L
L3785322319L
(lp3343
(lp3344
Vesp_log_early_timestamp
p3345
atp3346
atp3347
sI1074245320
(Vwdt_hal_config_stage
p3348
(lp3349
(L331558507L
L0L
(lp3350
(lp3351
tp3352
a(L4279082939L
L0L
(lp3353
(lp3354
tp3355
a(L3020204L
L0L
(lp3356
(lp3357
tp3358
a(L3020187L
L0L
(lp3359
(lp3360
tp3361
a(L3020187L
L0L
(lp3362
(lp3363
tp3364
a(L94425498L
L3785322319L
(lp3365
(lp3366
Vabort
p3367
atp3368
a(L2927143788L
L0L
(lp3369
(lp3370
tp3371
a(L3360570486L
L0L
(lp3372
(lp3373
tp3374
a(L3657953876L
L0L
(lp3375
(lp3376
tp3377
a(L3718556305L
L0L
(lp3378
(lp3379
tp3380
a(L4229860718L
L0L
(lp3381
(lp3382
tp3383
a(L3020187L
L0L
(lp3384
(lp3385
tp3386
a(L2902417580L
L0L
(lp3387
(lp3388
tp3389
a(L3020187L
L0L
(lp3390
(lp3391
tp3392
a(L3028464L
L0L
(lp3393
(lp3394
tp3395
a(L2600837442L
L0L
(lp3396
(lp3397
tp3398
a(L2134283093L
L0L
(lp3399
(lp3400
tp3401
a(L1545969355L
L0L
(lp3402
(lp3403
tp3404
a(L4007862746L
L0L
(lp3405
(lp3406
tp3407
atp3408
sI1074238160
(Vbootloader_enable_wp
p3409
(lp3410
(L1117825804L
L3785322319L
(lp3411
(lp3412
Vbootloader_execute_flash_command
p3413
atp3414
atp3415
sI1074237392
(Vbootloader_common_select_otadata
p3416
(lp3417
(L2342662536L
L0L
(lp3418
(lp3419
tp3420
a(L3806783650L
L0L
(lp3421
(lp3422
tp3423
a(L1674928252L
L0L
(lp3424
(lp3425
tp3426
a(L251571983L
L0L
(lp3427
(lp3428
tp3429
a(L3360570486L
L0L
(lp3430
(lp3431
tp3432
a(L2045232488L
L0L
(lp3433
(lp3434
tp3435
a(L189726519L
L0L
(lp3436
(lp3437
tp3438
a(L3095066987L
L0L
(lp3439
(lp3440
tp3441
a(L3592023188L
L0L
(lp3442
(lp3443
tp3444
a(L1641201884L
L0L
(lp3445
(lp3446
tp3447
atp3448
sI1074239184
(Vtry_load_partition
p3449
(lp3450
(L1263750142L
L0L
(lp3451
(lp3452
tp3453
a(L2258688482L
L0L
(lp3454
(lp3455
tp3456
a(L3360570486L
L0L
(lp3457
(lp3458
tp3459
a(L530241438L
L3785322319L
(lp3460
(lp3461
Vbootloader_load_image
p3462
atp3463
a(L2684814704L
L3785322319L
(lp3464
(lp3465
Vesp_log_early_timestamp
p3466
atp3467
atp3468
sI1074246096
(Vrtc_clk_32k_enable_common
p3469
(lp3470
(L3622748675L
L0L
(lp3471
(lp3472
tp3473
atp3474
sI1074248400
(V_fini
p3475
(lp3476
(L3493042598L
L0L
(lp3477
(lp3478
tp3479
atp3480
sI1074246616
(Vrtc_clk_fast_freq_get
p3481
(lp3482
(L2805650262L
L0L
(lp3483
(lp3484
tp3485
atp3486
sI1074238180
(Vbootloader_mmap_get_free_pages
p3487
(lp3488
(L1496516875L
L0L
(lp3489
(lp3490
tp3491
atp3492
sI1074243308
(Vesp_rom_spiflash_wait_idle
p3493
(lp3494
(L3233075690L
L0L
(lp3495
(lp3496
tp3497
a(L2023766174L
L0L
(lp3498
(lp3499
tp3500
a(L2805933647L
L0L
(lp3501
(lp3502
tp3503
a(L3086959262L
L0L
(lp3504
(lp3505
tp3506
a(L4161019926L
L3785322319L
(lp3507
(lp3508
Vesp_rom_spiflash_read_status
p3509
atp3510
atp3511
sI1074238188
(Vbootloader_fill_random
p3512
(lp3513
(L3026789978L
L0L
(lp3514
(lp3515
tp3516
a(L1056102925L
L0L
(lp3517
(lp3518
tp3519
a(L97689L
L0L
(lp3520
(lp3521
tp3522
a(L3360570486L
L0L
(lp3523
(lp3524
tp3525
a(L324866589L
L3785322319L
(lp3526
(lp3527
V__assert_func
p3528
atp3529
a(L2008660626L
L0L
(lp3530
(lp3531
tp3532
a(L3028481L
L0L
(lp3533
(lp3534
tp3535
a(L983138374L
L0L
(lp3536
(lp3537
tp3538
a(L2607138306L
L0L
(lp3539
(lp3540
tp3541
a(L1982128194L
L0L
(lp3542
(lp3543
tp3544
atp3545
sI1074237676
(Vbootloader_munmap
p3546
(lp3547
(L1713649238L
L0L
(lp3548
(lp3549
tp3550
a(L847703320L
L0L
(lp3551
(lp3552
tp3553
a(L3360570486L
L0L
(lp3554
(lp3555
tp3556
atp3557
sI1074235628
(Vbootloader_read_flash_id
p3558
(lp3559
(L3925322170L
L3785322319L
(lp3560
(lp3561
Vbootloader_execute_flash_command
p3562
atp3563
atp3564
sI1074269668
(Vbootloader_check_bootloader_validity
p3565
(lp3566
(L1057666116L
L1832448559L
(lp3567
(lp3568
Vefuse_hal_chip_revision
p3569
aVesp_log_early_timestamp
p3570
aVbootloader_common_check_chip_validity
p3571
atp3572
atp3573
sI1074247144
(Vrtc_clk_cpu_freq_get_config
p3574
(lp3575
(L906905014L
L0L
(lp3576
(lp3577
tp3578
a(L2902417580L
L0L
(lp3579
(lp3580
tp3581
a(L1777368540L
L0L
(lp3582
(lp3583
tp3584
a(L1257359012L
L1880226080L
(lp3585
(lp3586
Vesp_log_early_timestamp
p3587
aVabort
p3588
atp3589
a(L1393568794L
L3785322319L
(lp3590
(lp3591
Vrtc_clk_xtal_freq_get
p3592
atp3593
a(L584032699L
L0L
(lp3594
(lp3595
tp3596
a(L4100800062L
L0L
(lp3597
(lp3598
tp3599
a(L3020187L
L0L
(lp3600
(lp3601
tp3602
a(L713819170L
L0L
(lp3603
(lp3604
tp3605
a(L106L
L0L
(lp3606
(lp3607
tp3608
a(L549042870L
L0L
(lp3609
(lp3610
tp3611
a(L187152368L
L0L
(lp3612
(lp3613
tp3614
a(L4149732163L
L0L
(lp3615
(lp3616
tp3617
atp3618
sI1074246632
(Vrtc_clk_bbpll_configure
p3619
(lp3620
(L3990937399L
L0L
(lp3621
(lp3622
tp3623
a(L106L
L0L
(lp3624
(lp3625
tp3626
a(L446175133L
L0L
(lp3627
(lp3628
tp3629
a(L106L
L0L
(lp3630
(lp3631
tp3632
a(L83268611L
L0L
(lp3633
(lp3634
tp3635
a(L106L
L0L
(lp3636
(lp3637
tp3638
a(L82345090L
L0L
(lp3639
(lp3640
tp3641
a(L106L
L0L
(lp3642
(lp3643
tp3644
a(L2258688482L
L0L
(lp3645
(lp3646
tp3647
a(L3177466952L
L0L
(lp3648
(lp3649
tp3650
a(L3959680931L
L0L
(lp3651
(lp3652
tp3653
a(L946534576L
L0L
(lp3654
(lp3655
tp3656
a(L1299866343L
L0L
(lp3657
(lp3658
tp3659
a(L3291765465L
L0L
(lp3660
(lp3661
tp3662
a(L3241888512L
L0L
(lp3663
(lp3664
tp3665
a(L3075531556L
L0L
(lp3666
(lp3667
tp3668
a(L83268344L
L0L
(lp3669
(lp3670
tp3671
a(L82344823L
L0L
(lp3672
(lp3673
tp3674
a(L1667153377L
L0L
(lp3675
(lp3676
tp3677
a(L2258867279L
L0L
(lp3678
(lp3679
tp3680
a(L3819751895L
L0L
(lp3681
(lp3682
tp3683
a(L1551160474L
L0L
(lp3684
(lp3685
tp3686
a(L1712476653L
L0L
(lp3687
(lp3688
tp3689
a(L4011631532L
L0L
(lp3690
(lp3691
tp3692
atp3693
sI1074240744
(Vbootloader_ana_clock_glitch_reset_config
p3694
(lp3695
(L2100504542L
L0L
(lp3696
(lp3697
tp3698
atp3699
sI1074236904
(Vefuse_hal_get_minor_chip_version
p3700
(lp3701
(L484689204L
L0L
(lp3702
(lp3703
tp3704
atp3705
sI1074241520
(Vprocess_appended_hash_and_sig
p3706
(lp3707
(L3580132405L
L0L
(lp3708
(lp3709
tp3710
a(L3028481L
L0L
(lp3711
(lp3712
tp3713
a(L1591589631L
L0L
(lp3714
(lp3715
tp3716
a(L22297358L
L0L
(lp3717
(lp3718
tp3719
a(L4191754026L
L0L
(lp3720
(lp3721
tp3722
a(L728545027L
L3785322319L
(lp3723
(lp3724
Vesp_log_early_timestamp
p3725
atp3726
a(L894030452L
L3785322319L
(lp3727
(lp3728
Vbootloader_flash_read
p3729
atp3730
a(L3871473710L
L0L
(lp3731
(lp3732
tp3733
atp3734
sI1074240752
(Vprocess_checksum
p3735
(lp3736
(L1985325516L
L0L
(lp3737
(lp3738
tp3739
a(L2910371777L
L0L
(lp3740
(lp3741
tp3742
a(L1649277394L
L0L
(lp3743
(lp3744
tp3745
a(L2910371777L
L0L
(lp3746
(lp3747
tp3748
a(L2902417580L
L0L
(lp3749
(lp3750
tp3751
a(L1644002876L
L3785322319L
(lp3752
(lp3753
Vbootloader_sha256_data
p3754
atp3755
a(L3612796056L
L0L
(lp3756
(lp3757
tp3758
a(L1811888222L
L3785322319L
(lp3759
(lp3760
Vbootloader_flash_read
p3761
atp3762
a(L3126521138L
L0L
(lp3763
(lp3764
tp3765
a(L4224515246L
L0L
(lp3766
(lp3767
tp3768
a(L3744681334L
L3785322319L
(lp3769
(lp3770
Vesp_log_early_timestamp
p3771
atp3772
atp3773
sI1074245872
(Vrtc_clk_bbpll_disable
p3774
(lp3775
(L369314231L
L0L
(lp3776
(lp3777
tp3778
a(L391691750L
L0L
(lp3779
(lp3780
tp3781
a(L3360570486L
L0L
(lp3782
(lp3783
tp3784
atp3785
sI1074236668
(Vesp_rom_uart_set_clock_baudrate
p3786
(lp3787
(L881452272L
L0L
(lp3788
(lp3789
tp3790
a(L3909951828L
L0L
(lp3791
(lp3792
tp3793
a(L1008980029L
L0L
(lp3794
(lp3795
tp3796
a(L869159045L
L0L
(lp3797
(lp3798
tp3799
a(L2805931435L
L0L
(lp3800
(lp3801
tp3802
a(L1926040272L
L0L
(lp3803
(lp3804
tp3805
atp3806
sI1074236920
(Vis_xmc_chip_strict
p3807
(lp3808
(L1286841609L
L0L
(lp3809
(lp3810
tp3811
a(L2234016759L
L0L
(lp3812
(lp3813
tp3814
a(L1069027148L
L0L
(lp3815
(lp3816
tp3817
a(L3021749L
L0L
(lp3818
(lp3819
tp3820
a(L1900148749L
L0L
(lp3821
(lp3822
tp3823
a(L1936875721L
L0L
(lp3824
(lp3825
tp3826
a(L3356166509L
L0L
(lp3827
(lp3828
tp3829
a(L1937769451L
L0L
(lp3830
(lp3831
tp3832
a(L2137658907L
L0L
(lp3833
(lp3834
tp3835
a(L4265949734L
L0L
(lp3836
(lp3837
tp3838
a(L3360570486L
L0L
(lp3839
(lp3840
tp3841
atp3842
sI1074236408
(Vbootloader_flash_dummy_config
p3843
(lp3844
(L132211179L
L0L
(lp3845
(lp3846
tp3847
a(L2761717557L
L0L
(lp3848
(lp3849
tp3850
a(L705371371L
L0L
(lp3851
(lp3852
tp3853
a(L2971458626L
L0L
(lp3854
(lp3855
tp3856
a(L1491210540L
L0L
(lp3857
(lp3858
tp3859
a(L3081491917L
L0L
(lp3860
(lp3861
tp3862
a(L1610443405L
L0L
(lp3863
(lp3864
tp3865
a(L4102729993L
L0L
(lp3866
(lp3867
tp3868
a(L1449490182L
L0L
(lp3869
(lp3870
tp3871
a(L1298875775L
L0L
(lp3872
(lp3873
tp3874
a(L3880393601L
L0L
(lp3875
(lp3876
tp3877
a(L1505818087L
L0L
(lp3878
(lp3879
tp3880
a(L1610443436L
L0L
(lp3881
(lp3882
tp3883
atp3884
ssS'functionsdups'
p3885
g11
((lp3886
tp3887
Rp3888
sS'immediatedups'
p3889
g11
((lp3890
tp3891
Rp3892
sS'functiondups'
p3893
g11
((lp3894
tp3895
Rp3896
sS'fuzzy'
p3897
(dp3898
L1536L
I1074240672
sL617583950L
I1074237080
sL430153639L
I1074235940
sL3121027072L
I1074270664
sL2082889262L
I1074241520
sL3879741902L
I1074241152
sL3538491111L
I1074247344
sL2919016435L
I1074235284
sL16208487L
I1074234784
sL2680783959L
I1074235672
sL3512578114L
I1074239184
sL2469233929L
I1074240460
sL1792232694L
I1074245932
sL4011111091L
I1074237728
sL1377559356L
I1074242448
sL3897252859L
I1074238992
sL1065525808L
I1074236920
sL2327783177L
I1074240752
sL1164839255L
I1074241732
sL449860969L
I1074247056
sL3210669721L
I1074246212
sL819541406L
I1074267804
sL1332800441L
I1074237324
sL2884218272L
I1074267980
sL1148089122L
I1074239076
sL1345429244L
I1074240904
sL2689419264L
I1074246632
sL4160102055L
I1074239912
sL4202185385L
I1074243308
sL2453272040L
I1074247784
sL3690558760L
I1074270036
sL1768086576L
I1074236408
sL4171975289L
I1074243604
sL1565254297L
I1074243908
sL1636176981L
I1074268200
sL2191698036L
I1074269740
sL1513350244L
I1074239608
sL2474570535L
I1074238188
sL3428965560L
I1074247460
sL519424169L
I1074248240
sL812946199L
I1074237504
sL737694352L
I1074243416
sL503029138L
I1074243356
sL277788135L
I1074243996
sL4253866342L
I1074239944
sL3991645697L
I1074268928
sL47534270L
I1074238608
sL2262558768L
I1074243216
sL424867129L
I1074243736
sL3834155367L
I1074241096
sL176878843L
I1074239232
sL3883282432L
I1074241612
sL4173399607L
I1074242928
sL2726385143L
I1074245320
sL1667054119L
I1074240296
sL4191211306L
I1074247144
sL2687107543L
I1074270208
sL206902443L
I1074238020
ssb.