ccopy_reg
_reconstructor
p0
(crizzo
RizzoSignature
p1
c__builtin__
object
p2
Ntp3
Rp4
(dp5
S'formal'
p6
(dp7
L692976200L
I1074268816
sL3659321364L
I1074270392
sL2036541288L
I1074238920
sL2535109642L
I1074269328
sL1935665484L
I1074267840
sL4279784716L
I1074246120
sL4213015302L
I1074242516
sL1680222011L
I1074239908
sL12124324L
I1074240092
sL3930510424L
I1074238836
sL3882104903L
I1074236660
sL2028381634L
I1074245272
sL479848380L
I1074243600
sL750989285L
I1074236940
sL1010441494L
I1074246656
sL3828279299L
I1074246004
sL3519555066L
I1074269288
sL2896295319L
I1074236868
sL1431873134L
I1074245476
sL2481804762L
I1074235648
sL1487743894L
I1074244336
sL2590834774L
I1074270472
sL1368716712L
I1074239036
sL635145191L
I1074240888
sL3408881938L
I1074240328
sL3103473606L
I1074246616
sL176215999L
I1074240288
sL4205130468L
I1074246212
sL1107838538L
I1074267788
sL1824840579L
I1074235896
sL1581227640L
I1074245536
sL2945416903L
I1074268076
sL3610381689L
I1074245344
sL3839757458L
I1074240944
sL1900284427L
I1074246744
sL3013424584L
I1074270232
sL1670955726L
I1074238048
sL1585823442L
I1074245412
sL25036838L
I1074245440
sL1955069149L
I1074245816
sL1627375778L
I1074236544
sL673318524L
I1074236596
sL4198635552L
I1074236972
sL1271355812L
I1074235552
sL1721054961L
I1074242052
sL3869633217L
I1074269372
sL2085429541L
I1074246168
sL2764339374L
I1074236364
sL2853686136L
I1074246136
sL3490804064L
I1074236784
sL2034515509L
I1074267856
sL1408718210L
I1074237504
sL35192942L
I1074269400
sL137447245L
I1074246872
sL1902412315L
I1074239576
sL676927194L
I1074269524
sL3307282855L
I1074238020
sL3692535953L
I1074245700
sL388606638L
I1074242960
sL2874598109L
I1074246028
sL3061679344L
I1074239544
sL612086517L
I1074235260
sL4114736847L
I1074236852
sL2138846191L
I1074268632
sL1760762981L
I1074247340
sL961711562L
I1074242820
sL311381268L
I1074245240
sL2951865425L
I1074247060
sL1349874900L
I1074269304
sL4022384738L
I1074237840
sL795281861L
I1074238468
sL2713401112L
I1074237868
sL3022871182L
I1074247840
sL1995941712L
I1074236560
sL1652900655L
I1074238456
sL3675355323L
I1074246052
sL1780788104L
I1074236512
sL3437515081L
I1074234728
sL2997001746L
I1074237184
sL678437320L
I1074241432
sL2819127986L
I1074236992
sL1016152107L
I1074267704
sL4189459211L
I1074269612
sL1434273219L
I1074238140
sL1579404956L
I1074243340
sL889902282L
I1074269532
sL466362381L
I1074243208
sL1164083360L
I1074235604
sL2886191301L
I1074246228
sL4075620904L
I1074267139
sL2216956653L
I1074239068
sL2249539038L
I1074239836
sL3110450088L
I1074269564
sL1939342934L
I1074246916
sL642393753L
I1074237332
sL3755531787L
I1074239928
sL2812932986L
I1074242532
sL2762932858L
I1074240628
sL1330292637L
I1074247384
sL3768378692L
I1074240476
sL80672023L
I1074237556
sL2263182908L
I1074238040
sL3263353950L
I1074240304
sL188664287L
I1074235228
sL3521336321L
I1074245876
sL4072204123L
I1074235784
sL2959238529L
I1074237252
sL1963265505L
I1074269776
sL2950997505L
I1074244924
sL692536993L
I1074237224
sL350015536L
I1074240384
sL3611184593L
I1074239276
sL604404457L
I1074247808
sL4019220832L
I1074243020
sL3608561895L
I1074268800
sL3011651184L
I1074237028
sL2620903364L
I1074246944
sL2248875772L
I1074243512
sL4267894680L
I1074236752
sL1742795802L
I1074241312
sL4084731525L
I1074242912
ssS'immediates'
p8
(dp9
sS'formaldups'
p10
c__builtin__
set
p11
((lp12
tp13
Rp14
sS'stringdups'
p15
g11
((lp16
tp17
Rp18
sS'fuzzydups'
p19
g11
((lp20
tp21
Rp22
sS'strings'
p23
(dp24
sS'functions'
p25
(dp26
I1074270472
(Vmpu_hal_set_region_access
p27
(lp28
(L3538356822L
L0L
(lp29
(lp30
tp31
a(L2902417580L
L0L
(lp32
(lp33
tp34
a(L3020187L
L0L
(lp35
(lp36
tp37
a(L3020187L
L0L
(lp38
(lp39
tp40
a(L3360570486L
L0L
(lp41
(lp42
tp43
a(L2258718273L
L0L
(lp44
(lp45
tp46
a(L3446648619L
L0L
(lp47
(lp48
tp49
a(L3739532189L
L0L
(lp50
(lp51
tp52
a(L1300789895L
L0L
(lp53
(lp54
tp55
a(L3472092938L
L0L
(lp56
(lp57
tp58
atp59
sI1074238468
(Vload_image
p60
(lp61
(L1133981448L
L1880226080L
(lp62
(lp63
Vbootloader_random_disable
p64
aVbootloader_ana_clock_glitch_reset_config
p65
atp66
a(L2118498116L
L0L
(lp67
(lp68
tp69
a(L106L
L0L
(lp70
(lp71
tp72
a(L1456052784L
L0L
(lp73
(lp74
tp75
a(L2010554219L
L0L
(lp76
(lp77
tp78
a(L3268103L
L0L
(lp79
(lp80
tp81
a(L2967673473L
L3785322319L
(lp82
(lp83
Vbootloader_console_deinit
p84
atp85
a(L1725103625L
L0L
(lp86
(lp87
tp88
a(L2902417580L
L0L
(lp89
(lp90
tp91
a(L292948230L
L3785322319L
(lp92
(lp93
Vesp_log_early_timestamp
p94
atp95
a(L2663513213L
L0L
(lp96
(lp97
tp98
a(L191737985L
L0L
(lp99
(lp100
tp101
a(L2902417580L
L0L
(lp102
(lp103
tp104
a(L3915378691L
L3785322319L
(lp105
(lp106
Vesp_log_early_timestamp
p107
atp108
a(L902182917L
L0L
(lp109
(lp110
tp111
a(L2105494657L
L0L
(lp112
(lp113
tp114
atp115
sI1074242052
(Vimage_load
p116
(lp117
(L745499722L
L0L
(lp118
(lp119
tp120
a(L1899869538L
L0L
(lp121
(lp122
tp123
a(L9219888L
L0L
(lp124
(lp125
tp126
a(L2021083545L
L0L
(lp127
(lp128
tp129
a(L3020187L
L0L
(lp130
(lp131
tp132
a(L2322937491L
L3785322319L
(lp133
(lp134
Vesp_log_early_timestamp
p135
atp136
a(L2068384292L
L0L
(lp137
(lp138
tp139
a(L1968553470L
L3785322319L
(lp140
(lp141
Vbootloader_sha256_finish
p142
atp143
a(L1926887795L
L0L
(lp144
(lp145
tp146
a(L3271848319L
L0L
(lp147
(lp148
tp149
a(L1182930974L
L0L
(lp150
(lp151
tp152
a(L3678851644L
L3785322319L
(lp153
(lp154
Vprocess_image_header
p155
atp156
a(L1341816907L
L0L
(lp157
(lp158
tp159
a(L909494482L
L0L
(lp160
(lp161
tp162
a(L1028073566L
L3785322319L
(lp163
(lp164
Vprocess_segments
p165
atp166
a(L3803885910L
L0L
(lp167
(lp168
tp169
a(L94425498L
L3785322319L
(lp170
(lp171
Vesp_cpu_in_ocd_debug_mode
p172
atp173
a(L454195650L
L3785322319L
(lp174
(lp175
Vprocess_checksum
p176
atp177
a(L1651117269L
L3785322319L
(lp178
(lp179
Vprocess_appended_hash
p180
atp181
a(L533710513L
L0L
(lp182
(lp183
tp184
a(L505081362L
L0L
(lp185
(lp186
tp187
a(L3212356251L
L3785322319L
(lp188
(lp189
Vesp_cpu_in_ocd_debug_mode
p190
atp191
a(L4018767311L
L1880226080L
(lp192
(lp193
Vbootloader_sha256_finish
p194
aVbootloader_debug_buffer
p195
atp196
a(L4099313112L
L1880226080L
(lp197
(lp198
Vesp_log_early_timestamp
p199
aVbootloader_debug_buffer
p200
atp201
a(L978077504L
L0L
(lp202
(lp203
tp204
a(L2068384292L
L0L
(lp205
(lp206
tp207
a(L858449684L
L3785322319L
(lp208
(lp209
Vbootloader_sha256_finish
p210
atp211
a(L3028481L
L0L
(lp212
(lp213
tp214
a(L93674324L
L0L
(lp215
(lp216
tp217
a(L3998685840L
L0L
(lp218
(lp219
tp220
a(L2429164518L
L0L
(lp221
(lp222
tp223
a(L3553619191L
L0L
(lp224
(lp225
tp226
a(L85798113L
L0L
(lp227
(lp228
tp229
a(L464010095L
L0L
(lp230
(lp231
tp232
a(L835563811L
L3785322319L
(lp233
(lp234
Vshould_load
p235
atp236
a(L1358360603L
L0L
(lp237
(lp238
tp239
a(L4224160879L
L0L
(lp240
(lp241
tp242
a(L22884489L
L0L
(lp243
(lp244
tp245
a(L741351569L
L0L
(lp246
(lp247
tp248
a(L434644776L
L0L
(lp249
(lp250
tp251
a(L106L
L0L
(lp252
(lp253
tp254
a(L709419389L
L0L
(lp255
(lp256
tp257
a(L1299866312L
L0L
(lp258
(lp259
tp260
atp261
sI1074242820
(Vesp_rom_spiflash_read_status
p262
(lp263
(L3562601385L
L0L
(lp264
(lp265
tp266
a(L1182811815L
L0L
(lp267
(lp268
tp269
a(L3733561988L
L0L
(lp270
(lp271
tp272
a(L106L
L0L
(lp273
(lp274
tp275
a(L228086617L
L0L
(lp276
(lp277
tp278
a(L4004659960L
L0L
(lp279
(lp280
tp281
a(L2123059967L
L0L
(lp282
(lp283
tp284
a(L1973734210L
L0L
(lp285
(lp286
tp287
a(L2392720019L
L0L
(lp288
(lp289
tp290
atp291
sI1074246916
(Vrtc_clk_apb_freq_update
p292
(lp293
(L1441319584L
L0L
(lp294
(lp295
tp296
atp297
sI1074235648
(Vbootloader_flash_xmc_startup
p298
(lp299
(L2358327534L
L3785322319L
(lp300
(lp301
Vis_xmc_chip_strict
p302
atp303
a(L2258688482L
L0L
(lp304
(lp305
tp306
a(L3360570486L
L0L
(lp307
(lp308
tp309
a(L251913992L
L3785322319L
(lp310
(lp311
Vbootloader_flash_read_sfdp
p312
atp313
a(L1623371620L
L267944800L
(lp314
(lp315
Vbootloader_execute_flash_command
p316
aVbootloader_execute_flash_command
p317
aVbootloader_execute_flash_command
p318
aVbootloader_execute_flash_command
p319
aVbootloader_read_flash_id
p320
aVis_xmc_chip_strict
p321
atp322
a(L1760467701L
L3785322319L
(lp323
(lp324
Vesp_log_early_timestamp
p325
atp326
atp327
sI1074237184
(Vbootloader_common_get_active_otadata
p328
(lp329
(L3317503532L
L0L
(lp330
(lp331
tp332
a(L2503049265L
L1832448559L
(lp333
(lp334
Vbootloader_common_ota_select_valid
p335
aVbootloader_common_ota_select_valid
p336
aVbootloader_common_select_otadata
p337
atp338
a(L735741265L
L0L
(lp339
(lp340
tp341
atp342
sI1074246656
(Vrtc_clk_cpu_freq_mhz_to_config
p343
(lp344
(L2601984125L
L3785322319L
(lp345
(lp346
Vrtc_clk_xtal_freq_get
p347
atp348
a(L2089656409L
L0L
(lp349
(lp350
tp351
a(L3814337874L
L0L
(lp352
(lp353
tp354
a(L3126521138L
L0L
(lp355
(lp356
tp357
a(L2762074623L
L0L
(lp358
(lp359
tp360
a(L1541996779L
L0L
(lp361
(lp362
tp363
a(L2916936348L
L0L
(lp364
(lp365
tp366
a(L1555485793L
L0L
(lp367
(lp368
tp369
a(L2258897023L
L0L
(lp370
(lp371
tp372
a(L1947499251L
L0L
(lp373
(lp374
tp375
a(L1306331021L
L0L
(lp376
(lp377
tp378
atp379
sI1074267136
(V_init
p380
(lp381
(L3493042598L
L0L
(lp382
(lp383
tp384
atp385
sI1074270464
(Vbootloader_print_banner
p386
(lp387
(L2100504542L
L0L
(lp388
(lp389
tp390
atp391
sI1074243340
(Vesp_rom_spiflash_write
p392
(lp393
(L3917920787L
L0L
(lp394
(lp395
tp396
a(L2258688483L
L0L
(lp397
(lp398
tp399
a(L3360570486L
L0L
(lp400
(lp401
tp402
a(L1590344338L
L0L
(lp403
(lp404
tp405
a(L3106685987L
L0L
(lp406
(lp407
tp408
a(L4249336406L
L3785322319L
(lp409
(lp410
Vesp_rom_spiflash_program_page_internal
p411
atp412
a(L1915738254L
L3785322319L
(lp413
(lp414
Vesp_rom_spiflash_program_page_internal
p415
atp416
a(L663507325L
L0L
(lp417
(lp418
tp419
a(L2392967593L
L0L
(lp420
(lp421
tp422
a(L564470687L
L0L
(lp423
(lp424
tp425
a(L154459701L
L3785322319L
(lp426
(lp427
Vesp_rom_spiflash_program_page_internal
p428
atp429
a(L2079643754L
L0L
(lp430
(lp431
tp432
atp433
sI1074236940
(Vesp_log_early_timestamp
p434
(lp435
(L4102571599L
L0L
(lp436
(lp437
tp438
atp439
sI1074267139
(V_text_start
p440
(lp441
(L2957395042L
L0L
(lp442
(lp443
tp444
atp445
sI1074270232
(Vrtc_vddsdio_get_config
p446
(lp447
(L3678440771L
L0L
(lp448
(lp449
tp450
a(L147025923L
L0L
(lp451
(lp452
tp453
a(L318395269L
L0L
(lp454
(lp455
tp456
a(L3103186839L
L0L
(lp457
(lp458
tp459
a(L4009849848L
L0L
(lp460
(lp461
tp462
a(L1116012092L
L0L
(lp463
(lp464
tp465
a(L1719615367L
L0L
(lp466
(lp467
tp468
a(L445527L
L0L
(lp469
(lp470
tp471
atp472
sI1074243600
(Vesp_rom_spiflash_read
p473
(lp474
(L1946063439L
L0L
(lp475
(lp476
tp477
a(L1892352631L
L0L
(lp478
(lp479
tp480
a(L2860271684L
L0L
(lp481
(lp482
tp483
a(L3017366L
L0L
(lp484
(lp485
tp486
a(L106L
L0L
(lp487
(lp488
tp489
a(L257800573L
L0L
(lp490
(lp491
tp492
a(L106L
L0L
(lp493
(lp494
tp495
a(L4059507866L
L0L
(lp496
(lp497
tp498
a(L2846020929L
L0L
(lp499
(lp500
tp501
a(L982365737L
L0L
(lp502
(lp503
tp504
a(L570409250L
L0L
(lp505
(lp506
tp507
a(L106L
L0L
(lp508
(lp509
tp510
a(L2143981275L
L3785322319L
(lp511
(lp512
Vesp_rom_spiflash_wait_idle
p513
atp514
a(L3021737L
L0L
(lp515
(lp516
tp517
a(L106L
L0L
(lp518
(lp519
tp520
a(L1868280504L
L0L
(lp521
(lp522
tp523
a(L106L
L0L
(lp524
(lp525
tp526
a(L3736482067L
L0L
(lp527
(lp528
tp529
a(L1221163038L
L0L
(lp530
(lp531
tp532
a(L4122060822L
L0L
(lp533
(lp534
tp535
a(L4035946700L
L0L
(lp536
(lp537
tp538
a(L2989032L
L0L
(lp539
(lp540
tp541
a(L3819849625L
L0L
(lp542
(lp543
tp544
a(L416599444L
L0L
(lp545
(lp546
tp547
a(L4239702023L
L0L
(lp548
(lp549
tp550
a(L3901820405L
L0L
(lp551
(lp552
tp553
a(L3330922101L
L0L
(lp554
(lp555
tp556
a(L1896415737L
L0L
(lp557
(lp558
tp559
a(L1522202953L
L0L
(lp560
(lp561
tp562
a(L2470749498L
L0L
(lp563
(lp564
tp565
a(L47621932L
L0L
(lp566
(lp567
tp568
a(L2267384310L
L0L
(lp569
(lp570
tp571
a(L2696140277L
L0L
(lp572
(lp573
tp574
a(L2687789892L
L0L
(lp575
(lp576
tp577
a(L1405253496L
L0L
(lp578
(lp579
tp580
a(L4161990331L
L0L
(lp581
(lp582
tp583
a(L97689L
L0L
(lp584
(lp585
tp586
a(L2258897019L
L0L
(lp587
(lp588
tp589
a(L4014024819L
L0L
(lp590
(lp591
tp592
a(L3621567083L
L0L
(lp593
(lp594
tp595
atp596
sI1074246168
(Vrtc_clk_fast_freq_set
p597
(lp598
(L649043768L
L0L
(lp599
(lp600
tp601
atp602
sI1074245412
(Vwdt_hal_write_protect_enable
p603
(lp604
(L387778158L
L0L
(lp605
(lp606
tp607
a(L4195472003L
L0L
(lp608
(lp609
tp610
a(L3360570486L
L0L
(lp611
(lp612
tp613
a(L802523425L
L0L
(lp614
(lp615
tp616
atp617
sI1074241312
(Vshould_load
p618
(lp619
(L3175009213L
L0L
(lp620
(lp621
tp622
a(L1182990556L
L0L
(lp623
(lp624
tp625
a(L2953514988L
L0L
(lp626
(lp627
tp628
a(L1298905564L
L0L
(lp629
(lp630
tp631
a(L524505062L
L0L
(lp632
(lp633
tp634
a(L2258897019L
L0L
(lp635
(lp636
tp637
a(L3781799363L
L0L
(lp638
(lp639
tp640
a(L3028464L
L0L
(lp641
(lp642
tp643
a(L1327916179L
L0L
(lp644
(lp645
tp646
a(L4076023486L
L0L
(lp647
(lp648
tp649
a(L2283657237L
L0L
(lp650
(lp651
tp652
a(L4185756579L
L0L
(lp653
(lp654
tp655
a(L3458855836L
L0L
(lp656
(lp657
tp658
a(L3126521138L
L0L
(lp659
(lp660
tp661
a(L1305407438L
L0L
(lp662
(lp663
tp664
a(L1305407469L
L0L
(lp665
(lp666
tp667
atp668
sI1074240288
(Vbootloader_console_deinit
p669
(lp670
(L3258138355L
L0L
(lp671
(lp672
tp673
atp674
sI1074246944
(Vrtc_clk_cpu_freq_to_xtal
p675
(lp676
(L1458239190L
L3785322319L
(lp677
(lp678
Vrtc_clk_apb_freq_update
p679
atp680
a(L702736263L
L0L
(lp681
(lp682
tp683
a(L277445412L
L0L
(lp684
(lp685
tp686
a(L309988616L
L0L
(lp687
(lp688
tp689
atp690
sI1074236972
(Vbootloader_common_ota_select_crc
p691
(lp692
(L2928964082L
L0L
(lp693
(lp694
tp695
atp696
sI1074239276
(Vbootloader_utility_get_selected_boot_partition
p697
(lp698
(L2803238495L
L0L
(lp699
(lp700
tp701
a(L1299867982L
L0L
(lp702
(lp703
tp704
a(L3360570486L
L0L
(lp705
(lp706
tp707
a(L3616104286L
L0L
(lp708
(lp709
tp710
a(L1102858942L
L3785322319L
(lp711
(lp712
Vesp_log_early_timestamp
p713
atp714
a(L282377750L
L0L
(lp715
(lp716
tp717
a(L1375577398L
L3785322319L
(lp718
(lp719
Vbootloader_mmap
p720
atp721
a(L1207746078L
L3785322319L
(lp722
(lp723
Vesp_log_early_timestamp
p724
atp725
a(L1471573307L
L1880226080L
(lp726
(lp727
Vbootloader_munmap
p728
aVbootloader_common_ota_select_invalid
p729
atp730
a(L1103573946L
L0L
(lp731
(lp732
tp733
a(L1876827316L
L3785322319L
(lp734
(lp735
Vbootloader_common_get_active_otadata
p736
atp737
a(L569346373L
L0L
(lp738
(lp739
tp740
a(L3111084448L
L3785322319L
(lp741
(lp742
Vbootloader_common_ota_select_invalid
p743
atp744
a(L45272527L
L0L
(lp745
(lp746
tp747
a(L847230968L
L0L
(lp748
(lp749
tp750
a(L505081345L
L0L
(lp751
(lp752
tp753
a(L919052234L
L3785322319L
(lp754
(lp755
Vbootloader_common_ota_select_crc
p756
atp757
a(L2287680455L
L0L
(lp758
(lp759
tp760
a(L3542558037L
L3785322319L
(lp761
(lp762
Vbootloader_common_ota_select_crc
p763
atp764
a(L1299866312L
L0L
(lp765
(lp766
tp767
a(L1715531634L
L0L
(lp768
(lp769
tp770
a(L2550529687L
L3785322319L
(lp771
(lp772
Vesp_log_early_timestamp
p773
atp774
a(L1367516498L
L0L
(lp775
(lp776
tp777
a(L4142614056L
L3785322319L
(lp778
(lp779
Vesp_log_early_timestamp
p780
atp781
atp782
sI1074237224
(Vbootloader_common_ota_select_invalid
p783
(lp784
(L4027567199L
L0L
(lp785
(lp786
tp787
a(L3397985842L
L0L
(lp788
(lp789
tp790
a(L2258867228L
L0L
(lp791
(lp792
tp793
a(L3785235668L
L0L
(lp794
(lp795
tp796
atp797
sI1074267704
(Vcall_start_cpu0
p798
(lp799
(L1974457732L
L3785322319L
(lp800
(lp801
Vbootloader_init
p802
atp803
a(L94425498L
L3785322319L
(lp804
(lp805
Vbootloader_reset
p806
atp807
a(L2802776775L
L3785322319L
(lp808
(lp809
Vbootloader_utility_load_partition_table
p810
atp811
a(L4026389016L
L3785322319L
(lp812
(lp813
Vesp_log_early_timestamp
p814
atp815
a(L2395089516L
L3785322319L
(lp816
(lp817
Vbootloader_utility_get_selected_boot_partition
p818
atp819
a(L2086982338L
L1880226080L
(lp820
(lp821
Vbootloader_common_get_reset_reason
p822
aVbootloader_utility_load_boot_image
p823
atp824
atp825
sI1074240304
(V__assert_func
p826
(lp827
(L1170963765L
L0L
(lp828
(lp829
tp830
a(L106L
L0L
(lp831
(lp832
tp833
atp834
sI1074239036
(Vtry_load_partition
p835
(lp836
(L2950885718L
L0L
(lp837
(lp838
tp839
a(L984595082L
L3785322319L
(lp840
(lp841
Vbootloader_load_image
p842
atp843
a(L3871473710L
L0L
(lp844
(lp845
tp846
atp847
sI1074244924
(Vwdt_hal_config_stage
p848
(lp849
(L331558507L
L0L
(lp850
(lp851
tp852
a(L4279082939L
L0L
(lp853
(lp854
tp855
a(L3020204L
L0L
(lp856
(lp857
tp858
a(L3020187L
L0L
(lp859
(lp860
tp861
a(L3020187L
L0L
(lp862
(lp863
tp864
a(L94425498L
L3785322319L
(lp865
(lp866
Vabort
p867
atp868
a(L2601455326L
L0L
(lp869
(lp870
tp871
a(L3360570486L
L0L
(lp872
(lp873
tp874
a(L2602246921L
L0L
(lp875
(lp876
tp877
a(L3376641326L
L0L
(lp878
(lp879
tp880
a(L3437244964L
L0L
(lp881
(lp882
tp883
a(L3020187L
L0L
(lp884
(lp885
tp886
a(L2902417580L
L0L
(lp887
(lp888
tp889
a(L3020187L
L0L
(lp890
(lp891
tp892
a(L3028464L
L0L
(lp893
(lp894
tp895
a(L3368075749L
L0L
(lp896
(lp897
tp898
a(L85023456L
L0L
(lp899
(lp900
tp901
a(L2972964239L
L0L
(lp902
(lp903
tp904
a(L3956388278L
L0L
(lp905
(lp906
tp907
atp908
sI1074239544
(Vbootloader_reset
p909
(lp910
(L1317131273L
L3785322319L
(lp911
(lp912
Vbootloader_console_deinit
p913
atp914
a(L106L
L0L
(lp915
(lp916
tp917
atp918
sI1074237252
(Vbootloader_common_select_otadata
p919
(lp920
(L2342662536L
L0L
(lp921
(lp922
tp923
a(L3806783650L
L0L
(lp924
(lp925
tp926
a(L1674928252L
L0L
(lp927
(lp928
tp929
a(L251571983L
L0L
(lp930
(lp931
tp932
a(L3360570486L
L0L
(lp933
(lp934
tp935
a(L2045232488L
L0L
(lp936
(lp937
tp938
a(L189726519L
L0L
(lp939
(lp940
tp941
a(L3095066987L
L0L
(lp942
(lp943
tp944
a(L3592023188L
L0L
(lp945
(lp946
tp947
a(L1641201884L
L0L
(lp948
(lp949
tp950
atp951
sI1074238020
(Vbootloader_enable_wp
p952
(lp953
(L1117825804L
L3785322319L
(lp954
(lp955
Vbootloader_execute_flash_command
p956
atp957
atp958
sI1074245700
(Vrtc_clk_32k_enable_common
p959
(lp960
(L3082113162L
L0L
(lp961
(lp962
tp963
atp964
sI1074246212
(Vrtc_clk_fast_freq_get
p965
(lp966
(L2818755361L
L0L
(lp967
(lp968
tp969
atp970
sI1074236992
(Vbootloader_common_ota_select_valid
p971
(lp972
(L1563399710L
L3785322319L
(lp973
(lp974
Vbootloader_common_ota_select_invalid
p975
atp976
a(L3814720849L
L3785322319L
(lp977
(lp978
Vbootloader_common_ota_select_crc
p979
atp980
a(L3360570486L
L0L
(lp981
(lp982
tp983
atp984
sI1074237504
(Vbootloader_munmap
p985
(lp986
(L1100293470L
L0L
(lp987
(lp988
tp989
a(L3415349512L
L0L
(lp990
(lp991
tp992
a(L3360570486L
L0L
(lp993
(lp994
tp995
atp996
sI1074245440
(Vefuse_hal_get_rated_freq_mhz
p997
(lp998
(L1131075142L
L0L
(lp999
(lp1000
tp1001
a(L2965302338L
L0L
(lp1002
(lp1003
tp1004
a(L3360570486L
L0L
(lp1005
(lp1006
tp1007
atp1008
sI1074248000
(V_fini
p1009
(lp1010
(L3493042598L
L0L
(lp1011
(lp1012
tp1013
atp1014
sI1074240328
(Vabort
p1015
(lp1016
(L3509382986L
L0L
(lp1017
(lp1018
tp1019
a(L409441471L
L0L
(lp1020
(lp1021
tp1022
a(L106L
L0L
(lp1023
(lp1024
tp1025
atp1026
sI1074246228
(Vrtc_clk_bbpll_configure
p1027
(lp1028
(L3251916077L
L0L
(lp1029
(lp1030
tp1031
a(L106L
L0L
(lp1032
(lp1033
tp1034
a(L3702936897L
L0L
(lp1035
(lp1036
tp1037
a(L106L
L0L
(lp1038
(lp1039
tp1040
a(L2336760896L
L0L
(lp1041
(lp1042
tp1043
a(L1586012791L
L0L
(lp1044
(lp1045
tp1046
a(L839373470L
L0L
(lp1047
(lp1048
tp1049
a(L160100376L
L0L
(lp1050
(lp1051
tp1052
a(L87437968L
L0L
(lp1053
(lp1054
tp1055
a(L3278525731L
L0L
(lp1056
(lp1057
tp1058
a(L4233201987L
L0L
(lp1059
(lp1060
tp1061
a(L160100376L
L0L
(lp1062
(lp1063
tp1064
atp1065
sI1074269532
(Vbootloader_console_init
p1066
(lp1067
(L2709841870L
L2485746240L
(lp1068
(lp1069
Vesp_rom_install_channel_putc
p1070
aVesp_rom_uart_tx_wait_idle
p1071
aVrtc_clk_apb_freq_get
p1072
aVesp_rom_uart_set_clock_baudrate
p1073
atp1074
atp1075
sI1074236752
(Vefuse_hal_chip_revision
p1076
(lp1077
(L1761205471L
L1880226080L
(lp1078
(lp1079
Vefuse_hal_get_major_chip_version
p1080
aVefuse_hal_get_minor_chip_version
p1081
atp1082
atp1083
sI1074269776
(Vrtc_clk_init
p1084
(lp1085
(L2649689980L
L0L
(lp1086
(lp1087
tp1088
a(L42671777L
L3785322319L
(lp1089
(lp1090
Vrtc_clk_cpu_freq_to_xtal
p1091
atp1092
a(L3516405175L
L0L
(lp1093
(lp1094
tp1095
a(L4184912069L
L0L
(lp1096
(lp1097
tp1098
a(L2873281153L
L0L
(lp1099
(lp1100
tp1101
a(L912414356L
L3785322319L
(lp1102
(lp1103
Vrtc_clk_xtal_freq_get
p1104
atp1105
a(L766676023L
L1157885199L
(lp1106
(lp1107
Vesp_rom_uart_tx_wait_idle
p1108
aVrtc_clk_xtal_freq_update
p1109
aVrtc_clk_apb_freq_update
p1110
aVrtc_clk_cpu_freq_get_config
p1111
aVrtc_clk_cpu_freq_mhz_to_config
p1112
atp1113
a(L2049360664L
L1880226080L
(lp1114
(lp1115
Vesp_log_early_timestamp
p1116
aVabort
p1117
atp1118
a(L4187693717L
L3785322319L
(lp1119
(lp1120
Vrtc_clk_xtal_freq_estimate
p1121
atp1122
a(L4018424124L
L3785322319L
(lp1123
(lp1124
Vesp_log_early_timestamp
p1125
atp1126
a(L4188325301L
L0L
(lp1127
(lp1128
tp1129
a(L1563923531L
L0L
(lp1130
(lp1131
tp1132
a(L106L
L0L
(lp1133
(lp1134
tp1135
a(L4070631878L
L3785322319L
(lp1136
(lp1137
Vrtc_clk_xtal_freq_estimate
p1138
atp1139
a(L106L
L0L
(lp1140
(lp1141
tp1142
a(L3694063539L
L3785322319L
(lp1143
(lp1144
Vesp_log_early_timestamp
p1145
atp1146
a(L1860207713L
L3785322319L
(lp1147
(lp1148
Vrtc_clk_cpu_freq_set_config
p1149
atp1150
a(L4168829660L
L3785322319L
(lp1151
(lp1152
Vrtc_clk_32k_enable
p1153
atp1154
a(L3016870L
L0L
(lp1155
(lp1156
tp1157
a(L2765048515L
L3785322319L
(lp1158
(lp1159
Vrtc_clk_8m_enable
p1160
atp1161
a(L530469956L
L1880226080L
(lp1162
(lp1163
Vrtc_clk_fast_freq_set
p1164
aVrtc_clk_slow_freq_set
p1165
atp1166
atp1167
sI1074240092
(Vbootloader_sha256_finish
p1168
(lp1169
(L4066096136L
L0L
(lp1170
(lp1171
tp1172
a(L4131091497L
L0L
(lp1173
(lp1174
tp1175
a(L2109085489L
L3785322319L
(lp1176
(lp1177
V__assert_func
p1178
atp1179
a(L3020204L
L0L
(lp1180
(lp1181
tp1182
a(L2309479674L
L0L
(lp1183
(lp1184
tp1185
a(L2534656226L
L0L
(lp1186
(lp1187
tp1188
a(L3892641272L
L3785322319L
(lp1189
(lp1190
Vbootloader_sha256_data
p1191
atp1192
a(L3591254338L
L0L
(lp1193
(lp1194
tp1195
a(L385167185L
L3785322319L
(lp1196
(lp1197
Vbootloader_sha256_data
p1198
atp1199
a(L4077847241L
L0L
(lp1200
(lp1201
tp1202
a(L657425439L
L0L
(lp1203
(lp1204
tp1205
a(L2659035947L
L0L
(lp1206
(lp1207
tp1208
a(L657425439L
L0L
(lp1209
(lp1210
tp1211
a(L1815875599L
L0L
(lp1212
(lp1213
tp1214
a(L1152884954L
L0L
(lp1215
(lp1216
tp1217
a(L3347778L
L0L
(lp1218
(lp1219
tp1220
a(L3360570486L
L0L
(lp1221
(lp1222
tp1223
atp1224
sI1074235228
(Vbootloader_execute_flash_command
p1225
(lp1226
(L2481595632L
L3785322319L
(lp1227
(lp1228
Vbootloader_flash_execute_command_common
p1229
atp1230
atp1231
sI1074239068
(Vbootloader_utility_load_partition_table
p1232
(lp1233
(L1679888792L
L3785322319L
(lp1234
(lp1235
Vbootloader_mmap
p1236
atp1237
a(L3980598949L
L3785322319L
(lp1238
(lp1239
Vesp_log_early_timestamp
p1240
atp1241
a(L2258688482L
L0L
(lp1242
(lp1243
tp1244
a(L3360570486L
L0L
(lp1245
(lp1246
tp1247
a(L1520382514L
L3785322319L
(lp1248
(lp1249
Vesp_partition_table_verify
p1250
atp1251
a(L801173927L
L3785322319L
(lp1252
(lp1253
Vesp_log_early_timestamp
p1254
atp1255
a(L148985701L
L0L
(lp1256
(lp1257
tp1258
a(L3020187L
L0L
(lp1259
(lp1260
tp1261
a(L4067319519L
L0L
(lp1262
(lp1263
tp1264
a(L3806571235L
L0L
(lp1265
(lp1266
tp1267
a(L2247926755L
L3785322319L
(lp1268
(lp1269
Vbootloader_munmap
p1270
atp1271
a(L1036489382L
L0L
(lp1272
(lp1273
tp1274
a(L3020187L
L0L
(lp1275
(lp1276
tp1277
a(L1699092113L
L0L
(lp1278
(lp1279
tp1280
a(L3926410636L
L0L
(lp1281
(lp1282
tp1283
a(L3977772390L
L0L
(lp1284
(lp1285
tp1286
a(L1535150665L
L0L
(lp1287
(lp1288
tp1289
a(L2387139071L
L0L
(lp1290
(lp1291
tp1292
a(L507291053L
L0L
(lp1293
(lp1294
tp1295
atp1296
sI1074239836
(Vindex_to_partition
p1297
(lp1298
(L4066096119L
L0L
(lp1299
(lp1300
tp1301
a(L1739185955L
L0L
(lp1302
(lp1303
tp1304
a(L2171552758L
L0L
(lp1305
(lp1306
tp1307
a(L2808906342L
L0L
(lp1308
(lp1309
tp1310
a(L2101481936L
L0L
(lp1311
(lp1312
tp1313
a(L3698927993L
L0L
(lp1314
(lp1315
tp1316
a(L2808826781L
L0L
(lp1317
(lp1318
tp1319
a(L3003398163L
L0L
(lp1320
(lp1321
tp1322
a(L1104460200L
L0L
(lp1323
(lp1324
tp1325
a(L1087646172L
L0L
(lp1326
(lp1327
tp1328
atp1329
sI1074269524
(Vbootloader_enable_random
p1330
(lp1331
(L1287383080L
L3785322319L
(lp1332
(lp1333
Vbootloader_random_enable
p1334
atp1335
atp1336
sI1074246744
(Vrtc_clk_cpu_freq_get_config
p1337
(lp1338
(L1669847809L
L0L
(lp1339
(lp1340
tp1341
a(L2902417580L
L0L
(lp1342
(lp1343
tp1344
a(L1777368540L
L0L
(lp1345
(lp1346
tp1347
a(L1092588469L
L1880226080L
(lp1348
(lp1349
Vesp_log_early_timestamp
p1350
aVabort
p1351
atp1352
a(L1514570030L
L3785322319L
(lp1353
(lp1354
Vrtc_clk_xtal_freq_get
p1355
atp1356
a(L584032699L
L0L
(lp1357
(lp1358
tp1359
a(L2337754106L
L0L
(lp1360
(lp1361
tp1362
a(L3020187L
L0L
(lp1363
(lp1364
tp1365
a(L713819170L
L0L
(lp1366
(lp1367
tp1368
a(L106L
L0L
(lp1369
(lp1370
tp1371
a(L549042870L
L0L
(lp1372
(lp1373
tp1374
a(L187152368L
L0L
(lp1375
(lp1376
tp1377
a(L4149732163L
L0L
(lp1378
(lp1379
tp1380
atp1381
sI1074239576
(Vbootloader_utility_load_boot_image
p1382
(lp1383
(L1561528311L
L0L
(lp1384
(lp1385
tp1386
a(L2177418995L
L3785322319L
(lp1387
(lp1388
Vtry_load_partition
p1389
atp1390
a(L2749106626L
L3785322319L
(lp1391
(lp1392
Vload_image
p1393
atp1394
a(L3595408853L
L3785322319L
(lp1395
(lp1396
Vesp_log_early_timestamp
p1397
atp1398
a(L3827921190L
L3785322319L
(lp1399
(lp1400
Vbootloader_reset
p1401
atp1402
a(L2542673780L
L3785322319L
(lp1403
(lp1404
Vindex_to_partition
p1405
atp1406
a(L1204373741L
L3785322319L
(lp1407
(lp1408
Vtry_load_partition
p1409
atp1410
a(L3020187L
L0L
(lp1411
(lp1412
tp1413
a(L1684328932L
L0L
(lp1414
(lp1415
tp1416
a(L2070875117L
L3785322319L
(lp1417
(lp1418
Vset_actual_ota_seq
p1419
atp1420
a(L1868897605L
L3785322319L
(lp1421
(lp1422
Vlog_invalid_app_partition
p1423
atp1424
a(L831650730L
L0L
(lp1425
(lp1426
tp1427
a(L3021737L
L0L
(lp1428
(lp1429
tp1430
a(L4083823862L
L0L
(lp1431
(lp1432
tp1433
a(L3825716369L
L3785322319L
(lp1434
(lp1435
Vtry_load_partition
p1436
atp1437
a(L1605950929L
L3785322319L
(lp1438
(lp1439
Vesp_log_early_timestamp
p1440
atp1441
a(L2185156151L
L3785322319L
(lp1442
(lp1443
Vindex_to_partition
p1444
atp1445
a(L1074657773L
L3785322319L
(lp1446
(lp1447
Vtry_load_partition
p1448
atp1449
a(L3027024L
L0L
(lp1450
(lp1451
tp1452
a(L3529947745L
L0L
(lp1453
(lp1454
tp1455
a(L3061261803L
L0L
(lp1456
(lp1457
tp1458
a(L3582858798L
L3785322319L
(lp1459
(lp1460
Vlog_invalid_app_partition
p1461
atp1462
a(L3887592335L
L3785322319L
(lp1463
(lp1464
Vesp_log_early_timestamp
p1465
atp1466
atp1467
sI1074238040
(Vbootloader_mmap_get_free_pages
p1468
(lp1469
(L1496516875L
L0L
(lp1470
(lp1471
tp1472
atp1473
sI1074269288
(Vbootloader_flash_update_id
p1474
(lp1475
(L1956808122L
L3785322319L
(lp1476
(lp1477
Vbootloader_read_flash_id
p1478
atp1479
atp1480
sI1074237028
(Vbootloader_common_check_chip_validity
p1481
(lp1482
(L409865374L
L0L
(lp1483
(lp1484
tp1485
a(L4281673989L
L3785322319L
(lp1486
(lp1487
Vesp_log_early_timestamp
p1488
atp1489
a(L1508931617L
L3785322319L
(lp1490
(lp1491
Vefuse_hal_chip_revision
p1492
atp1493
a(L93674324L
L0L
(lp1494
(lp1495
tp1496
a(L3184898681L
L3785322319L
(lp1497
(lp1498
Vesp_log_early_timestamp
p1499
atp1500
a(L1641201884L
L0L
(lp1501
(lp1502
tp1503
a(L2258688482L
L0L
(lp1504
(lp1505
tp1506
a(L3360570486L
L0L
(lp1507
(lp1508
tp1509
atp1510
sI1074245476
(Vrtc_clk_bbpll_disable
p1511
(lp1512
(L3962669820L
L0L
(lp1513
(lp1514
tp1515
a(L391691750L
L0L
(lp1516
(lp1517
tp1518
a(L3360570486L
L0L
(lp1519
(lp1520
tp1521
atp1522
sI1074242912
(Vesp_rom_spiflash_wait_idle
p1523
(lp1524
(L3233076232L
L0L
(lp1525
(lp1526
tp1527
a(L2023766174L
L0L
(lp1528
(lp1529
tp1530
a(L2805934213L
L0L
(lp1531
(lp1532
tp1533
a(L3086959262L
L0L
(lp1534
(lp1535
tp1536
a(L4161019926L
L3785322319L
(lp1537
(lp1538
Vesp_rom_spiflash_read_status
p1539
atp1540
atp1541
sI1074238048
(Vbootloader_fill_random
p1542
(lp1543
(L3026789978L
L0L
(lp1544
(lp1545
tp1546
a(L2062332557L
L0L
(lp1547
(lp1548
tp1549
a(L97689L
L0L
(lp1550
(lp1551
tp1552
a(L3360570486L
L0L
(lp1553
(lp1554
tp1555
a(L265607831L
L3785322319L
(lp1556
(lp1557
V__assert_func
p1558
atp1559
a(L2008660626L
L0L
(lp1560
(lp1561
tp1562
a(L3028481L
L0L
(lp1563
(lp1564
tp1565
a(L983138374L
L0L
(lp1566
(lp1567
tp1568
a(L2607138306L
L0L
(lp1569
(lp1570
tp1571
a(L1982128194L
L0L
(lp1572
(lp1573
tp1574
atp1575
sI1074236512
(Vbootloader_common_get_chip_ver_pkg
p1576
(lp1577
(L2768515967L
L0L
(lp1578
(lp1579
tp1580
atp1581
sI1074234728
(Vbootloader_flash_execute_command_common
p1582
(lp1583
(L630859308L
L0L
(lp1584
(lp1585
tp1586
a(L120555568L
L0L
(lp1587
(lp1588
tp1589
a(L2925418774L
L3785322319L
(lp1590
(lp1591
V__assert_func
p1592
atp1593
a(L3021749L
L0L
(lp1594
(lp1595
tp1596
a(L153183052L
L0L
(lp1597
(lp1598
tp1599
a(L3132325827L
L0L
(lp1600
(lp1601
tp1602
a(L1782874522L
L0L
(lp1603
(lp1604
tp1605
a(L4024113366L
L0L
(lp1606
(lp1607
tp1608
a(L2147958864L
L0L
(lp1609
(lp1610
tp1611
a(L831940355L
L0L
(lp1612
(lp1613
tp1614
a(L2039827138L
L0L
(lp1615
(lp1616
tp1617
a(L2429937038L
L0L
(lp1618
(lp1619
tp1620
a(L2186295391L
L0L
(lp1621
(lp1622
tp1623
a(L3079186448L
L0L
(lp1624
(lp1625
tp1626
a(L3333696662L
L0L
(lp1627
(lp1628
tp1629
a(L963425213L
L0L
(lp1630
(lp1631
tp1632
a(L3172016656L
L0L
(lp1633
(lp1634
tp1635
a(L3360570486L
L0L
(lp1636
(lp1637
tp1638
a(L1184240068L
L0L
(lp1639
(lp1640
tp1641
atp1642
sI1074269304
(Vbootloader_clear_bss_section
p1643
(lp1644
(L635994099L
L0L
(lp1645
(lp1646
tp1647
atp1648
sI1074240628
(Vprocess_image_header
p1649
(lp1650
(L3751800422L
L3785322319L
(lp1651
(lp1652
Vbootloader_flash_read
p1653
atp1654
a(L3020204L
L0L
(lp1655
(lp1656
tp1657
a(L182056016L
L0L
(lp1658
(lp1659
tp1660
a(L1727394037L
L0L
(lp1661
(lp1662
tp1663
a(L1161397362L
L3785322319L
(lp1664
(lp1665
Vbootloader_sha256_start
p1666
atp1667
a(L2062774299L
L3785322319L
(lp1668
(lp1669
Vbootloader_sha256_data
p1670
atp1671
a(L2226581267L
L0L
(lp1672
(lp1673
tp1674
a(L3020204L
L0L
(lp1675
(lp1676
tp1677
a(L3200754196L
L0L
(lp1678
(lp1679
tp1680
a(L2983970029L
L0L
(lp1681
(lp1682
tp1683
a(L2712528262L
L3785322319L
(lp1684
(lp1685
Vesp_log_early_timestamp
p1686
atp1687
a(L3028481L
L0L
(lp1688
(lp1689
tp1690
a(L2299376216L
L0L
(lp1691
(lp1692
tp1693
a(L2371840649L
L3785322319L
(lp1694
(lp1695
Vesp_log_early_timestamp
p1696
atp1697
a(L2886566498L
L0L
(lp1698
(lp1699
tp1700
a(L95859023L
L3785322319L
(lp1701
(lp1702
Vesp_log_early_timestamp
p1703
atp1704
a(L545088956L
L3785322319L
(lp1705
(lp1706
Vbootloader_common_check_chip_validity
p1707
atp1708
a(L2786305996L
L0L
(lp1709
(lp1710
tp1711
a(L3028481L
L0L
(lp1712
(lp1713
tp1714
a(L97936019L
L3785322319L
(lp1715
(lp1716
Vesp_log_early_timestamp
p1717
atp1718
a(L2852701393L
L0L
(lp1719
(lp1720
tp1721
a(L2122516551L
L0L
(lp1722
(lp1723
tp1724
a(L3064492592L
L0L
(lp1725
(lp1726
tp1727
atp1728
sI1074238836
(Vlog_invalid_app_partition
p1729
(lp1730
(L2033218846L
L0L
(lp1731
(lp1732
tp1733
a(L3028464L
L0L
(lp1734
(lp1735
tp1736
a(L1081264708L
L3785322319L
(lp1737
(lp1738
Vesp_log_early_timestamp
p1739
atp1740
a(L44113432L
L0L
(lp1741
(lp1742
tp1743
a(L3360570486L
L0L
(lp1744
(lp1745
tp1746
a(L1770543135L
L3785322319L
(lp1747
(lp1748
Vesp_log_early_timestamp
p1749
atp1750
a(L3315561342L
L3785322319L
(lp1751
(lp1752
Vesp_log_early_timestamp
p1753
atp1754
atp1755
sI1074237556
(Vbootloader_flash_read
p1756
(lp1757
(L2699333355L
L0L
(lp1758
(lp1759
tp1760
a(L4027697569L
L3785322319L
(lp1761
(lp1762
Vesp_log_early_timestamp
p1763
atp1764
a(L44113432L
L0L
(lp1765
(lp1766
tp1767
a(L1299867982L
L0L
(lp1768
(lp1769
tp1770
a(L3360570486L
L0L
(lp1771
(lp1772
tp1773
a(L2660352519L
L0L
(lp1774
(lp1775
tp1776
a(L3132107495L
L3785322319L
(lp1777
(lp1778
Vesp_log_early_timestamp
p1779
atp1780
a(L162336582L
L0L
(lp1781
(lp1782
tp1783
a(L1181808573L
L3785322319L
(lp1784
(lp1785
Vesp_log_early_timestamp
p1786
atp1787
a(L3020204L
L0L
(lp1788
(lp1789
tp1790
a(L1398573769L
L0L
(lp1791
(lp1792
tp1793
a(L97422L
L0L
(lp1794
(lp1795
tp1796
a(L2104814937L
L0L
(lp1797
(lp1798
tp1799
a(L1190195824L
L0L
(lp1800
(lp1801
tp1802
a(L4267616384L
L3785322319L
(lp1803
(lp1804
Vesp_log_early_timestamp
p1805
atp1806
a(L905962070L
L0L
(lp1807
(lp1808
tp1809
a(L689929215L
L0L
(lp1810
(lp1811
tp1812
a(L1209224302L
L3785322319L
(lp1813
(lp1814
Vesp_rom_spiflash_read
p1815
atp1816
a(L106L
L0L
(lp1817
(lp1818
tp1819
a(L1037065151L
L0L
(lp1820
(lp1821
tp1822
atp1823
sI1074246004
(Vrtc_clk_8m_enabled
p1824
(lp1825
(L1456355585L
L0L
(lp1826
(lp1827
tp1828
atp1829
sI1074269564
(Vesp_cpu_configure_region_protection
p1830
(lp1831
(L2621057777L
L0L
(lp1832
(lp1833
tp1834
a(L180431425L
L3785322319L
(lp1835
(lp1836
Vmpu_hal_set_region_access
p1837
atp1838
a(L2537388152L
L3785322319L
(lp1839
(lp1840
Vmpu_hal_set_region_access
p1841
atp1842
atp1843
sI1074236784
(Vefuse_hal_get_major_chip_version
p1844
(lp1845
(L4284062136L
L0L
(lp1846
(lp1847
tp1848
a(L3144131276L
L0L
(lp1849
(lp1850
tp1851
a(L3360570486L
L0L
(lp1852
(lp1853
tp1854
atp1855
sI1074235260
(Vbootloader_flash_unlock
p1856
(lp1857
(L142706334L
L3785322319L
(lp1858
(lp1859
Vesp_rom_spiflash_wait_idle
p1860
atp1861
a(L4024621237L
L0L
(lp1862
(lp1863
tp1864
a(L4292483033L
L3785322319L
(lp1865
(lp1866
Vbootloader_execute_flash_command
p1867
atp1868
a(L106L
L0L
(lp1869
(lp1870
tp1871
a(L1303560644L
L0L
(lp1872
(lp1873
tp1874
a(L1419965066L
L0L
(lp1875
(lp1876
tp1877
a(L106L
L0L
(lp1878
(lp1879
tp1880
a(L1633120054L
L0L
(lp1881
(lp1882
tp1883
a(L106L
L0L
(lp1884
(lp1885
tp1886
a(L2974484771L
L0L
(lp1887
(lp1888
tp1889
a(L106L
L0L
(lp1890
(lp1891
tp1892
a(L1481761147L
L1880226080L
(lp1893
(lp1894
Vbootloader_execute_flash_command
p1895
aVbootloader_execute_flash_command
p1896
atp1897
a(L2258807654L
L0L
(lp1898
(lp1899
tp1900
a(L489806350L
L1832448559L
(lp1901
(lp1902
Vesp_rom_spiflash_wait_idle
p1903
aVbootloader_execute_flash_command
p1904
aVbootloader_execute_flash_command
p1905
atp1906
a(L879744646L
L1832448559L
(lp1907
(lp1908
Vesp_rom_spiflash_wait_idle
p1909
aVbootloader_execute_flash_command
p1910
aVbootloader_execute_flash_command
p1911
atp1912
a(L1840772931L
L1880226080L
(lp1913
(lp1914
Vesp_rom_spiflash_wait_idle
p1915
aVbootloader_execute_flash_command
p1916
atp1917
a(L2993202392L
L0L
(lp1918
(lp1919
tp1920
a(L508800419L
L1880226080L
(lp1921
(lp1922
Vbootloader_execute_flash_command
p1923
aVbootloader_execute_flash_command
p1924
atp1925
a(L1303560369L
L0L
(lp1926
(lp1927
tp1928
a(L1596544945L
L0L
(lp1929
(lp1930
tp1931
a(L97689L
L0L
(lp1932
(lp1933
tp1934
a(L106L
L0L
(lp1935
(lp1936
tp1937
atp1938
sI1074245240
(Vwdt_hal_write_protect_disable
p1939
(lp1940
(L4021169050L
L0L
(lp1941
(lp1942
tp1943
a(L4195472003L
L0L
(lp1944
(lp1945
tp1946
a(L3360570486L
L0L
(lp1947
(lp1948
tp1949
a(L1210571996L
L0L
(lp1950
(lp1951
tp1952
atp1953
sI1074240888
(Vbootloader_util_regions_overlap
p1954
(lp1955
(L2762640130L
L0L
(lp1956
(lp1957
tp1958
a(L3768398091L
L0L
(lp1959
(lp1960
tp1961
a(L4279549151L
L3785322319L
(lp1962
(lp1963
V__assert_func
p1964
atp1965
a(L97642L
L0L
(lp1966
(lp1967
tp1968
a(L3502633578L
L0L
(lp1969
(lp1970
tp1971
a(L366123053L
L0L
(lp1972
(lp1973
tp1974
a(L2258867228L
L0L
(lp1975
(lp1976
tp1977
a(L1253626734L
L0L
(lp1978
(lp1979
tp1980
a(L2258897019L
L0L
(lp1981
(lp1982
tp1983
a(L3109269495L
L0L
(lp1984
(lp1985
tp1986
atp1987
sI1074240376
(Vbootloader_ana_clock_glitch_reset_config
p1988
(lp1989
(L2100504542L
L0L
(lp1990
(lp1991
tp1992
atp1993
sI1074267788
(Vbootloader_common_vddsdio_configure
p1994
(lp1995
(L1922017289L
L3785322319L
(lp1996
(lp1997
Vrtc_vddsdio_get_config
p1998
atp1999
a(L1612109748L
L3785322319L
(lp2000
(lp2001
Vrtc_vddsdio_set_config
p2002
atp2003
a(L3360570486L
L0L
(lp2004
(lp2005
tp2006
atp2007
sI1074240384
(Vprocess_appended_hash
p2008
(lp2009
(L3580132405L
L0L
(lp2010
(lp2011
tp2012
a(L3028481L
L0L
(lp2013
(lp2014
tp2015
a(L1591589631L
L0L
(lp2016
(lp2017
tp2018
a(L1864319304L
L0L
(lp2019
(lp2020
tp2021
a(L522543318L
L0L
(lp2022
(lp2023
tp2024
a(L183916106L
L3785322319L
(lp2025
(lp2026
Vesp_log_early_timestamp
p2027
atp2028
a(L894030452L
L3785322319L
(lp2029
(lp2030
Vbootloader_flash_read
p2031
atp2032
a(L3871473710L
L0L
(lp2033
(lp2034
tp2035
atp2036
sI1074236544
(Vesp_cpu_in_ocd_debug_mode
p2037
(lp2038
(L3653986668L
L0L
(lp2039
(lp2040
tp2041
atp2042
sI1074247808
(Vrtc_clk_cal_ratio
p2043
(lp2044
(L2958124013L
L3785322319L
(lp2045
(lp2046
Vrtc_clk_cal_internal
p2047
atp2048
atp2049
sI1074268800
(Vbootloader_init_mem
p2050
(lp2051
(L1511720305L
L3785322319L
(lp2052
(lp2053
Vesp_cpu_configure_region_protection
p2054
atp2055
atp2056
sI1074246028
(Vrtc_clk_8md256_enabled
p2057
(lp2058
(L611883714L
L0L
(lp2059
(lp2060
tp2061
atp2062
sI1074235784
(Vbootloader_flash_cs_timing_config
p2063
(lp2064
(L1061398432L
L0L
(lp2065
(lp2066
tp2067
atp2068
sI1074243208
(Vesp_rom_spiflash_erase_sector
p2069
(lp2070
(L3802307968L
L0L
(lp2071
(lp2072
tp2073
a(L2258688483L
L0L
(lp2074
(lp2075
tp2076
a(L3360570486L
L0L
(lp2077
(lp2078
tp2079
a(L3212356251L
L3785322319L
(lp2080
(lp2081
Vesp_rom_spiflash_enable_write
p2082
atp2083
a(L184152988L
L0L
(lp2084
(lp2085
tp2086
a(L1049109326L
L3785322319L
(lp2087
(lp2088
Vesp_rom_spiflash_wait_idle
p2089
atp2090
a(L3333707777L
L0L
(lp2091
(lp2092
tp2093
a(L3582858798L
L3785322319L
(lp2094
(lp2095
Vesp_rom_spiflash_wait_idle
p2096
atp2097
atp2098
sI1074237332
(Vbootloader_mmap
p2099
(lp2100
(L1849006682L
L0L
(lp2101
(lp2102
tp2103
a(L348576312L
L3785322319L
(lp2104
(lp2105
Vesp_log_early_timestamp
p2106
atp2107
a(L1182811810L
L0L
(lp2108
(lp2109
tp2110
a(L3496950L
L0L
(lp2111
(lp2112
tp2113
a(L1609518598L
L0L
(lp2114
(lp2115
tp2116
a(L2764024930L
L3785322319L
(lp2117
(lp2118
Vesp_log_early_timestamp
p2119
atp2120
a(L1997959968L
L0L
(lp2121
(lp2122
tp2123
a(L2550920191L
L3785322319L
(lp2124
(lp2125
Vesp_log_early_timestamp
p2126
atp2127
a(L2329097695L
L0L
(lp2128
(lp2129
tp2130
atp2131
sI1074247060
(Vrtc_clk_cpu_freq_set_config
p2132
(lp2133
(L2354923755L
L3785322319L
(lp2134
(lp2135
Vrtc_clk_xtal_freq_get
p2136
atp2137
a(L1828795533L
L1880226080L
(lp2138
(lp2139
Vrtc_clk_cpu_freq_to_xtal
p2140
aVrtc_clk_wait_for_slow_cycle
p2141
atp2142
a(L94425498L
L3785322319L
(lp2143
(lp2144
Vrtc_clk_bbpll_disable
p2145
atp2146
a(L3978916712L
L0L
(lp2147
(lp2148
tp2149
a(L2977209154L
L0L
(lp2150
(lp2151
tp2152
a(L2736411858L
L3785322319L
(lp2153
(lp2154
Vrtc_clk_cpu_freq_to_xtal
p2155
atp2156
a(L3360570486L
L0L
(lp2157
(lp2158
tp2159
a(L3020187L
L0L
(lp2160
(lp2161
tp2162
a(L106L
L0L
(lp2163
(lp2164
tp2165
a(L1422665289L
L2485746240L
(lp2166
(lp2167
Vrtc_clk_wait_for_slow_cycle
p2168
aVrtc_clk_xtal_freq_get
p2169
aVrtc_clk_bbpll_configure
p2170
aVrtc_clk_cpu_freq_to_pll_mhz
p2171
atp2172
a(L3020187L
L0L
(lp2173
(lp2174
tp2175
a(L106L
L0L
(lp2176
(lp2177
tp2178
a(L1883647259L
L0L
(lp2179
(lp2180
tp2181
atp2182
sI1074242960
(Vesp_rom_spiflash_enable_write
p2183
(lp2184
(L2414266895L
L3785322319L
(lp2185
(lp2186
Vesp_rom_spiflash_wait_idle
p2187
atp2188
a(L3137194272L
L0L
(lp2189
(lp2190
tp2191
a(L2258718275L
L0L
(lp2192
(lp2193
tp2194
a(L99543895L
L0L
(lp2195
(lp2196
tp2197
a(L2993202392L
L0L
(lp2198
(lp2199
tp2200
a(L1804543818L
L3785322319L
(lp2201
(lp2202
Vesp_rom_spiflash_read_status
p2203
atp2204
atp2205
sI1074237840
(Vbootloader_flash_erase_sector
p2206
(lp2207
(L2049114289L
L3785322319L
(lp2208
(lp2209
Vesp_rom_spiflash_erase_sector
p2210
atp2211
a(L2576386045L
L0L
(lp2212
(lp2213
tp2214
a(L3360570486L
L0L
(lp2215
(lp2216
tp2217
atp2218
sI1074236560
(Vesp_rom_install_channel_putc
p2219
(lp2220
(L487865505L
L0L
(lp2221
(lp2222
tp2223
a(L3020187L
L0L
(lp2224
(lp2225
tp2226
a(L3360570486L
L0L
(lp2227
(lp2228
tp2229
a(L2197556747L
L0L
(lp2230
(lp2231
tp2232
a(L4123957120L
L0L
(lp2233
(lp2234
tp2235
atp2236
sI1074268816
(Vbootloader_random_enable
p2237
(lp2238
(L2958451383L
L0L
(lp2239
(lp2240
tp2241
atp2242
sI1074269328
(Vbootloader_read_bootloader_header
p2243
(lp2244
(L2458881291L
L3785322319L
(lp2245
(lp2246
Vbootloader_flash_read
p2247
atp2248
a(L1920293697L
L3785322319L
(lp2249
(lp2250
Vesp_log_early_timestamp
p2251
atp2252
a(L735741265L
L0L
(lp2253
(lp2254
tp2255
atp2256
sI1074239900
(Vbootloader_debug_buffer
p2257
(lp2258
(L2100504542L
L0L
(lp2259
(lp2260
tp2261
atp2262
sI1074245272
(Vwdt_hal_enable
p2263
(lp2264
(L4029830118L
L0L
(lp2265
(lp2266
tp2267
a(L3634439744L
L0L
(lp2268
(lp2269
tp2270
a(L3360570486L
L0L
(lp2271
(lp2272
tp2273
a(L2011576586L
L0L
(lp2274
(lp2275
tp2276
atp2277
sI1074241432
(Vprocess_segments
p2278
(lp2279
(L359986521L
L0L
(lp2280
(lp2281
tp2282
a(L2748309156L
L0L
(lp2283
(lp2284
tp2285
a(L2910670446L
L0L
(lp2286
(lp2287
tp2288
a(L106L
L0L
(lp2289
(lp2290
tp2291
a(L2587042390L
L0L
(lp2292
(lp2293
tp2294
a(L2229222556L
L3785322319L
(lp2295
(lp2296
Vesp_log_early_timestamp
p2297
atp2298
a(L1007910832L
L3785322319L
(lp2299
(lp2300
Vbootloader_flash_read
p2301
atp2302
a(L1426219237L
L3785322319L
(lp2303
(lp2304
Vesp_log_early_timestamp
p2305
atp2306
a(L3360570486L
L0L
(lp2307
(lp2308
tp2309
a(L1890170661L
L0L
(lp2310
(lp2311
tp2312
a(L4138551778L
L3785322319L
(lp2313
(lp2314
Vbootloader_sha256_data
p2315
atp2316
a(L3910643394L
L0L
(lp2317
(lp2318
tp2319
a(L790360741L
L0L
(lp2320
(lp2321
tp2322
a(L1404461989L
L0L
(lp2323
(lp2324
tp2325
a(L1714661835L
L0L
(lp2326
(lp2327
tp2328
a(L106L
L0L
(lp2329
(lp2330
tp2331
a(L3191688883L
L0L
(lp2332
(lp2333
tp2334
a(L3656641238L
L0L
(lp2335
(lp2336
tp2337
a(L1937378804L
L3785322319L
(lp2338
(lp2339
Vesp_log_early_timestamp
p2340
atp2341
a(L3648687041L
L0L
(lp2342
(lp2343
tp2344
a(L310049655L
L0L
(lp2345
(lp2346
tp2347
a(L1976683410L
L3785322319L
(lp2348
(lp2349
Vesp_log_early_timestamp
p2350
atp2351
a(L1551654749L
L3785322319L
(lp2352
(lp2353
Vverify_load_addresses
p2354
atp2355
a(L106L
L0L
(lp2356
(lp2357
tp2358
a(L238852646L
L0L
(lp2359
(lp2360
tp2361
a(L2655382944L
L0L
(lp2362
(lp2363
tp2364
a(L3735077394L
L3785322319L
(lp2365
(lp2366
Vbootloader_mmap
p2367
atp2368
a(L302510016L
L3785322319L
(lp2369
(lp2370
Vesp_log_early_timestamp
p2371
atp2372
a(L3842673188L
L0L
(lp2373
(lp2374
tp2375
a(L3488251118L
L0L
(lp2376
(lp2377
tp2378
a(L1652679798L
L3785322319L
(lp2379
(lp2380
Vbootloader_munmap
p2381
atp2382
a(L1820299912L
L0L
(lp2383
(lp2384
tp2385
a(L1782223905L
L3785322319L
(lp2386
(lp2387
Vbootloader_fill_random
p2388
atp2389
a(L3570641403L
L0L
(lp2390
(lp2391
tp2392
a(L3574335487L
L0L
(lp2393
(lp2394
tp2395
a(L3450268858L
L0L
(lp2396
(lp2397
tp2398
a(L3021749L
L0L
(lp2399
(lp2400
tp2401
a(L4179164843L
L0L
(lp2402
(lp2403
tp2404
a(L1084626871L
L0L
(lp2405
(lp2406
tp2407
a(L2902417580L
L0L
(lp2408
(lp2409
tp2410
a(L3832314507L
L0L
(lp2411
(lp2412
tp2413
a(L1797921642L
L0L
(lp2414
(lp2415
tp2416
a(L3425755096L
L0L
(lp2417
(lp2418
tp2419
a(L3396129621L
L0L
(lp2420
(lp2421
tp2422
a(L670934548L
L0L
(lp2423
(lp2424
tp2425
a(L363643669L
L3785322319L
(lp2426
(lp2427
Vbootloader_sha256_data
p2428
atp2429
a(L90548756L
L0L
(lp2430
(lp2431
tp2432
a(L4195963580L
L0L
(lp2433
(lp2434
tp2435
a(L4112551030L
L0L
(lp2436
(lp2437
tp2438
a(L617933722L
L0L
(lp2439
(lp2440
tp2441
a(L819370645L
L3785322319L
(lp2442
(lp2443
Vshould_load
p2444
atp2445
a(L3780737284L
L0L
(lp2446
(lp2447
tp2448
a(L3028481L
L0L
(lp2449
(lp2450
tp2451
a(L2136754140L
L3785322319L
(lp2452
(lp2453
Vbootloader_mmap_get_free_pages
p2454
atp2455
a(L3028481L
L0L
(lp2456
(lp2457
tp2458
a(L1228460392L
L0L
(lp2459
(lp2460
tp2461
atp2462
sI1074239908
(Vbootloader_sha256_start
p2463
(lp2464
(L3404866053L
L0L
(lp2465
(lp2466
tp2467
atp2468
sI1074246052
(Vrtc_clk_slow_freq_set
p2469
(lp2470
(L3163498036L
L0L
(lp2471
(lp2472
tp2473
atp2474
sI1074268076
(Vbootloader_init
p2475
(lp2476
(L3160208533L
L3785322319L
(lp2477
(lp2478
Vbootloader_init_mem
p2479
atp2480
a(L2496550927L
L0L
(lp2481
(lp2482
tp2483
a(L2027378118L
L3785322319L
(lp2484
(lp2485
V__assert_func
p2486
atp2487
a(L2845501776L
L0L
(lp2488
(lp2489
tp2490
a(L3771730749L
L0L
(lp2491
(lp2492
tp2493
a(L2926278337L
L0L
(lp2494
(lp2495
tp2496
a(L1676258174L
L0L
(lp2497
(lp2498
tp2499
a(L3027019L
L0L
(lp2500
(lp2501
tp2502
a(L2165555586L
L0L
(lp2503
(lp2504
tp2505
a(L318694882L
L1832448559L
(lp2506
(lp2507
Vbootloader_clear_bss_section
p2508
aVbootloader_common_vddsdio_configure
p2509
aVbootloader_clock_get_rated_freq_mhz
p2510
atp2511
a(L3987130017L
L1157885199L
(lp2512
(lp2513
Vbootloader_clock_configure
p2514
aVbootloader_console_init
p2515
aVbootloader_print_banner
p2516
aVbootloader_flash_update_id
p2517
aVbootloader_flash_xmc_startup
p2518
atp2519
a(L45609612L
L3785322319L
(lp2520
(lp2521
Vesp_log_early_timestamp
p2522
atp2523
a(L4002472296L
L3785322319L
(lp2524
(lp2525
Vesp_log_early_timestamp
p2526
atp2527
a(L3360570486L
L0L
(lp2528
(lp2529
tp2530
a(L2444883382L
L3785322319L
(lp2531
(lp2532
Vbootloader_read_bootloader_header
p2533
atp2534
a(L2444883382L
L3785322319L
(lp2535
(lp2536
Vbootloader_check_bootloader_validity
p2537
atp2538
a(L939260919L
L2485746240L
(lp2539
(lp2540
Vbootloader_flash_gpio_config
p2541
aVbootloader_flash_dummy_config
p2542
aVbootloader_flash_cs_timing_config
p2543
aVbootloader_flash_unlock
p2544
atp2545
a(L561173650L
L0L
(lp2546
(lp2547
tp2548
a(L1396936407L
L3785322319L
(lp2549
(lp2550
Vbootloader_enable_wp
p2551
atp2552
a(L4068889928L
L0L
(lp2553
(lp2554
tp2555
a(L2510701377L
L3785322319L
(lp2556
(lp2557
Vesp_log_early_timestamp
p2558
atp2559
a(L3433272205L
L0L
(lp2560
(lp2561
tp2562
a(L569753936L
L0L
(lp2563
(lp2564
tp2565
a(L2902417580L
L0L
(lp2566
(lp2567
tp2568
a(L1944713791L
L1880226080L
(lp2569
(lp2570
Vwdt_reset_info_dump
p2571
aVwdt_reset_info_dump
p2572
atp2573
a(L546999598L
L1880226080L
(lp2574
(lp2575
Vbootloader_config_wdt
p2576
aVbootloader_enable_random
p2577
atp2578
a(L1599835139L
L3785322319L
(lp2579
(lp2580
Vesp_log_early_timestamp
p2581
atp2582
atp2583
sI1074269612
(Vrtc_clk_xtal_freq_estimate
p2584
(lp2585
(L2516060585L
L1880226080L
(lp2586
(lp2587
Vrtc_clk_8m_enabled
p2588
aVrtc_clk_8md256_enabled
p2589
atp2590
a(L967485502L
L3785322319L
(lp2591
(lp2592
Vrtc_clk_8m_enable
p2593
atp2594
a(L4165968075L
L3785322319L
(lp2595
(lp2596
Vrtc_clk_cal_ratio
p2597
atp2598
a(L3216310415L
L0L
(lp2599
(lp2600
tp2601
a(L3360570486L
L0L
(lp2602
(lp2603
tp2604
a(L2238865930L
L3785322319L
(lp2605
(lp2606
Vesp_log_early_timestamp
p2607
atp2608
atp2609
sI1074245536
(Vrtc_clk_cpu_freq_to_pll_mhz
p2610
(lp2611
(L428013989L
L0L
(lp2612
(lp2613
tp2614
a(L106L
L0L
(lp2615
(lp2616
tp2617
a(L1541997046L
L0L
(lp2618
(lp2619
tp2620
a(L106L
L0L
(lp2621
(lp2622
tp2623
a(L1546614651L
L0L
(lp2624
(lp2625
tp2626
a(L2907368881L
L0L
(lp2627
(lp2628
tp2629
a(L2496987331L
L3785322319L
(lp2630
(lp2631
Vrtc_clk_wait_for_slow_cycle
p2632
atp2633
a(L3441808391L
L1880226080L
(lp2634
(lp2635
Vesp_log_early_timestamp
p2636
aVabort
p2637
atp2638
a(L1183020347L
L0L
(lp2639
(lp2640
tp2641
a(L1305407562L
L0L
(lp2642
(lp2643
tp2644
a(L1306330990L
L0L
(lp2645
(lp2646
tp2647
atp2648
sI1074235552
(Vbootloader_flash_read_sfdp
p2649
(lp2650
(L711701400L
L0L
(lp2651
(lp2652
tp2653
a(L1622122993L
L3785322319L
(lp2654
(lp2655
V__assert_func
p2656
atp2657
a(L3704332455L
L3785322319L
(lp2658
(lp2659
Vbootloader_flash_execute_command_common
p2660
atp2661
atp2662
sI1074247840
(Vrtc_clk_wait_for_slow_cycle
p2663
(lp2664
(L3463760706L
L0L
(lp2665
(lp2666
tp2667
a(L287687718L
L0L
(lp2668
(lp2669
tp2670
a(L3360570486L
L0L
(lp2671
(lp2672
tp2673
a(L2366481751L
L0L
(lp2674
(lp2675
tp2676
a(L2994547433L
L0L
(lp2677
(lp2678
tp2679
a(L3205433392L
L0L
(lp2680
(lp2681
tp2682
a(L2871733996L
L3785322319L
(lp2683
(lp2684
Vesp_log_early_timestamp
p2685
atp2686
atp2687
sI1074237868
(Vbootloader_flash_write
p2688
(lp2689
(L3119145091L
L0L
(lp2690
(lp2691
tp2692
a(L464075109L
L3785322319L
(lp2693
(lp2694
Vesp_log_early_timestamp
p2695
atp2696
a(L44113432L
L0L
(lp2697
(lp2698
tp2699
a(L1610445075L
L0L
(lp2700
(lp2701
tp2702
a(L735741265L
L0L
(lp2703
(lp2704
tp2705
a(L3291333414L
L0L
(lp2706
(lp2707
tp2708
a(L2835529112L
L3785322319L
(lp2709
(lp2710
Vesp_log_early_timestamp
p2711
atp2712
a(L3283691850L
L0L
(lp2713
(lp2714
tp2715
a(L3273878970L
L3785322319L
(lp2716
(lp2717
Vesp_log_early_timestamp
p2718
atp2719
a(L3212356251L
L3785322319L
(lp2720
(lp2721
Vbootloader_flash_unlock
p2722
atp2723
a(L4210907913L
L0L
(lp2724
(lp2725
tp2726
a(L94425498L
L3785322319L
(lp2727
(lp2728
Vesp_rom_spiflash_write_encrypted
p2729
atp2730
a(L93674324L
L0L
(lp2731
(lp2732
tp2733
a(L148823270L
L0L
(lp2734
(lp2735
tp2736
a(L2927190544L
L3785322319L
(lp2737
(lp2738
Vesp_rom_spiflash_write
p2739
atp2740
atp2741
sI1074247340
(Vrtc_clk_apb_freq_get
p2742
(lp2743
(L3491663928L
L0L
(lp2744
(lp2745
tp2746
atp2747
sI1074270392
(Vrtc_vddsdio_set_config
p2748
(lp2749
(L3192244175L
L0L
(lp2750
(lp2751
tp2752
atp2753
sI1074236852
(Vefuse_hal_get_minor_chip_version
p2754
(lp2755
(L484689204L
L0L
(lp2756
(lp2757
tp2758
atp2759
sI1074236596
(Vesp_rom_uart_tx_wait_idle
p2760
(lp2761
(L3332599130L
L0L
(lp2762
(lp2763
tp2764
a(L1301079727L
L0L
(lp2765
(lp2766
tp2767
a(L3597746521L
L0L
(lp2768
(lp2769
tp2770
a(L3694491048L
L0L
(lp2771
(lp2772
tp2773
a(L3055926844L
L0L
(lp2774
(lp2775
tp2776
a(L3360570486L
L0L
(lp2777
(lp2778
tp2779
atp2780
sI1074269372
(Vbootloader_check_bootloader_validity
p2781
(lp2782
(L3520014334L
L1880226080L
(lp2783
(lp2784
Vefuse_hal_chip_revision
p2785
aVbootloader_common_check_chip_validity
p2786
atp2787
atp2788
sI1074240944
(Vverify_load_addresses
p2789
(lp2790
(L2763563698L
L0L
(lp2791
(lp2792
tp2793
a(L106L
L0L
(lp2794
(lp2795
tp2796
a(L97642L
L0L
(lp2797
(lp2798
tp2799
a(L1958247400L
L3785322319L
(lp2800
(lp2801
V__assert_func
p2802
atp2803
a(L3967645215L
L0L
(lp2804
(lp2805
tp2806
a(L106L
L0L
(lp2807
(lp2808
tp2809
a(L912560917L
L0L
(lp2810
(lp2811
tp2812
a(L106L
L0L
(lp2813
(lp2814
tp2815
a(L2661046666L
L3785322319L
(lp2816
(lp2817
Vbootloader_util_regions_overlap
p2818
atp2819
a(L757891958L
L3785322319L
(lp2820
(lp2821
Vbootloader_util_regions_overlap
p2822
atp2823
a(L3028481L
L0L
(lp2824
(lp2825
tp2826
a(L1958468925L
L3785322319L
(lp2827
(lp2828
Vbootloader_util_regions_overlap
p2829
atp2830
a(L525211632L
L0L
(lp2831
(lp2832
tp2833
a(L4041405612L
L0L
(lp2834
(lp2835
tp2836
a(L705384505L
L0L
(lp2837
(lp2838
tp2839
a(L2694982884L
L0L
(lp2840
(lp2841
tp2842
a(L642339957L
L0L
(lp2843
(lp2844
tp2845
a(L677569396L
L3785322319L
(lp2846
(lp2847
Vverify_load_addresses
p2848
atp2849
a(L1351513776L
L0L
(lp2850
(lp2851
tp2852
a(L469186309L
L0L
(lp2853
(lp2854
tp2855
a(L1996036618L
L0L
(lp2856
(lp2857
tp2858
a(L3367388086L
L3785322319L
(lp2859
(lp2860
Vbootloader_util_regions_overlap
p2861
atp2862
a(L3028481L
L0L
(lp2863
(lp2864
tp2865
a(L2516997853L
L3785322319L
(lp2866
(lp2867
Vbootloader_util_regions_overlap
p2868
atp2869
a(L2544268287L
L0L
(lp2870
(lp2871
tp2872
a(L3142002109L
L0L
(lp2873
(lp2874
tp2875
a(L3952752822L
L0L
(lp2876
(lp2877
tp2878
a(L4058095541L
L0L
(lp2879
(lp2880
tp2881
a(L307916862L
L0L
(lp2882
(lp2883
tp2884
a(L697239146L
L0L
(lp2885
(lp2886
tp2887
a(L106L
L0L
(lp2888
(lp2889
tp2890
a(L955503116L
L0L
(lp2891
(lp2892
tp2893
a(L307917369L
L0L
(lp2894
(lp2895
tp2896
a(L490080443L
L0L
(lp2897
(lp2898
tp2899
a(L106L
L0L
(lp2900
(lp2901
tp2902
a(L663833829L
L3785322319L
(lp2903
(lp2904
Vesp_log_early_timestamp
p2905
atp2906
a(L955503240L
L0L
(lp2907
(lp2908
tp2909
a(L1303560427L
L0L
(lp2910
(lp2911
tp2912
atp2913
sI1074238140
(Vbootloader_random_disable
p2914
(lp2915
(L3975857911L
L0L
(lp2916
(lp2917
tp2918
atp2919
sI1074239928
(Vbootloader_sha256_data
p2920
(lp2921
(L4066096136L
L0L
(lp2922
(lp2923
tp2924
a(L1115987792L
L0L
(lp2925
(lp2926
tp2927
a(L2109085489L
L3785322319L
(lp2928
(lp2929
V__assert_func
p2930
atp2931
a(L498498478L
L0L
(lp2932
(lp2933
tp2934
a(L2339901533L
L0L
(lp2935
(lp2936
tp2937
a(L2910371777L
L0L
(lp2938
(lp2939
tp2940
a(L3360570486L
L0L
(lp2941
(lp2942
tp2943
a(L2882294142L
L0L
(lp2944
(lp2945
tp2946
a(L841847518L
L0L
(lp2947
(lp2948
tp2949
a(L240059480L
L0L
(lp2950
(lp2951
tp2952
a(L399483083L
L0L
(lp2953
(lp2954
tp2955
a(L919088098L
L0L
(lp2956
(lp2957
tp2958
a(L1390602840L
L0L
(lp2959
(lp2960
tp2961
a(L3028464L
L0L
(lp2962
(lp2963
tp2964
a(L1525524489L
L0L
(lp2965
(lp2966
tp2967
a(L75454439L
L0L
(lp2968
(lp2969
tp2970
atp2971
sI1074243512
(Vesp_rom_spiflash_write_encrypted
p2972
(lp2973
(L2107077087L
L0L
(lp2974
(lp2975
tp2976
a(L379624201L
L0L
(lp2977
(lp2978
tp2979
a(L97689L
L0L
(lp2980
(lp2981
tp2982
a(L3061232074L
L0L
(lp2983
(lp2984
tp2985
a(L1648358008L
L0L
(lp2986
(lp2987
tp2988
a(L2903314395L
L3785322319L
(lp2989
(lp2990
Vesp_rom_spiflash_write
p2991
atp2992
a(L2756634429L
L0L
(lp2993
(lp2994
tp2995
a(L735741265L
L0L
(lp2996
(lp2997
tp2998
atp2999
sI1074245816
(Vrtc_clk_32k_enable
p3000
(lp3001
(L753387299L
L0L
(lp3002
(lp3003
tp3004
a(L1067050752L
L3785322319L
(lp3005
(lp3006
Vrtc_clk_32k_enable_common
p3007
atp3008
a(L3360570486L
L0L
(lp3009
(lp3010
tp3011
a(L1635779135L
L0L
(lp3012
(lp3013
tp3014
atp3015
sI1074236868
(Vis_xmc_chip_strict
p3016
(lp3017
(L1286841609L
L0L
(lp3018
(lp3019
tp3020
a(L2234016759L
L0L
(lp3021
(lp3022
tp3023
a(L1069027148L
L0L
(lp3024
(lp3025
tp3026
a(L3021749L
L0L
(lp3027
(lp3028
tp3029
a(L1900148749L
L0L
(lp3030
(lp3031
tp3032
a(L1936875721L
L0L
(lp3033
(lp3034
tp3035
a(L3356166509L
L0L
(lp3036
(lp3037
tp3038
a(L1937769451L
L0L
(lp3039
(lp3040
tp3041
a(L2137658907L
L0L
(lp3042
(lp3043
tp3044
a(L4265949734L
L0L
(lp3045
(lp3046
tp3047
a(L3360570486L
L0L
(lp3048
(lp3049
tp3050
atp3051
sI1074267840
(Vbootloader_common_get_reset_reason
p3052
(lp3053
(L2221583904L
L0L
(lp3054
(lp3055
tp3056
atp3057
sI1074236364
(Vbootloader_flash_dummy_config
p3058
(lp3059
(L3703312895L
L0L
(lp3060
(lp3061
tp3062
a(L2761717557L
L0L
(lp3063
(lp3064
tp3065
a(L2747508079L
L0L
(lp3066
(lp3067
tp3068
a(L3713248905L
L0L
(lp3069
(lp3070
tp3071
a(L1491210540L
L0L
(lp3072
(lp3073
tp3074
a(L3081491917L
L0L
(lp3075
(lp3076
tp3077
a(L1610443405L
L0L
(lp3078
(lp3079
tp3080
a(L2108110621L
L0L
(lp3081
(lp3082
tp3083
a(L1449490182L
L0L
(lp3084
(lp3085
tp3086
a(L1298875775L
L0L
(lp3087
(lp3088
tp3089
a(L3880393601L
L0L
(lp3090
(lp3091
tp3092
a(L505576675L
L0L
(lp3093
(lp3094
tp3095
a(L1610443436L
L0L
(lp3096
(lp3097
tp3098
atp3099
sI1074243020
(Vesp_rom_spiflash_program_page_internal
p3100
(lp3101
(L2569069283L
L0L
(lp3102
(lp3103
tp3104
a(L2258688483L
L0L
(lp3105
(lp3106
tp3107
a(L3360570486L
L0L
(lp3108
(lp3109
tp3110
a(L2465476020L
L0L
(lp3111
(lp3112
tp3113
a(L4235661475L
L3785322319L
(lp3114
(lp3115
Vesp_rom_spiflash_wait_idle
p3116
atp3117
a(L1299866312L
L0L
(lp3118
(lp3119
tp3120
a(L3212356251L
L3785322319L
(lp3121
(lp3122
Vesp_rom_spiflash_enable_write
p3123
atp3124
a(L4063290141L
L0L
(lp3125
(lp3126
tp3127
a(L606786212L
L0L
(lp3128
(lp3129
tp3130
a(L2953702749L
L0L
(lp3131
(lp3132
tp3133
a(L2989032L
L0L
(lp3134
(lp3135
tp3136
a(L1965622133L
L0L
(lp3137
(lp3138
tp3139
a(L2669211306L
L0L
(lp3140
(lp3141
tp3142
a(L1958113242L
L0L
(lp3143
(lp3144
tp3145
a(L106L
L0L
(lp3146
(lp3147
tp3148
a(L4283177684L
L0L
(lp3149
(lp3150
tp3151
a(L1405253496L
L0L
(lp3152
(lp3153
tp3154
a(L1008982885L
L0L
(lp3155
(lp3156
tp3157
a(L1933954923L
L0L
(lp3158
(lp3159
tp3160
a(L3886319556L
L0L
(lp3161
(lp3162
tp3163
a(L2767679583L
L0L
(lp3164
(lp3165
tp3166
atp3167
sI1074238920
(Vset_actual_ota_seq
p3168
(lp3169
(L2939459053L
L3785322319L
(lp3170
(lp3171
Vbootloader_common_ota_select_crc
p3172
atp3173
a(L2910371777L
L0L
(lp3174
(lp3175
tp3176
a(L1458119244L
L3785322319L
(lp3177
(lp3178
Vbootloader_flash_erase_sector
p3179
atp3180
a(L651574995L
L3785322319L
(lp3181
(lp3182
Vbootloader_flash_write
p3183
atp3184
a(L3949244324L
L3785322319L
(lp3185
(lp3186
Vesp_log_early_timestamp
p3187
atp3188
a(L3496950L
L0L
(lp3189
(lp3190
tp3191
a(L3016870L
L0L
(lp3192
(lp3193
tp3194
a(L3971861743L
L0L
(lp3195
(lp3196
tp3197
a(L957607403L
L0L
(lp3198
(lp3199
tp3200
atp3201
sI1074268632
(Vbootloader_clock_configure
p3202
(lp3203
(L1154001737L
L1880226080L
(lp3204
(lp3205
Vesp_rom_uart_tx_wait_idle
p3206
aVefuse_hal_chip_revision
p3207
atp3208
a(L1398542019L
L0L
(lp3209
(lp3210
tp3211
a(L647712444L
L3785322319L
(lp3212
(lp3213
Vrtc_clk_apb_freq_get
p3214
atp3215
a(L651072158L
L1832448559L
(lp3216
(lp3217
Vrtc_clk_slow_freq_get
p3218
aVrtc_clk_fast_freq_get
p3219
aVrtc_clk_init
p3220
atp3221
a(L1704148914L
L0L
(lp3222
(lp3223
tp3224
a(L883406775L
L0L
(lp3225
(lp3226
tp3227
a(L106L
L0L
(lp3228
(lp3229
tp3230
atp3231
sI1074269400
(Vbootloader_config_wdt
p3232
(lp3233
(L2520980905L
L505859776L
(lp3234
(lp3235
Vwdt_hal_write_protect_disable
p3236
aVwdt_hal_set_flashboot_en
p3237
aVwdt_hal_write_protect_enable
p3238
aVwdt_hal_init
p3239
aVrtc_clk_slow_freq_get_hz
p3240
aVwdt_hal_write_protect_disable
p3241
aVwdt_hal_config_stage
p3242
aVwdt_hal_enable
p3243
aVwdt_hal_write_protect_enable
p3244
aVwdt_hal_write_protect_disable
p3245
aVwdt_hal_set_flashboot_en
p3246
aVwdt_hal_write_protect_enable
p3247
atp3248
atp3249
sI1074242516
(Vbootloader_load_image
p3250
(lp3251
(L1155870502L
L3785322319L
(lp3252
(lp3253
Vimage_load
p3254
atp3255
atp3256
sI1074235604
(Vbootloader_read_flash_id
p3257
(lp3258
(L3925322170L
L3785322319L
(lp3259
(lp3260
Vbootloader_execute_flash_command
p3261
atp3262
atp3263
sI1074267856
(Vwdt_reset_info_dump
p3264
(lp3265
(L4037466985L
L0L
(lp3266
(lp3267
tp3268
a(L826419141L
L0L
(lp3269
(lp3270
tp3271
a(L527117834L
L0L
(lp3272
(lp3273
tp3274
a(L1103285333L
L0L
(lp3275
(lp3276
tp3277
a(L897464656L
L3785322319L
(lp3278
(lp3279
Vesp_log_early_timestamp
p3280
atp3281
a(L1020249293L
L0L
(lp3282
(lp3283
tp3284
a(L4142801364L
L3785322319L
(lp3285
(lp3286
Vesp_log_early_timestamp
p3287
atp3288
a(L2899013701L
L0L
(lp3289
(lp3290
tp3291
atp3292
sI1074240476
(Vprocess_checksum
p3293
(lp3294
(L1985325516L
L0L
(lp3295
(lp3296
tp3297
a(L2910371777L
L0L
(lp3298
(lp3299
tp3300
a(L1649277394L
L0L
(lp3301
(lp3302
tp3303
a(L2910371777L
L0L
(lp3304
(lp3305
tp3306
a(L2902417580L
L0L
(lp3307
(lp3308
tp3309
a(L1644002876L
L3785322319L
(lp3310
(lp3311
Vbootloader_sha256_data
p3312
atp3313
a(L3612796056L
L0L
(lp3314
(lp3315
tp3316
a(L1811888222L
L3785322319L
(lp3317
(lp3318
Vbootloader_flash_read
p3319
atp3320
a(L3126521138L
L0L
(lp3321
(lp3322
tp3323
a(L2964832602L
L0L
(lp3324
(lp3325
tp3326
a(L3049269842L
L3785322319L
(lp3327
(lp3328
Vesp_log_early_timestamp
p3329
atp3330
atp3331
sI1074246616
(Vrtc_clk_xtal_freq_get
p3332
(lp3333
(L1921357377L
L0L
(lp3334
(lp3335
tp3336
a(L2847936993L
L0L
(lp3337
(lp3338
tp3339
a(L1288759739L
L0L
(lp3340
(lp3341
tp3342
a(L3360570486L
L0L
(lp3343
(lp3344
tp3345
atp3346
sI1074246872
(Vrtc_clk_xtal_freq_update
p3347
(lp3348
(L3793380022L
L0L
(lp3349
(lp3350
tp3351
a(L3509357017L
L0L
(lp3352
(lp3353
tp3354
a(L3020103887L
L0L
(lp3355
(lp3356
tp3357
atp3358
sI1074247384
(Vrtc_clk_cal_internal
p3359
(lp3360
(L2710241996L
L0L
(lp3361
(lp3362
tp3363
a(L3789102900L
L3785322319L
(lp3364
(lp3365
V__assert_func
p3366
atp3367
a(L3378477066L
L0L
(lp3368
(lp3369
tp3370
a(L3017366L
L0L
(lp3371
(lp3372
tp3373
a(L2781091364L
L0L
(lp3374
(lp3375
tp3376
a(L4169864463L
L1880226080L
(lp3377
(lp3378
Vrtc_clk_8m_enabled
p3379
aVrtc_clk_8md256_enabled
p3380
atp3381
a(L2357798062L
L3785322319L
(lp3382
(lp3383
Vrtc_clk_8m_enable
p3384
atp3385
a(L50722488L
L0L
(lp3386
(lp3387
tp3388
a(L3502850147L
L0L
(lp3389
(lp3390
tp3391
a(L97689L
L0L
(lp3392
(lp3393
tp3394
a(L2487924124L
L0L
(lp3395
(lp3396
tp3397
a(L3028464L
L0L
(lp3398
(lp3399
tp3400
a(L3028481L
L0L
(lp3401
(lp3402
tp3403
a(L3450259565L
L0L
(lp3404
(lp3405
tp3406
a(L3525430036L
L3785322319L
(lp3407
(lp3408
Vrtc_clk_xtal_freq_get
p3409
atp3410
a(L2780079961L
L0L
(lp3411
(lp3412
tp3413
a(L1628470560L
L0L
(lp3414
(lp3415
tp3416
a(L1568637783L
L3785322319L
(lp3417
(lp3418
Vesp_log_early_timestamp
p3419
atp3420
a(L3360570486L
L0L
(lp3421
(lp3422
tp3423
a(L369674658L
L0L
(lp3424
(lp3425
tp3426
a(L2312538724L
L0L
(lp3427
(lp3428
tp3429
a(L3028481L
L0L
(lp3430
(lp3431
tp3432
a(L3229642290L
L0L
(lp3433
(lp3434
tp3435
a(L755155573L
L3785322319L
(lp3436
(lp3437
Vrtc_clk_8m_enable
p3438
atp3439
a(L3631005548L
L0L
(lp3440
(lp3441
tp3442
a(L872423124L
L0L
(lp3443
(lp3444
tp3445
a(L3352263364L
L0L
(lp3446
(lp3447
tp3448
atp3449
sI1074242532
(Vesp_partition_table_verify
p3450
(lp3451
(L1518656766L
L0L
(lp3452
(lp3453
tp3454
a(L2488947642L
L0L
(lp3455
(lp3456
tp3457
a(L4287435191L
L0L
(lp3458
(lp3459
tp3460
a(L2910371777L
L0L
(lp3461
(lp3462
tp3463
a(L2810785767L
L0L
(lp3464
(lp3465
tp3466
a(L3360570486L
L0L
(lp3467
(lp3468
tp3469
a(L2334946637L
L0L
(lp3470
(lp3471
tp3472
a(L2478753082L
L0L
(lp3473
(lp3474
tp3475
a(L3020204L
L0L
(lp3476
(lp3477
tp3478
a(L1869930667L
L3785322319L
(lp3479
(lp3480
Vesp_log_early_timestamp
p3481
atp3482
a(L4272754590L
L3785322319L
(lp3483
(lp3484
Vesp_log_early_timestamp
p3485
atp3486
a(L879127810L
L0L
(lp3487
(lp3488
tp3489
a(L2902417580L
L0L
(lp3490
(lp3491
tp3492
a(L3020204L
L0L
(lp3493
(lp3494
tp3495
a(L2554171083L
L3785322319L
(lp3496
(lp3497
Vesp_log_early_timestamp
p3498
atp3499
a(L1367516498L
L0L
(lp3500
(lp3501
tp3502
a(L3698478409L
L0L
(lp3503
(lp3504
tp3505
a(L2902417580L
L0L
(lp3506
(lp3507
tp3508
a(L1869893684L
L3785322319L
(lp3509
(lp3510
Vesp_log_early_timestamp
p3511
atp3512
a(L1613213999L
L0L
(lp3513
(lp3514
tp3515
a(L1167861556L
L0L
(lp3516
(lp3517
tp3518
a(L3260980605L
L0L
(lp3519
(lp3520
tp3521
a(L2910371777L
L0L
(lp3522
(lp3523
tp3524
a(L1235012932L
L0L
(lp3525
(lp3526
tp3527
a(L167947058L
L3785322319L
(lp3528
(lp3529
Vesp_log_early_timestamp
p3530
atp3531
atp3532
sI1074245344
(Vwdt_hal_set_flashboot_en
p3533
(lp3534
(L2375320464L
L0L
(lp3535
(lp3536
tp3537
a(L2716561907L
L0L
(lp3538
(lp3539
tp3540
a(L3360570486L
L0L
(lp3541
(lp3542
tp3543
a(L1621634851L
L0L
(lp3544
(lp3545
tp3546
atp3547
sI1074246120
(Vrtc_clk_slow_freq_get
p3548
(lp3549
(L3509745537L
L0L
(lp3550
(lp3551
tp3552
atp3553
sI1074245876
(Vrtc_clk_8m_enable
p3554
(lp3555
(L1406434230L
L0L
(lp3556
(lp3557
tp3558
a(L2107858863L
L0L
(lp3559
(lp3560
tp3561
a(L2151320156L
L0L
(lp3562
(lp3563
tp3564
a(L2453986175L
L0L
(lp3565
(lp3566
tp3567
a(L3360570486L
L0L
(lp3568
(lp3569
tp3570
a(L1318267208L
L0L
(lp3571
(lp3572
tp3573
a(L4041564226L
L0L
(lp3574
(lp3575
tp3576
atp3577
sI1074236660
(Vesp_rom_uart_set_clock_baudrate
p3578
(lp3579
(L311247836L
L0L
(lp3580
(lp3581
tp3582
a(L3913645912L
L0L
(lp3583
(lp3584
tp3585
a(L1008980033L
L0L
(lp3586
(lp3587
tp3588
a(L908870448L
L0L
(lp3589
(lp3590
tp3591
a(L2805931415L
L0L
(lp3592
(lp3593
tp3594
a(L2539488080L
L0L
(lp3595
(lp3596
tp3597
atp3598
sI1074244336
(Vwdt_hal_init
p3599
(lp3600
(L2477783440L
L0L
(lp3601
(lp3602
tp3603
a(L204748914L
L0L
(lp3604
(lp3605
tp3606
a(L2805933698L
L0L
(lp3607
(lp3608
tp3609
a(L1646139103L
L0L
(lp3610
(lp3611
tp3612
a(L3081417021L
L0L
(lp3613
(lp3614
tp3615
a(L3360570486L
L0L
(lp3616
(lp3617
tp3618
a(L3547277206L
L0L
(lp3619
(lp3620
tp3621
atp3622
sI1074235896
(Vbootloader_flash_gpio_config
p3623
(lp3624
(L719792650L
L3785322319L
(lp3625
(lp3626
Vbootloader_common_get_chip_ver_pkg
p3627
atp3628
a(L106L
L0L
(lp3629
(lp3630
tp3631
a(L2886083034L
L0L
(lp3632
(lp3633
tp3634
a(L106L
L0L
(lp3635
(lp3636
tp3637
a(L3368466517L
L0L
(lp3638
(lp3639
tp3640
a(L3815118951L
L0L
(lp3641
(lp3642
tp3643
a(L106L
L0L
(lp3644
(lp3645
tp3646
a(L1554297586L
L0L
(lp3647
(lp3648
tp3649
a(L3448382643L
L0L
(lp3650
(lp3651
tp3652
a(L3360570486L
L0L
(lp3653
(lp3654
tp3655
atp3656
sI1074238456
(Vbootloader_clock_get_rated_freq_mhz
p3657
(lp3658
(L376617603L
L3785322319L
(lp3659
(lp3660
Vefuse_hal_get_rated_freq_mhz
p3661
atp3662
atp3663
sI1074246136
(Vrtc_clk_slow_freq_get_hz
p3664
(lp3665
(L4040483546L
L0L
(lp3666
(lp3667
tp3668
a(L345116826L
L0L
(lp3669
(lp3670
tp3671
a(L3360570486L
L0L
(lp3672
(lp3673
tp3674
atp3675
ssS'functionsdups'
p3676
g11
((lp3677
tp3678
Rp3679
sS'immediatedups'
p3680
g11
((lp3681
tp3682
Rp3683
sS'functiondups'
p3684
g11
((lp3685
tp3686
Rp3687
sS'fuzzy'
p3688
(dp3689
L1536L
I1074240304
sL430153639L
I1074235896
sL3121027072L
I1074270232
sL2082889262L
I1074240384
sL45806640L
I1074236560
sL570877324L
I1074268076
sL1340445289L
I1074235648
sL3879741902L
I1074240944
sL3538491111L
I1074246944
sL2919016435L
I1074235260
sL3889821517L
I1074239068
sL1540367692L
I1074269612
sL1600634745L
I1074237028
sL114144873L
I1074237840
sL2469233929L
I1074240092
sL1792232694L
I1074245536
sL1377559356L
I1074242052
sL3897252859L
I1074238836
sL541189360L
I1074240628
sL1065525808L
I1074236868
sL1766137975L
I1074239036
sL2183816734L
I1074267704
sL2327783177L
I1074240476
sL1035771659L
I1074237556
sL449860969L
I1074246656
sL1415908896L
I1074241432
sL518929064L
I1074238468
sL3210669721L
I1074245816
sL1332800441L
I1074237184
sL2884218272L
I1074267856
sL4160102055L
I1074239544
sL4202185385L
I1074242912
sL2966529024L
I1074246228
sL2453272040L
I1074247384
sL1768086576L
I1074236364
sL4171975289L
I1074243208
sL1565254297L
I1074243512
sL2191698036L
I1074269400
sL2474570535L
I1074238048
sL3428965560L
I1074247060
sL502463145L
I1074234728
sL519424169L
I1074247840
sL812946199L
I1074237332
sL737694352L
I1074243020
sL503029138L
I1074242960
sL277788135L
I1074243600
sL4253866342L
I1074239576
sL3991645697L
I1074268632
sL2262558768L
I1074242820
sL424867129L
I1074243340
sL1554975810L
I1074237868
sL3834155367L
I1074240888
sL3791345684L
I1074269532
sL1825726882L
I1074238920
sL3883282432L
I1074241312
sL4173399607L
I1074242532
sL2726385143L
I1074244924
sL4278077574L
I1074239276
sL1667054119L
I1074239928
sL4191211306L
I1074246744
sL2687107543L
I1074269776
ssb.