ccopy_reg
_reconstructor
p0
(crizzo
RizzoSignature
p1
c__builtin__
object
p2
Ntp3
Rp4
(dp5
S'formal'
p6
(dp7
L2223608971L
I1074270700
sL3519684809L
I1074246172
sL4149167435L
I1074235752
sL276461182L
I1074237964
sL2284044839L
I1074243432
sL1887266168L
I1074239920
sL808269608L
I1074246684
sL2597089482L
I1074236908
sL2911663236L
I1074237628
sL2890361161L
I1074239196
sL863322725L
I1074243812
sL772126741L
I1074268148
sL1254973916L
I1074242524
sL1935665484L
I1074267912
sL192953492L
I1074269640
sL2187074889L
I1074239616
sL2226187430L
I1074238264
sL1614503459L
I1074246008
sL4213015302L
I1074242988
sL343306603L
I1074237456
sL3211103558L
I1074236488
sL2028381634L
I1074245744
sL3513155648L
I1074241808
sL836519674L
I1074269012
sL3735572878L
I1074270084
sL765674116L
I1074269484
sL3830026594L
I1074247812
sL1010441494L
I1074247128
sL975534345L
I1074269792
sL3621260277L
I1074246592
sL3531248981L
I1074244072
sL421325868L
I1074239244
sL2896295319L
I1074236992
sL1657843434L
I1074238592
sL2590834774L
I1074270772
sL3203236307L
I1074245396
sL2360383375L
I1074237992
sL1200273099L
I1074239060
sL711588904L
I1074247532
sL1107838538L
I1074267860
sL2505869086L
I1074269920
sL4194771266L
I1074238172
sL3837264381L
I1074243680
sL3238403406L
I1074246524
sL3308004988L
I1074240304
sL908199027L
I1074247344
sL530188238L
I1074237680
sL1585823442L
I1074245884
sL744601145L
I1074235908
sL1725042831L
I1074240704
sL4155733485L
I1074240468
sL1271355812L
I1074235656
sL4166477364L
I1074241264
sL2500245347L
I1074247416
sL804327318L
I1074243292
sL4082028068L
I1074244808
sL3673616538L
I1074248312
sL1534552346L
I1074240680
sL2688421459L
I1074246608
sL1296682296L
I1074245948
sL2034515509L
I1074267928
sL2091577816L
I1074241320
sL2221717791L
I1074243984
sL256759610L
I1074236684
sL1977071264L
I1074246348
sL2057429215L
I1074246476
sL4167752981L
I1074268828
sL3307282855L
I1074238144
sL2039303434L
I1074237096
sL3499630867L
I1074236784
sL612086517L
I1074235364
sL3412901885L
I1074247388
sL1284626181L
I1074269568
sL4087607606L
I1074269840
sL2320225495L
I1074240284
sL703247988L
I1074237152
sL2846978095L
I1074243384
sL2941288911L
I1074239952
sL2662901275L
I1074240664
sL1156874576L
I1074236668
sL4243027010L
I1074269500
sL1652900655L
I1074238580
sL23021043L
I1074236020
sL3437515081L
I1074234832
sL2997001746L
I1074237308
sL1976922989L
I1074236720
sL2819127986L
I1074237116
sL1016152107L
I1074267776
sL2056504617L
I1074270540
sL4235827909L
I1074240852
sL2988619934L
I1074246700
sL1164083360L
I1074235708
sL1378821099L
I1074248280
sL1448845982L
I1074237064
sL4075620904L
I1074267139
sL2249539038L
I1074240212
sL2653730023L
I1074269524
sL3624870367L
I1074246640
sL1865528544L
I1074245912
sL4142749756L
I1074236636
sL3674356945L
I1074241688
sL3610701282L
I1074247216
sL2715371534L
I1074243004
sL734653982L
I1074246288
sL2263182908L
I1074238164
sL3953131333L
I1074240760
sL3113843266L
I1074247856
sL2302940057L
I1074246500
sL1142467576L
I1074245712
sL188664287L
I1074235332
sL2200618440L
I1074243492
sL2497478462L
I1074269764
sL2959238529L
I1074237376
sL692536993L
I1074237348
sL2319953056L
I1074238976
sL409201547L
I1074236976
sL3092573119L
I1074247088
sL2108247364L
I1074269872
sL3608561895L
I1074268996
sL243820144L
I1074241004
sL4267894680L
I1074236876
sL1616440742L
I1074245816
ssS'immediates'
p8
(dp9
sS'formaldups'
p10
c__builtin__
set
p11
((lp12
tp13
Rp14
sS'stringdups'
p15
g11
((lp16
tp17
Rp18
sS'fuzzydups'
p19
g11
((lp20
tp21
Rp22
sS'strings'
p23
(dp24
sS'functions'
p25
(dp26
I1074267912
(Vbootloader_common_get_reset_reason
p27
(lp28
(L2221583904L
L0L
(lp29
(lp30
tp31
atp32
sI1074235908
(Vbootloader_flash_cs_timing_config
p33
(lp34
(L3796536297L
L0L
(lp35
(lp36
tp37
atp38
sI1074238976
(Vlog_invalid_app_partition
p39
(lp40
(L4293078423L
L0L
(lp41
(lp42
tp43
a(L3028464L
L0L
(lp44
(lp45
tp46
a(L60127667L
L3785322319L
(lp47
(lp48
Vesp_log_early_timestamp
p49
atp50
a(L44113432L
L0L
(lp51
(lp52
tp53
a(L3360570486L
L0L
(lp54
(lp55
tp56
a(L1770519575L
L3785322319L
(lp57
(lp58
Vesp_log_early_timestamp
p59
atp60
a(L2524670070L
L3785322319L
(lp61
(lp62
Vesp_log_early_timestamp
p63
atp64
atp65
sI1074267136
(V_init
p66
(lp67
(L3493042598L
L0L
(lp68
(lp69
tp70
atp71
sI1074236684
(Vesp_rom_install_channel_putc
p72
(lp73
(L487865505L
L0L
(lp74
(lp75
tp76
a(L3020187L
L0L
(lp77
(lp78
tp79
a(L3360570486L
L0L
(lp80
(lp81
tp82
a(L4123957120L
L0L
(lp83
(lp84
tp85
a(L3627488788L
L0L
(lp86
(lp87
tp88
atp89
sI1074237964
(Vbootloader_flash_erase_sector
p90
(lp91
(L2049114289L
L3785322319L
(lp92
(lp93
Vesp_rom_spiflash_erase_sector
p94
atp95
a(L4127738745L
L0L
(lp96
(lp97
tp98
a(L3360570486L
L0L
(lp99
(lp100
tp101
atp102
sI1074239244
(Vbootloader_utility_load_partition_table
p103
(lp104
(L3347333331L
L3785322319L
(lp105
(lp106
Vbootloader_mmap
p107
atp108
a(L1428365196L
L3785322319L
(lp109
(lp110
Vesp_log_early_timestamp
p111
atp112
a(L2258688482L
L0L
(lp113
(lp114
tp115
a(L3360570486L
L0L
(lp116
(lp117
tp118
a(L2379286607L
L3785322319L
(lp119
(lp120
Vesp_partition_table_verify
p121
atp122
a(L2373960800L
L3785322319L
(lp123
(lp124
Vesp_log_early_timestamp
p125
atp126
a(L3501719726L
L1880226080L
(lp127
(lp128
Vesp_log_early_timestamp
p129
aVesp_log_early_timestamp
p130
atp131
a(L60599615L
L0L
(lp132
(lp133
tp134
a(L3214652505L
L1880226080L
(lp135
(lp136
Vbootloader_munmap
p137
aVesp_log_early_timestamp
p138
atp139
a(L4226553678L
L0L
(lp140
(lp141
tp142
a(L3028464L
L0L
(lp143
(lp144
tp145
a(L106L
L0L
(lp146
(lp147
tp148
a(L307915788L
L0L
(lp149
(lp150
tp151
a(L3616625116L
L3785322319L
(lp152
(lp153
Vesp_log_early_timestamp
p154
atp155
a(L3990577774L
L0L
(lp156
(lp157
tp158
a(L3020187L
L0L
(lp159
(lp160
tp161
a(L2563447427L
L0L
(lp162
(lp163
tp164
a(L1154512123L
L0L
(lp165
(lp166
tp167
a(L1112551755L
L0L
(lp168
(lp169
tp170
a(L1308290928L
L0L
(lp171
(lp172
tp173
a(L2202822289L
L0L
(lp174
(lp175
tp176
a(L1504681085L
L0L
(lp177
(lp178
tp179
a(L955456027L
L0L
(lp180
(lp181
tp182
atp183
sI1074267139
(V_text_start
p184
(lp185
(L2957395042L
L0L
(lp186
(lp187
tp188
atp189
sI1074235656
(Vbootloader_flash_read_sfdp
p190
(lp191
(L711701400L
L0L
(lp192
(lp193
tp194
a(L1622122993L
L3785322319L
(lp195
(lp196
V__assert_func
p197
atp198
a(L3704332455L
L3785322319L
(lp199
(lp200
Vbootloader_flash_execute_command_common
p201
atp202
atp203
sI1074267928
(Vwdt_reset_info_dump
p204
(lp205
(L4037466985L
L0L
(lp206
(lp207
tp208
a(L826419141L
L0L
(lp209
(lp210
tp211
a(L527117834L
L0L
(lp212
(lp213
tp214
a(L1103285333L
L0L
(lp215
(lp216
tp217
a(L897464656L
L3785322319L
(lp218
(lp219
Vesp_log_early_timestamp
p220
atp221
a(L1020249293L
L0L
(lp222
(lp223
tp224
a(L4142801364L
L3785322319L
(lp225
(lp226
Vesp_log_early_timestamp
p227
atp228
a(L2899013701L
L0L
(lp229
(lp230
tp231
atp232
sI1074240276
(Vbootloader_debug_buffer
p233
(lp234
(L2100504542L
L0L
(lp235
(lp236
tp237
atp238
sI1074245396
(Vwdt_hal_config_stage
p239
(lp240
(L331558507L
L0L
(lp241
(lp242
tp243
a(L4279082939L
L0L
(lp244
(lp245
tp246
a(L3020204L
L0L
(lp247
(lp248
tp249
a(L3020187L
L0L
(lp250
(lp251
tp252
a(L3020187L
L0L
(lp253
(lp254
tp255
a(L94425498L
L3785322319L
(lp256
(lp257
Vabort
p258
atp259
a(L3169146260L
L0L
(lp260
(lp261
tp262
a(L3360570486L
L0L
(lp263
(lp264
tp265
a(L2570095916L
L0L
(lp266
(lp267
tp268
a(L2630698345L
L0L
(lp269
(lp270
tp271
a(L3142002758L
L0L
(lp272
(lp273
tp274
a(L3020187L
L0L
(lp275
(lp276
tp277
a(L2902417580L
L0L
(lp278
(lp279
tp280
a(L3020187L
L0L
(lp281
(lp282
tp283
a(L3028464L
L0L
(lp284
(lp285
tp286
a(L2720957315L
L0L
(lp287
(lp288
tp289
a(L2254402966L
L0L
(lp290
(lp291
tp292
a(L1666089228L
L0L
(lp293
(lp294
tp295
a(L4127982619L
L0L
(lp296
(lp297
tp298
atp299
sI1074241808
(Vprocess_segments
p300
(lp301
(L3883698409L
L0L
(lp302
(lp303
tp304
a(L2495454333L
L0L
(lp305
(lp306
tp307
a(L4578542L
L0L
(lp308
(lp309
tp310
a(L106L
L0L
(lp311
(lp312
tp313
a(L1315312493L
L0L
(lp314
(lp315
tp316
a(L2336176508L
L3785322319L
(lp317
(lp318
Vesp_log_early_timestamp
p319
atp320
a(L1440180646L
L3785322319L
(lp321
(lp322
Vbootloader_flash_read
p323
atp324
a(L1611320705L
L3785322319L
(lp325
(lp326
Vesp_log_early_timestamp
p327
atp328
a(L3360570486L
L0L
(lp329
(lp330
tp331
a(L234193771L
L0L
(lp332
(lp333
tp334
a(L1635713494L
L3785322319L
(lp335
(lp336
Vbootloader_sha256_data
p337
atp338
a(L926711887L
L0L
(lp339
(lp340
tp341
a(L790360741L
L0L
(lp342
(lp343
tp344
a(L3997307212L
L0L
(lp345
(lp346
tp347
a(L3802068284L
L0L
(lp348
(lp349
tp350
a(L2942462881L
L0L
(lp351
(lp352
tp353
a(L2258867228L
L0L
(lp354
(lp355
tp356
a(L1355332303L
L0L
(lp357
(lp358
tp359
a(L2965680995L
L0L
(lp360
(lp361
tp362
a(L1849436849L
L0L
(lp363
(lp364
tp365
a(L3435020321L
L3785322319L
(lp366
(lp367
Vesp_log_early_timestamp
p368
atp369
a(L3895303701L
L0L
(lp370
(lp371
tp372
a(L310091443L
L0L
(lp373
(lp374
tp375
a(L149120208L
L3785322319L
(lp376
(lp377
Vesp_log_early_timestamp
p378
atp379
a(L3982404358L
L3785322319L
(lp380
(lp381
Vverify_load_addresses
p382
atp383
a(L106L
L0L
(lp384
(lp385
tp386
a(L2300166925L
L0L
(lp387
(lp388
tp389
a(L2684012095L
L0L
(lp390
(lp391
tp392
a(L1905937838L
L3785322319L
(lp393
(lp394
Vbootloader_mmap
p395
atp396
a(L2674550455L
L3785322319L
(lp397
(lp398
Vesp_log_early_timestamp
p399
atp400
a(L3858925252L
L0L
(lp401
(lp402
tp403
a(L1982086160L
L0L
(lp404
(lp405
tp406
a(L1534276982L
L3785322319L
(lp407
(lp408
Vbootloader_munmap
p409
atp410
a(L3105361649L
L0L
(lp411
(lp412
tp413
a(L1216016797L
L3785322319L
(lp414
(lp415
Vbootloader_fill_random
p416
atp417
a(L3570641403L
L0L
(lp418
(lp419
tp420
a(L3574335487L
L0L
(lp421
(lp422
tp423
a(L3450268858L
L0L
(lp424
(lp425
tp426
a(L3021749L
L0L
(lp427
(lp428
tp429
a(L1609678444L
L0L
(lp430
(lp431
tp432
a(L1777728568L
L0L
(lp433
(lp434
tp435
a(L3020204L
L0L
(lp436
(lp437
tp438
a(L1478777665L
L0L
(lp439
(lp440
tp441
a(L2076461546L
L0L
(lp442
(lp443
tp444
a(L3832868376L
L0L
(lp445
(lp446
tp447
a(L1749969336L
L0L
(lp448
(lp449
tp450
a(L670934548L
L0L
(lp451
(lp452
tp453
a(L1903785265L
L3785322319L
(lp454
(lp455
Vbootloader_sha256_data
p456
atp457
a(L90548756L
L0L
(lp458
(lp459
tp460
a(L4195963580L
L0L
(lp461
(lp462
tp463
a(L2572638616L
L0L
(lp464
(lp465
tp466
a(L3740179196L
L0L
(lp467
(lp468
tp469
a(L233873941L
L3785322319L
(lp470
(lp471
Vshould_load
p472
atp473
a(L3070788781L
L0L
(lp474
(lp475
tp476
a(L1864178875L
L3785322319L
(lp477
(lp478
Vesp_log_early_timestamp
p479
atp480
a(L1836486280L
L0L
(lp481
(lp482
tp483
a(L2104869604L
L0L
(lp484
(lp485
tp486
a(L1178869281L
L0L
(lp487
(lp488
tp489
a(L2902417580L
L0L
(lp490
(lp491
tp492
a(L2636912524L
L0L
(lp493
(lp494
tp495
a(L4195318902L
L3785322319L
(lp496
(lp497
Vbootloader_mmap_get_free_pages
p498
atp499
a(L3028481L
L0L
(lp500
(lp501
tp502
a(L124545238L
L0L
(lp503
(lp504
tp505
atp506
sI1074237456
(Vbootloader_mmap
p507
(lp508
(L4101837270L
L0L
(lp509
(lp510
tp511
a(L1032666940L
L3785322319L
(lp512
(lp513
Vesp_log_early_timestamp
p514
atp515
a(L1182811810L
L0L
(lp516
(lp517
tp518
a(L3496950L
L0L
(lp519
(lp520
tp521
a(L1649230001L
L0L
(lp522
(lp523
tp524
a(L3729021430L
L3785322319L
(lp525
(lp526
Vesp_log_early_timestamp
p527
atp528
a(L264945332L
L0L
(lp529
(lp530
tp531
a(L3772406441L
L3785322319L
(lp532
(lp533
Vesp_log_early_timestamp
p534
atp535
a(L2067699594L
L0L
(lp536
(lp537
tp538
atp539
sI1074240284
(Vbootloader_sha256_start
p540
(lp541
(L2006965050L
L0L
(lp542
(lp543
tp544
atp545
sI1074246172
(Vrtc_clk_32k_enable_common
p546
(lp547
(L3359003459L
L0L
(lp548
(lp549
tp550
atp551
sI1074246684
(Vrtc_clk_fast_freq_get
p552
(lp553
(L81196607L
L0L
(lp554
(lp555
tp556
atp557
sI1074245912
(Vefuse_hal_get_rated_freq_mhz
p558
(lp559
(L1680594370L
L0L
(lp560
(lp561
tp562
a(L2965302338L
L0L
(lp563
(lp564
tp565
a(L3360570486L
L0L
(lp566
(lp567
tp568
atp569
sI1074248472
(V_fini
p570
(lp571
(L3493042598L
L0L
(lp572
(lp573
tp574
atp575
sI1074269484
(Vbootloader_flash_update_id
p576
(lp577
(L1806317231L
L3785322319L
(lp578
(lp579
Vbootloader_read_flash_id
p580
atp581
atp582
sI1074246700
(Vrtc_clk_bbpll_configure
p583
(lp584
(L3293712850L
L0L
(lp585
(lp586
tp587
a(L106L
L0L
(lp588
(lp589
tp590
a(L3525721823L
L0L
(lp591
(lp592
tp593
a(L106L
L0L
(lp594
(lp595
tp596
a(L3240445808L
L0L
(lp597
(lp598
tp599
a(L2443776942L
L0L
(lp600
(lp601
tp602
a(L744221574L
L0L
(lp603
(lp604
tp605
a(L160100376L
L0L
(lp606
(lp607
tp608
a(L3654431361L
L0L
(lp609
(lp610
tp611
a(L2163771962L
L0L
(lp612
(lp613
tp614
a(L759119596L
L0L
(lp615
(lp616
tp617
a(L160100376L
L0L
(lp618
(lp619
tp620
atp621
sI1074237992
(Vbootloader_flash_write
p622
(lp623
(L3119145091L
L0L
(lp624
(lp625
tp626
a(L962229776L
L3785322319L
(lp627
(lp628
Vesp_log_early_timestamp
p629
atp630
a(L44113432L
L0L
(lp631
(lp632
tp633
a(L1610445075L
L0L
(lp634
(lp635
tp636
a(L735741265L
L0L
(lp637
(lp638
tp639
a(L3291333414L
L0L
(lp640
(lp641
tp642
a(L2835528492L
L3785322319L
(lp643
(lp644
Vesp_log_early_timestamp
p645
atp646
a(L3283691850L
L0L
(lp647
(lp648
tp649
a(L3823398198L
L3785322319L
(lp650
(lp651
Vesp_log_early_timestamp
p652
atp653
a(L3212356251L
L3785322319L
(lp654
(lp655
Vbootloader_flash_unlock
p656
atp657
a(L4210907913L
L0L
(lp658
(lp659
tp660
a(L94425498L
L3785322319L
(lp661
(lp662
Vesp_rom_spiflash_write_encrypted
p663
atp664
a(L93674324L
L0L
(lp665
(lp666
tp667
a(L645116258L
L0L
(lp668
(lp669
tp670
a(L2927190544L
L3785322319L
(lp671
(lp672
Vesp_rom_spiflash_write
p673
atp674
atp675
sI1074241320
(Vverify_load_addresses
p676
(lp677
(L2763563698L
L0L
(lp678
(lp679
tp680
a(L106L
L0L
(lp681
(lp682
tp683
a(L97642L
L0L
(lp684
(lp685
tp686
a(L1948667597L
L3785322319L
(lp687
(lp688
V__assert_func
p689
atp690
a(L1143522018L
L0L
(lp691
(lp692
tp693
a(L106L
L0L
(lp694
(lp695
tp696
a(L2112096267L
L0L
(lp697
(lp698
tp699
a(L106L
L0L
(lp700
(lp701
tp702
a(L3523782570L
L3785322319L
(lp703
(lp704
Vbootloader_util_regions_overlap
p705
atp706
a(L2605817551L
L3785322319L
(lp707
(lp708
Vbootloader_util_regions_overlap
p709
atp710
a(L3028481L
L0L
(lp711
(lp712
tp713
a(L2946329814L
L3785322319L
(lp714
(lp715
Vbootloader_util_regions_overlap
p716
atp717
a(L1502100891L
L0L
(lp718
(lp719
tp720
a(L2387747879L
L0L
(lp721
(lp722
tp723
a(L3812607188L
L0L
(lp724
(lp725
tp726
a(L1378784754L
L0L
(lp727
(lp728
tp729
a(L642339957L
L0L
(lp730
(lp731
tp732
a(L677569396L
L3785322319L
(lp733
(lp734
Vverify_load_addresses
p735
atp736
a(L1351513776L
L0L
(lp737
(lp738
tp739
a(L1681779664L
L0L
(lp740
(lp741
tp742
a(L442864479L
L0L
(lp743
(lp744
tp745
a(L498862735L
L3785322319L
(lp746
(lp747
Vbootloader_util_regions_overlap
p748
atp749
a(L3028481L
L0L
(lp750
(lp751
tp752
a(L3990340598L
L3785322319L
(lp753
(lp754
Vbootloader_util_regions_overlap
p755
atp756
a(L2334313048L
L0L
(lp757
(lp758
tp759
a(L1728651739L
L0L
(lp760
(lp761
tp762
a(L938770818L
L0L
(lp763
(lp764
tp765
a(L1654457071L
L0L
(lp766
(lp767
tp768
a(L307918210L
L0L
(lp769
(lp770
tp771
a(L697239146L
L0L
(lp772
(lp773
tp774
a(L106L
L0L
(lp775
(lp776
tp777
a(L955486314L
L0L
(lp778
(lp779
tp780
a(L307916788L
L0L
(lp781
(lp782
tp783
a(L490080443L
L0L
(lp784
(lp785
tp786
a(L106L
L0L
(lp787
(lp788
tp789
a(L2427388926L
L3785322319L
(lp790
(lp791
Vesp_log_early_timestamp
p792
atp793
a(L955485694L
L0L
(lp794
(lp795
tp796
a(L1303560427L
L0L
(lp797
(lp798
tp799
atp800
sI1074269500
(Vbootloader_clear_bss_section
p801
(lp802
(L2606532370L
L0L
(lp803
(lp804
tp805
atp806
sI1074247216
(Vrtc_clk_cpu_freq_get_config
p807
(lp808
(L1912227103L
L0L
(lp809
(lp810
tp811
a(L2902417580L
L0L
(lp812
(lp813
tp814
a(L1777368540L
L0L
(lp815
(lp816
tp817
a(L4191209166L
L1880226080L
(lp818
(lp819
Vesp_log_early_timestamp
p820
aVabort
p821
atp822
a(L1906684621L
L3785322319L
(lp823
(lp824
Vrtc_clk_xtal_freq_get
p825
atp826
a(L584032699L
L0L
(lp827
(lp828
tp829
a(L1267412765L
L0L
(lp830
(lp831
tp832
a(L3020187L
L0L
(lp833
(lp834
tp835
a(L713819170L
L0L
(lp836
(lp837
tp838
a(L106L
L0L
(lp839
(lp840
tp841
a(L549042870L
L0L
(lp842
(lp843
tp844
a(L187152368L
L0L
(lp845
(lp846
tp847
a(L4149732163L
L0L
(lp848
(lp849
tp850
atp851
sI1074240304
(Vbootloader_sha256_data
p852
(lp853
(L4066096136L
L0L
(lp854
(lp855
tp856
a(L3706168760L
L0L
(lp857
(lp858
tp859
a(L3850111886L
L3785322319L
(lp860
(lp861
V__assert_func
p862
atp863
a(L498498478L
L0L
(lp864
(lp865
tp866
a(L2969391571L
L0L
(lp867
(lp868
tp869
a(L2910371777L
L0L
(lp870
(lp871
tp872
a(L3360570486L
L0L
(lp873
(lp874
tp875
a(L488887055L
L0L
(lp876
(lp877
tp878
a(L841847518L
L0L
(lp879
(lp880
tp881
a(L3145334428L
L0L
(lp882
(lp883
tp884
a(L2638544423L
L0L
(lp885
(lp886
tp887
a(L3339320094L
L0L
(lp888
(lp889
tp890
a(L1390602840L
L0L
(lp891
(lp892
tp893
a(L3028464L
L0L
(lp894
(lp895
tp896
a(L3976622796L
L0L
(lp897
(lp898
tp899
a(L4266904732L
L0L
(lp900
(lp901
tp902
atp903
sI1074236720
(Vesp_rom_uart_tx_wait_idle
p904
(lp905
(L1747532367L
L0L
(lp906
(lp907
tp908
a(L1301079727L
L0L
(lp909
(lp910
tp911
a(L3597746521L
L0L
(lp912
(lp913
tp914
a(L3694491048L
L0L
(lp915
(lp916
tp917
a(L3055926844L
L0L
(lp918
(lp919
tp920
a(L3360570486L
L0L
(lp921
(lp922
tp923
atp924
sI1074236976
(Vefuse_hal_get_minor_chip_version
p925
(lp926
(L529066928L
L0L
(lp927
(lp928
tp929
atp930
sI1074235708
(Vbootloader_read_flash_id
p931
(lp932
(L3925322170L
L3785322319L
(lp933
(lp934
Vbootloader_execute_flash_command
p935
atp936
atp937
sI1074245948
(Vrtc_clk_bbpll_disable
p938
(lp939
(L3581627368L
L0L
(lp940
(lp941
tp942
a(L391691750L
L0L
(lp943
(lp944
tp945
a(L3360570486L
L0L
(lp946
(lp947
tp948
atp949
sI1074270772
(Vmpu_hal_set_region_access
p950
(lp951
(L3538356822L
L0L
(lp952
(lp953
tp954
a(L2902417580L
L0L
(lp955
(lp956
tp957
a(L3020187L
L0L
(lp958
(lp959
tp960
a(L3020187L
L0L
(lp961
(lp962
tp963
a(L3360570486L
L0L
(lp964
(lp965
tp966
a(L2258718273L
L0L
(lp967
(lp968
tp969
a(L3446648619L
L0L
(lp970
(lp971
tp972
a(L3739532189L
L0L
(lp973
(lp974
tp975
a(L1300789895L
L0L
(lp976
(lp977
tp978
a(L3472092938L
L0L
(lp979
(lp980
tp981
atp982
sI1074243384
(Vesp_rom_spiflash_wait_idle
p983
(lp984
(L3233075721L
L0L
(lp985
(lp986
tp987
a(L2023766174L
L0L
(lp988
(lp989
tp990
a(L2805933678L
L0L
(lp991
(lp992
tp993
a(L3086959262L
L0L
(lp994
(lp995
tp996
a(L4161019926L
L3785322319L
(lp997
(lp998
Vesp_rom_spiflash_read_status
p999
atp1000
atp1001
sI1074238264
(Vbootloader_random_disable
p1002
(lp1003
(L2124996308L
L0L
(lp1004
(lp1005
tp1006
atp1007
sI1074270540
(Vrtc_vddsdio_get_config
p1008
(lp1009
(L12311480L
L0L
(lp1010
(lp1011
tp1012
a(L147025923L
L0L
(lp1013
(lp1014
tp1015
a(L318395269L
L0L
(lp1016
(lp1017
tp1018
a(L1399971818L
L0L
(lp1019
(lp1020
tp1021
a(L1911319052L
L0L
(lp1022
(lp1023
tp1024
a(L1116012092L
L0L
(lp1025
(lp1026
tp1027
a(L1719615367L
L0L
(lp1028
(lp1029
tp1030
a(L1276420571L
L0L
(lp1031
(lp1032
tp1033
atp1034
sI1074236992
(Vis_xmc_chip_strict
p1035
(lp1036
(L1286841609L
L0L
(lp1037
(lp1038
tp1039
a(L2234016759L
L0L
(lp1040
(lp1041
tp1042
a(L1069027148L
L0L
(lp1043
(lp1044
tp1045
a(L3021749L
L0L
(lp1046
(lp1047
tp1048
a(L1900148749L
L0L
(lp1049
(lp1050
tp1051
a(L1936875721L
L0L
(lp1052
(lp1053
tp1054
a(L3356166509L
L0L
(lp1055
(lp1056
tp1057
a(L1937769451L
L0L
(lp1058
(lp1059
tp1060
a(L2137658907L
L0L
(lp1061
(lp1062
tp1063
a(L4265949734L
L0L
(lp1064
(lp1065
tp1066
a(L3360570486L
L0L
(lp1067
(lp1068
tp1069
atp1070
sI1074246476
(Vrtc_clk_8m_enabled
p1071
(lp1072
(L1433619747L
L0L
(lp1073
(lp1074
tp1075
atp1076
sI1074268996
(Vbootloader_init_mem
p1077
(lp1078
(L1511720305L
L3785322319L
(lp1079
(lp1080
Vesp_cpu_configure_region_protection
p1081
atp1082
atp1083
sI1074269764
(Vbootloader_enable_random
p1084
(lp1085
(L3696363284L
L1880226080L
(lp1086
(lp1087
Vesp_log_early_timestamp
p1088
aVbootloader_random_enable
p1089
atp1090
atp1091
sI1074236488
(Vbootloader_flash_dummy_config
p1092
(lp1093
(L132211179L
L0L
(lp1094
(lp1095
tp1096
a(L2761717557L
L0L
(lp1097
(lp1098
tp1099
a(L705371371L
L0L
(lp1100
(lp1101
tp1102
a(L2971458626L
L0L
(lp1103
(lp1104
tp1105
a(L1491210540L
L0L
(lp1106
(lp1107
tp1108
a(L3081491917L
L0L
(lp1109
(lp1110
tp1111
a(L1610443405L
L0L
(lp1112
(lp1113
tp1114
a(L4102729993L
L0L
(lp1115
(lp1116
tp1117
a(L1449490182L
L0L
(lp1118
(lp1119
tp1120
a(L1298875775L
L0L
(lp1121
(lp1122
tp1123
a(L3880393601L
L0L
(lp1124
(lp1125
tp1126
a(L1505818087L
L0L
(lp1127
(lp1128
tp1129
a(L1610443436L
L0L
(lp1130
(lp1131
tp1132
atp1133
sI1074239060
(Vset_actual_ota_seq
p1134
(lp1135
(L368664720L
L3785322319L
(lp1136
(lp1137
Vbootloader_common_ota_select_crc
p1138
atp1139
a(L3028481L
L0L
(lp1140
(lp1141
tp1142
a(L3329366564L
L3785322319L
(lp1143
(lp1144
Vbootloader_flash_erase_sector
p1145
atp1146
a(L2908486002L
L3785322319L
(lp1147
(lp1148
Vbootloader_flash_write
p1149
atp1150
a(L1059000425L
L3785322319L
(lp1151
(lp1152
Vesp_log_early_timestamp
p1153
atp1154
a(L878941328L
L3785322319L
(lp1155
(lp1156
Vesp_log_early_timestamp
p1157
atp1158
a(L3016870L
L0L
(lp1159
(lp1160
tp1161
a(L3971861743L
L0L
(lp1162
(lp1163
tp1164
a(L957607403L
L0L
(lp1165
(lp1166
tp1167
atp1168
sI1074240852
(Vprocess_checksum
p1169
(lp1170
(L1985325516L
L0L
(lp1171
(lp1172
tp1173
a(L2910371777L
L0L
(lp1174
(lp1175
tp1176
a(L1649277394L
L0L
(lp1177
(lp1178
tp1179
a(L2910371777L
L0L
(lp1180
(lp1181
tp1182
a(L2902417580L
L0L
(lp1183
(lp1184
tp1185
a(L1644002876L
L3785322319L
(lp1186
(lp1187
Vbootloader_sha256_data
p1188
atp1189
a(L3612796056L
L0L
(lp1190
(lp1191
tp1192
a(L1811888222L
L3785322319L
(lp1193
(lp1194
Vbootloader_flash_read
p1195
atp1196
a(L3126521138L
L0L
(lp1197
(lp1198
tp1199
a(L4209738910L
L0L
(lp1200
(lp1201
tp1202
a(L1890037739L
L3785322319L
(lp1203
(lp1204
Vesp_log_early_timestamp
p1205
atp1206
atp1207
sI1074245712
(Vwdt_hal_write_protect_disable
p1208
(lp1209
(L103224028L
L0L
(lp1210
(lp1211
tp1212
a(L4195472003L
L0L
(lp1213
(lp1214
tp1215
a(L3360570486L
L0L
(lp1216
(lp1217
tp1218
a(L1210571996L
L0L
(lp1219
(lp1220
tp1221
atp1222
sI1074269012
(Vbootloader_random_enable
p1223
(lp1224
(L2681459775L
L0L
(lp1225
(lp1226
tp1227
atp1228
sI1074269524
(Vbootloader_read_bootloader_header
p1229
(lp1230
(L1965707317L
L3785322319L
(lp1231
(lp1232
Vbootloader_flash_read
p1233
atp1234
a(L4102083713L
L3785322319L
(lp1235
(lp1236
Vesp_log_early_timestamp
p1237
atp1238
a(L735741265L
L0L
(lp1239
(lp1240
tp1241
atp1242
sI1074248280
(Vrtc_clk_cal_ratio
p1243
(lp1244
(L2802599415L
L3785322319L
(lp1245
(lp1246
Vrtc_clk_cal_internal
p1247
atp1248
atp1249
sI1074246500
(Vrtc_clk_8md256_enabled
p1250
(lp1251
(L589147876L
L0L
(lp1252
(lp1253
tp1254
atp1255
sI1074243680
(Vesp_rom_spiflash_erase_sector
p1256
(lp1257
(L2459429170L
L0L
(lp1258
(lp1259
tp1260
a(L2258688483L
L0L
(lp1261
(lp1262
tp1263
a(L3360570486L
L0L
(lp1264
(lp1265
tp1266
a(L3212356251L
L3785322319L
(lp1267
(lp1268
Vesp_rom_spiflash_enable_write
p1269
atp1270
a(L184152988L
L0L
(lp1271
(lp1272
tp1273
a(L628195371L
L3785322319L
(lp1274
(lp1275
Vesp_rom_spiflash_wait_idle
p1276
atp1277
a(L3333707777L
L0L
(lp1278
(lp1279
tp1280
a(L3582858798L
L3785322319L
(lp1281
(lp1282
Vesp_rom_spiflash_wait_idle
p1283
atp1284
atp1285
sI1074269792
(Vbootloader_print_banner
p1286
(lp1287
(L2518500345L
L1880226080L
(lp1288
(lp1289
Vesp_log_early_timestamp
p1290
aVesp_log_early_timestamp
p1291
atp1292
atp1293
sI1074247532
(Vrtc_clk_cpu_freq_set_config
p1294
(lp1295
(L2597303049L
L3785322319L
(lp1296
(lp1297
Vrtc_clk_xtal_freq_get
p1298
atp1299
a(L1828795533L
L1880226080L
(lp1300
(lp1301
Vrtc_clk_cpu_freq_to_xtal
p1302
aVrtc_clk_wait_for_slow_cycle
p1303
atp1304
a(L94425498L
L3785322319L
(lp1305
(lp1306
Vrtc_clk_bbpll_disable
p1307
atp1308
a(L3978916712L
L0L
(lp1309
(lp1310
tp1311
a(L2977209154L
L0L
(lp1312
(lp1313
tp1314
a(L2736411858L
L3785322319L
(lp1315
(lp1316
Vrtc_clk_cpu_freq_to_xtal
p1317
atp1318
a(L3360570486L
L0L
(lp1319
(lp1320
tp1321
a(L3020187L
L0L
(lp1322
(lp1323
tp1324
a(L106L
L0L
(lp1325
(lp1326
tp1327
a(L728330897L
L2485746240L
(lp1328
(lp1329
Vrtc_clk_wait_for_slow_cycle
p1330
aVrtc_clk_xtal_freq_get
p1331
aVrtc_clk_bbpll_configure
p1332
aVrtc_clk_cpu_freq_to_pll_mhz
p1333
atp1334
a(L3020187L
L0L
(lp1335
(lp1336
tp1337
a(L106L
L0L
(lp1338
(lp1339
tp1340
a(L971591335L
L0L
(lp1341
(lp1342
tp1343
atp1344
sI1074243432
(Vesp_rom_spiflash_enable_write
p1345
(lp1346
(L1680383254L
L3785322319L
(lp1347
(lp1348
Vesp_rom_spiflash_wait_idle
p1349
atp1350
a(L3137194272L
L0L
(lp1351
(lp1352
tp1353
a(L2258718275L
L0L
(lp1354
(lp1355
tp1356
a(L99543895L
L0L
(lp1357
(lp1358
tp1359
a(L2993202392L
L0L
(lp1360
(lp1361
tp1362
a(L1804543818L
L3785322319L
(lp1363
(lp1364
Vesp_rom_spiflash_read_status
p1365
atp1366
atp1367
sI1074235752
(Vbootloader_flash_xmc_startup
p1368
(lp1369
(L4031258446L
L3785322319L
(lp1370
(lp1371
Vis_xmc_chip_strict
p1372
atp1373
a(L2258688482L
L0L
(lp1374
(lp1375
tp1376
a(L3360570486L
L0L
(lp1377
(lp1378
tp1379
a(L2860324232L
L3785322319L
(lp1380
(lp1381
Vbootloader_flash_read_sfdp
p1382
atp1383
a(L3354428414L
L2567856111L
(lp1384
(lp1385
Vesp_log_early_timestamp
p1386
aVbootloader_execute_flash_command
p1387
aVbootloader_execute_flash_command
p1388
aVbootloader_execute_flash_command
p1389
aVbootloader_execute_flash_command
p1390
aVbootloader_read_flash_id
p1391
aVis_xmc_chip_strict
p1392
atp1393
a(L3332645139L
L3785322319L
(lp1394
(lp1395
Vesp_log_early_timestamp
p1396
atp1397
atp1398
sI1074236020
(Vbootloader_flash_gpio_config
p1399
(lp1400
(L719792650L
L3785322319L
(lp1401
(lp1402
Vbootloader_common_get_chip_ver_pkg
p1403
atp1404
a(L106L
L0L
(lp1405
(lp1406
tp1407
a(L2886083034L
L0L
(lp1408
(lp1409
tp1410
a(L106L
L0L
(lp1411
(lp1412
tp1413
a(L4213870169L
L0L
(lp1414
(lp1415
tp1416
a(L3890032189L
L0L
(lp1417
(lp1418
tp1419
a(L106L
L0L
(lp1420
(lp1421
tp1422
a(L676119430L
L0L
(lp1423
(lp1424
tp1425
a(L4272081986L
L0L
(lp1426
(lp1427
tp1428
a(L3360570486L
L0L
(lp1429
(lp1430
tp1431
atp1432
sI1074238580
(Vbootloader_clock_get_rated_freq_mhz
p1433
(lp1434
(L376617603L
L3785322319L
(lp1435
(lp1436
Vefuse_hal_get_rated_freq_mhz
p1437
atp1438
atp1439
sI1074245744
(Vwdt_hal_enable
p1440
(lp1441
(L4029830118L
L0L
(lp1442
(lp1443
tp1444
a(L3634439744L
L0L
(lp1445
(lp1446
tp1447
a(L3360570486L
L0L
(lp1448
(lp1449
tp1450
a(L2011576586L
L0L
(lp1451
(lp1452
tp1453
atp1454
sI1074236784
(Vesp_rom_uart_set_clock_baudrate
p1455
(lp1456
(L3861262560L
L0L
(lp1457
(lp1458
tp1459
a(L3917339996L
L0L
(lp1460
(lp1461
tp1462
a(L1008980076L
L0L
(lp1463
(lp1464
tp1465
a(L890400028L
L0L
(lp1466
(lp1467
tp1468
a(L2805931419L
L0L
(lp1469
(lp1470
tp1471
a(L2136660087L
L0L
(lp1472
(lp1473
tp1474
atp1475
sI1074237308
(Vbootloader_common_get_active_otadata
p1476
(lp1477
(L3317503532L
L0L
(lp1478
(lp1479
tp1480
a(L2503049265L
L1832448559L
(lp1481
(lp1482
Vbootloader_common_ota_select_valid
p1483
aVbootloader_common_ota_select_valid
p1484
aVbootloader_common_select_otadata
p1485
atp1486
a(L735741265L
L0L
(lp1487
(lp1488
tp1489
atp1490
sI1074246524
(Vrtc_clk_slow_freq_set
p1491
(lp1492
(L446749037L
L0L
(lp1493
(lp1494
tp1495
atp1496
sI1074246008
(Vrtc_clk_cpu_freq_to_pll_mhz
p1497
(lp1498
(L428013989L
L0L
(lp1499
(lp1500
tp1501
a(L106L
L0L
(lp1502
(lp1503
tp1504
a(L1541997046L
L0L
(lp1505
(lp1506
tp1507
a(L106L
L0L
(lp1508
(lp1509
tp1510
a(L1546614651L
L0L
(lp1511
(lp1512
tp1513
a(L3439082421L
L0L
(lp1514
(lp1515
tp1516
a(L635222928L
L3785322319L
(lp1517
(lp1518
Vrtc_clk_wait_for_slow_cycle
p1519
atp1520
a(L2961195743L
L1880226080L
(lp1521
(lp1522
Vesp_log_early_timestamp
p1523
aVabort
p1524
atp1525
a(L1183020347L
L0L
(lp1526
(lp1527
tp1528
a(L1305407562L
L0L
(lp1529
(lp1530
tp1531
a(L1306330990L
L0L
(lp1532
(lp1533
tp1534
atp1535
sI1074248312
(Vrtc_clk_wait_for_slow_cycle
p1536
(lp1537
(L2816332389L
L0L
(lp1538
(lp1539
tp1540
a(L287687718L
L0L
(lp1541
(lp1542
tp1543
a(L3360570486L
L0L
(lp1544
(lp1545
tp1546
a(L3986273454L
L0L
(lp1547
(lp1548
tp1549
a(L2994547433L
L0L
(lp1550
(lp1551
tp1552
a(L3945029326L
L0L
(lp1553
(lp1554
tp1555
a(L2931399021L
L3785322319L
(lp1556
(lp1557
Vesp_log_early_timestamp
p1558
atp1559
atp1560
sI1074247812
(Vrtc_clk_apb_freq_get
p1561
(lp1562
(L3294973915L
L0L
(lp1563
(lp1564
tp1565
atp1566
sI1074238592
(Vload_image
p1567
(lp1568
(L3679617832L
L1832448559L
(lp1569
(lp1570
Vesp_log_early_timestamp
p1571
aVbootloader_random_disable
p1572
aVbootloader_ana_clock_glitch_reset_config
p1573
atp1574
a(L2118498116L
L0L
(lp1575
(lp1576
tp1577
a(L106L
L0L
(lp1578
(lp1579
tp1580
a(L646834872L
L0L
(lp1581
(lp1582
tp1583
a(L751966648L
L0L
(lp1584
(lp1585
tp1586
a(L3268103L
L0L
(lp1587
(lp1588
tp1589
a(L4243721858L
L3785322319L
(lp1590
(lp1591
Vbootloader_console_deinit
p1592
atp1593
a(L2307067884L
L0L
(lp1594
(lp1595
tp1596
a(L3020204L
L0L
(lp1597
(lp1598
tp1599
a(L2722520990L
L3785322319L
(lp1600
(lp1601
Vesp_log_early_timestamp
p1602
atp1603
a(L117980938L
L0L
(lp1604
(lp1605
tp1606
a(L1341709798L
L0L
(lp1607
(lp1608
tp1609
a(L3020204L
L0L
(lp1610
(lp1611
tp1612
a(L1017231636L
L3785322319L
(lp1613
(lp1614
Vesp_log_early_timestamp
p1615
atp1616
a(L233635238L
L0L
(lp1617
(lp1618
tp1619
a(L2488949783L
L0L
(lp1620
(lp1621
tp1622
atp1623
sI1074239616
(Vbootloader_utility_get_selected_boot_partition
p1624
(lp1625
(L2184143128L
L0L
(lp1626
(lp1627
tp1628
a(L3692243288L
L0L
(lp1629
(lp1630
tp1631
a(L2680964923L
L3785322319L
(lp1632
(lp1633
Vesp_log_early_timestamp
p1634
atp1635
a(L4026981588L
L0L
(lp1636
(lp1637
tp1638
a(L3360570486L
L0L
(lp1639
(lp1640
tp1641
a(L1375577398L
L3785322319L
(lp1642
(lp1643
Vbootloader_mmap
p1644
atp1645
a(L3668557470L
L3785322319L
(lp1646
(lp1647
Vesp_log_early_timestamp
p1648
atp1649
a(L2805858128L
L1880226080L
(lp1650
(lp1651
Vbootloader_munmap
p1652
aVbootloader_common_ota_select_invalid
p1653
atp1654
a(L1103573946L
L0L
(lp1655
(lp1656
tp1657
a(L1876835593L
L3785322319L
(lp1658
(lp1659
Vbootloader_common_get_active_otadata
p1660
atp1661
a(L106L
L0L
(lp1662
(lp1663
tp1664
a(L569346373L
L0L
(lp1665
(lp1666
tp1667
a(L788494392L
L3785322319L
(lp1668
(lp1669
Vbootloader_common_ota_select_invalid
p1670
atp1671
a(L2675958250L
L0L
(lp1672
(lp1673
tp1674
a(L3279694738L
L3785322319L
(lp1675
(lp1676
Vesp_log_early_timestamp
p1677
atp1678
a(L1231248995L
L3785322319L
(lp1679
(lp1680
Vesp_log_early_timestamp
p1681
atp1682
a(L505081345L
L0L
(lp1683
(lp1684
tp1685
a(L919052234L
L3785322319L
(lp1686
(lp1687
Vbootloader_common_ota_select_crc
p1688
atp1689
a(L2287680455L
L0L
(lp1690
(lp1691
tp1692
a(L3542558037L
L3785322319L
(lp1693
(lp1694
Vbootloader_common_ota_select_crc
p1695
atp1696
a(L1299866312L
L0L
(lp1697
(lp1698
tp1699
a(L3205436778L
L0L
(lp1700
(lp1701
tp1702
a(L520767689L
L3785322319L
(lp1703
(lp1704
Vesp_log_early_timestamp
p1705
atp1706
a(L1367516498L
L0L
(lp1707
(lp1708
tp1709
a(L4142618365L
L3785322319L
(lp1710
(lp1711
Vesp_log_early_timestamp
p1712
atp1713
atp1714
sI1074267776
(Vcall_start_cpu0
p1715
(lp1716
(L1974457732L
L3785322319L
(lp1717
(lp1718
Vbootloader_init
p1719
atp1720
a(L94425498L
L3785322319L
(lp1721
(lp1722
Vbootloader_reset
p1723
atp1724
a(L2802776775L
L3785322319L
(lp1725
(lp1726
Vbootloader_utility_load_partition_table
p1727
atp1728
a(L4026389016L
L3785322319L
(lp1729
(lp1730
Vesp_log_early_timestamp
p1731
atp1732
a(L2395089516L
L3785322319L
(lp1733
(lp1734
Vbootloader_utility_get_selected_boot_partition
p1735
atp1736
a(L2086982338L
L1880226080L
(lp1737
(lp1738
Vbootloader_common_get_reset_reason
p1739
aVbootloader_utility_load_boot_image
p1740
atp1741
atp1742
sI1074269568
(Vbootloader_check_bootloader_validity
p1743
(lp1744
(L1445660430L
L1832448559L
(lp1745
(lp1746
Vefuse_hal_chip_revision
p1747
aVesp_log_early_timestamp
p1748
aVbootloader_common_check_chip_validity
p1749
atp1750
atp1751
sI1074270084
(Vrtc_clk_init
p1752
(lp1753
(L3487097464L
L0L
(lp1754
(lp1755
tp1756
a(L42671777L
L3785322319L
(lp1757
(lp1758
Vrtc_clk_cpu_freq_to_xtal
p1759
atp1760
a(L1935871317L
L0L
(lp1761
(lp1762
tp1763
a(L4184912069L
L0L
(lp1764
(lp1765
tp1766
a(L2873281153L
L0L
(lp1767
(lp1768
tp1769
a(L912414356L
L3785322319L
(lp1770
(lp1771
Vrtc_clk_xtal_freq_get
p1772
atp1773
a(L1244428170L
L1157885199L
(lp1774
(lp1775
Vesp_rom_uart_tx_wait_idle
p1776
aVrtc_clk_xtal_freq_update
p1777
aVrtc_clk_apb_freq_update
p1778
aVrtc_clk_cpu_freq_get_config
p1779
aVrtc_clk_cpu_freq_mhz_to_config
p1780
atp1781
a(L3941770928L
L1880226080L
(lp1782
(lp1783
Vesp_log_early_timestamp
p1784
aVabort
p1785
atp1786
a(L4187693717L
L3785322319L
(lp1787
(lp1788
Vrtc_clk_xtal_freq_estimate
p1789
atp1790
a(L38559164L
L3785322319L
(lp1791
(lp1792
Vesp_log_early_timestamp
p1793
atp1794
a(L4188325301L
L0L
(lp1795
(lp1796
tp1797
a(L1563923531L
L0L
(lp1798
(lp1799
tp1800
a(L106L
L0L
(lp1801
(lp1802
tp1803
a(L4070631878L
L3785322319L
(lp1804
(lp1805
Vrtc_clk_xtal_freq_estimate
p1806
atp1807
a(L106L
L0L
(lp1808
(lp1809
tp1810
a(L3554578860L
L3785322319L
(lp1811
(lp1812
Vesp_log_early_timestamp
p1813
atp1814
a(L1435542129L
L3785322319L
(lp1815
(lp1816
Vrtc_clk_cpu_freq_set_config
p1817
atp1818
a(L4168829660L
L3785322319L
(lp1819
(lp1820
Vrtc_clk_32k_enable
p1821
atp1822
a(L3016870L
L0L
(lp1823
(lp1824
tp1825
a(L452760767L
L3785322319L
(lp1826
(lp1827
Vrtc_clk_8m_enable
p1828
atp1829
a(L530469956L
L1880226080L
(lp1830
(lp1831
Vrtc_clk_fast_freq_set
p1832
aVrtc_clk_slow_freq_set
p1833
atp1834
atp1835
sI1074237064
(Vesp_log_early_timestamp
p1836
(lp1837
(L677791546L
L0L
(lp1838
(lp1839
tp1840
atp1841
sI1074268828
(Vbootloader_clock_configure
p1842
(lp1843
(L1154001737L
L1880226080L
(lp1844
(lp1845
Vesp_rom_uart_tx_wait_idle
p1846
aVefuse_hal_chip_revision
p1847
atp1848
a(L2119588600L
L0L
(lp1849
(lp1850
tp1851
a(L46500273L
L3785322319L
(lp1852
(lp1853
Vrtc_clk_apb_freq_get
p1854
atp1855
a(L2503001246L
L1832448559L
(lp1856
(lp1857
Vrtc_clk_slow_freq_get
p1858
aVrtc_clk_fast_freq_get
p1859
aVrtc_clk_init
p1860
atp1861
a(L1106689080L
L0L
(lp1862
(lp1863
tp1864
a(L883406775L
L0L
(lp1865
(lp1866
tp1867
a(L106L
L0L
(lp1868
(lp1869
tp1870
atp1871
sI1074243984
(Vesp_rom_spiflash_write_encrypted
p1872
(lp1873
(L2107077087L
L0L
(lp1874
(lp1875
tp1876
a(L48601202L
L0L
(lp1877
(lp1878
tp1879
a(L97689L
L0L
(lp1880
(lp1881
tp1882
a(L3061232074L
L0L
(lp1883
(lp1884
tp1885
a(L1022857974L
L0L
(lp1886
(lp1887
tp1888
a(L2903314395L
L3785322319L
(lp1889
(lp1890
Vesp_rom_spiflash_write
p1891
atp1892
a(L2477749271L
L0L
(lp1893
(lp1894
tp1895
a(L735741265L
L0L
(lp1896
(lp1897
tp1898
atp1899
sI1074246288
(Vrtc_clk_32k_enable
p1900
(lp1901
(L753387299L
L0L
(lp1902
(lp1903
tp1904
a(L1067050752L
L3785322319L
(lp1905
(lp1906
Vrtc_clk_32k_enable_common
p1907
atp1908
a(L3360570486L
L0L
(lp1909
(lp1910
tp1911
a(L2867343393L
L0L
(lp1912
(lp1913
tp1914
atp1915
sI1074269840
(Vbootloader_console_init
p1916
(lp1917
(L2184937789L
L2485746240L
(lp1918
(lp1919
Vesp_rom_install_channel_putc
p1920
aVesp_rom_uart_tx_wait_idle
p1921
aVrtc_clk_apb_freq_get
p1922
aVesp_rom_uart_set_clock_baudrate
p1923
atp1924
atp1925
sI1074241688
(Vshould_load
p1926
(lp1927
(L3456036353L
L0L
(lp1928
(lp1929
tp1930
a(L1182990556L
L0L
(lp1931
(lp1932
tp1933
a(L1780902349L
L0L
(lp1934
(lp1935
tp1936
a(L1298905564L
L0L
(lp1937
(lp1938
tp1939
a(L524505062L
L0L
(lp1940
(lp1941
tp1942
a(L2258897019L
L0L
(lp1943
(lp1944
tp1945
a(L3781799363L
L0L
(lp1946
(lp1947
tp1948
a(L3028464L
L0L
(lp1949
(lp1950
tp1951
a(L3549473510L
L0L
(lp1952
(lp1953
tp1954
a(L467019899L
L0L
(lp1955
(lp1956
tp1957
a(L307469760L
L0L
(lp1958
(lp1959
tp1960
a(L4185756579L
L0L
(lp1961
(lp1962
tp1963
a(L3458855836L
L0L
(lp1964
(lp1965
tp1966
a(L3126521138L
L0L
(lp1967
(lp1968
tp1969
a(L1305407438L
L0L
(lp1970
(lp1971
tp1972
a(L1305407469L
L0L
(lp1973
(lp1974
tp1975
atp1976
sI1074240664
(Vbootloader_console_deinit
p1977
(lp1978
(L2887876151L
L0L
(lp1979
(lp1980
tp1981
atp1982
sI1074237348
(Vbootloader_common_ota_select_invalid
p1983
(lp1984
(L4027567199L
L0L
(lp1985
(lp1986
tp1987
a(L3397985842L
L0L
(lp1988
(lp1989
tp1990
a(L2258867228L
L0L
(lp1991
(lp1992
tp1993
a(L3785235668L
L0L
(lp1994
(lp1995
tp1996
atp1997
sI1074243492
(Vesp_rom_spiflash_program_page_internal
p1998
(lp1999
(L2569069283L
L0L
(lp2000
(lp2001
tp2002
a(L2258688483L
L0L
(lp2003
(lp2004
tp2005
a(L3360570486L
L0L
(lp2006
(lp2007
tp2008
a(L3979593906L
L0L
(lp2009
(lp2010
tp2011
a(L4235661475L
L3785322319L
(lp2012
(lp2013
Vesp_rom_spiflash_wait_idle
p2014
atp2015
a(L1299866312L
L0L
(lp2016
(lp2017
tp2018
a(L3212356251L
L3785322319L
(lp2019
(lp2020
Vesp_rom_spiflash_enable_write
p2021
atp2022
a(L365375006L
L0L
(lp2023
(lp2024
tp2025
a(L3373459509L
L0L
(lp2026
(lp2027
tp2028
a(L2953702749L
L0L
(lp2029
(lp2030
tp2031
a(L2989032L
L0L
(lp2032
(lp2033
tp2034
a(L1965622133L
L0L
(lp2035
(lp2036
tp2037
a(L580718687L
L0L
(lp2038
(lp2039
tp2040
a(L1958113242L
L0L
(lp2041
(lp2042
tp2043
a(L106L
L0L
(lp2044
(lp2045
tp2046
a(L4283177684L
L0L
(lp2047
(lp2048
tp2049
a(L1405253496L
L0L
(lp2050
(lp2051
tp2052
a(L1008982350L
L0L
(lp2053
(lp2054
tp2055
a(L1933954923L
L0L
(lp2056
(lp2057
tp2058
a(L3886319556L
L0L
(lp2059
(lp2060
tp2061
a(L2767679583L
L0L
(lp2062
(lp2063
tp2064
atp2065
sI1074242988
(Vbootloader_load_image
p2066
(lp2067
(L1155870502L
L3785322319L
(lp2068
(lp2069
Vimage_load
p2070
atp2071
atp2072
sI1074240680
(V__assert_func
p2073
(lp2074
(L2599700881L
L0L
(lp2075
(lp2076
tp2077
a(L106L
L0L
(lp2078
(lp2079
tp2080
atp2081
sI1074237096
(Vbootloader_common_ota_select_crc
p2082
(lp2083
(L3803478238L
L0L
(lp2084
(lp2085
tp2086
atp2087
sI1074247088
(Vrtc_clk_xtal_freq_get
p2088
(lp2089
(L1542611135L
L0L
(lp2090
(lp2091
tp2092
a(L2847936993L
L0L
(lp2093
(lp2094
tp2095
a(L1997005089L
L0L
(lp2096
(lp2097
tp2098
a(L3360570486L
L0L
(lp2099
(lp2100
tp2101
atp2102
sI1074239920
(Vbootloader_reset
p2103
(lp2104
(L2775844488L
L3785322319L
(lp2105
(lp2106
Vbootloader_console_deinit
p2107
atp2108
a(L106L
L0L
(lp2109
(lp2110
tp2111
atp2112
sI1074247344
(Vrtc_clk_xtal_freq_update
p2113
(lp2114
(L1808953078L
L0L
(lp2115
(lp2116
tp2117
a(L3509357017L
L0L
(lp2118
(lp2119
tp2120
a(L3020103887L
L0L
(lp2121
(lp2122
tp2123
atp2124
sI1074247856
(Vrtc_clk_cal_internal
p2125
(lp2126
(L2925422389L
L0L
(lp2127
(lp2128
tp2129
a(L1004375261L
L3785322319L
(lp2130
(lp2131
V__assert_func
p2132
atp2133
a(L459043500L
L0L
(lp2134
(lp2135
tp2136
a(L3017366L
L0L
(lp2137
(lp2138
tp2139
a(L2781091364L
L0L
(lp2140
(lp2141
tp2142
a(L4169864463L
L1880226080L
(lp2143
(lp2144
Vrtc_clk_8m_enabled
p2145
aVrtc_clk_8md256_enabled
p2146
atp2147
a(L1223459660L
L3785322319L
(lp2148
(lp2149
Vrtc_clk_8m_enable
p2150
atp2151
a(L3834474685L
L0L
(lp2152
(lp2153
tp2154
a(L3502850147L
L0L
(lp2155
(lp2156
tp2157
a(L97689L
L0L
(lp2158
(lp2159
tp2160
a(L2644922694L
L0L
(lp2161
(lp2162
tp2163
a(L3028464L
L0L
(lp2164
(lp2165
tp2166
a(L3028481L
L0L
(lp2167
(lp2168
tp2169
a(L3450259759L
L0L
(lp2170
(lp2171
tp2172
a(L2555542938L
L3785322319L
(lp2173
(lp2174
Vrtc_clk_xtal_freq_get
p2175
atp2176
a(L2780079961L
L0L
(lp2177
(lp2178
tp2179
a(L3540480598L
L0L
(lp2180
(lp2181
tp2182
a(L821600223L
L3785322319L
(lp2183
(lp2184
Vesp_log_early_timestamp
p2185
atp2186
a(L3360570486L
L0L
(lp2187
(lp2188
tp2189
a(L512349968L
L0L
(lp2190
(lp2191
tp2192
a(L748565485L
L0L
(lp2193
(lp2194
tp2195
a(L3028481L
L0L
(lp2196
(lp2197
tp2198
a(L3379927380L
L0L
(lp2199
(lp2200
tp2201
a(L755155573L
L3785322319L
(lp2202
(lp2203
Vrtc_clk_8m_enable
p2204
atp2205
a(L3631005548L
L0L
(lp2206
(lp2207
tp2208
a(L10409074L
L0L
(lp2209
(lp2210
tp2211
a(L3352263364L
L0L
(lp2212
(lp2213
tp2214
atp2215
sI1074269872
(Vesp_cpu_configure_region_protection
p2216
(lp2217
(L2937137248L
L0L
(lp2218
(lp2219
tp2220
a(L180431425L
L3785322319L
(lp2221
(lp2222
Vmpu_hal_set_region_access
p2223
atp2224
a(L2537388152L
L3785322319L
(lp2225
(lp2226
Vmpu_hal_set_region_access
p2227
atp2228
atp2229
sI1074243004
(Vesp_partition_table_verify
p2230
(lp2231
(L1518656766L
L0L
(lp2232
(lp2233
tp2234
a(L1171913712L
L0L
(lp2235
(lp2236
tp2237
a(L4287435191L
L0L
(lp2238
(lp2239
tp2240
a(L2910371777L
L0L
(lp2241
(lp2242
tp2243
a(L2810785767L
L0L
(lp2244
(lp2245
tp2246
a(L3360570486L
L0L
(lp2247
(lp2248
tp2249
a(L2334946637L
L0L
(lp2250
(lp2251
tp2252
a(L2478753082L
L0L
(lp2253
(lp2254
tp2255
a(L3020204L
L0L
(lp2256
(lp2257
tp2258
a(L1279341933L
L3785322319L
(lp2259
(lp2260
Vesp_log_early_timestamp
p2261
atp2262
a(L3525717030L
L3785322319L
(lp2263
(lp2264
Vesp_log_early_timestamp
p2265
atp2266
a(L4060082208L
L0L
(lp2267
(lp2268
tp2269
a(L2902417580L
L0L
(lp2270
(lp2271
tp2272
a(L3020204L
L0L
(lp2273
(lp2274
tp2275
a(L1980931690L
L3785322319L
(lp2276
(lp2277
Vesp_log_early_timestamp
p2278
atp2279
a(L1367516498L
L0L
(lp2280
(lp2281
tp2282
a(L3814391302L
L0L
(lp2283
(lp2284
tp2285
a(L2902417580L
L0L
(lp2286
(lp2287
tp2288
a(L1279340476L
L3785322319L
(lp2289
(lp2290
Vesp_log_early_timestamp
p2291
atp2292
a(L1613213999L
L0L
(lp2293
(lp2294
tp2295
a(L1167861556L
L0L
(lp2296
(lp2297
tp2298
a(L3260980605L
L0L
(lp2299
(lp2300
tp2301
a(L2910371777L
L0L
(lp2302
(lp2303
tp2304
a(L1235012932L
L0L
(lp2305
(lp2306
tp2307
a(L2384762683L
L3785322319L
(lp2308
(lp2309
Vesp_log_early_timestamp
p2310
atp2311
atp2312
sI1074237628
(Vbootloader_munmap
p2313
(lp2314
(L1406971354L
L0L
(lp2315
(lp2316
tp2317
a(L1341401488L
L0L
(lp2318
(lp2319
tp2320
a(L3360570486L
L0L
(lp2321
(lp2322
tp2323
atp2324
sI1074237116
(Vbootloader_common_ota_select_valid
p2325
(lp2326
(L1563399710L
L3785322319L
(lp2327
(lp2328
Vbootloader_common_ota_select_invalid
p2329
atp2330
a(L3814720849L
L3785322319L
(lp2331
(lp2332
Vbootloader_common_ota_select_crc
p2333
atp2334
a(L3360570486L
L0L
(lp2335
(lp2336
tp2337
atp2338
sI1074245816
(Vwdt_hal_set_flashboot_en
p2339
(lp2340
(L2375320464L
L0L
(lp2341
(lp2342
tp2343
a(L2716561907L
L0L
(lp2344
(lp2345
tp2346
a(L3360570486L
L0L
(lp2347
(lp2348
tp2349
a(L2967380441L
L0L
(lp2350
(lp2351
tp2352
atp2353
sI1074269640
(Vbootloader_config_wdt
p2354
(lp2355
(L1795339050L
L505859776L
(lp2356
(lp2357
Vwdt_hal_write_protect_disable
p2358
aVwdt_hal_set_flashboot_en
p2359
aVwdt_hal_write_protect_enable
p2360
aVwdt_hal_init
p2361
aVrtc_clk_slow_freq_get_hz
p2362
aVwdt_hal_write_protect_disable
p2363
aVwdt_hal_config_stage
p2364
aVwdt_hal_enable
p2365
aVwdt_hal_write_protect_enable
p2366
aVwdt_hal_write_protect_disable
p2367
aVwdt_hal_set_flashboot_en
p2368
aVwdt_hal_write_protect_enable
p2369
atp2370
atp2371
sI1074235332
(Vbootloader_execute_flash_command
p2372
(lp2373
(L2481595632L
L3785322319L
(lp2374
(lp2375
Vbootloader_flash_execute_command_common
p2376
atp2377
atp2378
sI1074237376
(Vbootloader_common_select_otadata
p2379
(lp2380
(L2342662536L
L0L
(lp2381
(lp2382
tp2383
a(L3806783650L
L0L
(lp2384
(lp2385
tp2386
a(L1674928252L
L0L
(lp2387
(lp2388
tp2389
a(L251571983L
L0L
(lp2390
(lp2391
tp2392
a(L3360570486L
L0L
(lp2393
(lp2394
tp2395
a(L2045232488L
L0L
(lp2396
(lp2397
tp2398
a(L189726519L
L0L
(lp2399
(lp2400
tp2401
a(L3095066987L
L0L
(lp2402
(lp2403
tp2404
a(L3592023188L
L0L
(lp2405
(lp2406
tp2407
a(L1641201884L
L0L
(lp2408
(lp2409
tp2410
atp2411
sI1074238144
(Vbootloader_enable_wp
p2412
(lp2413
(L1117825804L
L3785322319L
(lp2414
(lp2415
Vbootloader_execute_flash_command
p2416
atp2417
atp2418
sI1074240704
(Vabort
p2419
(lp2420
(L955159064L
L0L
(lp2421
(lp2422
tp2423
a(L409441471L
L0L
(lp2424
(lp2425
tp2426
a(L106L
L0L
(lp2427
(lp2428
tp2429
atp2430
sI1074246592
(Vrtc_clk_slow_freq_get
p2431
(lp2432
(L772186783L
L0L
(lp2433
(lp2434
tp2435
atp2436
sI1074246348
(Vrtc_clk_8m_enable
p2437
(lp2438
(L2387201586L
L0L
(lp2439
(lp2440
tp2441
a(L752960688L
L0L
(lp2442
(lp2443
tp2444
a(L2151320156L
L0L
(lp2445
(lp2446
tp2447
a(L1391734358L
L0L
(lp2448
(lp2449
tp2450
a(L3360570486L
L0L
(lp2451
(lp2452
tp2453
a(L1318267208L
L0L
(lp2454
(lp2455
tp2456
a(L2506900513L
L0L
(lp2457
(lp2458
tp2459
atp2460
sI1074236876
(Vefuse_hal_chip_revision
p2461
(lp2462
(L1761205471L
L1880226080L
(lp2463
(lp2464
Vefuse_hal_get_major_chip_version
p2465
aVefuse_hal_get_minor_chip_version
p2466
atp2467
atp2468
sI1074244808
(Vwdt_hal_init
p2469
(lp2470
(L1204084869L
L0L
(lp2471
(lp2472
tp2473
a(L397764803L
L0L
(lp2474
(lp2475
tp2476
a(L2805933868L
L0L
(lp2477
(lp2478
tp2479
a(L3092044116L
L0L
(lp2480
(lp2481
tp2482
a(L1157874369L
L0L
(lp2483
(lp2484
tp2485
a(L3360570486L
L0L
(lp2486
(lp2487
tp2488
a(L3570943104L
L0L
(lp2489
(lp2490
tp2491
atp2492
sI1074240468
(Vbootloader_sha256_finish
p2493
(lp2494
(L4066096136L
L0L
(lp2495
(lp2496
tp2497
a(L2426305169L
L0L
(lp2498
(lp2499
tp2500
a(L3850111886L
L3785322319L
(lp2501
(lp2502
V__assert_func
p2503
atp2504
a(L3020204L
L0L
(lp2505
(lp2506
tp2507
a(L4168155120L
L0L
(lp2508
(lp2509
tp2510
a(L2534656226L
L0L
(lp2511
(lp2512
tp2513
a(L594679483L
L3785322319L
(lp2514
(lp2515
Vbootloader_sha256_data
p2516
atp2517
a(L3284853523L
L0L
(lp2518
(lp2519
tp2520
a(L2128130505L
L3785322319L
(lp2521
(lp2522
Vbootloader_sha256_data
p2523
atp2524
a(L3330117473L
L0L
(lp2525
(lp2526
tp2527
a(L657425439L
L0L
(lp2528
(lp2529
tp2530
a(L291134599L
L0L
(lp2531
(lp2532
tp2533
a(L657425439L
L0L
(lp2534
(lp2535
tp2536
a(L3130909398L
L0L
(lp2537
(lp2538
tp2539
a(L2804482273L
L0L
(lp2540
(lp2541
tp2542
a(L3347778L
L0L
(lp2543
(lp2544
tp2545
a(L3360570486L
L0L
(lp2546
(lp2547
tp2548
atp2549
sI1074238164
(Vbootloader_mmap_get_free_pages
p2550
(lp2551
(L1496516875L
L0L
(lp2552
(lp2553
tp2554
atp2555
sI1074240212
(Vindex_to_partition
p2556
(lp2557
(L4066096119L
L0L
(lp2558
(lp2559
tp2560
a(L1739185955L
L0L
(lp2561
(lp2562
tp2563
a(L2171552758L
L0L
(lp2564
(lp2565
tp2566
a(L2808906342L
L0L
(lp2567
(lp2568
tp2569
a(L2101481936L
L0L
(lp2570
(lp2571
tp2572
a(L3698927993L
L0L
(lp2573
(lp2574
tp2575
a(L2808826781L
L0L
(lp2576
(lp2577
tp2578
a(L3003398163L
L0L
(lp2579
(lp2580
tp2581
a(L1104460200L
L0L
(lp2582
(lp2583
tp2584
a(L1087646172L
L0L
(lp2585
(lp2586
tp2587
atp2588
sI1074239952
(Vbootloader_utility_load_boot_image
p2589
(lp2590
(L1561528311L
L0L
(lp2591
(lp2592
tp2593
a(L2177418995L
L3785322319L
(lp2594
(lp2595
Vtry_load_partition
p2596
atp2597
a(L2749106626L
L3785322319L
(lp2598
(lp2599
Vload_image
p2600
atp2601
a(L3017448975L
L3785322319L
(lp2602
(lp2603
Vesp_log_early_timestamp
p2604
atp2605
a(L3827921190L
L3785322319L
(lp2606
(lp2607
Vbootloader_reset
p2608
atp2609
a(L2542673780L
L3785322319L
(lp2610
(lp2611
Vindex_to_partition
p2612
atp2613
a(L1204373741L
L3785322319L
(lp2614
(lp2615
Vtry_load_partition
p2616
atp2617
a(L3020187L
L0L
(lp2618
(lp2619
tp2620
a(L4183184105L
L0L
(lp2621
(lp2622
tp2623
a(L2070875117L
L3785322319L
(lp2624
(lp2625
Vset_actual_ota_seq
p2626
atp2627
a(L1868897605L
L3785322319L
(lp2628
(lp2629
Vlog_invalid_app_partition
p2630
atp2631
a(L831650730L
L0L
(lp2632
(lp2633
tp2634
a(L3021737L
L0L
(lp2635
(lp2636
tp2637
a(L4083823862L
L0L
(lp2638
(lp2639
tp2640
a(L3818328201L
L3785322319L
(lp2641
(lp2642
Vtry_load_partition
p2643
atp2644
a(L2415418022L
L3785322319L
(lp2645
(lp2646
Vesp_log_early_timestamp
p2647
atp2648
a(L2185156151L
L3785322319L
(lp2649
(lp2650
Vindex_to_partition
p2651
atp2652
a(L1074657773L
L3785322319L
(lp2653
(lp2654
Vtry_load_partition
p2655
atp2656
a(L3027024L
L0L
(lp2657
(lp2658
tp2659
a(L1706561638L
L0L
(lp2660
(lp2661
tp2662
a(L3061261803L
L0L
(lp2663
(lp2664
tp2665
a(L3582858798L
L3785322319L
(lp2666
(lp2667
Vlog_invalid_app_partition
p2668
atp2669
a(L2838063384L
L3785322319L
(lp2670
(lp2671
Vesp_log_early_timestamp
p2672
atp2673
atp2674
sI1074234832
(Vbootloader_flash_execute_command_common
p2675
(lp2676
(L630859308L
L0L
(lp2677
(lp2678
tp2679
a(L120555568L
L0L
(lp2680
(lp2681
tp2682
a(L2925418774L
L3785322319L
(lp2683
(lp2684
V__assert_func
p2685
atp2686
a(L3021749L
L0L
(lp2687
(lp2688
tp2689
a(L153183052L
L0L
(lp2690
(lp2691
tp2692
a(L3132325827L
L0L
(lp2693
(lp2694
tp2695
a(L1782874522L
L0L
(lp2696
(lp2697
tp2698
a(L4024113366L
L0L
(lp2699
(lp2700
tp2701
a(L2147958864L
L0L
(lp2702
(lp2703
tp2704
a(L831940355L
L0L
(lp2705
(lp2706
tp2707
a(L2039827138L
L0L
(lp2708
(lp2709
tp2710
a(L2429937038L
L0L
(lp2711
(lp2712
tp2713
a(L2186295391L
L0L
(lp2714
(lp2715
tp2716
a(L3079186448L
L0L
(lp2717
(lp2718
tp2719
a(L3333696662L
L0L
(lp2720
(lp2721
tp2722
a(L963425213L
L0L
(lp2723
(lp2724
tp2725
a(L3172016656L
L0L
(lp2726
(lp2727
tp2728
a(L3360570486L
L0L
(lp2729
(lp2730
tp2731
a(L1184240068L
L0L
(lp2732
(lp2733
tp2734
atp2735
sI1074246608
(Vrtc_clk_slow_freq_get_hz
p2736
(lp2737
(L3105642876L
L0L
(lp2738
(lp2739
tp2740
a(L611533329L
L0L
(lp2741
(lp2742
tp2743
a(L3360570486L
L0L
(lp2744
(lp2745
tp2746
atp2747
sI1074239196
(Vtry_load_partition
p2748
(lp2749
(L1263750142L
L0L
(lp2750
(lp2751
tp2752
a(L2258688482L
L0L
(lp2753
(lp2754
tp2755
a(L3360570486L
L0L
(lp2756
(lp2757
tp2758
a(L530241438L
L3785322319L
(lp2759
(lp2760
Vbootloader_load_image
p2761
atp2762
a(L3866049243L
L3785322319L
(lp2763
(lp2764
Vesp_log_early_timestamp
p2765
atp2766
atp2767
sI1074238172
(Vbootloader_fill_random
p2768
(lp2769
(L3026789978L
L0L
(lp2770
(lp2771
tp2772
a(L1056102925L
L0L
(lp2773
(lp2774
tp2775
a(L97689L
L0L
(lp2776
(lp2777
tp2778
a(L3360570486L
L0L
(lp2779
(lp2780
tp2781
a(L353495740L
L3785322319L
(lp2782
(lp2783
V__assert_func
p2784
atp2785
a(L2008660626L
L0L
(lp2786
(lp2787
tp2788
a(L3028481L
L0L
(lp2789
(lp2790
tp2791
a(L983138374L
L0L
(lp2792
(lp2793
tp2794
a(L2607138306L
L0L
(lp2795
(lp2796
tp2797
a(L1982128194L
L0L
(lp2798
(lp2799
tp2800
atp2801
sI1074236636
(Vbootloader_common_get_chip_ver_pkg
p2802
(lp2803
(L1176319107L
L0L
(lp2804
(lp2805
tp2806
atp2807
sI1074242524
(Vimage_load
p2808
(lp2809
(L745499722L
L0L
(lp2810
(lp2811
tp2812
a(L1899869538L
L0L
(lp2813
(lp2814
tp2815
a(L9219888L
L0L
(lp2816
(lp2817
tp2818
a(L3287910782L
L0L
(lp2819
(lp2820
tp2821
a(L3020187L
L0L
(lp2822
(lp2823
tp2824
a(L3991327922L
L3785322319L
(lp2825
(lp2826
Vesp_log_early_timestamp
p2827
atp2828
a(L2068384292L
L0L
(lp2829
(lp2830
tp2831
a(L1968553470L
L3785322319L
(lp2832
(lp2833
Vbootloader_sha256_finish
p2834
atp2835
a(L2488000255L
L0L
(lp2836
(lp2837
tp2838
a(L3271848319L
L0L
(lp2839
(lp2840
tp2841
a(L1182930974L
L0L
(lp2842
(lp2843
tp2844
a(L3678851644L
L3785322319L
(lp2845
(lp2846
Vprocess_image_header
p2847
atp2848
a(L1341816907L
L0L
(lp2849
(lp2850
tp2851
a(L909494482L
L0L
(lp2852
(lp2853
tp2854
a(L1028073566L
L3785322319L
(lp2855
(lp2856
Vprocess_segments
p2857
atp2858
a(L3803885910L
L0L
(lp2859
(lp2860
tp2861
a(L94425498L
L3785322319L
(lp2862
(lp2863
Vesp_cpu_in_ocd_debug_mode
p2864
atp2865
a(L454195650L
L3785322319L
(lp2866
(lp2867
Vprocess_checksum
p2868
atp2869
a(L1651117269L
L3785322319L
(lp2870
(lp2871
Vprocess_appended_hash
p2872
atp2873
a(L533710513L
L0L
(lp2874
(lp2875
tp2876
a(L505081362L
L0L
(lp2877
(lp2878
tp2879
a(L3212356251L
L3785322319L
(lp2880
(lp2881
Vesp_cpu_in_ocd_debug_mode
p2882
atp2883
a(L1198227567L
L1880226080L
(lp2884
(lp2885
Vbootloader_sha256_finish
p2886
aVbootloader_debug_buffer
p2887
atp2888
a(L3928684791L
L1880226080L
(lp2889
(lp2890
Vesp_log_early_timestamp
p2891
aVbootloader_debug_buffer
p2892
atp2893
a(L978077504L
L0L
(lp2894
(lp2895
tp2896
a(L2068384292L
L0L
(lp2897
(lp2898
tp2899
a(L858449684L
L3785322319L
(lp2900
(lp2901
Vbootloader_sha256_finish
p2902
atp2903
a(L3028481L
L0L
(lp2904
(lp2905
tp2906
a(L93674324L
L0L
(lp2907
(lp2908
tp2909
a(L3046569754L
L0L
(lp2910
(lp2911
tp2912
a(L2429164518L
L0L
(lp2913
(lp2914
tp2915
a(L3553619191L
L0L
(lp2916
(lp2917
tp2918
a(L85798113L
L0L
(lp2919
(lp2920
tp2921
a(L464010095L
L0L
(lp2922
(lp2923
tp2924
a(L835563811L
L3785322319L
(lp2925
(lp2926
Vshould_load
p2927
atp2928
a(L1358360603L
L0L
(lp2929
(lp2930
tp2931
a(L4224160879L
L0L
(lp2932
(lp2933
tp2934
a(L22884489L
L0L
(lp2935
(lp2936
tp2937
a(L741351569L
L0L
(lp2938
(lp2939
tp2940
a(L434644776L
L0L
(lp2941
(lp2942
tp2943
a(L106L
L0L
(lp2944
(lp2945
tp2946
a(L709419389L
L0L
(lp2947
(lp2948
tp2949
a(L1299866312L
L0L
(lp2950
(lp2951
tp2952
atp2953
sI1074243292
(Vesp_rom_spiflash_read_status
p2954
(lp2955
(L3562601385L
L0L
(lp2956
(lp2957
tp2958
a(L1182811815L
L0L
(lp2959
(lp2960
tp2961
a(L1932570474L
L0L
(lp2962
(lp2963
tp2964
a(L106L
L0L
(lp2965
(lp2966
tp2967
a(L1922848735L
L0L
(lp2968
(lp2969
tp2970
a(L4004659960L
L0L
(lp2971
(lp2972
tp2973
a(L2123059967L
L0L
(lp2974
(lp2975
tp2976
a(L1973734210L
L0L
(lp2977
(lp2978
tp2979
a(L2392720019L
L0L
(lp2980
(lp2981
tp2982
atp2983
sI1074247388
(Vrtc_clk_apb_freq_update
p2984
(lp2985
(L1841704389L
L0L
(lp2986
(lp2987
tp2988
atp2989
sI1074267860
(Vbootloader_common_vddsdio_configure
p2990
(lp2991
(L1922017289L
L3785322319L
(lp2992
(lp2993
Vrtc_vddsdio_get_config
p2994
atp2995
a(L1612109748L
L3785322319L
(lp2996
(lp2997
Vrtc_vddsdio_set_config
p2998
atp2999
a(L3360570486L
L0L
(lp3000
(lp3001
tp3002
atp3003
sI1074247128
(Vrtc_clk_cpu_freq_mhz_to_config
p3004
(lp3005
(L2601984125L
L3785322319L
(lp3006
(lp3007
Vrtc_clk_xtal_freq_get
p3008
atp3009
a(L2089656409L
L0L
(lp3010
(lp3011
tp3012
a(L3814337874L
L0L
(lp3013
(lp3014
tp3015
a(L3126521138L
L0L
(lp3016
(lp3017
tp3018
a(L2762074623L
L0L
(lp3019
(lp3020
tp3021
a(L1541996779L
L0L
(lp3022
(lp3023
tp3024
a(L2916936348L
L0L
(lp3025
(lp3026
tp3027
a(L1555485793L
L0L
(lp3028
(lp3029
tp3030
a(L2258897023L
L0L
(lp3031
(lp3032
tp3033
a(L1947499251L
L0L
(lp3034
(lp3035
tp3036
a(L1306331021L
L0L
(lp3037
(lp3038
tp3039
atp3040
sI1074243812
(Vesp_rom_spiflash_write
p3041
(lp3042
(L1191373647L
L0L
(lp3043
(lp3044
tp3045
a(L2258688483L
L0L
(lp3046
(lp3047
tp3048
a(L3360570486L
L0L
(lp3049
(lp3050
tp3051
a(L1590344338L
L0L
(lp3052
(lp3053
tp3054
a(L3106685987L
L0L
(lp3055
(lp3056
tp3057
a(L4249336406L
L3785322319L
(lp3058
(lp3059
Vesp_rom_spiflash_program_page_internal
p3060
atp3061
a(L1915738254L
L3785322319L
(lp3062
(lp3063
Vesp_rom_spiflash_program_page_internal
p3064
atp3065
a(L663507325L
L0L
(lp3066
(lp3067
tp3068
a(L2392967593L
L0L
(lp3069
(lp3070
tp3071
a(L564470687L
L0L
(lp3072
(lp3073
tp3074
a(L154459701L
L3785322319L
(lp3075
(lp3076
Vesp_rom_spiflash_program_page_internal
p3077
atp3078
a(L2079643754L
L0L
(lp3079
(lp3080
tp3081
atp3082
sI1074235364
(Vbootloader_flash_unlock
p3083
(lp3084
(L142706334L
L3785322319L
(lp3085
(lp3086
Vesp_rom_spiflash_wait_idle
p3087
atp3088
a(L4024621237L
L0L
(lp3089
(lp3090
tp3091
a(L4292483033L
L3785322319L
(lp3092
(lp3093
Vbootloader_execute_flash_command
p3094
atp3095
a(L106L
L0L
(lp3096
(lp3097
tp3098
a(L1303560644L
L0L
(lp3099
(lp3100
tp3101
a(L1419965066L
L0L
(lp3102
(lp3103
tp3104
a(L106L
L0L
(lp3105
(lp3106
tp3107
a(L1633120054L
L0L
(lp3108
(lp3109
tp3110
a(L106L
L0L
(lp3111
(lp3112
tp3113
a(L2974484771L
L0L
(lp3114
(lp3115
tp3116
a(L106L
L0L
(lp3117
(lp3118
tp3119
a(L1481761147L
L1880226080L
(lp3120
(lp3121
Vbootloader_execute_flash_command
p3122
aVbootloader_execute_flash_command
p3123
atp3124
a(L2258807654L
L0L
(lp3125
(lp3126
tp3127
a(L489806350L
L1832448559L
(lp3128
(lp3129
Vesp_rom_spiflash_wait_idle
p3130
aVbootloader_execute_flash_command
p3131
aVbootloader_execute_flash_command
p3132
atp3133
a(L879744646L
L1832448559L
(lp3134
(lp3135
Vesp_rom_spiflash_wait_idle
p3136
aVbootloader_execute_flash_command
p3137
aVbootloader_execute_flash_command
p3138
atp3139
a(L1840772931L
L1880226080L
(lp3140
(lp3141
Vesp_rom_spiflash_wait_idle
p3142
aVbootloader_execute_flash_command
p3143
atp3144
a(L2993202392L
L0L
(lp3145
(lp3146
tp3147
a(L508800419L
L1880226080L
(lp3148
(lp3149
Vbootloader_execute_flash_command
p3150
aVbootloader_execute_flash_command
p3151
atp3152
a(L1303560369L
L0L
(lp3153
(lp3154
tp3155
a(L1596544945L
L0L
(lp3156
(lp3157
tp3158
a(L97689L
L0L
(lp3159
(lp3160
tp3161
a(L106L
L0L
(lp3162
(lp3163
tp3164
atp3165
sI1074270700
(Vrtc_vddsdio_set_config
p3166
(lp3167
(L2913621689L
L0L
(lp3168
(lp3169
tp3170
atp3171
sI1074237152
(Vbootloader_common_check_chip_validity
p3172
(lp3173
(L409865374L
L0L
(lp3174
(lp3175
tp3176
a(L3008458885L
L3785322319L
(lp3177
(lp3178
Vesp_log_early_timestamp
p3179
atp3180
a(L1508931617L
L3785322319L
(lp3181
(lp3182
Vefuse_hal_chip_revision
p3183
atp3184
a(L93674324L
L0L
(lp3185
(lp3186
tp3187
a(L4170554374L
L3785322319L
(lp3188
(lp3189
Vesp_log_early_timestamp
p3190
atp3191
a(L1641201884L
L0L
(lp3192
(lp3193
tp3194
a(L2258688482L
L0L
(lp3195
(lp3196
tp3197
a(L3360570486L
L0L
(lp3198
(lp3199
tp3200
atp3201
sI1074269920
(Vrtc_clk_xtal_freq_estimate
p3202
(lp3203
(L2516060585L
L1880226080L
(lp3204
(lp3205
Vrtc_clk_8m_enabled
p3206
aVrtc_clk_8md256_enabled
p3207
atp3208
a(L967485502L
L3785322319L
(lp3209
(lp3210
Vrtc_clk_8m_enable
p3211
atp3212
a(L3868271755L
L3785322319L
(lp3213
(lp3214
Vrtc_clk_cal_ratio
p3215
atp3216
a(L2531412100L
L0L
(lp3217
(lp3218
tp3219
a(L3360570486L
L0L
(lp3220
(lp3221
tp3222
a(L1994958769L
L3785322319L
(lp3223
(lp3224
Vesp_log_early_timestamp
p3225
atp3226
atp3227
sI1074236908
(Vefuse_hal_get_major_chip_version
p3228
(lp3229
(L3421545156L
L0L
(lp3230
(lp3231
tp3232
a(L3989534928L
L0L
(lp3233
(lp3234
tp3235
a(L3360570486L
L0L
(lp3236
(lp3237
tp3238
atp3239
sI1074241004
(Vprocess_image_header
p3240
(lp3241
(L2618347250L
L3785322319L
(lp3242
(lp3243
Vbootloader_flash_read
p3244
atp3245
a(L3020204L
L0L
(lp3246
(lp3247
tp3248
a(L182056016L
L0L
(lp3249
(lp3250
tp3251
a(L1727394037L
L0L
(lp3252
(lp3253
tp3254
a(L1161397362L
L3785322319L
(lp3255
(lp3256
Vbootloader_sha256_start
p3257
atp3258
a(L2062774299L
L3785322319L
(lp3259
(lp3260
Vbootloader_sha256_data
p3261
atp3262
a(L2226581267L
L0L
(lp3263
(lp3264
tp3265
a(L3020204L
L0L
(lp3266
(lp3267
tp3268
a(L3200755544L
L0L
(lp3269
(lp3270
tp3271
a(L2983970029L
L0L
(lp3272
(lp3273
tp3274
a(L2084831782L
L3785322319L
(lp3275
(lp3276
Vesp_log_early_timestamp
p3277
atp3278
a(L3028481L
L0L
(lp3279
(lp3280
tp3281
a(L2299376216L
L0L
(lp3282
(lp3283
tp3284
a(L3519447553L
L3785322319L
(lp3285
(lp3286
Vesp_log_early_timestamp
p3287
atp3288
a(L2886566498L
L0L
(lp3289
(lp3290
tp3291
a(L1287309200L
L3785322319L
(lp3292
(lp3293
Vesp_log_early_timestamp
p3294
atp3295
a(L545088956L
L3785322319L
(lp3296
(lp3297
Vbootloader_common_check_chip_validity
p3298
atp3299
a(L2786305996L
L0L
(lp3300
(lp3301
tp3302
a(L3028481L
L0L
(lp3303
(lp3304
tp3305
a(L3356138668L
L3785322319L
(lp3306
(lp3307
Vesp_log_early_timestamp
p3308
atp3309
a(L2852701393L
L0L
(lp3310
(lp3311
tp3312
a(L2122516551L
L0L
(lp3313
(lp3314
tp3315
a(L3064492592L
L0L
(lp3316
(lp3317
tp3318
atp3319
sI1074244072
(Vesp_rom_spiflash_read
p3320
(lp3321
(L1049473468L
L0L
(lp3322
(lp3323
tp3324
a(L2962423754L
L0L
(lp3325
(lp3326
tp3327
a(L2860271684L
L0L
(lp3328
(lp3329
tp3330
a(L3017366L
L0L
(lp3331
(lp3332
tp3333
a(L106L
L0L
(lp3334
(lp3335
tp3336
a(L1382871118L
L0L
(lp3337
(lp3338
tp3339
a(L106L
L0L
(lp3340
(lp3341
tp3342
a(L1263787764L
L0L
(lp3343
(lp3344
tp3345
a(L3629779559L
L0L
(lp3346
(lp3347
tp3348
a(L1646084303L
L0L
(lp3349
(lp3350
tp3351
a(L3537851620L
L0L
(lp3352
(lp3353
tp3354
a(L106L
L0L
(lp3355
(lp3356
tp3357
a(L2670305459L
L3785322319L
(lp3358
(lp3359
Vesp_rom_spiflash_wait_idle
p3360
atp3361
a(L3021737L
L0L
(lp3362
(lp3363
tp3364
a(L106L
L0L
(lp3365
(lp3366
tp3367
a(L1868280504L
L0L
(lp3368
(lp3369
tp3370
a(L106L
L0L
(lp3371
(lp3372
tp3373
a(L3736481532L
L0L
(lp3374
(lp3375
tp3376
a(L1221163038L
L0L
(lp3377
(lp3378
tp3379
a(L4122060822L
L0L
(lp3380
(lp3381
tp3382
a(L121253891L
L0L
(lp3383
(lp3384
tp3385
a(L2989032L
L0L
(lp3386
(lp3387
tp3388
a(L3819849625L
L0L
(lp3389
(lp3390
tp3391
a(L2943133976L
L0L
(lp3392
(lp3393
tp3394
a(L159915120L
L0L
(lp3395
(lp3396
tp3397
a(L3901820614L
L0L
(lp3398
(lp3399
tp3400
a(L1019633599L
L0L
(lp3401
(lp3402
tp3403
a(L1896415737L
L0L
(lp3404
(lp3405
tp3406
a(L1522202953L
L0L
(lp3407
(lp3408
tp3409
a(L4279609317L
L0L
(lp3410
(lp3411
tp3412
a(L2964559468L
L0L
(lp3413
(lp3414
tp3415
a(L2267384310L
L0L
(lp3416
(lp3417
tp3418
a(L2696140277L
L0L
(lp3419
(lp3420
tp3421
a(L2687789892L
L0L
(lp3422
(lp3423
tp3424
a(L1405253496L
L0L
(lp3425
(lp3426
tp3427
a(L2402829682L
L0L
(lp3428
(lp3429
tp3430
a(L97689L
L0L
(lp3431
(lp3432
tp3433
a(L2258897019L
L0L
(lp3434
(lp3435
tp3436
a(L4014024819L
L0L
(lp3437
(lp3438
tp3439
a(L3621567083L
L0L
(lp3440
(lp3441
tp3442
atp3443
sI1074241264
(Vbootloader_util_regions_overlap
p3444
(lp3445
(L2762640130L
L0L
(lp3446
(lp3447
tp3448
a(L3659618707L
L0L
(lp3449
(lp3450
tp3451
a(L1647451197L
L3785322319L
(lp3452
(lp3453
V__assert_func
p3454
atp3455
a(L97642L
L0L
(lp3456
(lp3457
tp3458
a(L3340801499L
L0L
(lp3459
(lp3460
tp3461
a(L366123053L
L0L
(lp3462
(lp3463
tp3464
a(L2258867228L
L0L
(lp3465
(lp3466
tp3467
a(L1253626734L
L0L
(lp3468
(lp3469
tp3470
a(L2258897019L
L0L
(lp3471
(lp3472
tp3473
a(L3109269495L
L0L
(lp3474
(lp3475
tp3476
atp3477
sI1074240752
(Vbootloader_ana_clock_glitch_reset_config
p3478
(lp3479
(L2100504542L
L0L
(lp3480
(lp3481
tp3482
atp3483
sI1074237680
(Vbootloader_flash_read
p3484
(lp3485
(L2699333355L
L0L
(lp3486
(lp3487
tp3488
a(L1134859429L
L3785322319L
(lp3489
(lp3490
Vesp_log_early_timestamp
p3491
atp3492
a(L44113432L
L0L
(lp3493
(lp3494
tp3495
a(L1299867982L
L0L
(lp3496
(lp3497
tp3498
a(L3360570486L
L0L
(lp3499
(lp3500
tp3501
a(L2660352519L
L0L
(lp3502
(lp3503
tp3504
a(L3132108828L
L3785322319L
(lp3505
(lp3506
Vesp_log_early_timestamp
p3507
atp3508
a(L162336582L
L0L
(lp3509
(lp3510
tp3511
a(L1181807953L
L3785322319L
(lp3512
(lp3513
Vesp_log_early_timestamp
p3514
atp3515
a(L3020204L
L0L
(lp3516
(lp3517
tp3518
a(L1398573769L
L0L
(lp3519
(lp3520
tp3521
a(L97422L
L0L
(lp3522
(lp3523
tp3524
a(L2018549829L
L0L
(lp3525
(lp3526
tp3527
a(L1895240536L
L0L
(lp3528
(lp3529
tp3530
a(L486806570L
L3785322319L
(lp3531
(lp3532
Vesp_log_early_timestamp
p3533
atp3534
a(L413914689L
L0L
(lp3535
(lp3536
tp3537
a(L2869220355L
L0L
(lp3538
(lp3539
tp3540
a(L1280600787L
L3785322319L
(lp3541
(lp3542
Vesp_rom_spiflash_read
p3543
atp3544
a(L106L
L0L
(lp3545
(lp3546
tp3547
a(L248331579L
L0L
(lp3548
(lp3549
tp3550
atp3551
sI1074246640
(Vrtc_clk_fast_freq_set
p3552
(lp3553
(L1561398871L
L0L
(lp3554
(lp3555
tp3556
atp3557
sI1074245884
(Vwdt_hal_write_protect_enable
p3558
(lp3559
(L387778158L
L0L
(lp3560
(lp3561
tp3562
a(L4195472003L
L0L
(lp3563
(lp3564
tp3565
a(L3360570486L
L0L
(lp3566
(lp3567
tp3568
a(L802523425L
L0L
(lp3569
(lp3570
tp3571
atp3572
sI1074236668
(Vesp_cpu_in_ocd_debug_mode
p3573
(lp3574
(L2131426160L
L0L
(lp3575
(lp3576
tp3577
atp3578
sI1074268148
(Vbootloader_init
p3579
(lp3580
(L2956637306L
L3785322319L
(lp3581
(lp3582
Vbootloader_init_mem
p3583
atp3584
a(L1574759535L
L0L
(lp3585
(lp3586
tp3587
a(L2505738386L
L3785322319L
(lp3588
(lp3589
V__assert_func
p3590
atp3591
a(L1991724622L
L0L
(lp3592
(lp3593
tp3594
a(L966001373L
L0L
(lp3595
(lp3596
tp3597
a(L2926278337L
L0L
(lp3598
(lp3599
tp3600
a(L2369200439L
L0L
(lp3601
(lp3602
tp3603
a(L3027019L
L0L
(lp3604
(lp3605
tp3606
a(L273728577L
L0L
(lp3607
(lp3608
tp3609
a(L3882480429L
L1832448559L
(lp3610
(lp3611
Vbootloader_clear_bss_section
p3612
aVbootloader_common_vddsdio_configure
p3613
aVbootloader_clock_get_rated_freq_mhz
p3614
atp3615
a(L3987130017L
L1157885199L
(lp3616
(lp3617
Vbootloader_clock_configure
p3618
aVbootloader_console_init
p3619
aVbootloader_print_banner
p3620
aVbootloader_flash_update_id
p3621
aVbootloader_flash_xmc_startup
p3622
atp3623
a(L454185234L
L3785322319L
(lp3624
(lp3625
Vesp_log_early_timestamp
p3626
atp3627
a(L1751790298L
L3785322319L
(lp3628
(lp3629
Vesp_log_early_timestamp
p3630
atp3631
a(L3360570486L
L0L
(lp3632
(lp3633
tp3634
a(L2444883382L
L3785322319L
(lp3635
(lp3636
Vbootloader_read_bootloader_header
p3637
atp3638
a(L2444883382L
L3785322319L
(lp3639
(lp3640
Vbootloader_check_bootloader_validity
p3641
atp3642
a(L675083476L
L1157885199L
(lp3643
(lp3644
Vbootloader_flash_gpio_config
p3645
aVbootloader_flash_dummy_config
p3646
aVbootloader_flash_cs_timing_config
p3647
aVbootloader_flash_unlock
p3648
aVesp_log_early_timestamp
p3649
atp3650
a(L1578764909L
L0L
(lp3651
(lp3652
tp3653
a(L1618476312L
L0L
(lp3654
(lp3655
tp3656
a(L1589847161L
L0L
(lp3657
(lp3658
tp3659
a(L1571376741L
L0L
(lp3660
(lp3661
tp3662
a(L3902505838L
L0L
(lp3663
(lp3664
tp3665
a(L255306491L
L3785322319L
(lp3666
(lp3667
Vesp_log_early_timestamp
p3668
atp3669
a(L1787773517L
L0L
(lp3670
(lp3671
tp3672
a(L2611896117L
L3785322319L
(lp3673
(lp3674
Vesp_log_early_timestamp
p3675
atp3676
a(L1613092619L
L0L
(lp3677
(lp3678
tp3679
a(L2393191567L
L3785322319L
(lp3680
(lp3681
Vbootloader_enable_wp
p3682
atp3683
a(L282760458L
L0L
(lp3684
(lp3685
tp3686
a(L2994055137L
L3785322319L
(lp3687
(lp3688
Vesp_log_early_timestamp
p3689
atp3690
a(L1328209163L
L0L
(lp3691
(lp3692
tp3693
a(L502323150L
L0L
(lp3694
(lp3695
tp3696
a(L2902417580L
L0L
(lp3697
(lp3698
tp3699
a(L1944713791L
L1880226080L
(lp3700
(lp3701
Vwdt_reset_info_dump
p3702
aVwdt_reset_info_dump
p3703
atp3704
a(L4235188628L
L1880226080L
(lp3705
(lp3706
Vbootloader_config_wdt
p3707
aVbootloader_enable_random
p3708
atp3709
a(L3867148451L
L3785322319L
(lp3710
(lp3711
Vesp_log_early_timestamp
p3712
atp3713
atp3714
sI1074240760
(Vprocess_appended_hash
p3715
(lp3716
(L3580132405L
L0L
(lp3717
(lp3718
tp3719
a(L3028481L
L0L
(lp3720
(lp3721
tp3722
a(L1591589631L
L0L
(lp3723
(lp3724
tp3725
a(L1864319304L
L0L
(lp3726
(lp3727
tp3728
a(L2876597018L
L0L
(lp3729
(lp3730
tp3731
a(L1201342627L
L3785322319L
(lp3732
(lp3733
Vesp_log_early_timestamp
p3734
atp3735
a(L894030452L
L3785322319L
(lp3736
(lp3737
Vbootloader_flash_read
p3738
atp3739
a(L3871473710L
L0L
(lp3740
(lp3741
tp3742
atp3743
sI1074247416
(Vrtc_clk_cpu_freq_to_xtal
p3744
(lp3745
(L3369108494L
L3785322319L
(lp3746
(lp3747
Vrtc_clk_apb_freq_update
p3748
atp3749
a(L702736306L
L0L
(lp3750
(lp3751
tp3752
a(L277445412L
L0L
(lp3753
(lp3754
tp3755
a(L309988740L
L0L
(lp3756
(lp3757
tp3758
atp3759
ssS'functionsdups'
p3760
g11
((lp3761
tp3762
Rp3763
sS'immediatedups'
p3764
g11
((lp3765
tp3766
Rp3767
sS'functiondups'
p3768
g11
((lp3769
tp3770
Rp3771
sS'fuzzy'
p3772
(dp3773
L1536L
I1074240680
sL430153639L
I1074236020
sL3121027072L
I1074270540
sL2082889262L
I1074240760
sL45806640L
I1074236684
sL3879741902L
I1074241320
sL3538491111L
I1074247416
sL2919016435L
I1074235364
sL1540367692L
I1074269920
sL2680783959L
I1074235752
sL1600634745L
I1074237152
sL3512578114L
I1074239196
sL975599493L
I1074239060
sL114144873L
I1074237964
sL2469233929L
I1074240468
sL1792232694L
I1074246008
sL1377559356L
I1074242524
sL2475522855L
I1074269568
sL3051955266L
I1074268148
sL3897252859L
I1074238976
sL541189360L
I1074241004
sL1065525808L
I1074236992
sL2183816734L
I1074267776
sL2327783177L
I1074240852
sL1035771659L
I1074237680
sL1164839255L
I1074241808
sL449860969L
I1074247128
sL3210669721L
I1074246288
sL1332800441L
I1074237308
sL2884218272L
I1074267928
sL4160102055L
I1074239920
sL4202185385L
I1074243384
sL2966529024L
I1074246700
sL2453272040L
I1074247856
sL1768086576L
I1074236488
sL4171975289L
I1074243680
sL1565254297L
I1074243984
sL2191698036L
I1074269640
sL1513350244L
I1074239616
sL2474570535L
I1074238172
sL3428965560L
I1074247532
sL502463145L
I1074234832
sL3948954811L
I1074239244
sL519424169L
I1074248312
sL812946199L
I1074237456
sL737694352L
I1074243492
sL503029138L
I1074243432
sL277788135L
I1074244072
sL4253866342L
I1074239952
sL3991645697L
I1074268828
sL47534270L
I1074238592
sL2262558768L
I1074243292
sL424867129L
I1074243812
sL1554975810L
I1074237992
sL3834155367L
I1074241264
sL3791345684L
I1074269840
sL3883282432L
I1074241688
sL4173399607L
I1074243004
sL2726385143L
I1074245396
sL1667054119L
I1074240304
sL4191211306L
I1074247216
sL2687107543L
I1074270084
ssb.