ccopy_reg
_reconstructor
p0
(crizzo
RizzoSignature
p1
c__builtin__
object
p2
Ntp3
Rp4
(dp5
S'formal'
p6
(dp7
L391989342L
I1074269772
sL4149167435L
I1074235764
sL276461182L
I1074237976
sL2284044839L
I1074243444
sL1887266168L
I1074239932
sL2597089482L
I1074236920
sL2911663236L
I1074237640
sL1405817538L
I1074246612
sL974820369L
I1074247348
sL2890361161L
I1074239208
sL867946411L
I1074269520
sL1254973916L
I1074242536
sL1935665484L
I1074267944
sL2187074889L
I1074239628
sL2226187430L
I1074238276
sL3105163267L
I1074247256
sL3307160839L
I1074247140
sL4213015302L
I1074243000
sL4286645149L
I1074270544
sL343306603L
I1074237468
sL3211103558L
I1074236500
sL2028381634L
I1074246408
sL3513155648L
I1074241820
sL836519674L
I1074269048
sL1363250790L
I1074244736
sL765674116L
I1074270132
sL1877903302L
I1074244476
sL2873067797L
I1074246060
sL1010441494L
I1074247792
sL421325868L
I1074239256
sL1268126117L
I1074248008
sL2896295319L
I1074237004
sL1657843434L
I1074238604
sL2590834774L
I1074271476
sL2360383375L
I1074238004
sL1200273099L
I1074239072
sL1107838538L
I1074267892
sL1104514710L
I1074270344
sL4194771266L
I1074238184
sL902150784L
I1074269568
sL2120937251L
I1074246376
sL2071188794L
I1074270496
sL860349453L
I1074269668
sL2409736684L
I1074248944
sL3308004988L
I1074240316
sL360054820L
I1074247272
sL2175640063L
I1074270576
sL1521422076L
I1074268180
sL530188238L
I1074237692
sL1585823442L
I1074246548
sL744601145L
I1074235920
sL3435760273L
I1074247364
sL1725042831L
I1074240716
sL4155733485L
I1074240480
sL1856583414L
I1074244648
sL3129199843L
I1074269648
sL4166477364L
I1074241276
sL1271355812L
I1074235668
sL804327318L
I1074243304
sL823131495L
I1074246480
sL1534552346L
I1074240692
sL3609305422L
I1074270788
sL1622041055L
I1074246952
sL2034515509L
I1074267960
sL2091577816L
I1074241332
sL2725750787L
I1074246836
sL256759610L
I1074236696
sL299555495L
I1074248976
sL3666813681L
I1074248080
sL4167752981L
I1074268864
sL3666808560L
I1074270228
sL1679583389L
I1074248052
sL3307282855L
I1074238156
sL2039303434L
I1074237108
sL450290526L
I1074271404
sL3499630867L
I1074236796
sL612086517L
I1074235376
sL1745637791L
I1074270272
sL545269524L
I1074243692
sL796121318L
I1074245472
sL79155490L
I1074248520
sL4167159287L
I1074248476
sL2320225495L
I1074240296
sL703247988L
I1074237164
sL2846978095L
I1074243396
sL3862289835L
I1074247012
sL2941288911L
I1074239964
sL1593758812L
I1074270148
sL2662901275L
I1074240676
sL1156874576L
I1074236680
sL4243027010L
I1074270204
sL1652900655L
I1074238592
sL23021043L
I1074236032
sL3437515081L
I1074234844
sL2810140113L
I1074247164
sL2997001746L
I1074237320
sL136793491L
I1074247752
sL1976922989L
I1074236732
sL2196775752L
I1074248196
sL3912332424L
I1074244344
sL2819127986L
I1074237128
sL1016152107L
I1074267808
sL4235827909L
I1074240864
sL1164083360L
I1074235720
sL2411516799L
I1074269628
sL1448845982L
I1074237076
sL4075620904L
I1074267139
sL2249539038L
I1074240224
sL4142749756L
I1074236648
sL1865528544L
I1074246576
sL3674356945L
I1074241700
sL2160092182L
I1074271244
sL2715371534L
I1074243016
sL2263182908L
I1074238176
sL3964451221L
I1074246672
sL501550396L
I1074247188
sL3953131333L
I1074240772
sL188664287L
I1074235344
sL2200618440L
I1074243504
sL3003434726L
I1074270624
sL2959238529L
I1074237388
sL1457328446L
I1074247304
sL692536993L
I1074237360
sL2319953056L
I1074238988
sL409201547L
I1074236988
sL3074068176L
I1074247880
sL3608561895L
I1074269032
sL243820144L
I1074241016
sL2799127087L
I1074270468
sL4267894680L
I1074236888
sL3322869492L
I1074269608
sL677806744L
I1074269544
sL908312796L
I1074269716
ssS'immediates'
p8
(dp9
sS'formaldups'
p10
c__builtin__
set
p11
((lp12
tp13
Rp14
sS'stringdups'
p15
g11
((lp16
tp17
Rp18
sS'fuzzydups'
p19
g11
((lp20
tp21
Rp22
sS'strings'
p23
(dp24
sS'functions'
p25
(dp26
I1074240772
(Vprocess_appended_hash
p27
(lp28
(L3580132405L
L0L
(lp29
(lp30
tp31
a(L3028481L
L0L
(lp32
(lp33
tp34
a(L1591589631L
L0L
(lp35
(lp36
tp37
a(L1864319304L
L0L
(lp38
(lp39
tp40
a(L2876597018L
L0L
(lp41
(lp42
tp43
a(L1201342627L
L3785322319L
(lp44
(lp45
Vesp_log_early_timestamp
p46
atp47
a(L894030452L
L3785322319L
(lp48
(lp49
Vbootloader_flash_read
p50
atp51
a(L3871473710L
L0L
(lp52
(lp53
tp54
atp55
sI1074248196
(Vrtc_clk_cpu_freq_set_config
p56
(lp57
(L3278368246L
L3785322319L
(lp58
(lp59
Vrtc_clk_xtal_freq_get
p60
atp61
a(L1828795533L
L1880226080L
(lp62
(lp63
Vrtc_clk_cpu_freq_to_xtal
p64
aVrtc_clk_wait_for_slow_cycle
p65
atp66
a(L94425498L
L3785322319L
(lp67
(lp68
Vrtc_clk_bbpll_disable
p69
atp70
a(L3978916712L
L0L
(lp71
(lp72
tp73
a(L2977209154L
L0L
(lp74
(lp75
tp76
a(L2736411858L
L3785322319L
(lp77
(lp78
Vrtc_clk_cpu_freq_to_xtal
p79
atp80
a(L3360570486L
L0L
(lp81
(lp82
tp83
a(L3020187L
L0L
(lp84
(lp85
tp86
a(L106L
L0L
(lp87
(lp88
tp89
a(L976618424L
L2485746240L
(lp90
(lp91
Vrtc_clk_wait_for_slow_cycle
p92
aVrtc_clk_xtal_freq_get
p93
aVrtc_clk_bbpll_configure
p94
aVrtc_clk_cpu_freq_to_pll_mhz
p95
atp96
a(L3020187L
L0L
(lp97
(lp98
tp99
a(L106L
L0L
(lp100
(lp101
tp102
a(L1277271221L
L0L
(lp103
(lp104
tp105
atp106
sI1074271244
(Vrtc_vddsdio_get_config
p107
(lp108
(L39377082L
L0L
(lp109
(lp110
tp111
a(L147025923L
L0L
(lp112
(lp113
tp114
a(L318395269L
L0L
(lp115
(lp116
tp117
a(L1265958312L
L0L
(lp118
(lp119
tp120
a(L3172236302L
L0L
(lp121
(lp122
tp123
a(L1116012092L
L0L
(lp124
(lp125
tp126
a(L1719615367L
L0L
(lp127
(lp128
tp129
a(L183785369L
L0L
(lp130
(lp131
tp132
atp133
sI1074267136
(V_init
p134
(lp135
(L3493042598L
L0L
(lp136
(lp137
tp138
atp139
sI1074238988
(Vlog_invalid_app_partition
p140
(lp141
(L4293078423L
L0L
(lp142
(lp143
tp144
a(L3028464L
L0L
(lp145
(lp146
tp147
a(L60127667L
L3785322319L
(lp148
(lp149
Vesp_log_early_timestamp
p150
atp151
a(L44113432L
L0L
(lp152
(lp153
tp154
a(L3360570486L
L0L
(lp155
(lp156
tp157
a(L1770519575L
L3785322319L
(lp158
(lp159
Vesp_log_early_timestamp
p160
atp161
a(L2524670070L
L3785322319L
(lp162
(lp163
Vesp_log_early_timestamp
p164
atp165
atp166
sI1074267139
(V_text_start
p167
(lp168
(L2957395042L
L0L
(lp169
(lp170
tp171
atp172
sI1074270468
(Vbootloader_enable_random
p173
(lp174
(L1633861948L
L1880226080L
(lp175
(lp176
Vesp_log_early_timestamp
p177
aVbootloader_random_enable
p178
atp179
atp180
sI1074246408
(Vwdt_hal_enable
p181
(lp182
(L4029830118L
L0L
(lp183
(lp184
tp185
a(L3634439744L
L0L
(lp186
(lp187
tp188
a(L3360570486L
L0L
(lp189
(lp190
tp191
a(L2011576586L
L0L
(lp192
(lp193
tp194
atp195
sI1074236680
(Vesp_cpu_in_ocd_debug_mode
p196
(lp197
(L2131426160L
L0L
(lp198
(lp199
tp200
atp201
sI1074235668
(Vbootloader_flash_read_sfdp
p202
(lp203
(L711701400L
L0L
(lp204
(lp205
tp206
a(L1622122993L
L3785322319L
(lp207
(lp208
V__assert_func
p209
atp210
a(L3704332455L
L3785322319L
(lp211
(lp212
Vbootloader_flash_execute_command_common
p213
atp214
atp215
sI1074247188
(Vrtc_clk_slow_freq_set
p216
(lp217
(L317012378L
L0L
(lp218
(lp219
tp220
atp221
sI1074235920
(Vbootloader_flash_cs_timing_config
p222
(lp223
(L3796536297L
L0L
(lp224
(lp225
tp226
atp227
sI1074246672
(Vrtc_clk_cpu_freq_to_pll_mhz
p228
(lp229
(L428013989L
L0L
(lp230
(lp231
tp232
a(L106L
L0L
(lp233
(lp234
tp235
a(L1541997046L
L0L
(lp236
(lp237
tp238
a(L106L
L0L
(lp239
(lp240
tp241
a(L1546614651L
L0L
(lp242
(lp243
tp244
a(L3439082421L
L0L
(lp245
(lp246
tp247
a(L2499927070L
L3785322319L
(lp248
(lp249
Vrtc_clk_wait_for_slow_cycle
p250
atp251
a(L1788583104L
L1880226080L
(lp252
(lp253
Vesp_log_early_timestamp
p254
aVabort
p255
atp256
a(L1183020347L
L0L
(lp257
(lp258
tp259
a(L1305407562L
L0L
(lp260
(lp261
tp262
a(L1306330990L
L0L
(lp263
(lp264
tp265
atp266
sI1074248976
(Vrtc_clk_wait_for_slow_cycle
p267
(lp268
(L3143094601L
L0L
(lp269
(lp270
tp271
a(L287687718L
L0L
(lp272
(lp273
tp274
a(L3360570486L
L0L
(lp275
(lp276
tp277
a(L3986273454L
L0L
(lp278
(lp279
tp280
a(L2994547433L
L0L
(lp281
(lp282
tp283
a(L3083373691L
L0L
(lp284
(lp285
tp286
a(L3012259860L
L3785322319L
(lp287
(lp288
Vesp_log_early_timestamp
p289
atp290
atp291
sI1074237468
(Vbootloader_mmap
p292
(lp293
(L4101837270L
L0L
(lp294
(lp295
tp296
a(L1032666940L
L3785322319L
(lp297
(lp298
Vesp_log_early_timestamp
p299
atp300
a(L1182811810L
L0L
(lp301
(lp302
tp303
a(L3496950L
L0L
(lp304
(lp305
tp306
a(L1649230001L
L0L
(lp307
(lp308
tp309
a(L3729021430L
L3785322319L
(lp310
(lp311
Vesp_log_early_timestamp
p312
atp313
a(L264945332L
L0L
(lp314
(lp315
tp316
a(L3772406441L
L3785322319L
(lp317
(lp318
Vesp_log_early_timestamp
p319
atp320
a(L2067699594L
L0L
(lp321
(lp322
tp323
atp324
sI1074241820
(Vprocess_segments
p325
(lp326
(L3883698409L
L0L
(lp327
(lp328
tp329
a(L2495454333L
L0L
(lp330
(lp331
tp332
a(L4578542L
L0L
(lp333
(lp334
tp335
a(L106L
L0L
(lp336
(lp337
tp338
a(L1315312493L
L0L
(lp339
(lp340
tp341
a(L2336176508L
L3785322319L
(lp342
(lp343
Vesp_log_early_timestamp
p344
atp345
a(L1440180646L
L3785322319L
(lp346
(lp347
Vbootloader_flash_read
p348
atp349
a(L1611320705L
L3785322319L
(lp350
(lp351
Vesp_log_early_timestamp
p352
atp353
a(L3360570486L
L0L
(lp354
(lp355
tp356
a(L234193771L
L0L
(lp357
(lp358
tp359
a(L1635713494L
L3785322319L
(lp360
(lp361
Vbootloader_sha256_data
p362
atp363
a(L926711887L
L0L
(lp364
(lp365
tp366
a(L790360741L
L0L
(lp367
(lp368
tp369
a(L3997307212L
L0L
(lp370
(lp371
tp372
a(L3802068284L
L0L
(lp373
(lp374
tp375
a(L2942462881L
L0L
(lp376
(lp377
tp378
a(L2258867228L
L0L
(lp379
(lp380
tp381
a(L1355332303L
L0L
(lp382
(lp383
tp384
a(L2965680995L
L0L
(lp385
(lp386
tp387
a(L1849436849L
L0L
(lp388
(lp389
tp390
a(L3435020321L
L3785322319L
(lp391
(lp392
Vesp_log_early_timestamp
p393
atp394
a(L3895303701L
L0L
(lp395
(lp396
tp397
a(L310091443L
L0L
(lp398
(lp399
tp400
a(L149120208L
L3785322319L
(lp401
(lp402
Vesp_log_early_timestamp
p403
atp404
a(L3982404358L
L3785322319L
(lp405
(lp406
Vverify_load_addresses
p407
atp408
a(L106L
L0L
(lp409
(lp410
tp411
a(L2300166925L
L0L
(lp412
(lp413
tp414
a(L2684012095L
L0L
(lp415
(lp416
tp417
a(L1905937838L
L3785322319L
(lp418
(lp419
Vbootloader_mmap
p420
atp421
a(L2674550455L
L3785322319L
(lp422
(lp423
Vesp_log_early_timestamp
p424
atp425
a(L3858925252L
L0L
(lp426
(lp427
tp428
a(L1982086160L
L0L
(lp429
(lp430
tp431
a(L1534276982L
L3785322319L
(lp432
(lp433
Vbootloader_munmap
p434
atp435
a(L3105361649L
L0L
(lp436
(lp437
tp438
a(L1216016797L
L3785322319L
(lp439
(lp440
Vbootloader_fill_random
p441
atp442
a(L3570641403L
L0L
(lp443
(lp444
tp445
a(L3574335487L
L0L
(lp446
(lp447
tp448
a(L3450268858L
L0L
(lp449
(lp450
tp451
a(L3021749L
L0L
(lp452
(lp453
tp454
a(L1609678444L
L0L
(lp455
(lp456
tp457
a(L1777728568L
L0L
(lp458
(lp459
tp460
a(L3020204L
L0L
(lp461
(lp462
tp463
a(L1478777665L
L0L
(lp464
(lp465
tp466
a(L2076461546L
L0L
(lp467
(lp468
tp469
a(L3832868376L
L0L
(lp470
(lp471
tp472
a(L1749969336L
L0L
(lp473
(lp474
tp475
a(L670934548L
L0L
(lp476
(lp477
tp478
a(L1903785265L
L3785322319L
(lp479
(lp480
Vbootloader_sha256_data
p481
atp482
a(L90548756L
L0L
(lp483
(lp484
tp485
a(L4195963580L
L0L
(lp486
(lp487
tp488
a(L2572638616L
L0L
(lp489
(lp490
tp491
a(L3740179196L
L0L
(lp492
(lp493
tp494
a(L233873941L
L3785322319L
(lp495
(lp496
Vshould_load
p497
atp498
a(L3070788781L
L0L
(lp499
(lp500
tp501
a(L1864178875L
L3785322319L
(lp502
(lp503
Vesp_log_early_timestamp
p504
atp505
a(L1836486280L
L0L
(lp506
(lp507
tp508
a(L2104869604L
L0L
(lp509
(lp510
tp511
a(L1178869281L
L0L
(lp512
(lp513
tp514
a(L2902417580L
L0L
(lp515
(lp516
tp517
a(L2636912524L
L0L
(lp518
(lp519
tp520
a(L4195318902L
L3785322319L
(lp521
(lp522
Vbootloader_mmap_get_free_pages
p523
atp524
a(L3028481L
L0L
(lp525
(lp526
tp527
a(L124545238L
L0L
(lp528
(lp529
tp530
atp531
sI1074248476
(Vrtc_clk_apb_freq_get
p532
(lp533
(L329563164L
L0L
(lp534
(lp535
tp536
atp537
sI1074268180
(Vbootloader_init
p538
(lp539
(L2956637306L
L3785322319L
(lp540
(lp541
Vbootloader_init_mem
p542
atp543
a(L1574759535L
L0L
(lp544
(lp545
tp546
a(L2505738386L
L3785322319L
(lp547
(lp548
V__assert_func
p549
atp550
a(L1991724622L
L0L
(lp551
(lp552
tp553
a(L966001373L
L0L
(lp554
(lp555
tp556
a(L2926278337L
L0L
(lp557
(lp558
tp559
a(L2369200439L
L0L
(lp560
(lp561
tp562
a(L3027019L
L0L
(lp563
(lp564
tp565
a(L273728577L
L0L
(lp566
(lp567
tp568
a(L2601175966L
L1832448559L
(lp569
(lp570
Vbootloader_clear_bss_section
p571
aVbootloader_common_vddsdio_configure
p572
aVbootloader_clock_get_rated_freq_mhz
p573
atp574
a(L3987130017L
L1157885199L
(lp575
(lp576
Vbootloader_clock_configure
p577
aVbootloader_console_init
p578
aVbootloader_print_banner
p579
aVbootloader_flash_update_id
p580
aVbootloader_flash_xmc_startup
p581
atp582
a(L454185234L
L3785322319L
(lp583
(lp584
Vesp_log_early_timestamp
p585
atp586
a(L2048639433L
L3785322319L
(lp587
(lp588
Vesp_log_early_timestamp
p589
atp590
a(L3360570486L
L0L
(lp591
(lp592
tp593
a(L2444883382L
L3785322319L
(lp594
(lp595
Vbootloader_read_bootloader_header
p596
atp597
a(L2444883382L
L3785322319L
(lp598
(lp599
Vbootloader_check_bootloader_validity
p600
atp601
a(L1134659662L
L267944800L
(lp602
(lp603
Vbootloader_flash_gpio_config
p604
aVbootloader_flash_dummy_config
p605
aVbootloader_flash_cs_timing_config
p606
aVbootloader_flash_unlock
p607
aVbootloader_enable_qio_mode
p608
aVesp_log_early_timestamp
p609
atp610
a(L1578764909L
L0L
(lp611
(lp612
tp613
a(L1618476312L
L0L
(lp614
(lp615
tp616
a(L1589847161L
L0L
(lp617
(lp618
tp619
a(L1571376741L
L0L
(lp620
(lp621
tp622
a(L3902505838L
L0L
(lp623
(lp624
tp625
a(L255306491L
L3785322319L
(lp626
(lp627
Vesp_log_early_timestamp
p628
atp629
a(L1787773517L
L0L
(lp630
(lp631
tp632
a(L2611896117L
L3785322319L
(lp633
(lp634
Vesp_log_early_timestamp
p635
atp636
a(L1613092619L
L0L
(lp637
(lp638
tp639
a(L2422570895L
L3785322319L
(lp640
(lp641
Vbootloader_enable_wp
p642
atp643
a(L282760458L
L0L
(lp644
(lp645
tp646
a(L2994055137L
L3785322319L
(lp647
(lp648
Vesp_log_early_timestamp
p649
atp650
a(L1328209163L
L0L
(lp651
(lp652
tp653
a(L502323150L
L0L
(lp654
(lp655
tp656
a(L2902417580L
L0L
(lp657
(lp658
tp659
a(L1944713791L
L1880226080L
(lp660
(lp661
Vwdt_reset_info_dump
p662
aVwdt_reset_info_dump
p663
atp664
a(L4235188628L
L1880226080L
(lp665
(lp666
Vbootloader_config_wdt
p667
aVbootloader_enable_random
p668
atp669
a(L3867148451L
L3785322319L
(lp670
(lp671
Vesp_log_early_timestamp
p672
atp673
atp674
sI1074269716
(Vbootloader_write_status_8b_xmc25qu64a
p675
(lp676
(L4034304435L
L1157885199L
(lp677
(lp678
Vbootloader_execute_flash_command
p679
aVesp_rom_spiflash_wait_idle
p680
aVbootloader_execute_flash_command
p681
aVesp_rom_spiflash_wait_idle
p682
aVbootloader_execute_flash_command
p683
atp684
atp685
sI1074270228
(Vbootloader_read_bootloader_header
p686
(lp687
(L1965707317L
L3785322319L
(lp688
(lp689
Vbootloader_flash_read
p690
atp691
a(L1342666945L
L3785322319L
(lp692
(lp693
Vesp_log_early_timestamp
p694
atp695
a(L735741265L
L0L
(lp696
(lp697
tp698
atp699
sI1074236696
(Vesp_rom_install_channel_putc
p700
(lp701
(L487865505L
L0L
(lp702
(lp703
tp704
a(L3020187L
L0L
(lp705
(lp706
tp707
a(L3360570486L
L0L
(lp708
(lp709
tp710
a(L4123957120L
L0L
(lp711
(lp712
tp713
a(L3627488788L
L0L
(lp714
(lp715
tp716
atp717
sI1074237976
(Vbootloader_flash_erase_sector
p718
(lp719
(L2049114289L
L3785322319L
(lp720
(lp721
Vesp_rom_spiflash_erase_sector
p722
atp723
a(L4127738745L
L0L
(lp724
(lp725
tp726
a(L3360570486L
L0L
(lp727
(lp728
tp729
atp730
sI1074239256
(Vbootloader_utility_load_partition_table
p731
(lp732
(L3347333331L
L3785322319L
(lp733
(lp734
Vbootloader_mmap
p735
atp736
a(L1428365196L
L3785322319L
(lp737
(lp738
Vesp_log_early_timestamp
p739
atp740
a(L2258688482L
L0L
(lp741
(lp742
tp743
a(L3360570486L
L0L
(lp744
(lp745
tp746
a(L2379286607L
L3785322319L
(lp747
(lp748
Vesp_partition_table_verify
p749
atp750
a(L2373960800L
L3785322319L
(lp751
(lp752
Vesp_log_early_timestamp
p753
atp754
a(L3501719726L
L1880226080L
(lp755
(lp756
Vesp_log_early_timestamp
p757
aVesp_log_early_timestamp
p758
atp759
a(L60599615L
L0L
(lp760
(lp761
tp762
a(L3214652505L
L1880226080L
(lp763
(lp764
Vbootloader_munmap
p765
aVesp_log_early_timestamp
p766
atp767
a(L4226553678L
L0L
(lp768
(lp769
tp770
a(L3028464L
L0L
(lp771
(lp772
tp773
a(L106L
L0L
(lp774
(lp775
tp776
a(L307915788L
L0L
(lp777
(lp778
tp779
a(L3616625116L
L3785322319L
(lp780
(lp781
Vesp_log_early_timestamp
p782
atp783
a(L3990577774L
L0L
(lp784
(lp785
tp786
a(L3020187L
L0L
(lp787
(lp788
tp789
a(L2563447427L
L0L
(lp790
(lp791
tp792
a(L1154512123L
L0L
(lp793
(lp794
tp795
a(L1112551755L
L0L
(lp796
(lp797
tp798
a(L1308290928L
L0L
(lp799
(lp800
tp801
a(L2202822289L
L0L
(lp802
(lp803
tp804
a(L1504681085L
L0L
(lp805
(lp806
tp807
a(L955456027L
L0L
(lp808
(lp809
tp810
atp811
sI1074267944
(Vbootloader_common_get_reset_reason
p812
(lp813
(L2221583904L
L0L
(lp814
(lp815
tp816
atp817
sI1074240288
(Vbootloader_debug_buffer
p818
(lp819
(L2100504542L
L0L
(lp820
(lp821
tp822
atp823
sI1074270496
(Vbootloader_print_banner
p824
(lp825
(L1580899149L
L1880226080L
(lp826
(lp827
Vesp_log_early_timestamp
p828
aVesp_log_early_timestamp
p829
atp830
atp831
sI1074240296
(Vbootloader_sha256_start
p832
(lp833
(L2006965050L
L0L
(lp834
(lp835
tp836
atp837
sI1074244648
(Vesp_rom_spiflash_write_encrypted
p838
(lp839
(L2107077087L
L0L
(lp840
(lp841
tp842
a(L1319589828L
L0L
(lp843
(lp844
tp845
a(L97689L
L0L
(lp846
(lp847
tp848
a(L3061232074L
L0L
(lp849
(lp850
tp851
a(L2822006780L
L0L
(lp852
(lp853
tp854
a(L2903314395L
L3785322319L
(lp855
(lp856
Vesp_rom_spiflash_write
p857
atp858
a(L1851200337L
L0L
(lp859
(lp860
tp861
a(L735741265L
L0L
(lp862
(lp863
tp864
atp865
sI1074246952
(Vrtc_clk_32k_enable
p866
(lp867
(L753387299L
L0L
(lp868
(lp869
tp870
a(L1067050752L
L3785322319L
(lp871
(lp872
Vrtc_clk_32k_enable_common
p873
atp874
a(L3360570486L
L0L
(lp875
(lp876
tp877
a(L1850531356L
L0L
(lp878
(lp879
tp880
atp881
sI1074267960
(Vwdt_reset_info_dump
p882
(lp883
(L4037466985L
L0L
(lp884
(lp885
tp886
a(L826419141L
L0L
(lp887
(lp888
tp889
a(L527117834L
L0L
(lp890
(lp891
tp892
a(L1103285333L
L0L
(lp893
(lp894
tp895
a(L897464656L
L3785322319L
(lp896
(lp897
Vesp_log_early_timestamp
p898
atp899
a(L1020249293L
L0L
(lp900
(lp901
tp902
a(L4142801364L
L3785322319L
(lp903
(lp904
Vesp_log_early_timestamp
p905
atp906
a(L2899013701L
L0L
(lp907
(lp908
tp909
atp910
sI1074241332
(Vverify_load_addresses
p911
(lp912
(L2763563698L
L0L
(lp913
(lp914
tp915
a(L106L
L0L
(lp916
(lp917
tp918
a(L97642L
L0L
(lp919
(lp920
tp921
a(L1948667597L
L3785322319L
(lp922
(lp923
V__assert_func
p924
atp925
a(L1143522018L
L0L
(lp926
(lp927
tp928
a(L106L
L0L
(lp929
(lp930
tp931
a(L2112096267L
L0L
(lp932
(lp933
tp934
a(L106L
L0L
(lp935
(lp936
tp937
a(L3523782570L
L3785322319L
(lp938
(lp939
Vbootloader_util_regions_overlap
p940
atp941
a(L2605817551L
L3785322319L
(lp942
(lp943
Vbootloader_util_regions_overlap
p944
atp945
a(L3028481L
L0L
(lp946
(lp947
tp948
a(L2946329814L
L3785322319L
(lp949
(lp950
Vbootloader_util_regions_overlap
p951
atp952
a(L1502100891L
L0L
(lp953
(lp954
tp955
a(L2387747879L
L0L
(lp956
(lp957
tp958
a(L3812607188L
L0L
(lp959
(lp960
tp961
a(L1378784754L
L0L
(lp962
(lp963
tp964
a(L642339957L
L0L
(lp965
(lp966
tp967
a(L677569396L
L3785322319L
(lp968
(lp969
Vverify_load_addresses
p970
atp971
a(L1351513776L
L0L
(lp972
(lp973
tp974
a(L1681779664L
L0L
(lp975
(lp976
tp977
a(L442864479L
L0L
(lp978
(lp979
tp980
a(L498862735L
L3785322319L
(lp981
(lp982
Vbootloader_util_regions_overlap
p983
atp984
a(L3028481L
L0L
(lp985
(lp986
tp987
a(L3990340598L
L3785322319L
(lp988
(lp989
Vbootloader_util_regions_overlap
p990
atp991
a(L2334313048L
L0L
(lp992
(lp993
tp994
a(L1728651739L
L0L
(lp995
(lp996
tp997
a(L938770818L
L0L
(lp998
(lp999
tp1000
a(L1654457071L
L0L
(lp1001
(lp1002
tp1003
a(L307918210L
L0L
(lp1004
(lp1005
tp1006
a(L697239146L
L0L
(lp1007
(lp1008
tp1009
a(L106L
L0L
(lp1010
(lp1011
tp1012
a(L955486314L
L0L
(lp1013
(lp1014
tp1015
a(L307916788L
L0L
(lp1016
(lp1017
tp1018
a(L490080443L
L0L
(lp1019
(lp1020
tp1021
a(L106L
L0L
(lp1022
(lp1023
tp1024
a(L2427388926L
L3785322319L
(lp1025
(lp1026
Vesp_log_early_timestamp
p1027
atp1028
a(L955485694L
L0L
(lp1029
(lp1030
tp1031
a(L1303560427L
L0L
(lp1032
(lp1033
tp1034
atp1035
sI1074238004
(Vbootloader_flash_write
p1036
(lp1037
(L3119145091L
L0L
(lp1038
(lp1039
tp1040
a(L962229776L
L3785322319L
(lp1041
(lp1042
Vesp_log_early_timestamp
p1043
atp1044
a(L44113432L
L0L
(lp1045
(lp1046
tp1047
a(L1610445075L
L0L
(lp1048
(lp1049
tp1050
a(L735741265L
L0L
(lp1051
(lp1052
tp1053
a(L3291333414L
L0L
(lp1054
(lp1055
tp1056
a(L2835528492L
L3785322319L
(lp1057
(lp1058
Vesp_log_early_timestamp
p1059
atp1060
a(L3283691850L
L0L
(lp1061
(lp1062
tp1063
a(L3823398198L
L3785322319L
(lp1064
(lp1065
Vesp_log_early_timestamp
p1066
atp1067
a(L3212356251L
L3785322319L
(lp1068
(lp1069
Vbootloader_flash_unlock
p1070
atp1071
a(L4210907913L
L0L
(lp1072
(lp1073
tp1074
a(L94425498L
L3785322319L
(lp1075
(lp1076
Vesp_rom_spiflash_write_encrypted
p1077
atp1078
a(L93674324L
L0L
(lp1079
(lp1080
tp1081
a(L645116258L
L0L
(lp1082
(lp1083
tp1084
a(L2927190544L
L3785322319L
(lp1085
(lp1086
Vesp_rom_spiflash_write
p1087
atp1088
atp1089
sI1074236732
(Vesp_rom_uart_tx_wait_idle
p1090
(lp1091
(L1747532367L
L0L
(lp1092
(lp1093
tp1094
a(L1301079727L
L0L
(lp1095
(lp1096
tp1097
a(L3597746521L
L0L
(lp1098
(lp1099
tp1100
a(L3694491048L
L0L
(lp1101
(lp1102
tp1103
a(L3055926844L
L0L
(lp1104
(lp1105
tp1106
a(L3360570486L
L0L
(lp1107
(lp1108
tp1109
atp1110
sI1074236988
(Vefuse_hal_get_minor_chip_version
p1111
(lp1112
(L529066928L
L0L
(lp1113
(lp1114
tp1115
atp1116
sI1074240316
(Vbootloader_sha256_data
p1117
(lp1118
(L4066096136L
L0L
(lp1119
(lp1120
tp1121
a(L3706168760L
L0L
(lp1122
(lp1123
tp1124
a(L3850111886L
L3785322319L
(lp1125
(lp1126
V__assert_func
p1127
atp1128
a(L498498478L
L0L
(lp1129
(lp1130
tp1131
a(L2969391571L
L0L
(lp1132
(lp1133
tp1134
a(L2910371777L
L0L
(lp1135
(lp1136
tp1137
a(L3360570486L
L0L
(lp1138
(lp1139
tp1140
a(L488887055L
L0L
(lp1141
(lp1142
tp1143
a(L841847518L
L0L
(lp1144
(lp1145
tp1146
a(L3145334428L
L0L
(lp1147
(lp1148
tp1149
a(L2638544423L
L0L
(lp1150
(lp1151
tp1152
a(L3339320094L
L0L
(lp1153
(lp1154
tp1155
a(L1390602840L
L0L
(lp1156
(lp1157
tp1158
a(L3028464L
L0L
(lp1159
(lp1160
tp1161
a(L3976622796L
L0L
(lp1162
(lp1163
tp1164
a(L4266904732L
L0L
(lp1165
(lp1166
tp1167
atp1168
sI1074243396
(Vesp_rom_spiflash_wait_idle
p1169
(lp1170
(L3233075721L
L0L
(lp1171
(lp1172
tp1173
a(L2023766174L
L0L
(lp1174
(lp1175
tp1176
a(L2805933678L
L0L
(lp1177
(lp1178
tp1179
a(L3086959262L
L0L
(lp1180
(lp1181
tp1182
a(L4161019926L
L3785322319L
(lp1183
(lp1184
Vesp_rom_spiflash_read_status
p1185
atp1186
atp1187
sI1074238276
(Vbootloader_random_disable
p1188
(lp1189
(L2124996308L
L0L
(lp1190
(lp1191
tp1192
atp1193
sI1074269772
(Vbootloader_enable_qio_mode
p1194
(lp1195
(L4231490112L
L3785322319L
(lp1196
(lp1197
Vesp_rom_spiflash_wait_idle
p1198
atp1199
a(L2667357231L
L0L
(lp1200
(lp1201
tp1202
a(L3274976L
L0L
(lp1203
(lp1204
tp1205
a(L97422L
L0L
(lp1206
(lp1207
tp1208
a(L106L
L0L
(lp1209
(lp1210
tp1211
a(L1828827831L
L0L
(lp1212
(lp1213
tp1214
a(L106L
L0L
(lp1215
(lp1216
tp1217
a(L2848173112L
L3785322319L
(lp1218
(lp1219
Vesp_log_early_timestamp
p1220
atp1221
a(L560552398L
L3785322319L
(lp1222
(lp1223
Vesp_rom_spiflash_wait_idle
p1224
atp1225
a(L2634627926L
L1880226080L
(lp1226
(lp1227
Vbootloader_execute_flash_command
p1228
aVesp_rom_spiflash_wait_idle
p1229
atp1230
a(L1936492605L
L3785322319L
(lp1231
(lp1232
Vesp_log_early_timestamp
p1233
atp1234
a(L3360570486L
L0L
(lp1235
(lp1236
tp1237
a(L207341303L
L3785322319L
(lp1238
(lp1239
Vesp_log_early_timestamp
p1240
atp1241
a(L914238452L
L1880226080L
(lp1242
(lp1243
Vesp_rom_spiflash_config_readmode
p1244
aVbootloader_flash_get_wp_pin
p1245
atp1246
atp1247
sI1074270272
(Vbootloader_check_bootloader_validity
p1248
(lp1249
(L2624847884L
L1832448559L
(lp1250
(lp1251
Vefuse_hal_chip_revision
p1252
aVesp_log_early_timestamp
p1253
aVbootloader_common_check_chip_validity
p1254
atp1255
atp1256
sI1074237004
(Vis_xmc_chip_strict
p1257
(lp1258
(L1286841609L
L0L
(lp1259
(lp1260
tp1261
a(L2234016759L
L0L
(lp1262
(lp1263
tp1264
a(L1069027148L
L0L
(lp1265
(lp1266
tp1267
a(L3021749L
L0L
(lp1268
(lp1269
tp1270
a(L1900148749L
L0L
(lp1271
(lp1272
tp1273
a(L1936875721L
L0L
(lp1274
(lp1275
tp1276
a(L3356166509L
L0L
(lp1277
(lp1278
tp1279
a(L1937769451L
L0L
(lp1280
(lp1281
tp1282
a(L2137658907L
L0L
(lp1283
(lp1284
tp1285
a(L4265949734L
L0L
(lp1286
(lp1287
tp1288
a(L3360570486L
L0L
(lp1289
(lp1290
tp1291
atp1292
sI1074270788
(Vrtc_clk_init
p1293
(lp1294
(L2270943738L
L0L
(lp1295
(lp1296
tp1297
a(L42671777L
L3785322319L
(lp1298
(lp1299
Vrtc_clk_cpu_freq_to_xtal
p1300
atp1301
a(L243604311L
L0L
(lp1302
(lp1303
tp1304
a(L4184912069L
L0L
(lp1305
(lp1306
tp1307
a(L2873281153L
L0L
(lp1308
(lp1309
tp1310
a(L912414356L
L3785322319L
(lp1311
(lp1312
Vrtc_clk_xtal_freq_get
p1313
atp1314
a(L101925704L
L1157885199L
(lp1315
(lp1316
Vesp_rom_uart_tx_wait_idle
p1317
aVrtc_clk_xtal_freq_update
p1318
aVrtc_clk_apb_freq_update
p1319
aVrtc_clk_cpu_freq_get_config
p1320
aVrtc_clk_cpu_freq_mhz_to_config
p1321
atp1322
a(L2961279728L
L1880226080L
(lp1323
(lp1324
Vesp_log_early_timestamp
p1325
aVabort
p1326
atp1327
a(L4187693717L
L3785322319L
(lp1328
(lp1329
Vrtc_clk_xtal_freq_estimate
p1330
atp1331
a(L1574109692L
L3785322319L
(lp1332
(lp1333
Vesp_log_early_timestamp
p1334
atp1335
a(L4188325301L
L0L
(lp1336
(lp1337
tp1338
a(L1563923531L
L0L
(lp1339
(lp1340
tp1341
a(L106L
L0L
(lp1342
(lp1343
tp1344
a(L4070631878L
L3785322319L
(lp1345
(lp1346
Vrtc_clk_xtal_freq_estimate
p1347
atp1348
a(L106L
L0L
(lp1349
(lp1350
tp1351
a(L832370156L
L3785322319L
(lp1352
(lp1353
Vesp_log_early_timestamp
p1354
atp1355
a(L510266627L
L3785322319L
(lp1356
(lp1357
Vrtc_clk_cpu_freq_set_config
p1358
atp1359
a(L4168829660L
L3785322319L
(lp1360
(lp1361
Vrtc_clk_32k_enable
p1362
atp1363
a(L3016870L
L0L
(lp1364
(lp1365
tp1366
a(L1839546177L
L3785322319L
(lp1367
(lp1368
Vrtc_clk_8m_enable
p1369
atp1370
a(L530469956L
L1880226080L
(lp1371
(lp1372
Vrtc_clk_fast_freq_set
p1373
aVrtc_clk_slow_freq_set
p1374
atp1375
atp1376
sI1074247752
(Vrtc_clk_xtal_freq_get
p1377
(lp1378
(L2398469124L
L0L
(lp1379
(lp1380
tp1381
a(L2847936993L
L0L
(lp1382
(lp1383
tp1384
a(L986107750L
L0L
(lp1385
(lp1386
tp1387
a(L3360570486L
L0L
(lp1388
(lp1389
tp1390
atp1391
sI1074235720
(Vbootloader_read_flash_id
p1392
(lp1393
(L3925322170L
L3785322319L
(lp1394
(lp1395
Vbootloader_execute_flash_command
p1396
atp1397
atp1398
sI1074248008
(Vrtc_clk_xtal_freq_update
p1399
(lp1400
(L3099500630L
L0L
(lp1401
(lp1402
tp1403
a(L3509357017L
L0L
(lp1404
(lp1405
tp1406
a(L3020103887L
L0L
(lp1407
(lp1408
tp1409
atp1410
sI1074248520
(Vrtc_clk_cal_internal
p1411
(lp1412
(L2914340137L
L0L
(lp1413
(lp1414
tp1415
a(L2590706704L
L3785322319L
(lp1416
(lp1417
V__assert_func
p1418
atp1419
a(L760669919L
L0L
(lp1420
(lp1421
tp1422
a(L3017366L
L0L
(lp1423
(lp1424
tp1425
a(L2781091364L
L0L
(lp1426
(lp1427
tp1428
a(L4169864463L
L1880226080L
(lp1429
(lp1430
Vrtc_clk_8m_enabled
p1431
aVrtc_clk_8md256_enabled
p1432
atp1433
a(L2087107833L
L3785322319L
(lp1434
(lp1435
Vrtc_clk_8m_enable
p1436
atp1437
a(L2355289148L
L0L
(lp1438
(lp1439
tp1440
a(L3502850147L
L0L
(lp1441
(lp1442
tp1443
a(L97689L
L0L
(lp1444
(lp1445
tp1446
a(L2669857761L
L0L
(lp1447
(lp1448
tp1449
a(L3028464L
L0L
(lp1450
(lp1451
tp1452
a(L3028481L
L0L
(lp1453
(lp1454
tp1455
a(L3450259786L
L0L
(lp1456
(lp1457
tp1458
a(L218721037L
L3785322319L
(lp1459
(lp1460
Vrtc_clk_xtal_freq_get
p1461
atp1462
a(L2780079961L
L0L
(lp1463
(lp1464
tp1465
a(L3273041347L
L0L
(lp1466
(lp1467
tp1468
a(L3271455359L
L3785322319L
(lp1469
(lp1470
Vesp_log_early_timestamp
p1471
atp1472
a(L3360570486L
L0L
(lp1473
(lp1474
tp1475
a(L3199255030L
L0L
(lp1476
(lp1477
tp1478
a(L748565485L
L0L
(lp1479
(lp1480
tp1481
a(L3028481L
L0L
(lp1482
(lp1483
tp1484
a(L3480512071L
L0L
(lp1485
(lp1486
tp1487
a(L755155573L
L3785322319L
(lp1488
(lp1489
Vrtc_clk_8m_enable
p1490
atp1491
a(L3631005548L
L0L
(lp1492
(lp1493
tp1494
a(L4169582846L
L0L
(lp1495
(lp1496
tp1497
a(L3352263364L
L0L
(lp1498
(lp1499
tp1500
atp1501
sI1074236500
(Vbootloader_flash_dummy_config
p1502
(lp1503
(L132211179L
L0L
(lp1504
(lp1505
tp1506
a(L2761717557L
L0L
(lp1507
(lp1508
tp1509
a(L705371371L
L0L
(lp1510
(lp1511
tp1512
a(L2971458626L
L0L
(lp1513
(lp1514
tp1515
a(L1491210540L
L0L
(lp1516
(lp1517
tp1518
a(L3081491917L
L0L
(lp1519
(lp1520
tp1521
a(L1610443405L
L0L
(lp1522
(lp1523
tp1524
a(L4102729993L
L0L
(lp1525
(lp1526
tp1527
a(L1449490182L
L0L
(lp1528
(lp1529
tp1530
a(L1298875775L
L0L
(lp1531
(lp1532
tp1533
a(L3880393601L
L0L
(lp1534
(lp1535
tp1536
a(L1505818087L
L0L
(lp1537
(lp1538
tp1539
a(L1610443436L
L0L
(lp1540
(lp1541
tp1542
atp1543
sI1074246480
(Vwdt_hal_set_flashboot_en
p1544
(lp1545
(L2375320464L
L0L
(lp1546
(lp1547
tp1548
a(L2716561907L
L0L
(lp1549
(lp1550
tp1551
a(L3360570486L
L0L
(lp1552
(lp1553
tp1554
a(L2746210438L
L0L
(lp1555
(lp1556
tp1557
atp1558
sI1074269520
(Vbootloader_read_status_8b_rdsr
p1559
(lp1560
(L1945786777L
L3785322319L
(lp1561
(lp1562
Vbootloader_execute_flash_command
p1563
atp1564
atp1565
sI1074270544
(Vbootloader_console_init
p1566
(lp1567
(L2541508329L
L2485746240L
(lp1568
(lp1569
Vesp_rom_install_channel_putc
p1570
aVesp_rom_uart_tx_wait_idle
p1571
aVrtc_clk_apb_freq_get
p1572
aVesp_rom_uart_set_clock_baudrate
p1573
atp1574
atp1575
sI1074247256
(Vrtc_clk_slow_freq_get
p1576
(lp1577
(L2298322700L
L0L
(lp1578
(lp1579
tp1580
atp1581
sI1074269032
(Vbootloader_init_mem
p1582
(lp1583
(L1511720305L
L3785322319L
(lp1584
(lp1585
Vesp_cpu_configure_region_protection
p1586
atp1587
atp1588
sI1074269544
(Vbootloader_read_status_8b_rdsr2
p1589
(lp1590
(L3746738790L
L3785322319L
(lp1591
(lp1592
Vbootloader_execute_flash_command
p1593
atp1594
atp1595
sI1074247012
(Vrtc_clk_8m_enable
p1596
(lp1597
(L2735071104L
L0L
(lp1598
(lp1599
tp1600
a(L3629281444L
L0L
(lp1601
(lp1602
tp1603
a(L2151320156L
L0L
(lp1604
(lp1605
tp1606
a(L1391734358L
L0L
(lp1607
(lp1608
tp1609
a(L3360570486L
L0L
(lp1610
(lp1611
tp1612
a(L1318267208L
L0L
(lp1613
(lp1614
tp1615
a(L3756830125L
L0L
(lp1616
(lp1617
tp1618
atp1619
sI1074239072
(Vset_actual_ota_seq
p1620
(lp1621
(L368664720L
L3785322319L
(lp1622
(lp1623
Vbootloader_common_ota_select_crc
p1624
atp1625
a(L3028481L
L0L
(lp1626
(lp1627
tp1628
a(L3329366564L
L3785322319L
(lp1629
(lp1630
Vbootloader_flash_erase_sector
p1631
atp1632
a(L2908486002L
L3785322319L
(lp1633
(lp1634
Vbootloader_flash_write
p1635
atp1636
a(L1059000425L
L3785322319L
(lp1637
(lp1638
Vesp_log_early_timestamp
p1639
atp1640
a(L878941328L
L3785322319L
(lp1641
(lp1642
Vesp_log_early_timestamp
p1643
atp1644
a(L3016870L
L0L
(lp1645
(lp1646
tp1647
a(L3971861743L
L0L
(lp1648
(lp1649
tp1650
a(L957607403L
L0L
(lp1651
(lp1652
tp1653
atp1654
sI1074240864
(Vprocess_checksum
p1655
(lp1656
(L1985325516L
L0L
(lp1657
(lp1658
tp1659
a(L2910371777L
L0L
(lp1660
(lp1661
tp1662
a(L1649277394L
L0L
(lp1663
(lp1664
tp1665
a(L2910371777L
L0L
(lp1666
(lp1667
tp1668
a(L2902417580L
L0L
(lp1669
(lp1670
tp1671
a(L1644002876L
L3785322319L
(lp1672
(lp1673
Vbootloader_sha256_data
p1674
atp1675
a(L3612796056L
L0L
(lp1676
(lp1677
tp1678
a(L1811888222L
L3785322319L
(lp1679
(lp1680
Vbootloader_flash_read
p1681
atp1682
a(L3126521138L
L0L
(lp1683
(lp1684
tp1685
a(L4209738910L
L0L
(lp1686
(lp1687
tp1688
a(L1890037739L
L3785322319L
(lp1689
(lp1690
Vesp_log_early_timestamp
p1691
atp1692
atp1693
sI1074245472
(Vwdt_hal_init
p1694
(lp1695
(L1193002617L
L0L
(lp1696
(lp1697
tp1698
a(L444864374L
L0L
(lp1699
(lp1700
tp1701
a(L2805935104L
L0L
(lp1702
(lp1703
tp1704
a(L2638639155L
L0L
(lp1705
(lp1706
tp1707
a(L364323785L
L0L
(lp1708
(lp1709
tp1710
a(L3360570486L
L0L
(lp1711
(lp1712
tp1713
a(L3003035358L
L0L
(lp1714
(lp1715
tp1716
atp1717
sI1074243692
(Vesp_rom_spiflash_config_readmode
p1718
(lp1719
(L2433196715L
L0L
(lp1720
(lp1721
tp1722
a(L673774382L
L0L
(lp1723
(lp1724
tp1725
a(L2805933678L
L0L
(lp1726
(lp1727
tp1728
a(L2788187696L
L0L
(lp1729
(lp1730
tp1731
a(L3949266062L
L0L
(lp1732
(lp1733
tp1734
a(L1724859947L
L0L
(lp1735
(lp1736
tp1737
a(L857022552L
L0L
(lp1738
(lp1739
tp1740
a(L3336516929L
L0L
(lp1741
(lp1742
tp1743
a(L3215973964L
L0L
(lp1744
(lp1745
tp1746
a(L3542583285L
L0L
(lp1747
(lp1748
tp1749
a(L106L
L0L
(lp1750
(lp1751
tp1752
a(L2425968732L
L0L
(lp1753
(lp1754
tp1755
a(L3887537959L
L0L
(lp1756
(lp1757
tp1758
a(L2993202392L
L0L
(lp1759
(lp1760
tp1761
a(L3016870L
L0L
(lp1762
(lp1763
tp1764
a(L152637835L
L0L
(lp1765
(lp1766
tp1767
a(L968894497L
L0L
(lp1768
(lp1769
tp1770
a(L399498968L
L0L
(lp1771
(lp1772
tp1773
a(L3742931569L
L0L
(lp1774
(lp1775
tp1776
a(L399500433L
L0L
(lp1777
(lp1778
tp1779
a(L75957818L
L0L
(lp1780
(lp1781
tp1782
a(L403734373L
L0L
(lp1783
(lp1784
tp1785
a(L846476552L
L0L
(lp1786
(lp1787
tp1788
a(L1026869427L
L0L
(lp1789
(lp1790
tp1791
atp1792
sI1074247272
(Vrtc_clk_slow_freq_get_hz
p1793
(lp1794
(L2709915567L
L0L
(lp1795
(lp1796
tp1797
a(L1292598526L
L0L
(lp1798
(lp1799
tp1800
a(L3360570486L
L0L
(lp1801
(lp1802
tp1803
atp1804
sI1074269048
(Vbootloader_random_enable
p1805
(lp1806
(L2681459775L
L0L
(lp1807
(lp1808
tp1809
atp1810
sI1074235764
(Vbootloader_flash_xmc_startup
p1811
(lp1812
(L4031258446L
L3785322319L
(lp1813
(lp1814
Vis_xmc_chip_strict
p1815
atp1816
a(L2258688482L
L0L
(lp1817
(lp1818
tp1819
a(L3360570486L
L0L
(lp1820
(lp1821
tp1822
a(L2860324232L
L3785322319L
(lp1823
(lp1824
Vbootloader_flash_read_sfdp
p1825
atp1826
a(L3354428414L
L2567856111L
(lp1827
(lp1828
Vesp_log_early_timestamp
p1829
aVbootloader_execute_flash_command
p1830
aVbootloader_execute_flash_command
p1831
aVbootloader_execute_flash_command
p1832
aVbootloader_execute_flash_command
p1833
aVbootloader_read_flash_id
p1834
aVis_xmc_chip_strict
p1835
atp1836
a(L3332645139L
L3785322319L
(lp1837
(lp1838
Vesp_log_early_timestamp
p1839
atp1840
atp1841
sI1074243444
(Vesp_rom_spiflash_enable_write
p1842
(lp1843
(L1680383254L
L3785322319L
(lp1844
(lp1845
Vesp_rom_spiflash_wait_idle
p1846
atp1847
a(L3137194272L
L0L
(lp1848
(lp1849
tp1850
a(L2258718275L
L0L
(lp1851
(lp1852
tp1853
a(L99543895L
L0L
(lp1854
(lp1855
tp1856
a(L2993202392L
L0L
(lp1857
(lp1858
tp1859
a(L1804543818L
L3785322319L
(lp1860
(lp1861
Vesp_rom_spiflash_read_status
p1862
atp1863
atp1864
sI1074248052
(Vrtc_clk_apb_freq_update
p1865
(lp1866
(L32522058L
L0L
(lp1867
(lp1868
tp1869
atp1870
sI1074247792
(Vrtc_clk_cpu_freq_mhz_to_config
p1871
(lp1872
(L2601984125L
L3785322319L
(lp1873
(lp1874
Vrtc_clk_xtal_freq_get
p1875
atp1876
a(L2089656409L
L0L
(lp1877
(lp1878
tp1879
a(L3814337874L
L0L
(lp1880
(lp1881
tp1882
a(L3126521138L
L0L
(lp1883
(lp1884
tp1885
a(L2762074623L
L0L
(lp1886
(lp1887
tp1888
a(L1541996779L
L0L
(lp1889
(lp1890
tp1891
a(L2916936348L
L0L
(lp1892
(lp1893
tp1894
a(L1555485793L
L0L
(lp1895
(lp1896
tp1897
a(L2258897023L
L0L
(lp1898
(lp1899
tp1900
a(L1947499251L
L0L
(lp1901
(lp1902
tp1903
a(L1306331021L
L0L
(lp1904
(lp1905
tp1906
atp1907
sI1074270576
(Vesp_cpu_configure_region_protection
p1908
(lp1909
(L921839964L
L0L
(lp1910
(lp1911
tp1912
a(L180431425L
L3785322319L
(lp1913
(lp1914
Vmpu_hal_set_region_access
p1915
atp1916
a(L2537388152L
L3785322319L
(lp1917
(lp1918
Vmpu_hal_set_region_access
p1919
atp1920
atp1921
sI1074244476
(Vesp_rom_spiflash_write
p1922
(lp1923
(L3856055270L
L0L
(lp1924
(lp1925
tp1926
a(L2258688483L
L0L
(lp1927
(lp1928
tp1929
a(L3360570486L
L0L
(lp1930
(lp1931
tp1932
a(L1590344338L
L0L
(lp1933
(lp1934
tp1935
a(L3106685987L
L0L
(lp1936
(lp1937
tp1938
a(L4249336406L
L3785322319L
(lp1939
(lp1940
Vesp_rom_spiflash_program_page_internal
p1941
atp1942
a(L1915738254L
L3785322319L
(lp1943
(lp1944
Vesp_rom_spiflash_program_page_internal
p1945
atp1946
a(L663507325L
L0L
(lp1947
(lp1948
tp1949
a(L2392967593L
L0L
(lp1950
(lp1951
tp1952
a(L564470687L
L0L
(lp1953
(lp1954
tp1955
a(L154459701L
L3785322319L
(lp1956
(lp1957
Vesp_rom_spiflash_program_page_internal
p1958
atp1959
a(L2079643754L
L0L
(lp1960
(lp1961
tp1962
atp1963
sI1074236796
(Vesp_rom_uart_set_clock_baudrate
p1964
(lp1965
(L3861262560L
L0L
(lp1966
(lp1967
tp1968
a(L3917339996L
L0L
(lp1969
(lp1970
tp1971
a(L1008980076L
L0L
(lp1972
(lp1973
tp1974
a(L890400028L
L0L
(lp1975
(lp1976
tp1977
a(L2805931419L
L0L
(lp1978
(lp1979
tp1980
a(L2136660087L
L0L
(lp1981
(lp1982
tp1983
atp1984
sI1074270344
(Vbootloader_config_wdt
p1985
(lp1986
(L2212638462L
L505859776L
(lp1987
(lp1988
Vwdt_hal_write_protect_disable
p1989
aVwdt_hal_set_flashboot_en
p1990
aVwdt_hal_write_protect_enable
p1991
aVwdt_hal_init
p1992
aVrtc_clk_slow_freq_get_hz
p1993
aVwdt_hal_write_protect_disable
p1994
aVwdt_hal_config_stage
p1995
aVwdt_hal_enable
p1996
aVwdt_hal_write_protect_enable
p1997
aVwdt_hal_write_protect_disable
p1998
aVwdt_hal_set_flashboot_en
p1999
aVwdt_hal_write_protect_enable
p2000
atp2001
atp2002
sI1074236032
(Vbootloader_flash_gpio_config
p2003
(lp2004
(L719792650L
L3785322319L
(lp2005
(lp2006
Vbootloader_common_get_chip_ver_pkg
p2007
atp2008
a(L106L
L0L
(lp2009
(lp2010
tp2011
a(L2886083034L
L0L
(lp2012
(lp2013
tp2014
a(L106L
L0L
(lp2015
(lp2016
tp2017
a(L4213870169L
L0L
(lp2018
(lp2019
tp2020
a(L3890032189L
L0L
(lp2021
(lp2022
tp2023
a(L106L
L0L
(lp2024
(lp2025
tp2026
a(L676119430L
L0L
(lp2027
(lp2028
tp2029
a(L4272081986L
L0L
(lp2030
(lp2031
tp2032
a(L3360570486L
L0L
(lp2033
(lp2034
tp2035
atp2036
sI1074238592
(Vbootloader_clock_get_rated_freq_mhz
p2037
(lp2038
(L376617603L
L3785322319L
(lp2039
(lp2040
Vefuse_hal_get_rated_freq_mhz
p2041
atp2042
atp2043
sI1074244736
(Vesp_rom_spiflash_read
p2044
(lp2045
(L1879270061L
L0L
(lp2046
(lp2047
tp2048
a(L2747348271L
L0L
(lp2049
(lp2050
tp2051
a(L2860271684L
L0L
(lp2052
(lp2053
tp2054
a(L3017366L
L0L
(lp2055
(lp2056
tp2057
a(L106L
L0L
(lp2058
(lp2059
tp2060
a(L2778783283L
L0L
(lp2061
(lp2062
tp2063
a(L106L
L0L
(lp2064
(lp2065
tp2066
a(L454441138L
L0L
(lp2067
(lp2068
tp2069
a(L1317945662L
L0L
(lp2070
(lp2071
tp2072
a(L3194045301L
L0L
(lp2073
(lp2074
tp2075
a(L3537851620L
L0L
(lp2076
(lp2077
tp2078
a(L106L
L0L
(lp2079
(lp2080
tp2081
a(L2220513614L
L3785322319L
(lp2082
(lp2083
Vesp_rom_spiflash_wait_idle
p2084
atp2085
a(L3021737L
L0L
(lp2086
(lp2087
tp2088
a(L106L
L0L
(lp2089
(lp2090
tp2091
a(L1868280504L
L0L
(lp2092
(lp2093
tp2094
a(L106L
L0L
(lp2095
(lp2096
tp2097
a(L3736481532L
L0L
(lp2098
(lp2099
tp2100
a(L1221163038L
L0L
(lp2101
(lp2102
tp2103
a(L4122060822L
L0L
(lp2104
(lp2105
tp2106
a(L121253891L
L0L
(lp2107
(lp2108
tp2109
a(L2989032L
L0L
(lp2110
(lp2111
tp2112
a(L3819849625L
L0L
(lp2113
(lp2114
tp2115
a(L930012754L
L0L
(lp2116
(lp2117
tp2118
a(L148832868L
L0L
(lp2119
(lp2120
tp2121
a(L3901820665L
L0L
(lp2122
(lp2123
tp2124
a(L2787544786L
L0L
(lp2125
(lp2126
tp2127
a(L1896415737L
L0L
(lp2128
(lp2129
tp2130
a(L1522202953L
L0L
(lp2131
(lp2132
tp2133
a(L655053337L
L0L
(lp2134
(lp2135
tp2136
a(L828676266L
L0L
(lp2137
(lp2138
tp2139
a(L2267384310L
L0L
(lp2140
(lp2141
tp2142
a(L2696140277L
L0L
(lp2143
(lp2144
tp2145
a(L2687789892L
L0L
(lp2146
(lp2147
tp2148
a(L1405253496L
L0L
(lp2149
(lp2150
tp2151
a(L2402829682L
L0L
(lp2152
(lp2153
tp2154
a(L97689L
L0L
(lp2155
(lp2156
tp2157
a(L2258897019L
L0L
(lp2158
(lp2159
tp2160
a(L4014024819L
L0L
(lp2161
(lp2162
tp2163
a(L3621567083L
L0L
(lp2164
(lp2165
tp2166
atp2167
sI1074269568
(Vbootloader_read_status_16b_rdsr_rdsr2
p2168
(lp2169
(L2652824119L
L1880226080L
(lp2170
(lp2171
Vbootloader_execute_flash_command
p2172
aVbootloader_execute_flash_command
p2173
atp2174
atp2175
sI1074238604
(Vload_image
p2176
(lp2177
(L3679617832L
L1832448559L
(lp2178
(lp2179
Vesp_log_early_timestamp
p2180
aVbootloader_random_disable
p2181
aVbootloader_ana_clock_glitch_reset_config
p2182
atp2183
a(L2118498116L
L0L
(lp2184
(lp2185
tp2186
a(L106L
L0L
(lp2187
(lp2188
tp2189
a(L646834872L
L0L
(lp2190
(lp2191
tp2192
a(L751966648L
L0L
(lp2193
(lp2194
tp2195
a(L3268103L
L0L
(lp2196
(lp2197
tp2198
a(L4243721858L
L3785322319L
(lp2199
(lp2200
Vbootloader_console_deinit
p2201
atp2202
a(L2307067884L
L0L
(lp2203
(lp2204
tp2205
a(L3020204L
L0L
(lp2206
(lp2207
tp2208
a(L2722520990L
L3785322319L
(lp2209
(lp2210
Vesp_log_early_timestamp
p2211
atp2212
a(L117980938L
L0L
(lp2213
(lp2214
tp2215
a(L1341709798L
L0L
(lp2216
(lp2217
tp2218
a(L3020204L
L0L
(lp2219
(lp2220
tp2221
a(L1017231636L
L3785322319L
(lp2222
(lp2223
Vesp_log_early_timestamp
p2224
atp2225
a(L233635238L
L0L
(lp2226
(lp2227
tp2228
a(L2488949783L
L0L
(lp2229
(lp2230
tp2231
atp2232
sI1074239628
(Vbootloader_utility_get_selected_boot_partition
p2233
(lp2234
(L2184143128L
L0L
(lp2235
(lp2236
tp2237
a(L3692243288L
L0L
(lp2238
(lp2239
tp2240
a(L2680964923L
L3785322319L
(lp2241
(lp2242
Vesp_log_early_timestamp
p2243
atp2244
a(L4026981588L
L0L
(lp2245
(lp2246
tp2247
a(L3360570486L
L0L
(lp2248
(lp2249
tp2250
a(L1375577398L
L3785322319L
(lp2251
(lp2252
Vbootloader_mmap
p2253
atp2254
a(L3668557470L
L3785322319L
(lp2255
(lp2256
Vesp_log_early_timestamp
p2257
atp2258
a(L2805858128L
L1880226080L
(lp2259
(lp2260
Vbootloader_munmap
p2261
aVbootloader_common_ota_select_invalid
p2262
atp2263
a(L1103573946L
L0L
(lp2264
(lp2265
tp2266
a(L1876835593L
L3785322319L
(lp2267
(lp2268
Vbootloader_common_get_active_otadata
p2269
atp2270
a(L106L
L0L
(lp2271
(lp2272
tp2273
a(L569346373L
L0L
(lp2274
(lp2275
tp2276
a(L788494392L
L3785322319L
(lp2277
(lp2278
Vbootloader_common_ota_select_invalid
p2279
atp2280
a(L2675958250L
L0L
(lp2281
(lp2282
tp2283
a(L3279694738L
L3785322319L
(lp2284
(lp2285
Vesp_log_early_timestamp
p2286
atp2287
a(L1231248995L
L3785322319L
(lp2288
(lp2289
Vesp_log_early_timestamp
p2290
atp2291
a(L505081345L
L0L
(lp2292
(lp2293
tp2294
a(L919052234L
L3785322319L
(lp2295
(lp2296
Vbootloader_common_ota_select_crc
p2297
atp2298
a(L2287680455L
L0L
(lp2299
(lp2300
tp2301
a(L3542558037L
L3785322319L
(lp2302
(lp2303
Vbootloader_common_ota_select_crc
p2304
atp2305
a(L1299866312L
L0L
(lp2306
(lp2307
tp2308
a(L3205436778L
L0L
(lp2309
(lp2310
tp2311
a(L520767689L
L3785322319L
(lp2312
(lp2313
Vesp_log_early_timestamp
p2314
atp2315
a(L1367516498L
L0L
(lp2316
(lp2317
tp2318
a(L4142618365L
L3785322319L
(lp2319
(lp2320
Vesp_log_early_timestamp
p2321
atp2322
atp2323
sI1074237320
(Vbootloader_common_get_active_otadata
p2324
(lp2325
(L3317503532L
L0L
(lp2326
(lp2327
tp2328
a(L2503049265L
L1832448559L
(lp2329
(lp2330
Vbootloader_common_ota_select_valid
p2331
aVbootloader_common_ota_select_valid
p2332
aVbootloader_common_select_otadata
p2333
atp2334
a(L735741265L
L0L
(lp2335
(lp2336
tp2337
atp2338
sI1074247304
(Vrtc_clk_fast_freq_set
p2339
(lp2340
(L2810955530L
L0L
(lp2341
(lp2342
tp2343
atp2344
sI1074246548
(Vwdt_hal_write_protect_enable
p2345
(lp2346
(L387778158L
L0L
(lp2347
(lp2348
tp2349
a(L4195472003L
L0L
(lp2350
(lp2351
tp2352
a(L3360570486L
L0L
(lp2353
(lp2354
tp2355
a(L802523425L
L0L
(lp2356
(lp2357
tp2358
atp2359
sI1074237076
(Vesp_log_early_timestamp
p2360
(lp2361
(L677791546L
L0L
(lp2362
(lp2363
tp2364
atp2365
sI1074248080
(Vrtc_clk_cpu_freq_to_xtal
p2366
(lp2367
(L2818151490L
L3785322319L
(lp2368
(lp2369
Vrtc_clk_apb_freq_update
p2370
atp2371
a(L702736306L
L0L
(lp2372
(lp2373
tp2374
a(L277445412L
L0L
(lp2375
(lp2376
tp2377
a(L309988740L
L0L
(lp2378
(lp2379
tp2380
atp2381
sI1074269608
(Vbootloader_write_status_8b_wrsr
p2382
(lp2383
(L3692606543L
L3785322319L
(lp2384
(lp2385
Vbootloader_execute_flash_command
p2386
atp2387
atp2388
sI1074240676
(Vbootloader_console_deinit
p2389
(lp2390
(L2887876151L
L0L
(lp2391
(lp2392
tp2393
atp2394
sI1074241700
(Vshould_load
p2395
(lp2396
(L3456036353L
L0L
(lp2397
(lp2398
tp2399
a(L1182990556L
L0L
(lp2400
(lp2401
tp2402
a(L1780902349L
L0L
(lp2403
(lp2404
tp2405
a(L1298905564L
L0L
(lp2406
(lp2407
tp2408
a(L524505062L
L0L
(lp2409
(lp2410
tp2411
a(L2258897019L
L0L
(lp2412
(lp2413
tp2414
a(L3781799363L
L0L
(lp2415
(lp2416
tp2417
a(L3028464L
L0L
(lp2418
(lp2419
tp2420
a(L3549473510L
L0L
(lp2421
(lp2422
tp2423
a(L467019899L
L0L
(lp2424
(lp2425
tp2426
a(L307469760L
L0L
(lp2427
(lp2428
tp2429
a(L4185756579L
L0L
(lp2430
(lp2431
tp2432
a(L3458855836L
L0L
(lp2433
(lp2434
tp2435
a(L3126521138L
L0L
(lp2436
(lp2437
tp2438
a(L1305407438L
L0L
(lp2439
(lp2440
tp2441
a(L1305407469L
L0L
(lp2442
(lp2443
tp2444
atp2445
sI1074271404
(Vrtc_vddsdio_set_config
p2446
(lp2447
(L3038651581L
L0L
(lp2448
(lp2449
tp2450
atp2451
sI1074267808
(Vcall_start_cpu0
p2452
(lp2453
(L1974457732L
L3785322319L
(lp2454
(lp2455
Vbootloader_init
p2456
atp2457
a(L94425498L
L3785322319L
(lp2458
(lp2459
Vbootloader_reset
p2460
atp2461
a(L2802776775L
L3785322319L
(lp2462
(lp2463
Vbootloader_utility_load_partition_table
p2464
atp2465
a(L4026389016L
L3785322319L
(lp2466
(lp2467
Vesp_log_early_timestamp
p2468
atp2469
a(L2395089516L
L3785322319L
(lp2470
(lp2471
Vbootloader_utility_get_selected_boot_partition
p2472
atp2473
a(L2086982338L
L1880226080L
(lp2474
(lp2475
Vbootloader_common_get_reset_reason
p2476
aVbootloader_utility_load_boot_image
p2477
atp2478
atp2479
sI1074270624
(Vrtc_clk_xtal_freq_estimate
p2480
(lp2481
(L2516060585L
L1880226080L
(lp2482
(lp2483
Vrtc_clk_8m_enabled
p2484
aVrtc_clk_8md256_enabled
p2485
atp2486
a(L967485502L
L3785322319L
(lp2487
(lp2488
Vrtc_clk_8m_enable
p2489
atp2490
a(L2167608287L
L3785322319L
(lp2491
(lp2492
Vrtc_clk_cal_ratio
p2493
atp2494
a(L2955058822L
L0L
(lp2495
(lp2496
tp2497
a(L3360570486L
L0L
(lp2498
(lp2499
tp2500
a(L2803805041L
L3785322319L
(lp2501
(lp2502
Vesp_log_early_timestamp
p2503
atp2504
atp2505
sI1074246060
(Vwdt_hal_config_stage
p2506
(lp2507
(L331558507L
L0L
(lp2508
(lp2509
tp2510
a(L4279082939L
L0L
(lp2511
(lp2512
tp2513
a(L3020204L
L0L
(lp2514
(lp2515
tp2516
a(L3020187L
L0L
(lp2517
(lp2518
tp2519
a(L3020187L
L0L
(lp2520
(lp2521
tp2522
a(L94425498L
L3785322319L
(lp2523
(lp2524
Vabort
p2525
atp2526
a(L1163235905L
L0L
(lp2527
(lp2528
tp2529
a(L3360570486L
L0L
(lp2530
(lp2531
tp2532
a(L1230209031L
L0L
(lp2533
(lp2534
tp2535
a(L1290811460L
L0L
(lp2536
(lp2537
tp2538
a(L1351415098L
L0L
(lp2539
(lp2540
tp2541
a(L3020187L
L0L
(lp2542
(lp2543
tp2544
a(L2902417580L
L0L
(lp2545
(lp2546
tp2547
a(L3020187L
L0L
(lp2548
(lp2549
tp2550
a(L3028464L
L0L
(lp2551
(lp2552
tp2553
a(L1981722639L
L0L
(lp2554
(lp2555
tp2556
a(L2174924867L
L0L
(lp2557
(lp2558
tp2559
a(L108141777L
L0L
(lp2560
(lp2561
tp2562
a(L2570035168L
L0L
(lp2563
(lp2564
tp2565
atp2566
sI1074240692
(V__assert_func
p2567
(lp2568
(L2599700881L
L0L
(lp2569
(lp2570
tp2571
a(L106L
L0L
(lp2572
(lp2573
tp2574
atp2575
sI1074237108
(Vbootloader_common_ota_select_crc
p2576
(lp2577
(L3803478238L
L0L
(lp2578
(lp2579
tp2580
atp2581
sI1074246836
(Vrtc_clk_32k_enable_common
p2582
(lp2583
(L959102900L
L0L
(lp2584
(lp2585
tp2586
atp2587
sI1074247348
(Vrtc_clk_fast_freq_get
p2588
(lp2589
(L1607332524L
L0L
(lp2590
(lp2591
tp2592
atp2593
sI1074269628
(Vbootloader_write_status_8b_wrsr2
p2594
(lp2595
(L3772914914L
L3785322319L
(lp2596
(lp2597
Vbootloader_execute_flash_command
p2598
atp2599
atp2600
sI1074237360
(Vbootloader_common_ota_select_invalid
p2601
(lp2602
(L4027567199L
L0L
(lp2603
(lp2604
tp2605
a(L3397985842L
L0L
(lp2606
(lp2607
tp2608
a(L2258867228L
L0L
(lp2609
(lp2610
tp2611
a(L3785235668L
L0L
(lp2612
(lp2613
tp2614
atp2615
sI1074243504
(Vesp_rom_spiflash_program_page_internal
p2616
(lp2617
(L2569069283L
L0L
(lp2618
(lp2619
tp2620
a(L2258688483L
L0L
(lp2621
(lp2622
tp2623
a(L3360570486L
L0L
(lp2624
(lp2625
tp2626
a(L3979593906L
L0L
(lp2627
(lp2628
tp2629
a(L4235661475L
L3785322319L
(lp2630
(lp2631
Vesp_rom_spiflash_wait_idle
p2632
atp2633
a(L1299866312L
L0L
(lp2634
(lp2635
tp2636
a(L3212356251L
L3785322319L
(lp2637
(lp2638
Vesp_rom_spiflash_enable_write
p2639
atp2640
a(L365375006L
L0L
(lp2641
(lp2642
tp2643
a(L3373459509L
L0L
(lp2644
(lp2645
tp2646
a(L2953702749L
L0L
(lp2647
(lp2648
tp2649
a(L2989032L
L0L
(lp2650
(lp2651
tp2652
a(L1965622133L
L0L
(lp2653
(lp2654
tp2655
a(L580718687L
L0L
(lp2656
(lp2657
tp2658
a(L1958113242L
L0L
(lp2659
(lp2660
tp2661
a(L106L
L0L
(lp2662
(lp2663
tp2664
a(L4283177684L
L0L
(lp2665
(lp2666
tp2667
a(L1405253496L
L0L
(lp2668
(lp2669
tp2670
a(L1008982350L
L0L
(lp2671
(lp2672
tp2673
a(L1933954923L
L0L
(lp2674
(lp2675
tp2676
a(L3886319556L
L0L
(lp2677
(lp2678
tp2679
a(L2767679583L
L0L
(lp2680
(lp2681
tp2682
atp2683
sI1074246576
(Vefuse_hal_get_rated_freq_mhz
p2684
(lp2685
(L1680594370L
L0L
(lp2686
(lp2687
tp2688
a(L2965302338L
L0L
(lp2689
(lp2690
tp2691
a(L3360570486L
L0L
(lp2692
(lp2693
tp2694
atp2695
sI1074249136
(V_fini
p2696
(lp2697
(L3493042598L
L0L
(lp2698
(lp2699
tp2700
atp2701
sI1074239932
(Vbootloader_reset
p2702
(lp2703
(L2775844488L
L3785322319L
(lp2704
(lp2705
Vbootloader_console_deinit
p2706
atp2707
a(L106L
L0L
(lp2708
(lp2709
tp2710
atp2711
sI1074270132
(Vbootloader_flash_update_id
p2712
(lp2713
(L1806317231L
L3785322319L
(lp2714
(lp2715
Vbootloader_read_flash_id
p2716
atp2717
atp2718
sI1074243000
(Vbootloader_load_image
p2719
(lp2720
(L1155870502L
L3785322319L
(lp2721
(lp2722
Vimage_load
p2723
atp2724
atp2725
sI1074247364
(Vrtc_clk_bbpll_configure
p2726
(lp2727
(L3272352703L
L0L
(lp2728
(lp2729
tp2730
a(L106L
L0L
(lp2731
(lp2732
tp2733
a(L3670329579L
L0L
(lp2734
(lp2735
tp2736
a(L106L
L0L
(lp2737
(lp2738
tp2739
a(L515664061L
L0L
(lp2740
(lp2741
tp2742
a(L3132694491L
L0L
(lp2743
(lp2744
tp2745
a(L3299086654L
L0L
(lp2746
(lp2747
tp2748
a(L160100376L
L0L
(lp2749
(lp2750
tp2751
a(L1001357813L
L0L
(lp2752
(lp2753
tp2754
a(L1457428896L
L0L
(lp2755
(lp2756
tp2757
a(L640727135L
L0L
(lp2758
(lp2759
tp2760
a(L160100376L
L0L
(lp2761
(lp2762
tp2763
atp2764
sI1074268864
(Vbootloader_clock_configure
p2765
(lp2766
(L1154001737L
L1880226080L
(lp2767
(lp2768
Vesp_rom_uart_tx_wait_idle
p2769
aVefuse_hal_chip_revision
p2770
atp2771
a(L2119588600L
L0L
(lp2772
(lp2773
tp2774
a(L46500273L
L3785322319L
(lp2775
(lp2776
Vrtc_clk_apb_freq_get
p2777
atp2778
a(L2503001246L
L1832448559L
(lp2779
(lp2780
Vrtc_clk_slow_freq_get
p2781
aVrtc_clk_fast_freq_get
p2782
aVrtc_clk_init
p2783
atp2784
a(L1106689080L
L0L
(lp2785
(lp2786
tp2787
a(L883406775L
L0L
(lp2788
(lp2789
tp2790
a(L106L
L0L
(lp2791
(lp2792
tp2793
atp2794
sI1074237388
(Vbootloader_common_select_otadata
p2795
(lp2796
(L2342662536L
L0L
(lp2797
(lp2798
tp2799
a(L3806783650L
L0L
(lp2800
(lp2801
tp2802
a(L1674928252L
L0L
(lp2803
(lp2804
tp2805
a(L251571983L
L0L
(lp2806
(lp2807
tp2808
a(L3360570486L
L0L
(lp2809
(lp2810
tp2811
a(L2045232488L
L0L
(lp2812
(lp2813
tp2814
a(L189726519L
L0L
(lp2815
(lp2816
tp2817
a(L3095066987L
L0L
(lp2818
(lp2819
tp2820
a(L3592023188L
L0L
(lp2821
(lp2822
tp2823
a(L1641201884L
L0L
(lp2824
(lp2825
tp2826
atp2827
sI1074238156
(Vbootloader_enable_wp
p2828
(lp2829
(L1117825804L
L3785322319L
(lp2830
(lp2831
Vbootloader_execute_flash_command
p2832
atp2833
atp2834
sI1074240716
(Vabort
p2835
(lp2836
(L955159064L
L0L
(lp2837
(lp2838
tp2839
a(L409441471L
L0L
(lp2840
(lp2841
tp2842
a(L106L
L0L
(lp2843
(lp2844
tp2845
atp2846
sI1074270148
(Vbootloader_flash_get_wp_pin
p2847
(lp2848
(L1163997074L
L3785322319L
(lp2849
(lp2850
Vbootloader_common_get_chip_ver_pkg
p2851
atp2852
a(L93674324L
L0L
(lp2853
(lp2854
tp2855
a(L2686642565L
L0L
(lp2856
(lp2857
tp2858
a(L2778450300L
L0L
(lp2859
(lp2860
tp2861
a(L3360570486L
L0L
(lp2862
(lp2863
tp2864
a(L3020187L
L0L
(lp2865
(lp2866
tp2867
a(L1159893170L
L0L
(lp2868
(lp2869
tp2870
a(L426835595L
L3785322319L
(lp2871
(lp2872
Vefuse_hal_chip_revision
p2873
atp2874
a(L1641149339L
L0L
(lp2875
(lp2876
tp2877
atp2878
sI1074247880
(Vrtc_clk_cpu_freq_get_config
p2879
(lp2880
(L2593292300L
L0L
(lp2881
(lp2882
tp2883
a(L2902417580L
L0L
(lp2884
(lp2885
tp2886
a(L1777368540L
L0L
(lp2887
(lp2888
tp2889
a(L3018596527L
L1880226080L
(lp2890
(lp2891
Vesp_log_early_timestamp
p2892
aVabort
p2893
atp2894
a(L2126018393L
L3785322319L
(lp2895
(lp2896
Vrtc_clk_xtal_freq_get
p2897
atp2898
a(L584032699L
L0L
(lp2899
(lp2900
tp2901
a(L1406578192L
L0L
(lp2902
(lp2903
tp2904
a(L3020187L
L0L
(lp2905
(lp2906
tp2907
a(L713819170L
L0L
(lp2908
(lp2909
tp2910
a(L106L
L0L
(lp2911
(lp2912
tp2913
a(L549042870L
L0L
(lp2914
(lp2915
tp2916
a(L187152368L
L0L
(lp2917
(lp2918
tp2919
a(L4149732163L
L0L
(lp2920
(lp2921
tp2922
atp2923
sI1074243016
(Vesp_partition_table_verify
p2924
(lp2925
(L1518656766L
L0L
(lp2926
(lp2927
tp2928
a(L1171913712L
L0L
(lp2929
(lp2930
tp2931
a(L4287435191L
L0L
(lp2932
(lp2933
tp2934
a(L2910371777L
L0L
(lp2935
(lp2936
tp2937
a(L2810785767L
L0L
(lp2938
(lp2939
tp2940
a(L3360570486L
L0L
(lp2941
(lp2942
tp2943
a(L2334946637L
L0L
(lp2944
(lp2945
tp2946
a(L2478753082L
L0L
(lp2947
(lp2948
tp2949
a(L3020204L
L0L
(lp2950
(lp2951
tp2952
a(L1279341933L
L3785322319L
(lp2953
(lp2954
Vesp_log_early_timestamp
p2955
atp2956
a(L3525717030L
L3785322319L
(lp2957
(lp2958
Vesp_log_early_timestamp
p2959
atp2960
a(L4060082208L
L0L
(lp2961
(lp2962
tp2963
a(L2902417580L
L0L
(lp2964
(lp2965
tp2966
a(L3020204L
L0L
(lp2967
(lp2968
tp2969
a(L1980931690L
L3785322319L
(lp2970
(lp2971
Vesp_log_early_timestamp
p2972
atp2973
a(L1367516498L
L0L
(lp2974
(lp2975
tp2976
a(L3814391302L
L0L
(lp2977
(lp2978
tp2979
a(L2902417580L
L0L
(lp2980
(lp2981
tp2982
a(L1279340476L
L3785322319L
(lp2983
(lp2984
Vesp_log_early_timestamp
p2985
atp2986
a(L1613213999L
L0L
(lp2987
(lp2988
tp2989
a(L1167861556L
L0L
(lp2990
(lp2991
tp2992
a(L3260980605L
L0L
(lp2993
(lp2994
tp2995
a(L2910371777L
L0L
(lp2996
(lp2997
tp2998
a(L1235012932L
L0L
(lp2999
(lp3000
tp3001
a(L2384762683L
L3785322319L
(lp3002
(lp3003
Vesp_log_early_timestamp
p3004
atp3005
atp3006
sI1074237640
(Vbootloader_munmap
p3007
(lp3008
(L1406971354L
L0L
(lp3009
(lp3010
tp3011
a(L1341401488L
L0L
(lp3012
(lp3013
tp3014
a(L3360570486L
L0L
(lp3015
(lp3016
tp3017
atp3018
sI1074237128
(Vbootloader_common_ota_select_valid
p3019
(lp3020
(L1563399710L
L3785322319L
(lp3021
(lp3022
Vbootloader_common_ota_select_invalid
p3023
atp3024
a(L3814720849L
L3785322319L
(lp3025
(lp3026
Vbootloader_common_ota_select_crc
p3027
atp3028
a(L3360570486L
L0L
(lp3029
(lp3030
tp3031
atp3032
sI1074246612
(Vrtc_clk_bbpll_disable
p3033
(lp3034
(L1506894642L
L0L
(lp3035
(lp3036
tp3037
a(L391691750L
L0L
(lp3038
(lp3039
tp3040
a(L3360570486L
L0L
(lp3041
(lp3042
tp3043
atp3044
sI1074235344
(Vbootloader_execute_flash_command
p3045
(lp3046
(L2481595632L
L3785322319L
(lp3047
(lp3048
Vbootloader_flash_execute_command_common
p3049
atp3050
atp3051
sI1074269648
(Vbootloader_write_status_16b_wrsr
p3052
(lp3053
(L1235576642L
L3785322319L
(lp3054
(lp3055
Vbootloader_execute_flash_command
p3056
atp3057
atp3058
sI1074234844
(Vbootloader_flash_execute_command_common
p3059
(lp3060
(L630859308L
L0L
(lp3061
(lp3062
tp3063
a(L120555568L
L0L
(lp3064
(lp3065
tp3066
a(L2925418774L
L3785322319L
(lp3067
(lp3068
V__assert_func
p3069
atp3070
a(L3021749L
L0L
(lp3071
(lp3072
tp3073
a(L153183052L
L0L
(lp3074
(lp3075
tp3076
a(L3132325827L
L0L
(lp3077
(lp3078
tp3079
a(L1782874522L
L0L
(lp3080
(lp3081
tp3082
a(L4024113366L
L0L
(lp3083
(lp3084
tp3085
a(L2147958864L
L0L
(lp3086
(lp3087
tp3088
a(L831940355L
L0L
(lp3089
(lp3090
tp3091
a(L2039827138L
L0L
(lp3092
(lp3093
tp3094
a(L2429937038L
L0L
(lp3095
(lp3096
tp3097
a(L2186295391L
L0L
(lp3098
(lp3099
tp3100
a(L3079186448L
L0L
(lp3101
(lp3102
tp3103
a(L3333696662L
L0L
(lp3104
(lp3105
tp3106
a(L963425213L
L0L
(lp3107
(lp3108
tp3109
a(L3172016656L
L0L
(lp3110
(lp3111
tp3112
a(L3360570486L
L0L
(lp3113
(lp3114
tp3115
a(L1184240068L
L0L
(lp3116
(lp3117
tp3118
atp3119
sI1074239964
(Vbootloader_utility_load_boot_image
p3120
(lp3121
(L1561528311L
L0L
(lp3122
(lp3123
tp3124
a(L2177418995L
L3785322319L
(lp3125
(lp3126
Vtry_load_partition
p3127
atp3128
a(L2749106626L
L3785322319L
(lp3129
(lp3130
Vload_image
p3131
atp3132
a(L3017448975L
L3785322319L
(lp3133
(lp3134
Vesp_log_early_timestamp
p3135
atp3136
a(L3827921190L
L3785322319L
(lp3137
(lp3138
Vbootloader_reset
p3139
atp3140
a(L2542673780L
L3785322319L
(lp3141
(lp3142
Vindex_to_partition
p3143
atp3144
a(L1204373741L
L3785322319L
(lp3145
(lp3146
Vtry_load_partition
p3147
atp3148
a(L3020187L
L0L
(lp3149
(lp3150
tp3151
a(L4183184105L
L0L
(lp3152
(lp3153
tp3154
a(L2070875117L
L3785322319L
(lp3155
(lp3156
Vset_actual_ota_seq
p3157
atp3158
a(L1868897605L
L3785322319L
(lp3159
(lp3160
Vlog_invalid_app_partition
p3161
atp3162
a(L831650730L
L0L
(lp3163
(lp3164
tp3165
a(L3021737L
L0L
(lp3166
(lp3167
tp3168
a(L4083823862L
L0L
(lp3169
(lp3170
tp3171
a(L3818328201L
L3785322319L
(lp3172
(lp3173
Vtry_load_partition
p3174
atp3175
a(L2415418022L
L3785322319L
(lp3176
(lp3177
Vesp_log_early_timestamp
p3178
atp3179
a(L2185156151L
L3785322319L
(lp3180
(lp3181
Vindex_to_partition
p3182
atp3183
a(L1074657773L
L3785322319L
(lp3184
(lp3185
Vtry_load_partition
p3186
atp3187
a(L3027024L
L0L
(lp3188
(lp3189
tp3190
a(L1706561638L
L0L
(lp3191
(lp3192
tp3193
a(L3061261803L
L0L
(lp3194
(lp3195
tp3196
a(L3582858798L
L3785322319L
(lp3197
(lp3198
Vlog_invalid_app_partition
p3199
atp3200
a(L2838063384L
L3785322319L
(lp3201
(lp3202
Vesp_log_early_timestamp
p3203
atp3204
atp3205
sI1074236888
(Vefuse_hal_chip_revision
p3206
(lp3207
(L1761205471L
L1880226080L
(lp3208
(lp3209
Vefuse_hal_get_major_chip_version
p3210
aVefuse_hal_get_minor_chip_version
p3211
atp3212
atp3213
sI1074247140
(Vrtc_clk_8m_enabled
p3214
(lp3215
(L2846562198L
L0L
(lp3216
(lp3217
tp3218
atp3219
sI1074240480
(Vbootloader_sha256_finish
p3220
(lp3221
(L4066096136L
L0L
(lp3222
(lp3223
tp3224
a(L2426305169L
L0L
(lp3225
(lp3226
tp3227
a(L3850111886L
L3785322319L
(lp3228
(lp3229
V__assert_func
p3230
atp3231
a(L3020204L
L0L
(lp3232
(lp3233
tp3234
a(L4168155120L
L0L
(lp3235
(lp3236
tp3237
a(L2534656226L
L0L
(lp3238
(lp3239
tp3240
a(L594679483L
L3785322319L
(lp3241
(lp3242
Vbootloader_sha256_data
p3243
atp3244
a(L3284853523L
L0L
(lp3245
(lp3246
tp3247
a(L2128130505L
L3785322319L
(lp3248
(lp3249
Vbootloader_sha256_data
p3250
atp3251
a(L3330117473L
L0L
(lp3252
(lp3253
tp3254
a(L657425439L
L0L
(lp3255
(lp3256
tp3257
a(L291134599L
L0L
(lp3258
(lp3259
tp3260
a(L657425439L
L0L
(lp3261
(lp3262
tp3263
a(L3130909398L
L0L
(lp3264
(lp3265
tp3266
a(L2804482273L
L0L
(lp3267
(lp3268
tp3269
a(L3347778L
L0L
(lp3270
(lp3271
tp3272
a(L3360570486L
L0L
(lp3273
(lp3274
tp3275
atp3276
sI1074238176
(Vbootloader_mmap_get_free_pages
p3277
(lp3278
(L1496516875L
L0L
(lp3279
(lp3280
tp3281
atp3282
sI1074240224
(Vindex_to_partition
p3283
(lp3284
(L4066096119L
L0L
(lp3285
(lp3286
tp3287
a(L1739185955L
L0L
(lp3288
(lp3289
tp3290
a(L2171552758L
L0L
(lp3291
(lp3292
tp3293
a(L2808906342L
L0L
(lp3294
(lp3295
tp3296
a(L2101481936L
L0L
(lp3297
(lp3298
tp3299
a(L3698927993L
L0L
(lp3300
(lp3301
tp3302
a(L2808826781L
L0L
(lp3303
(lp3304
tp3305
a(L3003398163L
L0L
(lp3306
(lp3307
tp3308
a(L1104460200L
L0L
(lp3309
(lp3310
tp3311
a(L1087646172L
L0L
(lp3312
(lp3313
tp3314
atp3315
sI1074237164
(Vbootloader_common_check_chip_validity
p3316
(lp3317
(L409865374L
L0L
(lp3318
(lp3319
tp3320
a(L3008458885L
L3785322319L
(lp3321
(lp3322
Vesp_log_early_timestamp
p3323
atp3324
a(L1508931617L
L3785322319L
(lp3325
(lp3326
Vefuse_hal_chip_revision
p3327
atp3328
a(L93674324L
L0L
(lp3329
(lp3330
tp3331
a(L4170554374L
L3785322319L
(lp3332
(lp3333
Vesp_log_early_timestamp
p3334
atp3335
a(L1641201884L
L0L
(lp3336
(lp3337
tp3338
a(L2258688482L
L0L
(lp3339
(lp3340
tp3341
a(L3360570486L
L0L
(lp3342
(lp3343
tp3344
atp3345
sI1074269668
(Vbootloader_read_status_8b_xmc25qu64a
p3346
(lp3347
(L4181339297L
L2485746240L
(lp3348
(lp3349
Vbootloader_execute_flash_command
p3350
aVesp_rom_spiflash_wait_idle
p3351
aVbootloader_execute_flash_command
p3352
aVbootloader_execute_flash_command
p3353
atp3354
atp3355
sI1074246376
(Vwdt_hal_write_protect_disable
p3356
(lp3357
(L1841113264L
L0L
(lp3358
(lp3359
tp3360
a(L4195472003L
L0L
(lp3361
(lp3362
tp3363
a(L3360570486L
L0L
(lp3364
(lp3365
tp3366
a(L1210571996L
L0L
(lp3367
(lp3368
tp3369
atp3370
sI1074243304
(Vesp_rom_spiflash_read_status
p3371
(lp3372
(L3562601385L
L0L
(lp3373
(lp3374
tp3375
a(L1182811815L
L0L
(lp3376
(lp3377
tp3378
a(L1932570474L
L0L
(lp3379
(lp3380
tp3381
a(L106L
L0L
(lp3382
(lp3383
tp3384
a(L1922848735L
L0L
(lp3385
(lp3386
tp3387
a(L4004659960L
L0L
(lp3388
(lp3389
tp3390
a(L2123059967L
L0L
(lp3391
(lp3392
tp3393
a(L1973734210L
L0L
(lp3394
(lp3395
tp3396
a(L2392720019L
L0L
(lp3397
(lp3398
tp3399
atp3400
sI1074242536
(Vimage_load
p3401
(lp3402
(L745499722L
L0L
(lp3403
(lp3404
tp3405
a(L1899869538L
L0L
(lp3406
(lp3407
tp3408
a(L9219888L
L0L
(lp3409
(lp3410
tp3411
a(L3287910782L
L0L
(lp3412
(lp3413
tp3414
a(L3020187L
L0L
(lp3415
(lp3416
tp3417
a(L3991327922L
L3785322319L
(lp3418
(lp3419
Vesp_log_early_timestamp
p3420
atp3421
a(L2068384292L
L0L
(lp3422
(lp3423
tp3424
a(L1968553470L
L3785322319L
(lp3425
(lp3426
Vbootloader_sha256_finish
p3427
atp3428
a(L2488000255L
L0L
(lp3429
(lp3430
tp3431
a(L3271848319L
L0L
(lp3432
(lp3433
tp3434
a(L1182930974L
L0L
(lp3435
(lp3436
tp3437
a(L3678851644L
L3785322319L
(lp3438
(lp3439
Vprocess_image_header
p3440
atp3441
a(L1341816907L
L0L
(lp3442
(lp3443
tp3444
a(L909494482L
L0L
(lp3445
(lp3446
tp3447
a(L1028073566L
L3785322319L
(lp3448
(lp3449
Vprocess_segments
p3450
atp3451
a(L3803885910L
L0L
(lp3452
(lp3453
tp3454
a(L94425498L
L3785322319L
(lp3455
(lp3456
Vesp_cpu_in_ocd_debug_mode
p3457
atp3458
a(L454195650L
L3785322319L
(lp3459
(lp3460
Vprocess_checksum
p3461
atp3462
a(L1651117269L
L3785322319L
(lp3463
(lp3464
Vprocess_appended_hash
p3465
atp3466
a(L533710513L
L0L
(lp3467
(lp3468
tp3469
a(L505081362L
L0L
(lp3470
(lp3471
tp3472
a(L3212356251L
L3785322319L
(lp3473
(lp3474
Vesp_cpu_in_ocd_debug_mode
p3475
atp3476
a(L1198227567L
L1880226080L
(lp3477
(lp3478
Vbootloader_sha256_finish
p3479
aVbootloader_debug_buffer
p3480
atp3481
a(L3928684791L
L1880226080L
(lp3482
(lp3483
Vesp_log_early_timestamp
p3484
aVbootloader_debug_buffer
p3485
atp3486
a(L978077504L
L0L
(lp3487
(lp3488
tp3489
a(L2068384292L
L0L
(lp3490
(lp3491
tp3492
a(L858449684L
L3785322319L
(lp3493
(lp3494
Vbootloader_sha256_finish
p3495
atp3496
a(L3028481L
L0L
(lp3497
(lp3498
tp3499
a(L93674324L
L0L
(lp3500
(lp3501
tp3502
a(L3046569754L
L0L
(lp3503
(lp3504
tp3505
a(L2429164518L
L0L
(lp3506
(lp3507
tp3508
a(L3553619191L
L0L
(lp3509
(lp3510
tp3511
a(L85798113L
L0L
(lp3512
(lp3513
tp3514
a(L464010095L
L0L
(lp3515
(lp3516
tp3517
a(L835563811L
L3785322319L
(lp3518
(lp3519
Vshould_load
p3520
atp3521
a(L1358360603L
L0L
(lp3522
(lp3523
tp3524
a(L4224160879L
L0L
(lp3525
(lp3526
tp3527
a(L22884489L
L0L
(lp3528
(lp3529
tp3530
a(L741351569L
L0L
(lp3531
(lp3532
tp3533
a(L434644776L
L0L
(lp3534
(lp3535
tp3536
a(L106L
L0L
(lp3537
(lp3538
tp3539
a(L709419389L
L0L
(lp3540
(lp3541
tp3542
a(L1299866312L
L0L
(lp3543
(lp3544
tp3545
atp3546
sI1074236648
(Vbootloader_common_get_chip_ver_pkg
p3547
(lp3548
(L1176319107L
L0L
(lp3549
(lp3550
tp3551
atp3552
sI1074238184
(Vbootloader_fill_random
p3553
(lp3554
(L3026789978L
L0L
(lp3555
(lp3556
tp3557
a(L1056102925L
L0L
(lp3558
(lp3559
tp3560
a(L97689L
L0L
(lp3561
(lp3562
tp3563
a(L3360570486L
L0L
(lp3564
(lp3565
tp3566
a(L353495740L
L3785322319L
(lp3567
(lp3568
V__assert_func
p3569
atp3570
a(L2008660626L
L0L
(lp3571
(lp3572
tp3573
a(L3028481L
L0L
(lp3574
(lp3575
tp3576
a(L983138374L
L0L
(lp3577
(lp3578
tp3579
a(L2607138306L
L0L
(lp3580
(lp3581
tp3582
a(L1982128194L
L0L
(lp3583
(lp3584
tp3585
atp3586
sI1074239208
(Vtry_load_partition
p3587
(lp3588
(L1263750142L
L0L
(lp3589
(lp3590
tp3591
a(L2258688482L
L0L
(lp3592
(lp3593
tp3594
a(L3360570486L
L0L
(lp3595
(lp3596
tp3597
a(L530241438L
L3785322319L
(lp3598
(lp3599
Vbootloader_load_image
p3600
atp3601
a(L3866049243L
L3785322319L
(lp3602
(lp3603
Vesp_log_early_timestamp
p3604
atp3605
atp3606
sI1074270204
(Vbootloader_clear_bss_section
p3607
(lp3608
(L2606532370L
L0L
(lp3609
(lp3610
tp3611
atp3612
sI1074235376
(Vbootloader_flash_unlock
p3613
(lp3614
(L142706334L
L3785322319L
(lp3615
(lp3616
Vesp_rom_spiflash_wait_idle
p3617
atp3618
a(L4024621237L
L0L
(lp3619
(lp3620
tp3621
a(L4292483033L
L3785322319L
(lp3622
(lp3623
Vbootloader_execute_flash_command
p3624
atp3625
a(L106L
L0L
(lp3626
(lp3627
tp3628
a(L1303560644L
L0L
(lp3629
(lp3630
tp3631
a(L1419965066L
L0L
(lp3632
(lp3633
tp3634
a(L106L
L0L
(lp3635
(lp3636
tp3637
a(L1633120054L
L0L
(lp3638
(lp3639
tp3640
a(L106L
L0L
(lp3641
(lp3642
tp3643
a(L2974484771L
L0L
(lp3644
(lp3645
tp3646
a(L106L
L0L
(lp3647
(lp3648
tp3649
a(L1481761147L
L1880226080L
(lp3650
(lp3651
Vbootloader_execute_flash_command
p3652
aVbootloader_execute_flash_command
p3653
atp3654
a(L2258807654L
L0L
(lp3655
(lp3656
tp3657
a(L489806350L
L1832448559L
(lp3658
(lp3659
Vesp_rom_spiflash_wait_idle
p3660
aVbootloader_execute_flash_command
p3661
aVbootloader_execute_flash_command
p3662
atp3663
a(L879744646L
L1832448559L
(lp3664
(lp3665
Vesp_rom_spiflash_wait_idle
p3666
aVbootloader_execute_flash_command
p3667
aVbootloader_execute_flash_command
p3668
atp3669
a(L1840772931L
L1880226080L
(lp3670
(lp3671
Vesp_rom_spiflash_wait_idle
p3672
aVbootloader_execute_flash_command
p3673
atp3674
a(L2993202392L
L0L
(lp3675
(lp3676
tp3677
a(L508800419L
L1880226080L
(lp3678
(lp3679
Vbootloader_execute_flash_command
p3680
aVbootloader_execute_flash_command
p3681
atp3682
a(L1303560369L
L0L
(lp3683
(lp3684
tp3685
a(L1596544945L
L0L
(lp3686
(lp3687
tp3688
a(L97689L
L0L
(lp3689
(lp3690
tp3691
a(L106L
L0L
(lp3692
(lp3693
tp3694
atp3695
sI1074248944
(Vrtc_clk_cal_ratio
p3696
(lp3697
(L1861078506L
L3785322319L
(lp3698
(lp3699
Vrtc_clk_cal_internal
p3700
atp3701
atp3702
sI1074241276
(Vbootloader_util_regions_overlap
p3703
(lp3704
(L2762640130L
L0L
(lp3705
(lp3706
tp3707
a(L3659618707L
L0L
(lp3708
(lp3709
tp3710
a(L1647451197L
L3785322319L
(lp3711
(lp3712
V__assert_func
p3713
atp3714
a(L97642L
L0L
(lp3715
(lp3716
tp3717
a(L3340801499L
L0L
(lp3718
(lp3719
tp3720
a(L366123053L
L0L
(lp3721
(lp3722
tp3723
a(L2258867228L
L0L
(lp3724
(lp3725
tp3726
a(L1253626734L
L0L
(lp3727
(lp3728
tp3729
a(L2258897019L
L0L
(lp3730
(lp3731
tp3732
a(L3109269495L
L0L
(lp3733
(lp3734
tp3735
atp3736
sI1074240764
(Vbootloader_ana_clock_glitch_reset_config
p3737
(lp3738
(L2100504542L
L0L
(lp3739
(lp3740
tp3741
atp3742
sI1074237692
(Vbootloader_flash_read
p3743
(lp3744
(L2699333355L
L0L
(lp3745
(lp3746
tp3747
a(L1134859429L
L3785322319L
(lp3748
(lp3749
Vesp_log_early_timestamp
p3750
atp3751
a(L44113432L
L0L
(lp3752
(lp3753
tp3754
a(L1299867982L
L0L
(lp3755
(lp3756
tp3757
a(L3360570486L
L0L
(lp3758
(lp3759
tp3760
a(L2660352519L
L0L
(lp3761
(lp3762
tp3763
a(L3132108828L
L3785322319L
(lp3764
(lp3765
Vesp_log_early_timestamp
p3766
atp3767
a(L162336582L
L0L
(lp3768
(lp3769
tp3770
a(L1181807953L
L3785322319L
(lp3771
(lp3772
Vesp_log_early_timestamp
p3773
atp3774
a(L3020204L
L0L
(lp3775
(lp3776
tp3777
a(L1398573769L
L0L
(lp3778
(lp3779
tp3780
a(L97422L
L0L
(lp3781
(lp3782
tp3783
a(L2018549829L
L0L
(lp3784
(lp3785
tp3786
a(L1895240536L
L0L
(lp3787
(lp3788
tp3789
a(L486806570L
L3785322319L
(lp3790
(lp3791
Vesp_log_early_timestamp
p3792
atp3793
a(L413914689L
L0L
(lp3794
(lp3795
tp3796
a(L2869220355L
L0L
(lp3797
(lp3798
tp3799
a(L1280600787L
L3785322319L
(lp3800
(lp3801
Vesp_rom_spiflash_read
p3802
atp3803
a(L106L
L0L
(lp3804
(lp3805
tp3806
a(L248331579L
L0L
(lp3807
(lp3808
tp3809
atp3810
sI1074247164
(Vrtc_clk_8md256_enabled
p3811
(lp3812
(L2002090327L
L0L
(lp3813
(lp3814
tp3815
atp3816
sI1074267892
(Vbootloader_common_vddsdio_configure
p3817
(lp3818
(L1922017289L
L3785322319L
(lp3819
(lp3820
Vrtc_vddsdio_get_config
p3821
atp3822
a(L1612109748L
L3785322319L
(lp3823
(lp3824
Vrtc_vddsdio_set_config
p3825
atp3826
a(L3360570486L
L0L
(lp3827
(lp3828
tp3829
atp3830
sI1074271476
(Vmpu_hal_set_region_access
p3831
(lp3832
(L3538356822L
L0L
(lp3833
(lp3834
tp3835
a(L2902417580L
L0L
(lp3836
(lp3837
tp3838
a(L3020187L
L0L
(lp3839
(lp3840
tp3841
a(L3020187L
L0L
(lp3842
(lp3843
tp3844
a(L3360570486L
L0L
(lp3845
(lp3846
tp3847
a(L2258718273L
L0L
(lp3848
(lp3849
tp3850
a(L3446648619L
L0L
(lp3851
(lp3852
tp3853
a(L3739532189L
L0L
(lp3854
(lp3855
tp3856
a(L1300789895L
L0L
(lp3857
(lp3858
tp3859
a(L3472092938L
L0L
(lp3860
(lp3861
tp3862
atp3863
sI1074236920
(Vefuse_hal_get_major_chip_version
p3864
(lp3865
(L3421545156L
L0L
(lp3866
(lp3867
tp3868
a(L3989534928L
L0L
(lp3869
(lp3870
tp3871
a(L3360570486L
L0L
(lp3872
(lp3873
tp3874
atp3875
sI1074241016
(Vprocess_image_header
p3876
(lp3877
(L2618347250L
L3785322319L
(lp3878
(lp3879
Vbootloader_flash_read
p3880
atp3881
a(L3020204L
L0L
(lp3882
(lp3883
tp3884
a(L182056016L
L0L
(lp3885
(lp3886
tp3887
a(L1727394037L
L0L
(lp3888
(lp3889
tp3890
a(L1161397362L
L3785322319L
(lp3891
(lp3892
Vbootloader_sha256_start
p3893
atp3894
a(L2062774299L
L3785322319L
(lp3895
(lp3896
Vbootloader_sha256_data
p3897
atp3898
a(L2226581267L
L0L
(lp3899
(lp3900
tp3901
a(L3020204L
L0L
(lp3902
(lp3903
tp3904
a(L3200755544L
L0L
(lp3905
(lp3906
tp3907
a(L2983970029L
L0L
(lp3908
(lp3909
tp3910
a(L2084831782L
L3785322319L
(lp3911
(lp3912
Vesp_log_early_timestamp
p3913
atp3914
a(L3028481L
L0L
(lp3915
(lp3916
tp3917
a(L2299376216L
L0L
(lp3918
(lp3919
tp3920
a(L3519447553L
L3785322319L
(lp3921
(lp3922
Vesp_log_early_timestamp
p3923
atp3924
a(L2886566498L
L0L
(lp3925
(lp3926
tp3927
a(L1287309200L
L3785322319L
(lp3928
(lp3929
Vesp_log_early_timestamp
p3930
atp3931
a(L545088956L
L3785322319L
(lp3932
(lp3933
Vbootloader_common_check_chip_validity
p3934
atp3935
a(L2786305996L
L0L
(lp3936
(lp3937
tp3938
a(L3028481L
L0L
(lp3939
(lp3940
tp3941
a(L3356138668L
L3785322319L
(lp3942
(lp3943
Vesp_log_early_timestamp
p3944
atp3945
a(L2852701393L
L0L
(lp3946
(lp3947
tp3948
a(L2122516551L
L0L
(lp3949
(lp3950
tp3951
a(L3064492592L
L0L
(lp3952
(lp3953
tp3954
atp3955
sI1074244344
(Vesp_rom_spiflash_erase_sector
p3956
(lp3957
(L2330682761L
L0L
(lp3958
(lp3959
tp3960
a(L2258688483L
L0L
(lp3961
(lp3962
tp3963
a(L3360570486L
L0L
(lp3964
(lp3965
tp3966
a(L3212356251L
L3785322319L
(lp3967
(lp3968
Vesp_rom_spiflash_enable_write
p3969
atp3970
a(L184152988L
L0L
(lp3971
(lp3972
tp3973
a(L628195371L
L3785322319L
(lp3974
(lp3975
Vesp_rom_spiflash_wait_idle
p3976
atp3977
a(L3333707777L
L0L
(lp3978
(lp3979
tp3980
a(L3582858798L
L3785322319L
(lp3981
(lp3982
Vesp_rom_spiflash_wait_idle
p3983
atp3984
atp3985
ssS'functionsdups'
p3986
g11
((lp3987
tp3988
Rp3989
sS'immediatedups'
p3990
g11
((lp3991
tp3992
Rp3993
sS'functiondups'
p3994
g11
((lp3995
tp3996
Rp3997
sS'fuzzy'
p3998
(dp3999
L1536L
I1074240692
sL430153639L
I1074236032
sL1694124286L
I1074269716
sL3121027072L
I1074271244
sL2082889262L
I1074240772
sL45806640L
I1074236696
sL3879741902L
I1074241332
sL3538491111L
I1074248080
sL2919016435L
I1074235376
sL1540367692L
I1074270624
sL2680783959L
I1074235764
sL1600634745L
I1074237164
sL3512578114L
I1074239208
sL975599493L
I1074239072
sL114144873L
I1074237976
sL2469233929L
I1074240480
sL1792232694L
I1074246672
sL1377559356L
I1074242536
sL2475522855L
I1074270272
sL1924373790L
I1074270148
sL3897252859L
I1074238988
sL541189360L
I1074241016
sL1065525808L
I1074237004
sL2183816734L
I1074267808
sL3253760452L
I1074268180
sL2327783177L
I1074240864
sL1035771659L
I1074237692
sL1164839255L
I1074241820
sL449860969L
I1074247792
sL3210669721L
I1074246952
sL1332800441L
I1074237320
sL2884218272L
I1074267960
sL2689419264L
I1074243692
sL4160102055L
I1074239932
sL4202185385L
I1074243396
sL2966529024L
I1074247364
sL2453272040L
I1074248520
sL1768086576L
I1074236500
sL4171975289L
I1074244344
sL1565254297L
I1074244648
sL2191698036L
I1074270344
sL1513350244L
I1074239628
sL2474570535L
I1074238184
sL3428965560L
I1074248196
sL502463145L
I1074234844
sL3948954811L
I1074239256
sL519424169L
I1074248976
sL812946199L
I1074237468
sL737694352L
I1074243504
sL503029138L
I1074243444
sL277788135L
I1074244736
sL4253866342L
I1074239964
sL3991645697L
I1074268864
sL47534270L
I1074238604
sL2262558768L
I1074243304
sL424867129L
I1074244476
sL1554975810L
I1074238004
sL3834155367L
I1074241276
sL3883282432L
I1074241700
sL4173399607L
I1074243016
sL2726385143L
I1074246060
sL740551509L
I1074269772
sL1667054119L
I1074240316
sL4191211306L
I1074247880
sL2687107543L
I1074270788
ssb.