ccopy_reg
_reconstructor
p0
(crizzo
RizzoSignature
p1
c__builtin__
object
p2
Ntp3
Rp4
(dp5
S'formal'
p6
(dp7
L2223608971L
I1074270704
sL809629506L
I1074246000
sL4149167435L
I1074235768
sL2597089482L
I1074236924
sL2027340510L
I1074243720
sL2707613032L
I1074240740
sL1284497283L
I1074238756
sL3808709128L
I1074246988
sL1519914134L
I1074246236
sL1530809392L
I1074246460
sL2437563461L
I1074247376
sL51588611L
I1074241032
sL772126741L
I1074268152
sL2690619726L
I1074240976
sL1935665484L
I1074267916
sL192953492L
I1074269644
sL614041984L
I1074240936
sL3316917166L
I1074240576
sL4213015302L
I1074243260
sL1110457900L
I1074246764
sL966742206L
I1074246880
sL3211103558L
I1074236504
sL2028381634L
I1074246032
sL836519674L
I1074269016
sL3735572878L
I1074270088
sL765674116L
I1074269488
sL150867668L
I1074239308
sL1010441494L
I1074247416
sL975534345L
I1074269796
sL1560830501L
I1074246104
sL828195954L
I1074244272
sL3488751069L
I1074247704
sL2564749292L
I1074241536
sL2429385215L
I1074246576
sL3521772253L
I1074237444
sL2542387388L
I1074240556
sL2896295319L
I1074237008
sL3664206173L
I1074245684
sL2590834774L
I1074270776
sL2769485615L
I1074248600
sL1883202174L
I1074237112
sL1107838538L
I1074267864
sL2505869086L
I1074269924
sL1255211413L
I1074242080
sL2515444907L
I1074238336
sL275627041L
I1074247676
sL4009916493L
I1074246812
sL1695568196L
I1074237792
sL907345217L
I1074237156
sL4121145078L
I1074243672
sL1585823442L
I1074246172
sL744601145L
I1074235924
sL2224847558L
I1074239392
sL3443471452L
I1074237408
sL1271355812L
I1074235672
sL2034515509L
I1074267932
sL2261050288L
I1074241592
sL5508386L
I1074239440
sL256759610L
I1074236700
sL4186619895L
I1074245096
sL4167752981L
I1074268832
sL727624926L
I1074237620
sL3307282855L
I1074238308
sL3499630867L
I1074236800
sL612086517L
I1074235380
sL2418182316L
I1074267776
sL1170973252L
I1074240952
sL1284626181L
I1074269572
sL3431600159L
I1074248100
sL4087607606L
I1074269844
sL4068239077L
I1074240216
sL4126019699L
I1074238156
sL2499887006L
I1074237844
sL1709077886L
I1074246636
sL1156874576L
I1074236684
sL4243027010L
I1074269504
sL1652900655L
I1074238744
sL1417587925L
I1074237428
sL4090743160L
I1074241124
sL23021043L
I1074236036
sL3437515081L
I1074234848
sL3041149675L
I1074243780
sL2997001746L
I1074237368
sL3226157563L
I1074246296
sL2008521217L
I1074240248
sL1976922989L
I1074236736
sL230362115L
I1074244100
sL2819127986L
I1074237176
sL2056504617L
I1074270544
sL1015965235L
I1074242796
sL3942749375L
I1074238128
sL3246641981L
I1074246896
sL1164083360L
I1074235724
sL1448845982L
I1074237080
sL4075620904L
I1074267139
sL4195440599L
I1074239140
sL3130822484L
I1074241276
sL2249539038L
I1074240484
sL2812778604L
I1074243580
sL2653730023L
I1074269528
sL4142749756L
I1074236652
sL1865528544L
I1074246200
sL958402296L
I1074244360
sL2263182908L
I1074238328
sL2813051248L
I1074246788
sL781503561L
I1074246928
sL4173270880L
I1074247632
sL188664287L
I1074235348
sL252795632L
I1074239812
sL1459162904L
I1074241960
sL2497478462L
I1074269768
sL2959238529L
I1074237540
sL2589304758L
I1074247504
sL1784218300L
I1074248144
sL692536993L
I1074237512
sL409201547L
I1074236992
sL3283061060L
I1074238428
sL2108247364L
I1074269876
sL1621098576L
I1074243276
sL3608561895L
I1074269000
sL911482529L
I1074246972
sL2158274130L
I1074243968
sL2487076555L
I1074248568
sL751031348L
I1074243292
sL1593149965L
I1074247820
sL1404649536L
I1074237212
sL4267894680L
I1074236892
sL4072920637L
I1074240116
ssS'immediates'
p8
(dp9
sS'formaldups'
p10
c__builtin__
set
p11
((lp12
tp13
Rp14
sS'stringdups'
p15
g11
((lp16
tp17
Rp18
sS'fuzzydups'
p19
g11
((lp20
tp21
Rp22
sS'strings'
p23
(dp24
sS'functions'
p25
(dp26
I1074244100
(Vesp_rom_spiflash_write
p27
(lp28
(L2620554864L
L0L
(lp29
(lp30
tp31
a(L2258688483L
L0L
(lp32
(lp33
tp34
a(L3360570486L
L0L
(lp35
(lp36
tp37
a(L1590344338L
L0L
(lp38
(lp39
tp40
a(L3106685987L
L0L
(lp41
(lp42
tp43
a(L4249336406L
L3785322319L
(lp44
(lp45
Vesp_rom_spiflash_program_page_internal
p46
atp47
a(L1915738254L
L3785322319L
(lp48
(lp49
Vesp_rom_spiflash_program_page_internal
p50
atp51
a(L663507325L
L0L
(lp52
(lp53
tp54
a(L2392967593L
L0L
(lp55
(lp56
tp57
a(L564470687L
L0L
(lp58
(lp59
tp60
a(L154459701L
L3785322319L
(lp61
(lp62
Vesp_rom_spiflash_program_page_internal
p63
atp64
a(L2079643754L
L0L
(lp65
(lp66
tp67
atp68
sI1074237444
(Vbootloader_common_update_rtc_retain_mem
p69
(lp70
(L2958000229L
L0L
(lp71
(lp72
tp73
a(L3212356251L
L3785322319L
(lp74
(lp75
Vcheck_rtc_retain_mem
p76
atp77
a(L94425498L
L3785322319L
(lp78
(lp79
Vbootloader_common_reset_rtc_retain_mem
p80
atp81
a(L1190358017L
L0L
(lp82
(lp83
tp84
a(L4140856694L
L0L
(lp85
(lp86
tp87
a(L1893105620L
L0L
(lp88
(lp89
tp90
a(L1466453772L
L0L
(lp91
(lp92
tp93
a(L1439371179L
L0L
(lp94
(lp95
tp96
atp97
sI1074267916
(Vbootloader_common_get_reset_reason
p98
(lp99
(L2221583904L
L0L
(lp100
(lp101
tp102
atp103
sI1074241536
(Vbootloader_util_regions_overlap
p104
(lp105
(L2762640130L
L0L
(lp106
(lp107
tp108
a(L1114732L
L0L
(lp109
(lp110
tp111
a(L1962371858L
L3785322319L
(lp112
(lp113
V__assert_func
p114
atp115
a(L97642L
L0L
(lp116
(lp117
tp118
a(L1596327970L
L0L
(lp119
(lp120
tp121
a(L366123053L
L0L
(lp122
(lp123
tp124
a(L2258867228L
L0L
(lp125
(lp126
tp127
a(L1253626734L
L0L
(lp128
(lp129
tp130
a(L2258897019L
L0L
(lp131
(lp132
tp133
a(L3109269495L
L0L
(lp134
(lp135
tp136
atp137
sI1074241024
(Vbootloader_ana_clock_glitch_reset_config
p138
(lp139
(L2100504542L
L0L
(lp140
(lp141
tp142
atp143
sI1074267136
(V_init
p144
(lp145
(L3493042598L
L0L
(lp146
(lp147
tp148
atp149
sI1074236684
(Vesp_cpu_in_ocd_debug_mode
p150
(lp151
(L2131426160L
L0L
(lp152
(lp153
tp154
atp155
sI1074267139
(V_text_start
p156
(lp157
(L2957395042L
L0L
(lp158
(lp159
tp160
atp161
sI1074241032
(Vprocess_appended_hash
p162
(lp163
(L3580132405L
L0L
(lp164
(lp165
tp166
a(L3028481L
L0L
(lp167
(lp168
tp169
a(L1591589631L
L0L
(lp170
(lp171
tp172
a(L1864319304L
L0L
(lp173
(lp174
tp175
a(L701712405L
L0L
(lp176
(lp177
tp178
a(L2106498242L
L3785322319L
(lp179
(lp180
Vesp_log_early_timestamp
p181
atp182
a(L894030452L
L3785322319L
(lp183
(lp184
Vbootloader_flash_read
p185
atp186
a(L3871473710L
L0L
(lp187
(lp188
tp189
atp190
sI1074244360
(Vesp_rom_spiflash_read
p191
(lp192
(L2660649948L
L0L
(lp193
(lp194
tp195
a(L3856854632L
L0L
(lp196
(lp197
tp198
a(L2860271684L
L0L
(lp199
(lp200
tp201
a(L3017366L
L0L
(lp202
(lp203
tp204
a(L106L
L0L
(lp205
(lp206
tp207
a(L2166250093L
L0L
(lp208
(lp209
tp210
a(L106L
L0L
(lp211
(lp212
tp213
a(L3006598099L
L0L
(lp214
(lp215
tp216
a(L119136456L
L0L
(lp217
(lp218
tp219
a(L3202775664L
L0L
(lp220
(lp221
tp222
a(L3661924867L
L0L
(lp223
(lp224
tp225
a(L106L
L0L
(lp226
(lp227
tp228
a(L2954405396L
L3785322319L
(lp229
(lp230
Vesp_rom_spiflash_wait_idle
p231
atp232
a(L3021737L
L0L
(lp233
(lp234
tp235
a(L106L
L0L
(lp236
(lp237
tp238
a(L1868280504L
L0L
(lp239
(lp240
tp241
a(L106L
L0L
(lp242
(lp243
tp244
a(L3736481563L
L0L
(lp245
(lp246
tp247
a(L1221163038L
L0L
(lp248
(lp249
tp250
a(L4122060822L
L0L
(lp251
(lp252
tp253
a(L3808144324L
L0L
(lp254
(lp255
tp256
a(L2989032L
L0L
(lp257
(lp258
tp259
a(L3819849625L
L0L
(lp260
(lp261
tp262
a(L933706838L
L0L
(lp263
(lp264
tp265
a(L188544271L
L0L
(lp266
(lp267
tp268
a(L3901820645L
L0L
(lp269
(lp270
tp271
a(L2330545568L
L0L
(lp272
(lp273
tp274
a(L1896415737L
L0L
(lp275
(lp276
tp277
a(L1522202953L
L0L
(lp278
(lp279
tp280
a(L690243012L
L0L
(lp281
(lp282
tp283
a(L3159365708L
L0L
(lp284
(lp285
tp286
a(L2267384310L
L0L
(lp287
(lp288
tp289
a(L2696140277L
L0L
(lp290
(lp291
tp292
a(L2687789892L
L0L
(lp293
(lp294
tp295
a(L1405253496L
L0L
(lp296
(lp297
tp298
a(L2753629619L
L0L
(lp299
(lp300
tp301
a(L97689L
L0L
(lp302
(lp303
tp304
a(L2258897019L
L0L
(lp305
(lp306
tp307
a(L4014024819L
L0L
(lp308
(lp309
tp310
a(L3621567083L
L0L
(lp311
(lp312
tp313
atp314
sI1074235924
(Vbootloader_flash_cs_timing_config
p315
(lp316
(L3796536297L
L0L
(lp317
(lp318
tp319
atp320
sI1074267932
(Vwdt_reset_info_dump
p321
(lp322
(L4037466985L
L0L
(lp323
(lp324
tp325
a(L826419141L
L0L
(lp326
(lp327
tp328
a(L527117834L
L0L
(lp329
(lp330
tp331
a(L1103285333L
L0L
(lp332
(lp333
tp334
a(L897464656L
L3785322319L
(lp335
(lp336
Vesp_log_early_timestamp
p337
atp338
a(L1020249293L
L0L
(lp339
(lp340
tp341
a(L4142801364L
L3785322319L
(lp342
(lp343
Vesp_log_early_timestamp
p344
atp345
a(L2899013701L
L0L
(lp346
(lp347
tp348
atp349
sI1074246928
(Vrtc_clk_fast_freq_set
p350
(lp351
(L3429032055L
L0L
(lp352
(lp353
tp354
atp355
sI1074246172
(Vwdt_hal_write_protect_enable
p356
(lp357
(L387778158L
L0L
(lp358
(lp359
tp360
a(L4195472003L
L0L
(lp361
(lp362
tp363
a(L3360570486L
L0L
(lp364
(lp365
tp366
a(L802523425L
L0L
(lp367
(lp368
tp369
atp370
sI1074236700
(Vesp_rom_install_channel_putc
p371
(lp372
(L487865505L
L0L
(lp373
(lp374
tp375
a(L3020187L
L0L
(lp376
(lp377
tp378
a(L3360570486L
L0L
(lp379
(lp380
tp381
a(L4123957120L
L0L
(lp382
(lp383
tp384
a(L3627488788L
L0L
(lp385
(lp386
tp387
atp388
sI1074237212
(Vbootloader_common_check_chip_validity
p389
(lp390
(L409865374L
L0L
(lp391
(lp392
tp393
a(L2829339454L
L3785322319L
(lp394
(lp395
Vesp_log_early_timestamp
p396
atp397
a(L1508931617L
L3785322319L
(lp398
(lp399
Vefuse_hal_chip_revision
p400
atp401
a(L93674324L
L0L
(lp402
(lp403
tp404
a(L4100012570L
L3785322319L
(lp405
(lp406
Vesp_log_early_timestamp
p407
atp408
a(L1641201884L
L0L
(lp409
(lp410
tp411
a(L2258688482L
L0L
(lp412
(lp413
tp414
a(L3360570486L
L0L
(lp415
(lp416
tp417
atp418
sI1074235672
(Vbootloader_flash_read_sfdp
p419
(lp420
(L711701400L
L0L
(lp421
(lp422
tp423
a(L1622122993L
L3785322319L
(lp424
(lp425
V__assert_func
p426
atp427
a(L3704332455L
L3785322319L
(lp428
(lp429
Vbootloader_flash_execute_command_common
p430
atp431
atp432
sI1074238744
(Vbootloader_clock_get_rated_freq_mhz
p433
(lp434
(L376617603L
L3785322319L
(lp435
(lp436
Vefuse_hal_get_rated_freq_mhz
p437
atp438
atp439
sI1074247704
(Vrtc_clk_cpu_freq_to_xtal
p440
(lp441
(L1464729947L
L3785322319L
(lp442
(lp443
Vrtc_clk_apb_freq_update
p444
atp445
a(L702736306L
L0L
(lp446
(lp447
tp448
a(L277445412L
L0L
(lp449
(lp450
tp451
a(L309988740L
L0L
(lp452
(lp453
tp454
atp455
sI1074238756
(Vload_image
p456
(lp457
(L3299925839L
L1832448559L
(lp458
(lp459
Vesp_log_early_timestamp
p460
aVbootloader_random_disable
p461
aVbootloader_ana_clock_glitch_reset_config
p462
atp463
a(L2118498116L
L0L
(lp464
(lp465
tp466
a(L106L
L0L
(lp467
(lp468
tp469
a(L3440664529L
L0L
(lp470
(lp471
tp472
a(L751966648L
L0L
(lp473
(lp474
tp475
a(L3268103L
L0L
(lp476
(lp477
tp478
a(L2113087681L
L3785322319L
(lp479
(lp480
Vbootloader_console_deinit
p481
atp482
a(L2111711315L
L0L
(lp483
(lp484
tp485
a(L3020204L
L0L
(lp486
(lp487
tp488
a(L676315981L
L3785322319L
(lp489
(lp490
Vesp_log_early_timestamp
p491
atp492
a(L117980938L
L0L
(lp493
(lp494
tp495
a(L4174716703L
L0L
(lp496
(lp497
tp498
a(L3020204L
L0L
(lp499
(lp500
tp501
a(L1593614725L
L3785322319L
(lp502
(lp503
Vesp_log_early_timestamp
p504
atp505
a(L233635238L
L0L
(lp506
(lp507
tp508
a(L2488949783L
L0L
(lp509
(lp510
tp511
atp512
sI1074240548
(Vbootloader_debug_buffer
p513
(lp514
(L2100504542L
L0L
(lp515
(lp516
tp517
atp518
sI1074242080
(Vprocess_segments
p519
(lp520
(L3883698409L
L0L
(lp521
(lp522
tp523
a(L2495454333L
L0L
(lp524
(lp525
tp526
a(L4578542L
L0L
(lp527
(lp528
tp529
a(L106L
L0L
(lp530
(lp531
tp532
a(L1315312493L
L0L
(lp533
(lp534
tp535
a(L71236063L
L3785322319L
(lp536
(lp537
Vesp_log_early_timestamp
p538
atp539
a(L1440180646L
L3785322319L
(lp540
(lp541
Vbootloader_flash_read
p542
atp543
a(L589941886L
L3785322319L
(lp544
(lp545
Vesp_log_early_timestamp
p546
atp547
a(L3360570486L
L0L
(lp548
(lp549
tp550
a(L234193771L
L0L
(lp551
(lp552
tp553
a(L1635713494L
L3785322319L
(lp554
(lp555
Vbootloader_sha256_data
p556
atp557
a(L926711887L
L0L
(lp558
(lp559
tp560
a(L790360741L
L0L
(lp561
(lp562
tp563
a(L1080561541L
L0L
(lp564
(lp565
tp566
a(L3802068284L
L0L
(lp567
(lp568
tp569
a(L3006419688L
L0L
(lp570
(lp571
tp572
a(L2258867228L
L0L
(lp573
(lp574
tp575
a(L1355332303L
L0L
(lp576
(lp577
tp578
a(L2965680995L
L0L
(lp579
(lp580
tp581
a(L1849436849L
L0L
(lp582
(lp583
tp584
a(L2155146628L
L3785322319L
(lp585
(lp586
Vesp_log_early_timestamp
p587
atp588
a(L3895303701L
L0L
(lp589
(lp590
tp591
a(L310069464L
L0L
(lp592
(lp593
tp594
a(L2179147059L
L3785322319L
(lp595
(lp596
Vesp_log_early_timestamp
p597
atp598
a(L3982404358L
L3785322319L
(lp599
(lp600
Vverify_load_addresses
p601
atp602
a(L106L
L0L
(lp603
(lp604
tp605
a(L2300166925L
L0L
(lp606
(lp607
tp608
a(L2684012095L
L0L
(lp609
(lp610
tp611
a(L1905937838L
L3785322319L
(lp612
(lp613
Vbootloader_mmap
p614
atp615
a(L3554138906L
L3785322319L
(lp616
(lp617
Vesp_log_early_timestamp
p618
atp619
a(L1306768291L
L0L
(lp620
(lp621
tp622
a(L29534075L
L0L
(lp623
(lp624
tp625
a(L1534276982L
L3785322319L
(lp626
(lp627
Vbootloader_munmap
p628
atp629
a(L3105361649L
L0L
(lp630
(lp631
tp632
a(L1216016797L
L3785322319L
(lp633
(lp634
Vbootloader_fill_random
p635
atp636
a(L3570641403L
L0L
(lp637
(lp638
tp639
a(L3574335487L
L0L
(lp640
(lp641
tp642
a(L3450268858L
L0L
(lp643
(lp644
tp645
a(L3021749L
L0L
(lp646
(lp647
tp648
a(L1609678444L
L0L
(lp649
(lp650
tp651
a(L1777728568L
L0L
(lp652
(lp653
tp654
a(L3020204L
L0L
(lp655
(lp656
tp657
a(L2366281346L
L0L
(lp658
(lp659
tp660
a(L2076461546L
L0L
(lp661
(lp662
tp663
a(L3832868376L
L0L
(lp664
(lp665
tp666
a(L1749969336L
L0L
(lp667
(lp668
tp669
a(L670934548L
L0L
(lp670
(lp671
tp672
a(L1903785265L
L3785322319L
(lp673
(lp674
Vbootloader_sha256_data
p675
atp676
a(L90548756L
L0L
(lp677
(lp678
tp679
a(L4195963580L
L0L
(lp680
(lp681
tp682
a(L2572638616L
L0L
(lp683
(lp684
tp685
a(L3740179196L
L0L
(lp686
(lp687
tp688
a(L233873941L
L3785322319L
(lp689
(lp690
Vshould_load
p691
atp692
a(L3070788781L
L0L
(lp693
(lp694
tp695
a(L3606989210L
L3785322319L
(lp696
(lp697
Vesp_log_early_timestamp
p698
atp699
a(L3579296615L
L0L
(lp700
(lp701
tp702
a(L2104869635L
L0L
(lp703
(lp704
tp705
a(L3824200004L
L0L
(lp706
(lp707
tp708
a(L2902417580L
L0L
(lp709
(lp710
tp711
a(L2636912524L
L0L
(lp712
(lp713
tp714
a(L4195318902L
L3785322319L
(lp715
(lp716
Vbootloader_mmap_get_free_pages
p717
atp718
a(L3028481L
L0L
(lp719
(lp720
tp721
a(L124545238L
L0L
(lp722
(lp723
tp724
atp725
sI1074240556
(Vbootloader_sha256_start
p726
(lp727
(L1811969441L
L0L
(lp728
(lp729
tp730
atp731
sI1074270776
(Vmpu_hal_set_region_access
p732
(lp733
(L3538356822L
L0L
(lp734
(lp735
tp736
a(L2902417580L
L0L
(lp737
(lp738
tp739
a(L3020187L
L0L
(lp740
(lp741
tp742
a(L3020187L
L0L
(lp743
(lp744
tp745
a(L3360570486L
L0L
(lp746
(lp747
tp748
a(L2258718273L
L0L
(lp749
(lp750
tp751
a(L3446648619L
L0L
(lp752
(lp753
tp754
a(L3739532189L
L0L
(lp755
(lp756
tp757
a(L1300789895L
L0L
(lp758
(lp759
tp760
a(L3472092938L
L0L
(lp761
(lp762
tp763
atp764
sI1074245684
(Vwdt_hal_config_stage
p765
(lp766
(L331558507L
L0L
(lp767
(lp768
tp769
a(L4279082939L
L0L
(lp770
(lp771
tp772
a(L3020204L
L0L
(lp773
(lp774
tp775
a(L3020187L
L0L
(lp776
(lp777
tp778
a(L3020187L
L0L
(lp779
(lp780
tp781
a(L94425498L
L3785322319L
(lp782
(lp783
Vabort
p784
atp785
a(L2960447957L
L0L
(lp786
(lp787
tp788
a(L3360570486L
L0L
(lp789
(lp790
tp791
a(L395415819L
L0L
(lp792
(lp793
tp794
a(L456018248L
L0L
(lp795
(lp796
tp797
a(L967322661L
L0L
(lp798
(lp799
tp800
a(L3020187L
L0L
(lp801
(lp802
tp803
a(L2902417580L
L0L
(lp804
(lp805
tp806
a(L3020187L
L0L
(lp807
(lp808
tp809
a(L3028464L
L0L
(lp810
(lp811
tp812
a(L2841077188L
L0L
(lp813
(lp814
tp815
a(L2374522839L
L0L
(lp816
(lp817
tp818
a(L1786209101L
L0L
(lp819
(lp820
tp821
a(L4248102492L
L0L
(lp822
(lp823
tp824
atp825
sI1074269488
(Vbootloader_flash_update_id
p826
(lp827
(L1806317231L
L3785322319L
(lp828
(lp829
Vbootloader_read_flash_id
p830
atp831
atp832
sI1074246460
(Vrtc_clk_32k_enable_common
p833
(lp834
(L3674350707L
L0L
(lp835
(lp836
tp837
atp838
sI1074246972
(Vrtc_clk_fast_freq_get
p839
(lp840
(L2440503616L
L0L
(lp841
(lp842
tp843
atp844
sI1074241592
(Vverify_load_addresses
p845
(lp846
(L2763563698L
L0L
(lp847
(lp848
tp849
a(L106L
L0L
(lp850
(lp851
tp852
a(L97642L
L0L
(lp853
(lp854
tp855
a(L1544098434L
L3785322319L
(lp856
(lp857
V__assert_func
p858
atp859
a(L1398784493L
L0L
(lp860
(lp861
tp862
a(L106L
L0L
(lp863
(lp864
tp865
a(L1423269256L
L0L
(lp866
(lp867
tp868
a(L106L
L0L
(lp869
(lp870
tp871
a(L456746442L
L3785322319L
(lp872
(lp873
Vbootloader_util_regions_overlap
p874
atp875
a(L4103222510L
L3785322319L
(lp876
(lp877
Vbootloader_util_regions_overlap
p878
atp879
a(L3028481L
L0L
(lp880
(lp881
tp882
a(L3310413622L
L3785322319L
(lp883
(lp884
Vbootloader_util_regions_overlap
p885
atp886
a(L2229910149L
L0L
(lp887
(lp888
tp889
a(L11038961L
L0L
(lp890
(lp891
tp892
a(L609188767L
L0L
(lp893
(lp894
tp895
a(L4039594351L
L0L
(lp896
(lp897
tp898
a(L642339957L
L0L
(lp899
(lp900
tp901
a(L677569396L
L3785322319L
(lp902
(lp903
Vverify_load_addresses
p904
atp905
a(L1351513776L
L0L
(lp906
(lp907
tp908
a(L3321211523L
L0L
(lp909
(lp910
tp911
a(L4223149084L
L0L
(lp912
(lp913
tp914
a(L443971886L
L3785322319L
(lp915
(lp916
Vbootloader_util_regions_overlap
p917
atp918
a(L3028481L
L0L
(lp919
(lp920
tp921
a(L1814548054L
L3785322319L
(lp922
(lp923
Vbootloader_util_regions_overlap
p924
atp925
a(L4267941854L
L0L
(lp926
(lp927
tp928
a(L4247384683L
L0L
(lp929
(lp930
tp931
a(L2594293491L
L0L
(lp932
(lp933
tp934
a(L3893878908L
L0L
(lp935
(lp936
tp937
a(L307918245L
L0L
(lp938
(lp939
tp940
a(L697239146L
L0L
(lp941
(lp942
tp943
a(L106L
L0L
(lp944
(lp945
tp946
a(L955486655L
L0L
(lp947
(lp948
tp949
a(L307916862L
L0L
(lp950
(lp951
tp952
a(L490080443L
L0L
(lp953
(lp954
tp955
a(L106L
L0L
(lp956
(lp957
tp958
a(L3585341222L
L3785322319L
(lp959
(lp960
Vesp_log_early_timestamp
p961
atp962
a(L955486779L
L0L
(lp963
(lp964
tp965
a(L1303560427L
L0L
(lp966
(lp967
tp968
atp969
sI1074246200
(Vefuse_hal_get_rated_freq_mhz
p970
(lp971
(L1680594370L
L0L
(lp972
(lp973
tp974
a(L2965302338L
L0L
(lp975
(lp976
tp977
a(L3360570486L
L0L
(lp978
(lp979
tp980
atp981
sI1074248760
(V_fini
p982
(lp983
(L3493042598L
L0L
(lp984
(lp985
tp986
atp987
sI1074269000
(Vbootloader_init_mem
p988
(lp989
(L1511720305L
L3785322319L
(lp990
(lp991
Vesp_cpu_configure_region_protection
p992
atp993
atp994
sI1074269768
(Vbootloader_enable_random
p995
(lp996
(L3696363284L
L1880226080L
(lp997
(lp998
Vesp_log_early_timestamp
p999
aVbootloader_random_enable
p1000
atp1001
atp1002
sI1074239812
(Vbootloader_utility_get_selected_boot_partition
p1003
(lp1004
(L2184143128L
L0L
(lp1005
(lp1006
tp1007
a(L3677466952L
L0L
(lp1008
(lp1009
tp1010
a(L668505659L
L3785322319L
(lp1011
(lp1012
Vesp_log_early_timestamp
p1013
atp1014
a(L4026981588L
L0L
(lp1015
(lp1016
tp1017
a(L3360570486L
L0L
(lp1018
(lp1019
tp1020
a(L1375577398L
L3785322319L
(lp1021
(lp1022
Vbootloader_mmap
p1023
atp1024
a(L1207750046L
L3785322319L
(lp1025
(lp1026
Vesp_log_early_timestamp
p1027
atp1028
a(L1914883809L
L1880226080L
(lp1029
(lp1030
Vbootloader_munmap
p1031
aVbootloader_common_ota_select_invalid
p1032
atp1033
a(L1103573946L
L0L
(lp1034
(lp1035
tp1036
a(L1876835593L
L3785322319L
(lp1037
(lp1038
Vbootloader_common_get_active_otadata
p1039
atp1040
a(L106L
L0L
(lp1041
(lp1042
tp1043
a(L569346373L
L0L
(lp1044
(lp1045
tp1046
a(L788494392L
L3785322319L
(lp1047
(lp1048
Vbootloader_common_ota_select_invalid
p1049
atp1050
a(L2683346418L
L0L
(lp1051
(lp1052
tp1053
a(L3935368519L
L3785322319L
(lp1054
(lp1055
Vesp_log_early_timestamp
p1056
atp1057
a(L1747084279L
L3785322319L
(lp1058
(lp1059
Vesp_log_early_timestamp
p1060
atp1061
a(L505081345L
L0L
(lp1062
(lp1063
tp1064
a(L919052234L
L3785322319L
(lp1065
(lp1066
Vbootloader_common_ota_select_crc
p1067
atp1068
a(L2287680455L
L0L
(lp1069
(lp1070
tp1071
a(L3542558037L
L3785322319L
(lp1072
(lp1073
Vbootloader_common_ota_select_crc
p1074
atp1075
a(L1299866312L
L0L
(lp1076
(lp1077
tp1078
a(L1715531634L
L0L
(lp1079
(lp1080
tp1081
a(L1922896845L
L3785322319L
(lp1082
(lp1083
Vesp_log_early_timestamp
p1084
atp1085
a(L1367516498L
L0L
(lp1086
(lp1087
tp1088
a(L4142618489L
L3785322319L
(lp1089
(lp1090
Vesp_log_early_timestamp
p1091
atp1092
atp1093
sI1074236992
(Vefuse_hal_get_minor_chip_version
p1094
(lp1095
(L529066928L
L0L
(lp1096
(lp1097
tp1098
atp1099
sI1074236736
(Vesp_rom_uart_tx_wait_idle
p1100
(lp1101
(L1747532367L
L0L
(lp1102
(lp1103
tp1104
a(L1301079727L
L0L
(lp1105
(lp1106
tp1107
a(L3597746521L
L0L
(lp1108
(lp1109
tp1110
a(L3694491048L
L0L
(lp1111
(lp1112
tp1113
a(L3055926844L
L0L
(lp1114
(lp1115
tp1116
a(L3360570486L
L0L
(lp1117
(lp1118
tp1119
atp1120
sI1074240576
(Vbootloader_sha256_data
p1121
(lp1122
(L4066096136L
L0L
(lp1123
(lp1124
tp1125
a(L47664785L
L0L
(lp1126
(lp1127
tp1128
a(L4165032547L
L3785322319L
(lp1129
(lp1130
V__assert_func
p1131
atp1132
a(L498498478L
L0L
(lp1133
(lp1134
tp1135
a(L3326783375L
L0L
(lp1136
(lp1137
tp1138
a(L2910371777L
L0L
(lp1139
(lp1140
tp1141
a(L3360570486L
L0L
(lp1142
(lp1143
tp1144
a(L3039380822L
L0L
(lp1145
(lp1146
tp1147
a(L841847518L
L0L
(lp1148
(lp1149
tp1150
a(L3762418303L
L0L
(lp1151
(lp1152
tp1153
a(L2064351857L
L0L
(lp1154
(lp1155
tp1156
a(L1828188251L
L0L
(lp1157
(lp1158
tp1159
a(L1390602840L
L0L
(lp1160
(lp1161
tp1162
a(L3028464L
L0L
(lp1163
(lp1164
tp1165
a(L3277366807L
L0L
(lp1166
(lp1167
tp1168
a(L2842958745L
L0L
(lp1169
(lp1170
tp1171
atp1172
sI1074269504
(Vbootloader_clear_bss_section
p1173
(lp1174
(L2606532370L
L0L
(lp1175
(lp1176
tp1177
atp1178
sI1074239308
(Vlog_invalid_app_partition
p1179
(lp1180
(L1678466056L
L0L
(lp1181
(lp1182
tp1183
a(L3028464L
L0L
(lp1184
(lp1185
tp1186
a(L1485463066L
L3785322319L
(lp1187
(lp1188
Vesp_log_early_timestamp
p1189
atp1190
a(L44113432L
L0L
(lp1191
(lp1192
tp1193
a(L3360570486L
L0L
(lp1194
(lp1195
tp1196
a(L1770521993L
L3785322319L
(lp1197
(lp1198
Vesp_log_early_timestamp
p1199
atp1200
a(L407379456L
L3785322319L
(lp1201
(lp1202
Vesp_log_early_timestamp
p1203
atp1204
atp1205
sI1074235724
(Vbootloader_read_flash_id
p1206
(lp1207
(L3925322170L
L3785322319L
(lp1208
(lp1209
Vbootloader_execute_flash_command
p1210
atp1211
atp1212
sI1074246988
(Vrtc_clk_bbpll_configure
p1213
(lp1214
(L3272471867L
L0L
(lp1215
(lp1216
tp1217
a(L106L
L0L
(lp1218
(lp1219
tp1220
a(L3292828246L
L0L
(lp1221
(lp1222
tp1223
a(L106L
L0L
(lp1224
(lp1225
tp1226
a(L1885212300L
L0L
(lp1227
(lp1228
tp1229
a(L1599305071L
L0L
(lp1230
(lp1231
tp1232
a(L3828293798L
L0L
(lp1233
(lp1234
tp1235
a(L160100376L
L0L
(lp1236
(lp1237
tp1238
a(L1402231786L
L0L
(lp1239
(lp1240
tp1241
a(L808538454L
L0L
(lp1242
(lp1243
tp1244
a(L350295371L
L0L
(lp1245
(lp1246
tp1247
a(L160100376L
L0L
(lp1248
(lp1249
tp1250
atp1251
sI1074237512
(Vbootloader_common_ota_select_invalid
p1252
(lp1253
(L4027567199L
L0L
(lp1254
(lp1255
tp1256
a(L3397985842L
L0L
(lp1257
(lp1258
tp1259
a(L2258867228L
L0L
(lp1260
(lp1261
tp1262
a(L3785235668L
L0L
(lp1263
(lp1264
tp1265
atp1266
sI1074269016
(Vbootloader_random_enable
p1267
(lp1268
(L2681459775L
L0L
(lp1269
(lp1270
tp1271
atp1272
sI1074269528
(Vbootloader_read_bootloader_header
p1273
(lp1274
(L1965707317L
L3785322319L
(lp1275
(lp1276
Vbootloader_flash_read
p1277
atp1278
a(L4102083713L
L3785322319L
(lp1279
(lp1280
Vesp_log_early_timestamp
p1281
atp1282
a(L735741265L
L0L
(lp1283
(lp1284
tp1285
atp1286
sI1074237008
(Vis_xmc_chip_strict
p1287
(lp1288
(L1286841609L
L0L
(lp1289
(lp1290
tp1291
a(L2234016759L
L0L
(lp1292
(lp1293
tp1294
a(L1069027148L
L0L
(lp1295
(lp1296
tp1297
a(L3021749L
L0L
(lp1298
(lp1299
tp1300
a(L1900148749L
L0L
(lp1301
(lp1302
tp1303
a(L1936875721L
L0L
(lp1304
(lp1305
tp1306
a(L3356166509L
L0L
(lp1307
(lp1308
tp1309
a(L1937769451L
L0L
(lp1310
(lp1311
tp1312
a(L2137658907L
L0L
(lp1313
(lp1314
tp1315
a(L4265949734L
L0L
(lp1316
(lp1317
tp1318
a(L3360570486L
L0L
(lp1319
(lp1320
tp1321
atp1322
sI1074247504
(Vrtc_clk_cpu_freq_get_config
p1323
(lp1324
(L2241992864L
L0L
(lp1325
(lp1326
tp1327
a(L2902417580L
L0L
(lp1328
(lp1329
tp1330
a(L1777368540L
L0L
(lp1331
(lp1332
tp1333
a(L3700963566L
L1880226080L
(lp1334
(lp1335
Vesp_log_early_timestamp
p1336
aVabort
p1337
atp1338
a(L1697986318L
L3785322319L
(lp1339
(lp1340
Vrtc_clk_xtal_freq_get
p1341
atp1342
a(L584032699L
L0L
(lp1343
(lp1344
tp1345
a(L2010811156L
L0L
(lp1346
(lp1347
tp1348
a(L3020187L
L0L
(lp1349
(lp1350
tp1351
a(L713819170L
L0L
(lp1352
(lp1353
tp1354
a(L106L
L0L
(lp1355
(lp1356
tp1357
a(L549042870L
L0L
(lp1358
(lp1359
tp1360
a(L187152368L
L0L
(lp1361
(lp1362
tp1363
a(L4149732163L
L0L
(lp1364
(lp1365
tp1366
atp1367
sI1074270544
(Vrtc_vddsdio_get_config
p1368
(lp1369
(L12311480L
L0L
(lp1370
(lp1371
tp1372
a(L147025923L
L0L
(lp1373
(lp1374
tp1375
a(L318395269L
L0L
(lp1376
(lp1377
tp1378
a(L1399971818L
L0L
(lp1379
(lp1380
tp1381
a(L1911319052L
L0L
(lp1382
(lp1383
tp1384
a(L1116012092L
L0L
(lp1385
(lp1386
tp1387
a(L1719615367L
L0L
(lp1388
(lp1389
tp1390
a(L1276420571L
L0L
(lp1391
(lp1392
tp1393
atp1394
sI1074246236
(Vrtc_clk_bbpll_disable
p1395
(lp1396
(L499023598L
L0L
(lp1397
(lp1398
tp1399
a(L391691750L
L0L
(lp1400
(lp1401
tp1402
a(L3360570486L
L0L
(lp1403
(lp1404
tp1405
atp1406
sI1074243672
(Vesp_rom_spiflash_wait_idle
p1407
(lp1408
(L3233075752L
L0L
(lp1409
(lp1410
tp1411
a(L2023766174L
L0L
(lp1412
(lp1413
tp1414
a(L2805933709L
L0L
(lp1415
(lp1416
tp1417
a(L3086959262L
L0L
(lp1418
(lp1419
tp1420
a(L4161019926L
L3785322319L
(lp1421
(lp1422
Vesp_rom_spiflash_read_status
p1423
atp1424
atp1425
sI1074236504
(Vbootloader_flash_dummy_config
p1426
(lp1427
(L132211179L
L0L
(lp1428
(lp1429
tp1430
a(L2761717557L
L0L
(lp1431
(lp1432
tp1433
a(L705371371L
L0L
(lp1434
(lp1435
tp1436
a(L2971458626L
L0L
(lp1437
(lp1438
tp1439
a(L1491210540L
L0L
(lp1440
(lp1441
tp1442
a(L3081491917L
L0L
(lp1443
(lp1444
tp1445
a(L1610443405L
L0L
(lp1446
(lp1447
tp1448
a(L4102729993L
L0L
(lp1449
(lp1450
tp1451
a(L1449490182L
L0L
(lp1452
(lp1453
tp1454
a(L1298875775L
L0L
(lp1455
(lp1456
tp1457
a(L3880393601L
L0L
(lp1458
(lp1459
tp1460
a(L1505818087L
L0L
(lp1461
(lp1462
tp1463
a(L1610443436L
L0L
(lp1464
(lp1465
tp1466
atp1467
sI1074237540
(Vbootloader_common_select_otadata
p1468
(lp1469
(L2342662536L
L0L
(lp1470
(lp1471
tp1472
a(L3806783650L
L0L
(lp1473
(lp1474
tp1475
a(L1674928252L
L0L
(lp1476
(lp1477
tp1478
a(L251571983L
L0L
(lp1479
(lp1480
tp1481
a(L3360570486L
L0L
(lp1482
(lp1483
tp1484
a(L2045232488L
L0L
(lp1485
(lp1486
tp1487
a(L189726519L
L0L
(lp1488
(lp1489
tp1490
a(L3095066987L
L0L
(lp1491
(lp1492
tp1493
a(L3592023188L
L0L
(lp1494
(lp1495
tp1496
a(L1641201884L
L0L
(lp1497
(lp1498
tp1499
atp1500
sI1074238308
(Vbootloader_enable_wp
p1501
(lp1502
(L1117825804L
L3785322319L
(lp1503
(lp1504
Vbootloader_execute_flash_command
p1505
atp1506
atp1507
sI1074241124
(Vprocess_checksum
p1508
(lp1509
(L1985325516L
L0L
(lp1510
(lp1511
tp1512
a(L2910371777L
L0L
(lp1513
(lp1514
tp1515
a(L1649277394L
L0L
(lp1516
(lp1517
tp1518
a(L2910371777L
L0L
(lp1519
(lp1520
tp1521
a(L2902417580L
L0L
(lp1522
(lp1523
tp1524
a(L1644002876L
L3785322319L
(lp1525
(lp1526
Vbootloader_sha256_data
p1527
atp1528
a(L3612796056L
L0L
(lp1529
(lp1530
tp1531
a(L1811888222L
L3785322319L
(lp1532
(lp1533
Vbootloader_flash_read
p1534
atp1535
a(L3126521138L
L0L
(lp1536
(lp1537
tp1538
a(L3554962521L
L0L
(lp1539
(lp1540
tp1541
a(L3695165130L
L3785322319L
(lp1542
(lp1543
Vesp_log_early_timestamp
p1544
atp1545
atp1546
sI1074237792
(Vbootloader_munmap
p1547
(lp1548
(L1789211019L
L0L
(lp1549
(lp1550
tp1551
a(L488734766L
L0L
(lp1552
(lp1553
tp1554
a(L3360570486L
L0L
(lp1555
(lp1556
tp1557
atp1558
sI1074246764
(Vrtc_clk_8m_enabled
p1559
(lp1560
(L1534531714L
L0L
(lp1561
(lp1562
tp1563
atp1564
sI1074269796
(Vbootloader_print_banner
p1565
(lp1566
(L2518500345L
L1880226080L
(lp1567
(lp1568
Vesp_log_early_timestamp
p1569
aVesp_log_early_timestamp
p1570
atp1571
atp1572
sI1074240116
(Vbootloader_utility_load_boot_image_from_deep_sleep
p1573
(lp1574
(L2442652905L
L0L
(lp1575
(lp1576
tp1577
a(L1749343196L
L3785322319L
(lp1578
(lp1579
Vbootloader_common_get_rtc_retain_mem_partition
p1580
atp1581
a(L807480887L
L3785322319L
(lp1582
(lp1583
Vbootloader_load_image_no_verify
p1584
atp1585
a(L1191619374L
L1832448559L
(lp1586
(lp1587
Vesp_log_early_timestamp
p1588
aVbootloader_common_update_rtc_retain_mem
p1589
aVload_image
p1590
atp1591
a(L2120536228L
L1880226080L
(lp1592
(lp1593
Vesp_log_early_timestamp
p1594
aVesp_log_early_timestamp
p1595
atp1596
a(L3360570486L
L0L
(lp1597
(lp1598
tp1599
atp1600
sI1074246000
(Vwdt_hal_write_protect_disable
p1601
(lp1602
(L1096160692L
L0L
(lp1603
(lp1604
tp1605
a(L4195472003L
L0L
(lp1606
(lp1607
tp1608
a(L3360570486L
L0L
(lp1609
(lp1610
tp1611
a(L1210571996L
L0L
(lp1612
(lp1613
tp1614
atp1615
sI1074238328
(Vbootloader_mmap_get_free_pages
p1616
(lp1617
(L1496516875L
L0L
(lp1618
(lp1619
tp1620
atp1621
sI1074235768
(Vbootloader_flash_xmc_startup
p1622
(lp1623
(L4031258446L
L3785322319L
(lp1624
(lp1625
Vis_xmc_chip_strict
p1626
atp1627
a(L2258688482L
L0L
(lp1628
(lp1629
tp1630
a(L3360570486L
L0L
(lp1631
(lp1632
tp1633
a(L2860324232L
L3785322319L
(lp1634
(lp1635
Vbootloader_flash_read_sfdp
p1636
atp1637
a(L3354428414L
L2567856111L
(lp1638
(lp1639
Vesp_log_early_timestamp
p1640
aVbootloader_execute_flash_command
p1641
aVbootloader_execute_flash_command
p1642
aVbootloader_execute_flash_command
p1643
aVbootloader_execute_flash_command
p1644
aVbootloader_read_flash_id
p1645
aVis_xmc_chip_strict
p1646
atp1647
a(L3332645139L
L3785322319L
(lp1648
(lp1649
Vesp_log_early_timestamp
p1650
atp1651
atp1652
sI1074248568
(Vrtc_clk_cal_ratio
p1653
(lp1654
(L2735592662L
L3785322319L
(lp1655
(lp1656
Vrtc_clk_cal_internal
p1657
atp1658
atp1659
sI1074270088
(Vrtc_clk_init
p1660
(lp1661
(L3487097464L
L0L
(lp1662
(lp1663
tp1664
a(L42671777L
L3785322319L
(lp1665
(lp1666
Vrtc_clk_cpu_freq_to_xtal
p1667
atp1668
a(L1935871317L
L0L
(lp1669
(lp1670
tp1671
a(L4184912069L
L0L
(lp1672
(lp1673
tp1674
a(L2873281153L
L0L
(lp1675
(lp1676
tp1677
a(L912414356L
L3785322319L
(lp1678
(lp1679
Vrtc_clk_xtal_freq_get
p1680
atp1681
a(L1244428170L
L1157885199L
(lp1682
(lp1683
Vesp_rom_uart_tx_wait_idle
p1684
aVrtc_clk_xtal_freq_update
p1685
aVrtc_clk_apb_freq_update
p1686
aVrtc_clk_cpu_freq_get_config
p1687
aVrtc_clk_cpu_freq_mhz_to_config
p1688
atp1689
a(L3941770928L
L1880226080L
(lp1690
(lp1691
Vesp_log_early_timestamp
p1692
aVabort
p1693
atp1694
a(L4187693717L
L3785322319L
(lp1695
(lp1696
Vrtc_clk_xtal_freq_estimate
p1697
atp1698
a(L38559164L
L3785322319L
(lp1699
(lp1700
Vesp_log_early_timestamp
p1701
atp1702
a(L4188325301L
L0L
(lp1703
(lp1704
tp1705
a(L1563923531L
L0L
(lp1706
(lp1707
tp1708
a(L106L
L0L
(lp1709
(lp1710
tp1711
a(L4070631878L
L3785322319L
(lp1712
(lp1713
Vrtc_clk_xtal_freq_estimate
p1714
atp1715
a(L106L
L0L
(lp1716
(lp1717
tp1718
a(L3554578860L
L3785322319L
(lp1719
(lp1720
Vesp_log_early_timestamp
p1721
atp1722
a(L1435542129L
L3785322319L
(lp1723
(lp1724
Vrtc_clk_cpu_freq_set_config
p1725
atp1726
a(L4168829660L
L3785322319L
(lp1727
(lp1728
Vrtc_clk_32k_enable
p1729
atp1730
a(L3016870L
L0L
(lp1731
(lp1732
tp1733
a(L452760767L
L3785322319L
(lp1734
(lp1735
Vrtc_clk_8m_enable
p1736
atp1737
a(L530469956L
L1880226080L
(lp1738
(lp1739
Vrtc_clk_fast_freq_set
p1740
aVrtc_clk_slow_freq_set
p1741
atp1742
atp1743
sI1074236036
(Vbootloader_flash_gpio_config
p1744
(lp1745
(L719792650L
L3785322319L
(lp1746
(lp1747
Vbootloader_common_get_chip_ver_pkg
p1748
atp1749
a(L106L
L0L
(lp1750
(lp1751
tp1752
a(L2886083034L
L0L
(lp1753
(lp1754
tp1755
a(L106L
L0L
(lp1756
(lp1757
tp1758
a(L4213870169L
L0L
(lp1759
(lp1760
tp1761
a(L3890032189L
L0L
(lp1762
(lp1763
tp1764
a(L106L
L0L
(lp1765
(lp1766
tp1767
a(L676119430L
L0L
(lp1768
(lp1769
tp1770
a(L4272081986L
L0L
(lp1771
(lp1772
tp1773
a(L3360570486L
L0L
(lp1774
(lp1775
tp1776
atp1777
sI1074246788
(Vrtc_clk_8md256_enabled
p1778
(lp1779
(L690059843L
L0L
(lp1780
(lp1781
tp1782
atp1783
sI1074238336
(Vbootloader_fill_random
p1784
(lp1785
(L3026789978L
L0L
(lp1786
(lp1787
tp1788
a(L2241046853L
L0L
(lp1789
(lp1790
tp1791
a(L97689L
L0L
(lp1792
(lp1793
tp1794
a(L3360570486L
L0L
(lp1795
(lp1796
tp1797
a(L3655615787L
L3785322319L
(lp1798
(lp1799
V__assert_func
p1800
atp1801
a(L2008660626L
L0L
(lp1802
(lp1803
tp1804
a(L3028481L
L0L
(lp1805
(lp1806
tp1807
a(L983138374L
L0L
(lp1808
(lp1809
tp1810
a(L2607138306L
L0L
(lp1811
(lp1812
tp1813
a(L1982128194L
L0L
(lp1814
(lp1815
tp1816
atp1817
sI1074236800
(Vesp_rom_uart_set_clock_baudrate
p1818
(lp1819
(L3861262560L
L0L
(lp1820
(lp1821
tp1822
a(L3917339996L
L0L
(lp1823
(lp1824
tp1825
a(L1008980076L
L0L
(lp1826
(lp1827
tp1828
a(L890400028L
L0L
(lp1829
(lp1830
tp1831
a(L2805931419L
L0L
(lp1832
(lp1833
tp1834
a(L2136660087L
L0L
(lp1835
(lp1836
tp1837
atp1838
sI1074243968
(Vesp_rom_spiflash_erase_sector
p1839
(lp1840
(L1020456595L
L0L
(lp1841
(lp1842
tp1843
a(L2258688483L
L0L
(lp1844
(lp1845
tp1846
a(L3360570486L
L0L
(lp1847
(lp1848
tp1849
a(L3212356251L
L3785322319L
(lp1850
(lp1851
Vesp_rom_spiflash_enable_write
p1852
atp1853
a(L184152988L
L0L
(lp1854
(lp1855
tp1856
a(L4133658124L
L3785322319L
(lp1857
(lp1858
Vesp_rom_spiflash_wait_idle
p1859
atp1860
a(L3333707777L
L0L
(lp1861
(lp1862
tp1863
a(L3582858798L
L3785322319L
(lp1864
(lp1865
Vesp_rom_spiflash_wait_idle
p1866
atp1867
atp1868
sI1074267776
(Vcall_start_cpu0
p1869
(lp1870
(L1974457732L
L3785322319L
(lp1871
(lp1872
Vbootloader_init
p1873
atp1874
a(L94425498L
L3785322319L
(lp1875
(lp1876
Vbootloader_reset
p1877
atp1878
a(L913552592L
L1880226080L
(lp1879
(lp1880
Vbootloader_utility_load_boot_image_from_deep_sleep
p1881
aVbootloader_utility_load_partition_table
p1882
atp1883
a(L4026389016L
L3785322319L
(lp1884
(lp1885
Vesp_log_early_timestamp
p1886
atp1887
a(L1623793516L
L3785322319L
(lp1888
(lp1889
Vbootloader_utility_get_selected_boot_partition
p1890
atp1891
a(L2086982338L
L1880226080L
(lp1892
(lp1893
Vbootloader_common_get_reset_reason
p1894
aVbootloader_utility_load_boot_image
p1895
atp1896
atp1897
sI1074247820
(Vrtc_clk_cpu_freq_set_config
p1898
(lp1899
(L2927068810L
L3785322319L
(lp1900
(lp1901
Vrtc_clk_xtal_freq_get
p1902
atp1903
a(L1828795533L
L1880226080L
(lp1904
(lp1905
Vrtc_clk_cpu_freq_to_xtal
p1906
aVrtc_clk_wait_for_slow_cycle
p1907
atp1908
a(L94425498L
L3785322319L
(lp1909
(lp1910
Vrtc_clk_bbpll_disable
p1911
atp1912
a(L3978916712L
L0L
(lp1913
(lp1914
tp1915
a(L2977209154L
L0L
(lp1916
(lp1917
tp1918
a(L2736411858L
L3785322319L
(lp1919
(lp1920
Vrtc_clk_cpu_freq_to_xtal
p1921
atp1922
a(L3360570486L
L0L
(lp1923
(lp1924
tp1925
a(L3020187L
L0L
(lp1926
(lp1927
tp1928
a(L106L
L0L
(lp1929
(lp1930
tp1931
a(L688179595L
L2485746240L
(lp1932
(lp1933
Vrtc_clk_wait_for_slow_cycle
p1934
aVrtc_clk_xtal_freq_get
p1935
aVrtc_clk_bbpll_configure
p1936
aVrtc_clk_cpu_freq_to_pll_mhz
p1937
atp1938
a(L3020187L
L0L
(lp1939
(lp1940
tp1941
a(L106L
L0L
(lp1942
(lp1943
tp1944
a(L1098489276L
L0L
(lp1945
(lp1946
tp1947
atp1948
sI1074269572
(Vbootloader_check_bootloader_validity
p1949
(lp1950
(L1445660430L
L1832448559L
(lp1951
(lp1952
Vefuse_hal_chip_revision
p1953
aVesp_log_early_timestamp
p1954
aVbootloader_common_check_chip_validity
p1955
atp1956
atp1957
sI1074243720
(Vesp_rom_spiflash_enable_write
p1958
(lp1959
(L693390067L
L3785322319L
(lp1960
(lp1961
Vesp_rom_spiflash_wait_idle
p1962
atp1963
a(L3137194272L
L0L
(lp1964
(lp1965
tp1966
a(L2258718275L
L0L
(lp1967
(lp1968
tp1969
a(L99543895L
L0L
(lp1970
(lp1971
tp1972
a(L2993202392L
L0L
(lp1973
(lp1974
tp1975
a(L1804543818L
L3785322319L
(lp1976
(lp1977
Vesp_rom_spiflash_read_status
p1978
atp1979
atp1980
sI1074237844
(Vbootloader_flash_read
p1981
(lp1982
(L2699333355L
L0L
(lp1983
(lp1984
tp1985
a(L2754651132L
L3785322319L
(lp1986
(lp1987
Vesp_log_early_timestamp
p1988
atp1989
a(L44113432L
L0L
(lp1990
(lp1991
tp1992
a(L1299867982L
L0L
(lp1993
(lp1994
tp1995
a(L3360570486L
L0L
(lp1996
(lp1997
tp1998
a(L2660352519L
L0L
(lp1999
(lp2000
tp2001
a(L3132108332L
L3785322319L
(lp2002
(lp2003
Vesp_log_early_timestamp
p2004
atp2005
a(L162336582L
L0L
(lp2006
(lp2007
tp2008
a(L1181808201L
L3785322319L
(lp2009
(lp2010
Vesp_log_early_timestamp
p2011
atp2012
a(L3020204L
L0L
(lp2013
(lp2014
tp2015
a(L1398573769L
L0L
(lp2016
(lp2017
tp2018
a(L97422L
L0L
(lp2019
(lp2020
tp2021
a(L1194062413L
L0L
(lp2022
(lp2023
tp2024
a(L3013280137L
L0L
(lp2025
(lp2026
tp2027
a(L3491746890L
L3785322319L
(lp2028
(lp2029
Vesp_log_early_timestamp
p2030
atp2031
a(L3393724977L
L0L
(lp2032
(lp2033
tp2034
a(L3779829298L
L0L
(lp2035
(lp2036
tp2037
a(L1315125594L
L3785322319L
(lp2038
(lp2039
Vesp_rom_spiflash_read
p2040
atp2041
a(L106L
L0L
(lp2042
(lp2043
tp2044
a(L2155564484L
L0L
(lp2045
(lp2046
tp2047
atp2048
sI1074246032
(Vwdt_hal_enable
p2049
(lp2050
(L4029830118L
L0L
(lp2051
(lp2052
tp2053
a(L3634439744L
L0L
(lp2054
(lp2055
tp2056
a(L3360570486L
L0L
(lp2057
(lp2058
tp2059
a(L2011576586L
L0L
(lp2060
(lp2061
tp2062
atp2063
sI1074246812
(Vrtc_clk_slow_freq_set
p2064
(lp2065
(L2711460677L
L0L
(lp2066
(lp2067
tp2068
atp2069
sI1074269844
(Vbootloader_console_init
p2070
(lp2071
(L2184937789L
L2485746240L
(lp2072
(lp2073
Vesp_rom_install_channel_putc
p2074
aVesp_rom_uart_tx_wait_idle
p2075
aVrtc_clk_apb_freq_get
p2076
aVesp_rom_uart_set_clock_baudrate
p2077
atp2078
atp2079
sI1074237080
(Vesp_log_early_timestamp
p2080
(lp2081
(L677791546L
L0L
(lp2082
(lp2083
tp2084
atp2085
sI1074246296
(Vrtc_clk_cpu_freq_to_pll_mhz
p2086
(lp2087
(L428013989L
L0L
(lp2088
(lp2089
tp2090
a(L106L
L0L
(lp2091
(lp2092
tp2093
a(L1541997046L
L0L
(lp2094
(lp2095
tp2096
a(L106L
L0L
(lp2097
(lp2098
tp2099
a(L1546614651L
L0L
(lp2100
(lp2101
tp2102
a(L3439082421L
L0L
(lp2103
(lp2104
tp2105
a(L2671854279L
L3785322319L
(lp2106
(lp2107
Vrtc_clk_wait_for_slow_cycle
p2108
atp2109
a(L3016378599L
L1880226080L
(lp2110
(lp2111
Vesp_log_early_timestamp
p2112
aVabort
p2113
atp2114
a(L1183020347L
L0L
(lp2115
(lp2116
tp2117
a(L1305407562L
L0L
(lp2118
(lp2119
tp2120
a(L1306330990L
L0L
(lp2121
(lp2122
tp2123
atp2124
sI1074248600
(Vrtc_clk_wait_for_slow_cycle
p2125
(lp2126
(L156466031L
L0L
(lp2127
(lp2128
tp2129
a(L287687718L
L0L
(lp2130
(lp2131
tp2132
a(L3360570486L
L0L
(lp2133
(lp2134
tp2135
a(L3986273454L
L0L
(lp2136
(lp2137
tp2138
a(L2994547433L
L0L
(lp2139
(lp2140
tp2141
a(L894826511L
L0L
(lp2142
(lp2143
tp2144
a(L978262925L
L3785322319L
(lp2145
(lp2146
Vesp_log_early_timestamp
p2147
atp2148
atp2149
sI1074239140
(Vset_actual_ota_seq
p2150
(lp2151
(L4094723830L
L0L
(lp2152
(lp2153
tp2154
a(L823328351L
L0L
(lp2155
(lp2156
tp2157
a(L4064250781L
L3785322319L
(lp2158
(lp2159
Vbootloader_common_ota_select_crc
p2160
atp2161
a(L3028481L
L0L
(lp2162
(lp2163
tp2164
a(L2154605071L
L3785322319L
(lp2165
(lp2166
Vbootloader_flash_erase_sector
p2167
atp2168
a(L3231192910L
L3785322319L
(lp2169
(lp2170
Vbootloader_flash_write
p2171
atp2172
a(L4055947138L
L3785322319L
(lp2173
(lp2174
Vesp_log_early_timestamp
p2175
atp2176
a(L1797474904L
L3785322319L
(lp2177
(lp2178
Vesp_log_early_timestamp
p2179
atp2180
a(L889933560L
L1880226080L
(lp2181
(lp2182
Vindex_to_partition
p2183
aVbootloader_common_update_rtc_retain_mem
p2184
atp2185
a(L3016870L
L0L
(lp2186
(lp2187
tp2188
a(L1135480206L
L0L
(lp2189
(lp2190
tp2191
a(L957607403L
L0L
(lp2192
(lp2193
tp2194
atp2195
sI1074248100
(Vrtc_clk_apb_freq_get
p2196
(lp2197
(L129380123L
L0L
(lp2198
(lp2199
tp2200
atp2201
sI1074239392
(Vtry_load_partition
p2202
(lp2203
(L1263750142L
L0L
(lp2204
(lp2205
tp2206
a(L2258688482L
L0L
(lp2207
(lp2208
tp2209
a(L3360570486L
L0L
(lp2210
(lp2211
tp2212
a(L530241438L
L3785322319L
(lp2213
(lp2214
Vbootloader_load_image
p2215
atp2216
a(L3886551491L
L3785322319L
(lp2217
(lp2218
Vesp_log_early_timestamp
p2219
atp2220
atp2221
sI1074268832
(Vbootloader_clock_configure
p2222
(lp2223
(L1154001737L
L1880226080L
(lp2224
(lp2225
Vesp_rom_uart_tx_wait_idle
p2226
aVefuse_hal_chip_revision
p2227
atp2228
a(L2119588600L
L0L
(lp2229
(lp2230
tp2231
a(L46500273L
L3785322319L
(lp2232
(lp2233
Vrtc_clk_apb_freq_get
p2234
atp2235
a(L2503001246L
L1832448559L
(lp2236
(lp2237
Vrtc_clk_slow_freq_get
p2238
aVrtc_clk_fast_freq_get
p2239
aVrtc_clk_init
p2240
atp2241
a(L1106689080L
L0L
(lp2242
(lp2243
tp2244
a(L883406775L
L0L
(lp2245
(lp2246
tp2247
a(L106L
L0L
(lp2248
(lp2249
tp2250
atp2251
sI1074240936
(Vbootloader_console_deinit
p2252
(lp2253
(L1208705498L
L0L
(lp2254
(lp2255
tp2256
atp2257
sI1074241960
(Vshould_load
p2258
(lp2259
(L2767690611L
L0L
(lp2260
(lp2261
tp2262
a(L1182990556L
L0L
(lp2263
(lp2264
tp2265
a(L1099394420L
L0L
(lp2266
(lp2267
tp2268
a(L1298905564L
L0L
(lp2269
(lp2270
tp2271
a(L524505062L
L0L
(lp2272
(lp2273
tp2274
a(L2258897019L
L0L
(lp2275
(lp2276
tp2277
a(L3781799363L
L0L
(lp2278
(lp2279
tp2280
a(L3028464L
L0L
(lp2281
(lp2282
tp2283
a(L2429521818L
L0L
(lp2284
(lp2285
tp2286
a(L1123445208L
L0L
(lp2287
(lp2288
tp2289
a(L3899189283L
L0L
(lp2290
(lp2291
tp2292
a(L4185756579L
L0L
(lp2293
(lp2294
tp2295
a(L3458855836L
L0L
(lp2296
(lp2297
tp2298
a(L3126521138L
L0L
(lp2299
(lp2300
tp2301
a(L1305407438L
L0L
(lp2302
(lp2303
tp2304
a(L1305407469L
L0L
(lp2305
(lp2306
tp2307
atp2308
sI1074237620
(Vbootloader_mmap
p2309
(lp2310
(L1581567431L
L0L
(lp2311
(lp2312
tp2313
a(L3892446227L
L3785322319L
(lp2314
(lp2315
Vesp_log_early_timestamp
p2316
atp2317
a(L1182811810L
L0L
(lp2318
(lp2319
tp2320
a(L3496950L
L0L
(lp2321
(lp2322
tp2323
a(L1634453665L
L0L
(lp2324
(lp2325
tp2326
a(L3343022830L
L3785322319L
(lp2327
(lp2328
Vesp_log_early_timestamp
p2329
atp2330
a(L941539052L
L0L
(lp2331
(lp2332
tp2333
a(L3218016969L
L3785322319L
(lp2334
(lp2335
Vesp_log_early_timestamp
p2336
atp2337
a(L3862974330L
L0L
(lp2338
(lp2339
tp2340
atp2341
sI1074238128
(Vbootloader_flash_erase_sector
p2342
(lp2343
(L2049114289L
L3785322319L
(lp2344
(lp2345
Vesp_rom_spiflash_erase_sector
p2346
atp2347
a(L3384340354L
L0L
(lp2348
(lp2349
tp2350
a(L3360570486L
L0L
(lp2351
(lp2352
tp2353
atp2354
sI1074244272
(Vesp_rom_spiflash_write_encrypted
p2355
(lp2356
(L2107077087L
L0L
(lp2357
(lp2358
tp2359
a(L1681405201L
L0L
(lp2360
(lp2361
tp2362
a(L97689L
L0L
(lp2363
(lp2364
tp2365
a(L3061232074L
L0L
(lp2366
(lp2367
tp2368
a(L1984471991L
L0L
(lp2369
(lp2370
tp2371
a(L2903314395L
L3785322319L
(lp2372
(lp2373
Vesp_rom_spiflash_write
p2374
atp2375
a(L439692982L
L0L
(lp2376
(lp2377
tp2378
a(L735741265L
L0L
(lp2379
(lp2380
tp2381
atp2382
sI1074246576
(Vrtc_clk_32k_enable
p2383
(lp2384
(L753387299L
L0L
(lp2385
(lp2386
tp2387
a(L1067050752L
L3785322319L
(lp2388
(lp2389
Vrtc_clk_32k_enable_common
p2390
atp2391
a(L3360570486L
L0L
(lp2392
(lp2393
tp2394
a(L3686262176L
L0L
(lp2395
(lp2396
tp2397
atp2398
sI1074243260
(Vbootloader_load_image
p2399
(lp2400
(L1155870502L
L3785322319L
(lp2401
(lp2402
Vimage_load
p2403
atp2404
atp2405
sI1074269876
(Vesp_cpu_configure_region_protection
p2406
(lp2407
(L2937137248L
L0L
(lp2408
(lp2409
tp2410
a(L180431425L
L3785322319L
(lp2411
(lp2412
Vmpu_hal_set_region_access
p2413
atp2414
a(L2537388152L
L3785322319L
(lp2415
(lp2416
Vmpu_hal_set_region_access
p2417
atp2418
atp2419
sI1074240952
(V__assert_func
p2420
(lp2421
(L40928347L
L0L
(lp2422
(lp2423
tp2424
a(L106L
L0L
(lp2425
(lp2426
tp2427
atp2428
sI1074237112
(Vcheck_rtc_retain_mem
p2429
(lp2430
(L3569877320L
L0L
(lp2431
(lp2432
tp2433
atp2434
sI1074237368
(Vbootloader_common_get_active_otadata
p2435
(lp2436
(L3317503532L
L0L
(lp2437
(lp2438
tp2439
a(L2503049265L
L1832448559L
(lp2440
(lp2441
Vbootloader_common_ota_select_valid
p2442
aVbootloader_common_ota_select_valid
p2443
aVbootloader_common_select_otadata
p2444
atp2445
a(L735741265L
L0L
(lp2446
(lp2447
tp2448
atp2449
sI1074243780
(Vesp_rom_spiflash_program_page_internal
p2450
(lp2451
(L2569069283L
L0L
(lp2452
(lp2453
tp2454
a(L2258688483L
L0L
(lp2455
(lp2456
tp2457
a(L3360570486L
L0L
(lp2458
(lp2459
tp2460
a(L14392371L
L0L
(lp2461
(lp2462
tp2463
a(L4235661475L
L3785322319L
(lp2464
(lp2465
Vesp_rom_spiflash_wait_idle
p2466
atp2467
a(L1299866312L
L0L
(lp2468
(lp2469
tp2470
a(L3212356251L
L3785322319L
(lp2471
(lp2472
Vesp_rom_spiflash_enable_write
p2473
atp2474
a(L396394813L
L0L
(lp2475
(lp2476
tp2477
a(L3025674837L
L0L
(lp2478
(lp2479
tp2480
a(L2953702749L
L0L
(lp2481
(lp2482
tp2483
a(L2989032L
L0L
(lp2484
(lp2485
tp2486
a(L1965622133L
L0L
(lp2487
(lp2488
tp2489
a(L1461727713L
L0L
(lp2490
(lp2491
tp2492
a(L1958113242L
L0L
(lp2493
(lp2494
tp2495
a(L106L
L0L
(lp2496
(lp2497
tp2498
a(L4283177684L
L0L
(lp2499
(lp2500
tp2501
a(L1405253496L
L0L
(lp2502
(lp2503
tp2504
a(L1008982381L
L0L
(lp2505
(lp2506
tp2507
a(L1933954923L
L0L
(lp2508
(lp2509
tp2510
a(L3886319556L
L0L
(lp2511
(lp2512
tp2513
a(L2767679583L
L0L
(lp2514
(lp2515
tp2516
atp2517
sI1074269644
(Vbootloader_config_wdt
p2518
(lp2519
(L1795339050L
L505859776L
(lp2520
(lp2521
Vwdt_hal_write_protect_disable
p2522
aVwdt_hal_set_flashboot_en
p2523
aVwdt_hal_write_protect_enable
p2524
aVwdt_hal_init
p2525
aVrtc_clk_slow_freq_get_hz
p2526
aVwdt_hal_write_protect_disable
p2527
aVwdt_hal_config_stage
p2528
aVwdt_hal_enable
p2529
aVwdt_hal_write_protect_enable
p2530
aVwdt_hal_write_protect_disable
p2531
aVwdt_hal_set_flashboot_en
p2532
aVwdt_hal_write_protect_enable
p2533
atp2534
atp2535
sI1074243276
(Vbootloader_load_image_no_verify
p2536
(lp2537
(L3412781509L
L3785322319L
(lp2538
(lp2539
Vimage_load
p2540
atp2541
atp2542
sI1074238156
(Vbootloader_flash_write
p2543
(lp2544
(L3119145091L
L0L
(lp2545
(lp2546
tp2547
a(L1875582464L
L3785322319L
(lp2548
(lp2549
Vesp_log_early_timestamp
p2550
atp2551
a(L44113432L
L0L
(lp2552
(lp2553
tp2554
a(L1610445075L
L0L
(lp2555
(lp2556
tp2557
a(L735741265L
L0L
(lp2558
(lp2559
tp2560
a(L3291333414L
L0L
(lp2561
(lp2562
tp2563
a(L2835528740L
L3785322319L
(lp2564
(lp2565
Vesp_log_early_timestamp
p2566
atp2567
a(L3283691850L
L0L
(lp2568
(lp2569
tp2570
a(L3837798183L
L3785322319L
(lp2571
(lp2572
Vesp_log_early_timestamp
p2573
atp2574
a(L3212356251L
L3785322319L
(lp2575
(lp2576
Vbootloader_flash_unlock
p2577
atp2578
a(L4210907913L
L0L
(lp2579
(lp2580
tp2581
a(L94425498L
L3785322319L
(lp2582
(lp2583
Vesp_rom_spiflash_write_encrypted
p2584
atp2585
a(L93674324L
L0L
(lp2586
(lp2587
tp2588
a(L3498800939L
L0L
(lp2589
(lp2590
tp2591
a(L2927190544L
L3785322319L
(lp2592
(lp2593
Vesp_rom_spiflash_write
p2594
atp2595
atp2596
sI1074267864
(Vbootloader_common_vddsdio_configure
p2597
(lp2598
(L1922017289L
L3785322319L
(lp2599
(lp2600
Vrtc_vddsdio_get_config
p2601
atp2602
a(L1612109748L
L3785322319L
(lp2603
(lp2604
Vrtc_vddsdio_set_config
p2605
atp2606
a(L3360570486L
L0L
(lp2607
(lp2608
tp2609
atp2610
sI1074235348
(Vbootloader_execute_flash_command
p2611
(lp2612
(L2481595632L
L3785322319L
(lp2613
(lp2614
Vbootloader_flash_execute_command_common
p2615
atp2616
atp2617
sI1074239440
(Vbootloader_utility_load_partition_table
p2618
(lp2619
(L2435609835L
L3785322319L
(lp2620
(lp2621
Vbootloader_mmap
p2622
atp2623
a(L3203967892L
L3785322319L
(lp2624
(lp2625
Vesp_log_early_timestamp
p2626
atp2627
a(L2258688482L
L0L
(lp2628
(lp2629
tp2630
a(L3360570486L
L0L
(lp2631
(lp2632
tp2633
a(L2379286607L
L3785322319L
(lp2634
(lp2635
Vesp_partition_table_verify
p2636
atp2637
a(L2388360785L
L3785322319L
(lp2638
(lp2639
Vesp_log_early_timestamp
p2640
atp2641
a(L1829564821L
L1880226080L
(lp2642
(lp2643
Vesp_log_early_timestamp
p2644
aVesp_log_early_timestamp
p2645
atp2646
a(L60599615L
L0L
(lp2647
(lp2648
tp2649
a(L1484564400L
L1880226080L
(lp2650
(lp2651
Vbootloader_munmap
p2652
aVesp_log_early_timestamp
p2653
atp2654
a(L4226553678L
L0L
(lp2655
(lp2656
tp2657
a(L3028464L
L0L
(lp2658
(lp2659
tp2660
a(L106L
L0L
(lp2661
(lp2662
tp2663
a(L307915796L
L0L
(lp2664
(lp2665
tp2666
a(L2136704141L
L3785322319L
(lp2667
(lp2668
Vesp_log_early_timestamp
p2669
atp2670
a(L3990577774L
L0L
(lp2671
(lp2672
tp2673
a(L3020187L
L0L
(lp2674
(lp2675
tp2676
a(L2584688410L
L0L
(lp2677
(lp2678
tp2679
a(L1154512371L
L0L
(lp2680
(lp2681
tp2682
a(L2258201660L
L0L
(lp2683
(lp2684
tp2685
a(L1308292385L
L0L
(lp2686
(lp2687
tp2688
a(L2202822289L
L0L
(lp2689
(lp2690
tp2691
a(L312419189L
L0L
(lp2692
(lp2693
tp2694
a(L955457484L
L0L
(lp2695
(lp2696
tp2697
atp2698
sI1074240976
(Vabort
p2699
(lp2700
(L1481753082L
L0L
(lp2701
(lp2702
tp2703
a(L409441471L
L0L
(lp2704
(lp2705
tp2706
a(L106L
L0L
(lp2707
(lp2708
tp2709
atp2710
sI1074247376
(Vrtc_clk_xtal_freq_get
p2711
(lp2712
(L934534272L
L0L
(lp2713
(lp2714
tp2715
a(L2847936993L
L0L
(lp2716
(lp2717
tp2718
a(L200053730L
L0L
(lp2719
(lp2720
tp2721
a(L3360570486L
L0L
(lp2722
(lp2723
tp2724
atp2725
sI1074247632
(Vrtc_clk_xtal_freq_update
p2726
(lp2727
(L4086057174L
L0L
(lp2728
(lp2729
tp2730
a(L3509357017L
L0L
(lp2731
(lp2732
tp2733
a(L3020103887L
L0L
(lp2734
(lp2735
tp2736
atp2737
sI1074248144
(Vrtc_clk_cal_internal
p2738
(lp2739
(L2954051540L
L0L
(lp2740
(lp2741
tp2742
a(L2477514933L
L3785322319L
(lp2743
(lp2744
V__assert_func
p2745
atp2746
a(L1484535499L
L0L
(lp2747
(lp2748
tp2749
a(L3017366L
L0L
(lp2750
(lp2751
tp2752
a(L2781091364L
L0L
(lp2753
(lp2754
tp2755
a(L4169864463L
L1880226080L
(lp2756
(lp2757
Vrtc_clk_8m_enabled
p2758
aVrtc_clk_8md256_enabled
p2759
atp2760
a(L1916852365L
L3785322319L
(lp2761
(lp2762
Vrtc_clk_8m_enable
p2763
atp2764
a(L3944456854L
L0L
(lp2765
(lp2766
tp2767
a(L3502850147L
L0L
(lp2768
(lp2769
tp2770
a(L97689L
L0L
(lp2771
(lp2772
tp2773
a(L2673551845L
L0L
(lp2774
(lp2775
tp2776
a(L3028464L
L0L
(lp2777
(lp2778
tp2779
a(L3028481L
L0L
(lp2780
(lp2781
tp2782
a(L3450259790L
L0L
(lp2783
(lp2784
tp2785
a(L3324712953L
L3785322319L
(lp2786
(lp2787
Vrtc_clk_xtal_freq_get
p2788
atp2789
a(L2780079961L
L0L
(lp2790
(lp2791
tp2792
a(L598822999L
L0L
(lp2793
(lp2794
tp2795
a(L3316251135L
L3785322319L
(lp2796
(lp2797
Vesp_log_early_timestamp
p2798
atp2799
a(L3360570486L
L0L
(lp2800
(lp2801
tp2802
a(L1824652128L
L0L
(lp2803
(lp2804
tp2805
a(L748565485L
L0L
(lp2806
(lp2807
tp2808
a(L3028481L
L0L
(lp2809
(lp2810
tp2811
a(L2851561779L
L0L
(lp2812
(lp2813
tp2814
a(L755155573L
L3785322319L
(lp2815
(lp2816
Vrtc_clk_8m_enable
p2817
atp2818
a(L3631005548L
L0L
(lp2819
(lp2820
tp2821
a(L361209011L
L0L
(lp2822
(lp2823
tp2824
a(L3352263364L
L0L
(lp2825
(lp2826
tp2827
atp2828
sI1074243292
(Vesp_partition_table_verify
p2829
(lp2830
(L1518656766L
L0L
(lp2831
(lp2832
tp2833
a(L1634239065L
L0L
(lp2834
(lp2835
tp2836
a(L4287435191L
L0L
(lp2837
(lp2838
tp2839
a(L2910371777L
L0L
(lp2840
(lp2841
tp2842
a(L2810785767L
L0L
(lp2843
(lp2844
tp2845
a(L3360570486L
L0L
(lp2846
(lp2847
tp2848
a(L2334946637L
L0L
(lp2849
(lp2850
tp2851
a(L2478753082L
L0L
(lp2852
(lp2853
tp2854
a(L3020204L
L0L
(lp2855
(lp2856
tp2857
a(L2092365477L
L3785322319L
(lp2858
(lp2859
Vesp_log_early_timestamp
p2860
atp2861
a(L1983320902L
L3785322319L
(lp2862
(lp2863
Vesp_log_early_timestamp
p2864
atp2865
a(L3493978505L
L0L
(lp2866
(lp2867
tp2868
a(L2902417580L
L0L
(lp2869
(lp2870
tp2871
a(L3020204L
L0L
(lp2872
(lp2873
tp2874
a(L4223915570L
L3785322319L
(lp2875
(lp2876
Vesp_log_early_timestamp
p2877
atp2878
a(L1367516498L
L0L
(lp2879
(lp2880
tp2881
a(L41827688L
L0L
(lp2882
(lp2883
tp2884
a(L2902417580L
L0L
(lp2885
(lp2886
tp2887
a(L2092364020L
L3785322319L
(lp2888
(lp2889
Vesp_log_early_timestamp
p2890
atp2891
a(L1613213999L
L0L
(lp2892
(lp2893
tp2894
a(L1167861556L
L0L
(lp2895
(lp2896
tp2897
a(L3260980605L
L0L
(lp2898
(lp2899
tp2900
a(L2910371777L
L0L
(lp2901
(lp2902
tp2903
a(L1235012932L
L0L
(lp2904
(lp2905
tp2906
a(L3599202419L
L3785322319L
(lp2907
(lp2908
Vesp_log_early_timestamp
p2909
atp2910
atp2911
sI1074238428
(Vbootloader_random_disable
p2912
(lp2913
(L42066006L
L0L
(lp2914
(lp2915
tp2916
atp2917
sI1074236892
(Vefuse_hal_chip_revision
p2918
(lp2919
(L1761205471L
L1880226080L
(lp2920
(lp2921
Vefuse_hal_get_major_chip_version
p2922
aVefuse_hal_get_minor_chip_version
p2923
atp2924
atp2925
sI1074240216
(Vbootloader_reset
p2926
(lp2927
(L4040600132L
L3785322319L
(lp2928
(lp2929
Vbootloader_console_deinit
p2930
atp2931
a(L106L
L0L
(lp2932
(lp2933
tp2934
atp2935
sI1074246104
(Vwdt_hal_set_flashboot_en
p2936
(lp2937
(L2375320464L
L0L
(lp2938
(lp2939
tp2940
a(L2716561907L
L0L
(lp2941
(lp2942
tp2943
a(L3360570486L
L0L
(lp2944
(lp2945
tp2946
a(L643352602L
L0L
(lp2947
(lp2948
tp2949
atp2950
sI1074240740
(Vbootloader_sha256_finish
p2951
(lp2952
(L4066096136L
L0L
(lp2953
(lp2954
tp2955
a(L3062768490L
L0L
(lp2956
(lp2957
tp2958
a(L4165032547L
L3785322319L
(lp2959
(lp2960
V__assert_func
p2961
atp2962
a(L3020204L
L0L
(lp2963
(lp2964
tp2965
a(L1956099244L
L0L
(lp2966
(lp2967
tp2968
a(L2534656226L
L0L
(lp2969
(lp2970
tp2971
a(L2495768582L
L3785322319L
(lp2972
(lp2973
Vbootloader_sha256_data
p2974
atp2975
a(L3443931930L
L0L
(lp2976
(lp2977
tp2978
a(L1207973699L
L3785322319L
(lp2979
(lp2980
Vbootloader_sha256_data
p2981
atp2982
a(L3489195880L
L0L
(lp2983
(lp2984
tp2985
a(L657425439L
L0L
(lp2986
(lp2987
tp2988
a(L1196465873L
L0L
(lp2989
(lp2990
tp2991
a(L657425439L
L0L
(lp2992
(lp2993
tp2994
a(L196611907L
L0L
(lp2995
(lp2996
tp2997
a(L3301170511L
L0L
(lp2998
(lp2999
tp3000
a(L3347778L
L0L
(lp3001
(lp3002
tp3003
a(L3360570486L
L0L
(lp3004
(lp3005
tp3006
atp3007
sI1074240484
(Vindex_to_partition
p3008
(lp3009
(L4066096119L
L0L
(lp3010
(lp3011
tp3012
a(L1739185955L
L0L
(lp3013
(lp3014
tp3015
a(L2171552758L
L0L
(lp3016
(lp3017
tp3018
a(L2808906342L
L0L
(lp3019
(lp3020
tp3021
a(L2101481936L
L0L
(lp3022
(lp3023
tp3024
a(L3698927993L
L0L
(lp3025
(lp3026
tp3027
a(L2808826781L
L0L
(lp3028
(lp3029
tp3030
a(L3003398163L
L0L
(lp3031
(lp3032
tp3033
a(L1104460200L
L0L
(lp3034
(lp3035
tp3036
a(L1087646172L
L0L
(lp3037
(lp3038
tp3039
atp3040
sI1074237156
(Vbootloader_common_ota_select_crc
p3041
(lp3042
(L192601570L
L0L
(lp3043
(lp3044
tp3045
atp3046
sI1074237408
(Vbootloader_common_reset_rtc_retain_mem
p3047
(lp3048
(L2613995160L
L0L
(lp3049
(lp3050
tp3051
atp3052
sI1074234848
(Vbootloader_flash_execute_command_common
p3053
(lp3054
(L630859308L
L0L
(lp3055
(lp3056
tp3057
a(L120555568L
L0L
(lp3058
(lp3059
tp3060
a(L2925418774L
L3785322319L
(lp3061
(lp3062
V__assert_func
p3063
atp3064
a(L3021749L
L0L
(lp3065
(lp3066
tp3067
a(L153183052L
L0L
(lp3068
(lp3069
tp3070
a(L3132325827L
L0L
(lp3071
(lp3072
tp3073
a(L1782874522L
L0L
(lp3074
(lp3075
tp3076
a(L4024113366L
L0L
(lp3077
(lp3078
tp3079
a(L2147958864L
L0L
(lp3080
(lp3081
tp3082
a(L831940355L
L0L
(lp3083
(lp3084
tp3085
a(L2039827138L
L0L
(lp3086
(lp3087
tp3088
a(L2429937038L
L0L
(lp3089
(lp3090
tp3091
a(L2186295391L
L0L
(lp3092
(lp3093
tp3094
a(L3079186448L
L0L
(lp3095
(lp3096
tp3097
a(L3333696662L
L0L
(lp3098
(lp3099
tp3100
a(L963425213L
L0L
(lp3101
(lp3102
tp3103
a(L3172016656L
L0L
(lp3104
(lp3105
tp3106
a(L3360570486L
L0L
(lp3107
(lp3108
tp3109
a(L1184240068L
L0L
(lp3110
(lp3111
tp3112
atp3113
sI1074246880
(Vrtc_clk_slow_freq_get
p3114
(lp3115
(L3131493792L
L0L
(lp3116
(lp3117
tp3118
atp3119
sI1074246636
(Vrtc_clk_8m_enable
p3120
(lp3121
(L3370059632L
L0L
(lp3122
(lp3123
tp3124
a(L1196572111L
L0L
(lp3125
(lp3126
tp3127
a(L2151320156L
L0L
(lp3128
(lp3129
tp3130
a(L1391734358L
L0L
(lp3131
(lp3132
tp3133
a(L3360570486L
L0L
(lp3134
(lp3135
tp3136
a(L1318267208L
L0L
(lp3137
(lp3138
tp3139
a(L2499141154L
L0L
(lp3140
(lp3141
tp3142
atp3143
sI1074242796
(Vimage_load
p3144
(lp3145
(L745499722L
L0L
(lp3146
(lp3147
tp3148
a(L1899869538L
L0L
(lp3149
(lp3150
tp3151
a(L9219888L
L0L
(lp3152
(lp3153
tp3154
a(L2443438911L
L0L
(lp3155
(lp3156
tp3157
a(L3020187L
L0L
(lp3158
(lp3159
tp3160
a(L3918265327L
L3785322319L
(lp3161
(lp3162
Vesp_log_early_timestamp
p3163
atp3164
a(L2068384292L
L0L
(lp3165
(lp3166
tp3167
a(L1968553470L
L3785322319L
(lp3168
(lp3169
Vbootloader_sha256_finish
p3170
atp3171
a(L877059297L
L0L
(lp3172
(lp3173
tp3174
a(L3271848319L
L0L
(lp3175
(lp3176
tp3177
a(L1182930974L
L0L
(lp3178
(lp3179
tp3180
a(L3678851644L
L3785322319L
(lp3181
(lp3182
Vprocess_image_header
p3183
atp3184
a(L1341816907L
L0L
(lp3185
(lp3186
tp3187
a(L909494482L
L0L
(lp3188
(lp3189
tp3190
a(L1028073566L
L3785322319L
(lp3191
(lp3192
Vprocess_segments
p3193
atp3194
a(L3803885910L
L0L
(lp3195
(lp3196
tp3197
a(L94425498L
L3785322319L
(lp3198
(lp3199
Vesp_cpu_in_ocd_debug_mode
p3200
atp3201
a(L454195650L
L3785322319L
(lp3202
(lp3203
Vprocess_checksum
p3204
atp3205
a(L1651117269L
L3785322319L
(lp3206
(lp3207
Vprocess_appended_hash
p3208
atp3209
a(L533710513L
L0L
(lp3210
(lp3211
tp3212
a(L505081362L
L0L
(lp3213
(lp3214
tp3215
a(L3212356251L
L3785322319L
(lp3216
(lp3217
Vesp_cpu_in_ocd_debug_mode
p3218
atp3219
a(L3315718987L
L1880226080L
(lp3220
(lp3221
Vbootloader_sha256_finish
p3222
aVbootloader_debug_buffer
p3223
atp3224
a(L1342133684L
L1880226080L
(lp3225
(lp3226
Vesp_log_early_timestamp
p3227
aVbootloader_debug_buffer
p3228
atp3229
a(L978077504L
L0L
(lp3230
(lp3231
tp3232
a(L2068384292L
L0L
(lp3233
(lp3234
tp3235
a(L858449684L
L3785322319L
(lp3236
(lp3237
Vbootloader_sha256_finish
p3238
atp3239
a(L3028481L
L0L
(lp3240
(lp3241
tp3242
a(L93674324L
L0L
(lp3243
(lp3244
tp3245
a(L1008513465L
L0L
(lp3246
(lp3247
tp3248
a(L2429164518L
L0L
(lp3249
(lp3250
tp3251
a(L3553619191L
L0L
(lp3252
(lp3253
tp3254
a(L85798113L
L0L
(lp3255
(lp3256
tp3257
a(L464010095L
L0L
(lp3258
(lp3259
tp3260
a(L835563811L
L3785322319L
(lp3261
(lp3262
Vshould_load
p3263
atp3264
a(L1358360603L
L0L
(lp3265
(lp3266
tp3267
a(L4224160879L
L0L
(lp3268
(lp3269
tp3270
a(L22884489L
L0L
(lp3271
(lp3272
tp3273
a(L741351569L
L0L
(lp3274
(lp3275
tp3276
a(L434644776L
L0L
(lp3277
(lp3278
tp3279
a(L106L
L0L
(lp3280
(lp3281
tp3282
a(L709419389L
L0L
(lp3283
(lp3284
tp3285
a(L1299866312L
L0L
(lp3286
(lp3287
tp3288
atp3289
sI1074236652
(Vbootloader_common_get_chip_ver_pkg
p3290
(lp3291
(L1176319107L
L0L
(lp3292
(lp3293
tp3294
atp3295
sI1074269924
(Vrtc_clk_xtal_freq_estimate
p3296
(lp3297
(L2516060585L
L1880226080L
(lp3298
(lp3299
Vrtc_clk_8m_enabled
p3300
aVrtc_clk_8md256_enabled
p3301
atp3302
a(L967485502L
L3785322319L
(lp3303
(lp3304
Vrtc_clk_8m_enable
p3305
atp3306
a(L3868271755L
L3785322319L
(lp3307
(lp3308
Vrtc_clk_cal_ratio
p3309
atp3310
a(L2531412100L
L0L
(lp3311
(lp3312
tp3313
a(L3360570486L
L0L
(lp3314
(lp3315
tp3316
a(L1994958769L
L3785322319L
(lp3317
(lp3318
Vesp_log_early_timestamp
p3319
atp3320
atp3321
sI1074245096
(Vwdt_hal_init
p3322
(lp3323
(L1808711302L
L0L
(lp3324
(lp3325
tp3326
a(L1542930843L
L0L
(lp3327
(lp3328
tp3329
a(L2805935108L
L0L
(lp3330
(lp3331
tp3332
a(L3261874596L
L0L
(lp3333
(lp3334
tp3335
a(L3914402143L
L0L
(lp3336
(lp3337
tp3338
a(L3360570486L
L0L
(lp3339
(lp3340
tp3341
a(L1945487484L
L0L
(lp3342
(lp3343
tp3344
atp3345
sI1074268152
(Vbootloader_init
p3346
(lp3347
(L2956637306L
L3785322319L
(lp3348
(lp3349
Vbootloader_init_mem
p3350
atp3351
a(L1574759535L
L0L
(lp3352
(lp3353
tp3354
a(L2505738386L
L3785322319L
(lp3355
(lp3356
V__assert_func
p3357
atp3358
a(L1991724622L
L0L
(lp3359
(lp3360
tp3361
a(L966001373L
L0L
(lp3362
(lp3363
tp3364
a(L2926278337L
L0L
(lp3365
(lp3366
tp3367
a(L2369200439L
L0L
(lp3368
(lp3369
tp3370
a(L3027019L
L0L
(lp3371
(lp3372
tp3373
a(L273728577L
L0L
(lp3374
(lp3375
tp3376
a(L3882480429L
L1832448559L
(lp3377
(lp3378
Vbootloader_clear_bss_section
p3379
aVbootloader_common_vddsdio_configure
p3380
aVbootloader_clock_get_rated_freq_mhz
p3381
atp3382
a(L3987130017L
L1157885199L
(lp3383
(lp3384
Vbootloader_clock_configure
p3385
aVbootloader_console_init
p3386
aVbootloader_print_banner
p3387
aVbootloader_flash_update_id
p3388
aVbootloader_flash_xmc_startup
p3389
atp3390
a(L454185234L
L3785322319L
(lp3391
(lp3392
Vesp_log_early_timestamp
p3393
atp3394
a(L1751790298L
L3785322319L
(lp3395
(lp3396
Vesp_log_early_timestamp
p3397
atp3398
a(L3360570486L
L0L
(lp3399
(lp3400
tp3401
a(L2444883382L
L3785322319L
(lp3402
(lp3403
Vbootloader_read_bootloader_header
p3404
atp3405
a(L2444883382L
L3785322319L
(lp3406
(lp3407
Vbootloader_check_bootloader_validity
p3408
atp3409
a(L675083476L
L1157885199L
(lp3410
(lp3411
Vbootloader_flash_gpio_config
p3412
aVbootloader_flash_dummy_config
p3413
aVbootloader_flash_cs_timing_config
p3414
aVbootloader_flash_unlock
p3415
aVesp_log_early_timestamp
p3416
atp3417
a(L1578764909L
L0L
(lp3418
(lp3419
tp3420
a(L1618476312L
L0L
(lp3421
(lp3422
tp3423
a(L1589847161L
L0L
(lp3424
(lp3425
tp3426
a(L1571376741L
L0L
(lp3427
(lp3428
tp3429
a(L3902505838L
L0L
(lp3430
(lp3431
tp3432
a(L255306491L
L3785322319L
(lp3433
(lp3434
Vesp_log_early_timestamp
p3435
atp3436
a(L1787773517L
L0L
(lp3437
(lp3438
tp3439
a(L2611896117L
L3785322319L
(lp3440
(lp3441
Vesp_log_early_timestamp
p3442
atp3443
a(L1613092619L
L0L
(lp3444
(lp3445
tp3446
a(L2393191567L
L3785322319L
(lp3447
(lp3448
Vbootloader_enable_wp
p3449
atp3450
a(L282760458L
L0L
(lp3451
(lp3452
tp3453
a(L2994055137L
L3785322319L
(lp3454
(lp3455
Vesp_log_early_timestamp
p3456
atp3457
a(L1328209163L
L0L
(lp3458
(lp3459
tp3460
a(L502323150L
L0L
(lp3461
(lp3462
tp3463
a(L2902417580L
L0L
(lp3464
(lp3465
tp3466
a(L1944713791L
L1880226080L
(lp3467
(lp3468
Vwdt_reset_info_dump
p3469
aVwdt_reset_info_dump
p3470
atp3471
a(L4235188628L
L1880226080L
(lp3472
(lp3473
Vbootloader_config_wdt
p3474
aVbootloader_enable_random
p3475
atp3476
a(L3867148451L
L3785322319L
(lp3477
(lp3478
Vesp_log_early_timestamp
p3479
atp3480
atp3481
sI1074235380
(Vbootloader_flash_unlock
p3482
(lp3483
(L142706334L
L3785322319L
(lp3484
(lp3485
Vesp_rom_spiflash_wait_idle
p3486
atp3487
a(L4024621237L
L0L
(lp3488
(lp3489
tp3490
a(L4292483033L
L3785322319L
(lp3491
(lp3492
Vbootloader_execute_flash_command
p3493
atp3494
a(L106L
L0L
(lp3495
(lp3496
tp3497
a(L1303560644L
L0L
(lp3498
(lp3499
tp3500
a(L1419965066L
L0L
(lp3501
(lp3502
tp3503
a(L106L
L0L
(lp3504
(lp3505
tp3506
a(L1633120054L
L0L
(lp3507
(lp3508
tp3509
a(L106L
L0L
(lp3510
(lp3511
tp3512
a(L2974484771L
L0L
(lp3513
(lp3514
tp3515
a(L106L
L0L
(lp3516
(lp3517
tp3518
a(L1481761147L
L1880226080L
(lp3519
(lp3520
Vbootloader_execute_flash_command
p3521
aVbootloader_execute_flash_command
p3522
atp3523
a(L2258807654L
L0L
(lp3524
(lp3525
tp3526
a(L489806350L
L1832448559L
(lp3527
(lp3528
Vesp_rom_spiflash_wait_idle
p3529
aVbootloader_execute_flash_command
p3530
aVbootloader_execute_flash_command
p3531
atp3532
a(L879744646L
L1832448559L
(lp3533
(lp3534
Vesp_rom_spiflash_wait_idle
p3535
aVbootloader_execute_flash_command
p3536
aVbootloader_execute_flash_command
p3537
atp3538
a(L1840772931L
L1880226080L
(lp3539
(lp3540
Vesp_rom_spiflash_wait_idle
p3541
aVbootloader_execute_flash_command
p3542
atp3543
a(L2993202392L
L0L
(lp3544
(lp3545
tp3546
a(L508800419L
L1880226080L
(lp3547
(lp3548
Vbootloader_execute_flash_command
p3549
aVbootloader_execute_flash_command
p3550
atp3551
a(L1303560369L
L0L
(lp3552
(lp3553
tp3554
a(L1596544945L
L0L
(lp3555
(lp3556
tp3557
a(L97689L
L0L
(lp3558
(lp3559
tp3560
a(L106L
L0L
(lp3561
(lp3562
tp3563
atp3564
sI1074237428
(Vbootloader_common_get_rtc_retain_mem_partition
p3565
(lp3566
(L1838455070L
L3785322319L
(lp3567
(lp3568
Vcheck_rtc_retain_mem
p3569
atp3570
a(L702736999L
L0L
(lp3571
(lp3572
tp3573
a(L3360570486L
L0L
(lp3574
(lp3575
tp3576
atp3577
sI1074246896
(Vrtc_clk_slow_freq_get_hz
p3578
(lp3579
(L2865102747L
L0L
(lp3580
(lp3581
tp3582
a(L941299090L
L0L
(lp3583
(lp3584
tp3585
a(L3360570486L
L0L
(lp3586
(lp3587
tp3588
atp3589
sI1074270704
(Vrtc_vddsdio_set_config
p3590
(lp3591
(L2913621689L
L0L
(lp3592
(lp3593
tp3594
atp3595
sI1074236924
(Vefuse_hal_get_major_chip_version
p3596
(lp3597
(L3421545156L
L0L
(lp3598
(lp3599
tp3600
a(L3989534928L
L0L
(lp3601
(lp3602
tp3603
a(L3360570486L
L0L
(lp3604
(lp3605
tp3606
atp3607
sI1074241276
(Vprocess_image_header
p3608
(lp3609
(L2822555988L
L3785322319L
(lp3610
(lp3611
Vbootloader_flash_read
p3612
atp3613
a(L3020204L
L0L
(lp3614
(lp3615
tp3616
a(L182056016L
L0L
(lp3617
(lp3618
tp3619
a(L1727394037L
L0L
(lp3620
(lp3621
tp3622
a(L1161397362L
L3785322319L
(lp3623
(lp3624
Vbootloader_sha256_start
p3625
atp3626
a(L2062774299L
L3785322319L
(lp3627
(lp3628
Vbootloader_sha256_data
p3629
atp3630
a(L2226581267L
L0L
(lp3631
(lp3632
tp3633
a(L3020204L
L0L
(lp3634
(lp3635
tp3636
a(L3200754835L
L0L
(lp3637
(lp3638
tp3639
a(L2983970029L
L0L
(lp3640
(lp3641
tp3642
a(L1354477317L
L3785322319L
(lp3643
(lp3644
Vesp_log_early_timestamp
p3645
atp3646
a(L3028481L
L0L
(lp3647
(lp3648
tp3649
a(L2299376216L
L0L
(lp3650
(lp3651
tp3652
a(L3089241385L
L3785322319L
(lp3653
(lp3654
Vesp_log_early_timestamp
p3655
atp3656
a(L2886566498L
L0L
(lp3657
(lp3658
tp3659
a(L2325940167L
L3785322319L
(lp3660
(lp3661
Vesp_log_early_timestamp
p3662
atp3663
a(L545088956L
L3785322319L
(lp3664
(lp3665
Vbootloader_common_check_chip_validity
p3666
atp3667
a(L2786305996L
L0L
(lp3668
(lp3669
tp3670
a(L3028481L
L0L
(lp3671
(lp3672
tp3673
a(L1854075659L
L3785322319L
(lp3674
(lp3675
Vesp_log_early_timestamp
p3676
atp3677
a(L2852701393L
L0L
(lp3678
(lp3679
tp3680
a(L2122516551L
L0L
(lp3681
(lp3682
tp3683
a(L3064492592L
L0L
(lp3684
(lp3685
tp3686
atp3687
sI1074243580
(Vesp_rom_spiflash_read_status
p3688
(lp3689
(L3562601385L
L0L
(lp3690
(lp3691
tp3692
a(L1182811815L
L0L
(lp3693
(lp3694
tp3695
a(L4150328427L
L0L
(lp3696
(lp3697
tp3698
a(L106L
L0L
(lp3699
(lp3700
tp3701
a(L2465387648L
L0L
(lp3702
(lp3703
tp3704
a(L4004659960L
L0L
(lp3705
(lp3706
tp3707
a(L2123059967L
L0L
(lp3708
(lp3709
tp3710
a(L1973734210L
L0L
(lp3711
(lp3712
tp3713
a(L2392720019L
L0L
(lp3714
(lp3715
tp3716
atp3717
sI1074247676
(Vrtc_clk_apb_freq_update
p3718
(lp3719
(L4059462342L
L0L
(lp3720
(lp3721
tp3722
atp3723
sI1074237176
(Vbootloader_common_ota_select_valid
p3724
(lp3725
(L1563399710L
L3785322319L
(lp3726
(lp3727
Vbootloader_common_ota_select_invalid
p3728
atp3729
a(L3814720849L
L3785322319L
(lp3730
(lp3731
Vbootloader_common_ota_select_crc
p3732
atp3733
a(L3360570486L
L0L
(lp3734
(lp3735
tp3736
atp3737
sI1074240248
(Vbootloader_utility_load_boot_image
p3738
(lp3739
(L3912290829L
L0L
(lp3740
(lp3741
tp3742
a(L1971697651L
L3785322319L
(lp3743
(lp3744
Vtry_load_partition
p3745
atp3746
a(L1305243774L
L3785322319L
(lp3747
(lp3748
Vload_image
p3749
atp3750
a(L4123974883L
L3785322319L
(lp3751
(lp3752
Vesp_log_early_timestamp
p3753
atp3754
a(L3827921190L
L3785322319L
(lp3755
(lp3756
Vbootloader_reset
p3757
atp3758
a(L2542673780L
L3785322319L
(lp3759
(lp3760
Vindex_to_partition
p3761
atp3762
a(L1204373741L
L3785322319L
(lp3763
(lp3764
Vtry_load_partition
p3765
atp3766
a(L4185757536L
L0L
(lp3767
(lp3768
tp3769
a(L2070875117L
L3785322319L
(lp3770
(lp3771
Vset_actual_ota_seq
p3772
atp3773
a(L1868897605L
L3785322319L
(lp3774
(lp3775
Vlog_invalid_app_partition
p3776
atp3777
a(L831650730L
L0L
(lp3778
(lp3779
tp3780
a(L3021737L
L0L
(lp3781
(lp3782
tp3783
a(L695456438L
L0L
(lp3784
(lp3785
tp3786
a(L2367973777L
L3785322319L
(lp3787
(lp3788
Vtry_load_partition
p3789
atp3790
a(L1464989258L
L3785322319L
(lp3791
(lp3792
Vesp_log_early_timestamp
p3793
atp3794
a(L2185156151L
L3785322319L
(lp3795
(lp3796
Vindex_to_partition
p3797
atp3798
a(L1074657773L
L3785322319L
(lp3799
(lp3800
Vtry_load_partition
p3801
atp3802
a(L3061261803L
L0L
(lp3803
(lp3804
tp3805
a(L3582858798L
L3785322319L
(lp3806
(lp3807
Vlog_invalid_app_partition
p3808
atp3809
a(L933758615L
L3785322319L
(lp3810
(lp3811
Vesp_log_early_timestamp
p3812
atp3813
atp3814
sI1074247416
(Vrtc_clk_cpu_freq_mhz_to_config
p3815
(lp3816
(L2601984125L
L3785322319L
(lp3817
(lp3818
Vrtc_clk_xtal_freq_get
p3819
atp3820
a(L2089656409L
L0L
(lp3821
(lp3822
tp3823
a(L3814337874L
L0L
(lp3824
(lp3825
tp3826
a(L3126521138L
L0L
(lp3827
(lp3828
tp3829
a(L2762074623L
L0L
(lp3830
(lp3831
tp3832
a(L1541996779L
L0L
(lp3833
(lp3834
tp3835
a(L2916936348L
L0L
(lp3836
(lp3837
tp3838
a(L1555485793L
L0L
(lp3839
(lp3840
tp3841
a(L2258897023L
L0L
(lp3842
(lp3843
tp3844
a(L1947499251L
L0L
(lp3845
(lp3846
tp3847
a(L1306331021L
L0L
(lp3848
(lp3849
tp3850
atp3851
ssS'functionsdups'
p3852
g11
((lp3853
tp3854
Rp3855
sS'immediatedups'
p3856
g11
((lp3857
tp3858
Rp3859
sS'functiondups'
p3860
g11
((lp3861
tp3862
Rp3863
sS'fuzzy'
p3864
(dp3865
L1536L
I1074240952
sL430153639L
I1074236036
sL1048818438L
I1074267776
sL3121027072L
I1074270544
sL1655084846L
I1074237444
sL2082889262L
I1074241032
sL45806640L
I1074236700
sL3879741902L
I1074241592
sL3538491111L
I1074247704
sL2919016435L
I1074235380
sL1613424182L
I1074240116
sL1540367692L
I1074269924
sL2680783959L
I1074235768
sL1600634745L
I1074237212
sL3512578114L
I1074239392
sL2469233929L
I1074240740
sL1792232694L
I1074246296
sL1377559356L
I1074242796
sL2475522855L
I1074269572
sL3051955266L
I1074268152
sL3897252859L
I1074239308
sL541189360L
I1074241276
sL1065525808L
I1074237008
sL2327783177L
I1074241124
sL1035771659L
I1074237844
sL1164839255L
I1074242080
sL449860969L
I1074247416
sL3344357396L
I1074239140
sL3210669721L
I1074246576
sL1332800441L
I1074237368
sL2884218272L
I1074267932
sL4160102055L
I1074240216
sL4202185385L
I1074243672
sL2966529024L
I1074246988
sL2453272040L
I1074248144
sL1768086576L
I1074236504
sL4171975289L
I1074243968
sL1565254297L
I1074244272
sL1205407754L
I1074240248
sL2191698036L
I1074269644
sL1513350244L
I1074239812
sL2474570535L
I1074238336
sL3428965560L
I1074247820
sL502463145L
I1074234848
sL3948954811L
I1074239440
sL519424169L
I1074248600
sL812946199L
I1074237620
sL737694352L
I1074243780
sL503029138L
I1074243720
sL277788135L
I1074244360
sL3991645697L
I1074268832
sL47534270L
I1074238756
sL2262558768L
I1074243580
sL424867129L
I1074244100
sL1554975810L
I1074238156
sL3834155367L
I1074241536
sL3791345684L
I1074269844
sL3883282432L
I1074241960
sL4173399607L
I1074243292
sL2726385143L
I1074245684
sL1667054119L
I1074240576
sL4191211306L
I1074247504
sL2687107543L
I1074270088
ssb.