ccopy_reg
_reconstructor
p0
(crizzo
RizzoSignature
p1
c__builtin__
object
p2
Ntp3
Rp4
(dp5
S'formal'
p6
(dp7
L1108495122L
I1074073408
sL262162340L
I1074080552
sL553866757L
I1074078776
sL240591198L
I1074074496
sL1466767972L
I1074079876
sL2654376253L
I1074073228
sL1082538634L
I1074072872
sL1848529212L
I1074053640
sL1971397266L
I1074080224
sL2569349937L
I1074079604
sL110737292L
I1074074140
sL4213015302L
I1074077428
sL1733841273L
I1074080884
sL2269995886L
I1074073416
sL1767091575L
I1074080596
sL3310353022L
I1074073508
sL3015297930L
I1074072704
sL2896295319L
I1074072240
sL4075525587L
I1074054964
sL3648584768L
I1074054928
sL2590834774L
I1074055304
sL1483755339L
I1074075152
sL1368716712L
I1074074256
sL1133395377L
I1074075204
sL648674537L
I1074077444
sL2842196010L
I1074075856
sL3829891585L
I1074076964
sL339069305L
I1074074056
sL159099959L
I1074079496
sL2224076511L
I1074075596
sL352513878L
I1074054768
sL3938798483L
I1074077732
sL1915975L
I1074072916
sL3903426805L
I1074075256
sL798232778L
I1074079512
sL994068511L
I1074053624
sL2844988915L
I1074075912
sL4272308935L
I1074072208
sL1656945317L
I1074072068
sL332984757L
I1074079932
sL2782917297L
I1074079168
sL2382643062L
I1074074288
sL1748946761L
I1074073196
sL4013645123L
I1074072188
sL56757018L
I1074078336
sL331132732L
I1074081044
sL760520149L
I1074072016
sL3137039994L
I1074072344
sL3038462361L
I1074072400
sL3338941575L
I1074074796
sL2888980401L
I1074080988
sL3307282855L
I1074073388
sL1341996140L
I1074054112
sL325571317L
I1074079544
sL84446362L
I1074079588
sL1709173835L
I1074079036
sL78702376L
I1074071540
sL644825844L
I1074076224
sL3970043708L
I1074054248
sL622723968L
I1074071960
sL3558688445L
I1074075272
sL111308800L
I1074072032
sL3454945613L
I1074076344
sL3869050682L
I1074078844
sL3809812669L
I1074073672
sL296787480L
I1074080732
sL4289919256L
I1074074764
sL2135675361L
I1074078672
sL4060314542L
I1074071848
sL1407001712L
I1074075352
sL2997001746L
I1074072556
sL1318366753L
I1074075444
sL274114528L
I1074071488
sL460149211L
I1074054684
sL201601468L
I1074080196
sL63140473L
I1074055012
sL2819127986L
I1074072364
sL4115706604L
I1074054700
sL3186867534L
I1074070668
sL459284958L
I1074072000
sL3847310063L
I1074079400
sL1226498521L
I1074053540
sL30727191L
I1074080664
sL722675161L
I1074071584
sL3491817451L
I1074071720
sL2249539038L
I1074075056
sL1440025112L
I1074080172
sL3243684992L
I1074080340
sL3842896855L
I1074078872
sL188664287L
I1074071148
sL2959238529L
I1074072624
sL1825789238L
I1074054796
sL692536993L
I1074072596
sL1397431970L
I1074054724
sL556249804L
I1074075296
sL2754026697L
I1074078704
sL516355881L
I1074071180
sL550891297L
I1074080016
sL1645998305L
I1074072312
sL4267894680L
I1074072156
sL1488721985L
I1074079264
sL1995169300L
I1074075128
ssS'immediates'
p8
(dp9
sS'formaldups'
p10
c__builtin__
set
p11
((lp12
tp13
Rp14
sS'stringdups'
p15
g11
((lp16
tp17
Rp18
sS'fuzzydups'
p19
g11
((lp20
tp21
Rp22
sS'strings'
p23
(dp24
sS'functions'
p25
(dp26
I1074077444
(Vesp_partition_table_verify
p27
(lp28
(L1960575438L
L0L
(lp29
(lp30
tp31
a(L1823466356L
L0L
(lp32
(lp33
tp34
a(L4287435191L
L0L
(lp35
(lp36
tp37
a(L2910371777L
L0L
(lp38
(lp39
tp40
a(L2810785767L
L0L
(lp41
(lp42
tp43
a(L3360570486L
L0L
(lp44
(lp45
tp46
a(L2334946637L
L0L
(lp47
(lp48
tp49
a(L2478753082L
L0L
(lp50
(lp51
tp52
a(L3020204L
L0L
(lp53
(lp54
tp55
a(L3179317636L
L3785322319L
(lp56
(lp57
Vesp_log_early_timestamp
p58
atp59
a(L4119899946L
L3785322319L
(lp60
(lp61
Vesp_log_early_timestamp
p62
atp63
a(L778767036L
L0L
(lp64
(lp65
tp66
a(L2902417580L
L0L
(lp67
(lp68
tp69
a(L3020204L
L0L
(lp70
(lp71
tp72
a(L102558603L
L3785322319L
(lp73
(lp74
Vesp_log_early_timestamp
p75
atp76
a(L4229368222L
L0L
(lp77
(lp78
tp79
a(L4220331464L
L0L
(lp80
(lp81
tp82
a(L2902417580L
L0L
(lp83
(lp84
tp85
a(L3179318132L
L3785322319L
(lp86
(lp87
Vesp_log_early_timestamp
p88
atp89
a(L1613213999L
L0L
(lp90
(lp91
tp92
a(L1167861556L
L0L
(lp93
(lp94
tp95
a(L3260980605L
L0L
(lp96
(lp97
tp98
a(L2910371777L
L0L
(lp99
(lp100
tp101
a(L1235012932L
L0L
(lp102
(lp103
tp104
a(L1440814167L
L3785322319L
(lp105
(lp106
Vesp_log_early_timestamp
p107
atp108
atp109
sI1074072068
(Vesp_rom_uart_set_clock_baudrate
p110
(lp111
(L2180658290L
L0L
(lp112
(lp113
tp114
a(L970877243L
L0L
(lp115
(lp116
tp117
a(L1187586962L
L0L
(lp118
(lp119
tp120
a(L2767828610L
L0L
(lp121
(lp122
tp123
a(L82490202L
L0L
(lp124
(lp125
tp126
atp127
sI1074053120
(V_init
p128
(lp129
(L3493042598L
L0L
(lp130
(lp131
tp132
atp133
sI1074054920
(Vbootloader_enable_random
p134
(lp135
(L1287383080L
L3785322319L
(lp136
(lp137
Vbootloader_random_enable
p138
atp139
atp140
sI1074053640
(Vbootloader_init
p141
(lp142
(L3168481629L
L3785322319L
(lp143
(lp144
Vbootloader_init_mem
p145
atp146
a(L2279110158L
L0L
(lp147
(lp148
tp149
a(L281410186L
L3785322319L
(lp150
(lp151
V__assert_func
p152
atp153
a(L2030578272L
L0L
(lp154
(lp155
tp156
a(L2122331070L
L0L
(lp157
(lp158
tp159
a(L2690659766L
L267944800L
(lp160
(lp161
Vbootloader_clear_bss_section
p162
aVbootloader_clock_configure
p163
aVbootloader_console_init
p164
aVbootloader_print_banner
p165
aVbootloader_flash_update_id
p166
aVbootloader_flash_xmc_startup
p167
atp168
a(L815923856L
L3785322319L
(lp169
(lp170
Vesp_log_early_timestamp
p171
atp172
a(L3360570486L
L0L
(lp173
(lp174
tp175
a(L2444883382L
L3785322319L
(lp176
(lp177
Vbootloader_read_bootloader_header
p178
atp179
a(L2444883382L
L3785322319L
(lp180
(lp181
Vbootloader_check_bootloader_validity
p182
atp183
a(L412642983L
L1832448559L
(lp184
(lp185
Vbootloader_flash_dummy_config
p186
aVbootloader_flash_cs_timing_config
p187
aVbootloader_flash_unlock
p188
atp189
a(L3003198224L
L0L
(lp190
(lp191
tp192
a(L347594486L
L3785322319L
(lp193
(lp194
Vbootloader_enable_wp
p195
atp196
a(L362464558L
L0L
(lp197
(lp198
tp199
a(L1221682235L
L3785322319L
(lp200
(lp201
Vesp_log_early_timestamp
p202
atp203
a(L1103285333L
L0L
(lp204
(lp205
tp206
a(L4143468727L
L3785322319L
(lp207
(lp208
Vesp_log_early_timestamp
p209
atp210
a(L204348501L
L0L
(lp211
(lp212
tp213
a(L4169212205L
L1880226080L
(lp214
(lp215
Vbootloader_config_wdt
p216
aVbootloader_enable_random
p217
atp218
a(L1553973659L
L3785322319L
(lp219
(lp220
Vesp_log_early_timestamp
p221
atp222
atp223
sI1074075912
(Vverify_load_addresses
p224
(lp225
(L2763563698L
L0L
(lp226
(lp227
tp228
a(L106L
L0L
(lp229
(lp230
tp231
a(L97642L
L0L
(lp232
(lp233
tp234
a(L4077737779L
L3785322319L
(lp235
(lp236
V__assert_func
p237
atp238
a(L3140983110L
L0L
(lp239
(lp240
tp241
a(L199693394L
L0L
(lp242
(lp243
tp244
a(L106L
L0L
(lp245
(lp246
tp247
a(L2266738538L
L3785322319L
(lp248
(lp249
Vbootloader_util_regions_overlap
p250
atp251
a(L469747471L
L3785322319L
(lp252
(lp253
Vbootloader_util_regions_overlap
p254
atp255
a(L2910371777L
L0L
(lp256
(lp257
tp258
a(L1341526624L
L3785322319L
(lp259
(lp260
Vbootloader_util_regions_overlap
p261
atp262
a(L269814560L
L0L
(lp263
(lp264
tp265
a(L4292979132L
L0L
(lp266
(lp267
tp268
a(L642339958L
L0L
(lp269
(lp270
tp271
a(L677569396L
L3785322319L
(lp272
(lp273
Vverify_load_addresses
p274
atp275
a(L1351513776L
L0L
(lp276
(lp277
tp278
a(L3641441735L
L0L
(lp279
(lp280
tp281
a(L4264761021L
L0L
(lp282
(lp283
tp284
a(L3946254838L
L3785322319L
(lp285
(lp286
Vbootloader_util_regions_overlap
p287
atp288
a(L3028481L
L0L
(lp289
(lp290
tp291
a(L3271696541L
L3785322319L
(lp292
(lp293
Vbootloader_util_regions_overlap
p294
atp295
a(L4069285968L
L0L
(lp296
(lp297
tp298
a(L2984175019L
L0L
(lp299
(lp300
tp301
a(L306704947L
L0L
(lp302
(lp303
tp304
a(L960815136L
L0L
(lp305
(lp306
tp307
a(L269814657L
L0L
(lp308
(lp309
tp310
a(L697233876L
L0L
(lp311
(lp312
tp313
a(L4069244304L
L0L
(lp314
(lp315
tp316
a(L269813262L
L0L
(lp317
(lp318
tp319
a(L490080443L
L0L
(lp320
(lp321
tp322
a(L106L
L0L
(lp323
(lp324
tp325
a(L298245703L
L3785322319L
(lp326
(lp327
Vesp_log_early_timestamp
p328
atp329
a(L4069243684L
L0L
(lp330
(lp331
tp332
a(L1303560427L
L0L
(lp333
(lp334
tp335
atp336
sI1074079496
(Vrtc_clk_slow_freq_get
p337
(lp338
(L2473349199L
L0L
(lp339
(lp340
tp341
atp342
sI1074072596
(Vbootloader_common_ota_select_invalid
p343
(lp344
(L4027567199L
L0L
(lp345
(lp346
tp347
a(L3397985842L
L0L
(lp348
(lp349
tp350
a(L2258867228L
L0L
(lp351
(lp352
tp353
a(L3785235668L
L0L
(lp354
(lp355
tp356
atp357
sI1074081044
(Vi2c_rtc_write_reg_mask
p358
(lp359
(L3373311251L
L0L
(lp360
(lp361
tp362
a(L2053842017L
L3785322319L
(lp363
(lp364
V__assert_func
p365
atp366
a(L4103027622L
L3785322319L
(lp367
(lp368
Vi2c_rtc_enable_block
p369
atp370
a(L2123047752L
L0L
(lp371
(lp372
tp373
a(L2169377849L
L0L
(lp374
(lp375
tp376
a(L460908013L
L0L
(lp377
(lp378
tp379
a(L3360570486L
L0L
(lp380
(lp381
tp382
atp383
sI1074054928
(Vbootloader_console_init
p384
(lp385
(L2472603848L
L1832448559L
(lp386
(lp387
Vesp_rom_install_channel_putc
p388
aVrtc_clk_apb_freq_get
p389
aVesp_rom_uart_set_clock_baudrate
p390
atp391
atp392
sI1074075152
(Vbootloader_sha256_data
p393
(lp394
(L1124031785L
L0L
(lp395
(lp396
tp397
a(L1027373654L
L0L
(lp398
(lp399
tp400
a(L4010407594L
L3785322319L
(lp401
(lp402
V__assert_func
p403
atp404
a(L3301280463L
L0L
(lp405
(lp406
tp407
a(L2347731552L
L0L
(lp408
(lp409
tp410
a(L325204237L
L0L
(lp411
(lp412
tp413
atp414
sI1074080016
(Vrtc_clk_cpu_freq_get_config
p415
(lp416
(L3634596608L
L0L
(lp417
(lp418
tp419
a(L2902417580L
L0L
(lp420
(lp421
tp422
a(L1777368540L
L0L
(lp423
(lp424
tp425
a(L2259521995L
L1880226080L
(lp426
(lp427
Vesp_log_early_timestamp
p428
aVabort
p429
atp430
a(L3869532616L
L3785322319L
(lp431
(lp432
Vrtc_clk_xtal_freq_get
p433
atp434
a(L584032699L
L0L
(lp435
(lp436
tp437
a(L3188006641L
L0L
(lp438
(lp439
tp440
a(L2922695675L
L0L
(lp441
(lp442
tp443
a(L1463391482L
L0L
(lp444
(lp445
tp446
a(L3020187L
L0L
(lp447
(lp448
tp449
a(L700405753L
L0L
(lp450
(lp451
tp452
a(L106L
L0L
(lp453
(lp454
tp455
a(L4149732194L
L0L
(lp456
(lp457
tp458
a(L1991343914L
L0L
(lp459
(lp460
tp461
a(L2275258857L
L0L
(lp462
(lp463
tp464
atp465
sI1074054684
(Vbootloader_flash_update_id
p466
(lp467
(L537337702L
L3785322319L
(lp468
(lp469
Vbootloader_read_flash_id
p470
atp471
atp472
sI1074074140
(Vset_actual_ota_seq
p473
(lp474
(L847061509L
L3785322319L
(lp475
(lp476
Vbootloader_common_ota_select_crc
p477
atp478
a(L2910371777L
L0L
(lp479
(lp480
tp481
a(L1458119244L
L3785322319L
(lp482
(lp483
Vbootloader_flash_erase_sector
p484
atp485
a(L651574995L
L3785322319L
(lp486
(lp487
Vbootloader_flash_write
p488
atp489
a(L624281965L
L3785322319L
(lp490
(lp491
Vesp_log_early_timestamp
p492
atp493
a(L3496950L
L0L
(lp494
(lp495
tp496
a(L3016870L
L0L
(lp497
(lp498
tp499
a(L3971861743L
L0L
(lp500
(lp501
tp502
a(L957607403L
L0L
(lp503
(lp504
tp505
atp506
sI1074072344
(Vbootloader_common_ota_select_crc
p507
(lp508
(L569201533L
L0L
(lp509
(lp510
tp511
atp512
sI1074079512
(Vrtc_clk_slow_freq_get_hz
p513
(lp514
(L692523468L
L0L
(lp515
(lp516
tp517
a(L1280695600L
L0L
(lp518
(lp519
tp520
a(L3360570486L
L0L
(lp521
(lp522
tp523
atp524
sI1074076964
(Vimage_load
p525
(lp526
(L745499722L
L0L
(lp527
(lp528
tp529
a(L1899869538L
L0L
(lp530
(lp531
tp532
a(L9219888L
L0L
(lp533
(lp534
tp535
a(L3902541267L
L0L
(lp536
(lp537
tp538
a(L3020187L
L0L
(lp539
(lp540
tp541
a(L4059824993L
L3785322319L
(lp542
(lp543
Vesp_log_early_timestamp
p544
atp545
a(L2068384292L
L0L
(lp546
(lp547
tp548
a(L1968553470L
L3785322319L
(lp549
(lp550
Vbootloader_sha256_finish
p551
atp552
a(L630821704L
L0L
(lp553
(lp554
tp555
a(L3271848319L
L0L
(lp556
(lp557
tp558
a(L1182930974L
L0L
(lp559
(lp560
tp561
a(L3678851644L
L3785322319L
(lp562
(lp563
Vprocess_image_header
p564
atp565
a(L1341816907L
L0L
(lp566
(lp567
tp568
a(L909494482L
L0L
(lp569
(lp570
tp571
a(L1028073566L
L3785322319L
(lp572
(lp573
Vprocess_segments
p574
atp575
a(L3803885910L
L0L
(lp576
(lp577
tp578
a(L94425498L
L3785322319L
(lp579
(lp580
Vesp_cpu_in_ocd_debug_mode
p581
atp582
a(L454195650L
L3785322319L
(lp583
(lp584
Vprocess_checksum
p585
atp586
a(L1651117269L
L3785322319L
(lp587
(lp588
Vprocess_appended_hash
p589
atp590
a(L533710513L
L0L
(lp591
(lp592
tp593
a(L505081362L
L0L
(lp594
(lp595
tp596
a(L3212356251L
L3785322319L
(lp597
(lp598
Vesp_cpu_in_ocd_debug_mode
p599
atp600
a(L3840854438L
L1880226080L
(lp601
(lp602
Vbootloader_sha256_finish
p603
aVbootloader_debug_buffer
p604
atp605
a(L2513966069L
L1880226080L
(lp606
(lp607
Vesp_log_early_timestamp
p608
aVbootloader_debug_buffer
p609
atp610
a(L978077504L
L0L
(lp611
(lp612
tp613
a(L2068384292L
L0L
(lp614
(lp615
tp616
a(L858449684L
L3785322319L
(lp617
(lp618
Vbootloader_sha256_finish
p619
atp620
a(L3028481L
L0L
(lp621
(lp622
tp623
a(L93674324L
L0L
(lp624
(lp625
tp626
a(L3513758462L
L0L
(lp627
(lp628
tp629
a(L2429164518L
L0L
(lp630
(lp631
tp632
a(L3553619191L
L0L
(lp633
(lp634
tp635
a(L85798113L
L0L
(lp636
(lp637
tp638
a(L464010095L
L0L
(lp639
(lp640
tp641
a(L835563811L
L3785322319L
(lp642
(lp643
Vshould_load
p644
atp645
a(L1358360603L
L0L
(lp646
(lp647
tp648
a(L4224160879L
L0L
(lp649
(lp650
tp651
a(L22884489L
L0L
(lp652
(lp653
tp654
a(L741351569L
L0L
(lp655
(lp656
tp657
a(L434644776L
L0L
(lp658
(lp659
tp660
a(L106L
L0L
(lp661
(lp662
tp663
a(L709419389L
L0L
(lp664
(lp665
tp666
a(L1299866312L
L0L
(lp667
(lp668
tp669
atp670
sI1074077732
(Vwdt_hal_init
p671
(lp672
(L3290768897L
L0L
(lp673
(lp674
tp675
a(L3703078990L
L0L
(lp676
(lp677
tp678
a(L2767830110L
L0L
(lp679
(lp680
tp681
a(L1361907950L
L0L
(lp682
(lp683
tp684
a(L3415560803L
L0L
(lp685
(lp686
tp687
a(L3360570486L
L0L
(lp688
(lp689
tp690
a(L2518909023L
L0L
(lp691
(lp692
tp693
atp694
sI1074071584
(Vbootloader_flash_xmc_startup
p695
(lp696
(L3020516798L
L3785322319L
(lp697
(lp698
Vis_xmc_chip_strict
p699
atp700
a(L2258688482L
L0L
(lp701
(lp702
tp703
a(L3360570486L
L0L
(lp704
(lp705
tp706
a(L251913992L
L3785322319L
(lp707
(lp708
Vbootloader_flash_read_sfdp
p709
atp710
a(L2584883396L
L267944800L
(lp711
(lp712
Vbootloader_execute_flash_command
p713
aVbootloader_execute_flash_command
p714
aVbootloader_execute_flash_command
p715
aVbootloader_execute_flash_command
p716
aVbootloader_read_flash_id
p717
aVis_xmc_chip_strict
p718
atp719
a(L3272274937L
L3785322319L
(lp720
(lp721
Vesp_log_early_timestamp
p722
atp723
atp724
sI1074079264
(Vrtc_clk_8m_enable
p725
(lp726
(L2934712373L
L0L
(lp727
(lp728
tp729
a(L2689167647L
L0L
(lp730
(lp731
tp732
a(L2579595235L
L0L
(lp733
(lp734
tp735
a(L1544283026L
L0L
(lp736
(lp737
tp738
a(L3679981654L
L0L
(lp739
(lp740
tp741
a(L457372937L
L0L
(lp742
(lp743
tp744
a(L1019709726L
L0L
(lp745
(lp746
tp747
atp748
sI1074054700
(Vbootloader_clear_bss_section
p749
(lp750
(L1805111881L
L0L
(lp751
(lp752
tp753
atp754
sI1074073388
(Vbootloader_enable_wp
p755
(lp756
(L1117825804L
L3785322319L
(lp757
(lp758
Vbootloader_execute_flash_command
p759
atp760
atp761
sI1074072364
(Vbootloader_common_ota_select_valid
p762
(lp763
(L1563399710L
L3785322319L
(lp764
(lp765
Vbootloader_common_ota_select_invalid
p766
atp767
a(L3814720849L
L3785322319L
(lp768
(lp769
Vbootloader_common_ota_select_crc
p770
atp771
a(L3360570486L
L0L
(lp772
(lp773
tp774
atp775
sI1074072872
(Vbootloader_munmap
p776
(lp777
(L1655847155L
L0L
(lp778
(lp779
tp780
a(L2576092415L
L0L
(lp781
(lp782
tp783
a(L3360570486L
L0L
(lp784
(lp785
tp786
atp787
sI1074071848
(Vbootloader_flash_cs_timing_config
p788
(lp789
(L4130060608L
L0L
(lp790
(lp791
tp792
atp793
sI1074080552
(Vrtc_clk_apb_freq_get
p794
(lp795
(L1685387741L
L0L
(lp796
(lp797
tp798
atp799
sI1074054964
(Vesp_cpu_configure_region_protection
p800
(lp801
(L950351756L
L0L
(lp802
(lp803
tp804
a(L180431425L
L3785322319L
(lp805
(lp806
Vmpu_hal_set_region_access
p807
atp808
a(L2537388152L
L3785322319L
(lp809
(lp810
Vmpu_hal_set_region_access
p811
atp812
atp813
sI1074075444
(Vprocess_checksum
p814
(lp815
(L1985325516L
L0L
(lp816
(lp817
tp818
a(L2910371777L
L0L
(lp819
(lp820
tp821
a(L1649277394L
L0L
(lp822
(lp823
tp824
a(L2910371777L
L0L
(lp825
(lp826
tp827
a(L2902417580L
L0L
(lp828
(lp829
tp830
a(L1644002876L
L3785322319L
(lp831
(lp832
Vbootloader_sha256_data
p833
atp834
a(L3612796056L
L0L
(lp835
(lp836
tp837
a(L1811888222L
L3785322319L
(lp838
(lp839
Vbootloader_flash_read
p840
atp841
a(L3126521138L
L0L
(lp842
(lp843
tp844
a(L2826665855L
L0L
(lp845
(lp846
tp847
a(L484742174L
L3785322319L
(lp848
(lp849
Vesp_log_early_timestamp
p850
atp851
atp852
sI1074072624
(Vbootloader_common_select_otadata
p853
(lp854
(L2342662536L
L0L
(lp855
(lp856
tp857
a(L3806783650L
L0L
(lp858
(lp859
tp860
a(L1674928252L
L0L
(lp861
(lp862
tp863
a(L251571983L
L0L
(lp864
(lp865
tp866
a(L3360570486L
L0L
(lp867
(lp868
tp869
a(L2045232488L
L0L
(lp870
(lp871
tp872
a(L189726519L
L0L
(lp873
(lp874
tp875
a(L3095066987L
L0L
(lp876
(lp877
tp878
a(L3592023188L
L0L
(lp879
(lp880
tp881
a(L1641201884L
L0L
(lp882
(lp883
tp884
atp885
sI1074079036
(Vrtc_clk_32k_enable_internal
p886
(lp887
(L1718007852L
L0L
(lp888
(lp889
tp890
atp891
sI1074078776
(Vwdt_hal_set_flashboot_en
p892
(lp893
(L2375320464L
L0L
(lp894
(lp895
tp896
a(L1047226580L
L0L
(lp897
(lp898
tp899
a(L3360570486L
L0L
(lp900
(lp901
tp902
a(L317985339L
L0L
(lp903
(lp904
tp905
atp906
sI1074079544
(Vrtc_clk_fast_freq_set
p907
(lp908
(L773557614L
L0L
(lp909
(lp910
tp911
atp912
sI1074054724
(Vbootloader_read_bootloader_header
p913
(lp914
(L426097291L
L3785322319L
(lp915
(lp916
Vbootloader_flash_read
p917
atp918
a(L3575662684L
L3785322319L
(lp919
(lp920
Vesp_log_early_timestamp
p921
atp922
a(L735741265L
L0L
(lp923
(lp924
tp925
atp926
sI1074075204
(Vbootloader_sha256_finish
p927
(lp928
(L2551432008L
L0L
(lp929
(lp930
tp931
a(L267888481L
L3785322319L
(lp932
(lp933
V__assert_func
p934
atp935
a(L3048874702L
L0L
(lp936
(lp937
tp938
a(L3597270548L
L0L
(lp939
(lp940
tp941
a(L3360570486L
L0L
(lp942
(lp943
tp944
a(L2476224472L
L0L
(lp945
(lp946
tp947
atp948
sI1074076224
(Vshould_load
p949
(lp950
(L3389360883L
L0L
(lp951
(lp952
tp953
a(L1182990556L
L0L
(lp954
(lp955
tp956
a(L840509428L
L0L
(lp957
(lp958
tp959
a(L1298905564L
L0L
(lp960
(lp961
tp962
a(L2567236775L
L0L
(lp963
(lp964
tp965
a(L2258897019L
L0L
(lp966
(lp967
tp968
a(L3781799363L
L0L
(lp969
(lp970
tp971
a(L3028464L
L0L
(lp972
(lp973
tp974
a(L481260030L
L0L
(lp975
(lp976
tp977
a(L108447612L
L0L
(lp978
(lp979
tp980
a(L1108189951L
L0L
(lp981
(lp982
tp983
a(L4185756579L
L0L
(lp984
(lp985
tp986
a(L3458855836L
L0L
(lp987
(lp988
tp989
a(L3126521138L
L0L
(lp990
(lp991
tp992
a(L1305407438L
L0L
(lp993
(lp994
tp995
a(L1305407469L
L0L
(lp996
(lp997
tp998
atp999
sI1074073408
(Vbootloader_mmap_get_free_pages
p1000
(lp1001
(L402068031L
L0L
(lp1002
(lp1003
tp1004
atp1005
sI1074073672
(Vload_image
p1006
(lp1007
(L1861087443L
L1880226080L
(lp1008
(lp1009
Vbootloader_random_disable
p1010
aVbootloader_ana_clock_glitch_reset_config
p1011
atp1012
a(L2118498116L
L0L
(lp1013
(lp1014
tp1015
a(L106L
L0L
(lp1016
(lp1017
tp1018
a(L1015077876L
L0L
(lp1019
(lp1020
tp1021
a(L1775327366L
L0L
(lp1022
(lp1023
tp1024
a(L4043821821L
L0L
(lp1025
(lp1026
tp1027
a(L2453753163L
L0L
(lp1028
(lp1029
tp1030
a(L3187397636L
L3785322319L
(lp1031
(lp1032
Vbootloader_console_deinit
p1033
atp1034
a(L1542359996L
L0L
(lp1035
(lp1036
tp1037
a(L3020204L
L0L
(lp1038
(lp1039
tp1040
a(L151351055L
L3785322319L
(lp1041
(lp1042
Vesp_log_early_timestamp
p1043
atp1044
a(L2605952959L
L0L
(lp1045
(lp1046
tp1047
a(L1745713308L
L0L
(lp1048
(lp1049
tp1050
a(L2902417580L
L0L
(lp1051
(lp1052
tp1053
a(L1756963583L
L3785322319L
(lp1054
(lp1055
Vesp_log_early_timestamp
p1056
atp1057
a(L580519862L
L0L
(lp1058
(lp1059
tp1060
a(L1958325943L
L0L
(lp1061
(lp1062
tp1063
atp1064
sI1074073416
(Vbootloader_fill_random
p1065
(lp1066
(L3026789978L
L0L
(lp1067
(lp1068
tp1069
a(L421318093L
L0L
(lp1070
(lp1071
tp1072
a(L97689L
L0L
(lp1073
(lp1074
tp1075
a(L3360570486L
L0L
(lp1076
(lp1077
tp1078
a(L618849150L
L3785322319L
(lp1079
(lp1080
V__assert_func
p1081
atp1082
a(L2008660626L
L0L
(lp1083
(lp1084
tp1085
a(L3028481L
L0L
(lp1086
(lp1087
tp1088
a(L983138374L
L0L
(lp1089
(lp1090
tp1091
a(L2607138306L
L0L
(lp1092
(lp1093
tp1094
a(L1982128194L
L0L
(lp1095
(lp1096
tp1097
atp1098
sI1074072916
(Vbootloader_flash_read
p1099
(lp1100
(L2699333355L
L0L
(lp1101
(lp1102
tp1103
a(L186631285L
L3785322319L
(lp1104
(lp1105
Vesp_log_early_timestamp
p1106
atp1107
a(L2768830540L
L0L
(lp1108
(lp1109
tp1110
a(L1299867982L
L0L
(lp1111
(lp1112
tp1113
a(L3360570486L
L0L
(lp1114
(lp1115
tp1116
a(L2660352519L
L0L
(lp1117
(lp1118
tp1119
a(L1870198348L
L3785322319L
(lp1120
(lp1121
Vesp_log_early_timestamp
p1122
atp1123
a(L162336582L
L0L
(lp1124
(lp1125
tp1126
a(L4214864769L
L3785322319L
(lp1127
(lp1128
Vesp_log_early_timestamp
p1129
atp1130
a(L3020204L
L0L
(lp1131
(lp1132
tp1133
a(L2637074308L
L0L
(lp1134
(lp1135
tp1136
a(L1954314120L
L0L
(lp1137
(lp1138
tp1139
a(L2907486938L
L0L
(lp1140
(lp1141
tp1142
a(L4085509864L
L0L
(lp1143
(lp1144
tp1145
a(L3543772078L
L3785322319L
(lp1146
(lp1147
Vesp_log_early_timestamp
p1148
atp1149
a(L4016379425L
L0L
(lp1150
(lp1151
tp1152
a(L3990956128L
L0L
(lp1153
(lp1154
tp1155
a(L742118296L
L0L
(lp1156
(lp1157
tp1158
a(L106L
L0L
(lp1159
(lp1160
tp1161
a(L2220532088L
L0L
(lp1162
(lp1163
tp1164
atp1165
sI1074080340
(Vrtc_clk_cpu_freq_set_config
p1166
(lp1167
(L3102506520L
L3785322319L
(lp1168
(lp1169
Vrtc_clk_xtal_freq_get
p1170
atp1171
a(L748828173L
L3785322319L
(lp1172
(lp1173
Vrtc_clk_cpu_freq_to_xtal
p1174
atp1175
a(L1366128699L
L0L
(lp1176
(lp1177
tp1178
a(L3788730647L
L0L
(lp1179
(lp1180
tp1181
a(L2243645672L
L0L
(lp1182
(lp1183
tp1184
a(L4002786498L
L0L
(lp1185
(lp1186
tp1187
a(L2736411858L
L3785322319L
(lp1188
(lp1189
Vrtc_clk_cpu_freq_to_xtal
p1190
atp1191
a(L3360570486L
L0L
(lp1192
(lp1193
tp1194
a(L3028464L
L0L
(lp1195
(lp1196
tp1197
a(L3968876237L
L1832448559L
(lp1198
(lp1199
Vrtc_clk_xtal_freq_get
p1200
aVrtc_clk_bbpll_configure
p1201
aVrtc_clk_cpu_freq_to_pll_mhz
p1202
atp1203
a(L3028464L
L0L
(lp1204
(lp1205
tp1206
a(L2562380126L
L0L
(lp1207
(lp1208
tp1209
atp1210
sI1074080596
(Vrtc_clk_divider_set
p1211
(lp1212
(L3373313187L
L0L
(lp1213
(lp1214
tp1215
atp1216
sI1074072400
(Vbootloader_common_check_chip_validity
p1217
(lp1218
(L409865357L
L0L
(lp1219
(lp1220
tp1221
a(L2063234991L
L3785322319L
(lp1222
(lp1223
Vesp_log_early_timestamp
p1224
atp1225
a(L1508931617L
L3785322319L
(lp1226
(lp1227
Vefuse_hal_chip_revision
p1228
atp1229
a(L93674324L
L0L
(lp1230
(lp1231
tp1232
a(L2420825634L
L3785322319L
(lp1233
(lp1234
Vesp_log_early_timestamp
p1235
atp1236
a(L1641201884L
L0L
(lp1237
(lp1238
tp1239
a(L2258688482L
L0L
(lp1240
(lp1241
tp1242
a(L3360570486L
L0L
(lp1243
(lp1244
tp1245
atp1246
sI1074072156
(Vefuse_hal_chip_revision
p1247
(lp1248
(L1761205471L
L1880226080L
(lp1249
(lp1250
Vefuse_hal_get_major_chip_version
p1251
aVefuse_hal_get_minor_chip_version
p1252
atp1253
atp1254
sI1074055012
(Vrtc_clk_init
p1255
(lp1256
(L1550633638L
L267944800L
(lp1257
(lp1258
Vrtc_clk_divider_set
p1259
aVrtc_clk_8m_divider_set
p1260
aVrtc_clk_xtal_freq_update
p1261
aVrtc_clk_apb_freq_update
p1262
aVrtc_clk_cpu_freq_get_config
p1263
aVrtc_clk_cpu_freq_mhz_to_config
p1264
atp1265
a(L4293840394L
L1880226080L
(lp1266
(lp1267
Vesp_log_early_timestamp
p1268
aVabort
p1269
atp1270
a(L105449821L
L3785322319L
(lp1271
(lp1272
Vrtc_clk_cpu_freq_set_config
p1273
atp1274
a(L3804637084L
L3785322319L
(lp1275
(lp1276
Vrtc_clk_32k_enable
p1277
atp1278
a(L3016870L
L0L
(lp1279
(lp1280
tp1281
a(L98974805L
L3785322319L
(lp1282
(lp1283
Vrtc_clk_8m_enable
p1284
atp1285
a(L530469956L
L1880226080L
(lp1286
(lp1287
Vrtc_clk_fast_freq_set
p1288
aVrtc_clk_slow_freq_set
p1289
atp1290
atp1291
sI1074079588
(Vrtc_clk_fast_freq_get
p1292
(lp1293
(L1782359023L
L0L
(lp1294
(lp1295
tp1296
atp1297
sI1074054240
(Vbootloader_init_mem
p1298
(lp1299
(L1287383080L
L3785322319L
(lp1300
(lp1301
Vesp_cpu_configure_region_protection
p1302
atp1303
atp1304
sI1074073196
(Vbootloader_flash_erase_sector
p1305
(lp1306
(L3422386297L
L0L
(lp1307
(lp1308
tp1309
a(L1637828918L
L0L
(lp1310
(lp1311
tp1312
a(L3360570486L
L0L
(lp1313
(lp1314
tp1315
atp1316
sI1074071148
(Vbootloader_execute_flash_command
p1317
(lp1318
(L2481595632L
L3785322319L
(lp1319
(lp1320
Vbootloader_flash_execute_command_common
p1321
atp1322
atp1323
sI1074054248
(Vbootloader_random_enable
p1324
(lp1325
(L2286642365L
L1157885199L
(lp1326
(lp1327
Vi2c_rtc_write_reg_mask
p1328
aVi2c_rtc_write_reg_mask
p1329
aVi2c_rtc_write_reg_mask
p1330
aVi2c_rtc_write_reg_mask
p1331
aVi2c_rtc_write_reg_mask
p1332
atp1333
atp1334
sI1074079604
(Vrtc_clk_bbpll_configure
p1335
(lp1336
(L960494736L
L0L
(lp1337
(lp1338
tp1339
a(L3530435912L
L3785322319L
(lp1340
(lp1341
V__assert_func
p1342
atp1343
a(L3399106546L
L0L
(lp1344
(lp1345
tp1346
a(L106L
L0L
(lp1347
(lp1348
tp1349
a(L1378088646L
L3785322319L
(lp1350
(lp1351
Vi2c_rtc_write_reg
p1352
atp1353
a(L2757653026L
L267944800L
(lp1354
(lp1355
Vi2c_rtc_write_reg
p1356
aVi2c_rtc_write_reg
p1357
aVi2c_rtc_write_reg_mask
p1358
aVi2c_rtc_write_reg_mask
p1359
aVi2c_rtc_write_reg
p1360
aVi2c_rtc_write_reg_mask
p1361
atp1362
a(L2667185341L
L1880226080L
(lp1363
(lp1364
Vi2c_rtc_write_reg_mask
p1365
aVi2c_rtc_read_reg_mask
p1366
atp1367
a(L4193961779L
L0L
(lp1368
(lp1369
tp1370
a(L819161620L
L3785322319L
(lp1371
(lp1372
Vi2c_rtc_write_reg
p1373
atp1374
a(L2266696519L
L0L
(lp1375
(lp1376
tp1377
a(L1438579914L
L1880226080L
(lp1378
(lp1379
Vesp_log_early_timestamp
p1380
aVabort
p1381
atp1382
a(L3349920043L
L0L
(lp1383
(lp1384
tp1385
atp1386
sI1074080884
(Vi2c_rtc_read_reg_mask
p1387
(lp1388
(L3674307446L
L0L
(lp1389
(lp1390
tp1391
a(L4081332494L
L3785322319L
(lp1392
(lp1393
V__assert_func
p1394
atp1395
a(L1960021158L
L3785322319L
(lp1396
(lp1397
Vi2c_rtc_enable_block
p1398
atp1399
a(L2940668552L
L0L
(lp1400
(lp1401
tp1402
a(L2746884961L
L0L
(lp1403
(lp1404
tp1405
atp1406
sI1074054768
(Vbootloader_check_bootloader_validity
p1407
(lp1408
(L3148505042L
L1880226080L
(lp1409
(lp1410
Vefuse_hal_chip_revision
p1411
aVbootloader_common_check_chip_validity
p1412
atp1413
atp1414
sI1074072188
(Vefuse_hal_get_major_chip_version
p1415
(lp1416
(L1147048356L
L0L
(lp1417
(lp1418
tp1419
atp1420
sI1074078844
(Vwdt_hal_write_protect_enable
p1421
(lp1422
(L387778158L
L0L
(lp1423
(lp1424
tp1425
a(L4195472050L
L0L
(lp1426
(lp1427
tp1428
a(L3360570486L
L0L
(lp1429
(lp1430
tp1431
a(L802523425L
L0L
(lp1432
(lp1433
tp1434
atp1435
sI1074075256
(Vbootloader_console_deinit
p1436
(lp1437
(L2134706200L
L0L
(lp1438
(lp1439
tp1440
atp1441
sI1074079876
(Vrtc_clk_xtal_freq_get
p1442
(lp1443
(L3454186917L
L0L
(lp1444
(lp1445
tp1446
a(L2093757237L
L0L
(lp1447
(lp1448
tp1449
a(L3455353056L
L3785322319L
(lp1450
(lp1451
Vesp_log_early_timestamp
p1452
atp1453
a(L3360570486L
L0L
(lp1454
(lp1455
tp1456
atp1457
sI1074055296
(Vbootloader_print_banner
p1458
(lp1459
(L2100504542L
L0L
(lp1460
(lp1461
tp1462
atp1463
sI1074072704
(Vbootloader_mmap
p1464
(lp1465
(L893161263L
L0L
(lp1466
(lp1467
tp1468
a(L2532710692L
L3785322319L
(lp1469
(lp1470
Vesp_log_early_timestamp
p1471
atp1472
a(L1182811810L
L0L
(lp1473
(lp1474
tp1475
a(L3496950L
L0L
(lp1476
(lp1477
tp1478
a(L2215709777L
L0L
(lp1479
(lp1480
tp1481
a(L4232712438L
L3785322319L
(lp1482
(lp1483
Vesp_log_early_timestamp
p1484
atp1485
a(L1852909587L
L0L
(lp1486
(lp1487
tp1488
a(L1437661880L
L3785322319L
(lp1489
(lp1490
Vesp_log_early_timestamp
p1491
atp1492
a(L3869926739L
L0L
(lp1493
(lp1494
tp1495
atp1496
sI1074074496
(Vbootloader_utility_get_selected_boot_partition
p1497
(lp1498
(L2803238495L
L0L
(lp1499
(lp1500
tp1501
a(L1299867982L
L0L
(lp1502
(lp1503
tp1504
a(L3360570486L
L0L
(lp1505
(lp1506
tp1507
a(L4222295465L
L0L
(lp1508
(lp1509
tp1510
a(L1584380233L
L3785322319L
(lp1511
(lp1512
Vesp_log_early_timestamp
p1513
atp1514
a(L1863774794L
L0L
(lp1515
(lp1516
tp1517
a(L1375577398L
L3785322319L
(lp1518
(lp1519
Vbootloader_mmap
p1520
atp1521
a(L2806238825L
L3785322319L
(lp1522
(lp1523
Vesp_log_early_timestamp
p1524
atp1525
a(L2889545264L
L1880226080L
(lp1526
(lp1527
Vbootloader_munmap
p1528
aVbootloader_common_ota_select_invalid
p1529
atp1530
a(L1103573946L
L0L
(lp1531
(lp1532
tp1533
a(L1876827316L
L3785322319L
(lp1534
(lp1535
Vbootloader_common_get_active_otadata
p1536
atp1537
a(L569346373L
L0L
(lp1538
(lp1539
tp1540
a(L3111084448L
L3785322319L
(lp1541
(lp1542
Vbootloader_common_ota_select_invalid
p1543
atp1544
a(L45272527L
L0L
(lp1545
(lp1546
tp1547
a(L847230968L
L0L
(lp1548
(lp1549
tp1550
a(L505081345L
L0L
(lp1551
(lp1552
tp1553
a(L919052234L
L3785322319L
(lp1554
(lp1555
Vbootloader_common_ota_select_crc
p1556
atp1557
a(L2287680455L
L0L
(lp1558
(lp1559
tp1560
a(L3542558037L
L3785322319L
(lp1561
(lp1562
Vbootloader_common_ota_select_crc
p1563
atp1564
a(L1299866312L
L0L
(lp1565
(lp1566
tp1567
a(L4081910568L
L0L
(lp1568
(lp1569
tp1570
a(L3201603746L
L3785322319L
(lp1571
(lp1572
Vesp_log_early_timestamp
p1573
atp1574
a(L4229368222L
L0L
(lp1575
(lp1576
tp1577
a(L2961449917L
L3785322319L
(lp1578
(lp1579
Vesp_log_early_timestamp
p1580
atp1581
atp1582
sI1074078336
(Vwdt_hal_config_stage
p1583
(lp1584
(L331558507L
L0L
(lp1585
(lp1586
tp1587
a(L4279082939L
L0L
(lp1588
(lp1589
tp1590
a(L3020204L
L0L
(lp1591
(lp1592
tp1593
a(L3020187L
L0L
(lp1594
(lp1595
tp1596
a(L3020187L
L0L
(lp1597
(lp1598
tp1599
a(L94425498L
L3785322319L
(lp1600
(lp1601
Vabort
p1602
atp1603
a(L605932259L
L0L
(lp1604
(lp1605
tp1606
a(L3360570486L
L0L
(lp1607
(lp1608
tp1609
a(L568141995L
L0L
(lp1610
(lp1611
tp1612
a(L1079481934L
L0L
(lp1613
(lp1614
tp1615
a(L1853876339L
L0L
(lp1616
(lp1617
tp1618
a(L3020187L
L0L
(lp1619
(lp1620
tp1621
a(L2902417580L
L0L
(lp1622
(lp1623
tp1624
a(L3020187L
L0L
(lp1625
(lp1626
tp1627
a(L3028464L
L0L
(lp1628
(lp1629
tp1630
a(L1942064968L
L0L
(lp1631
(lp1632
tp1633
a(L860467662L
L0L
(lp1634
(lp1635
tp1636
a(L1546953458L
L0L
(lp1637
(lp1638
tp1639
a(L2530377497L
L0L
(lp1640
(lp1641
tp1642
atp1643
sI1074054796
(Vbootloader_config_wdt
p1644
(lp1645
(L3022119376L
L505859776L
(lp1646
(lp1647
Vwdt_hal_write_protect_disable
p1648
aVwdt_hal_set_flashboot_en
p1649
aVwdt_hal_write_protect_enable
p1650
aVwdt_hal_init
p1651
aVrtc_clk_slow_freq_get_hz
p1652
aVwdt_hal_write_protect_disable
p1653
aVwdt_hal_config_stage
p1654
aVwdt_hal_enable
p1655
aVwdt_hal_write_protect_enable
p1656
aVwdt_hal_write_protect_disable
p1657
aVwdt_hal_set_flashboot_en
p1658
aVwdt_hal_write_protect_enable
p1659
atp1660
atp1661
sI1074070668
(Vbootloader_flash_execute_command_common
p1662
(lp1663
(L3960941331L
L0L
(lp1664
(lp1665
tp1666
a(L1452786192L
L0L
(lp1667
(lp1668
tp1669
a(L3932250539L
L3785322319L
(lp1670
(lp1671
V__assert_func
p1672
atp1673
a(L3021749L
L0L
(lp1674
(lp1675
tp1676
a(L2797626732L
L0L
(lp1677
(lp1678
tp1679
a(L2534552698L
L0L
(lp1680
(lp1681
tp1682
a(L106L
L0L
(lp1683
(lp1684
tp1685
a(L1145892162L
L0L
(lp1686
(lp1687
tp1688
a(L1796666140L
L0L
(lp1689
(lp1690
tp1691
a(L2384495521L
L0L
(lp1692
(lp1693
tp1694
a(L1520881340L
L0L
(lp1695
(lp1696
tp1697
a(L109568541L
L0L
(lp1698
(lp1699
tp1700
a(L385680096L
L0L
(lp1701
(lp1702
tp1703
a(L3137183157L
L0L
(lp1704
(lp1705
tp1706
a(L2877041555L
L0L
(lp1707
(lp1708
tp1709
a(L377965372L
L0L
(lp1710
(lp1711
tp1712
a(L3360570486L
L0L
(lp1713
(lp1714
tp1715
a(L422559717L
L0L
(lp1716
(lp1717
tp1718
atp1719
sI1074071180
(Vbootloader_flash_unlock
p1720
(lp1721
(L586551978L
L0L
(lp1722
(lp1723
tp1724
a(L1189172277L
L0L
(lp1725
(lp1726
tp1727
a(L4292483033L
L3785322319L
(lp1728
(lp1729
Vbootloader_execute_flash_command
p1730
atp1731
a(L106L
L0L
(lp1732
(lp1733
tp1734
a(L1303560644L
L0L
(lp1735
(lp1736
tp1737
a(L1419965066L
L0L
(lp1738
(lp1739
tp1740
a(L106L
L0L
(lp1741
(lp1742
tp1743
a(L1633120054L
L0L
(lp1744
(lp1745
tp1746
a(L106L
L0L
(lp1747
(lp1748
tp1749
a(L2974484771L
L0L
(lp1750
(lp1751
tp1752
a(L106L
L0L
(lp1753
(lp1754
tp1755
a(L1481761147L
L1880226080L
(lp1756
(lp1757
Vbootloader_execute_flash_command
p1758
aVbootloader_execute_flash_command
p1759
atp1760
a(L2258807654L
L0L
(lp1761
(lp1762
tp1763
a(L68784636L
L1880226080L
(lp1764
(lp1765
Vbootloader_execute_flash_command
p1766
aVbootloader_execute_flash_command
p1767
atp1768
a(L2184131636L
L1880226080L
(lp1769
(lp1770
Vbootloader_execute_flash_command
p1771
aVbootloader_execute_flash_command
p1772
atp1773
a(L654169905L
L3785322319L
(lp1774
(lp1775
Vbootloader_execute_flash_command
p1776
atp1777
a(L2993202392L
L0L
(lp1778
(lp1779
tp1780
a(L508800419L
L1880226080L
(lp1781
(lp1782
Vbootloader_execute_flash_command
p1783
aVbootloader_execute_flash_command
p1784
atp1785
a(L1303560369L
L0L
(lp1786
(lp1787
tp1788
a(L1596544945L
L0L
(lp1789
(lp1790
tp1791
a(L97689L
L0L
(lp1792
(lp1793
tp1794
a(L106L
L0L
(lp1795
(lp1796
tp1797
atp1798
sI1074073228
(Vbootloader_flash_write
p1799
(lp1800
(L3119145091L
L0L
(lp1801
(lp1802
tp1803
a(L1344850384L
L3785322319L
(lp1804
(lp1805
Vesp_log_early_timestamp
p1806
atp1807
a(L2768830540L
L0L
(lp1808
(lp1809
tp1810
a(L1610445075L
L0L
(lp1811
(lp1812
tp1813
a(L735741265L
L0L
(lp1814
(lp1815
tp1816
a(L3291333414L
L0L
(lp1817
(lp1818
tp1819
a(L1573618260L
L3785322319L
(lp1820
(lp1821
Vesp_log_early_timestamp
p1822
atp1823
a(L3283691850L
L0L
(lp1824
(lp1825
tp1826
a(L2896453027L
L3785322319L
(lp1827
(lp1828
Vesp_log_early_timestamp
p1829
atp1830
a(L3212356251L
L3785322319L
(lp1831
(lp1832
Vbootloader_flash_unlock
p1833
atp1834
a(L4273400841L
L0L
(lp1835
(lp1836
tp1837
a(L3260627847L
L0L
(lp1838
(lp1839
tp1840
a(L93674324L
L0L
(lp1841
(lp1842
tp1843
a(L138556383L
L0L
(lp1844
(lp1845
tp1846
a(L676522303L
L0L
(lp1847
(lp1848
tp1849
atp1850
sI1074074764
(Vbootloader_reset
p1851
(lp1852
(L2996914788L
L3785322319L
(lp1853
(lp1854
Vbootloader_console_deinit
p1855
atp1856
a(L106L
L0L
(lp1857
(lp1858
tp1859
atp1860
sI1074055304
(Vmpu_hal_set_region_access
p1861
(lp1862
(L3538356822L
L0L
(lp1863
(lp1864
tp1865
a(L2902417580L
L0L
(lp1866
(lp1867
tp1868
a(L3020187L
L0L
(lp1869
(lp1870
tp1871
a(L3020187L
L0L
(lp1872
(lp1873
tp1874
a(L3360570486L
L0L
(lp1875
(lp1876
tp1877
a(L2258718273L
L0L
(lp1878
(lp1879
tp1880
a(L3446648619L
L0L
(lp1881
(lp1882
tp1883
a(L3739532189L
L0L
(lp1884
(lp1885
tp1886
a(L1300789895L
L0L
(lp1887
(lp1888
tp1889
a(L3472092938L
L0L
(lp1890
(lp1891
tp1892
atp1893
sI1074075272
(V__assert_func
p1894
(lp1895
(L1853109582L
L0L
(lp1896
(lp1897
tp1898
a(L106L
L0L
(lp1899
(lp1900
tp1901
atp1902
sI1074074256
(Vtry_load_partition
p1903
(lp1904
(L2950885718L
L0L
(lp1905
(lp1906
tp1907
a(L984595082L
L3785322319L
(lp1908
(lp1909
Vbootloader_load_image
p1910
atp1911
a(L3871473710L
L0L
(lp1912
(lp1913
tp1914
atp1915
sI1074072208
(Vefuse_hal_get_minor_chip_version
p1916
(lp1917
(L175289171L
L0L
(lp1918
(lp1919
tp1920
atp1921
sI1074078872
(Vrtc_clk_cpu_freq_to_pll_mhz
p1922
(lp1923
(L428013722L
L0L
(lp1924
(lp1925
tp1926
a(L1541997046L
L0L
(lp1927
(lp1928
tp1929
a(L106L
L0L
(lp1930
(lp1931
tp1932
a(L3661211279L
L0L
(lp1933
(lp1934
tp1935
a(L2804950451L
L1880226080L
(lp1936
(lp1937
Vesp_log_early_timestamp
p1938
aVabort
p1939
atp1940
a(L2258897019L
L0L
(lp1941
(lp1942
tp1943
a(L2612154344L
L0L
(lp1944
(lp1945
tp1946
a(L1306330990L
L0L
(lp1947
(lp1948
tp1949
atp1950
sI1074071960
(Vbootloader_flash_set_dummy_out
p1951
(lp1952
(L1091070068L
L0L
(lp1953
(lp1954
tp1955
atp1956
sI1074080664
(Vrtc_clk_8m_divider_set
p1957
(lp1958
(L277587669L
L0L
(lp1959
(lp1960
tp1961
atp1962
sI1074053540
(Vcall_start_cpu0
p1963
(lp1964
(L1974457732L
L3785322319L
(lp1965
(lp1966
Vbootloader_init
p1967
atp1968
a(L94425498L
L3785322319L
(lp1969
(lp1970
Vbootloader_reset
p1971
atp1972
a(L4003559113L
L3785322319L
(lp1973
(lp1974
Vbootloader_utility_load_partition_table
p1975
atp1976
a(L3041412954L
L3785322319L
(lp1977
(lp1978
Vesp_log_early_timestamp
p1979
atp1980
a(L2395089516L
L3785322319L
(lp1981
(lp1982
Vbootloader_utility_get_selected_boot_partition
p1983
atp1984
a(L2086982338L
L1880226080L
(lp1985
(lp1986
Vbootloader_common_get_reset_reason
p1987
aVbootloader_utility_load_boot_image
p1988
atp1989
atp1990
sI1074073508
(Vbootloader_random_disable
p1991
(lp1992
(L1379777441L
L1157885199L
(lp1993
(lp1994
Vi2c_rtc_write_reg_mask
p1995
aVi2c_rtc_write_reg_mask
p1996
aVi2c_rtc_write_reg_mask
p1997
aVi2c_rtc_write_reg_mask
p1998
aVi2c_rtc_write_reg_mask
p1999
atp2000
atp2001
sI1074075296
(Vabort
p2002
(lp2003
(L3849283662L
L0L
(lp2004
(lp2005
tp2006
a(L409441471L
L0L
(lp2007
(lp2008
tp2009
a(L106L
L0L
(lp2010
(lp2011
tp2012
atp2013
sI1074074796
(Vbootloader_utility_load_boot_image
p2014
(lp2015
(L1561528311L
L0L
(lp2016
(lp2017
tp2018
a(L2177418995L
L3785322319L
(lp2019
(lp2020
Vtry_load_partition
p2021
atp2022
a(L2749106626L
L3785322319L
(lp2023
(lp2024
Vload_image
p2025
atp2026
a(L10884254L
L3785322319L
(lp2027
(lp2028
Vesp_log_early_timestamp
p2029
atp2030
a(L3827921190L
L3785322319L
(lp2031
(lp2032
Vbootloader_reset
p2033
atp2034
a(L2542673780L
L3785322319L
(lp2035
(lp2036
Vindex_to_partition
p2037
atp2038
a(L1204373741L
L3785322319L
(lp2039
(lp2040
Vtry_load_partition
p2041
atp2042
a(L3020187L
L0L
(lp2043
(lp2044
tp2045
a(L1546133945L
L0L
(lp2046
(lp2047
tp2048
a(L2070875117L
L3785322319L
(lp2049
(lp2050
Vset_actual_ota_seq
p2051
atp2052
a(L1868897605L
L3785322319L
(lp2053
(lp2054
Vlog_invalid_app_partition
p2055
atp2056
a(L831650730L
L0L
(lp2057
(lp2058
tp2059
a(L3021737L
L0L
(lp2060
(lp2061
tp2062
a(L4083823862L
L0L
(lp2063
(lp2064
tp2065
a(L2639353287L
L3785322319L
(lp2066
(lp2067
Vtry_load_partition
p2068
atp2069
a(L3754068914L
L3785322319L
(lp2070
(lp2071
Vesp_log_early_timestamp
p2072
atp2073
a(L2185156151L
L3785322319L
(lp2074
(lp2075
Vindex_to_partition
p2076
atp2077
a(L1074657773L
L3785322319L
(lp2078
(lp2079
Vtry_load_partition
p2080
atp2081
a(L3027024L
L0L
(lp2082
(lp2083
tp2084
a(L2574102326L
L0L
(lp2085
(lp2086
tp2087
a(L3061261803L
L0L
(lp2088
(lp2089
tp2090
a(L3582858798L
L3785322319L
(lp2091
(lp2092
Vlog_invalid_app_partition
p2093
atp2094
a(L2445406317L
L3785322319L
(lp2095
(lp2096
Vesp_log_early_timestamp
p2097
atp2098
atp2099
sI1074080172
(Vrtc_clk_xtal_freq_update
p2100
(lp2101
(L4250027334L
L0L
(lp2102
(lp2103
tp2104
atp2105
sI1074071720
(Vbootloader_configure_spi_pins
p2106
(lp2107
(L1201144936L
L0L
(lp2108
(lp2109
tp2110
a(L1203010559L
L0L
(lp2111
(lp2112
tp2113
a(L2572561862L
L0L
(lp2114
(lp2115
tp2116
a(L2298480675L
L0L
(lp2117
(lp2118
tp2119
a(L3027019L
L0L
(lp2120
(lp2121
tp2122
a(L1022640100L
L0L
(lp2123
(lp2124
tp2125
a(L3360570486L
L0L
(lp2126
(lp2127
tp2128
a(L2175499521L
L0L
(lp2129
(lp2130
tp2131
atp2132
sI1074079400
(Vrtc_clk_slow_freq_set
p2133
(lp2134
(L1485270747L
L0L
(lp2135
(lp2136
tp2137
atp2138
sI1074072240
(Vis_xmc_chip_strict
p2139
(lp2140
(L1286841609L
L0L
(lp2141
(lp2142
tp2143
a(L2234016759L
L0L
(lp2144
(lp2145
tp2146
a(L1069027148L
L0L
(lp2147
(lp2148
tp2149
a(L3021749L
L0L
(lp2150
(lp2151
tp2152
a(L1900148749L
L0L
(lp2153
(lp2154
tp2155
a(L1936875721L
L0L
(lp2156
(lp2157
tp2158
a(L3356166509L
L0L
(lp2159
(lp2160
tp2161
a(L1937769451L
L0L
(lp2162
(lp2163
tp2164
a(L2137658907L
L0L
(lp2165
(lp2166
tp2167
a(L4265949734L
L0L
(lp2168
(lp2169
tp2170
a(L3360570486L
L0L
(lp2171
(lp2172
tp2173
atp2174
sI1074074288
(Vbootloader_utility_load_partition_table
p2175
(lp2176
(L1018165694L
L3785322319L
(lp2177
(lp2178
Vbootloader_mmap
p2179
atp2180
a(L1245479150L
L3785322319L
(lp2181
(lp2182
Vesp_log_early_timestamp
p2183
atp2184
a(L2258688482L
L0L
(lp2185
(lp2186
tp2187
a(L3360570486L
L0L
(lp2188
(lp2189
tp2190
a(L1520382514L
L3785322319L
(lp2191
(lp2192
Vesp_partition_table_verify
p2193
atp2194
a(L1350061054L
L3785322319L
(lp2195
(lp2196
Vesp_log_early_timestamp
p2197
atp2198
a(L148985701L
L0L
(lp2199
(lp2200
tp2201
a(L3020187L
L0L
(lp2202
(lp2203
tp2204
a(L4067319519L
L0L
(lp2205
(lp2206
tp2207
a(L3806571235L
L0L
(lp2208
(lp2209
tp2210
a(L2247926755L
L3785322319L
(lp2211
(lp2212
Vbootloader_munmap
p2213
atp2214
a(L1036489382L
L0L
(lp2215
(lp2216
tp2217
a(L3020187L
L0L
(lp2218
(lp2219
tp2220
a(L1699092113L
L0L
(lp2221
(lp2222
tp2223
a(L3926410636L
L0L
(lp2224
(lp2225
tp2226
a(L3977772390L
L0L
(lp2227
(lp2228
tp2229
a(L1535150665L
L0L
(lp2230
(lp2231
tp2232
a(L2387139071L
L0L
(lp2233
(lp2234
tp2235
a(L507291053L
L0L
(lp2236
(lp2237
tp2238
atp2239
sI1074075056
(Vindex_to_partition
p2240
(lp2241
(L4066096119L
L0L
(lp2242
(lp2243
tp2244
a(L1739185955L
L0L
(lp2245
(lp2246
tp2247
a(L2171552758L
L0L
(lp2248
(lp2249
tp2250
a(L2808906342L
L0L
(lp2251
(lp2252
tp2253
a(L2101481936L
L0L
(lp2254
(lp2255
tp2256
a(L3698927993L
L0L
(lp2257
(lp2258
tp2259
a(L2808826781L
L0L
(lp2260
(lp2261
tp2262
a(L3003398163L
L0L
(lp2263
(lp2264
tp2265
a(L1104460200L
L0L
(lp2266
(lp2267
tp2268
a(L1087646172L
L0L
(lp2269
(lp2270
tp2271
atp2272
sI1074079932
(Vrtc_clk_cpu_freq_mhz_to_config
p2273
(lp2274
(L2601984125L
L3785322319L
(lp2275
(lp2276
Vrtc_clk_xtal_freq_get
p2277
atp2278
a(L2089656409L
L0L
(lp2279
(lp2280
tp2281
a(L3814337874L
L0L
(lp2282
(lp2283
tp2284
a(L3126521138L
L0L
(lp2285
(lp2286
tp2287
a(L2762074623L
L0L
(lp2288
(lp2289
tp2290
a(L1541996779L
L0L
(lp2291
(lp2292
tp2293
a(L2916936348L
L0L
(lp2294
(lp2295
tp2296
a(L2258897021L
L0L
(lp2297
(lp2298
tp2299
a(L1947546340L
L0L
(lp2300
(lp2301
tp2302
a(L1306331145L
L0L
(lp2303
(lp2304
tp2305
a(L1306331052L
L0L
(lp2306
(lp2307
tp2308
atp2309
sI1074076344
(Vprocess_segments
p2310
(lp2311
(L359986521L
L0L
(lp2312
(lp2313
tp2314
a(L2748309156L
L0L
(lp2315
(lp2316
tp2317
a(L2910670446L
L0L
(lp2318
(lp2319
tp2320
a(L106L
L0L
(lp2321
(lp2322
tp2323
a(L2587042390L
L0L
(lp2324
(lp2325
tp2326
a(L1924743590L
L3785322319L
(lp2327
(lp2328
Vesp_log_early_timestamp
p2329
atp2330
a(L1007910832L
L3785322319L
(lp2331
(lp2332
Vbootloader_flash_read
p2333
atp2334
a(L3483084823L
L3785322319L
(lp2335
(lp2336
Vesp_log_early_timestamp
p2337
atp2338
a(L3360570486L
L0L
(lp2339
(lp2340
tp2341
a(L1890170661L
L0L
(lp2342
(lp2343
tp2344
a(L4138551778L
L3785322319L
(lp2345
(lp2346
Vbootloader_sha256_data
p2347
atp2348
a(L3910643394L
L0L
(lp2349
(lp2350
tp2351
a(L3990722409L
L0L
(lp2352
(lp2353
tp2354
a(L559151559L
L0L
(lp2355
(lp2356
tp2357
a(L1867203333L
L0L
(lp2358
(lp2359
tp2360
a(L106L
L0L
(lp2361
(lp2362
tp2363
a(L3191688883L
L0L
(lp2364
(lp2365
tp2366
a(L3656641238L
L0L
(lp2367
(lp2368
tp2369
a(L463511422L
L3785322319L
(lp2370
(lp2371
Vesp_log_early_timestamp
p2372
atp2373
a(L3648687041L
L0L
(lp2374
(lp2375
tp2376
a(L3423827826L
L0L
(lp2377
(lp2378
tp2379
a(L1672204444L
L3785322319L
(lp2380
(lp2381
Vesp_log_early_timestamp
p2382
atp2383
a(L1551654749L
L3785322319L
(lp2384
(lp2385
Vverify_load_addresses
p2386
atp2387
a(L106L
L0L
(lp2388
(lp2389
tp2390
a(L238852646L
L0L
(lp2391
(lp2392
tp2393
a(L2655382944L
L0L
(lp2394
(lp2395
tp2396
a(L3735077394L
L3785322319L
(lp2397
(lp2398
Vbootloader_mmap
p2399
atp2400
a(L3727269962L
L3785322319L
(lp2401
(lp2402
Vesp_log_early_timestamp
p2403
atp2404
a(L1343380242L
L0L
(lp2405
(lp2406
tp2407
a(L1184122169L
L0L
(lp2408
(lp2409
tp2410
a(L1652679798L
L3785322319L
(lp2411
(lp2412
Vbootloader_munmap
p2413
atp2414
a(L1820299912L
L0L
(lp2415
(lp2416
tp2417
a(L1782223905L
L3785322319L
(lp2418
(lp2419
Vbootloader_fill_random
p2420
atp2421
a(L3570641403L
L0L
(lp2422
(lp2423
tp2424
a(L3574335487L
L0L
(lp2425
(lp2426
tp2427
a(L3450268858L
L0L
(lp2428
(lp2429
tp2430
a(L3021749L
L0L
(lp2431
(lp2432
tp2433
a(L4179164843L
L0L
(lp2434
(lp2435
tp2436
a(L1084626871L
L0L
(lp2437
(lp2438
tp2439
a(L2902417580L
L0L
(lp2440
(lp2441
tp2442
a(L2781860829L
L0L
(lp2443
(lp2444
tp2445
a(L1797921642L
L0L
(lp2446
(lp2447
tp2448
a(L3425755096L
L0L
(lp2449
(lp2450
tp2451
a(L3396129621L
L0L
(lp2452
(lp2453
tp2454
a(L670934548L
L0L
(lp2455
(lp2456
tp2457
a(L363643669L
L3785322319L
(lp2458
(lp2459
Vbootloader_sha256_data
p2460
atp2461
a(L90548756L
L0L
(lp2462
(lp2463
tp2464
a(L4195963580L
L0L
(lp2465
(lp2466
tp2467
a(L4112551030L
L0L
(lp2468
(lp2469
tp2470
a(L617933722L
L0L
(lp2471
(lp2472
tp2473
a(L819370645L
L3785322319L
(lp2474
(lp2475
Vshould_load
p2476
atp2477
a(L3780737284L
L0L
(lp2478
(lp2479
tp2480
a(L3028481L
L0L
(lp2481
(lp2482
tp2483
a(L2136754140L
L3785322319L
(lp2484
(lp2485
Vbootloader_mmap_get_free_pages
p2486
atp2487
a(L3028481L
L0L
(lp2488
(lp2489
tp2490
a(L1228460392L
L0L
(lp2491
(lp2492
tp2493
atp2494
sI1074080196
(Vrtc_clk_apb_freq_update
p2495
(lp2496
(L4017725950L
L0L
(lp2497
(lp2498
tp2499
atp2500
sI1074071488
(Vbootloader_flash_read_sfdp
p2501
(lp2502
(L711701400L
L0L
(lp2503
(lp2504
tp2505
a(L2985538746L
L3785322319L
(lp2506
(lp2507
V__assert_func
p2508
atp2509
a(L3704332455L
L3785322319L
(lp2510
(lp2511
Vbootloader_flash_execute_command_common
p2512
atp2513
atp2514
sI1074072000
(Vbootloader_flash_dummy_config
p2515
(lp2516
(L799241116L
L1880226080L
(lp2517
(lp2518
Vbootloader_configure_spi_pins
p2519
aVbootloader_flash_set_dummy_out
p2520
atp2521
atp2522
sI1074079168
(Vrtc_clk_32k_enable
p2523
(lp2524
(L2450690147L
L0L
(lp2525
(lp2526
tp2527
a(L3050933857L
L3785322319L
(lp2528
(lp2529
Vrtc_clk_32k_enable_internal
p2530
atp2531
a(L3360570486L
L0L
(lp2532
(lp2533
tp2534
a(L3106209140L
L0L
(lp2535
(lp2536
tp2537
atp2538
sI1074081216
(V_fini
p2539
(lp2540
(L3493042598L
L0L
(lp2541
(lp2542
tp2543
atp2544
sI1074075596
(Vprocess_image_header
p2545
(lp2546
(L1146881915L
L3785322319L
(lp2547
(lp2548
Vbootloader_flash_read
p2549
atp2550
a(L3020204L
L0L
(lp2551
(lp2552
tp2553
a(L182056016L
L0L
(lp2554
(lp2555
tp2556
a(L1727394037L
L0L
(lp2557
(lp2558
tp2559
a(L1161397362L
L3785322319L
(lp2560
(lp2561
Vbootloader_sha256_start
p2562
atp2563
a(L2062774299L
L3785322319L
(lp2564
(lp2565
Vbootloader_sha256_data
p2566
atp2567
a(L2226581267L
L0L
(lp2568
(lp2569
tp2570
a(L3020204L
L0L
(lp2571
(lp2572
tp2573
a(L3162651321L
L0L
(lp2574
(lp2575
tp2576
a(L2983970029L
L0L
(lp2577
(lp2578
tp2579
a(L3497182290L
L3785322319L
(lp2580
(lp2581
Vesp_log_early_timestamp
p2582
atp2583
a(L3028481L
L0L
(lp2584
(lp2585
tp2586
a(L2299376216L
L0L
(lp2587
(lp2588
tp2589
a(L832971325L
L3785322319L
(lp2590
(lp2591
Vesp_log_early_timestamp
p2592
atp2593
a(L2886566498L
L0L
(lp2594
(lp2595
tp2596
a(L2283105795L
L3785322319L
(lp2597
(lp2598
Vesp_log_early_timestamp
p2599
atp2600
a(L545088956L
L3785322319L
(lp2601
(lp2602
Vbootloader_common_check_chip_validity
p2603
atp2604
a(L2786305996L
L0L
(lp2605
(lp2606
tp2607
a(L3028481L
L0L
(lp2608
(lp2609
tp2610
a(L523731295L
L3785322319L
(lp2611
(lp2612
Vesp_log_early_timestamp
p2613
atp2614
a(L2852701393L
L0L
(lp2615
(lp2616
tp2617
a(L2122516551L
L0L
(lp2618
(lp2619
tp2620
a(L3064492592L
L0L
(lp2621
(lp2622
tp2623
atp2624
sI1074074056
(Vlog_invalid_app_partition
p2625
(lp2626
(L1281715045L
L0L
(lp2627
(lp2628
tp2629
a(L3028464L
L0L
(lp2630
(lp2631
tp2632
a(L2345406567L
L3785322319L
(lp2633
(lp2634
Vesp_log_early_timestamp
p2635
atp2636
a(L2768830540L
L0L
(lp2637
(lp2638
tp2639
a(L3360570486L
L0L
(lp2640
(lp2641
tp2642
a(L589355932L
L3785322319L
(lp2643
(lp2644
Vesp_log_early_timestamp
p2645
atp2646
a(L3962668255L
L3785322319L
(lp2647
(lp2648
Vesp_log_early_timestamp
p2649
atp2650
atp2651
sI1074072016
(Vesp_cpu_in_ocd_debug_mode
p2652
(lp2653
(L3380001130L
L0L
(lp2654
(lp2655
tp2656
atp2657
sI1074075344
(Vbootloader_ana_clock_glitch_reset_config
p2658
(lp2659
(L2100504542L
L0L
(lp2660
(lp2661
tp2662
atp2663
sI1074075856
(Vbootloader_util_regions_overlap
p2664
(lp2665
(L2762640130L
L0L
(lp2666
(lp2667
tp2668
a(L3257879435L
L0L
(lp2669
(lp2670
tp2671
a(L4038442099L
L3785322319L
(lp2672
(lp2673
V__assert_func
p2674
atp2675
a(L97642L
L0L
(lp2676
(lp2677
tp2678
a(L561457130L
L0L
(lp2679
(lp2680
tp2681
a(L366123053L
L0L
(lp2682
(lp2683
tp2684
a(L2258867228L
L0L
(lp2685
(lp2686
tp2687
a(L1253626734L
L0L
(lp2688
(lp2689
tp2690
a(L2258897019L
L0L
(lp2691
(lp2692
tp2693
a(L3109269495L
L0L
(lp2694
(lp2695
tp2696
atp2697
sI1074078672
(Vwdt_hal_write_protect_disable
p2698
(lp2699
(L2956979318L
L0L
(lp2700
(lp2701
tp2702
a(L4195472050L
L0L
(lp2703
(lp2704
tp2705
a(L3360570486L
L0L
(lp2706
(lp2707
tp2708
a(L1210571996L
L0L
(lp2709
(lp2710
tp2711
atp2712
sI1074080732
(Vi2c_rtc_enable_block
p2713
(lp2714
(L3836177098L
L0L
(lp2715
(lp2716
tp2717
a(L3027019L
L0L
(lp2718
(lp2719
tp2720
a(L3245125502L
L0L
(lp2721
(lp2722
tp2723
a(L3360570486L
L0L
(lp2724
(lp2725
tp2726
a(L3245363830L
L0L
(lp2727
(lp2728
tp2729
a(L3246645110L
L0L
(lp2730
(lp2731
tp2732
a(L3460403611L
L0L
(lp2733
(lp2734
tp2735
a(L4112088884L
L0L
(lp2736
(lp2737
tp2738
a(L4193324812L
L0L
(lp2739
(lp2740
tp2741
a(L4193324192L
L0L
(lp2742
(lp2743
tp2744
a(L4193294649L
L0L
(lp2745
(lp2746
tp2747
atp2748
sI1074080988
(Vi2c_rtc_write_reg
p2749
(lp2750
(L499421084L
L3785322319L
(lp2751
(lp2752
Vi2c_rtc_enable_block
p2753
atp2754
a(L2007204843L
L0L
(lp2755
(lp2756
tp2757
a(L3360570486L
L0L
(lp2758
(lp2759
tp2760
atp2761
sI1074075352
(Vprocess_appended_hash
p2762
(lp2763
(L3580132405L
L0L
(lp2764
(lp2765
tp2766
a(L3028481L
L0L
(lp2767
(lp2768
tp2769
a(L1591589631L
L0L
(lp2770
(lp2771
tp2772
a(L1864319304L
L0L
(lp2773
(lp2774
tp2775
a(L888285627L
L0L
(lp2776
(lp2777
tp2778
a(L4018574614L
L3785322319L
(lp2779
(lp2780
Vesp_log_early_timestamp
p2781
atp2782
a(L894030452L
L3785322319L
(lp2783
(lp2784
Vbootloader_flash_read
p2785
atp2786
a(L3871473710L
L0L
(lp2787
(lp2788
tp2789
atp2790
sI1074054112
(Vbootloader_clock_configure
p2791
(lp2792
(L3308626021L
L3785322319L
(lp2793
(lp2794
Vrtc_clk_apb_freq_get
p2795
atp2796
a(L427620457L
L1832448559L
(lp2797
(lp2798
Vrtc_clk_slow_freq_get
p2799
aVrtc_clk_fast_freq_get
p2800
aVrtc_clk_init
p2801
atp2802
a(L710718760L
L0L
(lp2803
(lp2804
tp2805
a(L200482310L
L0L
(lp2806
(lp2807
tp2808
a(L106L
L0L
(lp2809
(lp2810
tp2811
atp2812
sI1074072032
(Vesp_rom_install_channel_putc
p2813
(lp2814
(L487865505L
L0L
(lp2815
(lp2816
tp2817
a(L3020187L
L0L
(lp2818
(lp2819
tp2820
a(L3360570486L
L0L
(lp2821
(lp2822
tp2823
a(L1141963597L
L0L
(lp2824
(lp2825
tp2826
a(L3818237641L
L0L
(lp2827
(lp2828
tp2829
atp2830
sI1074080224
(Vrtc_clk_cpu_freq_to_xtal
p2831
(lp2832
(L4234378027L
L3785322319L
(lp2833
(lp2834
Vrtc_clk_apb_freq_update
p2835
atp2836
a(L664637232L
L0L
(lp2837
(lp2838
tp2839
a(L277445412L
L0L
(lp2840
(lp2841
tp2842
a(L3423772429L
L0L
(lp2843
(lp2844
tp2845
atp2846
sI1074072556
(Vbootloader_common_get_active_otadata
p2847
(lp2848
(L3317503532L
L0L
(lp2849
(lp2850
tp2851
a(L2503049265L
L1832448559L
(lp2852
(lp2853
Vbootloader_common_ota_select_valid
p2854
aVbootloader_common_ota_select_valid
p2855
aVbootloader_common_select_otadata
p2856
atp2857
a(L735741265L
L0L
(lp2858
(lp2859
tp2860
atp2861
sI1074077428
(Vbootloader_load_image
p2862
(lp2863
(L1155870502L
L3785322319L
(lp2864
(lp2865
Vimage_load
p2866
atp2867
atp2868
sI1074071540
(Vbootloader_read_flash_id
p2869
(lp2870
(L2546324723L
L3785322319L
(lp2871
(lp2872
Vbootloader_execute_flash_command
p2873
atp2874
atp2875
sI1074075120
(Vbootloader_debug_buffer
p2876
(lp2877
(L2100504542L
L0L
(lp2878
(lp2879
tp2880
atp2881
sI1074078704
(Vwdt_hal_enable
p2882
(lp2883
(L1967532549L
L0L
(lp2884
(lp2885
tp2886
a(L3561061184L
L0L
(lp2887
(lp2888
tp2889
a(L3360570486L
L0L
(lp2890
(lp2891
tp2892
a(L2011576586L
L0L
(lp2893
(lp2894
tp2895
atp2896
sI1074053624
(Vbootloader_common_get_reset_reason
p2897
(lp2898
(L2453411311L
L0L
(lp2899
(lp2900
tp2901
atp2902
sI1074075128
(Vbootloader_sha256_start
p2903
(lp2904
(L3292749976L
L0L
(lp2905
(lp2906
tp2907
atp2908
sI1074072312
(Vesp_log_early_timestamp
p2909
(lp2910
(L53152474L
L0L
(lp2911
(lp2912
tp2913
atp2914
ssS'functionsdups'
p2915
g11
((lp2916
tp2917
Rp2918
sS'immediatedups'
p2919
g11
((lp2920
tp2921
Rp2922
sS'functiondups'
p2923
g11
((lp2924
tp2925
Rp2926
sS'fuzzy'
p2927
(dp2928
L1536L
I1074075272
sL1667084889L
I1074075204
sL3121027072L
I1074071720
sL2082889262L
I1074075352
sL3195606640L
I1074073228
sL1993052482L
I1074081044
sL1340445289L
I1074071584
sL3538491111L
I1074080224
sL16208487L
I1074070668
sL3889821517L
I1074074288
sL3385810261L
I1074055012
sL3881399234L
I1074080884
sL1600634745L
I1074072400
sL114144873L
I1074080988
sL1377559356L
I1074076964
sL2475522855L
I1074054928
sL1267341223L
I1074079604
sL3897252859L
I1074074056
sL541189360L
I1074075596
sL1766137975L
I1074074256
sL2183816734L
I1074053540
sL2327783177L
I1074075444
sL3914947183L
I1074053640
sL668286818L
I1074080340
sL449860969L
I1074079932
sL94556391L
I1074075152
sL121061362L
I1074075912
sL1415908896L
I1074076344
sL3210669721L
I1074079168
sL4285059616L
I1074071180
sL1332800441L
I1074072556
sL345669718L
I1074073672
sL3455073696L
I1074054112
sL4160102055L
I1074074764
sL2191698036L
I1074054796
sL2474570535L
I1074073416
sL279375615L
I1074078872
sL812946199L
I1074072704
sL4253866342L
I1074074796
sL2560963406L
I1074072916
sL3834155367L
I1074075856
sL1825726882L
I1074074140
sL567695527L
I1074079876
sL3369710250L
I1074080016
sL3883282432L
I1074076224
sL4173399607L
I1074077444
sL2726385143L
I1074078336
sL4278077574L
I1074074496
ssb.