ccopy_reg
_reconstructor
p0
(crizzo
RizzoSignature
p1
c__builtin__
object
p2
Ntp3
Rp4
(dp5
S'formal'
p6
(dp7
L1988657546L
I1074246848
sL692976200L
I1074268820
sL3659321364L
I1074270396
sL200063462L
I1074240600
sL1013316725L
I1074247176
sL2535109642L
I1074269332
sL1935665484L
I1074267844
sL1312142368L
I1074246444
sL3734662019L
I1074246048
sL4213015302L
I1074242732
sL1160179515L
I1074240144
sL1112770929L
I1074238296
sL2224360631L
I1074243440
sL3882104903L
I1074236668
sL1422481130L
I1074240124
sL3955774956L
I1074237660
sL2028381634L
I1074245504
sL750989285L
I1074236948
sL3979341065L
I1074240692
sL3331964080L
I1074245156
sL3518729360L
I1074248072
sL1441838812L
I1074243052
sL1010441494L
I1074246888
sL3519555066L
I1074269292
sL2896295319L
I1074236876
sL2481804762L
I1074235656
sL3859060031L
I1074239784
sL2590834774L
I1074270476
sL1368716712L
I1074239220
sL2816751066L
I1074243832
sL3598549823L
I1074241528
sL1107838538L
I1074267792
sL1824840579L
I1074235904
sL2945416903L
I1074268080
sL1228457578L
I1074246368
sL3857706427L
I1074245576
sL2690919985L
I1074246400
sL3013424584L
I1074270236
sL4182018579L
I1074245472
sL1585823442L
I1074245644
sL25036838L
I1074245672
sL1627375778L
I1074236552
sL1850672146L
I1074240520
sL673318524L
I1074236604
sL2307242981L
I1074237488
sL1332882194L
I1074246284
sL634028968L
I1074238624
sL1271355812L
I1074235560
sL3869633217L
I1074269376
sL1405821346L
I1074247104
sL2764339374L
I1074236372
sL1242678141L
I1074236980
sL3920370627L
I1074245932
sL3490804064L
I1074236792
sL2034515509L
I1074267860
sL2720747865L
I1074240844
sL490417487L
I1074247616
sL4141895062L
I1074242764
sL228411627L
I1074247148
sL35192942L
I1074269404
sL1361931605L
I1074238024
sL3686101709L
I1074239728
sL2671212878L
I1074243252
sL559578401L
I1074238204
sL1466225380L
I1074246460
sL676927194L
I1074269528
sL2248955528L
I1074243192
sL3307282855L
I1074238176
sL2880775987L
I1074246976
sL2039303434L
I1074237024
sL1693637499L
I1074247572
sL474244553L
I1074243144
sL612086517L
I1074235268
sL4114736847L
I1074236860
sL2418182316L
I1074267704
sL2733829501L
I1074241160
sL1160501689L
I1074245768
sL2138846191L
I1074268636
sL440643799L
I1074242268
sL703247988L
I1074237080
sL1349874900L
I1074269308
sL1995941712L
I1074236568
sL1703683876L
I1074241104
sL1652900655L
I1074238612
sL2743583789L
I1074247292
sL1890591260L
I1074243744
sL3881556983L
I1074240544
sL1780788104L
I1074236520
sL3437515081L
I1074234736
sL2997001746L
I1074237236
sL3506932658L
I1074238992
sL2819127986L
I1074237044
sL4189459211L
I1074269616
sL889902282L
I1074269536
sL1164083360L
I1074235612
sL4075620904L
I1074267139
sL2519994611L
I1074237296
sL276346559L
I1074239460
sL2249539038L
I1074240052
sL3110450088L
I1074269568
sL1451088553L
I1074246352
sL2263182908L
I1074238196
sL76779598L
I1074240308
sL3573709276L
I1074244568
sL188664287L
I1074235236
sL2678264385L
I1074246260
sL4072204123L
I1074235792
sL2959238529L
I1074237408
sL2002266300L
I1074248040
sL1963265505L
I1074269780
sL2893098132L
I1074243572
sL1066426998L
I1074237312
sL692536993L
I1074237380
sL334991391L
I1074246108
sL2662114374L
I1074239252
sL2735471841L
I1074239816
sL714242424L
I1074245708
sL1637400695L
I1074246236
sL3491190247L
I1074239136
sL1621098576L
I1074242748
sL3608561895L
I1074268804
sL461565297L
I1074237712
sL4019399019L
I1074237276
sL4267894680L
I1074236760
sL801483321L
I1074237996
sL2699772695L
I1074240504
sL684868910L
I1074241648
ssS'immediates'
p8
(dp9
sS'formaldups'
p10
c__builtin__
set
p11
((lp12
tp13
Rp14
sS'stringdups'
p15
g11
((lp16
tp17
Rp18
sS'fuzzydups'
p19
g11
((lp20
tp21
Rp22
sS'strings'
p23
(dp24
sS'functions'
p25
(dp26
I1074270476
(Vmpu_hal_set_region_access
p27
(lp28
(L3538356822L
L0L
(lp29
(lp30
tp31
a(L2902417580L
L0L
(lp32
(lp33
tp34
a(L3020187L
L0L
(lp35
(lp36
tp37
a(L3020187L
L0L
(lp38
(lp39
tp40
a(L3360570486L
L0L
(lp41
(lp42
tp43
a(L2258718273L
L0L
(lp44
(lp45
tp46
a(L3446648619L
L0L
(lp47
(lp48
tp49
a(L3739532189L
L0L
(lp50
(lp51
tp52
a(L1300789895L
L0L
(lp53
(lp54
tp55
a(L3472092938L
L0L
(lp56
(lp57
tp58
atp59
sI1074235904
(Vbootloader_flash_gpio_config
p60
(lp61
(L719792650L
L3785322319L
(lp62
(lp63
Vbootloader_common_get_chip_ver_pkg
p64
atp65
a(L106L
L0L
(lp66
(lp67
tp68
a(L2886083034L
L0L
(lp69
(lp70
tp71
a(L106L
L0L
(lp72
(lp73
tp74
a(L3368466517L
L0L
(lp75
(lp76
tp77
a(L3815118951L
L0L
(lp78
(lp79
tp80
a(L106L
L0L
(lp81
(lp82
tp83
a(L1554297586L
L0L
(lp84
(lp85
tp86
a(L3448382643L
L0L
(lp87
(lp88
tp89
a(L3360570486L
L0L
(lp90
(lp91
tp92
atp93
sI1074246400
(Vrtc_clk_fast_freq_set
p94
(lp95
(L3272359680L
L0L
(lp96
(lp97
tp98
atp99
sI1074267136
(V_init
p100
(lp101
(L3493042598L
L0L
(lp102
(lp103
tp104
atp105
sI1074245644
(Vwdt_hal_write_protect_enable
p106
(lp107
(L387778158L
L0L
(lp108
(lp109
tp110
a(L4195472003L
L0L
(lp111
(lp112
tp113
a(L3360570486L
L0L
(lp114
(lp115
tp116
a(L802523425L
L0L
(lp117
(lp118
tp119
atp120
sI1074267139
(V_text_start
p121
(lp122
(L2957395042L
L0L
(lp123
(lp124
tp125
atp126
sI1074270468
(Vbootloader_print_banner
p127
(lp128
(L2100504542L
L0L
(lp129
(lp130
tp131
atp132
sI1074240520
(V__assert_func
p133
(lp134
(L3412252200L
L0L
(lp135
(lp136
tp137
a(L106L
L0L
(lp138
(lp139
tp140
atp141
sI1074235656
(Vbootloader_flash_xmc_startup
p142
(lp143
(L2358327534L
L3785322319L
(lp144
(lp145
Vis_xmc_chip_strict
p146
atp147
a(L2258688482L
L0L
(lp148
(lp149
tp150
a(L3360570486L
L0L
(lp151
(lp152
tp153
a(L251913992L
L3785322319L
(lp154
(lp155
Vbootloader_flash_read_sfdp
p156
atp157
a(L1623371620L
L267944800L
(lp158
(lp159
Vbootloader_execute_flash_command
p160
aVbootloader_execute_flash_command
p161
aVbootloader_execute_flash_command
p162
aVbootloader_execute_flash_command
p163
aVbootloader_read_flash_id
p164
aVis_xmc_chip_strict
p165
atp166
a(L1760467701L
L3785322319L
(lp167
(lp168
Vesp_log_early_timestamp
p169
atp170
atp171
sI1074247176
(Vrtc_clk_cpu_freq_to_xtal
p172
(lp173
(L1144411955L
L3785322319L
(lp174
(lp175
Vrtc_clk_apb_freq_update
p176
atp177
a(L702736263L
L0L
(lp178
(lp179
tp180
a(L277445412L
L0L
(lp181
(lp182
tp183
a(L309988616L
L0L
(lp184
(lp185
tp186
atp187
sI1074236948
(Vesp_log_early_timestamp
p188
(lp189
(L4102571599L
L0L
(lp190
(lp191
tp192
atp193
sI1074239252
(Vbootloader_utility_load_partition_table
p194
(lp195
(L102421648L
L3785322319L
(lp196
(lp197
Vbootloader_mmap
p198
atp199
a(L2392701341L
L3785322319L
(lp200
(lp201
Vesp_log_early_timestamp
p202
atp203
a(L2258688482L
L0L
(lp204
(lp205
tp206
a(L3360570486L
L0L
(lp207
(lp208
tp209
a(L1520382514L
L3785322319L
(lp210
(lp211
Vesp_partition_table_verify
p212
atp213
a(L1984472263L
L3785322319L
(lp214
(lp215
Vesp_log_early_timestamp
p216
atp217
a(L148985701L
L0L
(lp218
(lp219
tp220
a(L3020187L
L0L
(lp221
(lp222
tp223
a(L4067319519L
L0L
(lp224
(lp225
tp226
a(L3806571235L
L0L
(lp227
(lp228
tp229
a(L2247926755L
L3785322319L
(lp230
(lp231
Vbootloader_munmap
p232
atp233
a(L1036489382L
L0L
(lp234
(lp235
tp236
a(L3020187L
L0L
(lp237
(lp238
tp239
a(L1699092113L
L0L
(lp240
(lp241
tp242
a(L3926410636L
L0L
(lp243
(lp244
tp245
a(L3977772390L
L0L
(lp246
(lp247
tp248
a(L1535150665L
L0L
(lp249
(lp250
tp251
a(L2387139071L
L0L
(lp252
(lp253
tp254
a(L507291053L
L0L
(lp255
(lp256
tp257
atp258
sI1074270236
(Vrtc_vddsdio_get_config
p259
(lp260
(L3678440771L
L0L
(lp261
(lp262
tp263
a(L147025923L
L0L
(lp264
(lp265
tp266
a(L318395269L
L0L
(lp267
(lp268
tp269
a(L3103186839L
L0L
(lp270
(lp271
tp272
a(L4009849848L
L0L
(lp273
(lp274
tp275
a(L1116012092L
L0L
(lp276
(lp277
tp278
a(L1719615367L
L0L
(lp279
(lp280
tp281
a(L445527L
L0L
(lp282
(lp283
tp284
atp285
sI1074238992
(Vset_actual_ota_seq
p286
(lp287
(L4094723830L
L0L
(lp288
(lp289
tp290
a(L3659377767L
L0L
(lp291
(lp292
tp293
a(L1204777489L
L3785322319L
(lp294
(lp295
Vbootloader_common_ota_select_crc
p296
atp297
a(L3028481L
L0L
(lp298
(lp299
tp300
a(L3458727469L
L3785322319L
(lp301
(lp302
Vbootloader_flash_erase_sector
p303
atp304
a(L974281903L
L3785322319L
(lp305
(lp306
Vbootloader_flash_write
p307
atp308
a(L4284959788L
L3785322319L
(lp309
(lp310
Vesp_log_early_timestamp
p311
atp312
a(L889933560L
L1880226080L
(lp313
(lp314
Vindex_to_partition
p315
aVbootloader_common_update_rtc_retain_mem
p316
atp317
a(L3016870L
L0L
(lp318
(lp319
tp320
a(L1135480206L
L0L
(lp321
(lp322
tp323
a(L957607403L
L0L
(lp324
(lp325
tp326
atp327
sI1074237712
(Vbootloader_flash_read
p328
(lp329
(L2699333355L
L0L
(lp330
(lp331
tp332
a(L1175362320L
L3785322319L
(lp333
(lp334
Vesp_log_early_timestamp
p335
atp336
a(L44113432L
L0L
(lp337
(lp338
tp339
a(L1299867982L
L0L
(lp340
(lp341
tp342
a(L3360570486L
L0L
(lp343
(lp344
tp345
a(L2660352519L
L0L
(lp346
(lp347
tp348
a(L3132108208L
L3785322319L
(lp349
(lp350
Vesp_log_early_timestamp
p351
atp352
a(L162336582L
L0L
(lp353
(lp354
tp355
a(L1181808077L
L3785322319L
(lp356
(lp357
Vesp_log_early_timestamp
p358
atp359
a(L3020204L
L0L
(lp360
(lp361
tp362
a(L1398573769L
L0L
(lp363
(lp364
tp365
a(L97422L
L0L
(lp366
(lp367
tp368
a(L3753789769L
L0L
(lp369
(lp370
tp371
a(L3653028369L
L0L
(lp372
(lp373
tp374
a(L4242981970L
L3785322319L
(lp375
(lp376
Vesp_log_early_timestamp
p377
atp378
a(L4138677549L
L0L
(lp379
(lp380
tp381
a(L753544199L
L0L
(lp382
(lp383
tp384
a(L2786713711L
L3785322319L
(lp385
(lp386
Vesp_rom_spiflash_read
p387
atp388
a(L106L
L0L
(lp389
(lp390
tp391
a(L2506863920L
L0L
(lp392
(lp393
tp394
atp395
sI1074245156
(Vwdt_hal_config_stage
p396
(lp397
(L331558507L
L0L
(lp398
(lp399
tp400
a(L4279082939L
L0L
(lp401
(lp402
tp403
a(L3020204L
L0L
(lp404
(lp405
tp406
a(L3020187L
L0L
(lp407
(lp408
tp409
a(L3020187L
L0L
(lp410
(lp411
tp412
a(L94425498L
L3785322319L
(lp413
(lp414
Vabort
p415
atp416
a(L3970635303L
L0L
(lp417
(lp418
tp419
a(L3360570486L
L0L
(lp420
(lp421
tp422
a(L1646452473L
L0L
(lp423
(lp424
tp425
a(L1707054902L
L0L
(lp426
(lp427
tp428
a(L2218359315L
L0L
(lp429
(lp430
tp431
a(L3020187L
L0L
(lp432
(lp433
tp434
a(L2902417580L
L0L
(lp435
(lp436
tp437
a(L3020187L
L0L
(lp438
(lp439
tp440
a(L3028464L
L0L
(lp441
(lp442
tp443
a(L1610530326L
L0L
(lp444
(lp445
tp446
a(L1143975977L
L0L
(lp447
(lp448
tp449
a(L555662239L
L0L
(lp450
(lp451
tp452
a(L3017555630L
L0L
(lp453
(lp454
tp455
atp456
sI1074240544
(Vabort
p457
(lp458
(L2862618786L
L0L
(lp459
(lp460
tp461
a(L409441471L
L0L
(lp462
(lp463
tp464
a(L106L
L0L
(lp465
(lp466
tp467
atp468
sI1074237996
(Vbootloader_flash_erase_sector
p469
(lp470
(L2049114289L
L3785322319L
(lp471
(lp472
Vesp_rom_spiflash_erase_sector
p473
atp474
a(L2551169262L
L0L
(lp475
(lp476
tp477
a(L3360570486L
L0L
(lp478
(lp479
tp480
atp481
sI1074245932
(Vrtc_clk_32k_enable_common
p482
(lp483
(L3630422447L
L0L
(lp484
(lp485
tp486
atp487
sI1074246444
(Vrtc_clk_fast_freq_get
p488
(lp489
(L3894017105L
L0L
(lp490
(lp491
tp492
atp493
sI1074239784
(Vbootloader_reset
p494
(lp495
(L3235611470L
L3785322319L
(lp496
(lp497
Vbootloader_console_deinit
p498
atp499
a(L106L
L0L
(lp500
(lp501
tp502
atp503
sI1074245672
(Vefuse_hal_get_rated_freq_mhz
p504
(lp505
(L1131075142L
L0L
(lp506
(lp507
tp508
a(L2965302338L
L0L
(lp509
(lp510
tp511
a(L3360570486L
L0L
(lp512
(lp513
tp514
atp515
sI1074248232
(V_fini
p516
(lp517
(L3493042598L
L0L
(lp518
(lp519
tp520
atp521
sI1074267704
(Vcall_start_cpu0
p522
(lp523
(L1974457732L
L3785322319L
(lp524
(lp525
Vbootloader_init
p526
atp527
a(L94425498L
L3785322319L
(lp528
(lp529
Vbootloader_reset
p530
atp531
a(L913552592L
L1880226080L
(lp532
(lp533
Vbootloader_utility_load_boot_image_from_deep_sleep
p534
aVbootloader_utility_load_partition_table
p535
atp536
a(L4026389016L
L3785322319L
(lp537
(lp538
Vesp_log_early_timestamp
p539
atp540
a(L1623793516L
L3785322319L
(lp541
(lp542
Vbootloader_utility_get_selected_boot_partition
p543
atp544
a(L2086982338L
L1880226080L
(lp545
(lp546
Vbootloader_common_get_reset_reason
p547
aVbootloader_utility_load_boot_image
p548
atp549
atp550
sI1074240308
(Vbootloader_sha256_finish
p551
(lp552
(L4066096136L
L0L
(lp553
(lp554
tp555
a(L4202773450L
L0L
(lp556
(lp557
tp558
a(L2882072566L
L3785322319L
(lp559
(lp560
V__assert_func
p561
atp562
a(L3020204L
L0L
(lp563
(lp564
tp565
a(L155286271L
L0L
(lp566
(lp567
tp568
a(L2534656226L
L0L
(lp569
(lp570
tp571
a(L359467859L
L3785322319L
(lp572
(lp573
Vbootloader_sha256_data
p574
atp575
a(L1818138298L
L0L
(lp576
(lp577
tp578
a(L1682356329L
L3785322319L
(lp579
(lp580
Vbootloader_sha256_data
p581
atp582
a(L1863402248L
L0L
(lp583
(lp584
tp585
a(L657425439L
L0L
(lp586
(lp587
tp588
a(L4095541854L
L0L
(lp589
(lp590
tp591
a(L657425439L
L0L
(lp592
(lp593
tp594
a(L2115193437L
L0L
(lp595
(lp596
tp597
a(L265613353L
L0L
(lp598
(lp599
tp600
a(L3347778L
L0L
(lp601
(lp602
tp603
a(L3360570486L
L0L
(lp604
(lp605
tp606
atp607
sI1074240052
(Vindex_to_partition
p608
(lp609
(L4066096119L
L0L
(lp610
(lp611
tp612
a(L1739185955L
L0L
(lp613
(lp614
tp615
a(L2171552758L
L0L
(lp616
(lp617
tp618
a(L2808906342L
L0L
(lp619
(lp620
tp621
a(L2101481936L
L0L
(lp622
(lp623
tp624
a(L3698927993L
L0L
(lp625
(lp626
tp627
a(L2808826781L
L0L
(lp628
(lp629
tp630
a(L3003398163L
L0L
(lp631
(lp632
tp633
a(L1104460200L
L0L
(lp634
(lp635
tp636
a(L1087646172L
L0L
(lp637
(lp638
tp639
atp640
sI1074236980
(Vcheck_rtc_retain_mem
p641
(lp642
(L3860464352L
L0L
(lp643
(lp644
tp645
atp646
sI1074237236
(Vbootloader_common_get_active_otadata
p647
(lp648
(L3317503532L
L0L
(lp649
(lp650
tp651
a(L2503049265L
L1832448559L
(lp652
(lp653
Vbootloader_common_ota_select_valid
p654
aVbootloader_common_ota_select_valid
p655
aVbootloader_common_select_otadata
p656
atp657
a(L735741265L
L0L
(lp658
(lp659
tp660
atp661
sI1074237488
(Vbootloader_mmap
p662
(lp663
(L2059700562L
L0L
(lp664
(lp665
tp666
a(L3017932071L
L3785322319L
(lp667
(lp668
Vesp_log_early_timestamp
p669
atp670
a(L1182811810L
L0L
(lp671
(lp672
tp673
a(L3496950L
L0L
(lp674
(lp675
tp676
a(L1630759581L
L0L
(lp677
(lp678
tp679
a(L3536022130L
L3785322319L
(lp680
(lp681
Vesp_log_early_timestamp
p682
atp683
a(L1503832912L
L0L
(lp684
(lp685
tp686
a(L2005677777L
L3785322319L
(lp687
(lp688
Vesp_log_early_timestamp
p689
atp690
a(L1090567542L
L0L
(lp691
(lp692
tp693
atp694
sI1074246460
(Vrtc_clk_bbpll_configure
p695
(lp696
(L3252154405L
L0L
(lp697
(lp698
tp699
a(L106L
L0L
(lp700
(lp701
tp702
a(L893128112L
L0L
(lp703
(lp704
tp705
a(L106L
L0L
(lp706
(lp707
tp708
a(L321079144L
L0L
(lp709
(lp710
tp711
a(L128185152L
L0L
(lp712
(lp713
tp714
a(L1434023742L
L0L
(lp715
(lp716
tp717
a(L160100376L
L0L
(lp718
(lp719
tp720
a(L1025017345L
L0L
(lp721
(lp722
tp723
a(L3539372594L
L0L
(lp724
(lp725
tp726
a(L1990218138L
L0L
(lp727
(lp728
tp729
a(L160100376L
L0L
(lp730
(lp731
tp732
atp733
sI1074246976
(Vrtc_clk_cpu_freq_get_config
p734
(lp735
(L3553043505L
L0L
(lp736
(lp737
tp738
a(L2902417580L
L0L
(lp739
(lp740
tp741
a(L1777368540L
L0L
(lp742
(lp743
tp744
a(L1743619797L
L1880226080L
(lp745
(lp746
Vesp_log_early_timestamp
p747
aVabort
p748
atp749
a(L2445082463L
L3785322319L
(lp750
(lp751
Vrtc_clk_xtal_freq_get
p752
atp753
a(L584032699L
L0L
(lp754
(lp755
tp756
a(L4215789546L
L0L
(lp757
(lp758
tp759
a(L3020187L
L0L
(lp760
(lp761
tp762
a(L713819170L
L0L
(lp763
(lp764
tp765
a(L106L
L0L
(lp766
(lp767
tp768
a(L549042870L
L0L
(lp769
(lp770
tp771
a(L187152368L
L0L
(lp772
(lp773
tp774
a(L4149732163L
L0L
(lp775
(lp776
tp777
atp778
sI1074240844
(Vprocess_image_header
p779
(lp780
(L2444738264L
L3785322319L
(lp781
(lp782
Vbootloader_flash_read
p783
atp784
a(L3020204L
L0L
(lp785
(lp786
tp787
a(L182056016L
L0L
(lp788
(lp789
tp790
a(L1727394037L
L0L
(lp791
(lp792
tp793
a(L1161397362L
L3785322319L
(lp794
(lp795
Vbootloader_sha256_start
p796
atp797
a(L2062774299L
L3785322319L
(lp798
(lp799
Vbootloader_sha256_data
p800
atp801
a(L2226581267L
L0L
(lp802
(lp803
tp804
a(L3020204L
L0L
(lp805
(lp806
tp807
a(L3200755393L
L0L
(lp808
(lp809
tp810
a(L2983970029L
L0L
(lp811
(lp812
tp813
a(L668243269L
L3785322319L
(lp814
(lp815
Vesp_log_early_timestamp
p816
atp817
a(L3028481L
L0L
(lp818
(lp819
tp820
a(L2299376216L
L0L
(lp821
(lp822
tp823
a(L3290822377L
L3785322319L
(lp824
(lp825
Vesp_log_early_timestamp
p826
atp827
a(L2886566498L
L0L
(lp828
(lp829
tp830
a(L1244061191L
L3785322319L
(lp831
(lp832
Vesp_log_early_timestamp
p833
atp834
a(L545088956L
L3785322319L
(lp835
(lp836
Vbootloader_common_check_chip_validity
p837
atp838
a(L2786305996L
L0L
(lp839
(lp840
tp841
a(L3028481L
L0L
(lp842
(lp843
tp844
a(L3124001099L
L3785322319L
(lp845
(lp846
Vesp_log_early_timestamp
p847
atp848
a(L2852701393L
L0L
(lp849
(lp850
tp851
a(L2122516551L
L0L
(lp852
(lp853
tp854
a(L3064492592L
L0L
(lp855
(lp856
tp857
atp858
sI1074245708
(Vrtc_clk_bbpll_disable
p859
(lp860
(L536785375L
L0L
(lp861
(lp862
tp863
a(L391691750L
L0L
(lp864
(lp865
tp866
a(L3360570486L
L0L
(lp867
(lp868
tp869
atp870
sI1074243144
(Vesp_rom_spiflash_wait_idle
p871
(lp872
(L3233076279L
L0L
(lp873
(lp874
tp875
a(L2023766174L
L0L
(lp876
(lp877
tp878
a(L2805934236L
L0L
(lp879
(lp880
tp881
a(L3086959262L
L0L
(lp882
(lp883
tp884
a(L4161019926L
L3785322319L
(lp885
(lp886
Vesp_rom_spiflash_read_status
p887
atp888
atp889
sI1074239816
(Vbootloader_utility_load_boot_image
p890
(lp891
(L3912290829L
L0L
(lp892
(lp893
tp894
a(L1971697651L
L3785322319L
(lp895
(lp896
Vtry_load_partition
p897
atp898
a(L1305243774L
L3785322319L
(lp899
(lp900
Vload_image
p901
atp902
a(L2100913081L
L3785322319L
(lp903
(lp904
Vesp_log_early_timestamp
p905
atp906
a(L3827921190L
L3785322319L
(lp907
(lp908
Vbootloader_reset
p909
atp910
a(L2542673780L
L3785322319L
(lp911
(lp912
Vindex_to_partition
p913
atp914
a(L1204373741L
L3785322319L
(lp915
(lp916
Vtry_load_partition
p917
atp918
a(L4185757536L
L0L
(lp919
(lp920
tp921
a(L2070875117L
L3785322319L
(lp922
(lp923
Vset_actual_ota_seq
p924
atp925
a(L1868897605L
L3785322319L
(lp926
(lp927
Vlog_invalid_app_partition
p928
atp929
a(L831650730L
L0L
(lp930
(lp931
tp932
a(L3021737L
L0L
(lp933
(lp934
tp935
a(L695456438L
L0L
(lp936
(lp937
tp938
a(L2389214760L
L3785322319L
(lp939
(lp940
Vtry_load_partition
p941
atp942
a(L946203165L
L3785322319L
(lp943
(lp944
Vesp_log_early_timestamp
p945
atp946
a(L2185156151L
L3785322319L
(lp947
(lp948
Vindex_to_partition
p949
atp950
a(L1074657773L
L3785322319L
(lp951
(lp952
Vtry_load_partition
p953
atp954
a(L3061261803L
L0L
(lp955
(lp956
tp957
a(L3582858798L
L3785322319L
(lp958
(lp959
Vlog_invalid_app_partition
p960
atp961
a(L2714087918L
L3785322319L
(lp962
(lp963
Vesp_log_early_timestamp
p964
atp965
atp966
sI1074238024
(Vbootloader_flash_write
p967
(lp968
(L3119145091L
L0L
(lp969
(lp970
tp971
a(L1030178812L
L3785322319L
(lp972
(lp973
Vesp_log_early_timestamp
p974
atp975
a(L44113432L
L0L
(lp976
(lp977
tp978
a(L1610445075L
L0L
(lp979
(lp980
tp981
a(L735741265L
L0L
(lp982
(lp983
tp984
a(L3291333414L
L0L
(lp985
(lp986
tp987
a(L2835528616L
L3785322319L
(lp988
(lp989
Vesp_log_early_timestamp
p990
atp991
a(L3283691850L
L0L
(lp992
(lp993
tp994
a(L77950130L
L3785322319L
(lp995
(lp996
Vesp_log_early_timestamp
p997
atp998
a(L3212356251L
L3785322319L
(lp999
(lp1000
Vbootloader_flash_unlock
p1001
atp1002
a(L4210907913L
L0L
(lp1003
(lp1004
tp1005
a(L94425498L
L3785322319L
(lp1006
(lp1007
Vesp_rom_spiflash_write_encrypted
p1008
atp1009
a(L93674324L
L0L
(lp1010
(lp1011
tp1012
a(L1685298583L
L0L
(lp1013
(lp1014
tp1015
a(L2927190544L
L3785322319L
(lp1016
(lp1017
Vesp_rom_spiflash_write
p1018
atp1019
atp1020
sI1074269528
(Vbootloader_enable_random
p1021
(lp1022
(L1287383080L
L3785322319L
(lp1023
(lp1024
Vbootloader_random_enable
p1025
atp1026
atp1027
sI1074241104
(Vbootloader_util_regions_overlap
p1028
(lp1029
(L2762640130L
L0L
(lp1030
(lp1031
tp1032
a(L3840080044L
L0L
(lp1033
(lp1034
tp1035
a(L757568932L
L3785322319L
(lp1036
(lp1037
V__assert_func
p1038
atp1039
a(L97642L
L0L
(lp1040
(lp1041
tp1042
a(L345168354L
L0L
(lp1043
(lp1044
tp1045
a(L366123053L
L0L
(lp1046
(lp1047
tp1048
a(L2258867228L
L0L
(lp1049
(lp1050
tp1051
a(L1253626734L
L0L
(lp1052
(lp1053
tp1054
a(L2258897019L
L0L
(lp1055
(lp1056
tp1057
a(L3109269495L
L0L
(lp1058
(lp1059
tp1060
atp1061
sI1074240592
(Vbootloader_ana_clock_glitch_reset_config
p1062
(lp1063
(L2100504542L
L0L
(lp1064
(lp1065
tp1066
atp1067
sI1074237276
(Vbootloader_common_reset_rtc_retain_mem
p1068
(lp1069
(L3957862656L
L0L
(lp1070
(lp1071
tp1072
atp1073
sI1074246236
(Vrtc_clk_8m_enabled
p1074
(lp1075
(L3250035153L
L0L
(lp1076
(lp1077
tp1078
atp1079
sI1074269780
(Vrtc_clk_init
p1080
(lp1081
(L2649689980L
L0L
(lp1082
(lp1083
tp1084
a(L42671777L
L3785322319L
(lp1085
(lp1086
Vrtc_clk_cpu_freq_to_xtal
p1087
atp1088
a(L3516405175L
L0L
(lp1089
(lp1090
tp1091
a(L4184912069L
L0L
(lp1092
(lp1093
tp1094
a(L2873281153L
L0L
(lp1095
(lp1096
tp1097
a(L912414356L
L3785322319L
(lp1098
(lp1099
Vrtc_clk_xtal_freq_get
p1100
atp1101
a(L766676023L
L1157885199L
(lp1102
(lp1103
Vesp_rom_uart_tx_wait_idle
p1104
aVrtc_clk_xtal_freq_update
p1105
aVrtc_clk_apb_freq_update
p1106
aVrtc_clk_cpu_freq_get_config
p1107
aVrtc_clk_cpu_freq_mhz_to_config
p1108
atp1109
a(L2049360664L
L1880226080L
(lp1110
(lp1111
Vesp_log_early_timestamp
p1112
aVabort
p1113
atp1114
a(L4187693717L
L3785322319L
(lp1115
(lp1116
Vrtc_clk_xtal_freq_estimate
p1117
atp1118
a(L4018424124L
L3785322319L
(lp1119
(lp1120
Vesp_log_early_timestamp
p1121
atp1122
a(L4188325301L
L0L
(lp1123
(lp1124
tp1125
a(L1563923531L
L0L
(lp1126
(lp1127
tp1128
a(L106L
L0L
(lp1129
(lp1130
tp1131
a(L4070631878L
L3785322319L
(lp1132
(lp1133
Vrtc_clk_xtal_freq_estimate
p1134
atp1135
a(L106L
L0L
(lp1136
(lp1137
tp1138
a(L3694063539L
L3785322319L
(lp1139
(lp1140
Vesp_log_early_timestamp
p1141
atp1142
a(L1860207713L
L3785322319L
(lp1143
(lp1144
Vrtc_clk_cpu_freq_set_config
p1145
atp1146
a(L4168829660L
L3785322319L
(lp1147
(lp1148
Vrtc_clk_32k_enable
p1149
atp1150
a(L3016870L
L0L
(lp1151
(lp1152
tp1153
a(L2765048515L
L3785322319L
(lp1154
(lp1155
Vrtc_clk_8m_enable
p1156
atp1157
a(L530469956L
L1880226080L
(lp1158
(lp1159
Vrtc_clk_fast_freq_set
p1160
aVrtc_clk_slow_freq_set
p1161
atp1162
atp1163
sI1074240600
(Vprocess_appended_hash
p1164
(lp1165
(L3580132405L
L0L
(lp1166
(lp1167
tp1168
a(L3028481L
L0L
(lp1169
(lp1170
tp1171
a(L1591589631L
L0L
(lp1172
(lp1173
tp1174
a(L1864319304L
L0L
(lp1175
(lp1176
tp1177
a(L2007527363L
L0L
(lp1178
(lp1179
tp1180
a(L4060541698L
L3785322319L
(lp1181
(lp1182
Vesp_log_early_timestamp
p1183
atp1184
a(L894030452L
L3785322319L
(lp1185
(lp1186
Vbootloader_flash_read
p1187
atp1188
a(L3871473710L
L0L
(lp1189
(lp1190
tp1191
atp1192
sI1074238296
(Vbootloader_random_disable
p1193
(lp1194
(L999168281L
L0L
(lp1195
(lp1196
tp1197
atp1198
sI1074236760
(Vefuse_hal_chip_revision
p1199
(lp1200
(L1761205471L
L1880226080L
(lp1201
(lp1202
Vefuse_hal_get_major_chip_version
p1203
aVefuse_hal_get_minor_chip_version
p1204
atp1205
atp1206
sI1074235236
(Vbootloader_execute_flash_command
p1207
(lp1208
(L2481595632L
L3785322319L
(lp1209
(lp1210
Vbootloader_flash_execute_command_common
p1211
atp1212
atp1213
sI1074269292
(Vbootloader_flash_update_id
p1214
(lp1215
(L1956808122L
L3785322319L
(lp1216
(lp1217
Vbootloader_read_flash_id
p1218
atp1219
atp1220
sI1074245472
(Vwdt_hal_write_protect_disable
p1221
(lp1222
(L2531263906L
L0L
(lp1223
(lp1224
tp1225
a(L4195472003L
L0L
(lp1226
(lp1227
tp1228
a(L3360570486L
L0L
(lp1229
(lp1230
tp1231
a(L1210571996L
L0L
(lp1232
(lp1233
tp1234
atp1235
sI1074237024
(Vbootloader_common_ota_select_crc
p1236
(lp1237
(L3803478238L
L0L
(lp1238
(lp1239
tp1240
atp1241
sI1074269536
(Vbootloader_console_init
p1242
(lp1243
(L2709841870L
L2485746240L
(lp1244
(lp1245
Vesp_rom_install_channel_putc
p1246
aVesp_rom_uart_tx_wait_idle
p1247
aVrtc_clk_apb_freq_get
p1248
aVesp_rom_uart_set_clock_baudrate
p1249
atp1250
atp1251
sI1074236520
(Vbootloader_common_get_chip_ver_pkg
p1252
(lp1253
(L2768515967L
L0L
(lp1254
(lp1255
tp1256
atp1257
sI1074248040
(Vrtc_clk_cal_ratio
p1258
(lp1259
(L1522936004L
L3785322319L
(lp1260
(lp1261
Vrtc_clk_cal_internal
p1262
atp1263
atp1264
sI1074240116
(Vbootloader_debug_buffer
p1265
(lp1266
(L2100504542L
L0L
(lp1267
(lp1268
tp1269
atp1270
sI1074237044
(Vbootloader_common_ota_select_valid
p1271
(lp1272
(L1563399710L
L3785322319L
(lp1273
(lp1274
Vbootloader_common_ota_select_invalid
p1275
atp1276
a(L3814720849L
L3785322319L
(lp1277
(lp1278
Vbootloader_common_ota_select_crc
p1279
atp1280
a(L3360570486L
L0L
(lp1281
(lp1282
tp1283
atp1284
sI1074246260
(Vrtc_clk_8md256_enabled
p1285
(lp1286
(L2405563282L
L0L
(lp1287
(lp1288
tp1289
atp1290
sI1074269308
(Vbootloader_clear_bss_section
p1291
(lp1292
(L635994099L
L0L
(lp1293
(lp1294
tp1295
atp1296
sI1074234736
(Vbootloader_flash_execute_command_common
p1297
(lp1298
(L630859308L
L0L
(lp1299
(lp1300
tp1301
a(L120555568L
L0L
(lp1302
(lp1303
tp1304
a(L2925418774L
L3785322319L
(lp1305
(lp1306
V__assert_func
p1307
atp1308
a(L3021749L
L0L
(lp1309
(lp1310
tp1311
a(L153183052L
L0L
(lp1312
(lp1313
tp1314
a(L3132325827L
L0L
(lp1315
(lp1316
tp1317
a(L1782874522L
L0L
(lp1318
(lp1319
tp1320
a(L4024113366L
L0L
(lp1321
(lp1322
tp1323
a(L2147958864L
L0L
(lp1324
(lp1325
tp1326
a(L831940355L
L0L
(lp1327
(lp1328
tp1329
a(L2039827138L
L0L
(lp1330
(lp1331
tp1332
a(L2429937038L
L0L
(lp1333
(lp1334
tp1335
a(L2186295391L
L0L
(lp1336
(lp1337
tp1338
a(L3079186448L
L0L
(lp1339
(lp1340
tp1341
a(L3333696662L
L0L
(lp1342
(lp1343
tp1344
a(L963425213L
L0L
(lp1345
(lp1346
tp1347
a(L3172016656L
L0L
(lp1348
(lp1349
tp1350
a(L3360570486L
L0L
(lp1351
(lp1352
tp1353
a(L1184240068L
L0L
(lp1354
(lp1355
tp1356
atp1357
sI1074237296
(Vbootloader_common_get_rtc_retain_mem_partition
p1358
(lp1359
(L1838455070L
L3785322319L
(lp1360
(lp1361
Vcheck_rtc_retain_mem
p1362
atp1363
a(L702737019L
L0L
(lp1364
(lp1365
tp1366
a(L3360570486L
L0L
(lp1367
(lp1368
tp1369
atp1370
sI1074241648
(Vprocess_segments
p1371
(lp1372
(L359986521L
L0L
(lp1373
(lp1374
tp1375
a(L2748309156L
L0L
(lp1376
(lp1377
tp1378
a(L2910670446L
L0L
(lp1379
(lp1380
tp1381
a(L106L
L0L
(lp1382
(lp1383
tp1384
a(L2587042390L
L0L
(lp1385
(lp1386
tp1387
a(L3366903775L
L3785322319L
(lp1388
(lp1389
Vesp_log_early_timestamp
p1390
atp1391
a(L1007910832L
L3785322319L
(lp1392
(lp1393
Vbootloader_flash_read
p1394
atp1395
a(L3358612777L
L3785322319L
(lp1396
(lp1397
Vesp_log_early_timestamp
p1398
atp1399
a(L3360570486L
L0L
(lp1400
(lp1401
tp1402
a(L1890170661L
L0L
(lp1403
(lp1404
tp1405
a(L4138551778L
L3785322319L
(lp1406
(lp1407
Vbootloader_sha256_data
p1408
atp1409
a(L3910643394L
L0L
(lp1410
(lp1411
tp1412
a(L790360741L
L0L
(lp1413
(lp1414
tp1415
a(L4278197902L
L0L
(lp1416
(lp1417
tp1418
a(L4022246099L
L0L
(lp1419
(lp1420
tp1421
a(L106L
L0L
(lp1422
(lp1423
tp1424
a(L3191688883L
L0L
(lp1425
(lp1426
tp1427
a(L3656641238L
L0L
(lp1428
(lp1429
tp1430
a(L47939935L
L3785322319L
(lp1431
(lp1432
Vesp_log_early_timestamp
p1433
atp1434
a(L3648687041L
L0L
(lp1435
(lp1436
tp1437
a(L310086762L
L0L
(lp1438
(lp1439
tp1440
a(L3114364629L
L3785322319L
(lp1441
(lp1442
Vesp_log_early_timestamp
p1443
atp1444
a(L1551654749L
L3785322319L
(lp1445
(lp1446
Vverify_load_addresses
p1447
atp1448
a(L106L
L0L
(lp1449
(lp1450
tp1451
a(L238852646L
L0L
(lp1452
(lp1453
tp1454
a(L2655382944L
L0L
(lp1455
(lp1456
tp1457
a(L3735077394L
L3785322319L
(lp1458
(lp1459
Vbootloader_mmap
p1460
atp1461
a(L2761050340L
L3785322319L
(lp1462
(lp1463
Vesp_log_early_timestamp
p1464
atp1465
a(L2780421371L
L0L
(lp1466
(lp1467
tp1468
a(L38687474L
L0L
(lp1469
(lp1470
tp1471
a(L1652679798L
L3785322319L
(lp1472
(lp1473
Vbootloader_munmap
p1474
atp1475
a(L1820299912L
L0L
(lp1476
(lp1477
tp1478
a(L1782223905L
L3785322319L
(lp1479
(lp1480
Vbootloader_fill_random
p1481
atp1482
a(L3570641403L
L0L
(lp1483
(lp1484
tp1485
a(L3574335487L
L0L
(lp1486
(lp1487
tp1488
a(L3450268858L
L0L
(lp1489
(lp1490
tp1491
a(L3021749L
L0L
(lp1492
(lp1493
tp1494
a(L4179164843L
L0L
(lp1495
(lp1496
tp1497
a(L1084626871L
L0L
(lp1498
(lp1499
tp1500
a(L2902417580L
L0L
(lp1501
(lp1502
tp1503
a(L195817684L
L0L
(lp1504
(lp1505
tp1506
a(L1797921642L
L0L
(lp1507
(lp1508
tp1509
a(L3425755096L
L0L
(lp1510
(lp1511
tp1512
a(L3396129621L
L0L
(lp1513
(lp1514
tp1515
a(L670934548L
L0L
(lp1516
(lp1517
tp1518
a(L363643669L
L3785322319L
(lp1519
(lp1520
Vbootloader_sha256_data
p1521
atp1522
a(L90548756L
L0L
(lp1523
(lp1524
tp1525
a(L4195963580L
L0L
(lp1526
(lp1527
tp1528
a(L4112551030L
L0L
(lp1529
(lp1530
tp1531
a(L617933722L
L0L
(lp1532
(lp1533
tp1534
a(L819370645L
L3785322319L
(lp1535
(lp1536
Vshould_load
p1537
atp1538
a(L3780737284L
L0L
(lp1539
(lp1540
tp1541
a(L3028481L
L0L
(lp1542
(lp1543
tp1544
a(L2136754140L
L3785322319L
(lp1545
(lp1546
Vbootloader_mmap_get_free_pages
p1547
atp1548
a(L3028481L
L0L
(lp1549
(lp1550
tp1551
a(L1228460392L
L0L
(lp1552
(lp1553
tp1554
atp1555
sI1074243440
(Vesp_rom_spiflash_erase_sector
p1556
(lp1557
(L219681817L
L0L
(lp1558
(lp1559
tp1560
a(L2258688483L
L0L
(lp1561
(lp1562
tp1563
a(L3360570486L
L0L
(lp1564
(lp1565
tp1566
a(L3212356251L
L3785322319L
(lp1567
(lp1568
Vesp_rom_spiflash_enable_write
p1569
atp1570
a(L184152988L
L0L
(lp1571
(lp1572
tp1573
a(L964135806L
L3785322319L
(lp1574
(lp1575
Vesp_rom_spiflash_wait_idle
p1576
atp1577
a(L3333707777L
L0L
(lp1578
(lp1579
tp1580
a(L3582858798L
L3785322319L
(lp1581
(lp1582
Vesp_rom_spiflash_wait_idle
p1583
atp1584
atp1585
sI1074240124
(Vbootloader_sha256_start
p1586
(lp1587
(L3836737915L
L0L
(lp1588
(lp1589
tp1590
atp1591
sI1074247292
(Vrtc_clk_cpu_freq_set_config
p1592
(lp1593
(L4238119451L
L3785322319L
(lp1594
(lp1595
Vrtc_clk_xtal_freq_get
p1596
atp1597
a(L1828795533L
L1880226080L
(lp1598
(lp1599
Vrtc_clk_cpu_freq_to_xtal
p1600
aVrtc_clk_wait_for_slow_cycle
p1601
atp1602
a(L94425498L
L3785322319L
(lp1603
(lp1604
Vrtc_clk_bbpll_disable
p1605
atp1606
a(L3978916712L
L0L
(lp1607
(lp1608
tp1609
a(L2977209154L
L0L
(lp1610
(lp1611
tp1612
a(L2736411858L
L3785322319L
(lp1613
(lp1614
Vrtc_clk_cpu_freq_to_xtal
p1615
atp1616
a(L3360570486L
L0L
(lp1617
(lp1618
tp1619
a(L3020187L
L0L
(lp1620
(lp1621
tp1622
a(L106L
L0L
(lp1623
(lp1624
tp1625
a(L2028829908L
L2485746240L
(lp1626
(lp1627
Vrtc_clk_wait_for_slow_cycle
p1628
aVrtc_clk_xtal_freq_get
p1629
aVrtc_clk_bbpll_configure
p1630
aVrtc_clk_cpu_freq_to_pll_mhz
p1631
atp1632
a(L3020187L
L0L
(lp1633
(lp1634
tp1635
a(L106L
L0L
(lp1636
(lp1637
tp1638
a(L2152764552L
L0L
(lp1639
(lp1640
tp1641
atp1642
sI1074243192
(Vesp_rom_spiflash_enable_write
p1643
(lp1644
(L2418802189L
L3785322319L
(lp1645
(lp1646
Vesp_rom_spiflash_wait_idle
p1647
atp1648
a(L3137194272L
L0L
(lp1649
(lp1650
tp1651
a(L2258718275L
L0L
(lp1652
(lp1653
tp1654
a(L99543895L
L0L
(lp1655
(lp1656
tp1657
a(L2993202392L
L0L
(lp1658
(lp1659
tp1660
a(L1804543818L
L3785322319L
(lp1661
(lp1662
Vesp_rom_spiflash_read_status
p1663
atp1664
atp1665
sI1074236792
(Vefuse_hal_get_major_chip_version
p1666
(lp1667
(L4284062136L
L0L
(lp1668
(lp1669
tp1670
a(L3144131276L
L0L
(lp1671
(lp1672
tp1673
a(L3360570486L
L0L
(lp1674
(lp1675
tp1676
atp1677
sI1074235268
(Vbootloader_flash_unlock
p1678
(lp1679
(L142706334L
L3785322319L
(lp1680
(lp1681
Vesp_rom_spiflash_wait_idle
p1682
atp1683
a(L4024621237L
L0L
(lp1684
(lp1685
tp1686
a(L4292483033L
L3785322319L
(lp1687
(lp1688
Vbootloader_execute_flash_command
p1689
atp1690
a(L106L
L0L
(lp1691
(lp1692
tp1693
a(L1303560644L
L0L
(lp1694
(lp1695
tp1696
a(L1419965066L
L0L
(lp1697
(lp1698
tp1699
a(L106L
L0L
(lp1700
(lp1701
tp1702
a(L1633120054L
L0L
(lp1703
(lp1704
tp1705
a(L106L
L0L
(lp1706
(lp1707
tp1708
a(L2974484771L
L0L
(lp1709
(lp1710
tp1711
a(L106L
L0L
(lp1712
(lp1713
tp1714
a(L1481761147L
L1880226080L
(lp1715
(lp1716
Vbootloader_execute_flash_command
p1717
aVbootloader_execute_flash_command
p1718
atp1719
a(L2258807654L
L0L
(lp1720
(lp1721
tp1722
a(L489806350L
L1832448559L
(lp1723
(lp1724
Vesp_rom_spiflash_wait_idle
p1725
aVbootloader_execute_flash_command
p1726
aVbootloader_execute_flash_command
p1727
atp1728
a(L879744646L
L1832448559L
(lp1729
(lp1730
Vesp_rom_spiflash_wait_idle
p1731
aVbootloader_execute_flash_command
p1732
aVbootloader_execute_flash_command
p1733
atp1734
a(L1840772931L
L1880226080L
(lp1735
(lp1736
Vesp_rom_spiflash_wait_idle
p1737
aVbootloader_execute_flash_command
p1738
atp1739
a(L2993202392L
L0L
(lp1740
(lp1741
tp1742
a(L508800419L
L1880226080L
(lp1743
(lp1744
Vbootloader_execute_flash_command
p1745
aVbootloader_execute_flash_command
p1746
atp1747
a(L1303560369L
L0L
(lp1748
(lp1749
tp1750
a(L1596544945L
L0L
(lp1751
(lp1752
tp1753
a(L97689L
L0L
(lp1754
(lp1755
tp1756
a(L106L
L0L
(lp1757
(lp1758
tp1759
atp1760
sI1074245504
(Vwdt_hal_enable
p1761
(lp1762
(L4029830118L
L0L
(lp1763
(lp1764
tp1765
a(L3634439744L
L0L
(lp1766
(lp1767
tp1768
a(L3360570486L
L0L
(lp1769
(lp1770
tp1771
a(L2011576586L
L0L
(lp1772
(lp1773
tp1774
atp1775
sI1074237312
(Vbootloader_common_update_rtc_retain_mem
p1776
(lp1777
(L2958000229L
L0L
(lp1778
(lp1779
tp1780
a(L3212356251L
L3785322319L
(lp1781
(lp1782
Vcheck_rtc_retain_mem
p1783
atp1784
a(L94425498L
L3785322319L
(lp1785
(lp1786
Vbootloader_common_reset_rtc_retain_mem
p1787
atp1788
a(L2171316077L
L0L
(lp1789
(lp1790
tp1791
a(L4140856694L
L0L
(lp1792
(lp1793
tp1794
a(L2463310056L
L0L
(lp1795
(lp1796
tp1797
a(L1466453772L
L0L
(lp1798
(lp1799
tp1800
a(L1887882407L
L0L
(lp1801
(lp1802
tp1803
atp1804
sI1074269568
(Vesp_cpu_configure_region_protection
p1805
(lp1806
(L2621057777L
L0L
(lp1807
(lp1808
tp1809
a(L180431425L
L3785322319L
(lp1810
(lp1811
Vmpu_hal_set_region_access
p1812
atp1813
a(L2537388152L
L3785322319L
(lp1814
(lp1815
Vmpu_hal_set_region_access
p1816
atp1817
atp1818
sI1074246284
(Vrtc_clk_slow_freq_set
p1819
(lp1820
(L1479194515L
L0L
(lp1821
(lp1822
tp1823
atp1824
sI1074268804
(Vbootloader_init_mem
p1825
(lp1826
(L1511720305L
L3785322319L
(lp1827
(lp1828
Vesp_cpu_configure_region_protection
p1829
atp1830
atp1831
sI1074236552
(Vesp_cpu_in_ocd_debug_mode
p1832
(lp1833
(L3653986668L
L0L
(lp1834
(lp1835
tp1836
atp1837
sI1074241160
(Vverify_load_addresses
p1838
(lp1839
(L2763563698L
L0L
(lp1840
(lp1841
tp1842
a(L106L
L0L
(lp1843
(lp1844
tp1845
a(L97642L
L0L
(lp1846
(lp1847
tp1848
a(L3969278932L
L3785322319L
(lp1849
(lp1850
V__assert_func
p1851
atp1852
a(L1217381881L
L0L
(lp1853
(lp1854
tp1855
a(L106L
L0L
(lp1856
(lp1857
tp1858
a(L1893345666L
L0L
(lp1859
(lp1860
tp1861
a(L106L
L0L
(lp1862
(lp1863
tp1864
a(L1735643378L
L3785322319L
(lp1865
(lp1866
Vbootloader_util_regions_overlap
p1867
atp1868
a(L186734638L
L3785322319L
(lp1869
(lp1870
Vbootloader_util_regions_overlap
p1871
atp1872
a(L3028481L
L0L
(lp1873
(lp1874
tp1875
a(L3584408566L
L3785322319L
(lp1876
(lp1877
Vbootloader_util_regions_overlap
p1878
atp1879
a(L2555047971L
L0L
(lp1880
(lp1881
tp1882
a(L3099884703L
L0L
(lp1883
(lp1884
tp1885
a(L1315364523L
L0L
(lp1886
(lp1887
tp1888
a(L4256754025L
L0L
(lp1889
(lp1890
tp1891
a(L642339957L
L0L
(lp1892
(lp1893
tp1894
a(L677569396L
L3785322319L
(lp1895
(lp1896
Vverify_load_addresses
p1897
atp1898
a(L1351513776L
L0L
(lp1899
(lp1900
tp1901
a(L761035639L
L0L
(lp1902
(lp1903
tp1904
a(L3767772822L
L0L
(lp1905
(lp1906
tp1907
a(L1111620718L
L3785322319L
(lp1908
(lp1909
Vbootloader_util_regions_overlap
p1910
atp1911
a(L3028481L
L0L
(lp1912
(lp1913
tp1914
a(L3682976534L
L3785322319L
(lp1915
(lp1916
Vbootloader_util_regions_overlap
p1917
atp1918
a(L2425876663L
L0L
(lp1919
(lp1920
tp1921
a(L1341726790L
L0L
(lp1922
(lp1923
tp1924
a(L3983602894L
L0L
(lp1925
(lp1926
tp1927
a(L903511626L
L0L
(lp1928
(lp1929
tp1930
a(L307916850L
L0L
(lp1931
(lp1932
tp1933
a(L697239146L
L0L
(lp1934
(lp1935
tp1936
a(L106L
L0L
(lp1937
(lp1938
tp1939
a(L955503953L
L0L
(lp1940
(lp1941
tp1942
a(L307917420L
L0L
(lp1943
(lp1944
tp1945
a(L490080443L
L0L
(lp1946
(lp1947
tp1948
a(L106L
L0L
(lp1949
(lp1950
tp1951
a(L4061026629L
L3785322319L
(lp1952
(lp1953
Vesp_log_early_timestamp
p1954
atp1955
a(L955504077L
L0L
(lp1956
(lp1957
tp1958
a(L1303560427L
L0L
(lp1959
(lp1960
tp1961
atp1962
sI1074245768
(Vrtc_clk_cpu_freq_to_pll_mhz
p1963
(lp1964
(L428013989L
L0L
(lp1965
(lp1966
tp1967
a(L106L
L0L
(lp1968
(lp1969
tp1970
a(L1541997046L
L0L
(lp1971
(lp1972
tp1973
a(L106L
L0L
(lp1974
(lp1975
tp1976
a(L1546614651L
L0L
(lp1977
(lp1978
tp1979
a(L2907368881L
L0L
(lp1980
(lp1981
tp1982
a(L2377453630L
L3785322319L
(lp1983
(lp1984
Vrtc_clk_wait_for_slow_cycle
p1985
atp1986
a(L3547411263L
L1880226080L
(lp1987
(lp1988
Vesp_log_early_timestamp
p1989
aVabort
p1990
atp1991
a(L1183020347L
L0L
(lp1992
(lp1993
tp1994
a(L1305407562L
L0L
(lp1995
(lp1996
tp1997
a(L1306330990L
L0L
(lp1998
(lp1999
tp2000
atp2001
sI1074248072
(Vrtc_clk_wait_for_slow_cycle
p2002
(lp2003
(L1377900124L
L0L
(lp2004
(lp2005
tp2006
a(L287687718L
L0L
(lp2007
(lp2008
tp2009
a(L3360570486L
L0L
(lp2010
(lp2011
tp2012
a(L2366481751L
L0L
(lp2013
(lp2014
tp2015
a(L2994547433L
L0L
(lp2016
(lp2017
tp2018
a(L580986208L
L0L
(lp2019
(lp2020
tp2021
a(L628210125L
L3785322319L
(lp2022
(lp2023
Vesp_log_early_timestamp
p2024
atp2025
atp2026
sI1074238612
(Vbootloader_clock_get_rated_freq_mhz
p2027
(lp2028
(L376617603L
L3785322319L
(lp2029
(lp2030
Vefuse_hal_get_rated_freq_mhz
p2031
atp2032
atp2033
sI1074247572
(Vrtc_clk_apb_freq_get
p2034
(lp2035
(L801443951L
L0L
(lp2036
(lp2037
tp2038
atp2039
sI1074235792
(Vbootloader_flash_cs_timing_config
p2040
(lp2041
(L1061398432L
L0L
(lp2042
(lp2043
tp2044
atp2045
sI1074240144
(Vbootloader_sha256_data
p2046
(lp2047
(L4066096136L
L0L
(lp2048
(lp2049
tp2050
a(L1187669745L
L0L
(lp2051
(lp2052
tp2053
a(L2882072566L
L3785322319L
(lp2054
(lp2055
V__assert_func
p2056
atp2057
a(L498498478L
L0L
(lp2058
(lp2059
tp2060
a(L3146956578L
L0L
(lp2061
(lp2062
tp2063
a(L2910371777L
L0L
(lp2064
(lp2065
tp2066
a(L3360570486L
L0L
(lp2067
(lp2068
tp2069
a(L4019796214L
L0L
(lp2070
(lp2071
tp2072
a(L841847518L
L0L
(lp2073
(lp2074
tp2075
a(L2482754892L
L0L
(lp2076
(lp2077
tp2078
a(L3755774L
L0L
(lp2079
(lp2080
tp2081
a(L2541610606L
L0L
(lp2082
(lp2083
tp2084
a(L1390602840L
L0L
(lp2085
(lp2086
tp2087
a(L3028464L
L0L
(lp2088
(lp2089
tp2090
a(L199620452L
L0L
(lp2091
(lp2092
tp2093
a(L1922102252L
L0L
(lp2094
(lp2095
tp2096
atp2097
sI1074267792
(Vbootloader_common_vddsdio_configure
p2098
(lp2099
(L1922017289L
L3785322319L
(lp2100
(lp2101
Vrtc_vddsdio_get_config
p2102
atp2103
a(L1612109748L
L3785322319L
(lp2104
(lp2105
Vrtc_vddsdio_set_config
p2106
atp2107
a(L3360570486L
L0L
(lp2108
(lp2109
tp2110
atp2111
sI1074268820
(Vbootloader_random_enable
p2112
(lp2113
(L2958451383L
L0L
(lp2114
(lp2115
tp2116
atp2117
sI1074269332
(Vbootloader_read_bootloader_header
p2118
(lp2119
(L2458881291L
L3785322319L
(lp2120
(lp2121
Vbootloader_flash_read
p2122
atp2123
a(L1920293697L
L3785322319L
(lp2124
(lp2125
Vesp_log_early_timestamp
p2126
atp2127
a(L735741265L
L0L
(lp2128
(lp2129
tp2130
atp2131
sI1074237080
(Vbootloader_common_check_chip_validity
p2132
(lp2133
(L409865374L
L0L
(lp2134
(lp2135
tp2136
a(L3008458885L
L3785322319L
(lp2137
(lp2138
Vesp_log_early_timestamp
p2139
atp2140
a(L1508931617L
L3785322319L
(lp2141
(lp2142
Vefuse_hal_chip_revision
p2143
atp2144
a(L93674324L
L0L
(lp2145
(lp2146
tp2147
a(L4170554374L
L3785322319L
(lp2148
(lp2149
Vesp_log_early_timestamp
p2150
atp2151
a(L1641201884L
L0L
(lp2152
(lp2153
tp2154
a(L2258688482L
L0L
(lp2155
(lp2156
tp2157
a(L3360570486L
L0L
(lp2158
(lp2159
tp2160
atp2161
sI1074236568
(Vesp_rom_install_channel_putc
p2162
(lp2163
(L487865505L
L0L
(lp2164
(lp2165
tp2166
a(L3020187L
L0L
(lp2167
(lp2168
tp2169
a(L3360570486L
L0L
(lp2170
(lp2171
tp2172
a(L2197556747L
L0L
(lp2173
(lp2174
tp2175
a(L4123957120L
L0L
(lp2176
(lp2177
tp2178
atp2179
sI1074239136
(Vlog_invalid_app_partition
p2180
(lp2181
(L4127470732L
L0L
(lp2182
(lp2183
tp2184
a(L3028464L
L0L
(lp2185
(lp2186
tp2187
a(L4236702502L
L3785322319L
(lp2188
(lp2189
Vesp_log_early_timestamp
p2190
atp2191
a(L44113432L
L0L
(lp2192
(lp2193
tp2194
a(L3360570486L
L0L
(lp2195
(lp2196
tp2197
a(L1770520412L
L3785322319L
(lp2198
(lp2199
Vesp_log_early_timestamp
p2200
atp2201
a(L1466024763L
L3785322319L
(lp2202
(lp2203
Vesp_log_early_timestamp
p2204
atp2205
atp2206
sI1074238624
(Vload_image
p2207
(lp2208
(L1133981448L
L1880226080L
(lp2209
(lp2210
Vbootloader_random_disable
p2211
aVbootloader_ana_clock_glitch_reset_config
p2212
atp2213
a(L2118498116L
L0L
(lp2214
(lp2215
tp2216
a(L106L
L0L
(lp2217
(lp2218
tp2219
a(L3993983487L
L0L
(lp2220
(lp2221
tp2222
a(L2010554219L
L0L
(lp2223
(lp2224
tp2225
a(L3268103L
L0L
(lp2226
(lp2227
tp2228
a(L251954978L
L3785322319L
(lp2229
(lp2230
Vbootloader_console_deinit
p2231
atp2232
a(L500568817L
L0L
(lp2233
(lp2234
tp2235
a(L2902417580L
L0L
(lp2236
(lp2237
tp2238
a(L3978303710L
L3785322319L
(lp2239
(lp2240
Vesp_log_early_timestamp
p2241
atp2242
a(L2663513213L
L0L
(lp2243
(lp2244
tp2245
a(L2605789736L
L0L
(lp2246
(lp2247
tp2248
a(L2902417580L
L0L
(lp2249
(lp2250
tp2251
a(L85534451L
L3785322319L
(lp2252
(lp2253
Vesp_log_early_timestamp
p2254
atp2255
a(L902182917L
L0L
(lp2256
(lp2257
tp2258
a(L2105494657L
L0L
(lp2259
(lp2260
tp2261
atp2262
sI1074243744
(Vesp_rom_spiflash_write_encrypted
p2263
(lp2264
(L2107077087L
L0L
(lp2265
(lp2266
tp2267
a(L3669269408L
L0L
(lp2268
(lp2269
tp2270
a(L97689L
L0L
(lp2271
(lp2272
tp2273
a(L3061232074L
L0L
(lp2274
(lp2275
tp2276
a(L1152041096L
L0L
(lp2277
(lp2278
tp2279
a(L2903314395L
L3785322319L
(lp2280
(lp2281
Vesp_rom_spiflash_write
p2282
atp2283
a(L152474437L
L0L
(lp2284
(lp2285
tp2286
a(L735741265L
L0L
(lp2287
(lp2288
tp2289
atp2290
sI1074246048
(Vrtc_clk_32k_enable
p2291
(lp2292
(L753387299L
L0L
(lp2293
(lp2294
tp2295
a(L1067050752L
L3785322319L
(lp2296
(lp2297
Vrtc_clk_32k_enable_common
p2298
atp2299
a(L3360570486L
L0L
(lp2300
(lp2301
tp2302
a(L428012303L
L0L
(lp2303
(lp2304
tp2305
atp2306
sI1074242732
(Vbootloader_load_image
p2307
(lp2308
(L1155870502L
L3785322319L
(lp2309
(lp2310
Vimage_load
p2311
atp2312
atp2313
sI1074235560
(Vbootloader_flash_read_sfdp
p2314
(lp2315
(L711701400L
L0L
(lp2316
(lp2317
tp2318
a(L1622122993L
L3785322319L
(lp2319
(lp2320
V__assert_func
p2321
atp2322
a(L3704332455L
L3785322319L
(lp2323
(lp2324
Vbootloader_flash_execute_command_common
p2325
atp2326
atp2327
sI1074240692
(Vprocess_checksum
p2328
(lp2329
(L1985325516L
L0L
(lp2330
(lp2331
tp2332
a(L2910371777L
L0L
(lp2333
(lp2334
tp2335
a(L1649277394L
L0L
(lp2336
(lp2337
tp2338
a(L2910371777L
L0L
(lp2339
(lp2340
tp2341
a(L2902417580L
L0L
(lp2342
(lp2343
tp2344
a(L1644002876L
L3785322319L
(lp2345
(lp2346
Vbootloader_sha256_data
p2347
atp2348
a(L3612796056L
L0L
(lp2349
(lp2350
tp2351
a(L1811888222L
L3785322319L
(lp2352
(lp2353
Vbootloader_flash_read
p2354
atp2355
a(L3126521138L
L0L
(lp2356
(lp2357
tp2358
a(L4070287239L
L0L
(lp2359
(lp2360
tp2361
a(L1262757130L
L3785322319L
(lp2362
(lp2363
Vesp_log_early_timestamp
p2364
atp2365
atp2366
sI1074243252
(Vesp_rom_spiflash_program_page_internal
p2367
(lp2368
(L2569069283L
L0L
(lp2369
(lp2370
tp2371
a(L2258688483L
L0L
(lp2372
(lp2373
tp2374
a(L3360570486L
L0L
(lp2375
(lp2376
tp2377
a(L1325443012L
L0L
(lp2378
(lp2379
tp2380
a(L4235661475L
L3785322319L
(lp2381
(lp2382
Vesp_rom_spiflash_wait_idle
p2383
atp2384
a(L1299866312L
L0L
(lp2385
(lp2386
tp2387
a(L3212356251L
L3785322319L
(lp2388
(lp2389
Vesp_rom_spiflash_enable_write
p2390
atp2391
a(L923731532L
L0L
(lp2392
(lp2393
tp2394
a(L1408302709L
L0L
(lp2395
(lp2396
tp2397
a(L2953702749L
L0L
(lp2398
(lp2399
tp2400
a(L2989032L
L0L
(lp2401
(lp2402
tp2403
a(L1965622133L
L0L
(lp2404
(lp2405
tp2406
a(L3553979267L
L0L
(lp2407
(lp2408
tp2409
a(L1958113242L
L0L
(lp2410
(lp2411
tp2412
a(L106L
L0L
(lp2413
(lp2414
tp2415
a(L4283177684L
L0L
(lp2416
(lp2417
tp2418
a(L1405253496L
L0L
(lp2419
(lp2420
tp2421
a(L1008982908L
L0L
(lp2422
(lp2423
tp2424
a(L1933954923L
L0L
(lp2425
(lp2426
tp2427
a(L3886319556L
L0L
(lp2428
(lp2429
tp2430
a(L2767679583L
L0L
(lp2431
(lp2432
tp2433
atp2434
sI1074270396
(Vrtc_vddsdio_set_config
p2435
(lp2436
(L3192244175L
L0L
(lp2437
(lp2438
tp2439
atp2440
sI1074268080
(Vbootloader_init
p2441
(lp2442
(L3160208533L
L3785322319L
(lp2443
(lp2444
Vbootloader_init_mem
p2445
atp2446
a(L2496550927L
L0L
(lp2447
(lp2448
tp2449
a(L2027378118L
L3785322319L
(lp2450
(lp2451
V__assert_func
p2452
atp2453
a(L2845501776L
L0L
(lp2454
(lp2455
tp2456
a(L3771730749L
L0L
(lp2457
(lp2458
tp2459
a(L2926278337L
L0L
(lp2460
(lp2461
tp2462
a(L1676258174L
L0L
(lp2463
(lp2464
tp2465
a(L3027019L
L0L
(lp2466
(lp2467
tp2468
a(L2165555586L
L0L
(lp2469
(lp2470
tp2471
a(L318694882L
L1832448559L
(lp2472
(lp2473
Vbootloader_clear_bss_section
p2474
aVbootloader_common_vddsdio_configure
p2475
aVbootloader_clock_get_rated_freq_mhz
p2476
atp2477
a(L3987130017L
L1157885199L
(lp2478
(lp2479
Vbootloader_clock_configure
p2480
aVbootloader_console_init
p2481
aVbootloader_print_banner
p2482
aVbootloader_flash_update_id
p2483
aVbootloader_flash_xmc_startup
p2484
atp2485
a(L45609612L
L3785322319L
(lp2486
(lp2487
Vesp_log_early_timestamp
p2488
atp2489
a(L4002472296L
L3785322319L
(lp2490
(lp2491
Vesp_log_early_timestamp
p2492
atp2493
a(L3360570486L
L0L
(lp2494
(lp2495
tp2496
a(L2444883382L
L3785322319L
(lp2497
(lp2498
Vbootloader_read_bootloader_header
p2499
atp2500
a(L2444883382L
L3785322319L
(lp2501
(lp2502
Vbootloader_check_bootloader_validity
p2503
atp2504
a(L939260919L
L2485746240L
(lp2505
(lp2506
Vbootloader_flash_gpio_config
p2507
aVbootloader_flash_dummy_config
p2508
aVbootloader_flash_cs_timing_config
p2509
aVbootloader_flash_unlock
p2510
atp2511
a(L561173650L
L0L
(lp2512
(lp2513
tp2514
a(L1396936407L
L3785322319L
(lp2515
(lp2516
Vbootloader_enable_wp
p2517
atp2518
a(L4068889928L
L0L
(lp2519
(lp2520
tp2521
a(L2510701377L
L3785322319L
(lp2522
(lp2523
Vesp_log_early_timestamp
p2524
atp2525
a(L3433272205L
L0L
(lp2526
(lp2527
tp2528
a(L569753936L
L0L
(lp2529
(lp2530
tp2531
a(L2902417580L
L0L
(lp2532
(lp2533
tp2534
a(L1944713791L
L1880226080L
(lp2535
(lp2536
Vwdt_reset_info_dump
p2537
aVwdt_reset_info_dump
p2538
atp2539
a(L546999598L
L1880226080L
(lp2540
(lp2541
Vbootloader_config_wdt
p2542
aVbootloader_enable_random
p2543
atp2544
a(L1599835139L
L3785322319L
(lp2545
(lp2546
Vesp_log_early_timestamp
p2547
atp2548
atp2549
sI1074269616
(Vrtc_clk_xtal_freq_estimate
p2550
(lp2551
(L2516060585L
L1880226080L
(lp2552
(lp2553
Vrtc_clk_8m_enabled
p2554
aVrtc_clk_8md256_enabled
p2555
atp2556
a(L967485502L
L3785322319L
(lp2557
(lp2558
Vrtc_clk_8m_enable
p2559
atp2560
a(L4165968075L
L3785322319L
(lp2561
(lp2562
Vrtc_clk_cal_ratio
p2563
atp2564
a(L3216310415L
L0L
(lp2565
(lp2566
tp2567
a(L3360570486L
L0L
(lp2568
(lp2569
tp2570
a(L2238865930L
L3785322319L
(lp2571
(lp2572
Vesp_log_early_timestamp
p2573
atp2574
atp2575
sI1074242748
(Vbootloader_load_image_no_verify
p2576
(lp2577
(L3412781509L
L3785322319L
(lp2578
(lp2579
Vimage_load
p2580
atp2581
atp2582
sI1074236604
(Vesp_rom_uart_tx_wait_idle
p2583
(lp2584
(L3332599130L
L0L
(lp2585
(lp2586
tp2587
a(L1301079727L
L0L
(lp2588
(lp2589
tp2590
a(L3597746521L
L0L
(lp2591
(lp2592
tp2593
a(L3694491048L
L0L
(lp2594
(lp2595
tp2596
a(L3055926844L
L0L
(lp2597
(lp2598
tp2599
a(L3360570486L
L0L
(lp2600
(lp2601
tp2602
atp2603
sI1074236860
(Vefuse_hal_get_minor_chip_version
p2604
(lp2605
(L484689204L
L0L
(lp2606
(lp2607
tp2608
atp2609
sI1074237380
(Vbootloader_common_ota_select_invalid
p2610
(lp2611
(L4027567199L
L0L
(lp2612
(lp2613
tp2614
a(L3397985842L
L0L
(lp2615
(lp2616
tp2617
a(L2258867228L
L0L
(lp2618
(lp2619
tp2620
a(L3785235668L
L0L
(lp2621
(lp2622
tp2623
atp2624
sI1074246848
(Vrtc_clk_xtal_freq_get
p2625
(lp2626
(L3482129489L
L0L
(lp2627
(lp2628
tp2629
a(L2847936993L
L0L
(lp2630
(lp2631
tp2632
a(L4011618995L
L0L
(lp2633
(lp2634
tp2635
a(L3360570486L
L0L
(lp2636
(lp2637
tp2638
atp2639
sI1074247104
(Vrtc_clk_xtal_freq_update
p2640
(lp2641
(L845005774L
L0L
(lp2642
(lp2643
tp2644
a(L3509357017L
L0L
(lp2645
(lp2646
tp2647
a(L3020103887L
L0L
(lp2648
(lp2649
tp2650
atp2651
sI1074247616
(Vrtc_clk_cal_internal
p2652
(lp2653
(L2753647483L
L0L
(lp2654
(lp2655
tp2656
a(L3145636323L
L3785322319L
(lp2657
(lp2658
V__assert_func
p2659
atp2660
a(L1738030298L
L0L
(lp2661
(lp2662
tp2663
a(L3017366L
L0L
(lp2664
(lp2665
tp2666
a(L2781091364L
L0L
(lp2667
(lp2668
tp2669
a(L4169864463L
L1880226080L
(lp2670
(lp2671
Vrtc_clk_8m_enabled
p2672
aVrtc_clk_8md256_enabled
p2673
atp2674
a(L819626462L
L3785322319L
(lp2675
(lp2676
Vrtc_clk_8m_enable
p2677
atp2678
a(L3690916225L
L0L
(lp2679
(lp2680
tp2681
a(L3502850147L
L0L
(lp2682
(lp2683
tp2684
a(L97689L
L0L
(lp2685
(lp2686
tp2687
a(L2473147788L
L0L
(lp2688
(lp2689
tp2690
a(L3028464L
L0L
(lp2691
(lp2692
tp2693
a(L3028481L
L0L
(lp2694
(lp2695
tp2696
a(L3450259573L
L0L
(lp2697
(lp2698
tp2699
a(L3819009899L
L3785322319L
(lp2700
(lp2701
Vrtc_clk_xtal_freq_get
p2702
atp2703
a(L2780079961L
L0L
(lp2704
(lp2705
tp2706
a(L2771086377L
L0L
(lp2707
(lp2708
tp2709
a(L231458879L
L3785322319L
(lp2710
(lp2711
Vesp_log_early_timestamp
p2712
atp2713
a(L3360570486L
L0L
(lp2714
(lp2715
tp2716
a(L2462988292L
L0L
(lp2717
(lp2718
tp2719
a(L2312538724L
L0L
(lp2720
(lp2721
tp2722
a(L3028481L
L0L
(lp2723
(lp2724
tp2725
a(L2459281154L
L0L
(lp2726
(lp2727
tp2728
a(L755155573L
L3785322319L
(lp2729
(lp2730
Vrtc_clk_8m_enable
p2731
atp2732
a(L3631005548L
L0L
(lp2733
(lp2734
tp2735
a(L1404281093L
L0L
(lp2736
(lp2737
tp2738
a(L3352263364L
L0L
(lp2739
(lp2740
tp2741
atp2742
sI1074269376
(Vbootloader_check_bootloader_validity
p2743
(lp2744
(L3520014334L
L1880226080L
(lp2745
(lp2746
Vefuse_hal_chip_revision
p2747
aVbootloader_common_check_chip_validity
p2748
atp2749
atp2750
sI1074242764
(Vesp_partition_table_verify
p2751
(lp2752
(L1518656766L
L0L
(lp2753
(lp2754
tp2755
a(L395823939L
L0L
(lp2756
(lp2757
tp2758
a(L4287435191L
L0L
(lp2759
(lp2760
tp2761
a(L2910371777L
L0L
(lp2762
(lp2763
tp2764
a(L2810785767L
L0L
(lp2765
(lp2766
tp2767
a(L3360570486L
L0L
(lp2768
(lp2769
tp2770
a(L2334946637L
L0L
(lp2771
(lp2772
tp2773
a(L2478753082L
L0L
(lp2774
(lp2775
tp2776
a(L3020204L
L0L
(lp2777
(lp2778
tp2779
a(L2496580172L
L3785322319L
(lp2780
(lp2781
Vesp_log_early_timestamp
p2782
atp2783
a(L2935575686L
L3785322319L
(lp2784
(lp2785
Vesp_log_early_timestamp
p2786
atp2787
a(L3139225715L
L0L
(lp2788
(lp2789
tp2790
a(L2902417580L
L0L
(lp2791
(lp2792
tp2793
a(L3020204L
L0L
(lp2794
(lp2795
tp2796
a(L1327460779L
L3785322319L
(lp2797
(lp2798
Vesp_log_early_timestamp
p2799
atp2800
a(L1367516498L
L0L
(lp2801
(lp2802
tp2803
a(L2118177993L
L0L
(lp2804
(lp2805
tp2806
a(L2902417580L
L0L
(lp2807
(lp2808
tp2809
a(L2496578715L
L3785322319L
(lp2810
(lp2811
Vesp_log_early_timestamp
p2812
atp2813
a(L1613213999L
L0L
(lp2814
(lp2815
tp2816
a(L1167861556L
L0L
(lp2817
(lp2818
tp2819
a(L3260980605L
L0L
(lp2820
(lp2821
tp2822
a(L2910371777L
L0L
(lp2823
(lp2824
tp2825
a(L1235012932L
L0L
(lp2826
(lp2827
tp2828
a(L3125735450L
L3785322319L
(lp2829
(lp2830
Vesp_log_early_timestamp
p2831
atp2832
atp2833
sI1074236876
(Vis_xmc_chip_strict
p2834
(lp2835
(L1286841609L
L0L
(lp2836
(lp2837
tp2838
a(L2234016759L
L0L
(lp2839
(lp2840
tp2841
a(L1069027148L
L0L
(lp2842
(lp2843
tp2844
a(L3021749L
L0L
(lp2845
(lp2846
tp2847
a(L1900148749L
L0L
(lp2848
(lp2849
tp2850
a(L1936875721L
L0L
(lp2851
(lp2852
tp2853
a(L3356166509L
L0L
(lp2854
(lp2855
tp2856
a(L1937769451L
L0L
(lp2857
(lp2858
tp2859
a(L2137658907L
L0L
(lp2860
(lp2861
tp2862
a(L4265949734L
L0L
(lp2863
(lp2864
tp2865
a(L3360570486L
L0L
(lp2866
(lp2867
tp2868
atp2869
sI1074267844
(Vbootloader_common_get_reset_reason
p2870
(lp2871
(L2221583904L
L0L
(lp2872
(lp2873
tp2874
atp2875
sI1074245576
(Vwdt_hal_set_flashboot_en
p2876
(lp2877
(L2375320464L
L0L
(lp2878
(lp2879
tp2880
a(L2716561907L
L0L
(lp2881
(lp2882
tp2883
a(L3360570486L
L0L
(lp2884
(lp2885
tp2886
a(L174450796L
L0L
(lp2887
(lp2888
tp2889
atp2890
sI1074236372
(Vbootloader_flash_dummy_config
p2891
(lp2892
(L3703312895L
L0L
(lp2893
(lp2894
tp2895
a(L2761717557L
L0L
(lp2896
(lp2897
tp2898
a(L2747508079L
L0L
(lp2899
(lp2900
tp2901
a(L3713248905L
L0L
(lp2902
(lp2903
tp2904
a(L1491210540L
L0L
(lp2905
(lp2906
tp2907
a(L3081491917L
L0L
(lp2908
(lp2909
tp2910
a(L1610443405L
L0L
(lp2911
(lp2912
tp2913
a(L2108110621L
L0L
(lp2914
(lp2915
tp2916
a(L1449490182L
L0L
(lp2917
(lp2918
tp2919
a(L1298875775L
L0L
(lp2920
(lp2921
tp2922
a(L3880393601L
L0L
(lp2923
(lp2924
tp2925
a(L505576675L
L0L
(lp2926
(lp2927
tp2928
a(L1610443436L
L0L
(lp2929
(lp2930
tp2931
atp2932
sI1074268636
(Vbootloader_clock_configure
p2933
(lp2934
(L1154001737L
L1880226080L
(lp2935
(lp2936
Vesp_rom_uart_tx_wait_idle
p2937
aVefuse_hal_chip_revision
p2938
atp2939
a(L1398542019L
L0L
(lp2940
(lp2941
tp2942
a(L647712444L
L3785322319L
(lp2943
(lp2944
Vrtc_clk_apb_freq_get
p2945
atp2946
a(L651072158L
L1832448559L
(lp2947
(lp2948
Vrtc_clk_slow_freq_get
p2949
aVrtc_clk_fast_freq_get
p2950
aVrtc_clk_init
p2951
atp2952
a(L1704148914L
L0L
(lp2953
(lp2954
tp2955
a(L883406775L
L0L
(lp2956
(lp2957
tp2958
a(L106L
L0L
(lp2959
(lp2960
tp2961
atp2962
sI1074269404
(Vbootloader_config_wdt
p2963
(lp2964
(L2520980905L
L505859776L
(lp2965
(lp2966
Vwdt_hal_write_protect_disable
p2967
aVwdt_hal_set_flashboot_en
p2968
aVwdt_hal_write_protect_enable
p2969
aVwdt_hal_init
p2970
aVrtc_clk_slow_freq_get_hz
p2971
aVwdt_hal_write_protect_disable
p2972
aVwdt_hal_config_stage
p2973
aVwdt_hal_enable
p2974
aVwdt_hal_write_protect_enable
p2975
aVwdt_hal_write_protect_disable
p2976
aVwdt_hal_set_flashboot_en
p2977
aVwdt_hal_write_protect_enable
p2978
atp2979
atp2980
sI1074246352
(Vrtc_clk_slow_freq_get
p2981
(lp2982
(L290039985L
L0L
(lp2983
(lp2984
tp2985
atp2986
sI1074246108
(Vrtc_clk_8m_enable
p2987
(lp2988
(L2898777230L
L0L
(lp2989
(lp2990
tp2991
a(L148031710L
L0L
(lp2992
(lp2993
tp2994
a(L2151320156L
L0L
(lp2995
(lp2996
tp2997
a(L2453986175L
L0L
(lp2998
(lp2999
tp3000
a(L3360570486L
L0L
(lp3001
(lp3002
tp3003
a(L1318267208L
L0L
(lp3004
(lp3005
tp3006
a(L2367232051L
L0L
(lp3007
(lp3008
tp3009
atp3010
sI1074242268
(Vimage_load
p3011
(lp3012
(L745499722L
L0L
(lp3013
(lp3014
tp3015
a(L1899869538L
L0L
(lp3016
(lp3017
tp3018
a(L9219888L
L0L
(lp3019
(lp3020
tp3021
a(L2634439313L
L0L
(lp3022
(lp3023
tp3024
a(L3020187L
L0L
(lp3025
(lp3026
tp3027
a(L2223461871L
L3785322319L
(lp3028
(lp3029
Vesp_log_early_timestamp
p3030
atp3031
a(L2068384292L
L0L
(lp3032
(lp3033
tp3034
a(L1968553470L
L3785322319L
(lp3035
(lp3036
Vbootloader_sha256_finish
p3037
atp3038
a(L2495752549L
L0L
(lp3039
(lp3040
tp3041
a(L3271848319L
L0L
(lp3042
(lp3043
tp3044
a(L1182930974L
L0L
(lp3045
(lp3046
tp3047
a(L3678851644L
L3785322319L
(lp3048
(lp3049
Vprocess_image_header
p3050
atp3051
a(L1341816907L
L0L
(lp3052
(lp3053
tp3054
a(L909494482L
L0L
(lp3055
(lp3056
tp3057
a(L1028073566L
L3785322319L
(lp3058
(lp3059
Vprocess_segments
p3060
atp3061
a(L3803885910L
L0L
(lp3062
(lp3063
tp3064
a(L94425498L
L3785322319L
(lp3065
(lp3066
Vesp_cpu_in_ocd_debug_mode
p3067
atp3068
a(L454195650L
L3785322319L
(lp3069
(lp3070
Vprocess_checksum
p3071
atp3072
a(L1651117269L
L3785322319L
(lp3073
(lp3074
Vprocess_appended_hash
p3075
atp3076
a(L533710513L
L0L
(lp3077
(lp3078
tp3079
a(L505081362L
L0L
(lp3080
(lp3081
tp3082
a(L3212356251L
L3785322319L
(lp3083
(lp3084
Vesp_cpu_in_ocd_debug_mode
p3085
atp3086
a(L1081864355L
L1880226080L
(lp3087
(lp3088
Vbootloader_sha256_finish
p3089
aVbootloader_debug_buffer
p3090
atp3091
a(L111594320L
L1880226080L
(lp3092
(lp3093
Vesp_log_early_timestamp
p3094
aVbootloader_debug_buffer
p3095
atp3096
a(L978077504L
L0L
(lp3097
(lp3098
tp3099
a(L2068384292L
L0L
(lp3100
(lp3101
tp3102
a(L858449684L
L3785322319L
(lp3103
(lp3104
Vbootloader_sha256_finish
p3105
atp3106
a(L3028481L
L0L
(lp3107
(lp3108
tp3109
a(L93674324L
L0L
(lp3110
(lp3111
tp3112
a(L269822247L
L0L
(lp3113
(lp3114
tp3115
a(L2429164518L
L0L
(lp3116
(lp3117
tp3118
a(L3553619191L
L0L
(lp3119
(lp3120
tp3121
a(L85798113L
L0L
(lp3122
(lp3123
tp3124
a(L464010095L
L0L
(lp3125
(lp3126
tp3127
a(L835563811L
L3785322319L
(lp3128
(lp3129
Vshould_load
p3130
atp3131
a(L1358360603L
L0L
(lp3132
(lp3133
tp3134
a(L4224160879L
L0L
(lp3135
(lp3136
tp3137
a(L22884489L
L0L
(lp3138
(lp3139
tp3140
a(L741351569L
L0L
(lp3141
(lp3142
tp3143
a(L434644776L
L0L
(lp3144
(lp3145
tp3146
a(L106L
L0L
(lp3147
(lp3148
tp3149
a(L709419389L
L0L
(lp3150
(lp3151
tp3152
a(L1299866312L
L0L
(lp3153
(lp3154
tp3155
atp3156
sI1074237660
(Vbootloader_munmap
p3157
(lp3158
(L1713649238L
L0L
(lp3159
(lp3160
tp3161
a(L847703320L
L0L
(lp3162
(lp3163
tp3164
a(L3360570486L
L0L
(lp3165
(lp3166
tp3167
atp3168
sI1074235612
(Vbootloader_read_flash_id
p3169
(lp3170
(L3925322170L
L3785322319L
(lp3171
(lp3172
Vbootloader_execute_flash_command
p3173
atp3174
atp3175
sI1074267860
(Vwdt_reset_info_dump
p3176
(lp3177
(L4037466985L
L0L
(lp3178
(lp3179
tp3180
a(L826419141L
L0L
(lp3181
(lp3182
tp3183
a(L527117834L
L0L
(lp3184
(lp3185
tp3186
a(L1103285333L
L0L
(lp3187
(lp3188
tp3189
a(L897464656L
L3785322319L
(lp3190
(lp3191
Vesp_log_early_timestamp
p3192
atp3193
a(L1020249293L
L0L
(lp3194
(lp3195
tp3196
a(L4142801364L
L3785322319L
(lp3197
(lp3198
Vesp_log_early_timestamp
p3199
atp3200
a(L2899013701L
L0L
(lp3201
(lp3202
tp3203
atp3204
sI1074244568
(Vwdt_hal_init
p3205
(lp3206
(L1112014257L
L0L
(lp3207
(lp3208
tp3209
a(L225989897L
L0L
(lp3210
(lp3211
tp3212
a(L2805933682L
L0L
(lp3213
(lp3214
tp3215
a(L4140311368L
L0L
(lp3216
(lp3217
tp3218
a(L1668176123L
L0L
(lp3219
(lp3220
tp3221
a(L3360570486L
L0L
(lp3222
(lp3223
tp3224
a(L3702001972L
L0L
(lp3225
(lp3226
tp3227
atp3228
sI1074239460
(Vbootloader_utility_get_selected_boot_partition
p3229
(lp3230
(L2803238495L
L0L
(lp3231
(lp3232
tp3233
a(L1299867982L
L0L
(lp3234
(lp3235
tp3236
a(L3360570486L
L0L
(lp3237
(lp3238
tp3239
a(L3601327950L
L0L
(lp3240
(lp3241
tp3242
a(L896990541L
L3785322319L
(lp3243
(lp3244
Vesp_log_early_timestamp
p3245
atp3246
a(L282377750L
L0L
(lp3247
(lp3248
tp3249
a(L1375577398L
L3785322319L
(lp3250
(lp3251
Vbootloader_mmap
p3252
atp3253
a(L3259730982L
L3785322319L
(lp3254
(lp3255
Vesp_log_early_timestamp
p3256
atp3257
a(L3892599533L
L1880226080L
(lp3258
(lp3259
Vbootloader_munmap
p3260
aVbootloader_common_ota_select_invalid
p3261
atp3262
a(L1103573946L
L0L
(lp3263
(lp3264
tp3265
a(L1876827316L
L3785322319L
(lp3266
(lp3267
Vbootloader_common_get_active_otadata
p3268
atp3269
a(L569346373L
L0L
(lp3270
(lp3271
tp3272
a(L3111084448L
L3785322319L
(lp3273
(lp3274
Vbootloader_common_ota_select_invalid
p3275
atp3276
a(L45272527L
L0L
(lp3277
(lp3278
tp3279
a(L847230968L
L0L
(lp3280
(lp3281
tp3282
a(L505081345L
L0L
(lp3283
(lp3284
tp3285
a(L919052234L
L3785322319L
(lp3286
(lp3287
Vbootloader_common_ota_select_crc
p3288
atp3289
a(L2287680455L
L0L
(lp3290
(lp3291
tp3292
a(L3542558037L
L3785322319L
(lp3293
(lp3294
Vbootloader_common_ota_select_crc
p3295
atp3296
a(L1299866312L
L0L
(lp3297
(lp3298
tp3299
a(L653279817L
L0L
(lp3300
(lp3301
tp3302
a(L2591032578L
L3785322319L
(lp3303
(lp3304
Vesp_log_early_timestamp
p3305
atp3306
a(L1367516498L
L0L
(lp3307
(lp3308
tp3309
a(L4142613436L
L3785322319L
(lp3310
(lp3311
Vesp_log_early_timestamp
p3312
atp3313
atp3314
sI1074237408
(Vbootloader_common_select_otadata
p3315
(lp3316
(L2342662536L
L0L
(lp3317
(lp3318
tp3319
a(L3806783650L
L0L
(lp3320
(lp3321
tp3322
a(L1674928252L
L0L
(lp3323
(lp3324
tp3325
a(L251571983L
L0L
(lp3326
(lp3327
tp3328
a(L3360570486L
L0L
(lp3329
(lp3330
tp3331
a(L2045232488L
L0L
(lp3332
(lp3333
tp3334
a(L189726519L
L0L
(lp3335
(lp3336
tp3337
a(L3095066987L
L0L
(lp3338
(lp3339
tp3340
a(L3592023188L
L0L
(lp3341
(lp3342
tp3343
a(L1641201884L
L0L
(lp3344
(lp3345
tp3346
atp3347
sI1074238176
(Vbootloader_enable_wp
p3348
(lp3349
(L1117825804L
L3785322319L
(lp3350
(lp3351
Vbootloader_execute_flash_command
p3352
atp3353
atp3354
sI1074246368
(Vrtc_clk_slow_freq_get_hz
p3355
(lp3356
(L3070887850L
L0L
(lp3357
(lp3358
tp3359
a(L2252349731L
L0L
(lp3360
(lp3361
tp3362
a(L3360570486L
L0L
(lp3363
(lp3364
tp3365
atp3366
sI1074243052
(Vesp_rom_spiflash_read_status
p3367
(lp3368
(L3562601385L
L0L
(lp3369
(lp3370
tp3371
a(L1182811815L
L0L
(lp3372
(lp3373
tp3374
a(L3197507964L
L0L
(lp3375
(lp3376
tp3377
a(L106L
L0L
(lp3378
(lp3379
tp3380
a(L3098614577L
L0L
(lp3381
(lp3382
tp3383
a(L4004659960L
L0L
(lp3384
(lp3385
tp3386
a(L2123059967L
L0L
(lp3387
(lp3388
tp3389
a(L1973734210L
L0L
(lp3390
(lp3391
tp3392
a(L2392720019L
L0L
(lp3393
(lp3394
tp3395
atp3396
sI1074247148
(Vrtc_clk_apb_freq_update
p3397
(lp3398
(L3106641879L
L0L
(lp3399
(lp3400
tp3401
atp3402
sI1074246888
(Vrtc_clk_cpu_freq_mhz_to_config
p3403
(lp3404
(L2601984125L
L3785322319L
(lp3405
(lp3406
Vrtc_clk_xtal_freq_get
p3407
atp3408
a(L2089656409L
L0L
(lp3409
(lp3410
tp3411
a(L3814337874L
L0L
(lp3412
(lp3413
tp3414
a(L3126521138L
L0L
(lp3415
(lp3416
tp3417
a(L2762074623L
L0L
(lp3418
(lp3419
tp3420
a(L1541996779L
L0L
(lp3421
(lp3422
tp3423
a(L2916936348L
L0L
(lp3424
(lp3425
tp3426
a(L1555485793L
L0L
(lp3427
(lp3428
tp3429
a(L2258897023L
L0L
(lp3430
(lp3431
tp3432
a(L1947499251L
L0L
(lp3433
(lp3434
tp3435
a(L1306331021L
L0L
(lp3436
(lp3437
tp3438
atp3439
sI1074243572
(Vesp_rom_spiflash_write
p3440
(lp3441
(L2788606060L
L0L
(lp3442
(lp3443
tp3444
a(L2258688483L
L0L
(lp3445
(lp3446
tp3447
a(L3360570486L
L0L
(lp3448
(lp3449
tp3450
a(L1590344338L
L0L
(lp3451
(lp3452
tp3453
a(L3106685987L
L0L
(lp3454
(lp3455
tp3456
a(L4249336406L
L3785322319L
(lp3457
(lp3458
Vesp_rom_spiflash_program_page_internal
p3459
atp3460
a(L1915738254L
L3785322319L
(lp3461
(lp3462
Vesp_rom_spiflash_program_page_internal
p3463
atp3464
a(L663507325L
L0L
(lp3465
(lp3466
tp3467
a(L2392967593L
L0L
(lp3468
(lp3469
tp3470
a(L564470687L
L0L
(lp3471
(lp3472
tp3473
a(L154459701L
L3785322319L
(lp3474
(lp3475
Vesp_rom_spiflash_program_page_internal
p3476
atp3477
a(L2079643754L
L0L
(lp3478
(lp3479
tp3480
atp3481
sI1074239220
(Vtry_load_partition
p3482
(lp3483
(L2950885718L
L0L
(lp3484
(lp3485
tp3486
a(L984595082L
L3785322319L
(lp3487
(lp3488
Vbootloader_load_image
p3489
atp3490
a(L3871473710L
L0L
(lp3491
(lp3492
tp3493
atp3494
sI1074238196
(Vbootloader_mmap_get_free_pages
p3495
(lp3496
(L1496516875L
L0L
(lp3497
(lp3498
tp3499
atp3500
sI1074239728
(Vbootloader_utility_load_boot_image_from_deep_sleep
p3501
(lp3502
(L1668156591L
L0L
(lp3503
(lp3504
tp3505
a(L3212347974L
L3785322319L
(lp3506
(lp3507
Vbootloader_common_get_rtc_retain_mem_partition
p3508
atp3509
a(L392176478L
L3785322319L
(lp3510
(lp3511
Vbootloader_load_image_no_verify
p3512
atp3513
a(L4017103105L
L1880226080L
(lp3514
(lp3515
Vbootloader_common_update_rtc_retain_mem
p3516
aVload_image
p3517
atp3518
a(L1503737066L
L3785322319L
(lp3519
(lp3520
Vesp_log_early_timestamp
p3521
atp3522
a(L3360570486L
L0L
(lp3523
(lp3524
tp3525
atp3526
sI1074238204
(Vbootloader_fill_random
p3527
(lp3528
(L3026789978L
L0L
(lp3529
(lp3530
tp3531
a(L789132038L
L0L
(lp3532
(lp3533
tp3534
a(L97689L
L0L
(lp3535
(lp3536
tp3537
a(L3360570486L
L0L
(lp3538
(lp3539
tp3540
a(L3919318975L
L3785322319L
(lp3541
(lp3542
V__assert_func
p3543
atp3544
a(L2008660626L
L0L
(lp3545
(lp3546
tp3547
a(L3028481L
L0L
(lp3548
(lp3549
tp3550
a(L983138374L
L0L
(lp3551
(lp3552
tp3553
a(L2607138306L
L0L
(lp3554
(lp3555
tp3556
a(L1982128194L
L0L
(lp3557
(lp3558
tp3559
atp3560
sI1074236668
(Vesp_rom_uart_set_clock_baudrate
p3561
(lp3562
(L311247836L
L0L
(lp3563
(lp3564
tp3565
a(L3913645912L
L0L
(lp3566
(lp3567
tp3568
a(L1008980033L
L0L
(lp3569
(lp3570
tp3571
a(L908870448L
L0L
(lp3572
(lp3573
tp3574
a(L2805931415L
L0L
(lp3575
(lp3576
tp3577
a(L2539488080L
L0L
(lp3578
(lp3579
tp3580
atp3581
sI1074241528
(Vshould_load
p3582
(lp3583
(L1801967028L
L0L
(lp3584
(lp3585
tp3586
a(L1182990556L
L0L
(lp3587
(lp3588
tp3589
a(L2357666516L
L0L
(lp3590
(lp3591
tp3592
a(L1298905564L
L0L
(lp3593
(lp3594
tp3595
a(L524505062L
L0L
(lp3596
(lp3597
tp3598
a(L2258897019L
L0L
(lp3599
(lp3600
tp3601
a(L3781799363L
L0L
(lp3602
(lp3603
tp3604
a(L3028464L
L0L
(lp3605
(lp3606
tp3607
a(L2019684840L
L0L
(lp3608
(lp3609
tp3610
a(L469973739L
L0L
(lp3611
(lp3612
tp3613
a(L2477431920L
L0L
(lp3614
(lp3615
tp3616
a(L4185756579L
L0L
(lp3617
(lp3618
tp3619
a(L3458855836L
L0L
(lp3620
(lp3621
tp3622
a(L3126521138L
L0L
(lp3623
(lp3624
tp3625
a(L1305407438L
L0L
(lp3626
(lp3627
tp3628
a(L1305407469L
L0L
(lp3629
(lp3630
tp3631
atp3632
sI1074240504
(Vbootloader_console_deinit
p3633
(lp3634
(L2484007143L
L0L
(lp3635
(lp3636
tp3637
atp3638
sI1074243832
(Vesp_rom_spiflash_read
p3639
(lp3640
(L2525162863L
L0L
(lp3641
(lp3642
tp3643
a(L3304716334L
L0L
(lp3644
(lp3645
tp3646
a(L2860271684L
L0L
(lp3647
(lp3648
tp3649
a(L3017366L
L0L
(lp3650
(lp3651
tp3652
a(L106L
L0L
(lp3653
(lp3654
tp3655
a(L977564564L
L0L
(lp3656
(lp3657
tp3658
a(L106L
L0L
(lp3659
(lp3660
tp3661
a(L2569602722L
L0L
(lp3662
(lp3663
tp3664
a(L3218801697L
L0L
(lp3665
(lp3666
tp3667
a(L3847939361L
L0L
(lp3668
(lp3669
tp3670
a(L1476202770L
L0L
(lp3671
(lp3672
tp3673
a(L106L
L0L
(lp3674
(lp3675
tp3676
a(L1566843549L
L3785322319L
(lp3677
(lp3678
Vesp_rom_spiflash_wait_idle
p3679
atp3680
a(L3021737L
L0L
(lp3681
(lp3682
tp3683
a(L106L
L0L
(lp3684
(lp3685
tp3686
a(L1868280504L
L0L
(lp3687
(lp3688
tp3689
a(L106L
L0L
(lp3690
(lp3691
tp3692
a(L3736482090L
L0L
(lp3693
(lp3694
tp3695
a(L1221163038L
L0L
(lp3696
(lp3697
tp3698
a(L4122060822L
L0L
(lp3699
(lp3700
tp3701
a(L2060772245L
L0L
(lp3702
(lp3703
tp3704
a(L2989032L
L0L
(lp3705
(lp3706
tp3707
a(L3819849625L
L0L
(lp3708
(lp3709
tp3710
a(L2114794916L
L0L
(lp3711
(lp3712
tp3713
a(L4283107510L
L0L
(lp3714
(lp3715
tp3716
a(L3901820428L
L0L
(lp3717
(lp3718
tp3719
a(L1154799270L
L0L
(lp3720
(lp3721
tp3722
a(L1896415737L
L0L
(lp3723
(lp3724
tp3725
a(L1522202953L
L0L
(lp3726
(lp3727
tp3728
a(L2176433552L
L0L
(lp3729
(lp3730
tp3731
a(L2176104492L
L0L
(lp3732
(lp3733
tp3734
a(L2267384310L
L0L
(lp3735
(lp3736
tp3737
a(L2696140277L
L0L
(lp3738
(lp3739
tp3740
a(L2687789892L
L0L
(lp3741
(lp3742
tp3743
a(L1405253496L
L0L
(lp3744
(lp3745
tp3746
a(L127293956L
L0L
(lp3747
(lp3748
tp3749
a(L97689L
L0L
(lp3750
(lp3751
tp3752
a(L2258897019L
L0L
(lp3753
(lp3754
tp3755
a(L4014024819L
L0L
(lp3756
(lp3757
tp3758
a(L3621567083L
L0L
(lp3759
(lp3760
tp3761
atp3762
ssS'functionsdups'
p3763
g11
((lp3764
tp3765
Rp3766
sS'immediatedups'
p3767
g11
((lp3768
tp3769
Rp3770
sS'functiondups'
p3771
g11
((lp3772
tp3773
Rp3774
sS'fuzzy'
p3775
(dp3776
L1536L
I1074240520
sL430153639L
I1074235904
sL1048818438L
I1074267704
sL3121027072L
I1074270236
sL1655084846L
I1074237312
sL2082889262L
I1074240600
sL45806640L
I1074236568
sL570877324L
I1074268080
sL1340445289L
I1074235656
sL3879741902L
I1074241160
sL3538491111L
I1074247176
sL2919016435L
I1074235268
sL3889821517L
I1074239252
sL1540367692L
I1074269616
sL1600634745L
I1074237080
sL2469233929L
I1074240308
sL1792232694L
I1074245768
sL1377559356L
I1074242268
sL3897252859L
I1074239136
sL541189360L
I1074240844
sL1065525808L
I1074236876
sL1766137975L
I1074239220
sL2327783177L
I1074240692
sL1035771659L
I1074237712
sL449860969L
I1074246888
sL1370949492L
I1074239728
sL1415908896L
I1074241648
sL518929064L
I1074238624
sL3210669721L
I1074246048
sL1332800441L
I1074237236
sL2884218272L
I1074267860
sL4160102055L
I1074239784
sL4202185385L
I1074243144
sL2966529024L
I1074246460
sL2453272040L
I1074247616
sL1768086576L
I1074236372
sL4171975289L
I1074243440
sL1565254297L
I1074243744
sL1205407754L
I1074239816
sL2191698036L
I1074269404
sL2474570535L
I1074238204
sL3428965560L
I1074247292
sL502463145L
I1074234736
sL519424169L
I1074248072
sL812946199L
I1074237488
sL737694352L
I1074243252
sL503029138L
I1074243192
sL277788135L
I1074243832
sL3991645697L
I1074268636
sL3556172189L
I1074238992
sL2262558768L
I1074243052
sL424867129L
I1074243572
sL1554975810L
I1074238024
sL3834155367L
I1074241104
sL3791345684L
I1074269536
sL3883282432L
I1074241528
sL4173399607L
I1074242764
sL2726385143L
I1074245156
sL4278077574L
I1074239460
sL1667054119L
I1074240144
sL4191211306L
I1074246976
sL2687107543L
I1074269780
ssb.