ccopy_reg
_reconstructor
p0
(crizzo
RizzoSignature
p1
c__builtin__
object
p2
Ntp3
Rp4
(dp5
S'formal'
p6
(dp7
L2223608971L
I1074270700
sL3519684809L
I1074246176
sL4149167435L
I1074235756
sL276461182L
I1074237968
sL2284044839L
I1074243436
sL1887266168L
I1074239924
sL808269608L
I1074246688
sL2597089482L
I1074236912
sL2911663236L
I1074237632
sL2890361161L
I1074239200
sL863322725L
I1074243816
sL1254973916L
I1074242528
sL1935665484L
I1074267912
sL192953492L
I1074269640
sL2187074889L
I1074239620
sL2226187430L
I1074238268
sL1614503459L
I1074246012
sL163176353L
I1074248284
sL4213015302L
I1074242992
sL343306603L
I1074237460
sL3337254644L
I1074268148
sL3211103558L
I1074236492
sL2028381634L
I1074245748
sL1327790336L
I1074248316
sL3513155648L
I1074241812
sL836519674L
I1074269012
sL3735572878L
I1074270084
sL765674116L
I1074269484
sL3830026594L
I1074247816
sL1010441494L
I1074247132
sL975534345L
I1074269792
sL3621260277L
I1074246596
sL3531248981L
I1074244076
sL421325868L
I1074239248
sL2896295319L
I1074236996
sL502396105L
I1074247860
sL1657843434L
I1074238596
sL2590834774L
I1074270772
sL3203236307L
I1074245400
sL2360383375L
I1074237996
sL1200273099L
I1074239064
sL711588904L
I1074247536
sL1107838538L
I1074267860
sL2505869086L
I1074269920
sL4194771266L
I1074238176
sL3837264381L
I1074243684
sL3238403406L
I1074246528
sL3308004988L
I1074240308
sL908199027L
I1074247348
sL530188238L
I1074237684
sL1585823442L
I1074245888
sL744601145L
I1074235912
sL1725042831L
I1074240708
sL4155733485L
I1074240472
sL1271355812L
I1074235660
sL4166477364L
I1074241268
sL2500245347L
I1074247420
sL804327318L
I1074243296
sL4082028068L
I1074244812
sL1534552346L
I1074240684
sL2688421459L
I1074246612
sL1296682296L
I1074245952
sL2034515509L
I1074267928
sL2091577816L
I1074241324
sL2221717791L
I1074243988
sL256759610L
I1074236688
sL1977071264L
I1074246352
sL2057429215L
I1074246480
sL4167752981L
I1074268828
sL3307282855L
I1074238148
sL2039303434L
I1074237100
sL3499630867L
I1074236788
sL612086517L
I1074235368
sL3412901885L
I1074247392
sL1284626181L
I1074269568
sL4087607606L
I1074269840
sL2320225495L
I1074240288
sL703247988L
I1074237156
sL2846978095L
I1074243388
sL2941288911L
I1074239956
sL2662901275L
I1074240668
sL1156874576L
I1074236672
sL4243027010L
I1074269500
sL1652900655L
I1074238584
sL23021043L
I1074236024
sL3437515081L
I1074234836
sL2997001746L
I1074237312
sL1976922989L
I1074236724
sL2819127986L
I1074237120
sL1016152107L
I1074267776
sL2056504617L
I1074270540
sL4235827909L
I1074240856
sL2988619934L
I1074246704
sL1164083360L
I1074235712
sL1448845982L
I1074237068
sL4075620904L
I1074267139
sL2249539038L
I1074240216
sL2653730023L
I1074269524
sL3624870367L
I1074246644
sL1865528544L
I1074245916
sL4142749756L
I1074236640
sL3674356945L
I1074241692
sL3610701282L
I1074247220
sL2715371534L
I1074243008
sL734653982L
I1074246292
sL2263182908L
I1074238168
sL3953131333L
I1074240764
sL2302940057L
I1074246504
sL1142467576L
I1074245716
sL188664287L
I1074235336
sL2200618440L
I1074243496
sL2497478462L
I1074269764
sL2959238529L
I1074237380
sL692536993L
I1074237352
sL2319953056L
I1074238980
sL409201547L
I1074236980
sL3092573119L
I1074247092
sL2108247364L
I1074269872
sL3608561895L
I1074268996
sL243820144L
I1074241008
sL4267894680L
I1074236880
sL1616440742L
I1074245820
ssS'immediates'
p8
(dp9
sS'formaldups'
p10
c__builtin__
set
p11
((lp12
tp13
Rp14
sS'stringdups'
p15
g11
((lp16
tp17
Rp18
sS'fuzzydups'
p19
g11
((lp20
tp21
Rp22
sS'strings'
p23
(dp24
sS'functions'
p25
(dp26
I1074267912
(Vbootloader_common_get_reset_reason
p27
(lp28
(L2221583904L
L0L
(lp29
(lp30
tp31
atp32
sI1074238980
(Vlog_invalid_app_partition
p33
(lp34
(L4293078423L
L0L
(lp35
(lp36
tp37
a(L3028464L
L0L
(lp38
(lp39
tp40
a(L60127667L
L3785322319L
(lp41
(lp42
Vesp_log_early_timestamp
p43
atp44
a(L44113432L
L0L
(lp45
(lp46
tp47
a(L3360570486L
L0L
(lp48
(lp49
tp50
a(L1770519575L
L3785322319L
(lp51
(lp52
Vesp_log_early_timestamp
p53
atp54
a(L2524670070L
L3785322319L
(lp55
(lp56
Vesp_log_early_timestamp
p57
atp58
atp59
sI1074245888
(Vwdt_hal_write_protect_enable
p60
(lp61
(L387778158L
L0L
(lp62
(lp63
tp64
a(L4195472003L
L0L
(lp65
(lp66
tp67
a(L3360570486L
L0L
(lp68
(lp69
tp70
a(L802523425L
L0L
(lp71
(lp72
tp73
atp74
sI1074236672
(Vesp_cpu_in_ocd_debug_mode
p75
(lp76
(L2131426160L
L0L
(lp77
(lp78
tp79
atp80
sI1074267136
(V_init
p81
(lp82
(L3493042598L
L0L
(lp83
(lp84
tp85
atp86
sI1074235660
(Vbootloader_flash_read_sfdp
p87
(lp88
(L711701400L
L0L
(lp89
(lp90
tp91
a(L1622122993L
L3785322319L
(lp92
(lp93
V__assert_func
p94
atp95
a(L3704332455L
L3785322319L
(lp96
(lp97
Vbootloader_flash_execute_command_common
p98
atp99
atp100
sI1074267139
(V_text_start
p101
(lp102
(L2957395042L
L0L
(lp103
(lp104
tp105
atp106
sI1074235912
(Vbootloader_flash_cs_timing_config
p107
(lp108
(L3796536297L
L0L
(lp109
(lp110
tp111
atp112
sI1074267928
(Vwdt_reset_info_dump
p113
(lp114
(L4037466985L
L0L
(lp115
(lp116
tp117
a(L826419141L
L0L
(lp118
(lp119
tp120
a(L527117834L
L0L
(lp121
(lp122
tp123
a(L1103285333L
L0L
(lp124
(lp125
tp126
a(L897464656L
L3785322319L
(lp127
(lp128
Vesp_log_early_timestamp
p129
atp130
a(L1020249293L
L0L
(lp131
(lp132
tp133
a(L4142801364L
L3785322319L
(lp134
(lp135
Vesp_log_early_timestamp
p136
atp137
a(L2899013701L
L0L
(lp138
(lp139
tp140
atp141
sI1074241812
(Vprocess_segments
p142
(lp143
(L3883698409L
L0L
(lp144
(lp145
tp146
a(L2495454333L
L0L
(lp147
(lp148
tp149
a(L4578542L
L0L
(lp150
(lp151
tp152
a(L106L
L0L
(lp153
(lp154
tp155
a(L1315312493L
L0L
(lp156
(lp157
tp158
a(L2336176508L
L3785322319L
(lp159
(lp160
Vesp_log_early_timestamp
p161
atp162
a(L1440180646L
L3785322319L
(lp163
(lp164
Vbootloader_flash_read
p165
atp166
a(L1611320705L
L3785322319L
(lp167
(lp168
Vesp_log_early_timestamp
p169
atp170
a(L3360570486L
L0L
(lp171
(lp172
tp173
a(L234193771L
L0L
(lp174
(lp175
tp176
a(L1635713494L
L3785322319L
(lp177
(lp178
Vbootloader_sha256_data
p179
atp180
a(L926711887L
L0L
(lp181
(lp182
tp183
a(L790360741L
L0L
(lp184
(lp185
tp186
a(L3997307212L
L0L
(lp187
(lp188
tp189
a(L3802068284L
L0L
(lp190
(lp191
tp192
a(L2942462881L
L0L
(lp193
(lp194
tp195
a(L2258867228L
L0L
(lp196
(lp197
tp198
a(L1355332303L
L0L
(lp199
(lp200
tp201
a(L2965680995L
L0L
(lp202
(lp203
tp204
a(L1849436849L
L0L
(lp205
(lp206
tp207
a(L3435020321L
L3785322319L
(lp208
(lp209
Vesp_log_early_timestamp
p210
atp211
a(L3895303701L
L0L
(lp212
(lp213
tp214
a(L310091443L
L0L
(lp215
(lp216
tp217
a(L149120208L
L3785322319L
(lp218
(lp219
Vesp_log_early_timestamp
p220
atp221
a(L3982404358L
L3785322319L
(lp222
(lp223
Vverify_load_addresses
p224
atp225
a(L106L
L0L
(lp226
(lp227
tp228
a(L2300166925L
L0L
(lp229
(lp230
tp231
a(L2684012095L
L0L
(lp232
(lp233
tp234
a(L1905937838L
L3785322319L
(lp235
(lp236
Vbootloader_mmap
p237
atp238
a(L2674550455L
L3785322319L
(lp239
(lp240
Vesp_log_early_timestamp
p241
atp242
a(L3858925252L
L0L
(lp243
(lp244
tp245
a(L1982086160L
L0L
(lp246
(lp247
tp248
a(L1534276982L
L3785322319L
(lp249
(lp250
Vbootloader_munmap
p251
atp252
a(L3105361649L
L0L
(lp253
(lp254
tp255
a(L1216016797L
L3785322319L
(lp256
(lp257
Vbootloader_fill_random
p258
atp259
a(L3570641403L
L0L
(lp260
(lp261
tp262
a(L3574335487L
L0L
(lp263
(lp264
tp265
a(L3450268858L
L0L
(lp266
(lp267
tp268
a(L3021749L
L0L
(lp269
(lp270
tp271
a(L1609678444L
L0L
(lp272
(lp273
tp274
a(L1777728568L
L0L
(lp275
(lp276
tp277
a(L3020204L
L0L
(lp278
(lp279
tp280
a(L1478777665L
L0L
(lp281
(lp282
tp283
a(L2076461546L
L0L
(lp284
(lp285
tp286
a(L3832868376L
L0L
(lp287
(lp288
tp289
a(L1749969336L
L0L
(lp290
(lp291
tp292
a(L670934548L
L0L
(lp293
(lp294
tp295
a(L1903785265L
L3785322319L
(lp296
(lp297
Vbootloader_sha256_data
p298
atp299
a(L90548756L
L0L
(lp300
(lp301
tp302
a(L4195963580L
L0L
(lp303
(lp304
tp305
a(L2572638616L
L0L
(lp306
(lp307
tp308
a(L3740179196L
L0L
(lp309
(lp310
tp311
a(L233873941L
L3785322319L
(lp312
(lp313
Vshould_load
p314
atp315
a(L3070788781L
L0L
(lp316
(lp317
tp318
a(L1864178875L
L3785322319L
(lp319
(lp320
Vesp_log_early_timestamp
p321
atp322
a(L1836486280L
L0L
(lp323
(lp324
tp325
a(L2104869604L
L0L
(lp326
(lp327
tp328
a(L1178869281L
L0L
(lp329
(lp330
tp331
a(L2902417580L
L0L
(lp332
(lp333
tp334
a(L2636912524L
L0L
(lp335
(lp336
tp337
a(L4195318902L
L3785322319L
(lp338
(lp339
Vbootloader_mmap_get_free_pages
p340
atp341
a(L3028481L
L0L
(lp342
(lp343
tp344
a(L124545238L
L0L
(lp345
(lp346
tp347
atp348
sI1074237460
(Vbootloader_mmap
p349
(lp350
(L4101837270L
L0L
(lp351
(lp352
tp353
a(L1032666940L
L3785322319L
(lp354
(lp355
Vesp_log_early_timestamp
p356
atp357
a(L1182811810L
L0L
(lp358
(lp359
tp360
a(L3496950L
L0L
(lp361
(lp362
tp363
a(L1649230001L
L0L
(lp364
(lp365
tp366
a(L3729021430L
L3785322319L
(lp367
(lp368
Vesp_log_early_timestamp
p369
atp370
a(L264945332L
L0L
(lp371
(lp372
tp373
a(L3772406441L
L3785322319L
(lp374
(lp375
Vesp_log_early_timestamp
p376
atp377
a(L2067699594L
L0L
(lp378
(lp379
tp380
atp381
sI1074236688
(Vesp_rom_install_channel_putc
p382
(lp383
(L487865505L
L0L
(lp384
(lp385
tp386
a(L3020187L
L0L
(lp387
(lp388
tp389
a(L3360570486L
L0L
(lp390
(lp391
tp392
a(L4123957120L
L0L
(lp393
(lp394
tp395
a(L3627488788L
L0L
(lp396
(lp397
tp398
atp399
sI1074237968
(Vbootloader_flash_erase_sector
p400
(lp401
(L2049114289L
L3785322319L
(lp402
(lp403
Vesp_rom_spiflash_erase_sector
p404
atp405
a(L4127738745L
L0L
(lp406
(lp407
tp408
a(L3360570486L
L0L
(lp409
(lp410
tp411
atp412
sI1074239248
(Vbootloader_utility_load_partition_table
p413
(lp414
(L3347333331L
L3785322319L
(lp415
(lp416
Vbootloader_mmap
p417
atp418
a(L1428365196L
L3785322319L
(lp419
(lp420
Vesp_log_early_timestamp
p421
atp422
a(L2258688482L
L0L
(lp423
(lp424
tp425
a(L3360570486L
L0L
(lp426
(lp427
tp428
a(L2379286607L
L3785322319L
(lp429
(lp430
Vesp_partition_table_verify
p431
atp432
a(L2373960800L
L3785322319L
(lp433
(lp434
Vesp_log_early_timestamp
p435
atp436
a(L3501719726L
L1880226080L
(lp437
(lp438
Vesp_log_early_timestamp
p439
aVesp_log_early_timestamp
p440
atp441
a(L60599615L
L0L
(lp442
(lp443
tp444
a(L3214652505L
L1880226080L
(lp445
(lp446
Vbootloader_munmap
p447
aVesp_log_early_timestamp
p448
atp449
a(L4226553678L
L0L
(lp450
(lp451
tp452
a(L3028464L
L0L
(lp453
(lp454
tp455
a(L106L
L0L
(lp456
(lp457
tp458
a(L307915788L
L0L
(lp459
(lp460
tp461
a(L3616625116L
L3785322319L
(lp462
(lp463
Vesp_log_early_timestamp
p464
atp465
a(L3990577774L
L0L
(lp466
(lp467
tp468
a(L3020187L
L0L
(lp469
(lp470
tp471
a(L2563447427L
L0L
(lp472
(lp473
tp474
a(L1154512123L
L0L
(lp475
(lp476
tp477
a(L1112551755L
L0L
(lp478
(lp479
tp480
a(L1308290928L
L0L
(lp481
(lp482
tp483
a(L2202822289L
L0L
(lp484
(lp485
tp486
a(L1504681085L
L0L
(lp487
(lp488
tp489
a(L955456027L
L0L
(lp490
(lp491
tp492
atp493
sI1074245916
(Vefuse_hal_get_rated_freq_mhz
p494
(lp495
(L1680594370L
L0L
(lp496
(lp497
tp498
a(L2965302338L
L0L
(lp499
(lp500
tp501
a(L3360570486L
L0L
(lp502
(lp503
tp504
atp505
sI1074248476
(V_fini
p506
(lp507
(L3493042598L
L0L
(lp508
(lp509
tp510
atp511
sI1074240280
(Vbootloader_debug_buffer
p512
(lp513
(L2100504542L
L0L
(lp514
(lp515
tp516
atp517
sI1074245400
(Vwdt_hal_config_stage
p518
(lp519
(L331558507L
L0L
(lp520
(lp521
tp522
a(L4279082939L
L0L
(lp523
(lp524
tp525
a(L3020204L
L0L
(lp526
(lp527
tp528
a(L3020187L
L0L
(lp529
(lp530
tp531
a(L3020187L
L0L
(lp532
(lp533
tp534
a(L94425498L
L3785322319L
(lp535
(lp536
Vabort
p537
atp538
a(L3169146260L
L0L
(lp539
(lp540
tp541
a(L3360570486L
L0L
(lp542
(lp543
tp544
a(L2570095916L
L0L
(lp545
(lp546
tp547
a(L2630698345L
L0L
(lp548
(lp549
tp550
a(L3142002758L
L0L
(lp551
(lp552
tp553
a(L3020187L
L0L
(lp554
(lp555
tp556
a(L2902417580L
L0L
(lp557
(lp558
tp559
a(L3020187L
L0L
(lp560
(lp561
tp562
a(L3028464L
L0L
(lp563
(lp564
tp565
a(L2720957315L
L0L
(lp566
(lp567
tp568
a(L2254402966L
L0L
(lp569
(lp570
tp571
a(L1666089228L
L0L
(lp572
(lp573
tp574
a(L4127982619L
L0L
(lp575
(lp576
tp577
atp578
sI1074269484
(Vbootloader_flash_update_id
p579
(lp580
(L1806317231L
L3785322319L
(lp581
(lp582
Vbootloader_read_flash_id
p583
atp584
atp585
sI1074240288
(Vbootloader_sha256_start
p586
(lp587
(L2006965050L
L0L
(lp588
(lp589
tp590
atp591
sI1074246176
(Vrtc_clk_32k_enable_common
p592
(lp593
(L3359003459L
L0L
(lp594
(lp595
tp596
atp597
sI1074246688
(Vrtc_clk_fast_freq_get
p598
(lp599
(L81196607L
L0L
(lp600
(lp601
tp602
atp603
sI1074237996
(Vbootloader_flash_write
p604
(lp605
(L3119145091L
L0L
(lp606
(lp607
tp608
a(L962229776L
L3785322319L
(lp609
(lp610
Vesp_log_early_timestamp
p611
atp612
a(L44113432L
L0L
(lp613
(lp614
tp615
a(L1610445075L
L0L
(lp616
(lp617
tp618
a(L735741265L
L0L
(lp619
(lp620
tp621
a(L3291333414L
L0L
(lp622
(lp623
tp624
a(L2835528492L
L3785322319L
(lp625
(lp626
Vesp_log_early_timestamp
p627
atp628
a(L3283691850L
L0L
(lp629
(lp630
tp631
a(L3823398198L
L3785322319L
(lp632
(lp633
Vesp_log_early_timestamp
p634
atp635
a(L3212356251L
L3785322319L
(lp636
(lp637
Vbootloader_flash_unlock
p638
atp639
a(L4210907913L
L0L
(lp640
(lp641
tp642
a(L94425498L
L3785322319L
(lp643
(lp644
Vesp_rom_spiflash_write_encrypted
p645
atp646
a(L93674324L
L0L
(lp647
(lp648
tp649
a(L645116258L
L0L
(lp650
(lp651
tp652
a(L2927190544L
L3785322319L
(lp653
(lp654
Vesp_rom_spiflash_write
p655
atp656
atp657
sI1074241324
(Vverify_load_addresses
p658
(lp659
(L2763563698L
L0L
(lp660
(lp661
tp662
a(L106L
L0L
(lp663
(lp664
tp665
a(L97642L
L0L
(lp666
(lp667
tp668
a(L1948667597L
L3785322319L
(lp669
(lp670
V__assert_func
p671
atp672
a(L1143522018L
L0L
(lp673
(lp674
tp675
a(L106L
L0L
(lp676
(lp677
tp678
a(L2112096267L
L0L
(lp679
(lp680
tp681
a(L106L
L0L
(lp682
(lp683
tp684
a(L3523782570L
L3785322319L
(lp685
(lp686
Vbootloader_util_regions_overlap
p687
atp688
a(L2605817551L
L3785322319L
(lp689
(lp690
Vbootloader_util_regions_overlap
p691
atp692
a(L3028481L
L0L
(lp693
(lp694
tp695
a(L2946329814L
L3785322319L
(lp696
(lp697
Vbootloader_util_regions_overlap
p698
atp699
a(L1502100891L
L0L
(lp700
(lp701
tp702
a(L2387747879L
L0L
(lp703
(lp704
tp705
a(L3812607188L
L0L
(lp706
(lp707
tp708
a(L1378784754L
L0L
(lp709
(lp710
tp711
a(L642339957L
L0L
(lp712
(lp713
tp714
a(L677569396L
L3785322319L
(lp715
(lp716
Vverify_load_addresses
p717
atp718
a(L1351513776L
L0L
(lp719
(lp720
tp721
a(L1681779664L
L0L
(lp722
(lp723
tp724
a(L442864479L
L0L
(lp725
(lp726
tp727
a(L498862735L
L3785322319L
(lp728
(lp729
Vbootloader_util_regions_overlap
p730
atp731
a(L3028481L
L0L
(lp732
(lp733
tp734
a(L3990340598L
L3785322319L
(lp735
(lp736
Vbootloader_util_regions_overlap
p737
atp738
a(L2334313048L
L0L
(lp739
(lp740
tp741
a(L1728651739L
L0L
(lp742
(lp743
tp744
a(L938770818L
L0L
(lp745
(lp746
tp747
a(L1654457071L
L0L
(lp748
(lp749
tp750
a(L307918210L
L0L
(lp751
(lp752
tp753
a(L697239146L
L0L
(lp754
(lp755
tp756
a(L106L
L0L
(lp757
(lp758
tp759
a(L955486314L
L0L
(lp760
(lp761
tp762
a(L307916788L
L0L
(lp763
(lp764
tp765
a(L490080443L
L0L
(lp766
(lp767
tp768
a(L106L
L0L
(lp769
(lp770
tp771
a(L2427388926L
L3785322319L
(lp772
(lp773
Vesp_log_early_timestamp
p774
atp775
a(L955485694L
L0L
(lp776
(lp777
tp778
a(L1303560427L
L0L
(lp779
(lp780
tp781
atp782
sI1074247220
(Vrtc_clk_cpu_freq_get_config
p783
(lp784
(L1912227103L
L0L
(lp785
(lp786
tp787
a(L2902417580L
L0L
(lp788
(lp789
tp790
a(L1777368540L
L0L
(lp791
(lp792
tp793
a(L4191209166L
L1880226080L
(lp794
(lp795
Vesp_log_early_timestamp
p796
aVabort
p797
atp798
a(L1906684621L
L3785322319L
(lp799
(lp800
Vrtc_clk_xtal_freq_get
p801
atp802
a(L584032699L
L0L
(lp803
(lp804
tp805
a(L1267412765L
L0L
(lp806
(lp807
tp808
a(L3020187L
L0L
(lp809
(lp810
tp811
a(L713819170L
L0L
(lp812
(lp813
tp814
a(L106L
L0L
(lp815
(lp816
tp817
a(L549042870L
L0L
(lp818
(lp819
tp820
a(L187152368L
L0L
(lp821
(lp822
tp823
a(L4149732163L
L0L
(lp824
(lp825
tp826
atp827
sI1074240308
(Vbootloader_sha256_data
p828
(lp829
(L4066096136L
L0L
(lp830
(lp831
tp832
a(L3706168760L
L0L
(lp833
(lp834
tp835
a(L3850111886L
L3785322319L
(lp836
(lp837
V__assert_func
p838
atp839
a(L498498478L
L0L
(lp840
(lp841
tp842
a(L2969391571L
L0L
(lp843
(lp844
tp845
a(L2910371777L
L0L
(lp846
(lp847
tp848
a(L3360570486L
L0L
(lp849
(lp850
tp851
a(L488887055L
L0L
(lp852
(lp853
tp854
a(L841847518L
L0L
(lp855
(lp856
tp857
a(L3145334428L
L0L
(lp858
(lp859
tp860
a(L2638544423L
L0L
(lp861
(lp862
tp863
a(L3339320094L
L0L
(lp864
(lp865
tp866
a(L1390602840L
L0L
(lp867
(lp868
tp869
a(L3028464L
L0L
(lp870
(lp871
tp872
a(L3976622796L
L0L
(lp873
(lp874
tp875
a(L4266904732L
L0L
(lp876
(lp877
tp878
atp879
sI1074236724
(Vesp_rom_uart_tx_wait_idle
p880
(lp881
(L1747532367L
L0L
(lp882
(lp883
tp884
a(L1301079727L
L0L
(lp885
(lp886
tp887
a(L3597746521L
L0L
(lp888
(lp889
tp890
a(L3694491048L
L0L
(lp891
(lp892
tp893
a(L3055926844L
L0L
(lp894
(lp895
tp896
a(L3360570486L
L0L
(lp897
(lp898
tp899
atp900
sI1074236980
(Vefuse_hal_get_minor_chip_version
p901
(lp902
(L529066928L
L0L
(lp903
(lp904
tp905
atp906
sI1074269500
(Vbootloader_clear_bss_section
p907
(lp908
(L2606532370L
L0L
(lp909
(lp910
tp911
atp912
sI1074246704
(Vrtc_clk_bbpll_configure
p913
(lp914
(L3293712850L
L0L
(lp915
(lp916
tp917
a(L106L
L0L
(lp918
(lp919
tp920
a(L3525721823L
L0L
(lp921
(lp922
tp923
a(L106L
L0L
(lp924
(lp925
tp926
a(L3240445808L
L0L
(lp927
(lp928
tp929
a(L2443776942L
L0L
(lp930
(lp931
tp932
a(L744221574L
L0L
(lp933
(lp934
tp935
a(L160100376L
L0L
(lp936
(lp937
tp938
a(L3654431361L
L0L
(lp939
(lp940
tp941
a(L2163771962L
L0L
(lp942
(lp943
tp944
a(L759119596L
L0L
(lp945
(lp946
tp947
a(L160100376L
L0L
(lp948
(lp949
tp950
atp951
sI1074243388
(Vesp_rom_spiflash_wait_idle
p952
(lp953
(L3233075721L
L0L
(lp954
(lp955
tp956
a(L2023766174L
L0L
(lp957
(lp958
tp959
a(L2805933678L
L0L
(lp960
(lp961
tp962
a(L3086959262L
L0L
(lp963
(lp964
tp965
a(L4161019926L
L3785322319L
(lp966
(lp967
Vesp_rom_spiflash_read_status
p968
atp969
atp970
sI1074238268
(Vbootloader_random_disable
p971
(lp972
(L2124996308L
L0L
(lp973
(lp974
tp975
atp976
sI1074270772
(Vmpu_hal_set_region_access
p977
(lp978
(L3538356822L
L0L
(lp979
(lp980
tp981
a(L2902417580L
L0L
(lp982
(lp983
tp984
a(L3020187L
L0L
(lp985
(lp986
tp987
a(L3020187L
L0L
(lp988
(lp989
tp990
a(L3360570486L
L0L
(lp991
(lp992
tp993
a(L2258718273L
L0L
(lp994
(lp995
tp996
a(L3446648619L
L0L
(lp997
(lp998
tp999
a(L3739532189L
L0L
(lp1000
(lp1001
tp1002
a(L1300789895L
L0L
(lp1003
(lp1004
tp1005
a(L3472092938L
L0L
(lp1006
(lp1007
tp1008
atp1009
sI1074236996
(Vis_xmc_chip_strict
p1010
(lp1011
(L1286841609L
L0L
(lp1012
(lp1013
tp1014
a(L2234016759L
L0L
(lp1015
(lp1016
tp1017
a(L1069027148L
L0L
(lp1018
(lp1019
tp1020
a(L3021749L
L0L
(lp1021
(lp1022
tp1023
a(L1900148749L
L0L
(lp1024
(lp1025
tp1026
a(L1936875721L
L0L
(lp1027
(lp1028
tp1029
a(L3356166509L
L0L
(lp1030
(lp1031
tp1032
a(L1937769451L
L0L
(lp1033
(lp1034
tp1035
a(L2137658907L
L0L
(lp1036
(lp1037
tp1038
a(L4265949734L
L0L
(lp1039
(lp1040
tp1041
a(L3360570486L
L0L
(lp1042
(lp1043
tp1044
atp1045
sI1074270540
(Vrtc_vddsdio_get_config
p1046
(lp1047
(L12311480L
L0L
(lp1048
(lp1049
tp1050
a(L147025923L
L0L
(lp1051
(lp1052
tp1053
a(L318395269L
L0L
(lp1054
(lp1055
tp1056
a(L1399971818L
L0L
(lp1057
(lp1058
tp1059
a(L1911319052L
L0L
(lp1060
(lp1061
tp1062
a(L1116012092L
L0L
(lp1063
(lp1064
tp1065
a(L1719615367L
L0L
(lp1066
(lp1067
tp1068
a(L1276420571L
L0L
(lp1069
(lp1070
tp1071
atp1072
sI1074235712
(Vbootloader_read_flash_id
p1073
(lp1074
(L3925322170L
L3785322319L
(lp1075
(lp1076
Vbootloader_execute_flash_command
p1077
atp1078
atp1079
sI1074245952
(Vrtc_clk_bbpll_disable
p1080
(lp1081
(L3581627368L
L0L
(lp1082
(lp1083
tp1084
a(L391691750L
L0L
(lp1085
(lp1086
tp1087
a(L3360570486L
L0L
(lp1088
(lp1089
tp1090
atp1091
sI1074236492
(Vbootloader_flash_dummy_config
p1092
(lp1093
(L132211179L
L0L
(lp1094
(lp1095
tp1096
a(L2761717557L
L0L
(lp1097
(lp1098
tp1099
a(L705371371L
L0L
(lp1100
(lp1101
tp1102
a(L2971458626L
L0L
(lp1103
(lp1104
tp1105
a(L1491210540L
L0L
(lp1106
(lp1107
tp1108
a(L3081491917L
L0L
(lp1109
(lp1110
tp1111
a(L1610443405L
L0L
(lp1112
(lp1113
tp1114
a(L4102729993L
L0L
(lp1115
(lp1116
tp1117
a(L1449490182L
L0L
(lp1118
(lp1119
tp1120
a(L1298875775L
L0L
(lp1121
(lp1122
tp1123
a(L3880393601L
L0L
(lp1124
(lp1125
tp1126
a(L1505818087L
L0L
(lp1127
(lp1128
tp1129
a(L1610443436L
L0L
(lp1130
(lp1131
tp1132
atp1133
sI1074268996
(Vbootloader_init_mem
p1134
(lp1135
(L1511720305L
L3785322319L
(lp1136
(lp1137
Vesp_cpu_configure_region_protection
p1138
atp1139
atp1140
sI1074269764
(Vbootloader_enable_random
p1141
(lp1142
(L3696363284L
L1880226080L
(lp1143
(lp1144
Vesp_log_early_timestamp
p1145
aVbootloader_random_enable
p1146
atp1147
atp1148
sI1074245716
(Vwdt_hal_write_protect_disable
p1149
(lp1150
(L103224028L
L0L
(lp1151
(lp1152
tp1153
a(L4195472003L
L0L
(lp1154
(lp1155
tp1156
a(L3360570486L
L0L
(lp1157
(lp1158
tp1159
a(L1210571996L
L0L
(lp1160
(lp1161
tp1162
atp1163
sI1074246480
(Vrtc_clk_8m_enabled
p1164
(lp1165
(L1433619747L
L0L
(lp1166
(lp1167
tp1168
atp1169
sI1074248284
(Vrtc_clk_cal_ratio
p1170
(lp1171
(L3486690043L
L3785322319L
(lp1172
(lp1173
Vrtc_clk_cal_internal
p1174
atp1175
atp1176
sI1074269012
(Vbootloader_random_enable
p1177
(lp1178
(L2681459775L
L0L
(lp1179
(lp1180
tp1181
atp1182
sI1074269524
(Vbootloader_read_bootloader_header
p1183
(lp1184
(L1965707317L
L3785322319L
(lp1185
(lp1186
Vbootloader_flash_read
p1187
atp1188
a(L4102083713L
L3785322319L
(lp1189
(lp1190
Vesp_log_early_timestamp
p1191
atp1192
a(L735741265L
L0L
(lp1193
(lp1194
tp1195
atp1196
sI1074239064
(Vset_actual_ota_seq
p1197
(lp1198
(L368664720L
L3785322319L
(lp1199
(lp1200
Vbootloader_common_ota_select_crc
p1201
atp1202
a(L3028481L
L0L
(lp1203
(lp1204
tp1205
a(L3329366564L
L3785322319L
(lp1206
(lp1207
Vbootloader_flash_erase_sector
p1208
atp1209
a(L2908486002L
L3785322319L
(lp1210
(lp1211
Vbootloader_flash_write
p1212
atp1213
a(L1059000425L
L3785322319L
(lp1214
(lp1215
Vesp_log_early_timestamp
p1216
atp1217
a(L878941328L
L3785322319L
(lp1218
(lp1219
Vesp_log_early_timestamp
p1220
atp1221
a(L3016870L
L0L
(lp1222
(lp1223
tp1224
a(L3971861743L
L0L
(lp1225
(lp1226
tp1227
a(L957607403L
L0L
(lp1228
(lp1229
tp1230
atp1231
sI1074240856
(Vprocess_checksum
p1232
(lp1233
(L1985325516L
L0L
(lp1234
(lp1235
tp1236
a(L2910371777L
L0L
(lp1237
(lp1238
tp1239
a(L1649277394L
L0L
(lp1240
(lp1241
tp1242
a(L2910371777L
L0L
(lp1243
(lp1244
tp1245
a(L2902417580L
L0L
(lp1246
(lp1247
tp1248
a(L1644002876L
L3785322319L
(lp1249
(lp1250
Vbootloader_sha256_data
p1251
atp1252
a(L3612796056L
L0L
(lp1253
(lp1254
tp1255
a(L1811888222L
L3785322319L
(lp1256
(lp1257
Vbootloader_flash_read
p1258
atp1259
a(L3126521138L
L0L
(lp1260
(lp1261
tp1262
a(L4209738910L
L0L
(lp1263
(lp1264
tp1265
a(L1890037739L
L3785322319L
(lp1266
(lp1267
Vesp_log_early_timestamp
p1268
atp1269
atp1270
sI1074243684
(Vesp_rom_spiflash_erase_sector
p1271
(lp1272
(L2459429170L
L0L
(lp1273
(lp1274
tp1275
a(L2258688483L
L0L
(lp1276
(lp1277
tp1278
a(L3360570486L
L0L
(lp1279
(lp1280
tp1281
a(L3212356251L
L3785322319L
(lp1282
(lp1283
Vesp_rom_spiflash_enable_write
p1284
atp1285
a(L184152988L
L0L
(lp1286
(lp1287
tp1288
a(L628195371L
L3785322319L
(lp1289
(lp1290
Vesp_rom_spiflash_wait_idle
p1291
atp1292
a(L3333707777L
L0L
(lp1293
(lp1294
tp1295
a(L3582858798L
L3785322319L
(lp1296
(lp1297
Vesp_rom_spiflash_wait_idle
p1298
atp1299
atp1300
sI1074269792
(Vbootloader_print_banner
p1301
(lp1302
(L2518500345L
L1880226080L
(lp1303
(lp1304
Vesp_log_early_timestamp
p1305
aVesp_log_early_timestamp
p1306
atp1307
atp1308
sI1074243436
(Vesp_rom_spiflash_enable_write
p1309
(lp1310
(L1680383254L
L3785322319L
(lp1311
(lp1312
Vesp_rom_spiflash_wait_idle
p1313
atp1314
a(L3137194272L
L0L
(lp1315
(lp1316
tp1317
a(L2258718275L
L0L
(lp1318
(lp1319
tp1320
a(L99543895L
L0L
(lp1321
(lp1322
tp1323
a(L2993202392L
L0L
(lp1324
(lp1325
tp1326
a(L1804543818L
L3785322319L
(lp1327
(lp1328
Vesp_rom_spiflash_read_status
p1329
atp1330
atp1331
sI1074235756
(Vbootloader_flash_xmc_startup
p1332
(lp1333
(L4031258446L
L3785322319L
(lp1334
(lp1335
Vis_xmc_chip_strict
p1336
atp1337
a(L2258688482L
L0L
(lp1338
(lp1339
tp1340
a(L3360570486L
L0L
(lp1341
(lp1342
tp1343
a(L2860324232L
L3785322319L
(lp1344
(lp1345
Vbootloader_flash_read_sfdp
p1346
atp1347
a(L3354428414L
L2567856111L
(lp1348
(lp1349
Vesp_log_early_timestamp
p1350
aVbootloader_execute_flash_command
p1351
aVbootloader_execute_flash_command
p1352
aVbootloader_execute_flash_command
p1353
aVbootloader_execute_flash_command
p1354
aVbootloader_read_flash_id
p1355
aVis_xmc_chip_strict
p1356
atp1357
a(L3332645139L
L3785322319L
(lp1358
(lp1359
Vesp_log_early_timestamp
p1360
atp1361
atp1362
sI1074246504
(Vrtc_clk_8md256_enabled
p1363
(lp1364
(L589147876L
L0L
(lp1365
(lp1366
tp1367
atp1368
sI1074245748
(Vwdt_hal_enable
p1369
(lp1370
(L4029830118L
L0L
(lp1371
(lp1372
tp1373
a(L3634439744L
L0L
(lp1374
(lp1375
tp1376
a(L3360570486L
L0L
(lp1377
(lp1378
tp1379
a(L2011576586L
L0L
(lp1380
(lp1381
tp1382
atp1383
sI1074236788
(Vesp_rom_uart_set_clock_baudrate
p1384
(lp1385
(L3861262560L
L0L
(lp1386
(lp1387
tp1388
a(L3917339996L
L0L
(lp1389
(lp1390
tp1391
a(L1008980076L
L0L
(lp1392
(lp1393
tp1394
a(L890400028L
L0L
(lp1395
(lp1396
tp1397
a(L2805931419L
L0L
(lp1398
(lp1399
tp1400
a(L2136660087L
L0L
(lp1401
(lp1402
tp1403
atp1404
sI1074247536
(Vrtc_clk_cpu_freq_set_config
p1405
(lp1406
(L2597303049L
L3785322319L
(lp1407
(lp1408
Vrtc_clk_xtal_freq_get
p1409
atp1410
a(L1828795533L
L1880226080L
(lp1411
(lp1412
Vrtc_clk_cpu_freq_to_xtal
p1413
aVrtc_clk_wait_for_slow_cycle
p1414
atp1415
a(L94425498L
L3785322319L
(lp1416
(lp1417
Vrtc_clk_bbpll_disable
p1418
atp1419
a(L3978916712L
L0L
(lp1420
(lp1421
tp1422
a(L2977209154L
L0L
(lp1423
(lp1424
tp1425
a(L2736411858L
L3785322319L
(lp1426
(lp1427
Vrtc_clk_cpu_freq_to_xtal
p1428
atp1429
a(L3360570486L
L0L
(lp1430
(lp1431
tp1432
a(L3020187L
L0L
(lp1433
(lp1434
tp1435
a(L106L
L0L
(lp1436
(lp1437
tp1438
a(L728330897L
L2485746240L
(lp1439
(lp1440
Vrtc_clk_wait_for_slow_cycle
p1441
aVrtc_clk_xtal_freq_get
p1442
aVrtc_clk_bbpll_configure
p1443
aVrtc_clk_cpu_freq_to_pll_mhz
p1444
atp1445
a(L3020187L
L0L
(lp1446
(lp1447
tp1448
a(L106L
L0L
(lp1449
(lp1450
tp1451
a(L971591335L
L0L
(lp1452
(lp1453
tp1454
atp1455
sI1074246012
(Vrtc_clk_cpu_freq_to_pll_mhz
p1456
(lp1457
(L428013989L
L0L
(lp1458
(lp1459
tp1460
a(L106L
L0L
(lp1461
(lp1462
tp1463
a(L1541997046L
L0L
(lp1464
(lp1465
tp1466
a(L106L
L0L
(lp1467
(lp1468
tp1469
a(L1546614651L
L0L
(lp1470
(lp1471
tp1472
a(L3439082421L
L0L
(lp1473
(lp1474
tp1475
a(L635222928L
L3785322319L
(lp1476
(lp1477
Vrtc_clk_wait_for_slow_cycle
p1478
atp1479
a(L2961195743L
L1880226080L
(lp1480
(lp1481
Vesp_log_early_timestamp
p1482
aVabort
p1483
atp1484
a(L1183020347L
L0L
(lp1485
(lp1486
tp1487
a(L1305407562L
L0L
(lp1488
(lp1489
tp1490
a(L1306330990L
L0L
(lp1491
(lp1492
tp1493
atp1494
sI1074248316
(Vrtc_clk_wait_for_slow_cycle
p1495
(lp1496
(L1117312169L
L0L
(lp1497
(lp1498
tp1499
a(L287687718L
L0L
(lp1500
(lp1501
tp1502
a(L3360570486L
L0L
(lp1503
(lp1504
tp1505
a(L3986273454L
L0L
(lp1506
(lp1507
tp1508
a(L2994547433L
L0L
(lp1509
(lp1510
tp1511
a(L3945029326L
L0L
(lp1512
(lp1513
tp1514
a(L823860229L
L3785322319L
(lp1515
(lp1516
Vesp_log_early_timestamp
p1517
atp1518
atp1519
sI1074236024
(Vbootloader_flash_gpio_config
p1520
(lp1521
(L719792650L
L3785322319L
(lp1522
(lp1523
Vbootloader_common_get_chip_ver_pkg
p1524
atp1525
a(L106L
L0L
(lp1526
(lp1527
tp1528
a(L2886083034L
L0L
(lp1529
(lp1530
tp1531
a(L106L
L0L
(lp1532
(lp1533
tp1534
a(L4213870169L
L0L
(lp1535
(lp1536
tp1537
a(L3890032189L
L0L
(lp1538
(lp1539
tp1540
a(L106L
L0L
(lp1541
(lp1542
tp1543
a(L676119430L
L0L
(lp1544
(lp1545
tp1546
a(L4272081986L
L0L
(lp1547
(lp1548
tp1549
a(L3360570486L
L0L
(lp1550
(lp1551
tp1552
atp1553
sI1074238584
(Vbootloader_clock_get_rated_freq_mhz
p1554
(lp1555
(L376617603L
L3785322319L
(lp1556
(lp1557
Vefuse_hal_get_rated_freq_mhz
p1558
atp1559
atp1560
sI1074238596
(Vload_image
p1561
(lp1562
(L3679617832L
L1832448559L
(lp1563
(lp1564
Vesp_log_early_timestamp
p1565
aVbootloader_random_disable
p1566
aVbootloader_ana_clock_glitch_reset_config
p1567
atp1568
a(L2118498116L
L0L
(lp1569
(lp1570
tp1571
a(L106L
L0L
(lp1572
(lp1573
tp1574
a(L646834872L
L0L
(lp1575
(lp1576
tp1577
a(L751966648L
L0L
(lp1578
(lp1579
tp1580
a(L3268103L
L0L
(lp1581
(lp1582
tp1583
a(L4243721858L
L3785322319L
(lp1584
(lp1585
Vbootloader_console_deinit
p1586
atp1587
a(L2307067884L
L0L
(lp1588
(lp1589
tp1590
a(L3020204L
L0L
(lp1591
(lp1592
tp1593
a(L2722520990L
L3785322319L
(lp1594
(lp1595
Vesp_log_early_timestamp
p1596
atp1597
a(L117980938L
L0L
(lp1598
(lp1599
tp1600
a(L1341709798L
L0L
(lp1601
(lp1602
tp1603
a(L3020204L
L0L
(lp1604
(lp1605
tp1606
a(L1017231636L
L3785322319L
(lp1607
(lp1608
Vesp_log_early_timestamp
p1609
atp1610
a(L233635238L
L0L
(lp1611
(lp1612
tp1613
a(L2488949783L
L0L
(lp1614
(lp1615
tp1616
atp1617
sI1074239620
(Vbootloader_utility_get_selected_boot_partition
p1618
(lp1619
(L2184143128L
L0L
(lp1620
(lp1621
tp1622
a(L3692243288L
L0L
(lp1623
(lp1624
tp1625
a(L2680964923L
L3785322319L
(lp1626
(lp1627
Vesp_log_early_timestamp
p1628
atp1629
a(L4026981588L
L0L
(lp1630
(lp1631
tp1632
a(L3360570486L
L0L
(lp1633
(lp1634
tp1635
a(L1375577398L
L3785322319L
(lp1636
(lp1637
Vbootloader_mmap
p1638
atp1639
a(L3668557470L
L3785322319L
(lp1640
(lp1641
Vesp_log_early_timestamp
p1642
atp1643
a(L2805858128L
L1880226080L
(lp1644
(lp1645
Vbootloader_munmap
p1646
aVbootloader_common_ota_select_invalid
p1647
atp1648
a(L1103573946L
L0L
(lp1649
(lp1650
tp1651
a(L1876835593L
L3785322319L
(lp1652
(lp1653
Vbootloader_common_get_active_otadata
p1654
atp1655
a(L106L
L0L
(lp1656
(lp1657
tp1658
a(L569346373L
L0L
(lp1659
(lp1660
tp1661
a(L788494392L
L3785322319L
(lp1662
(lp1663
Vbootloader_common_ota_select_invalid
p1664
atp1665
a(L2675958250L
L0L
(lp1666
(lp1667
tp1668
a(L3279694738L
L3785322319L
(lp1669
(lp1670
Vesp_log_early_timestamp
p1671
atp1672
a(L1231248995L
L3785322319L
(lp1673
(lp1674
Vesp_log_early_timestamp
p1675
atp1676
a(L505081345L
L0L
(lp1677
(lp1678
tp1679
a(L919052234L
L3785322319L
(lp1680
(lp1681
Vbootloader_common_ota_select_crc
p1682
atp1683
a(L2287680455L
L0L
(lp1684
(lp1685
tp1686
a(L3542558037L
L3785322319L
(lp1687
(lp1688
Vbootloader_common_ota_select_crc
p1689
atp1690
a(L1299866312L
L0L
(lp1691
(lp1692
tp1693
a(L3205436778L
L0L
(lp1694
(lp1695
tp1696
a(L520767689L
L3785322319L
(lp1697
(lp1698
Vesp_log_early_timestamp
p1699
atp1700
a(L1367516498L
L0L
(lp1701
(lp1702
tp1703
a(L4142618365L
L3785322319L
(lp1704
(lp1705
Vesp_log_early_timestamp
p1706
atp1707
atp1708
sI1074237312
(Vbootloader_common_get_active_otadata
p1709
(lp1710
(L3317503532L
L0L
(lp1711
(lp1712
tp1713
a(L2503049265L
L1832448559L
(lp1714
(lp1715
Vbootloader_common_ota_select_valid
p1716
aVbootloader_common_ota_select_valid
p1717
aVbootloader_common_select_otadata
p1718
atp1719
a(L735741265L
L0L
(lp1720
(lp1721
tp1722
atp1723
sI1074246528
(Vrtc_clk_slow_freq_set
p1724
(lp1725
(L446749037L
L0L
(lp1726
(lp1727
tp1728
atp1729
sI1074267776
(Vcall_start_cpu0
p1730
(lp1731
(L1974457732L
L3785322319L
(lp1732
(lp1733
Vbootloader_init
p1734
atp1735
a(L94425498L
L3785322319L
(lp1736
(lp1737
Vbootloader_reset
p1738
atp1739
a(L2802776775L
L3785322319L
(lp1740
(lp1741
Vbootloader_utility_load_partition_table
p1742
atp1743
a(L4026389016L
L3785322319L
(lp1744
(lp1745
Vesp_log_early_timestamp
p1746
atp1747
a(L2395089516L
L3785322319L
(lp1748
(lp1749
Vbootloader_utility_get_selected_boot_partition
p1750
atp1751
a(L2086982338L
L1880226080L
(lp1752
(lp1753
Vbootloader_common_get_reset_reason
p1754
aVbootloader_utility_load_boot_image
p1755
atp1756
atp1757
sI1074269568
(Vbootloader_check_bootloader_validity
p1758
(lp1759
(L1445660430L
L1832448559L
(lp1760
(lp1761
Vefuse_hal_chip_revision
p1762
aVesp_log_early_timestamp
p1763
aVbootloader_common_check_chip_validity
p1764
atp1765
atp1766
sI1074237068
(Vesp_log_early_timestamp
p1767
(lp1768
(L677791546L
L0L
(lp1769
(lp1770
tp1771
atp1772
sI1074270084
(Vrtc_clk_init
p1773
(lp1774
(L3487097464L
L0L
(lp1775
(lp1776
tp1777
a(L42671777L
L3785322319L
(lp1778
(lp1779
Vrtc_clk_cpu_freq_to_xtal
p1780
atp1781
a(L1935871317L
L0L
(lp1782
(lp1783
tp1784
a(L4184912069L
L0L
(lp1785
(lp1786
tp1787
a(L2873281153L
L0L
(lp1788
(lp1789
tp1790
a(L912414356L
L3785322319L
(lp1791
(lp1792
Vrtc_clk_xtal_freq_get
p1793
atp1794
a(L1244428170L
L1157885199L
(lp1795
(lp1796
Vesp_rom_uart_tx_wait_idle
p1797
aVrtc_clk_xtal_freq_update
p1798
aVrtc_clk_apb_freq_update
p1799
aVrtc_clk_cpu_freq_get_config
p1800
aVrtc_clk_cpu_freq_mhz_to_config
p1801
atp1802
a(L3941770928L
L1880226080L
(lp1803
(lp1804
Vesp_log_early_timestamp
p1805
aVabort
p1806
atp1807
a(L4187693717L
L3785322319L
(lp1808
(lp1809
Vrtc_clk_xtal_freq_estimate
p1810
atp1811
a(L38559164L
L3785322319L
(lp1812
(lp1813
Vesp_log_early_timestamp
p1814
atp1815
a(L4188325301L
L0L
(lp1816
(lp1817
tp1818
a(L1563923531L
L0L
(lp1819
(lp1820
tp1821
a(L106L
L0L
(lp1822
(lp1823
tp1824
a(L4070631878L
L3785322319L
(lp1825
(lp1826
Vrtc_clk_xtal_freq_estimate
p1827
atp1828
a(L106L
L0L
(lp1829
(lp1830
tp1831
a(L3554578860L
L3785322319L
(lp1832
(lp1833
Vesp_log_early_timestamp
p1834
atp1835
a(L1435542129L
L3785322319L
(lp1836
(lp1837
Vrtc_clk_cpu_freq_set_config
p1838
atp1839
a(L4168829660L
L3785322319L
(lp1840
(lp1841
Vrtc_clk_32k_enable
p1842
atp1843
a(L3016870L
L0L
(lp1844
(lp1845
tp1846
a(L452760767L
L3785322319L
(lp1847
(lp1848
Vrtc_clk_8m_enable
p1849
atp1850
a(L530469956L
L1880226080L
(lp1851
(lp1852
Vrtc_clk_fast_freq_set
p1853
aVrtc_clk_slow_freq_set
p1854
atp1855
atp1856
sI1074247816
(Vrtc_clk_apb_freq_get
p1857
(lp1858
(L3294973915L
L0L
(lp1859
(lp1860
tp1861
atp1862
sI1074243988
(Vesp_rom_spiflash_write_encrypted
p1863
(lp1864
(L2107077087L
L0L
(lp1865
(lp1866
tp1867
a(L48601202L
L0L
(lp1868
(lp1869
tp1870
a(L97689L
L0L
(lp1871
(lp1872
tp1873
a(L3061232074L
L0L
(lp1874
(lp1875
tp1876
a(L1022857974L
L0L
(lp1877
(lp1878
tp1879
a(L2903314395L
L3785322319L
(lp1880
(lp1881
Vesp_rom_spiflash_write
p1882
atp1883
a(L2477749271L
L0L
(lp1884
(lp1885
tp1886
a(L735741265L
L0L
(lp1887
(lp1888
tp1889
atp1890
sI1074246292
(Vrtc_clk_32k_enable
p1891
(lp1892
(L753387299L
L0L
(lp1893
(lp1894
tp1895
a(L1067050752L
L3785322319L
(lp1896
(lp1897
Vrtc_clk_32k_enable_common
p1898
atp1899
a(L3360570486L
L0L
(lp1900
(lp1901
tp1902
a(L2867343393L
L0L
(lp1903
(lp1904
tp1905
atp1906
sI1074268828
(Vbootloader_clock_configure
p1907
(lp1908
(L1154001737L
L1880226080L
(lp1909
(lp1910
Vesp_rom_uart_tx_wait_idle
p1911
aVefuse_hal_chip_revision
p1912
atp1913
a(L2119588600L
L0L
(lp1914
(lp1915
tp1916
a(L46500273L
L3785322319L
(lp1917
(lp1918
Vrtc_clk_apb_freq_get
p1919
atp1920
a(L2503001246L
L1832448559L
(lp1921
(lp1922
Vrtc_clk_slow_freq_get
p1923
aVrtc_clk_fast_freq_get
p1924
aVrtc_clk_init
p1925
atp1926
a(L1106689080L
L0L
(lp1927
(lp1928
tp1929
a(L883406775L
L0L
(lp1930
(lp1931
tp1932
a(L106L
L0L
(lp1933
(lp1934
tp1935
atp1936
sI1074269840
(Vbootloader_console_init
p1937
(lp1938
(L2184937789L
L2485746240L
(lp1939
(lp1940
Vesp_rom_install_channel_putc
p1941
aVesp_rom_uart_tx_wait_idle
p1942
aVrtc_clk_apb_freq_get
p1943
aVesp_rom_uart_set_clock_baudrate
p1944
atp1945
atp1946
sI1074241692
(Vshould_load
p1947
(lp1948
(L3456036353L
L0L
(lp1949
(lp1950
tp1951
a(L1182990556L
L0L
(lp1952
(lp1953
tp1954
a(L1780902349L
L0L
(lp1955
(lp1956
tp1957
a(L1298905564L
L0L
(lp1958
(lp1959
tp1960
a(L524505062L
L0L
(lp1961
(lp1962
tp1963
a(L2258897019L
L0L
(lp1964
(lp1965
tp1966
a(L3781799363L
L0L
(lp1967
(lp1968
tp1969
a(L3028464L
L0L
(lp1970
(lp1971
tp1972
a(L3549473510L
L0L
(lp1973
(lp1974
tp1975
a(L467019899L
L0L
(lp1976
(lp1977
tp1978
a(L307469760L
L0L
(lp1979
(lp1980
tp1981
a(L4185756579L
L0L
(lp1982
(lp1983
tp1984
a(L3458855836L
L0L
(lp1985
(lp1986
tp1987
a(L3126521138L
L0L
(lp1988
(lp1989
tp1990
a(L1305407438L
L0L
(lp1991
(lp1992
tp1993
a(L1305407469L
L0L
(lp1994
(lp1995
tp1996
atp1997
sI1074240668
(Vbootloader_console_deinit
p1998
(lp1999
(L2887876151L
L0L
(lp2000
(lp2001
tp2002
atp2003
sI1074240684
(V__assert_func
p2004
(lp2005
(L2599700881L
L0L
(lp2006
(lp2007
tp2008
a(L106L
L0L
(lp2009
(lp2010
tp2011
atp2012
sI1074237100
(Vbootloader_common_ota_select_crc
p2013
(lp2014
(L3803478238L
L0L
(lp2015
(lp2016
tp2017
atp2018
sI1074237352
(Vbootloader_common_ota_select_invalid
p2019
(lp2020
(L4027567199L
L0L
(lp2021
(lp2022
tp2023
a(L3397985842L
L0L
(lp2024
(lp2025
tp2026
a(L2258867228L
L0L
(lp2027
(lp2028
tp2029
a(L3785235668L
L0L
(lp2030
(lp2031
tp2032
atp2033
sI1074243496
(Vesp_rom_spiflash_program_page_internal
p2034
(lp2035
(L2569069283L
L0L
(lp2036
(lp2037
tp2038
a(L2258688483L
L0L
(lp2039
(lp2040
tp2041
a(L3360570486L
L0L
(lp2042
(lp2043
tp2044
a(L3979593906L
L0L
(lp2045
(lp2046
tp2047
a(L4235661475L
L3785322319L
(lp2048
(lp2049
Vesp_rom_spiflash_wait_idle
p2050
atp2051
a(L1299866312L
L0L
(lp2052
(lp2053
tp2054
a(L3212356251L
L3785322319L
(lp2055
(lp2056
Vesp_rom_spiflash_enable_write
p2057
atp2058
a(L365375006L
L0L
(lp2059
(lp2060
tp2061
a(L3373459509L
L0L
(lp2062
(lp2063
tp2064
a(L2953702749L
L0L
(lp2065
(lp2066
tp2067
a(L2989032L
L0L
(lp2068
(lp2069
tp2070
a(L1965622133L
L0L
(lp2071
(lp2072
tp2073
a(L580718687L
L0L
(lp2074
(lp2075
tp2076
a(L1958113242L
L0L
(lp2077
(lp2078
tp2079
a(L106L
L0L
(lp2080
(lp2081
tp2082
a(L4283177684L
L0L
(lp2083
(lp2084
tp2085
a(L1405253496L
L0L
(lp2086
(lp2087
tp2088
a(L1008982350L
L0L
(lp2089
(lp2090
tp2091
a(L1933954923L
L0L
(lp2092
(lp2093
tp2094
a(L3886319556L
L0L
(lp2095
(lp2096
tp2097
a(L2767679583L
L0L
(lp2098
(lp2099
tp2100
atp2101
sI1074247092
(Vrtc_clk_xtal_freq_get
p2102
(lp2103
(L1542611135L
L0L
(lp2104
(lp2105
tp2106
a(L2847936993L
L0L
(lp2107
(lp2108
tp2109
a(L1997005089L
L0L
(lp2110
(lp2111
tp2112
a(L3360570486L
L0L
(lp2113
(lp2114
tp2115
atp2116
sI1074239924
(Vbootloader_reset
p2117
(lp2118
(L2775844488L
L3785322319L
(lp2119
(lp2120
Vbootloader_console_deinit
p2121
atp2122
a(L106L
L0L
(lp2123
(lp2124
tp2125
atp2126
sI1074247348
(Vrtc_clk_xtal_freq_update
p2127
(lp2128
(L1808953078L
L0L
(lp2129
(lp2130
tp2131
a(L3509357017L
L0L
(lp2132
(lp2133
tp2134
a(L3020103887L
L0L
(lp2135
(lp2136
tp2137
atp2138
sI1074247860
(Vrtc_clk_cal_internal
p2139
(lp2140
(L2906951969L
L0L
(lp2141
(lp2142
tp2143
a(L3445858248L
L3785322319L
(lp2144
(lp2145
V__assert_func
p2146
atp2147
a(L459043500L
L0L
(lp2148
(lp2149
tp2150
a(L3017366L
L0L
(lp2151
(lp2152
tp2153
a(L2781091364L
L0L
(lp2154
(lp2155
tp2156
a(L4169864463L
L1880226080L
(lp2157
(lp2158
Vrtc_clk_8m_enabled
p2159
aVrtc_clk_8md256_enabled
p2160
atp2161
a(L1223459660L
L3785322319L
(lp2162
(lp2163
Vrtc_clk_8m_enable
p2164
atp2165
a(L795047687L
L0L
(lp2166
(lp2167
tp2168
a(L3502850147L
L0L
(lp2169
(lp2170
tp2171
a(L97689L
L0L
(lp2172
(lp2173
tp2174
a(L2648616778L
L0L
(lp2175
(lp2176
tp2177
a(L3028464L
L0L
(lp2178
(lp2179
tp2180
a(L3028481L
L0L
(lp2181
(lp2182
tp2183
a(L3450259802L
L0L
(lp2184
(lp2185
tp2186
a(L2793338014L
L3785322319L
(lp2187
(lp2188
Vrtc_clk_xtal_freq_get
p2189
atp2190
a(L2780079961L
L0L
(lp2191
(lp2192
tp2193
a(L1498343890L
L0L
(lp2194
(lp2195
tp2196
a(L2205878296L
L3785322319L
(lp2197
(lp2198
Vesp_log_early_timestamp
p2199
atp2200
a(L3360570486L
L0L
(lp2201
(lp2202
tp2203
a(L2778524811L
L0L
(lp2204
(lp2205
tp2206
a(L748565485L
L0L
(lp2207
(lp2208
tp2209
a(L3028481L
L0L
(lp2210
(lp2211
tp2212
a(L3379927380L
L0L
(lp2213
(lp2214
tp2215
a(L755155573L
L3785322319L
(lp2216
(lp2217
Vrtc_clk_8m_enable
p2218
atp2219
a(L3631005548L
L0L
(lp2220
(lp2221
tp2222
a(L4079053830L
L0L
(lp2223
(lp2224
tp2225
a(L3352263364L
L0L
(lp2226
(lp2227
tp2228
atp2229
sI1074242992
(Vbootloader_load_image
p2230
(lp2231
(L1155870502L
L3785322319L
(lp2232
(lp2233
Vimage_load
p2234
atp2235
atp2236
sI1074269872
(Vesp_cpu_configure_region_protection
p2237
(lp2238
(L2937137248L
L0L
(lp2239
(lp2240
tp2241
a(L180431425L
L3785322319L
(lp2242
(lp2243
Vmpu_hal_set_region_access
p2244
atp2245
a(L2537388152L
L3785322319L
(lp2246
(lp2247
Vmpu_hal_set_region_access
p2248
atp2249
atp2250
sI1074245820
(Vwdt_hal_set_flashboot_en
p2251
(lp2252
(L2375320464L
L0L
(lp2253
(lp2254
tp2255
a(L2716561907L
L0L
(lp2256
(lp2257
tp2258
a(L3360570486L
L0L
(lp2259
(lp2260
tp2261
a(L2967380441L
L0L
(lp2262
(lp2263
tp2264
atp2265
sI1074269640
(Vbootloader_config_wdt
p2266
(lp2267
(L1795339050L
L505859776L
(lp2268
(lp2269
Vwdt_hal_write_protect_disable
p2270
aVwdt_hal_set_flashboot_en
p2271
aVwdt_hal_write_protect_enable
p2272
aVwdt_hal_init
p2273
aVrtc_clk_slow_freq_get_hz
p2274
aVwdt_hal_write_protect_disable
p2275
aVwdt_hal_config_stage
p2276
aVwdt_hal_enable
p2277
aVwdt_hal_write_protect_enable
p2278
aVwdt_hal_write_protect_disable
p2279
aVwdt_hal_set_flashboot_en
p2280
aVwdt_hal_write_protect_enable
p2281
atp2282
atp2283
sI1074237380
(Vbootloader_common_select_otadata
p2284
(lp2285
(L2342662536L
L0L
(lp2286
(lp2287
tp2288
a(L3806783650L
L0L
(lp2289
(lp2290
tp2291
a(L1674928252L
L0L
(lp2292
(lp2293
tp2294
a(L251571983L
L0L
(lp2295
(lp2296
tp2297
a(L3360570486L
L0L
(lp2298
(lp2299
tp2300
a(L2045232488L
L0L
(lp2301
(lp2302
tp2303
a(L189726519L
L0L
(lp2304
(lp2305
tp2306
a(L3095066987L
L0L
(lp2307
(lp2308
tp2309
a(L3592023188L
L0L
(lp2310
(lp2311
tp2312
a(L1641201884L
L0L
(lp2313
(lp2314
tp2315
atp2316
sI1074238148
(Vbootloader_enable_wp
p2317
(lp2318
(L1117825804L
L3785322319L
(lp2319
(lp2320
Vbootloader_execute_flash_command
p2321
atp2322
atp2323
sI1074240708
(Vabort
p2324
(lp2325
(L955159064L
L0L
(lp2326
(lp2327
tp2328
a(L409441471L
L0L
(lp2329
(lp2330
tp2331
a(L106L
L0L
(lp2332
(lp2333
tp2334
atp2335
sI1074246596
(Vrtc_clk_slow_freq_get
p2336
(lp2337
(L772186783L
L0L
(lp2338
(lp2339
tp2340
atp2341
sI1074243008
(Vesp_partition_table_verify
p2342
(lp2343
(L1518656766L
L0L
(lp2344
(lp2345
tp2346
a(L1171913712L
L0L
(lp2347
(lp2348
tp2349
a(L4287435191L
L0L
(lp2350
(lp2351
tp2352
a(L2910371777L
L0L
(lp2353
(lp2354
tp2355
a(L2810785767L
L0L
(lp2356
(lp2357
tp2358
a(L3360570486L
L0L
(lp2359
(lp2360
tp2361
a(L2334946637L
L0L
(lp2362
(lp2363
tp2364
a(L2478753082L
L0L
(lp2365
(lp2366
tp2367
a(L3020204L
L0L
(lp2368
(lp2369
tp2370
a(L1279341933L
L3785322319L
(lp2371
(lp2372
Vesp_log_early_timestamp
p2373
atp2374
a(L3525717030L
L3785322319L
(lp2375
(lp2376
Vesp_log_early_timestamp
p2377
atp2378
a(L4060082208L
L0L
(lp2379
(lp2380
tp2381
a(L2902417580L
L0L
(lp2382
(lp2383
tp2384
a(L3020204L
L0L
(lp2385
(lp2386
tp2387
a(L1980931690L
L3785322319L
(lp2388
(lp2389
Vesp_log_early_timestamp
p2390
atp2391
a(L1367516498L
L0L
(lp2392
(lp2393
tp2394
a(L3814391302L
L0L
(lp2395
(lp2396
tp2397
a(L2902417580L
L0L
(lp2398
(lp2399
tp2400
a(L1279340476L
L3785322319L
(lp2401
(lp2402
Vesp_log_early_timestamp
p2403
atp2404
a(L1613213999L
L0L
(lp2405
(lp2406
tp2407
a(L1167861556L
L0L
(lp2408
(lp2409
tp2410
a(L3260980605L
L0L
(lp2411
(lp2412
tp2413
a(L2910371777L
L0L
(lp2414
(lp2415
tp2416
a(L1235012932L
L0L
(lp2417
(lp2418
tp2419
a(L2384762683L
L3785322319L
(lp2420
(lp2421
Vesp_log_early_timestamp
p2422
atp2423
atp2424
sI1074237632
(Vbootloader_munmap
p2425
(lp2426
(L1406971354L
L0L
(lp2427
(lp2428
tp2429
a(L1341401488L
L0L
(lp2430
(lp2431
tp2432
a(L3360570486L
L0L
(lp2433
(lp2434
tp2435
atp2436
sI1074237120
(Vbootloader_common_ota_select_valid
p2437
(lp2438
(L1563399710L
L3785322319L
(lp2439
(lp2440
Vbootloader_common_ota_select_invalid
p2441
atp2442
a(L3814720849L
L3785322319L
(lp2443
(lp2444
Vbootloader_common_ota_select_crc
p2445
atp2446
a(L3360570486L
L0L
(lp2447
(lp2448
tp2449
atp2450
sI1074244812
(Vwdt_hal_init
p2451
(lp2452
(L1204084869L
L0L
(lp2453
(lp2454
tp2455
a(L397764803L
L0L
(lp2456
(lp2457
tp2458
a(L2805933868L
L0L
(lp2459
(lp2460
tp2461
a(L3092044116L
L0L
(lp2462
(lp2463
tp2464
a(L1157874369L
L0L
(lp2465
(lp2466
tp2467
a(L3360570486L
L0L
(lp2468
(lp2469
tp2470
a(L3570943104L
L0L
(lp2471
(lp2472
tp2473
atp2474
sI1074235336
(Vbootloader_execute_flash_command
p2475
(lp2476
(L2481595632L
L3785322319L
(lp2477
(lp2478
Vbootloader_flash_execute_command_common
p2479
atp2480
atp2481
sI1074239956
(Vbootloader_utility_load_boot_image
p2482
(lp2483
(L1561528311L
L0L
(lp2484
(lp2485
tp2486
a(L2177418995L
L3785322319L
(lp2487
(lp2488
Vtry_load_partition
p2489
atp2490
a(L2749106626L
L3785322319L
(lp2491
(lp2492
Vload_image
p2493
atp2494
a(L3017448975L
L3785322319L
(lp2495
(lp2496
Vesp_log_early_timestamp
p2497
atp2498
a(L3827921190L
L3785322319L
(lp2499
(lp2500
Vbootloader_reset
p2501
atp2502
a(L2542673780L
L3785322319L
(lp2503
(lp2504
Vindex_to_partition
p2505
atp2506
a(L1204373741L
L3785322319L
(lp2507
(lp2508
Vtry_load_partition
p2509
atp2510
a(L3020187L
L0L
(lp2511
(lp2512
tp2513
a(L4183184105L
L0L
(lp2514
(lp2515
tp2516
a(L2070875117L
L3785322319L
(lp2517
(lp2518
Vset_actual_ota_seq
p2519
atp2520
a(L1868897605L
L3785322319L
(lp2521
(lp2522
Vlog_invalid_app_partition
p2523
atp2524
a(L831650730L
L0L
(lp2525
(lp2526
tp2527
a(L3021737L
L0L
(lp2528
(lp2529
tp2530
a(L4083823862L
L0L
(lp2531
(lp2532
tp2533
a(L3818328201L
L3785322319L
(lp2534
(lp2535
Vtry_load_partition
p2536
atp2537
a(L2415418022L
L3785322319L
(lp2538
(lp2539
Vesp_log_early_timestamp
p2540
atp2541
a(L2185156151L
L3785322319L
(lp2542
(lp2543
Vindex_to_partition
p2544
atp2545
a(L1074657773L
L3785322319L
(lp2546
(lp2547
Vtry_load_partition
p2548
atp2549
a(L3027024L
L0L
(lp2550
(lp2551
tp2552
a(L1706561638L
L0L
(lp2553
(lp2554
tp2555
a(L3061261803L
L0L
(lp2556
(lp2557
tp2558
a(L3582858798L
L3785322319L
(lp2559
(lp2560
Vlog_invalid_app_partition
p2561
atp2562
a(L2838063384L
L3785322319L
(lp2563
(lp2564
Vesp_log_early_timestamp
p2565
atp2566
atp2567
sI1074234836
(Vbootloader_flash_execute_command_common
p2568
(lp2569
(L630859308L
L0L
(lp2570
(lp2571
tp2572
a(L120555568L
L0L
(lp2573
(lp2574
tp2575
a(L2925418774L
L3785322319L
(lp2576
(lp2577
V__assert_func
p2578
atp2579
a(L3021749L
L0L
(lp2580
(lp2581
tp2582
a(L153183052L
L0L
(lp2583
(lp2584
tp2585
a(L3132325827L
L0L
(lp2586
(lp2587
tp2588
a(L1782874522L
L0L
(lp2589
(lp2590
tp2591
a(L4024113366L
L0L
(lp2592
(lp2593
tp2594
a(L2147958864L
L0L
(lp2595
(lp2596
tp2597
a(L831940355L
L0L
(lp2598
(lp2599
tp2600
a(L2039827138L
L0L
(lp2601
(lp2602
tp2603
a(L2429937038L
L0L
(lp2604
(lp2605
tp2606
a(L2186295391L
L0L
(lp2607
(lp2608
tp2609
a(L3079186448L
L0L
(lp2610
(lp2611
tp2612
a(L3333696662L
L0L
(lp2613
(lp2614
tp2615
a(L963425213L
L0L
(lp2616
(lp2617
tp2618
a(L3172016656L
L0L
(lp2619
(lp2620
tp2621
a(L3360570486L
L0L
(lp2622
(lp2623
tp2624
a(L1184240068L
L0L
(lp2625
(lp2626
tp2627
atp2628
sI1074246612
(Vrtc_clk_slow_freq_get_hz
p2629
(lp2630
(L3105642876L
L0L
(lp2631
(lp2632
tp2633
a(L611533329L
L0L
(lp2634
(lp2635
tp2636
a(L3360570486L
L0L
(lp2637
(lp2638
tp2639
atp2640
sI1074246352
(Vrtc_clk_8m_enable
p2641
(lp2642
(L2387201586L
L0L
(lp2643
(lp2644
tp2645
a(L752960688L
L0L
(lp2646
(lp2647
tp2648
a(L2151320156L
L0L
(lp2649
(lp2650
tp2651
a(L1391734358L
L0L
(lp2652
(lp2653
tp2654
a(L3360570486L
L0L
(lp2655
(lp2656
tp2657
a(L1318267208L
L0L
(lp2658
(lp2659
tp2660
a(L2506900513L
L0L
(lp2661
(lp2662
tp2663
atp2664
sI1074236880
(Vefuse_hal_chip_revision
p2665
(lp2666
(L1761205471L
L1880226080L
(lp2667
(lp2668
Vefuse_hal_get_major_chip_version
p2669
aVefuse_hal_get_minor_chip_version
p2670
atp2671
atp2672
sI1074247132
(Vrtc_clk_cpu_freq_mhz_to_config
p2673
(lp2674
(L2601984125L
L3785322319L
(lp2675
(lp2676
Vrtc_clk_xtal_freq_get
p2677
atp2678
a(L2089656409L
L0L
(lp2679
(lp2680
tp2681
a(L3814337874L
L0L
(lp2682
(lp2683
tp2684
a(L3126521138L
L0L
(lp2685
(lp2686
tp2687
a(L2762074623L
L0L
(lp2688
(lp2689
tp2690
a(L1541996779L
L0L
(lp2691
(lp2692
tp2693
a(L2916936348L
L0L
(lp2694
(lp2695
tp2696
a(L1555485793L
L0L
(lp2697
(lp2698
tp2699
a(L2258897023L
L0L
(lp2700
(lp2701
tp2702
a(L1947499251L
L0L
(lp2703
(lp2704
tp2705
a(L1306331021L
L0L
(lp2706
(lp2707
tp2708
atp2709
sI1074267860
(Vbootloader_common_vddsdio_configure
p2710
(lp2711
(L1922017289L
L3785322319L
(lp2712
(lp2713
Vrtc_vddsdio_get_config
p2714
atp2715
a(L1612109748L
L3785322319L
(lp2716
(lp2717
Vrtc_vddsdio_set_config
p2718
atp2719
a(L3360570486L
L0L
(lp2720
(lp2721
tp2722
atp2723
sI1074240472
(Vbootloader_sha256_finish
p2724
(lp2725
(L4066096136L
L0L
(lp2726
(lp2727
tp2728
a(L2426305169L
L0L
(lp2729
(lp2730
tp2731
a(L3850111886L
L3785322319L
(lp2732
(lp2733
V__assert_func
p2734
atp2735
a(L3020204L
L0L
(lp2736
(lp2737
tp2738
a(L4168155120L
L0L
(lp2739
(lp2740
tp2741
a(L2534656226L
L0L
(lp2742
(lp2743
tp2744
a(L594679483L
L3785322319L
(lp2745
(lp2746
Vbootloader_sha256_data
p2747
atp2748
a(L3284853523L
L0L
(lp2749
(lp2750
tp2751
a(L2128130505L
L3785322319L
(lp2752
(lp2753
Vbootloader_sha256_data
p2754
atp2755
a(L3330117473L
L0L
(lp2756
(lp2757
tp2758
a(L657425439L
L0L
(lp2759
(lp2760
tp2761
a(L291134599L
L0L
(lp2762
(lp2763
tp2764
a(L657425439L
L0L
(lp2765
(lp2766
tp2767
a(L3130909398L
L0L
(lp2768
(lp2769
tp2770
a(L2804482273L
L0L
(lp2771
(lp2772
tp2773
a(L3347778L
L0L
(lp2774
(lp2775
tp2776
a(L3360570486L
L0L
(lp2777
(lp2778
tp2779
atp2780
sI1074238168
(Vbootloader_mmap_get_free_pages
p2781
(lp2782
(L1496516875L
L0L
(lp2783
(lp2784
tp2785
atp2786
sI1074240216
(Vindex_to_partition
p2787
(lp2788
(L4066096119L
L0L
(lp2789
(lp2790
tp2791
a(L1739185955L
L0L
(lp2792
(lp2793
tp2794
a(L2171552758L
L0L
(lp2795
(lp2796
tp2797
a(L2808906342L
L0L
(lp2798
(lp2799
tp2800
a(L2101481936L
L0L
(lp2801
(lp2802
tp2803
a(L3698927993L
L0L
(lp2804
(lp2805
tp2806
a(L2808826781L
L0L
(lp2807
(lp2808
tp2809
a(L3003398163L
L0L
(lp2810
(lp2811
tp2812
a(L1104460200L
L0L
(lp2813
(lp2814
tp2815
a(L1087646172L
L0L
(lp2816
(lp2817
tp2818
atp2819
sI1074237156
(Vbootloader_common_check_chip_validity
p2820
(lp2821
(L409865374L
L0L
(lp2822
(lp2823
tp2824
a(L3008458885L
L3785322319L
(lp2825
(lp2826
Vesp_log_early_timestamp
p2827
atp2828
a(L1508931617L
L3785322319L
(lp2829
(lp2830
Vefuse_hal_chip_revision
p2831
atp2832
a(L93674324L
L0L
(lp2833
(lp2834
tp2835
a(L4170554374L
L3785322319L
(lp2836
(lp2837
Vesp_log_early_timestamp
p2838
atp2839
a(L1641201884L
L0L
(lp2840
(lp2841
tp2842
a(L2258688482L
L0L
(lp2843
(lp2844
tp2845
a(L3360570486L
L0L
(lp2846
(lp2847
tp2848
atp2849
sI1074270700
(Vrtc_vddsdio_set_config
p2850
(lp2851
(L2913621689L
L0L
(lp2852
(lp2853
tp2854
atp2855
sI1074239200
(Vtry_load_partition
p2856
(lp2857
(L1263750142L
L0L
(lp2858
(lp2859
tp2860
a(L2258688482L
L0L
(lp2861
(lp2862
tp2863
a(L3360570486L
L0L
(lp2864
(lp2865
tp2866
a(L530241438L
L3785322319L
(lp2867
(lp2868
Vbootloader_load_image
p2869
atp2870
a(L3866049243L
L3785322319L
(lp2871
(lp2872
Vesp_log_early_timestamp
p2873
atp2874
atp2875
sI1074238176
(Vbootloader_fill_random
p2876
(lp2877
(L3026789978L
L0L
(lp2878
(lp2879
tp2880
a(L1056102925L
L0L
(lp2881
(lp2882
tp2883
a(L97689L
L0L
(lp2884
(lp2885
tp2886
a(L3360570486L
L0L
(lp2887
(lp2888
tp2889
a(L353495740L
L3785322319L
(lp2890
(lp2891
V__assert_func
p2892
atp2893
a(L2008660626L
L0L
(lp2894
(lp2895
tp2896
a(L3028481L
L0L
(lp2897
(lp2898
tp2899
a(L983138374L
L0L
(lp2900
(lp2901
tp2902
a(L2607138306L
L0L
(lp2903
(lp2904
tp2905
a(L1982128194L
L0L
(lp2906
(lp2907
tp2908
atp2909
sI1074236640
(Vbootloader_common_get_chip_ver_pkg
p2910
(lp2911
(L1176319107L
L0L
(lp2912
(lp2913
tp2914
atp2915
sI1074242528
(Vimage_load
p2916
(lp2917
(L745499722L
L0L
(lp2918
(lp2919
tp2920
a(L1899869538L
L0L
(lp2921
(lp2922
tp2923
a(L9219888L
L0L
(lp2924
(lp2925
tp2926
a(L3287910782L
L0L
(lp2927
(lp2928
tp2929
a(L3020187L
L0L
(lp2930
(lp2931
tp2932
a(L3991327922L
L3785322319L
(lp2933
(lp2934
Vesp_log_early_timestamp
p2935
atp2936
a(L2068384292L
L0L
(lp2937
(lp2938
tp2939
a(L1968553470L
L3785322319L
(lp2940
(lp2941
Vbootloader_sha256_finish
p2942
atp2943
a(L2488000255L
L0L
(lp2944
(lp2945
tp2946
a(L3271848319L
L0L
(lp2947
(lp2948
tp2949
a(L1182930974L
L0L
(lp2950
(lp2951
tp2952
a(L3678851644L
L3785322319L
(lp2953
(lp2954
Vprocess_image_header
p2955
atp2956
a(L1341816907L
L0L
(lp2957
(lp2958
tp2959
a(L909494482L
L0L
(lp2960
(lp2961
tp2962
a(L1028073566L
L3785322319L
(lp2963
(lp2964
Vprocess_segments
p2965
atp2966
a(L3803885910L
L0L
(lp2967
(lp2968
tp2969
a(L94425498L
L3785322319L
(lp2970
(lp2971
Vesp_cpu_in_ocd_debug_mode
p2972
atp2973
a(L454195650L
L3785322319L
(lp2974
(lp2975
Vprocess_checksum
p2976
atp2977
a(L1651117269L
L3785322319L
(lp2978
(lp2979
Vprocess_appended_hash
p2980
atp2981
a(L533710513L
L0L
(lp2982
(lp2983
tp2984
a(L505081362L
L0L
(lp2985
(lp2986
tp2987
a(L3212356251L
L3785322319L
(lp2988
(lp2989
Vesp_cpu_in_ocd_debug_mode
p2990
atp2991
a(L1198227567L
L1880226080L
(lp2992
(lp2993
Vbootloader_sha256_finish
p2994
aVbootloader_debug_buffer
p2995
atp2996
a(L3928684791L
L1880226080L
(lp2997
(lp2998
Vesp_log_early_timestamp
p2999
aVbootloader_debug_buffer
p3000
atp3001
a(L978077504L
L0L
(lp3002
(lp3003
tp3004
a(L2068384292L
L0L
(lp3005
(lp3006
tp3007
a(L858449684L
L3785322319L
(lp3008
(lp3009
Vbootloader_sha256_finish
p3010
atp3011
a(L3028481L
L0L
(lp3012
(lp3013
tp3014
a(L93674324L
L0L
(lp3015
(lp3016
tp3017
a(L3046569754L
L0L
(lp3018
(lp3019
tp3020
a(L2429164518L
L0L
(lp3021
(lp3022
tp3023
a(L3553619191L
L0L
(lp3024
(lp3025
tp3026
a(L85798113L
L0L
(lp3027
(lp3028
tp3029
a(L464010095L
L0L
(lp3030
(lp3031
tp3032
a(L835563811L
L3785322319L
(lp3033
(lp3034
Vshould_load
p3035
atp3036
a(L1358360603L
L0L
(lp3037
(lp3038
tp3039
a(L4224160879L
L0L
(lp3040
(lp3041
tp3042
a(L22884489L
L0L
(lp3043
(lp3044
tp3045
a(L741351569L
L0L
(lp3046
(lp3047
tp3048
a(L434644776L
L0L
(lp3049
(lp3050
tp3051
a(L106L
L0L
(lp3052
(lp3053
tp3054
a(L709419389L
L0L
(lp3055
(lp3056
tp3057
a(L1299866312L
L0L
(lp3058
(lp3059
tp3060
atp3061
sI1074243296
(Vesp_rom_spiflash_read_status
p3062
(lp3063
(L3562601385L
L0L
(lp3064
(lp3065
tp3066
a(L1182811815L
L0L
(lp3067
(lp3068
tp3069
a(L1932570474L
L0L
(lp3070
(lp3071
tp3072
a(L106L
L0L
(lp3073
(lp3074
tp3075
a(L1922848735L
L0L
(lp3076
(lp3077
tp3078
a(L4004659960L
L0L
(lp3079
(lp3080
tp3081
a(L2123059967L
L0L
(lp3082
(lp3083
tp3084
a(L1973734210L
L0L
(lp3085
(lp3086
tp3087
a(L2392720019L
L0L
(lp3088
(lp3089
tp3090
atp3091
sI1074247392
(Vrtc_clk_apb_freq_update
p3092
(lp3093
(L1841704389L
L0L
(lp3094
(lp3095
tp3096
atp3097
sI1074269920
(Vrtc_clk_xtal_freq_estimate
p3098
(lp3099
(L2516060585L
L1880226080L
(lp3100
(lp3101
Vrtc_clk_8m_enabled
p3102
aVrtc_clk_8md256_enabled
p3103
atp3104
a(L967485502L
L3785322319L
(lp3105
(lp3106
Vrtc_clk_8m_enable
p3107
atp3108
a(L3868271755L
L3785322319L
(lp3109
(lp3110
Vrtc_clk_cal_ratio
p3111
atp3112
a(L2531412100L
L0L
(lp3113
(lp3114
tp3115
a(L3360570486L
L0L
(lp3116
(lp3117
tp3118
a(L1994958769L
L3785322319L
(lp3119
(lp3120
Vesp_log_early_timestamp
p3121
atp3122
atp3123
sI1074244076
(Vesp_rom_spiflash_read
p3124
(lp3125
(L1049473468L
L0L
(lp3126
(lp3127
tp3128
a(L2962423754L
L0L
(lp3129
(lp3130
tp3131
a(L2860271684L
L0L
(lp3132
(lp3133
tp3134
a(L3017366L
L0L
(lp3135
(lp3136
tp3137
a(L106L
L0L
(lp3138
(lp3139
tp3140
a(L1382871118L
L0L
(lp3141
(lp3142
tp3143
a(L106L
L0L
(lp3144
(lp3145
tp3146
a(L1263787764L
L0L
(lp3147
(lp3148
tp3149
a(L3629779559L
L0L
(lp3150
(lp3151
tp3152
a(L1646084303L
L0L
(lp3153
(lp3154
tp3155
a(L3537851620L
L0L
(lp3156
(lp3157
tp3158
a(L106L
L0L
(lp3159
(lp3160
tp3161
a(L2670305459L
L3785322319L
(lp3162
(lp3163
Vesp_rom_spiflash_wait_idle
p3164
atp3165
a(L3021737L
L0L
(lp3166
(lp3167
tp3168
a(L106L
L0L
(lp3169
(lp3170
tp3171
a(L1868280504L
L0L
(lp3172
(lp3173
tp3174
a(L106L
L0L
(lp3175
(lp3176
tp3177
a(L3736481532L
L0L
(lp3178
(lp3179
tp3180
a(L1221163038L
L0L
(lp3181
(lp3182
tp3183
a(L4122060822L
L0L
(lp3184
(lp3185
tp3186
a(L121253891L
L0L
(lp3187
(lp3188
tp3189
a(L2989032L
L0L
(lp3190
(lp3191
tp3192
a(L3819849625L
L0L
(lp3193
(lp3194
tp3195
a(L2943133976L
L0L
(lp3196
(lp3197
tp3198
a(L159915120L
L0L
(lp3199
(lp3200
tp3201
a(L3901820614L
L0L
(lp3202
(lp3203
tp3204
a(L1019633599L
L0L
(lp3205
(lp3206
tp3207
a(L1896415737L
L0L
(lp3208
(lp3209
tp3210
a(L1522202953L
L0L
(lp3211
(lp3212
tp3213
a(L4279609317L
L0L
(lp3214
(lp3215
tp3216
a(L2964559468L
L0L
(lp3217
(lp3218
tp3219
a(L2267384310L
L0L
(lp3220
(lp3221
tp3222
a(L2696140277L
L0L
(lp3223
(lp3224
tp3225
a(L2687789892L
L0L
(lp3226
(lp3227
tp3228
a(L1405253496L
L0L
(lp3229
(lp3230
tp3231
a(L2402829682L
L0L
(lp3232
(lp3233
tp3234
a(L97689L
L0L
(lp3235
(lp3236
tp3237
a(L2258897019L
L0L
(lp3238
(lp3239
tp3240
a(L4014024819L
L0L
(lp3241
(lp3242
tp3243
a(L3621567083L
L0L
(lp3244
(lp3245
tp3246
atp3247
sI1074243816
(Vesp_rom_spiflash_write
p3248
(lp3249
(L1191373647L
L0L
(lp3250
(lp3251
tp3252
a(L2258688483L
L0L
(lp3253
(lp3254
tp3255
a(L3360570486L
L0L
(lp3256
(lp3257
tp3258
a(L1590344338L
L0L
(lp3259
(lp3260
tp3261
a(L3106685987L
L0L
(lp3262
(lp3263
tp3264
a(L4249336406L
L3785322319L
(lp3265
(lp3266
Vesp_rom_spiflash_program_page_internal
p3267
atp3268
a(L1915738254L
L3785322319L
(lp3269
(lp3270
Vesp_rom_spiflash_program_page_internal
p3271
atp3272
a(L663507325L
L0L
(lp3273
(lp3274
tp3275
a(L2392967593L
L0L
(lp3276
(lp3277
tp3278
a(L564470687L
L0L
(lp3279
(lp3280
tp3281
a(L154459701L
L3785322319L
(lp3282
(lp3283
Vesp_rom_spiflash_program_page_internal
p3284
atp3285
a(L2079643754L
L0L
(lp3286
(lp3287
tp3288
atp3289
sI1074235368
(Vbootloader_flash_unlock
p3290
(lp3291
(L142706334L
L3785322319L
(lp3292
(lp3293
Vesp_rom_spiflash_wait_idle
p3294
atp3295
a(L4024621237L
L0L
(lp3296
(lp3297
tp3298
a(L4292483033L
L3785322319L
(lp3299
(lp3300
Vbootloader_execute_flash_command
p3301
atp3302
a(L106L
L0L
(lp3303
(lp3304
tp3305
a(L1303560644L
L0L
(lp3306
(lp3307
tp3308
a(L1419965066L
L0L
(lp3309
(lp3310
tp3311
a(L106L
L0L
(lp3312
(lp3313
tp3314
a(L1633120054L
L0L
(lp3315
(lp3316
tp3317
a(L106L
L0L
(lp3318
(lp3319
tp3320
a(L2974484771L
L0L
(lp3321
(lp3322
tp3323
a(L106L
L0L
(lp3324
(lp3325
tp3326
a(L1481761147L
L1880226080L
(lp3327
(lp3328
Vbootloader_execute_flash_command
p3329
aVbootloader_execute_flash_command
p3330
atp3331
a(L2258807654L
L0L
(lp3332
(lp3333
tp3334
a(L489806350L
L1832448559L
(lp3335
(lp3336
Vesp_rom_spiflash_wait_idle
p3337
aVbootloader_execute_flash_command
p3338
aVbootloader_execute_flash_command
p3339
atp3340
a(L879744646L
L1832448559L
(lp3341
(lp3342
Vesp_rom_spiflash_wait_idle
p3343
aVbootloader_execute_flash_command
p3344
aVbootloader_execute_flash_command
p3345
atp3346
a(L1840772931L
L1880226080L
(lp3347
(lp3348
Vesp_rom_spiflash_wait_idle
p3349
aVbootloader_execute_flash_command
p3350
atp3351
a(L2993202392L
L0L
(lp3352
(lp3353
tp3354
a(L508800419L
L1880226080L
(lp3355
(lp3356
Vbootloader_execute_flash_command
p3357
aVbootloader_execute_flash_command
p3358
atp3359
a(L1303560369L
L0L
(lp3360
(lp3361
tp3362
a(L1596544945L
L0L
(lp3363
(lp3364
tp3365
a(L97689L
L0L
(lp3366
(lp3367
tp3368
a(L106L
L0L
(lp3369
(lp3370
tp3371
atp3372
sI1074241268
(Vbootloader_util_regions_overlap
p3373
(lp3374
(L2762640130L
L0L
(lp3375
(lp3376
tp3377
a(L3659618707L
L0L
(lp3378
(lp3379
tp3380
a(L1647451197L
L3785322319L
(lp3381
(lp3382
V__assert_func
p3383
atp3384
a(L97642L
L0L
(lp3385
(lp3386
tp3387
a(L3340801499L
L0L
(lp3388
(lp3389
tp3390
a(L366123053L
L0L
(lp3391
(lp3392
tp3393
a(L2258867228L
L0L
(lp3394
(lp3395
tp3396
a(L1253626734L
L0L
(lp3397
(lp3398
tp3399
a(L2258897019L
L0L
(lp3400
(lp3401
tp3402
a(L3109269495L
L0L
(lp3403
(lp3404
tp3405
atp3406
sI1074240756
(Vbootloader_ana_clock_glitch_reset_config
p3407
(lp3408
(L2100504542L
L0L
(lp3409
(lp3410
tp3411
atp3412
sI1074237684
(Vbootloader_flash_read
p3413
(lp3414
(L2699333355L
L0L
(lp3415
(lp3416
tp3417
a(L1134859429L
L3785322319L
(lp3418
(lp3419
Vesp_log_early_timestamp
p3420
atp3421
a(L44113432L
L0L
(lp3422
(lp3423
tp3424
a(L1299867982L
L0L
(lp3425
(lp3426
tp3427
a(L3360570486L
L0L
(lp3428
(lp3429
tp3430
a(L2660352519L
L0L
(lp3431
(lp3432
tp3433
a(L3132108828L
L3785322319L
(lp3434
(lp3435
Vesp_log_early_timestamp
p3436
atp3437
a(L162336582L
L0L
(lp3438
(lp3439
tp3440
a(L1181807953L
L3785322319L
(lp3441
(lp3442
Vesp_log_early_timestamp
p3443
atp3444
a(L3020204L
L0L
(lp3445
(lp3446
tp3447
a(L1398573769L
L0L
(lp3448
(lp3449
tp3450
a(L97422L
L0L
(lp3451
(lp3452
tp3453
a(L2018549829L
L0L
(lp3454
(lp3455
tp3456
a(L1895240536L
L0L
(lp3457
(lp3458
tp3459
a(L486806570L
L3785322319L
(lp3460
(lp3461
Vesp_log_early_timestamp
p3462
atp3463
a(L413914689L
L0L
(lp3464
(lp3465
tp3466
a(L2869220355L
L0L
(lp3467
(lp3468
tp3469
a(L1280600787L
L3785322319L
(lp3470
(lp3471
Vesp_rom_spiflash_read
p3472
atp3473
a(L106L
L0L
(lp3474
(lp3475
tp3476
a(L248331579L
L0L
(lp3477
(lp3478
tp3479
atp3480
sI1074246644
(Vrtc_clk_fast_freq_set
p3481
(lp3482
(L1561398871L
L0L
(lp3483
(lp3484
tp3485
atp3486
sI1074236912
(Vefuse_hal_get_major_chip_version
p3487
(lp3488
(L3421545156L
L0L
(lp3489
(lp3490
tp3491
a(L3989534928L
L0L
(lp3492
(lp3493
tp3494
a(L3360570486L
L0L
(lp3495
(lp3496
tp3497
atp3498
sI1074241008
(Vprocess_image_header
p3499
(lp3500
(L2618347250L
L3785322319L
(lp3501
(lp3502
Vbootloader_flash_read
p3503
atp3504
a(L3020204L
L0L
(lp3505
(lp3506
tp3507
a(L182056016L
L0L
(lp3508
(lp3509
tp3510
a(L1727394037L
L0L
(lp3511
(lp3512
tp3513
a(L1161397362L
L3785322319L
(lp3514
(lp3515
Vbootloader_sha256_start
p3516
atp3517
a(L2062774299L
L3785322319L
(lp3518
(lp3519
Vbootloader_sha256_data
p3520
atp3521
a(L2226581267L
L0L
(lp3522
(lp3523
tp3524
a(L3020204L
L0L
(lp3525
(lp3526
tp3527
a(L3200755544L
L0L
(lp3528
(lp3529
tp3530
a(L2983970029L
L0L
(lp3531
(lp3532
tp3533
a(L2084831782L
L3785322319L
(lp3534
(lp3535
Vesp_log_early_timestamp
p3536
atp3537
a(L3028481L
L0L
(lp3538
(lp3539
tp3540
a(L2299376216L
L0L
(lp3541
(lp3542
tp3543
a(L3519447553L
L3785322319L
(lp3544
(lp3545
Vesp_log_early_timestamp
p3546
atp3547
a(L2886566498L
L0L
(lp3548
(lp3549
tp3550
a(L1287309200L
L3785322319L
(lp3551
(lp3552
Vesp_log_early_timestamp
p3553
atp3554
a(L545088956L
L3785322319L
(lp3555
(lp3556
Vbootloader_common_check_chip_validity
p3557
atp3558
a(L2786305996L
L0L
(lp3559
(lp3560
tp3561
a(L3028481L
L0L
(lp3562
(lp3563
tp3564
a(L3356138668L
L3785322319L
(lp3565
(lp3566
Vesp_log_early_timestamp
p3567
atp3568
a(L2852701393L
L0L
(lp3569
(lp3570
tp3571
a(L2122516551L
L0L
(lp3572
(lp3573
tp3574
a(L3064492592L
L0L
(lp3575
(lp3576
tp3577
atp3578
sI1074240764
(Vprocess_appended_hash
p3579
(lp3580
(L3580132405L
L0L
(lp3581
(lp3582
tp3583
a(L3028481L
L0L
(lp3584
(lp3585
tp3586
a(L1591589631L
L0L
(lp3587
(lp3588
tp3589
a(L1864319304L
L0L
(lp3590
(lp3591
tp3592
a(L2876597018L
L0L
(lp3593
(lp3594
tp3595
a(L1201342627L
L3785322319L
(lp3596
(lp3597
Vesp_log_early_timestamp
p3598
atp3599
a(L894030452L
L3785322319L
(lp3600
(lp3601
Vbootloader_flash_read
p3602
atp3603
a(L3871473710L
L0L
(lp3604
(lp3605
tp3606
atp3607
sI1074247420
(Vrtc_clk_cpu_freq_to_xtal
p3608
(lp3609
(L3369108494L
L3785322319L
(lp3610
(lp3611
Vrtc_clk_apb_freq_update
p3612
atp3613
a(L702736306L
L0L
(lp3614
(lp3615
tp3616
a(L277445412L
L0L
(lp3617
(lp3618
tp3619
a(L309988740L
L0L
(lp3620
(lp3621
tp3622
atp3623
sI1074268148
(Vbootloader_init
p3624
(lp3625
(L2956637306L
L3785322319L
(lp3626
(lp3627
Vbootloader_init_mem
p3628
atp3629
a(L1574759535L
L0L
(lp3630
(lp3631
tp3632
a(L2505738386L
L3785322319L
(lp3633
(lp3634
V__assert_func
p3635
atp3636
a(L1991724622L
L0L
(lp3637
(lp3638
tp3639
a(L966001373L
L0L
(lp3640
(lp3641
tp3642
a(L2926278337L
L0L
(lp3643
(lp3644
tp3645
a(L2369200439L
L0L
(lp3646
(lp3647
tp3648
a(L3027019L
L0L
(lp3649
(lp3650
tp3651
a(L273728577L
L0L
(lp3652
(lp3653
tp3654
a(L693405810L
L1832448559L
(lp3655
(lp3656
Vbootloader_clear_bss_section
p3657
aVbootloader_common_vddsdio_configure
p3658
aVbootloader_clock_get_rated_freq_mhz
p3659
atp3660
a(L3987130017L
L1157885199L
(lp3661
(lp3662
Vbootloader_clock_configure
p3663
aVbootloader_console_init
p3664
aVbootloader_print_banner
p3665
aVbootloader_flash_update_id
p3666
aVbootloader_flash_xmc_startup
p3667
atp3668
a(L454185234L
L3785322319L
(lp3669
(lp3670
Vesp_log_early_timestamp
p3671
atp3672
a(L887072750L
L3785322319L
(lp3673
(lp3674
Vesp_log_early_timestamp
p3675
atp3676
a(L3360570486L
L0L
(lp3677
(lp3678
tp3679
a(L2444883382L
L3785322319L
(lp3680
(lp3681
Vbootloader_read_bootloader_header
p3682
atp3683
a(L2444883382L
L3785322319L
(lp3684
(lp3685
Vbootloader_check_bootloader_validity
p3686
atp3687
a(L675083476L
L1157885199L
(lp3688
(lp3689
Vbootloader_flash_gpio_config
p3690
aVbootloader_flash_dummy_config
p3691
aVbootloader_flash_cs_timing_config
p3692
aVbootloader_flash_unlock
p3693
aVesp_log_early_timestamp
p3694
atp3695
a(L1578764909L
L0L
(lp3696
(lp3697
tp3698
a(L1618476312L
L0L
(lp3699
(lp3700
tp3701
a(L1589847161L
L0L
(lp3702
(lp3703
tp3704
a(L1571376741L
L0L
(lp3705
(lp3706
tp3707
a(L3902505838L
L0L
(lp3708
(lp3709
tp3710
a(L255306491L
L3785322319L
(lp3711
(lp3712
Vesp_log_early_timestamp
p3713
atp3714
a(L1787773517L
L0L
(lp3715
(lp3716
tp3717
a(L2611896117L
L3785322319L
(lp3718
(lp3719
Vesp_log_early_timestamp
p3720
atp3721
a(L1613092619L
L0L
(lp3722
(lp3723
tp3724
a(L2393191567L
L3785322319L
(lp3725
(lp3726
Vbootloader_enable_wp
p3727
atp3728
a(L282760458L
L0L
(lp3729
(lp3730
tp3731
a(L2994055137L
L3785322319L
(lp3732
(lp3733
Vesp_log_early_timestamp
p3734
atp3735
a(L1328209163L
L0L
(lp3736
(lp3737
tp3738
a(L502323150L
L0L
(lp3739
(lp3740
tp3741
a(L2902417580L
L0L
(lp3742
(lp3743
tp3744
a(L1944713791L
L1880226080L
(lp3745
(lp3746
Vwdt_reset_info_dump
p3747
aVwdt_reset_info_dump
p3748
atp3749
a(L4235188628L
L1880226080L
(lp3750
(lp3751
Vbootloader_config_wdt
p3752
aVbootloader_enable_random
p3753
atp3754
a(L3867148451L
L3785322319L
(lp3755
(lp3756
Vesp_log_early_timestamp
p3757
atp3758
atp3759
ssS'functionsdups'
p3760
g11
((lp3761
tp3762
Rp3763
sS'immediatedups'
p3764
g11
((lp3765
tp3766
Rp3767
sS'functiondups'
p3768
g11
((lp3769
tp3770
Rp3771
sS'fuzzy'
p3772
(dp3773
L1536L
I1074240684
sL430153639L
I1074236024
sL3121027072L
I1074270540
sL2082889262L
I1074240764
sL45806640L
I1074236688
sL3879741902L
I1074241324
sL3538491111L
I1074247420
sL2919016435L
I1074235368
sL1540367692L
I1074269920
sL2680783959L
I1074235756
sL1600634745L
I1074237156
sL3512578114L
I1074239200
sL975599493L
I1074239064
sL114144873L
I1074237968
sL2469233929L
I1074240472
sL1792232694L
I1074246012
sL1377559356L
I1074242528
sL2475522855L
I1074269568
sL3051955266L
I1074268148
sL3897252859L
I1074238980
sL541189360L
I1074241008
sL1065525808L
I1074236996
sL2183816734L
I1074267776
sL2327783177L
I1074240856
sL1035771659L
I1074237684
sL1164839255L
I1074241812
sL449860969L
I1074247132
sL3210669721L
I1074246292
sL1332800441L
I1074237312
sL2884218272L
I1074267928
sL4160102055L
I1074239924
sL4202185385L
I1074243388
sL2966529024L
I1074246704
sL2453272040L
I1074247860
sL1768086576L
I1074236492
sL4171975289L
I1074243684
sL1565254297L
I1074243988
sL2191698036L
I1074269640
sL1513350244L
I1074239620
sL2474570535L
I1074238176
sL3428965560L
I1074247536
sL502463145L
I1074234836
sL3948954811L
I1074239248
sL519424169L
I1074248316
sL812946199L
I1074237460
sL737694352L
I1074243496
sL503029138L
I1074243436
sL277788135L
I1074244076
sL4253866342L
I1074239956
sL3991645697L
I1074268828
sL47534270L
I1074238596
sL2262558768L
I1074243296
sL424867129L
I1074243816
sL1554975810L
I1074237996
sL3834155367L
I1074241268
sL3791345684L
I1074269840
sL3883282432L
I1074241692
sL4173399607L
I1074243008
sL2726385143L
I1074245400
sL1667054119L
I1074240308
sL4191211306L
I1074247220
sL2687107543L
I1074270084
ssb.