ccopy_reg
_reconstructor
p0
(crizzo
RizzoSignature
p1
c__builtin__
object
p2
Ntp3
Rp4
(dp5
S'formal'
p6
(dp7
L2223608971L
I1074270700
sL3519684809L
I1074246184
sL4149167435L
I1074235752
sL276461182L
I1074237964
sL2284044839L
I1074243432
sL1887266168L
I1074239920
sL808269608L
I1074246696
sL2597089482L
I1074236908
sL2911663236L
I1074237628
sL2890361161L
I1074239196
sL863322725L
I1074243812
sL1254973916L
I1074242524
sL1935665484L
I1074267912
sL192953492L
I1074269640
sL2187074889L
I1074239616
sL2226187430L
I1074238264
sL4213015302L
I1074242988
sL343306603L
I1074237456
sL3337254644L
I1074268148
sL3211103558L
I1074236488
sL2028381634L
I1074245744
sL3513155648L
I1074241808
sL836519674L
I1074269012
sL3735572878L
I1074270084
sL765674116L
I1074269484
sL3830026594L
I1074247840
sL1010441494L
I1074247156
sL975534345L
I1074269792
sL3621260277L
I1074246604
sL3531248981L
I1074244072
sL421325868L
I1074239244
sL2896295319L
I1074236992
sL1626007763L
I1074246712
sL1657843434L
I1074238592
sL2590834774L
I1074270772
sL3203236307L
I1074245396
sL2360383375L
I1074237992
sL1200273099L
I1074239060
sL711588904L
I1074247560
sL1107838538L
I1074267860
sL2505869086L
I1074269920
sL4194771266L
I1074238172
sL3837264381L
I1074243680
sL3238403406L
I1074246536
sL3308004988L
I1074240304
sL908199027L
I1074247372
sL530188238L
I1074237680
sL1585823442L
I1074245884
sL744601145L
I1074235908
sL1725042831L
I1074240704
sL4155733485L
I1074240468
sL1271355812L
I1074235656
sL4166477364L
I1074241264
sL2500245347L
I1074247444
sL804327318L
I1074243292
sL4082028068L
I1074244808
sL3673616538L
I1074248340
sL1534552346L
I1074240680
sL2688421459L
I1074246620
sL1296682296L
I1074245948
sL2034515509L
I1074267928
sL2091577816L
I1074241320
sL2221717791L
I1074243984
sL256759610L
I1074236684
sL1977071264L
I1074246360
sL2057429215L
I1074246488
sL4167752981L
I1074268828
sL3307282855L
I1074238144
sL2039303434L
I1074237096
sL3499630867L
I1074236784
sL612086517L
I1074235364
sL3412901885L
I1074247416
sL1284626181L
I1074269568
sL4087607606L
I1074269840
sL2320225495L
I1074240284
sL703247988L
I1074237152
sL2846978095L
I1074243384
sL2941288911L
I1074239952
sL2662901275L
I1074240664
sL1156874576L
I1074236668
sL4243027010L
I1074269500
sL1652900655L
I1074238580
sL23021043L
I1074236020
sL3437515081L
I1074234832
sL2997001746L
I1074237308
sL1976922989L
I1074236720
sL2819127986L
I1074237116
sL1016152107L
I1074267776
sL2056504617L
I1074270540
sL4235827909L
I1074240852
sL1164083360L
I1074235708
sL1378821099L
I1074248308
sL1448845982L
I1074237064
sL4075620904L
I1074267139
sL2249539038L
I1074240212
sL2653730023L
I1074269524
sL3624870367L
I1074246652
sL1865528544L
I1074245912
sL4142749756L
I1074236636
sL3674356945L
I1074241688
sL3610701282L
I1074247244
sL2715371534L
I1074243004
sL734653982L
I1074246300
sL2263182908L
I1074238164
sL3953131333L
I1074240760
sL3113843266L
I1074247884
sL2302940057L
I1074246512
sL1142467576L
I1074245712
sL188664287L
I1074235332
sL2200618440L
I1074243492
sL2497478462L
I1074269764
sL2959238529L
I1074237376
sL692536993L
I1074237348
sL1104537139L
I1074246008
sL2319953056L
I1074238976
sL409201547L
I1074236976
sL3092573119L
I1074247116
sL2108247364L
I1074269872
sL3608561895L
I1074268996
sL243820144L
I1074241004
sL4267894680L
I1074236876
sL1616440742L
I1074245816
ssS'immediates'
p8
(dp9
sS'formaldups'
p10
c__builtin__
set
p11
((lp12
tp13
Rp14
sS'stringdups'
p15
g11
((lp16
tp17
Rp18
sS'fuzzydups'
p19
g11
((lp20
tp21
Rp22
sS'strings'
p23
(dp24
sS'functions'
p25
(dp26
I1074267912
(Vbootloader_common_get_reset_reason
p27
(lp28
(L2221583904L
L0L
(lp29
(lp30
tp31
atp32
sI1074235908
(Vbootloader_flash_cs_timing_config
p33
(lp34
(L3796536297L
L0L
(lp35
(lp36
tp37
atp38
sI1074238976
(Vlog_invalid_app_partition
p39
(lp40
(L4293078423L
L0L
(lp41
(lp42
tp43
a(L3028464L
L0L
(lp44
(lp45
tp46
a(L60127667L
L3785322319L
(lp47
(lp48
Vesp_log_early_timestamp
p49
atp50
a(L44113432L
L0L
(lp51
(lp52
tp53
a(L3360570486L
L0L
(lp54
(lp55
tp56
a(L1770519575L
L3785322319L
(lp57
(lp58
Vesp_log_early_timestamp
p59
atp60
a(L2524670070L
L3785322319L
(lp61
(lp62
Vesp_log_early_timestamp
p63
atp64
atp65
sI1074267136
(V_init
p66
(lp67
(L3493042598L
L0L
(lp68
(lp69
tp70
atp71
sI1074236684
(Vesp_rom_install_channel_putc
p72
(lp73
(L487865505L
L0L
(lp74
(lp75
tp76
a(L3020187L
L0L
(lp77
(lp78
tp79
a(L3360570486L
L0L
(lp80
(lp81
tp82
a(L4123957120L
L0L
(lp83
(lp84
tp85
a(L3627488788L
L0L
(lp86
(lp87
tp88
atp89
sI1074237964
(Vbootloader_flash_erase_sector
p90
(lp91
(L2049114289L
L3785322319L
(lp92
(lp93
Vesp_rom_spiflash_erase_sector
p94
atp95
a(L4127738745L
L0L
(lp96
(lp97
tp98
a(L3360570486L
L0L
(lp99
(lp100
tp101
atp102
sI1074239244
(Vbootloader_utility_load_partition_table
p103
(lp104
(L3347333331L
L3785322319L
(lp105
(lp106
Vbootloader_mmap
p107
atp108
a(L1428365196L
L3785322319L
(lp109
(lp110
Vesp_log_early_timestamp
p111
atp112
a(L2258688482L
L0L
(lp113
(lp114
tp115
a(L3360570486L
L0L
(lp116
(lp117
tp118
a(L2379286607L
L3785322319L
(lp119
(lp120
Vesp_partition_table_verify
p121
atp122
a(L2373960800L
L3785322319L
(lp123
(lp124
Vesp_log_early_timestamp
p125
atp126
a(L3501719726L
L1880226080L
(lp127
(lp128
Vesp_log_early_timestamp
p129
aVesp_log_early_timestamp
p130
atp131
a(L60599615L
L0L
(lp132
(lp133
tp134
a(L3214652505L
L1880226080L
(lp135
(lp136
Vbootloader_munmap
p137
aVesp_log_early_timestamp
p138
atp139
a(L4226553678L
L0L
(lp140
(lp141
tp142
a(L3028464L
L0L
(lp143
(lp144
tp145
a(L106L
L0L
(lp146
(lp147
tp148
a(L307915788L
L0L
(lp149
(lp150
tp151
a(L3616625116L
L3785322319L
(lp152
(lp153
Vesp_log_early_timestamp
p154
atp155
a(L3990577774L
L0L
(lp156
(lp157
tp158
a(L3020187L
L0L
(lp159
(lp160
tp161
a(L2563447427L
L0L
(lp162
(lp163
tp164
a(L1154512123L
L0L
(lp165
(lp166
tp167
a(L1112551755L
L0L
(lp168
(lp169
tp170
a(L1308290928L
L0L
(lp171
(lp172
tp173
a(L2202822289L
L0L
(lp174
(lp175
tp176
a(L1504681085L
L0L
(lp177
(lp178
tp179
a(L955456027L
L0L
(lp180
(lp181
tp182
atp183
sI1074267139
(V_text_start
p184
(lp185
(L2957395042L
L0L
(lp186
(lp187
tp188
atp189
sI1074235656
(Vbootloader_flash_read_sfdp
p190
(lp191
(L711701400L
L0L
(lp192
(lp193
tp194
a(L1622122993L
L3785322319L
(lp195
(lp196
V__assert_func
p197
atp198
a(L3704332455L
L3785322319L
(lp199
(lp200
Vbootloader_flash_execute_command_common
p201
atp202
atp203
sI1074267928
(Vwdt_reset_info_dump
p204
(lp205
(L4037466985L
L0L
(lp206
(lp207
tp208
a(L826419141L
L0L
(lp209
(lp210
tp211
a(L527117834L
L0L
(lp212
(lp213
tp214
a(L1103285333L
L0L
(lp215
(lp216
tp217
a(L897464656L
L3785322319L
(lp218
(lp219
Vesp_log_early_timestamp
p220
atp221
a(L1020249293L
L0L
(lp222
(lp223
tp224
a(L4142801364L
L3785322319L
(lp225
(lp226
Vesp_log_early_timestamp
p227
atp228
a(L2899013701L
L0L
(lp229
(lp230
tp231
atp232
sI1074240276
(Vbootloader_debug_buffer
p233
(lp234
(L2100504542L
L0L
(lp235
(lp236
tp237
atp238
sI1074245396
(Vwdt_hal_config_stage
p239
(lp240
(L331558507L
L0L
(lp241
(lp242
tp243
a(L4279082939L
L0L
(lp244
(lp245
tp246
a(L3020204L
L0L
(lp247
(lp248
tp249
a(L3020187L
L0L
(lp250
(lp251
tp252
a(L3020187L
L0L
(lp253
(lp254
tp255
a(L94425498L
L3785322319L
(lp256
(lp257
Vabort
p258
atp259
a(L3169146260L
L0L
(lp260
(lp261
tp262
a(L3360570486L
L0L
(lp263
(lp264
tp265
a(L2570095916L
L0L
(lp266
(lp267
tp268
a(L2630698345L
L0L
(lp269
(lp270
tp271
a(L3142002758L
L0L
(lp272
(lp273
tp274
a(L3020187L
L0L
(lp275
(lp276
tp277
a(L2902417580L
L0L
(lp278
(lp279
tp280
a(L3020187L
L0L
(lp281
(lp282
tp283
a(L3028464L
L0L
(lp284
(lp285
tp286
a(L2720957315L
L0L
(lp287
(lp288
tp289
a(L2254402966L
L0L
(lp290
(lp291
tp292
a(L1666089228L
L0L
(lp293
(lp294
tp295
a(L4127982619L
L0L
(lp296
(lp297
tp298
atp299
sI1074247444
(Vrtc_clk_cpu_freq_to_xtal
p300
(lp301
(L3369108494L
L3785322319L
(lp302
(lp303
Vrtc_clk_apb_freq_update
p304
atp305
a(L702736306L
L0L
(lp306
(lp307
tp308
a(L277445412L
L0L
(lp309
(lp310
tp311
a(L309988740L
L0L
(lp312
(lp313
tp314
atp315
sI1074241808
(Vprocess_segments
p316
(lp317
(L3883698409L
L0L
(lp318
(lp319
tp320
a(L2495454333L
L0L
(lp321
(lp322
tp323
a(L4578542L
L0L
(lp324
(lp325
tp326
a(L106L
L0L
(lp327
(lp328
tp329
a(L1315312493L
L0L
(lp330
(lp331
tp332
a(L2336176508L
L3785322319L
(lp333
(lp334
Vesp_log_early_timestamp
p335
atp336
a(L1440180646L
L3785322319L
(lp337
(lp338
Vbootloader_flash_read
p339
atp340
a(L1611320705L
L3785322319L
(lp341
(lp342
Vesp_log_early_timestamp
p343
atp344
a(L3360570486L
L0L
(lp345
(lp346
tp347
a(L234193771L
L0L
(lp348
(lp349
tp350
a(L1635713494L
L3785322319L
(lp351
(lp352
Vbootloader_sha256_data
p353
atp354
a(L926711887L
L0L
(lp355
(lp356
tp357
a(L790360741L
L0L
(lp358
(lp359
tp360
a(L3997307212L
L0L
(lp361
(lp362
tp363
a(L3802068284L
L0L
(lp364
(lp365
tp366
a(L2942462881L
L0L
(lp367
(lp368
tp369
a(L2258867228L
L0L
(lp370
(lp371
tp372
a(L1355332303L
L0L
(lp373
(lp374
tp375
a(L2965680995L
L0L
(lp376
(lp377
tp378
a(L1849436849L
L0L
(lp379
(lp380
tp381
a(L3435020321L
L3785322319L
(lp382
(lp383
Vesp_log_early_timestamp
p384
atp385
a(L3895303701L
L0L
(lp386
(lp387
tp388
a(L310091443L
L0L
(lp389
(lp390
tp391
a(L149120208L
L3785322319L
(lp392
(lp393
Vesp_log_early_timestamp
p394
atp395
a(L3982404358L
L3785322319L
(lp396
(lp397
Vverify_load_addresses
p398
atp399
a(L106L
L0L
(lp400
(lp401
tp402
a(L2300166925L
L0L
(lp403
(lp404
tp405
a(L2684012095L
L0L
(lp406
(lp407
tp408
a(L1905937838L
L3785322319L
(lp409
(lp410
Vbootloader_mmap
p411
atp412
a(L2674550455L
L3785322319L
(lp413
(lp414
Vesp_log_early_timestamp
p415
atp416
a(L3858925252L
L0L
(lp417
(lp418
tp419
a(L1982086160L
L0L
(lp420
(lp421
tp422
a(L1534276982L
L3785322319L
(lp423
(lp424
Vbootloader_munmap
p425
atp426
a(L3105361649L
L0L
(lp427
(lp428
tp429
a(L1216016797L
L3785322319L
(lp430
(lp431
Vbootloader_fill_random
p432
atp433
a(L3570641403L
L0L
(lp434
(lp435
tp436
a(L3574335487L
L0L
(lp437
(lp438
tp439
a(L3450268858L
L0L
(lp440
(lp441
tp442
a(L3021749L
L0L
(lp443
(lp444
tp445
a(L1609678444L
L0L
(lp446
(lp447
tp448
a(L1777728568L
L0L
(lp449
(lp450
tp451
a(L3020204L
L0L
(lp452
(lp453
tp454
a(L1478777665L
L0L
(lp455
(lp456
tp457
a(L2076461546L
L0L
(lp458
(lp459
tp460
a(L3832868376L
L0L
(lp461
(lp462
tp463
a(L1749969336L
L0L
(lp464
(lp465
tp466
a(L670934548L
L0L
(lp467
(lp468
tp469
a(L1903785265L
L3785322319L
(lp470
(lp471
Vbootloader_sha256_data
p472
atp473
a(L90548756L
L0L
(lp474
(lp475
tp476
a(L4195963580L
L0L
(lp477
(lp478
tp479
a(L2572638616L
L0L
(lp480
(lp481
tp482
a(L3740179196L
L0L
(lp483
(lp484
tp485
a(L233873941L
L3785322319L
(lp486
(lp487
Vshould_load
p488
atp489
a(L3070788781L
L0L
(lp490
(lp491
tp492
a(L1864178875L
L3785322319L
(lp493
(lp494
Vesp_log_early_timestamp
p495
atp496
a(L1836486280L
L0L
(lp497
(lp498
tp499
a(L2104869604L
L0L
(lp500
(lp501
tp502
a(L1178869281L
L0L
(lp503
(lp504
tp505
a(L2902417580L
L0L
(lp506
(lp507
tp508
a(L2636912524L
L0L
(lp509
(lp510
tp511
a(L4195318902L
L3785322319L
(lp512
(lp513
Vbootloader_mmap_get_free_pages
p514
atp515
a(L3028481L
L0L
(lp516
(lp517
tp518
a(L124545238L
L0L
(lp519
(lp520
tp521
atp522
sI1074237456
(Vbootloader_mmap
p523
(lp524
(L4101837270L
L0L
(lp525
(lp526
tp527
a(L1032666940L
L3785322319L
(lp528
(lp529
Vesp_log_early_timestamp
p530
atp531
a(L1182811810L
L0L
(lp532
(lp533
tp534
a(L3496950L
L0L
(lp535
(lp536
tp537
a(L1649230001L
L0L
(lp538
(lp539
tp540
a(L3729021430L
L3785322319L
(lp541
(lp542
Vesp_log_early_timestamp
p543
atp544
a(L264945332L
L0L
(lp545
(lp546
tp547
a(L3772406441L
L3785322319L
(lp548
(lp549
Vesp_log_early_timestamp
p550
atp551
a(L2067699594L
L0L
(lp552
(lp553
tp554
atp555
sI1074240284
(Vbootloader_sha256_start
p556
(lp557
(L2006965050L
L0L
(lp558
(lp559
tp560
atp561
sI1074245912
(Vefuse_hal_get_rated_freq_mhz
p562
(lp563
(L1680594370L
L0L
(lp564
(lp565
tp566
a(L2965302338L
L0L
(lp567
(lp568
tp569
a(L3360570486L
L0L
(lp570
(lp571
tp572
atp573
sI1074269484
(Vbootloader_flash_update_id
p574
(lp575
(L1806317231L
L3785322319L
(lp576
(lp577
Vbootloader_read_flash_id
p578
atp579
atp580
sI1074237992
(Vbootloader_flash_write
p581
(lp582
(L3119145091L
L0L
(lp583
(lp584
tp585
a(L962229776L
L3785322319L
(lp586
(lp587
Vesp_log_early_timestamp
p588
atp589
a(L44113432L
L0L
(lp590
(lp591
tp592
a(L1610445075L
L0L
(lp593
(lp594
tp595
a(L735741265L
L0L
(lp596
(lp597
tp598
a(L3291333414L
L0L
(lp599
(lp600
tp601
a(L2835528492L
L3785322319L
(lp602
(lp603
Vesp_log_early_timestamp
p604
atp605
a(L3283691850L
L0L
(lp606
(lp607
tp608
a(L3823398198L
L3785322319L
(lp609
(lp610
Vesp_log_early_timestamp
p611
atp612
a(L3212356251L
L3785322319L
(lp613
(lp614
Vbootloader_flash_unlock
p615
atp616
a(L4210907913L
L0L
(lp617
(lp618
tp619
a(L94425498L
L3785322319L
(lp620
(lp621
Vesp_rom_spiflash_write_encrypted
p622
atp623
a(L93674324L
L0L
(lp624
(lp625
tp626
a(L645116258L
L0L
(lp627
(lp628
tp629
a(L2927190544L
L3785322319L
(lp630
(lp631
Vesp_rom_spiflash_write
p632
atp633
atp634
sI1074241320
(Vverify_load_addresses
p635
(lp636
(L2763563698L
L0L
(lp637
(lp638
tp639
a(L106L
L0L
(lp640
(lp641
tp642
a(L97642L
L0L
(lp643
(lp644
tp645
a(L1948667597L
L3785322319L
(lp646
(lp647
V__assert_func
p648
atp649
a(L1143522018L
L0L
(lp650
(lp651
tp652
a(L106L
L0L
(lp653
(lp654
tp655
a(L2112096267L
L0L
(lp656
(lp657
tp658
a(L106L
L0L
(lp659
(lp660
tp661
a(L3523782570L
L3785322319L
(lp662
(lp663
Vbootloader_util_regions_overlap
p664
atp665
a(L2605817551L
L3785322319L
(lp666
(lp667
Vbootloader_util_regions_overlap
p668
atp669
a(L3028481L
L0L
(lp670
(lp671
tp672
a(L2946329814L
L3785322319L
(lp673
(lp674
Vbootloader_util_regions_overlap
p675
atp676
a(L1502100891L
L0L
(lp677
(lp678
tp679
a(L2387747879L
L0L
(lp680
(lp681
tp682
a(L3812607188L
L0L
(lp683
(lp684
tp685
a(L1378784754L
L0L
(lp686
(lp687
tp688
a(L642339957L
L0L
(lp689
(lp690
tp691
a(L677569396L
L3785322319L
(lp692
(lp693
Vverify_load_addresses
p694
atp695
a(L1351513776L
L0L
(lp696
(lp697
tp698
a(L1681779664L
L0L
(lp699
(lp700
tp701
a(L442864479L
L0L
(lp702
(lp703
tp704
a(L498862735L
L3785322319L
(lp705
(lp706
Vbootloader_util_regions_overlap
p707
atp708
a(L3028481L
L0L
(lp709
(lp710
tp711
a(L3990340598L
L3785322319L
(lp712
(lp713
Vbootloader_util_regions_overlap
p714
atp715
a(L2334313048L
L0L
(lp716
(lp717
tp718
a(L1728651739L
L0L
(lp719
(lp720
tp721
a(L938770818L
L0L
(lp722
(lp723
tp724
a(L1654457071L
L0L
(lp725
(lp726
tp727
a(L307918210L
L0L
(lp728
(lp729
tp730
a(L697239146L
L0L
(lp731
(lp732
tp733
a(L106L
L0L
(lp734
(lp735
tp736
a(L955486314L
L0L
(lp737
(lp738
tp739
a(L307916788L
L0L
(lp740
(lp741
tp742
a(L490080443L
L0L
(lp743
(lp744
tp745
a(L106L
L0L
(lp746
(lp747
tp748
a(L2427388926L
L3785322319L
(lp749
(lp750
Vesp_log_early_timestamp
p751
atp752
a(L955485694L
L0L
(lp753
(lp754
tp755
a(L1303560427L
L0L
(lp756
(lp757
tp758
atp759
sI1074246184
(Vrtc_clk_32k_enable_common
p760
(lp761
(L3359003459L
L0L
(lp762
(lp763
tp764
atp765
sI1074246696
(Vrtc_clk_fast_freq_get
p766
(lp767
(L81196607L
L0L
(lp768
(lp769
tp770
atp771
sI1074248500
(V_fini
p772
(lp773
(L3493042598L
L0L
(lp774
(lp775
tp776
atp777
sI1074269500
(Vbootloader_clear_bss_section
p778
(lp779
(L2606532370L
L0L
(lp780
(lp781
tp782
atp783
sI1074236720
(Vesp_rom_uart_tx_wait_idle
p784
(lp785
(L1747532367L
L0L
(lp786
(lp787
tp788
a(L1301079727L
L0L
(lp789
(lp790
tp791
a(L3597746521L
L0L
(lp792
(lp793
tp794
a(L3694491048L
L0L
(lp795
(lp796
tp797
a(L3055926844L
L0L
(lp798
(lp799
tp800
a(L3360570486L
L0L
(lp801
(lp802
tp803
atp804
sI1074236976
(Vefuse_hal_get_minor_chip_version
p805
(lp806
(L529066928L
L0L
(lp807
(lp808
tp809
atp810
sI1074240304
(Vbootloader_sha256_data
p811
(lp812
(L4066096136L
L0L
(lp813
(lp814
tp815
a(L3706168760L
L0L
(lp816
(lp817
tp818
a(L3850111886L
L3785322319L
(lp819
(lp820
V__assert_func
p821
atp822
a(L498498478L
L0L
(lp823
(lp824
tp825
a(L2969391571L
L0L
(lp826
(lp827
tp828
a(L2910371777L
L0L
(lp829
(lp830
tp831
a(L3360570486L
L0L
(lp832
(lp833
tp834
a(L488887055L
L0L
(lp835
(lp836
tp837
a(L841847518L
L0L
(lp838
(lp839
tp840
a(L3145334428L
L0L
(lp841
(lp842
tp843
a(L2638544423L
L0L
(lp844
(lp845
tp846
a(L3339320094L
L0L
(lp847
(lp848
tp849
a(L1390602840L
L0L
(lp850
(lp851
tp852
a(L3028464L
L0L
(lp853
(lp854
tp855
a(L3976622796L
L0L
(lp856
(lp857
tp858
a(L4266904732L
L0L
(lp859
(lp860
tp861
atp862
sI1074235708
(Vbootloader_read_flash_id
p863
(lp864
(L3925322170L
L3785322319L
(lp865
(lp866
Vbootloader_execute_flash_command
p867
atp868
atp869
sI1074245948
(Vrtc_clk_bbpll_disable
p870
(lp871
(L3581627368L
L0L
(lp872
(lp873
tp874
a(L391691750L
L0L
(lp875
(lp876
tp877
a(L3360570486L
L0L
(lp878
(lp879
tp880
atp881
sI1074270772
(Vmpu_hal_set_region_access
p882
(lp883
(L3538356822L
L0L
(lp884
(lp885
tp886
a(L2902417580L
L0L
(lp887
(lp888
tp889
a(L3020187L
L0L
(lp890
(lp891
tp892
a(L3020187L
L0L
(lp893
(lp894
tp895
a(L3360570486L
L0L
(lp896
(lp897
tp898
a(L2258718273L
L0L
(lp899
(lp900
tp901
a(L3446648619L
L0L
(lp902
(lp903
tp904
a(L3739532189L
L0L
(lp905
(lp906
tp907
a(L1300789895L
L0L
(lp908
(lp909
tp910
a(L3472092938L
L0L
(lp911
(lp912
tp913
atp914
sI1074243384
(Vesp_rom_spiflash_wait_idle
p915
(lp916
(L3233075721L
L0L
(lp917
(lp918
tp919
a(L2023766174L
L0L
(lp920
(lp921
tp922
a(L2805933678L
L0L
(lp923
(lp924
tp925
a(L3086959262L
L0L
(lp926
(lp927
tp928
a(L4161019926L
L3785322319L
(lp929
(lp930
Vesp_rom_spiflash_read_status
p931
atp932
atp933
sI1074238264
(Vbootloader_random_disable
p934
(lp935
(L2124996308L
L0L
(lp936
(lp937
tp938
atp939
sI1074246712
(Vrtc_clk_bbpll_configure
p940
(lp941
(L3304532742L
L0L
(lp942
(lp943
tp944
a(L106L
L0L
(lp945
(lp946
tp947
a(L4190975601L
L0L
(lp948
(lp949
tp950
a(L106L
L0L
(lp951
(lp952
tp953
a(L3240445808L
L0L
(lp954
(lp955
tp956
a(L2443776942L
L0L
(lp957
(lp958
tp959
a(L744221574L
L0L
(lp960
(lp961
tp962
a(L160100376L
L0L
(lp963
(lp964
tp965
a(L869701643L
L0L
(lp966
(lp967
tp968
a(L2163771962L
L0L
(lp969
(lp970
tp971
a(L3538163500L
L0L
(lp972
(lp973
tp974
a(L160100376L
L0L
(lp975
(lp976
tp977
atp978
sI1074270540
(Vrtc_vddsdio_get_config
p979
(lp980
(L12311480L
L0L
(lp981
(lp982
tp983
a(L147025923L
L0L
(lp984
(lp985
tp986
a(L318395269L
L0L
(lp987
(lp988
tp989
a(L1399971818L
L0L
(lp990
(lp991
tp992
a(L1911319052L
L0L
(lp993
(lp994
tp995
a(L1116012092L
L0L
(lp996
(lp997
tp998
a(L1719615367L
L0L
(lp999
(lp1000
tp1001
a(L1276420571L
L0L
(lp1002
(lp1003
tp1004
atp1005
sI1074236992
(Vis_xmc_chip_strict
p1006
(lp1007
(L1286841609L
L0L
(lp1008
(lp1009
tp1010
a(L2234016759L
L0L
(lp1011
(lp1012
tp1013
a(L1069027148L
L0L
(lp1014
(lp1015
tp1016
a(L3021749L
L0L
(lp1017
(lp1018
tp1019
a(L1900148749L
L0L
(lp1020
(lp1021
tp1022
a(L1936875721L
L0L
(lp1023
(lp1024
tp1025
a(L3356166509L
L0L
(lp1026
(lp1027
tp1028
a(L1937769451L
L0L
(lp1029
(lp1030
tp1031
a(L2137658907L
L0L
(lp1032
(lp1033
tp1034
a(L4265949734L
L0L
(lp1035
(lp1036
tp1037
a(L3360570486L
L0L
(lp1038
(lp1039
tp1040
atp1041
sI1074247244
(Vrtc_clk_cpu_freq_get_config
p1042
(lp1043
(L1912227103L
L0L
(lp1044
(lp1045
tp1046
a(L2902417580L
L0L
(lp1047
(lp1048
tp1049
a(L1777368540L
L0L
(lp1050
(lp1051
tp1052
a(L4191209166L
L1880226080L
(lp1053
(lp1054
Vesp_log_early_timestamp
p1055
aVabort
p1056
atp1057
a(L1906684621L
L3785322319L
(lp1058
(lp1059
Vrtc_clk_xtal_freq_get
p1060
atp1061
a(L584032699L
L0L
(lp1062
(lp1063
tp1064
a(L1267412765L
L0L
(lp1065
(lp1066
tp1067
a(L3020187L
L0L
(lp1068
(lp1069
tp1070
a(L713819170L
L0L
(lp1071
(lp1072
tp1073
a(L106L
L0L
(lp1074
(lp1075
tp1076
a(L549042870L
L0L
(lp1077
(lp1078
tp1079
a(L187152368L
L0L
(lp1080
(lp1081
tp1082
a(L4149732163L
L0L
(lp1083
(lp1084
tp1085
atp1086
sI1074268996
(Vbootloader_init_mem
p1087
(lp1088
(L1511720305L
L3785322319L
(lp1089
(lp1090
Vesp_cpu_configure_region_protection
p1091
atp1092
atp1093
sI1074269764
(Vbootloader_enable_random
p1094
(lp1095
(L3696363284L
L1880226080L
(lp1096
(lp1097
Vesp_log_early_timestamp
p1098
aVbootloader_random_enable
p1099
atp1100
atp1101
sI1074236488
(Vbootloader_flash_dummy_config
p1102
(lp1103
(L132211179L
L0L
(lp1104
(lp1105
tp1106
a(L2761717557L
L0L
(lp1107
(lp1108
tp1109
a(L705371371L
L0L
(lp1110
(lp1111
tp1112
a(L2971458626L
L0L
(lp1113
(lp1114
tp1115
a(L1491210540L
L0L
(lp1116
(lp1117
tp1118
a(L3081491917L
L0L
(lp1119
(lp1120
tp1121
a(L1610443405L
L0L
(lp1122
(lp1123
tp1124
a(L4102729993L
L0L
(lp1125
(lp1126
tp1127
a(L1449490182L
L0L
(lp1128
(lp1129
tp1130
a(L1298875775L
L0L
(lp1131
(lp1132
tp1133
a(L3880393601L
L0L
(lp1134
(lp1135
tp1136
a(L1505818087L
L0L
(lp1137
(lp1138
tp1139
a(L1610443436L
L0L
(lp1140
(lp1141
tp1142
atp1143
sI1074239060
(Vset_actual_ota_seq
p1144
(lp1145
(L368664720L
L3785322319L
(lp1146
(lp1147
Vbootloader_common_ota_select_crc
p1148
atp1149
a(L3028481L
L0L
(lp1150
(lp1151
tp1152
a(L3329366564L
L3785322319L
(lp1153
(lp1154
Vbootloader_flash_erase_sector
p1155
atp1156
a(L2908486002L
L3785322319L
(lp1157
(lp1158
Vbootloader_flash_write
p1159
atp1160
a(L1059000425L
L3785322319L
(lp1161
(lp1162
Vesp_log_early_timestamp
p1163
atp1164
a(L878941328L
L3785322319L
(lp1165
(lp1166
Vesp_log_early_timestamp
p1167
atp1168
a(L3016870L
L0L
(lp1169
(lp1170
tp1171
a(L3971861743L
L0L
(lp1172
(lp1173
tp1174
a(L957607403L
L0L
(lp1175
(lp1176
tp1177
atp1178
sI1074240852
(Vprocess_checksum
p1179
(lp1180
(L1985325516L
L0L
(lp1181
(lp1182
tp1183
a(L2910371777L
L0L
(lp1184
(lp1185
tp1186
a(L1649277394L
L0L
(lp1187
(lp1188
tp1189
a(L2910371777L
L0L
(lp1190
(lp1191
tp1192
a(L2902417580L
L0L
(lp1193
(lp1194
tp1195
a(L1644002876L
L3785322319L
(lp1196
(lp1197
Vbootloader_sha256_data
p1198
atp1199
a(L3612796056L
L0L
(lp1200
(lp1201
tp1202
a(L1811888222L
L3785322319L
(lp1203
(lp1204
Vbootloader_flash_read
p1205
atp1206
a(L3126521138L
L0L
(lp1207
(lp1208
tp1209
a(L4209738910L
L0L
(lp1210
(lp1211
tp1212
a(L1890037739L
L3785322319L
(lp1213
(lp1214
Vesp_log_early_timestamp
p1215
atp1216
atp1217
sI1074245712
(Vwdt_hal_write_protect_disable
p1218
(lp1219
(L103224028L
L0L
(lp1220
(lp1221
tp1222
a(L4195472003L
L0L
(lp1223
(lp1224
tp1225
a(L3360570486L
L0L
(lp1226
(lp1227
tp1228
a(L1210571996L
L0L
(lp1229
(lp1230
tp1231
atp1232
sI1074269012
(Vbootloader_random_enable
p1233
(lp1234
(L2681459775L
L0L
(lp1235
(lp1236
tp1237
atp1238
sI1074269524
(Vbootloader_read_bootloader_header
p1239
(lp1240
(L1965707317L
L3785322319L
(lp1241
(lp1242
Vbootloader_flash_read
p1243
atp1244
a(L4102083713L
L3785322319L
(lp1245
(lp1246
Vesp_log_early_timestamp
p1247
atp1248
a(L735741265L
L0L
(lp1249
(lp1250
tp1251
atp1252
sI1074246488
(Vrtc_clk_8m_enabled
p1253
(lp1254
(L1433619747L
L0L
(lp1255
(lp1256
tp1257
atp1258
sI1074243680
(Vesp_rom_spiflash_erase_sector
p1259
(lp1260
(L2459429170L
L0L
(lp1261
(lp1262
tp1263
a(L2258688483L
L0L
(lp1264
(lp1265
tp1266
a(L3360570486L
L0L
(lp1267
(lp1268
tp1269
a(L3212356251L
L3785322319L
(lp1270
(lp1271
Vesp_rom_spiflash_enable_write
p1272
atp1273
a(L184152988L
L0L
(lp1274
(lp1275
tp1276
a(L628195371L
L3785322319L
(lp1277
(lp1278
Vesp_rom_spiflash_wait_idle
p1279
atp1280
a(L3333707777L
L0L
(lp1281
(lp1282
tp1283
a(L3582858798L
L3785322319L
(lp1284
(lp1285
Vesp_rom_spiflash_wait_idle
p1286
atp1287
atp1288
sI1074269792
(Vbootloader_print_banner
p1289
(lp1290
(L2518500345L
L1880226080L
(lp1291
(lp1292
Vesp_log_early_timestamp
p1293
aVesp_log_early_timestamp
p1294
atp1295
atp1296
sI1074243432
(Vesp_rom_spiflash_enable_write
p1297
(lp1298
(L1680383254L
L3785322319L
(lp1299
(lp1300
Vesp_rom_spiflash_wait_idle
p1301
atp1302
a(L3137194272L
L0L
(lp1303
(lp1304
tp1305
a(L2258718275L
L0L
(lp1306
(lp1307
tp1308
a(L99543895L
L0L
(lp1309
(lp1310
tp1311
a(L2993202392L
L0L
(lp1312
(lp1313
tp1314
a(L1804543818L
L3785322319L
(lp1315
(lp1316
Vesp_rom_spiflash_read_status
p1317
atp1318
atp1319
sI1074235752
(Vbootloader_flash_xmc_startup
p1320
(lp1321
(L4031258446L
L3785322319L
(lp1322
(lp1323
Vis_xmc_chip_strict
p1324
atp1325
a(L2258688482L
L0L
(lp1326
(lp1327
tp1328
a(L3360570486L
L0L
(lp1329
(lp1330
tp1331
a(L2860324232L
L3785322319L
(lp1332
(lp1333
Vbootloader_flash_read_sfdp
p1334
atp1335
a(L3354428414L
L2567856111L
(lp1336
(lp1337
Vesp_log_early_timestamp
p1338
aVbootloader_execute_flash_command
p1339
aVbootloader_execute_flash_command
p1340
aVbootloader_execute_flash_command
p1341
aVbootloader_execute_flash_command
p1342
aVbootloader_read_flash_id
p1343
aVis_xmc_chip_strict
p1344
atp1345
a(L3332645139L
L3785322319L
(lp1346
(lp1347
Vesp_log_early_timestamp
p1348
atp1349
atp1350
sI1074238580
(Vbootloader_clock_get_rated_freq_mhz
p1351
(lp1352
(L376617603L
L3785322319L
(lp1353
(lp1354
Vefuse_hal_get_rated_freq_mhz
p1355
atp1356
atp1357
sI1074236020
(Vbootloader_flash_gpio_config
p1358
(lp1359
(L719792650L
L3785322319L
(lp1360
(lp1361
Vbootloader_common_get_chip_ver_pkg
p1362
atp1363
a(L106L
L0L
(lp1364
(lp1365
tp1366
a(L2886083034L
L0L
(lp1367
(lp1368
tp1369
a(L106L
L0L
(lp1370
(lp1371
tp1372
a(L4213870169L
L0L
(lp1373
(lp1374
tp1375
a(L3890032189L
L0L
(lp1376
(lp1377
tp1378
a(L106L
L0L
(lp1379
(lp1380
tp1381
a(L676119430L
L0L
(lp1382
(lp1383
tp1384
a(L4272081986L
L0L
(lp1385
(lp1386
tp1387
a(L3360570486L
L0L
(lp1388
(lp1389
tp1390
atp1391
sI1074248308
(Vrtc_clk_cal_ratio
p1392
(lp1393
(L2802599415L
L3785322319L
(lp1394
(lp1395
Vrtc_clk_cal_internal
p1396
atp1397
atp1398
sI1074236784
(Vesp_rom_uart_set_clock_baudrate
p1399
(lp1400
(L3861262560L
L0L
(lp1401
(lp1402
tp1403
a(L3917339996L
L0L
(lp1404
(lp1405
tp1406
a(L1008980076L
L0L
(lp1407
(lp1408
tp1409
a(L890400028L
L0L
(lp1410
(lp1411
tp1412
a(L2805931419L
L0L
(lp1413
(lp1414
tp1415
a(L2136660087L
L0L
(lp1416
(lp1417
tp1418
atp1419
sI1074245744
(Vwdt_hal_enable
p1420
(lp1421
(L4029830118L
L0L
(lp1422
(lp1423
tp1424
a(L3634439744L
L0L
(lp1425
(lp1426
tp1427
a(L3360570486L
L0L
(lp1428
(lp1429
tp1430
a(L2011576586L
L0L
(lp1431
(lp1432
tp1433
atp1434
sI1074246512
(Vrtc_clk_8md256_enabled
p1435
(lp1436
(L589147876L
L0L
(lp1437
(lp1438
tp1439
atp1440
sI1074237308
(Vbootloader_common_get_active_otadata
p1441
(lp1442
(L3317503532L
L0L
(lp1443
(lp1444
tp1445
a(L2503049265L
L1832448559L
(lp1446
(lp1447
Vbootloader_common_ota_select_valid
p1448
aVbootloader_common_ota_select_valid
p1449
aVbootloader_common_select_otadata
p1450
atp1451
a(L735741265L
L0L
(lp1452
(lp1453
tp1454
atp1455
sI1074246008
(Vrtc_clk_cpu_freq_to_pll_mhz
p1456
(lp1457
(L773674396L
L0L
(lp1458
(lp1459
tp1460
a(L106L
L0L
(lp1461
(lp1462
tp1463
a(L741667605L
L0L
(lp1464
(lp1465
tp1466
a(L106L
L0L
(lp1467
(lp1468
tp1469
a(L1546614651L
L0L
(lp1470
(lp1471
tp1472
a(L1797359599L
L0L
(lp1473
(lp1474
tp1475
a(L635222928L
L3785322319L
(lp1476
(lp1477
Vrtc_clk_wait_for_slow_cycle
p1478
atp1479
a(L2961195743L
L1880226080L
(lp1480
(lp1481
Vesp_log_early_timestamp
p1482
aVabort
p1483
atp1484
a(L2313892495L
L0L
(lp1485
(lp1486
tp1487
a(L1306330990L
L0L
(lp1488
(lp1489
tp1490
atp1491
sI1074238592
(Vload_image
p1492
(lp1493
(L3679617832L
L1832448559L
(lp1494
(lp1495
Vesp_log_early_timestamp
p1496
aVbootloader_random_disable
p1497
aVbootloader_ana_clock_glitch_reset_config
p1498
atp1499
a(L2118498116L
L0L
(lp1500
(lp1501
tp1502
a(L106L
L0L
(lp1503
(lp1504
tp1505
a(L646834872L
L0L
(lp1506
(lp1507
tp1508
a(L751966648L
L0L
(lp1509
(lp1510
tp1511
a(L3268103L
L0L
(lp1512
(lp1513
tp1514
a(L4243721858L
L3785322319L
(lp1515
(lp1516
Vbootloader_console_deinit
p1517
atp1518
a(L2307067884L
L0L
(lp1519
(lp1520
tp1521
a(L3020204L
L0L
(lp1522
(lp1523
tp1524
a(L2722520990L
L3785322319L
(lp1525
(lp1526
Vesp_log_early_timestamp
p1527
atp1528
a(L117980938L
L0L
(lp1529
(lp1530
tp1531
a(L1341709798L
L0L
(lp1532
(lp1533
tp1534
a(L3020204L
L0L
(lp1535
(lp1536
tp1537
a(L1017231636L
L3785322319L
(lp1538
(lp1539
Vesp_log_early_timestamp
p1540
atp1541
a(L233635238L
L0L
(lp1542
(lp1543
tp1544
a(L2488949783L
L0L
(lp1545
(lp1546
tp1547
atp1548
sI1074239616
(Vbootloader_utility_get_selected_boot_partition
p1549
(lp1550
(L2184143128L
L0L
(lp1551
(lp1552
tp1553
a(L3692243288L
L0L
(lp1554
(lp1555
tp1556
a(L2680964923L
L3785322319L
(lp1557
(lp1558
Vesp_log_early_timestamp
p1559
atp1560
a(L4026981588L
L0L
(lp1561
(lp1562
tp1563
a(L3360570486L
L0L
(lp1564
(lp1565
tp1566
a(L1375577398L
L3785322319L
(lp1567
(lp1568
Vbootloader_mmap
p1569
atp1570
a(L3668557470L
L3785322319L
(lp1571
(lp1572
Vesp_log_early_timestamp
p1573
atp1574
a(L2805858128L
L1880226080L
(lp1575
(lp1576
Vbootloader_munmap
p1577
aVbootloader_common_ota_select_invalid
p1578
atp1579
a(L1103573946L
L0L
(lp1580
(lp1581
tp1582
a(L1876835593L
L3785322319L
(lp1583
(lp1584
Vbootloader_common_get_active_otadata
p1585
atp1586
a(L106L
L0L
(lp1587
(lp1588
tp1589
a(L569346373L
L0L
(lp1590
(lp1591
tp1592
a(L788494392L
L3785322319L
(lp1593
(lp1594
Vbootloader_common_ota_select_invalid
p1595
atp1596
a(L2675958250L
L0L
(lp1597
(lp1598
tp1599
a(L3279694738L
L3785322319L
(lp1600
(lp1601
Vesp_log_early_timestamp
p1602
atp1603
a(L1231248995L
L3785322319L
(lp1604
(lp1605
Vesp_log_early_timestamp
p1606
atp1607
a(L505081345L
L0L
(lp1608
(lp1609
tp1610
a(L919052234L
L3785322319L
(lp1611
(lp1612
Vbootloader_common_ota_select_crc
p1613
atp1614
a(L2287680455L
L0L
(lp1615
(lp1616
tp1617
a(L3542558037L
L3785322319L
(lp1618
(lp1619
Vbootloader_common_ota_select_crc
p1620
atp1621
a(L1299866312L
L0L
(lp1622
(lp1623
tp1624
a(L3205436778L
L0L
(lp1625
(lp1626
tp1627
a(L520767689L
L3785322319L
(lp1628
(lp1629
Vesp_log_early_timestamp
p1630
atp1631
a(L1367516498L
L0L
(lp1632
(lp1633
tp1634
a(L4142618365L
L3785322319L
(lp1635
(lp1636
Vesp_log_early_timestamp
p1637
atp1638
atp1639
sI1074267776
(Vcall_start_cpu0
p1640
(lp1641
(L1974457732L
L3785322319L
(lp1642
(lp1643
Vbootloader_init
p1644
atp1645
a(L94425498L
L3785322319L
(lp1646
(lp1647
Vbootloader_reset
p1648
atp1649
a(L2802776775L
L3785322319L
(lp1650
(lp1651
Vbootloader_utility_load_partition_table
p1652
atp1653
a(L4026389016L
L3785322319L
(lp1654
(lp1655
Vesp_log_early_timestamp
p1656
atp1657
a(L2395089516L
L3785322319L
(lp1658
(lp1659
Vbootloader_utility_get_selected_boot_partition
p1660
atp1661
a(L2086982338L
L1880226080L
(lp1662
(lp1663
Vbootloader_common_get_reset_reason
p1664
aVbootloader_utility_load_boot_image
p1665
atp1666
atp1667
sI1074269568
(Vbootloader_check_bootloader_validity
p1668
(lp1669
(L1445660430L
L1832448559L
(lp1670
(lp1671
Vefuse_hal_chip_revision
p1672
aVesp_log_early_timestamp
p1673
aVbootloader_common_check_chip_validity
p1674
atp1675
atp1676
sI1074270084
(Vrtc_clk_init
p1677
(lp1678
(L3487097464L
L0L
(lp1679
(lp1680
tp1681
a(L42671777L
L3785322319L
(lp1682
(lp1683
Vrtc_clk_cpu_freq_to_xtal
p1684
atp1685
a(L1935871317L
L0L
(lp1686
(lp1687
tp1688
a(L4184912069L
L0L
(lp1689
(lp1690
tp1691
a(L2873281153L
L0L
(lp1692
(lp1693
tp1694
a(L912414356L
L3785322319L
(lp1695
(lp1696
Vrtc_clk_xtal_freq_get
p1697
atp1698
a(L1244428170L
L1157885199L
(lp1699
(lp1700
Vesp_rom_uart_tx_wait_idle
p1701
aVrtc_clk_xtal_freq_update
p1702
aVrtc_clk_apb_freq_update
p1703
aVrtc_clk_cpu_freq_get_config
p1704
aVrtc_clk_cpu_freq_mhz_to_config
p1705
atp1706
a(L3941770928L
L1880226080L
(lp1707
(lp1708
Vesp_log_early_timestamp
p1709
aVabort
p1710
atp1711
a(L4187693717L
L3785322319L
(lp1712
(lp1713
Vrtc_clk_xtal_freq_estimate
p1714
atp1715
a(L38559164L
L3785322319L
(lp1716
(lp1717
Vesp_log_early_timestamp
p1718
atp1719
a(L4188325301L
L0L
(lp1720
(lp1721
tp1722
a(L1563923531L
L0L
(lp1723
(lp1724
tp1725
a(L106L
L0L
(lp1726
(lp1727
tp1728
a(L4070631878L
L3785322319L
(lp1729
(lp1730
Vrtc_clk_xtal_freq_estimate
p1731
atp1732
a(L106L
L0L
(lp1733
(lp1734
tp1735
a(L3554578860L
L3785322319L
(lp1736
(lp1737
Vesp_log_early_timestamp
p1738
atp1739
a(L1435542129L
L3785322319L
(lp1740
(lp1741
Vrtc_clk_cpu_freq_set_config
p1742
atp1743
a(L4168829660L
L3785322319L
(lp1744
(lp1745
Vrtc_clk_32k_enable
p1746
atp1747
a(L3016870L
L0L
(lp1748
(lp1749
tp1750
a(L452760767L
L3785322319L
(lp1751
(lp1752
Vrtc_clk_8m_enable
p1753
atp1754
a(L530469956L
L1880226080L
(lp1755
(lp1756
Vrtc_clk_fast_freq_set
p1757
aVrtc_clk_slow_freq_set
p1758
atp1759
atp1760
sI1074237064
(Vesp_log_early_timestamp
p1761
(lp1762
(L677791546L
L0L
(lp1763
(lp1764
tp1765
atp1766
sI1074246536
(Vrtc_clk_slow_freq_set
p1767
(lp1768
(L446749037L
L0L
(lp1769
(lp1770
tp1771
atp1772
sI1074247560
(Vrtc_clk_cpu_freq_set_config
p1773
(lp1774
(L2597303049L
L3785322319L
(lp1775
(lp1776
Vrtc_clk_xtal_freq_get
p1777
atp1778
a(L1828795533L
L1880226080L
(lp1779
(lp1780
Vrtc_clk_cpu_freq_to_xtal
p1781
aVrtc_clk_wait_for_slow_cycle
p1782
atp1783
a(L94425498L
L3785322319L
(lp1784
(lp1785
Vrtc_clk_bbpll_disable
p1786
atp1787
a(L3978916712L
L0L
(lp1788
(lp1789
tp1790
a(L2977209154L
L0L
(lp1791
(lp1792
tp1793
a(L2736411858L
L3785322319L
(lp1794
(lp1795
Vrtc_clk_cpu_freq_to_xtal
p1796
atp1797
a(L3360570486L
L0L
(lp1798
(lp1799
tp1800
a(L3020187L
L0L
(lp1801
(lp1802
tp1803
a(L106L
L0L
(lp1804
(lp1805
tp1806
a(L728330897L
L2485746240L
(lp1807
(lp1808
Vrtc_clk_wait_for_slow_cycle
p1809
aVrtc_clk_xtal_freq_get
p1810
aVrtc_clk_bbpll_configure
p1811
aVrtc_clk_cpu_freq_to_pll_mhz
p1812
atp1813
a(L3020187L
L0L
(lp1814
(lp1815
tp1816
a(L106L
L0L
(lp1817
(lp1818
tp1819
a(L971591335L
L0L
(lp1820
(lp1821
tp1822
atp1823
sI1074248340
(Vrtc_clk_wait_for_slow_cycle
p1824
(lp1825
(L2816332389L
L0L
(lp1826
(lp1827
tp1828
a(L287687718L
L0L
(lp1829
(lp1830
tp1831
a(L3360570486L
L0L
(lp1832
(lp1833
tp1834
a(L3986273454L
L0L
(lp1835
(lp1836
tp1837
a(L2994547433L
L0L
(lp1838
(lp1839
tp1840
a(L3945029326L
L0L
(lp1841
(lp1842
tp1843
a(L2931399021L
L3785322319L
(lp1844
(lp1845
Vesp_log_early_timestamp
p1846
atp1847
atp1848
sI1074268828
(Vbootloader_clock_configure
p1849
(lp1850
(L1154001737L
L1880226080L
(lp1851
(lp1852
Vesp_rom_uart_tx_wait_idle
p1853
aVefuse_hal_chip_revision
p1854
atp1855
a(L2119588600L
L0L
(lp1856
(lp1857
tp1858
a(L46500273L
L3785322319L
(lp1859
(lp1860
Vrtc_clk_apb_freq_get
p1861
atp1862
a(L2503001246L
L1832448559L
(lp1863
(lp1864
Vrtc_clk_slow_freq_get
p1865
aVrtc_clk_fast_freq_get
p1866
aVrtc_clk_init
p1867
atp1868
a(L1106689080L
L0L
(lp1869
(lp1870
tp1871
a(L883406775L
L0L
(lp1872
(lp1873
tp1874
a(L106L
L0L
(lp1875
(lp1876
tp1877
atp1878
sI1074243984
(Vesp_rom_spiflash_write_encrypted
p1879
(lp1880
(L2107077087L
L0L
(lp1881
(lp1882
tp1883
a(L48601202L
L0L
(lp1884
(lp1885
tp1886
a(L97689L
L0L
(lp1887
(lp1888
tp1889
a(L3061232074L
L0L
(lp1890
(lp1891
tp1892
a(L1022857974L
L0L
(lp1893
(lp1894
tp1895
a(L2903314395L
L3785322319L
(lp1896
(lp1897
Vesp_rom_spiflash_write
p1898
atp1899
a(L2477749271L
L0L
(lp1900
(lp1901
tp1902
a(L735741265L
L0L
(lp1903
(lp1904
tp1905
atp1906
sI1074269840
(Vbootloader_console_init
p1907
(lp1908
(L2184937789L
L2485746240L
(lp1909
(lp1910
Vesp_rom_install_channel_putc
p1911
aVesp_rom_uart_tx_wait_idle
p1912
aVrtc_clk_apb_freq_get
p1913
aVesp_rom_uart_set_clock_baudrate
p1914
atp1915
atp1916
sI1074246300
(Vrtc_clk_32k_enable
p1917
(lp1918
(L753387299L
L0L
(lp1919
(lp1920
tp1921
a(L1067050752L
L3785322319L
(lp1922
(lp1923
Vrtc_clk_32k_enable_common
p1924
atp1925
a(L3360570486L
L0L
(lp1926
(lp1927
tp1928
a(L2867343393L
L0L
(lp1929
(lp1930
tp1931
atp1932
sI1074241688
(Vshould_load
p1933
(lp1934
(L3456036353L
L0L
(lp1935
(lp1936
tp1937
a(L1182990556L
L0L
(lp1938
(lp1939
tp1940
a(L1780902349L
L0L
(lp1941
(lp1942
tp1943
a(L1298905564L
L0L
(lp1944
(lp1945
tp1946
a(L524505062L
L0L
(lp1947
(lp1948
tp1949
a(L2258897019L
L0L
(lp1950
(lp1951
tp1952
a(L3781799363L
L0L
(lp1953
(lp1954
tp1955
a(L3028464L
L0L
(lp1956
(lp1957
tp1958
a(L3549473510L
L0L
(lp1959
(lp1960
tp1961
a(L467019899L
L0L
(lp1962
(lp1963
tp1964
a(L307469760L
L0L
(lp1965
(lp1966
tp1967
a(L4185756579L
L0L
(lp1968
(lp1969
tp1970
a(L3458855836L
L0L
(lp1971
(lp1972
tp1973
a(L3126521138L
L0L
(lp1974
(lp1975
tp1976
a(L1305407438L
L0L
(lp1977
(lp1978
tp1979
a(L1305407469L
L0L
(lp1980
(lp1981
tp1982
atp1983
sI1074240664
(Vbootloader_console_deinit
p1984
(lp1985
(L2887876151L
L0L
(lp1986
(lp1987
tp1988
atp1989
sI1074237348
(Vbootloader_common_ota_select_invalid
p1990
(lp1991
(L4027567199L
L0L
(lp1992
(lp1993
tp1994
a(L3397985842L
L0L
(lp1995
(lp1996
tp1997
a(L2258867228L
L0L
(lp1998
(lp1999
tp2000
a(L3785235668L
L0L
(lp2001
(lp2002
tp2003
atp2004
sI1074243492
(Vesp_rom_spiflash_program_page_internal
p2005
(lp2006
(L2569069283L
L0L
(lp2007
(lp2008
tp2009
a(L2258688483L
L0L
(lp2010
(lp2011
tp2012
a(L3360570486L
L0L
(lp2013
(lp2014
tp2015
a(L3979593906L
L0L
(lp2016
(lp2017
tp2018
a(L4235661475L
L3785322319L
(lp2019
(lp2020
Vesp_rom_spiflash_wait_idle
p2021
atp2022
a(L1299866312L
L0L
(lp2023
(lp2024
tp2025
a(L3212356251L
L3785322319L
(lp2026
(lp2027
Vesp_rom_spiflash_enable_write
p2028
atp2029
a(L365375006L
L0L
(lp2030
(lp2031
tp2032
a(L3373459509L
L0L
(lp2033
(lp2034
tp2035
a(L2953702749L
L0L
(lp2036
(lp2037
tp2038
a(L2989032L
L0L
(lp2039
(lp2040
tp2041
a(L1965622133L
L0L
(lp2042
(lp2043
tp2044
a(L580718687L
L0L
(lp2045
(lp2046
tp2047
a(L1958113242L
L0L
(lp2048
(lp2049
tp2050
a(L106L
L0L
(lp2051
(lp2052
tp2053
a(L4283177684L
L0L
(lp2054
(lp2055
tp2056
a(L1405253496L
L0L
(lp2057
(lp2058
tp2059
a(L1008982350L
L0L
(lp2060
(lp2061
tp2062
a(L1933954923L
L0L
(lp2063
(lp2064
tp2065
a(L3886319556L
L0L
(lp2066
(lp2067
tp2068
a(L2767679583L
L0L
(lp2069
(lp2070
tp2071
atp2072
sI1074247840
(Vrtc_clk_apb_freq_get
p2073
(lp2074
(L3294973915L
L0L
(lp2075
(lp2076
tp2077
atp2078
sI1074242988
(Vbootloader_load_image
p2079
(lp2080
(L1155870502L
L3785322319L
(lp2081
(lp2082
Vimage_load
p2083
atp2084
atp2085
sI1074240680
(V__assert_func
p2086
(lp2087
(L2599700881L
L0L
(lp2088
(lp2089
tp2090
a(L106L
L0L
(lp2091
(lp2092
tp2093
atp2094
sI1074237096
(Vbootloader_common_ota_select_crc
p2095
(lp2096
(L3803478238L
L0L
(lp2097
(lp2098
tp2099
atp2100
sI1074239920
(Vbootloader_reset
p2101
(lp2102
(L2775844488L
L3785322319L
(lp2103
(lp2104
Vbootloader_console_deinit
p2105
atp2106
a(L106L
L0L
(lp2107
(lp2108
tp2109
atp2110
sI1074269872
(Vesp_cpu_configure_region_protection
p2111
(lp2112
(L2937137248L
L0L
(lp2113
(lp2114
tp2115
a(L180431425L
L3785322319L
(lp2116
(lp2117
Vmpu_hal_set_region_access
p2118
atp2119
a(L2537388152L
L3785322319L
(lp2120
(lp2121
Vmpu_hal_set_region_access
p2122
atp2123
atp2124
sI1074243004
(Vesp_partition_table_verify
p2125
(lp2126
(L1518656766L
L0L
(lp2127
(lp2128
tp2129
a(L1171913712L
L0L
(lp2130
(lp2131
tp2132
a(L4287435191L
L0L
(lp2133
(lp2134
tp2135
a(L2910371777L
L0L
(lp2136
(lp2137
tp2138
a(L2810785767L
L0L
(lp2139
(lp2140
tp2141
a(L3360570486L
L0L
(lp2142
(lp2143
tp2144
a(L2334946637L
L0L
(lp2145
(lp2146
tp2147
a(L2478753082L
L0L
(lp2148
(lp2149
tp2150
a(L3020204L
L0L
(lp2151
(lp2152
tp2153
a(L1279341933L
L3785322319L
(lp2154
(lp2155
Vesp_log_early_timestamp
p2156
atp2157
a(L3525717030L
L3785322319L
(lp2158
(lp2159
Vesp_log_early_timestamp
p2160
atp2161
a(L4060082208L
L0L
(lp2162
(lp2163
tp2164
a(L2902417580L
L0L
(lp2165
(lp2166
tp2167
a(L3020204L
L0L
(lp2168
(lp2169
tp2170
a(L1980931690L
L3785322319L
(lp2171
(lp2172
Vesp_log_early_timestamp
p2173
atp2174
a(L1367516498L
L0L
(lp2175
(lp2176
tp2177
a(L3814391302L
L0L
(lp2178
(lp2179
tp2180
a(L2902417580L
L0L
(lp2181
(lp2182
tp2183
a(L1279340476L
L3785322319L
(lp2184
(lp2185
Vesp_log_early_timestamp
p2186
atp2187
a(L1613213999L
L0L
(lp2188
(lp2189
tp2190
a(L1167861556L
L0L
(lp2191
(lp2192
tp2193
a(L3260980605L
L0L
(lp2194
(lp2195
tp2196
a(L2910371777L
L0L
(lp2197
(lp2198
tp2199
a(L1235012932L
L0L
(lp2200
(lp2201
tp2202
a(L2384762683L
L3785322319L
(lp2203
(lp2204
Vesp_log_early_timestamp
p2205
atp2206
atp2207
sI1074237628
(Vbootloader_munmap
p2208
(lp2209
(L1406971354L
L0L
(lp2210
(lp2211
tp2212
a(L1341401488L
L0L
(lp2213
(lp2214
tp2215
a(L3360570486L
L0L
(lp2216
(lp2217
tp2218
atp2219
sI1074237116
(Vbootloader_common_ota_select_valid
p2220
(lp2221
(L1563399710L
L3785322319L
(lp2222
(lp2223
Vbootloader_common_ota_select_invalid
p2224
atp2225
a(L3814720849L
L3785322319L
(lp2226
(lp2227
Vbootloader_common_ota_select_crc
p2228
atp2229
a(L3360570486L
L0L
(lp2230
(lp2231
tp2232
atp2233
sI1074245816
(Vwdt_hal_set_flashboot_en
p2234
(lp2235
(L2375320464L
L0L
(lp2236
(lp2237
tp2238
a(L2716561907L
L0L
(lp2239
(lp2240
tp2241
a(L3360570486L
L0L
(lp2242
(lp2243
tp2244
a(L2967380441L
L0L
(lp2245
(lp2246
tp2247
atp2248
sI1074269640
(Vbootloader_config_wdt
p2249
(lp2250
(L1795339050L
L505859776L
(lp2251
(lp2252
Vwdt_hal_write_protect_disable
p2253
aVwdt_hal_set_flashboot_en
p2254
aVwdt_hal_write_protect_enable
p2255
aVwdt_hal_init
p2256
aVrtc_clk_slow_freq_get_hz
p2257
aVwdt_hal_write_protect_disable
p2258
aVwdt_hal_config_stage
p2259
aVwdt_hal_enable
p2260
aVwdt_hal_write_protect_enable
p2261
aVwdt_hal_write_protect_disable
p2262
aVwdt_hal_set_flashboot_en
p2263
aVwdt_hal_write_protect_enable
p2264
atp2265
atp2266
sI1074235332
(Vbootloader_execute_flash_command
p2267
(lp2268
(L2481595632L
L3785322319L
(lp2269
(lp2270
Vbootloader_flash_execute_command_common
p2271
atp2272
atp2273
sI1074237376
(Vbootloader_common_select_otadata
p2274
(lp2275
(L2342662536L
L0L
(lp2276
(lp2277
tp2278
a(L3806783650L
L0L
(lp2279
(lp2280
tp2281
a(L1674928252L
L0L
(lp2282
(lp2283
tp2284
a(L251571983L
L0L
(lp2285
(lp2286
tp2287
a(L3360570486L
L0L
(lp2288
(lp2289
tp2290
a(L2045232488L
L0L
(lp2291
(lp2292
tp2293
a(L189726519L
L0L
(lp2294
(lp2295
tp2296
a(L3095066987L
L0L
(lp2297
(lp2298
tp2299
a(L3592023188L
L0L
(lp2300
(lp2301
tp2302
a(L1641201884L
L0L
(lp2303
(lp2304
tp2305
atp2306
sI1074238144
(Vbootloader_enable_wp
p2307
(lp2308
(L1117825804L
L3785322319L
(lp2309
(lp2310
Vbootloader_execute_flash_command
p2311
atp2312
atp2313
sI1074240704
(Vabort
p2314
(lp2315
(L955159064L
L0L
(lp2316
(lp2317
tp2318
a(L409441471L
L0L
(lp2319
(lp2320
tp2321
a(L106L
L0L
(lp2322
(lp2323
tp2324
atp2325
sI1074247116
(Vrtc_clk_xtal_freq_get
p2326
(lp2327
(L1542611135L
L0L
(lp2328
(lp2329
tp2330
a(L2847936993L
L0L
(lp2331
(lp2332
tp2333
a(L1997005089L
L0L
(lp2334
(lp2335
tp2336
a(L3360570486L
L0L
(lp2337
(lp2338
tp2339
atp2340
sI1074246604
(Vrtc_clk_slow_freq_get
p2341
(lp2342
(L772186783L
L0L
(lp2343
(lp2344
tp2345
atp2346
sI1074236876
(Vefuse_hal_chip_revision
p2347
(lp2348
(L1761205471L
L1880226080L
(lp2349
(lp2350
Vefuse_hal_get_major_chip_version
p2351
aVefuse_hal_get_minor_chip_version
p2352
atp2353
atp2354
sI1074247372
(Vrtc_clk_xtal_freq_update
p2355
(lp2356
(L1808953078L
L0L
(lp2357
(lp2358
tp2359
a(L3509357017L
L0L
(lp2360
(lp2361
tp2362
a(L3020103887L
L0L
(lp2363
(lp2364
tp2365
atp2366
sI1074247884
(Vrtc_clk_cal_internal
p2367
(lp2368
(L2925422389L
L0L
(lp2369
(lp2370
tp2371
a(L1004375261L
L3785322319L
(lp2372
(lp2373
V__assert_func
p2374
atp2375
a(L459043500L
L0L
(lp2376
(lp2377
tp2378
a(L3017366L
L0L
(lp2379
(lp2380
tp2381
a(L2781091364L
L0L
(lp2382
(lp2383
tp2384
a(L4169864463L
L1880226080L
(lp2385
(lp2386
Vrtc_clk_8m_enabled
p2387
aVrtc_clk_8md256_enabled
p2388
atp2389
a(L1223459660L
L3785322319L
(lp2390
(lp2391
Vrtc_clk_8m_enable
p2392
atp2393
a(L3834474685L
L0L
(lp2394
(lp2395
tp2396
a(L3502850147L
L0L
(lp2397
(lp2398
tp2399
a(L97689L
L0L
(lp2400
(lp2401
tp2402
a(L2644922694L
L0L
(lp2403
(lp2404
tp2405
a(L3028464L
L0L
(lp2406
(lp2407
tp2408
a(L3028481L
L0L
(lp2409
(lp2410
tp2411
a(L3450259759L
L0L
(lp2412
(lp2413
tp2414
a(L2555542938L
L3785322319L
(lp2415
(lp2416
Vrtc_clk_xtal_freq_get
p2417
atp2418
a(L2780079961L
L0L
(lp2419
(lp2420
tp2421
a(L3540480598L
L0L
(lp2422
(lp2423
tp2424
a(L821600223L
L3785322319L
(lp2425
(lp2426
Vesp_log_early_timestamp
p2427
atp2428
a(L3360570486L
L0L
(lp2429
(lp2430
tp2431
a(L512349968L
L0L
(lp2432
(lp2433
tp2434
a(L748565485L
L0L
(lp2435
(lp2436
tp2437
a(L3028481L
L0L
(lp2438
(lp2439
tp2440
a(L3379927380L
L0L
(lp2441
(lp2442
tp2443
a(L755155573L
L3785322319L
(lp2444
(lp2445
Vrtc_clk_8m_enable
p2446
atp2447
a(L3631005548L
L0L
(lp2448
(lp2449
tp2450
a(L10409074L
L0L
(lp2451
(lp2452
tp2453
a(L3352263364L
L0L
(lp2454
(lp2455
tp2456
atp2457
sI1074244808
(Vwdt_hal_init
p2458
(lp2459
(L1204084869L
L0L
(lp2460
(lp2461
tp2462
a(L397764803L
L0L
(lp2463
(lp2464
tp2465
a(L2805933868L
L0L
(lp2466
(lp2467
tp2468
a(L3092044116L
L0L
(lp2469
(lp2470
tp2471
a(L1157874369L
L0L
(lp2472
(lp2473
tp2474
a(L3360570486L
L0L
(lp2475
(lp2476
tp2477
a(L3570943104L
L0L
(lp2478
(lp2479
tp2480
atp2481
sI1074240468
(Vbootloader_sha256_finish
p2482
(lp2483
(L4066096136L
L0L
(lp2484
(lp2485
tp2486
a(L2426305169L
L0L
(lp2487
(lp2488
tp2489
a(L3850111886L
L3785322319L
(lp2490
(lp2491
V__assert_func
p2492
atp2493
a(L3020204L
L0L
(lp2494
(lp2495
tp2496
a(L4168155120L
L0L
(lp2497
(lp2498
tp2499
a(L2534656226L
L0L
(lp2500
(lp2501
tp2502
a(L594679483L
L3785322319L
(lp2503
(lp2504
Vbootloader_sha256_data
p2505
atp2506
a(L3284853523L
L0L
(lp2507
(lp2508
tp2509
a(L2128130505L
L3785322319L
(lp2510
(lp2511
Vbootloader_sha256_data
p2512
atp2513
a(L3330117473L
L0L
(lp2514
(lp2515
tp2516
a(L657425439L
L0L
(lp2517
(lp2518
tp2519
a(L291134599L
L0L
(lp2520
(lp2521
tp2522
a(L657425439L
L0L
(lp2523
(lp2524
tp2525
a(L3130909398L
L0L
(lp2526
(lp2527
tp2528
a(L2804482273L
L0L
(lp2529
(lp2530
tp2531
a(L3347778L
L0L
(lp2532
(lp2533
tp2534
a(L3360570486L
L0L
(lp2535
(lp2536
tp2537
atp2538
sI1074238164
(Vbootloader_mmap_get_free_pages
p2539
(lp2540
(L1496516875L
L0L
(lp2541
(lp2542
tp2543
atp2544
sI1074240212
(Vindex_to_partition
p2545
(lp2546
(L4066096119L
L0L
(lp2547
(lp2548
tp2549
a(L1739185955L
L0L
(lp2550
(lp2551
tp2552
a(L2171552758L
L0L
(lp2553
(lp2554
tp2555
a(L2808906342L
L0L
(lp2556
(lp2557
tp2558
a(L2101481936L
L0L
(lp2559
(lp2560
tp2561
a(L3698927993L
L0L
(lp2562
(lp2563
tp2564
a(L2808826781L
L0L
(lp2565
(lp2566
tp2567
a(L3003398163L
L0L
(lp2568
(lp2569
tp2570
a(L1104460200L
L0L
(lp2571
(lp2572
tp2573
a(L1087646172L
L0L
(lp2574
(lp2575
tp2576
atp2577
sI1074239952
(Vbootloader_utility_load_boot_image
p2578
(lp2579
(L1561528311L
L0L
(lp2580
(lp2581
tp2582
a(L2177418995L
L3785322319L
(lp2583
(lp2584
Vtry_load_partition
p2585
atp2586
a(L2749106626L
L3785322319L
(lp2587
(lp2588
Vload_image
p2589
atp2590
a(L3017448975L
L3785322319L
(lp2591
(lp2592
Vesp_log_early_timestamp
p2593
atp2594
a(L3827921190L
L3785322319L
(lp2595
(lp2596
Vbootloader_reset
p2597
atp2598
a(L2542673780L
L3785322319L
(lp2599
(lp2600
Vindex_to_partition
p2601
atp2602
a(L1204373741L
L3785322319L
(lp2603
(lp2604
Vtry_load_partition
p2605
atp2606
a(L3020187L
L0L
(lp2607
(lp2608
tp2609
a(L4183184105L
L0L
(lp2610
(lp2611
tp2612
a(L2070875117L
L3785322319L
(lp2613
(lp2614
Vset_actual_ota_seq
p2615
atp2616
a(L1868897605L
L3785322319L
(lp2617
(lp2618
Vlog_invalid_app_partition
p2619
atp2620
a(L831650730L
L0L
(lp2621
(lp2622
tp2623
a(L3021737L
L0L
(lp2624
(lp2625
tp2626
a(L4083823862L
L0L
(lp2627
(lp2628
tp2629
a(L3818328201L
L3785322319L
(lp2630
(lp2631
Vtry_load_partition
p2632
atp2633
a(L2415418022L
L3785322319L
(lp2634
(lp2635
Vesp_log_early_timestamp
p2636
atp2637
a(L2185156151L
L3785322319L
(lp2638
(lp2639
Vindex_to_partition
p2640
atp2641
a(L1074657773L
L3785322319L
(lp2642
(lp2643
Vtry_load_partition
p2644
atp2645
a(L3027024L
L0L
(lp2646
(lp2647
tp2648
a(L1706561638L
L0L
(lp2649
(lp2650
tp2651
a(L3061261803L
L0L
(lp2652
(lp2653
tp2654
a(L3582858798L
L3785322319L
(lp2655
(lp2656
Vlog_invalid_app_partition
p2657
atp2658
a(L2838063384L
L3785322319L
(lp2659
(lp2660
Vesp_log_early_timestamp
p2661
atp2662
atp2663
sI1074234832
(Vbootloader_flash_execute_command_common
p2664
(lp2665
(L630859308L
L0L
(lp2666
(lp2667
tp2668
a(L120555568L
L0L
(lp2669
(lp2670
tp2671
a(L2925418774L
L3785322319L
(lp2672
(lp2673
V__assert_func
p2674
atp2675
a(L3021749L
L0L
(lp2676
(lp2677
tp2678
a(L153183052L
L0L
(lp2679
(lp2680
tp2681
a(L3132325827L
L0L
(lp2682
(lp2683
tp2684
a(L1782874522L
L0L
(lp2685
(lp2686
tp2687
a(L4024113366L
L0L
(lp2688
(lp2689
tp2690
a(L2147958864L
L0L
(lp2691
(lp2692
tp2693
a(L831940355L
L0L
(lp2694
(lp2695
tp2696
a(L2039827138L
L0L
(lp2697
(lp2698
tp2699
a(L2429937038L
L0L
(lp2700
(lp2701
tp2702
a(L2186295391L
L0L
(lp2703
(lp2704
tp2705
a(L3079186448L
L0L
(lp2706
(lp2707
tp2708
a(L3333696662L
L0L
(lp2709
(lp2710
tp2711
a(L963425213L
L0L
(lp2712
(lp2713
tp2714
a(L3172016656L
L0L
(lp2715
(lp2716
tp2717
a(L3360570486L
L0L
(lp2718
(lp2719
tp2720
a(L1184240068L
L0L
(lp2721
(lp2722
tp2723
atp2724
sI1074239196
(Vtry_load_partition
p2725
(lp2726
(L1263750142L
L0L
(lp2727
(lp2728
tp2729
a(L2258688482L
L0L
(lp2730
(lp2731
tp2732
a(L3360570486L
L0L
(lp2733
(lp2734
tp2735
a(L530241438L
L3785322319L
(lp2736
(lp2737
Vbootloader_load_image
p2738
atp2739
a(L3866049243L
L3785322319L
(lp2740
(lp2741
Vesp_log_early_timestamp
p2742
atp2743
atp2744
sI1074238172
(Vbootloader_fill_random
p2745
(lp2746
(L3026789978L
L0L
(lp2747
(lp2748
tp2749
a(L1056102925L
L0L
(lp2750
(lp2751
tp2752
a(L97689L
L0L
(lp2753
(lp2754
tp2755
a(L3360570486L
L0L
(lp2756
(lp2757
tp2758
a(L353495740L
L3785322319L
(lp2759
(lp2760
V__assert_func
p2761
atp2762
a(L2008660626L
L0L
(lp2763
(lp2764
tp2765
a(L3028481L
L0L
(lp2766
(lp2767
tp2768
a(L983138374L
L0L
(lp2769
(lp2770
tp2771
a(L2607138306L
L0L
(lp2772
(lp2773
tp2774
a(L1982128194L
L0L
(lp2775
(lp2776
tp2777
atp2778
sI1074236636
(Vbootloader_common_get_chip_ver_pkg
p2779
(lp2780
(L1176319107L
L0L
(lp2781
(lp2782
tp2783
atp2784
sI1074242524
(Vimage_load
p2785
(lp2786
(L745499722L
L0L
(lp2787
(lp2788
tp2789
a(L1899869538L
L0L
(lp2790
(lp2791
tp2792
a(L9219888L
L0L
(lp2793
(lp2794
tp2795
a(L3287910782L
L0L
(lp2796
(lp2797
tp2798
a(L3020187L
L0L
(lp2799
(lp2800
tp2801
a(L3991327922L
L3785322319L
(lp2802
(lp2803
Vesp_log_early_timestamp
p2804
atp2805
a(L2068384292L
L0L
(lp2806
(lp2807
tp2808
a(L1968553470L
L3785322319L
(lp2809
(lp2810
Vbootloader_sha256_finish
p2811
atp2812
a(L2488000255L
L0L
(lp2813
(lp2814
tp2815
a(L3271848319L
L0L
(lp2816
(lp2817
tp2818
a(L1182930974L
L0L
(lp2819
(lp2820
tp2821
a(L3678851644L
L3785322319L
(lp2822
(lp2823
Vprocess_image_header
p2824
atp2825
a(L1341816907L
L0L
(lp2826
(lp2827
tp2828
a(L909494482L
L0L
(lp2829
(lp2830
tp2831
a(L1028073566L
L3785322319L
(lp2832
(lp2833
Vprocess_segments
p2834
atp2835
a(L3803885910L
L0L
(lp2836
(lp2837
tp2838
a(L94425498L
L3785322319L
(lp2839
(lp2840
Vesp_cpu_in_ocd_debug_mode
p2841
atp2842
a(L454195650L
L3785322319L
(lp2843
(lp2844
Vprocess_checksum
p2845
atp2846
a(L1651117269L
L3785322319L
(lp2847
(lp2848
Vprocess_appended_hash
p2849
atp2850
a(L533710513L
L0L
(lp2851
(lp2852
tp2853
a(L505081362L
L0L
(lp2854
(lp2855
tp2856
a(L3212356251L
L3785322319L
(lp2857
(lp2858
Vesp_cpu_in_ocd_debug_mode
p2859
atp2860
a(L1198227567L
L1880226080L
(lp2861
(lp2862
Vbootloader_sha256_finish
p2863
aVbootloader_debug_buffer
p2864
atp2865
a(L3928684791L
L1880226080L
(lp2866
(lp2867
Vesp_log_early_timestamp
p2868
aVbootloader_debug_buffer
p2869
atp2870
a(L978077504L
L0L
(lp2871
(lp2872
tp2873
a(L2068384292L
L0L
(lp2874
(lp2875
tp2876
a(L858449684L
L3785322319L
(lp2877
(lp2878
Vbootloader_sha256_finish
p2879
atp2880
a(L3028481L
L0L
(lp2881
(lp2882
tp2883
a(L93674324L
L0L
(lp2884
(lp2885
tp2886
a(L3046569754L
L0L
(lp2887
(lp2888
tp2889
a(L2429164518L
L0L
(lp2890
(lp2891
tp2892
a(L3553619191L
L0L
(lp2893
(lp2894
tp2895
a(L85798113L
L0L
(lp2896
(lp2897
tp2898
a(L464010095L
L0L
(lp2899
(lp2900
tp2901
a(L835563811L
L3785322319L
(lp2902
(lp2903
Vshould_load
p2904
atp2905
a(L1358360603L
L0L
(lp2906
(lp2907
tp2908
a(L4224160879L
L0L
(lp2909
(lp2910
tp2911
a(L22884489L
L0L
(lp2912
(lp2913
tp2914
a(L741351569L
L0L
(lp2915
(lp2916
tp2917
a(L434644776L
L0L
(lp2918
(lp2919
tp2920
a(L106L
L0L
(lp2921
(lp2922
tp2923
a(L709419389L
L0L
(lp2924
(lp2925
tp2926
a(L1299866312L
L0L
(lp2927
(lp2928
tp2929
atp2930
sI1074243292
(Vesp_rom_spiflash_read_status
p2931
(lp2932
(L3562601385L
L0L
(lp2933
(lp2934
tp2935
a(L1182811815L
L0L
(lp2936
(lp2937
tp2938
a(L1932570474L
L0L
(lp2939
(lp2940
tp2941
a(L106L
L0L
(lp2942
(lp2943
tp2944
a(L1922848735L
L0L
(lp2945
(lp2946
tp2947
a(L4004659960L
L0L
(lp2948
(lp2949
tp2950
a(L2123059967L
L0L
(lp2951
(lp2952
tp2953
a(L1973734210L
L0L
(lp2954
(lp2955
tp2956
a(L2392720019L
L0L
(lp2957
(lp2958
tp2959
atp2960
sI1074246620
(Vrtc_clk_slow_freq_get_hz
p2961
(lp2962
(L3105642876L
L0L
(lp2963
(lp2964
tp2965
a(L611533329L
L0L
(lp2966
(lp2967
tp2968
a(L3360570486L
L0L
(lp2969
(lp2970
tp2971
atp2972
sI1074267860
(Vbootloader_common_vddsdio_configure
p2973
(lp2974
(L1922017289L
L3785322319L
(lp2975
(lp2976
Vrtc_vddsdio_get_config
p2977
atp2978
a(L1612109748L
L3785322319L
(lp2979
(lp2980
Vrtc_vddsdio_set_config
p2981
atp2982
a(L3360570486L
L0L
(lp2983
(lp2984
tp2985
atp2986
sI1074246360
(Vrtc_clk_8m_enable
p2987
(lp2988
(L2387201586L
L0L
(lp2989
(lp2990
tp2991
a(L752960688L
L0L
(lp2992
(lp2993
tp2994
a(L2151320156L
L0L
(lp2995
(lp2996
tp2997
a(L1391734358L
L0L
(lp2998
(lp2999
tp3000
a(L3360570486L
L0L
(lp3001
(lp3002
tp3003
a(L1318267208L
L0L
(lp3004
(lp3005
tp3006
a(L2506900513L
L0L
(lp3007
(lp3008
tp3009
atp3010
sI1074235364
(Vbootloader_flash_unlock
p3011
(lp3012
(L142706334L
L3785322319L
(lp3013
(lp3014
Vesp_rom_spiflash_wait_idle
p3015
atp3016
a(L4024621237L
L0L
(lp3017
(lp3018
tp3019
a(L4292483033L
L3785322319L
(lp3020
(lp3021
Vbootloader_execute_flash_command
p3022
atp3023
a(L106L
L0L
(lp3024
(lp3025
tp3026
a(L1303560644L
L0L
(lp3027
(lp3028
tp3029
a(L1419965066L
L0L
(lp3030
(lp3031
tp3032
a(L106L
L0L
(lp3033
(lp3034
tp3035
a(L1633120054L
L0L
(lp3036
(lp3037
tp3038
a(L106L
L0L
(lp3039
(lp3040
tp3041
a(L2974484771L
L0L
(lp3042
(lp3043
tp3044
a(L106L
L0L
(lp3045
(lp3046
tp3047
a(L1481761147L
L1880226080L
(lp3048
(lp3049
Vbootloader_execute_flash_command
p3050
aVbootloader_execute_flash_command
p3051
atp3052
a(L2258807654L
L0L
(lp3053
(lp3054
tp3055
a(L489806350L
L1832448559L
(lp3056
(lp3057
Vesp_rom_spiflash_wait_idle
p3058
aVbootloader_execute_flash_command
p3059
aVbootloader_execute_flash_command
p3060
atp3061
a(L879744646L
L1832448559L
(lp3062
(lp3063
Vesp_rom_spiflash_wait_idle
p3064
aVbootloader_execute_flash_command
p3065
aVbootloader_execute_flash_command
p3066
atp3067
a(L1840772931L
L1880226080L
(lp3068
(lp3069
Vesp_rom_spiflash_wait_idle
p3070
aVbootloader_execute_flash_command
p3071
atp3072
a(L2993202392L
L0L
(lp3073
(lp3074
tp3075
a(L508800419L
L1880226080L
(lp3076
(lp3077
Vbootloader_execute_flash_command
p3078
aVbootloader_execute_flash_command
p3079
atp3080
a(L1303560369L
L0L
(lp3081
(lp3082
tp3083
a(L1596544945L
L0L
(lp3084
(lp3085
tp3086
a(L97689L
L0L
(lp3087
(lp3088
tp3089
a(L106L
L0L
(lp3090
(lp3091
tp3092
atp3093
sI1074243812
(Vesp_rom_spiflash_write
p3094
(lp3095
(L1191373647L
L0L
(lp3096
(lp3097
tp3098
a(L2258688483L
L0L
(lp3099
(lp3100
tp3101
a(L3360570486L
L0L
(lp3102
(lp3103
tp3104
a(L1590344338L
L0L
(lp3105
(lp3106
tp3107
a(L3106685987L
L0L
(lp3108
(lp3109
tp3110
a(L4249336406L
L3785322319L
(lp3111
(lp3112
Vesp_rom_spiflash_program_page_internal
p3113
atp3114
a(L1915738254L
L3785322319L
(lp3115
(lp3116
Vesp_rom_spiflash_program_page_internal
p3117
atp3118
a(L663507325L
L0L
(lp3119
(lp3120
tp3121
a(L2392967593L
L0L
(lp3122
(lp3123
tp3124
a(L564470687L
L0L
(lp3125
(lp3126
tp3127
a(L154459701L
L3785322319L
(lp3128
(lp3129
Vesp_rom_spiflash_program_page_internal
p3130
atp3131
a(L2079643754L
L0L
(lp3132
(lp3133
tp3134
atp3135
sI1074270700
(Vrtc_vddsdio_set_config
p3136
(lp3137
(L2913621689L
L0L
(lp3138
(lp3139
tp3140
atp3141
sI1074237152
(Vbootloader_common_check_chip_validity
p3142
(lp3143
(L409865374L
L0L
(lp3144
(lp3145
tp3146
a(L3008458885L
L3785322319L
(lp3147
(lp3148
Vesp_log_early_timestamp
p3149
atp3150
a(L1508931617L
L3785322319L
(lp3151
(lp3152
Vefuse_hal_chip_revision
p3153
atp3154
a(L93674324L
L0L
(lp3155
(lp3156
tp3157
a(L4170554374L
L3785322319L
(lp3158
(lp3159
Vesp_log_early_timestamp
p3160
atp3161
a(L1641201884L
L0L
(lp3162
(lp3163
tp3164
a(L2258688482L
L0L
(lp3165
(lp3166
tp3167
a(L3360570486L
L0L
(lp3168
(lp3169
tp3170
atp3171
sI1074269920
(Vrtc_clk_xtal_freq_estimate
p3172
(lp3173
(L2516060585L
L1880226080L
(lp3174
(lp3175
Vrtc_clk_8m_enabled
p3176
aVrtc_clk_8md256_enabled
p3177
atp3178
a(L967485502L
L3785322319L
(lp3179
(lp3180
Vrtc_clk_8m_enable
p3181
atp3182
a(L3868271755L
L3785322319L
(lp3183
(lp3184
Vrtc_clk_cal_ratio
p3185
atp3186
a(L2531412100L
L0L
(lp3187
(lp3188
tp3189
a(L3360570486L
L0L
(lp3190
(lp3191
tp3192
a(L1994958769L
L3785322319L
(lp3193
(lp3194
Vesp_log_early_timestamp
p3195
atp3196
atp3197
sI1074236908
(Vefuse_hal_get_major_chip_version
p3198
(lp3199
(L3421545156L
L0L
(lp3200
(lp3201
tp3202
a(L3989534928L
L0L
(lp3203
(lp3204
tp3205
a(L3360570486L
L0L
(lp3206
(lp3207
tp3208
atp3209
sI1074241004
(Vprocess_image_header
p3210
(lp3211
(L2618347250L
L3785322319L
(lp3212
(lp3213
Vbootloader_flash_read
p3214
atp3215
a(L3020204L
L0L
(lp3216
(lp3217
tp3218
a(L182056016L
L0L
(lp3219
(lp3220
tp3221
a(L1727394037L
L0L
(lp3222
(lp3223
tp3224
a(L1161397362L
L3785322319L
(lp3225
(lp3226
Vbootloader_sha256_start
p3227
atp3228
a(L2062774299L
L3785322319L
(lp3229
(lp3230
Vbootloader_sha256_data
p3231
atp3232
a(L2226581267L
L0L
(lp3233
(lp3234
tp3235
a(L3020204L
L0L
(lp3236
(lp3237
tp3238
a(L3200755544L
L0L
(lp3239
(lp3240
tp3241
a(L2983970029L
L0L
(lp3242
(lp3243
tp3244
a(L2084831782L
L3785322319L
(lp3245
(lp3246
Vesp_log_early_timestamp
p3247
atp3248
a(L3028481L
L0L
(lp3249
(lp3250
tp3251
a(L2299376216L
L0L
(lp3252
(lp3253
tp3254
a(L3519447553L
L3785322319L
(lp3255
(lp3256
Vesp_log_early_timestamp
p3257
atp3258
a(L2886566498L
L0L
(lp3259
(lp3260
tp3261
a(L1287309200L
L3785322319L
(lp3262
(lp3263
Vesp_log_early_timestamp
p3264
atp3265
a(L545088956L
L3785322319L
(lp3266
(lp3267
Vbootloader_common_check_chip_validity
p3268
atp3269
a(L2786305996L
L0L
(lp3270
(lp3271
tp3272
a(L3028481L
L0L
(lp3273
(lp3274
tp3275
a(L3356138668L
L3785322319L
(lp3276
(lp3277
Vesp_log_early_timestamp
p3278
atp3279
a(L2852701393L
L0L
(lp3280
(lp3281
tp3282
a(L2122516551L
L0L
(lp3283
(lp3284
tp3285
a(L3064492592L
L0L
(lp3286
(lp3287
tp3288
atp3289
sI1074244072
(Vesp_rom_spiflash_read
p3290
(lp3291
(L1049473468L
L0L
(lp3292
(lp3293
tp3294
a(L2962423754L
L0L
(lp3295
(lp3296
tp3297
a(L2860271684L
L0L
(lp3298
(lp3299
tp3300
a(L3017366L
L0L
(lp3301
(lp3302
tp3303
a(L106L
L0L
(lp3304
(lp3305
tp3306
a(L1382871118L
L0L
(lp3307
(lp3308
tp3309
a(L106L
L0L
(lp3310
(lp3311
tp3312
a(L1263787764L
L0L
(lp3313
(lp3314
tp3315
a(L3629779559L
L0L
(lp3316
(lp3317
tp3318
a(L1646084303L
L0L
(lp3319
(lp3320
tp3321
a(L3537851620L
L0L
(lp3322
(lp3323
tp3324
a(L106L
L0L
(lp3325
(lp3326
tp3327
a(L2670305459L
L3785322319L
(lp3328
(lp3329
Vesp_rom_spiflash_wait_idle
p3330
atp3331
a(L3021737L
L0L
(lp3332
(lp3333
tp3334
a(L106L
L0L
(lp3335
(lp3336
tp3337
a(L1868280504L
L0L
(lp3338
(lp3339
tp3340
a(L106L
L0L
(lp3341
(lp3342
tp3343
a(L3736481532L
L0L
(lp3344
(lp3345
tp3346
a(L1221163038L
L0L
(lp3347
(lp3348
tp3349
a(L4122060822L
L0L
(lp3350
(lp3351
tp3352
a(L121253891L
L0L
(lp3353
(lp3354
tp3355
a(L2989032L
L0L
(lp3356
(lp3357
tp3358
a(L3819849625L
L0L
(lp3359
(lp3360
tp3361
a(L2943133976L
L0L
(lp3362
(lp3363
tp3364
a(L159915120L
L0L
(lp3365
(lp3366
tp3367
a(L3901820614L
L0L
(lp3368
(lp3369
tp3370
a(L1019633599L
L0L
(lp3371
(lp3372
tp3373
a(L1896415737L
L0L
(lp3374
(lp3375
tp3376
a(L1522202953L
L0L
(lp3377
(lp3378
tp3379
a(L4279609317L
L0L
(lp3380
(lp3381
tp3382
a(L2964559468L
L0L
(lp3383
(lp3384
tp3385
a(L2267384310L
L0L
(lp3386
(lp3387
tp3388
a(L2696140277L
L0L
(lp3389
(lp3390
tp3391
a(L2687789892L
L0L
(lp3392
(lp3393
tp3394
a(L1405253496L
L0L
(lp3395
(lp3396
tp3397
a(L2402829682L
L0L
(lp3398
(lp3399
tp3400
a(L97689L
L0L
(lp3401
(lp3402
tp3403
a(L2258897019L
L0L
(lp3404
(lp3405
tp3406
a(L4014024819L
L0L
(lp3407
(lp3408
tp3409
a(L3621567083L
L0L
(lp3410
(lp3411
tp3412
atp3413
sI1074247156
(Vrtc_clk_cpu_freq_mhz_to_config
p3414
(lp3415
(L2601984125L
L3785322319L
(lp3416
(lp3417
Vrtc_clk_xtal_freq_get
p3418
atp3419
a(L2089656409L
L0L
(lp3420
(lp3421
tp3422
a(L3814337874L
L0L
(lp3423
(lp3424
tp3425
a(L3126521138L
L0L
(lp3426
(lp3427
tp3428
a(L2762074623L
L0L
(lp3429
(lp3430
tp3431
a(L1541996779L
L0L
(lp3432
(lp3433
tp3434
a(L2916936348L
L0L
(lp3435
(lp3436
tp3437
a(L1555485793L
L0L
(lp3438
(lp3439
tp3440
a(L2258897023L
L0L
(lp3441
(lp3442
tp3443
a(L1947499251L
L0L
(lp3444
(lp3445
tp3446
a(L1306331021L
L0L
(lp3447
(lp3448
tp3449
atp3450
sI1074241264
(Vbootloader_util_regions_overlap
p3451
(lp3452
(L2762640130L
L0L
(lp3453
(lp3454
tp3455
a(L3659618707L
L0L
(lp3456
(lp3457
tp3458
a(L1647451197L
L3785322319L
(lp3459
(lp3460
V__assert_func
p3461
atp3462
a(L97642L
L0L
(lp3463
(lp3464
tp3465
a(L3340801499L
L0L
(lp3466
(lp3467
tp3468
a(L366123053L
L0L
(lp3469
(lp3470
tp3471
a(L2258867228L
L0L
(lp3472
(lp3473
tp3474
a(L1253626734L
L0L
(lp3475
(lp3476
tp3477
a(L2258897019L
L0L
(lp3478
(lp3479
tp3480
a(L3109269495L
L0L
(lp3481
(lp3482
tp3483
atp3484
sI1074240752
(Vbootloader_ana_clock_glitch_reset_config
p3485
(lp3486
(L2100504542L
L0L
(lp3487
(lp3488
tp3489
atp3490
sI1074237680
(Vbootloader_flash_read
p3491
(lp3492
(L2699333355L
L0L
(lp3493
(lp3494
tp3495
a(L1134859429L
L3785322319L
(lp3496
(lp3497
Vesp_log_early_timestamp
p3498
atp3499
a(L44113432L
L0L
(lp3500
(lp3501
tp3502
a(L1299867982L
L0L
(lp3503
(lp3504
tp3505
a(L3360570486L
L0L
(lp3506
(lp3507
tp3508
a(L2660352519L
L0L
(lp3509
(lp3510
tp3511
a(L3132108828L
L3785322319L
(lp3512
(lp3513
Vesp_log_early_timestamp
p3514
atp3515
a(L162336582L
L0L
(lp3516
(lp3517
tp3518
a(L1181807953L
L3785322319L
(lp3519
(lp3520
Vesp_log_early_timestamp
p3521
atp3522
a(L3020204L
L0L
(lp3523
(lp3524
tp3525
a(L1398573769L
L0L
(lp3526
(lp3527
tp3528
a(L97422L
L0L
(lp3529
(lp3530
tp3531
a(L2018549829L
L0L
(lp3532
(lp3533
tp3534
a(L1895240536L
L0L
(lp3535
(lp3536
tp3537
a(L486806570L
L3785322319L
(lp3538
(lp3539
Vesp_log_early_timestamp
p3540
atp3541
a(L413914689L
L0L
(lp3542
(lp3543
tp3544
a(L2869220355L
L0L
(lp3545
(lp3546
tp3547
a(L1280600787L
L3785322319L
(lp3548
(lp3549
Vesp_rom_spiflash_read
p3550
atp3551
a(L106L
L0L
(lp3552
(lp3553
tp3554
a(L248331579L
L0L
(lp3555
(lp3556
tp3557
atp3558
sI1074236668
(Vesp_cpu_in_ocd_debug_mode
p3559
(lp3560
(L2131426160L
L0L
(lp3561
(lp3562
tp3563
atp3564
sI1074245884
(Vwdt_hal_write_protect_enable
p3565
(lp3566
(L387778158L
L0L
(lp3567
(lp3568
tp3569
a(L4195472003L
L0L
(lp3570
(lp3571
tp3572
a(L3360570486L
L0L
(lp3573
(lp3574
tp3575
a(L802523425L
L0L
(lp3576
(lp3577
tp3578
atp3579
sI1074246652
(Vrtc_clk_fast_freq_set
p3580
(lp3581
(L1561398871L
L0L
(lp3582
(lp3583
tp3584
atp3585
sI1074268148
(Vbootloader_init
p3586
(lp3587
(L2956637306L
L3785322319L
(lp3588
(lp3589
Vbootloader_init_mem
p3590
atp3591
a(L1574759535L
L0L
(lp3592
(lp3593
tp3594
a(L2505738386L
L3785322319L
(lp3595
(lp3596
V__assert_func
p3597
atp3598
a(L1991724622L
L0L
(lp3599
(lp3600
tp3601
a(L966001373L
L0L
(lp3602
(lp3603
tp3604
a(L2926278337L
L0L
(lp3605
(lp3606
tp3607
a(L2369200439L
L0L
(lp3608
(lp3609
tp3610
a(L3027019L
L0L
(lp3611
(lp3612
tp3613
a(L273728577L
L0L
(lp3614
(lp3615
tp3616
a(L693405810L
L1832448559L
(lp3617
(lp3618
Vbootloader_clear_bss_section
p3619
aVbootloader_common_vddsdio_configure
p3620
aVbootloader_clock_get_rated_freq_mhz
p3621
atp3622
a(L3987130017L
L1157885199L
(lp3623
(lp3624
Vbootloader_clock_configure
p3625
aVbootloader_console_init
p3626
aVbootloader_print_banner
p3627
aVbootloader_flash_update_id
p3628
aVbootloader_flash_xmc_startup
p3629
atp3630
a(L454185234L
L3785322319L
(lp3631
(lp3632
Vesp_log_early_timestamp
p3633
atp3634
a(L887072750L
L3785322319L
(lp3635
(lp3636
Vesp_log_early_timestamp
p3637
atp3638
a(L3360570486L
L0L
(lp3639
(lp3640
tp3641
a(L2444883382L
L3785322319L
(lp3642
(lp3643
Vbootloader_read_bootloader_header
p3644
atp3645
a(L2444883382L
L3785322319L
(lp3646
(lp3647
Vbootloader_check_bootloader_validity
p3648
atp3649
a(L675083476L
L1157885199L
(lp3650
(lp3651
Vbootloader_flash_gpio_config
p3652
aVbootloader_flash_dummy_config
p3653
aVbootloader_flash_cs_timing_config
p3654
aVbootloader_flash_unlock
p3655
aVesp_log_early_timestamp
p3656
atp3657
a(L1578764909L
L0L
(lp3658
(lp3659
tp3660
a(L1618476312L
L0L
(lp3661
(lp3662
tp3663
a(L1589847161L
L0L
(lp3664
(lp3665
tp3666
a(L1571376741L
L0L
(lp3667
(lp3668
tp3669
a(L3902505838L
L0L
(lp3670
(lp3671
tp3672
a(L255306491L
L3785322319L
(lp3673
(lp3674
Vesp_log_early_timestamp
p3675
atp3676
a(L1787773517L
L0L
(lp3677
(lp3678
tp3679
a(L2611896117L
L3785322319L
(lp3680
(lp3681
Vesp_log_early_timestamp
p3682
atp3683
a(L1613092619L
L0L
(lp3684
(lp3685
tp3686
a(L2393191567L
L3785322319L
(lp3687
(lp3688
Vbootloader_enable_wp
p3689
atp3690
a(L282760458L
L0L
(lp3691
(lp3692
tp3693
a(L2994055137L
L3785322319L
(lp3694
(lp3695
Vesp_log_early_timestamp
p3696
atp3697
a(L1328209163L
L0L
(lp3698
(lp3699
tp3700
a(L502323150L
L0L
(lp3701
(lp3702
tp3703
a(L2902417580L
L0L
(lp3704
(lp3705
tp3706
a(L1944713791L
L1880226080L
(lp3707
(lp3708
Vwdt_reset_info_dump
p3709
aVwdt_reset_info_dump
p3710
atp3711
a(L4235188628L
L1880226080L
(lp3712
(lp3713
Vbootloader_config_wdt
p3714
aVbootloader_enable_random
p3715
atp3716
a(L3867148451L
L3785322319L
(lp3717
(lp3718
Vesp_log_early_timestamp
p3719
atp3720
atp3721
sI1074240760
(Vprocess_appended_hash
p3722
(lp3723
(L3580132405L
L0L
(lp3724
(lp3725
tp3726
a(L3028481L
L0L
(lp3727
(lp3728
tp3729
a(L1591589631L
L0L
(lp3730
(lp3731
tp3732
a(L1864319304L
L0L
(lp3733
(lp3734
tp3735
a(L2876597018L
L0L
(lp3736
(lp3737
tp3738
a(L1201342627L
L3785322319L
(lp3739
(lp3740
Vesp_log_early_timestamp
p3741
atp3742
a(L894030452L
L3785322319L
(lp3743
(lp3744
Vbootloader_flash_read
p3745
atp3746
a(L3871473710L
L0L
(lp3747
(lp3748
tp3749
atp3750
sI1074247416
(Vrtc_clk_apb_freq_update
p3751
(lp3752
(L1841704389L
L0L
(lp3753
(lp3754
tp3755
atp3756
ssS'functionsdups'
p3757
g11
((lp3758
tp3759
Rp3760
sS'immediatedups'
p3761
g11
((lp3762
tp3763
Rp3764
sS'functiondups'
p3765
g11
((lp3766
tp3767
Rp3768
sS'fuzzy'
p3769
(dp3770
L1536L
I1074240680
sL430153639L
I1074236020
sL3121027072L
I1074270540
sL2082889262L
I1074240760
sL45806640L
I1074236684
sL3879741902L
I1074241320
sL3538491111L
I1074247444
sL2919016435L
I1074235364
sL1540367692L
I1074269920
sL2680783959L
I1074235752
sL1600634745L
I1074237152
sL3512578114L
I1074239196
sL975599493L
I1074239060
sL114144873L
I1074237964
sL2469233929L
I1074240468
sL1377559356L
I1074242524
sL2475522855L
I1074269568
sL3051955266L
I1074268148
sL3897252859L
I1074238976
sL541189360L
I1074241004
sL1065525808L
I1074236992
sL2183816734L
I1074267776
sL2327783177L
I1074240852
sL1035771659L
I1074237680
sL1858929274L
I1074246008
sL1164839255L
I1074241808
sL449860969L
I1074247156
sL3210669721L
I1074246300
sL1332800441L
I1074237308
sL2884218272L
I1074267928
sL4160102055L
I1074239920
sL4202185385L
I1074243384
sL2966529024L
I1074246712
sL2453272040L
I1074247884
sL1768086576L
I1074236488
sL4171975289L
I1074243680
sL1565254297L
I1074243984
sL2191698036L
I1074269640
sL1513350244L
I1074239616
sL2474570535L
I1074238172
sL3428965560L
I1074247560
sL502463145L
I1074234832
sL3948954811L
I1074239244
sL519424169L
I1074248340
sL812946199L
I1074237456
sL737694352L
I1074243492
sL503029138L
I1074243432
sL277788135L
I1074244072
sL4253866342L
I1074239952
sL3991645697L
I1074268828
sL47534270L
I1074238592
sL2262558768L
I1074243292
sL424867129L
I1074243812
sL1554975810L
I1074237992
sL3834155367L
I1074241264
sL3791345684L
I1074269840
sL3883282432L
I1074241688
sL4173399607L
I1074243004
sL2726385143L
I1074245396
sL1667054119L
I1074240304
sL4191211306L
I1074247244
sL2687107543L
I1074270084
ssb.