ccopy_reg
_reconstructor
p0
(crizzo
RizzoSignature
p1
c__builtin__
object
p2
Ntp3
Rp4
(dp5
S'formal'
p6
(dp7
L733494206L
I1074239116
sL3462833505L
I1074238408
sL3669424062L
I1074236568
sL3428456530L
I1074240824
sL2886561796L
I1074235864
sL1533878372L
I1074269840
sL1741170115L
I1074237800
sL150107897L
I1074237828
sL3839347161L
I1074267940
sL3617524619L
I1074245540
sL3581412716L
I1074271508
sL2064144157L
I1074235816
sL1433108606L
I1074241996
sL1951820609L
I1074243500
sL816097971L
I1074272316
sL2393451953L
I1074267996
sL1809667780L
I1074268776
sL3347343773L
I1074269912
sL2183698484L
I1074244280
sL2251229235L
I1074244008
sL1815150096L
I1074267836
sL2843664222L
I1074269460
sL1872876931L
I1074245644
sL1816049180L
I1074270780
sL822991915L
I1074268552
sL1296434798L
I1074240708
sL762333785L
I1074245736
sL2226190491L
I1074236784
sL204371201L
I1074237056
sL619878850L
I1074243948
sL3681946689L
I1074239336
sL213724293L
I1074269784
sL3663276131L
I1074244856
sL2195980192L
I1074234472
sL2661152721L
I1074242020
sL644316459L
I1074269076
sL1904560840L
I1074272764
sL4202775248L
I1074235152
sL3514461475L
I1074237260
sL1456331926L
I1074234976
sL3443213914L
I1074243600
sL3702197710L
I1074240224
sL4199533354L
I1074269812
sL533351847L
I1074242128
sL3755958450L
I1074271340
sL3018006924L
I1074242204
sL1501897716L
I1074243176
sL278159331L
I1074237020
sL1141849463L
I1074235832
sL2168213828L
I1074241260
sL2489011234L
I1074245568
sL3097059555L
I1074239972
sL3034792605L
I1074269264
sL2726498556L
I1074237208
sL3965610460L
I1074236920
sL3067327568L
I1074239512
sL3849899764L
I1074244332
sL4155870266L
I1074235648
sL1427291266L
I1074239524
sL1754001947L
I1074270452
sL1727876460L
I1074270608
sL3765143545L
I1074240324
sL2465985897L
I1074240872
sL1621871165L
I1074238936
sL968469038L
I1074237936
sL1739085375L
I1074272244
sL4013669795L
I1074243652
sL3756807029L
I1074238812
sL975048066L
I1074236888
sL3123346102L
I1074245584
sL4132304592L
I1074245916
sL1731090062L
I1074237444
sL1493614500L
I1074237636
sL1638140934L
I1074237500
sL4291181418L
I1074244764
sL731968268L
I1074270824
sL4060450998L
I1074236644
sL1521400349L
I1074268228
sL3848231147L
I1074240304
sL2358021945L
I1074236548
sL2512927102L
I1074245500
sL1868338154L
I1074267808
sL4179931283L
I1074236604
sL3631392714L
I1074240488
sL1620131885L
I1074241128
sL1817398508L
I1074240988
sL2557222099L
I1074271004
sL1337624699L
I1074269972
sL1396453881L
I1074235904
sL1851461534L
I1074267956
sL4202230973L
I1074269928
sL4230517728L
I1074272796
sL472370670L
I1074269628
sL1351291200L
I1074235040
sL3292083445L
I1074270016
sL362127192L
I1074244244
sL3198600555L
I1074246024
sL2432257846L
I1074243160
sL606590198L
I1074269564
sL267584033L
I1074269120
sL2892100530L
I1074236696
sL2143214440L
I1074238992
sL2875459251L
I1074271248
sL2263182908L
I1074237820
sL2841073034L
I1074244564
sL1603886919L
I1074238724
sL489309134L
I1074240296
sL3686520671L
I1074268744
sL2184575697L
I1074270032
sL211760506L
I1074239732
sL1063127992L
I1074270852
sL1224721176L
I1074245600
sL2206638433L
I1074271160
sL78111567L
I1074241832
sL429269116L
I1074239928
sL269980157L
I1074244464
sL2056232548L
I1074242484
sL4109328644L
I1074270508
sL2136231610L
I1074268284
sL2261506084L
I1074235000
sL3738658343L
I1074268448
sL1475260698L
I1074269396
sL2894674045L
I1074271984
sL240369573L
I1074234452
sL3745020111L
I1074267884
sL1786186381L
I1074239084
sL2014915043L
I1074243720
ssS'immediates'
p8
(dp9
sS'formaldups'
p10
c__builtin__
set
p11
((lp12
tp13
Rp14
sS'stringdups'
p15
g11
((lp16
tp17
Rp18
sS'fuzzydups'
p19
g11
((lp20
tp21
Rp22
sS'strings'
p23
(dp24
sS'functions'
p25
(dp26
I1074237444
(Vbootloader_munmap
p27
(lp28
(L4156824140L
L0L
(lp29
(lp30
tp31
a(L2774342042L
L0L
(lp32
(lp33
tp34
a(L3360570486L
L0L
(lp35
(lp36
tp37
atp38
sI1074238724
(Vlog_invalid_app_partition
p39
(lp40
(L3991230301L
L0L
(lp41
(lp42
tp43
a(L3028464L
L0L
(lp44
(lp45
tp46
a(L2308600572L
L3785322319L
(lp47
(lp48
Vesp_log_early_timestamp
p49
atp50
a(L4154943335L
L3785322319L
(lp51
(lp52
Vesp_log_early_timestamp
p53
atp54
a(L3871323730L
L3785322319L
(lp55
(lp56
Vesp_log_early_timestamp
p57
atp58
atp59
sI1074235904
(V__udivdi3
p60
(lp61
(L1385793588L
L0L
(lp62
(lp63
tp64
a(L3027019L
L0L
(lp65
(lp66
tp67
a(L106L
L0L
(lp68
(lp69
tp70
a(L2092509388L
L0L
(lp71
(lp72
tp73
a(L3502386743L
L0L
(lp74
(lp75
tp76
a(L1366962904L
L0L
(lp77
(lp78
tp79
a(L438338333L
L0L
(lp80
(lp81
tp82
a(L3027019L
L0L
(lp83
(lp84
tp85
a(L1598954342L
L0L
(lp86
(lp87
tp88
a(L3753924055L
L0L
(lp89
(lp90
tp91
a(L1897931368L
L0L
(lp92
(lp93
tp94
a(L1870013079L
L0L
(lp95
(lp96
tp97
a(L3021749L
L0L
(lp98
(lp99
tp100
a(L2802159608L
L0L
(lp101
(lp102
tp103
a(L3888552627L
L0L
(lp104
(lp105
tp106
a(L2632174215L
L0L
(lp107
(lp108
tp109
a(L2910371777L
L0L
(lp110
(lp111
tp112
a(L305663930L
L0L
(lp113
(lp114
tp115
a(L2740121073L
L0L
(lp116
(lp117
tp118
a(L706293450L
L0L
(lp119
(lp120
tp121
a(L4229162210L
L0L
(lp122
(lp123
tp124
a(L2843085605L
L0L
(lp125
(lp126
tp127
a(L3027019L
L0L
(lp128
(lp129
tp130
a(L3073587686L
L0L
(lp131
(lp132
tp133
a(L3122262879L
L0L
(lp134
(lp135
tp136
a(L1300871293L
L0L
(lp137
(lp138
tp139
a(L94415139L
L0L
(lp140
(lp141
tp142
a(L3027019L
L0L
(lp143
(lp144
tp145
a(L11368960L
L0L
(lp146
(lp147
tp148
a(L3212626947L
L0L
(lp149
(lp150
tp151
a(L3756070799L
L0L
(lp152
(lp153
tp154
a(L1029992261L
L0L
(lp155
(lp156
tp157
a(L438338333L
L0L
(lp158
(lp159
tp160
a(L3027019L
L0L
(lp161
(lp162
tp163
a(L2534896770L
L0L
(lp164
(lp165
tp166
a(L2789765947L
L0L
(lp167
(lp168
tp169
a(L3482374298L
L0L
(lp170
(lp171
tp172
a(L1870018349L
L0L
(lp173
(lp174
tp175
a(L3027019L
L0L
(lp176
(lp177
tp178
a(L2802159608L
L0L
(lp179
(lp180
tp181
a(L3888552627L
L0L
(lp182
(lp183
tp184
a(L36877582L
L0L
(lp185
(lp186
tp187
a(L3021749L
L0L
(lp188
(lp189
tp190
a(L106L
L0L
(lp191
(lp192
tp193
a(L3988749468L
L0L
(lp194
(lp195
tp196
a(L1375050317L
L0L
(lp197
(lp198
tp199
a(L4185861754L
L0L
(lp200
(lp201
tp202
a(L892947480L
L0L
(lp203
(lp204
tp205
a(L2258688482L
L0L
(lp206
(lp207
tp208
a(L2856348002L
L0L
(lp209
(lp210
tp211
a(L1351383952L
L0L
(lp212
(lp213
tp214
a(L1681866360L
L0L
(lp215
(lp216
tp217
a(L3021749L
L0L
(lp218
(lp219
tp220
a(L4115096326L
L0L
(lp221
(lp222
tp223
a(L2229771582L
L0L
(lp224
(lp225
tp226
a(L3630858718L
L0L
(lp227
(lp228
tp229
a(L1986658244L
L0L
(lp230
(lp231
tp232
a(L3027019L
L0L
(lp233
(lp234
tp235
a(L2802159608L
L0L
(lp236
(lp237
tp238
a(L2938387302L
L0L
(lp239
(lp240
tp241
a(L3219580898L
L0L
(lp242
(lp243
tp244
a(L4280816470L
L0L
(lp245
(lp246
tp247
a(L97422L
L0L
(lp248
(lp249
tp250
a(L1621601873L
L0L
(lp251
(lp252
tp253
a(L3070693089L
L0L
(lp254
(lp255
tp256
a(L2361595480L
L0L
(lp257
(lp258
tp259
a(L539227760L
L0L
(lp260
(lp261
tp262
atp263
sI1074235648
(Vbootloader_flash_dummy_config
p264
(lp265
(L29985232L
L0L
(lp266
(lp267
tp268
a(L3017366L
L0L
(lp269
(lp270
tp271
a(L3016870L
L0L
(lp272
(lp273
tp274
a(L2704877724L
L0L
(lp275
(lp276
tp277
a(L3795431303L
L0L
(lp278
(lp279
tp280
a(L1610443405L
L0L
(lp281
(lp282
tp283
a(L1610443405L
L0L
(lp284
(lp285
tp286
a(L1610443498L
L0L
(lp287
(lp288
tp289
a(L1298875780L
L0L
(lp290
(lp291
tp292
a(L680882736L
L0L
(lp293
(lp294
tp295
a(L2902417580L
L0L
(lp296
(lp297
tp298
a(L106L
L0L
(lp299
(lp300
tp301
a(L3632614529L
L0L
(lp302
(lp303
tp304
a(L325410616L
L0L
(lp305
(lp306
tp307
a(L2363466905L
L0L
(lp308
(lp309
tp310
a(L419079280L
L0L
(lp311
(lp312
tp313
a(L3127423664L
L0L
(lp314
(lp315
tp316
atp317
sI1074245644
(Vrtc_wdt_set_time
p318
(lp319
(L607216364L
L0L
(lp320
(lp321
tp322
a(L4002207382L
L1880226080L
(lp323
(lp324
Vrtc_clk_slow_freq_get_hz
p325
aV__udivdi3
p326
atp327
a(L2049935415L
L0L
(lp328
(lp329
tp330
a(L3028464L
L0L
(lp331
(lp332
tp333
a(L970173612L
L0L
(lp334
(lp335
tp336
a(L3028464L
L0L
(lp337
(lp338
tp339
a(L618874176L
L0L
(lp340
(lp341
tp342
a(L4125107900L
L0L
(lp343
(lp344
tp345
a(L2079009947L
L0L
(lp346
(lp347
tp348
atp349
sI1074271004
(Vrtc_clk_cpu_freq_to_pll_mhz
p350
(lp351
(L3639301015L
L0L
(lp352
(lp353
tp354
a(L1541996779L
L0L
(lp355
(lp356
tp357
a(L1546614651L
L0L
(lp358
(lp359
tp360
a(L2670517661L
L0L
(lp361
(lp362
tp363
a(L4234851216L
L1880226080L
(lp364
(lp365
Vesp_log_early_timestamp
p366
aVabort
p367
atp368
a(L3546033543L
L0L
(lp369
(lp370
tp371
a(L3307832802L
L0L
(lp372
(lp373
tp374
a(L281079294L
L1880226080L
(lp375
(lp376
Vrtc_clk_apb_freq_update
p377
aVrtc_clk_wait_for_slow_cycle
p378
atp379
atp380
sI1074272796
(Vrtc_clk_wait_for_slow_cycle
p381
(lp382
(L564455216L
L0L
(lp383
(lp384
tp385
a(L2656563631L
L0L
(lp386
(lp387
tp388
a(L3470264715L
L0L
(lp389
(lp390
tp391
a(L3360570486L
L0L
(lp392
(lp393
tp394
atp395
sI1074235152
(Vbootloader_flash_gpio_config
p396
(lp397
(L1541720566L
L0L
(lp398
(lp399
tp400
a(L1299866374L
L0L
(lp401
(lp402
tp403
a(L2258688485L
L0L
(lp404
(lp405
tp406
a(L2999495356L
L0L
(lp407
(lp408
tp409
a(L175178334L
L0L
(lp410
(lp411
tp412
a(L3955219521L
L0L
(lp413
(lp414
tp415
a(L2136722540L
L0L
(lp416
(lp417
tp418
a(L177068915L
L0L
(lp419
(lp420
tp421
a(L3111470142L
L0L
(lp422
(lp423
tp424
a(L3360570486L
L0L
(lp425
(lp426
tp427
atp428
sI1074238992
(Vset_actual_ota_seq
p429
(lp430
(L4094723830L
L0L
(lp431
(lp432
tp433
a(L1856842854L
L0L
(lp434
(lp435
tp436
a(L1028890073L
L3785322319L
(lp437
(lp438
Vbootloader_common_ota_select_crc
p439
atp440
a(L3016870L
L0L
(lp441
(lp442
tp443
a(L1312346502L
L0L
(lp444
(lp445
tp446
a(L1139269215L
L0L
(lp447
(lp448
tp449
a(L3028481L
L0L
(lp450
(lp451
tp452
a(L3725529034L
L3785322319L
(lp453
(lp454
Vwrite_otadata
p455
atp456
a(L3360570486L
L0L
(lp457
(lp458
tp459
atp460
sI1074243600
(Vesp_rom_spiflash_wait_idle
p461
(lp462
(L287326052L
L0L
(lp463
(lp464
tp465
a(L2487610008L
L0L
(lp466
(lp467
tp468
a(L799599004L
L0L
(lp469
(lp470
tp471
a(L855829385L
L3785322319L
(lp472
(lp473
Vesp_rom_spiflash_read_status
p474
atp475
a(L1298875774L
L0L
(lp476
(lp477
tp478
a(L735741265L
L0L
(lp479
(lp480
tp481
atp482
sI1074271248
(Vrtc_clk_cpu_freq_set_config
p483
(lp484
(L75076579L
L3785322319L
(lp485
(lp486
Vrtc_clk_xtal_freq_get
p487
atp488
a(L1739379997L
L1880226080L
(lp489
(lp490
Vrtc_clk_cpu_freq_to_xtal
p491
aVrtc_clk_wait_for_slow_cycle
p492
atp493
a(L3028464L
L0L
(lp494
(lp495
tp496
a(L94425498L
L3785322319L
(lp497
(lp498
Vrtc_clk_bbpll_disable
p499
atp500
a(L3978916712L
L0L
(lp501
(lp502
tp503
a(L2977209154L
L0L
(lp504
(lp505
tp506
a(L540421064L
L3785322319L
(lp507
(lp508
Vrtc_clk_cpu_freq_to_xtal
p509
atp510
a(L3028464L
L0L
(lp511
(lp512
tp513
a(L2697686144L
L1157885199L
(lp514
(lp515
Vrtc_clk_bbpll_enable
p516
aVrtc_clk_wait_for_slow_cycle
p517
aVrtc_clk_xtal_freq_get
p518
aVrtc_clk_bbpll_configure
p519
aVrtc_clk_cpu_freq_to_pll_mhz
p520
atp521
a(L3028464L
L0L
(lp522
(lp523
tp524
a(L94425498L
L3785322319L
(lp525
(lp526
Vrtc_clk_cpu_freq_to_8m
p527
atp528
a(L3360570486L
L0L
(lp529
(lp530
tp531
atp532
sI1074245916
(Vrtc_wdt_disable
p533
(lp534
(L1233433337L
L3785322319L
(lp535
(lp536
Vrtc_wdt_get_protect_status
p537
atp538
a(L3827921190L
L3785322319L
(lp539
(lp540
Vrtc_wdt_protect_off
p541
atp542
a(L2213866652L
L2485746240L
(lp543
(lp544
Vrtc_wdt_set_stage
p545
aVrtc_wdt_set_stage
p546
aVrtc_wdt_set_stage
p547
aVrtc_wdt_set_stage
p548
atp549
a(L94425498L
L3785322319L
(lp550
(lp551
Vrtc_wdt_protect_on
p552
atp553
a(L3360570486L
L0L
(lp554
(lp555
tp556
atp557
sI1074269460
(Vrtc_clk_bbpll_enable
p558
(lp559
(L3073182187L
L0L
(lp560
(lp561
tp562
atp563
sI1074269972
(Vrtc_clk_fast_freq_set
p564
(lp565
(L656647926L
L0L
(lp566
(lp567
tp568
atp569
sI1074271508
(Vrtc_clk_init
p570
(lp571
(L3087474744L
L0L
(lp572
(lp573
tp574
a(L2549152574L
L3785322319L
(lp575
(lp576
Vrtc_clk_cpu_freq_to_xtal
p577
atp578
a(L3834421231L
L0L
(lp579
(lp580
tp581
a(L1056182979L
L0L
(lp582
(lp583
tp584
a(L3224614952L
L0L
(lp585
(lp586
tp587
a(L1299866312L
L0L
(lp588
(lp589
tp590
a(L1299866312L
L0L
(lp591
(lp592
tp593
a(L1182811811L
L0L
(lp594
(lp595
tp596
a(L3020204L
L0L
(lp597
(lp598
tp599
a(L1849746773L
L3785322319L
(lp600
(lp601
Vrtc_clk_xtal_freq_get
p602
atp603
a(L1375577398L
L3785322319L
(lp604
(lp605
Vrtc_clk_xtal_freq_estimate
p606
atp607
a(L212084767L
L3785322319L
(lp608
(lp609
Vesp_log_early_timestamp
p610
atp611
a(L409399064L
L0L
(lp612
(lp613
tp614
a(L4233392623L
L0L
(lp615
(lp616
tp617
a(L1300789833L
L0L
(lp618
(lp619
tp620
a(L1300789833L
L0L
(lp621
(lp622
tp623
a(L2258718274L
L0L
(lp624
(lp625
tp626
a(L3028481L
L0L
(lp627
(lp628
tp629
a(L3183127930L
L3785322319L
(lp630
(lp631
Vrtc_clk_xtal_freq_estimate
p632
atp633
a(L413650423L
L3785322319L
(lp634
(lp635
Vesp_log_early_timestamp
p636
atp637
a(L757419054L
L0L
(lp638
(lp639
tp640
a(L157611327L
L2485746240L
(lp641
(lp642
Vrtc_clk_xtal_freq_update
p643
aVrtc_clk_apb_freq_update
p644
aVrtc_clk_cpu_freq_get_config
p645
aVrtc_clk_cpu_freq_mhz_to_config
p646
atp647
a(L2299136381L
L1880226080L
(lp648
(lp649
Vesp_log_early_timestamp
p650
aVabort
p651
atp652
a(L3323333509L
L3785322319L
(lp653
(lp654
Vrtc_clk_cpu_freq_set_config
p655
atp656
a(L3804637084L
L3785322319L
(lp657
(lp658
Vrtc_clk_32k_enable
p659
atp660
a(L3016870L
L0L
(lp661
(lp662
tp663
a(L3495036323L
L3785322319L
(lp664
(lp665
Vrtc_clk_8m_enable
p666
atp667
a(L530469956L
L1880226080L
(lp668
(lp669
Vrtc_clk_fast_freq_set
p670
aVrtc_clk_slow_freq_set
p671
atp672
atp673
sI1074237208
(Vbootloader_flash_read_no_decrypt
p674
(lp675
(L2594365253L
L1880226080L
(lp676
(lp677
Vesp_rom_spiflash_read
p678
aVspi_to_esp_err
p679
atp680
atp681
sI1074236696
(Vbootloader_common_get_chip_revision
p682
(lp683
(L198853448L
L0L
(lp684
(lp685
tp686
a(L3020187L
L0L
(lp687
(lp688
tp689
a(L3020187L
L0L
(lp690
(lp691
tp692
a(L2993202392L
L0L
(lp693
(lp694
tp695
a(L473242458L
L0L
(lp696
(lp697
tp698
a(L1360746139L
L0L
(lp699
(lp700
tp701
a(L3880706073L
L0L
(lp702
(lp703
tp704
atp705
sI1074239512
(Vload_image
p706
(lp707
(L1599382955L
L1880226080L
(lp708
(lp709
Vbootloader_random_disable
p710
aVunpack_load_app
p711
atp712
atp713
sI1074239524
(Vbootloader_utility_load_partition_table
p714
(lp715
(L2939295695L
L3785322319L
(lp716
(lp717
Vbootloader_mmap
p718
atp719
a(L2839576995L
L3785322319L
(lp720
(lp721
Vesp_log_early_timestamp
p722
atp723
a(L1640479211L
L3785322319L
(lp724
(lp725
Vesp_partition_table_verify
p726
atp727
a(L2391514800L
L3785322319L
(lp728
(lp729
Vesp_log_early_timestamp
p730
atp731
a(L2035507904L
L0L
(lp732
(lp733
tp734
a(L3020187L
L0L
(lp735
(lp736
tp737
a(L106L
L0L
(lp738
(lp739
tp740
a(L3137092968L
L0L
(lp741
(lp742
tp743
a(L3020187L
L0L
(lp744
(lp745
tp746
a(L106L
L0L
(lp747
(lp748
tp749
a(L735059833L
L0L
(lp750
(lp751
tp752
a(L455830292L
L0L
(lp753
(lp754
tp755
a(L2610008785L
L0L
(lp756
(lp757
tp758
a(L4220418956L
L0L
(lp759
(lp760
tp761
a(L3145047165L
L0L
(lp762
(lp763
tp764
a(L743044586L
L0L
(lp765
(lp766
tp767
a(L3376871561L
L0L
(lp768
(lp769
tp770
a(L2306437309L
L0L
(lp771
(lp772
tp773
a(L871720679L
L0L
(lp774
(lp775
tp776
a(L2187730653L
L3785322319L
(lp777
(lp778
Vbootloader_munmap
p779
atp780
atp781
sI1074270508
(Vrtc_clk_cpu_freq_mhz_to_config
p782
(lp783
(L2601984125L
L3785322319L
(lp784
(lp785
Vrtc_clk_xtal_freq_get
p786
atp787
a(L608772507L
L0L
(lp788
(lp789
tp790
a(L3263839434L
L0L
(lp791
(lp792
tp793
a(L2762074623L
L0L
(lp794
(lp795
tp796
a(L1541996779L
L0L
(lp797
(lp798
tp799
a(L1546614651L
L0L
(lp800
(lp801
tp802
a(L1555485793L
L0L
(lp803
(lp804
tp805
a(L1695987314L
L0L
(lp806
(lp807
tp808
a(L3652406074L
L0L
(lp809
(lp810
tp811
a(L260454862L
L0L
(lp812
(lp813
tp814
a(L2993202392L
L0L
(lp815
(lp816
tp817
a(L2993202392L
L0L
(lp818
(lp819
tp820
atp821
sI1074268448
(Vupdate_flash_config
p822
(lp823
(L1046059555L
L0L
(lp824
(lp825
tp826
a(L93674324L
L0L
(lp827
(lp828
tp829
a(L2902417580L
L0L
(lp830
(lp831
tp832
a(L106L
L0L
(lp833
(lp834
tp835
a(L3020187L
L0L
(lp836
(lp837
tp838
a(L3020187L
L0L
(lp839
(lp840
tp841
a(L106L
L0L
(lp842
(lp843
tp844
a(L1299866343L
L0L
(lp845
(lp846
tp847
a(L1299866436L
L0L
(lp848
(lp849
tp850
a(L1299866560L
L0L
(lp851
(lp852
tp853
a(L1641149277L
L0L
(lp854
(lp855
tp856
a(L2258688484L
L0L
(lp857
(lp858
tp859
a(L74579922L
L0L
(lp860
(lp861
tp862
atp863
sI1074267940
(Vprint_flash_info
p864
(lp865
(L3711533291L
L0L
(lp866
(lp867
tp868
atp869
sI1074241832
(Vprocess_segment_data
p870
(lp871
(L3236683529L
L3785322319L
(lp872
(lp873
Vbootloader_mmap
p874
atp875
a(L1012593763L
L3785322319L
(lp876
(lp877
Vesp_log_early_timestamp
p878
atp879
a(L1877994419L
L3785322319L
(lp880
(lp881
Vbootloader_fill_random
p882
atp883
a(L1834271588L
L0L
(lp884
(lp885
tp886
a(L1837965672L
L0L
(lp887
(lp888
tp889
a(L1299866312L
L0L
(lp890
(lp891
tp892
a(L2008416411L
L0L
(lp893
(lp894
tp895
a(L127299853L
L0L
(lp896
(lp897
tp898
a(L3922897988L
L0L
(lp899
(lp900
tp901
a(L1234923754L
L0L
(lp902
(lp903
tp904
a(L4117779536L
L0L
(lp905
(lp906
tp907
a(L2902417580L
L0L
(lp908
(lp909
tp910
a(L2505185480L
L0L
(lp911
(lp912
tp913
a(L3094078540L
L3785322319L
(lp914
(lp915
Vbootloader_sha256_data
p916
atp917
a(L1770629922L
L0L
(lp918
(lp919
tp920
a(L3896226538L
L0L
(lp921
(lp922
tp923
a(L1564127900L
L3785322319L
(lp924
(lp925
Vbootloader_munmap
p926
atp927
atp928
sI1074240296
(Vcheck_anti_rollback
p929
(lp930
(L786711473L
L0L
(lp931
(lp932
tp933
atp934
sI1074270780
(Vrtc_clk_xtal_freq_update
p935
(lp936
(L1164633650L
L0L
(lp937
(lp938
tp939
a(L3509357017L
L0L
(lp940
(lp941
tp942
a(L415681954L
L0L
(lp943
(lp944
tp945
atp946
sI1074272316
(Vrtc_clk_cal_internal
p947
(lp948
(L2881589231L
L0L
(lp949
(lp950
tp951
a(L3420048410L
L3785322319L
(lp952
(lp953
V__assert_func
p954
atp955
a(L3777623816L
L0L
(lp956
(lp957
tp958
a(L3880548194L
L0L
(lp959
(lp960
tp961
a(L3028464L
L0L
(lp962
(lp963
tp964
a(L408441473L
L0L
(lp965
(lp966
tp967
a(L1459084678L
L0L
(lp968
(lp969
tp970
a(L3778615171L
L0L
(lp971
(lp972
tp973
a(L97422L
L0L
(lp974
(lp975
tp976
a(L571614780L
L0L
(lp977
(lp978
tp979
a(L3900079227L
L0L
(lp980
(lp981
tp982
a(L3900079847L
L0L
(lp983
(lp984
tp985
a(L3900079847L
L0L
(lp986
(lp987
tp988
a(L3900079227L
L0L
(lp989
(lp990
tp991
a(L3450944952L
L0L
(lp992
(lp993
tp994
a(L948082656L
L1880226080L
(lp995
(lp996
V__udivdi3
p997
aVrtc_clk_xtal_freq_get
p998
atp999
a(L1610443417L
L0L
(lp1000
(lp1001
tp1002
a(L2136430482L
L0L
(lp1003
(lp1004
tp1005
a(L1383022894L
L3785322319L
(lp1006
(lp1007
Vesp_log_early_timestamp
p1008
atp1009
a(L276172471L
L0L
(lp1010
(lp1011
tp1012
a(L2784583831L
L0L
(lp1013
(lp1014
tp1015
a(L3470265211L
L0L
(lp1016
(lp1017
tp1018
a(L3021737L
L0L
(lp1019
(lp1020
tp1021
a(L3947337873L
L0L
(lp1022
(lp1023
tp1024
a(L1471169863L
L0L
(lp1025
(lp1026
tp1027
a(L2902417580L
L0L
(lp1028
(lp1029
tp1030
a(L2644727698L
L0L
(lp1031
(lp1032
tp1033
a(L2993202392L
L0L
(lp1034
(lp1035
tp1036
atp1037
sI1074240304
(Vbootloader_sha256_start
p1038
(lp1039
(L1375000715L
L0L
(lp1040
(lp1041
tp1042
atp1043
sI1074237500
(Vbootloader_flash_read
p1044
(lp1045
(L1127605422L
L0L
(lp1046
(lp1047
tp1048
a(L3306752229L
L3785322319L
(lp1049
(lp1050
Vesp_log_early_timestamp
p1051
atp1052
a(L899934477L
L0L
(lp1053
(lp1054
tp1055
a(L2274914727L
L3785322319L
(lp1056
(lp1057
Vesp_log_early_timestamp
p1058
atp1059
a(L2696885836L
L0L
(lp1060
(lp1061
tp1062
a(L1914289996L
L3785322319L
(lp1063
(lp1064
Vesp_log_early_timestamp
p1065
atp1066
a(L3020204L
L0L
(lp1067
(lp1068
tp1069
a(L3807724270L
L3785322319L
(lp1070
(lp1071
Vbootloader_flash_read_allow_decrypt
p1072
atp1073
a(L1959236078L
L3785322319L
(lp1074
(lp1075
Vbootloader_flash_read_no_decrypt
p1076
atp1077
atp1078
sI1074267956
(Vwdt_reset_cpu0_info_enable
p1079
(lp1080
(L1097754722L
L0L
(lp1081
(lp1082
tp1083
atp1084
sI1074240824
(Vshould_map
p1085
(lp1086
(L286615600L
L0L
(lp1087
(lp1088
tp1089
a(L1182990556L
L0L
(lp1090
(lp1091
tp1092
a(L1641397733L
L0L
(lp1093
(lp1094
tp1095
a(L1182990556L
L0L
(lp1096
(lp1097
tp1098
a(L1387712984L
L0L
(lp1099
(lp1100
tp1101
atp1102
sI1074268744
(V__assert_func
p1103
(lp1104
(L26716385L
L3785322319L
(lp1105
(lp1106
Vesp_log_early_timestamp
p1107
atp1108
a(L106L
L0L
(lp1109
(lp1110
tp1111
atp1112
sI1074240324
(Vbootloader_sha256_data
p1113
(lp1114
(L4037466985L
L0L
(lp1115
(lp1116
tp1117
a(L3799546098L
L3785322319L
(lp1118
(lp1119
V__assert_func
p1120
atp1121
a(L2660352519L
L0L
(lp1122
(lp1123
tp1124
a(L299551438L
L3785322319L
(lp1125
(lp1126
V__assert_func
p1127
atp1128
a(L66409669L
L0L
(lp1129
(lp1130
tp1131
a(L3707937015L
L0L
(lp1132
(lp1133
tp1134
a(L1950297696L
L0L
(lp1135
(lp1136
tp1137
a(L106L
L0L
(lp1138
(lp1139
tp1140
a(L740257840L
L3785322319L
(lp1141
(lp1142
V__bswapsi2
p1143
atp1144
a(L3027019L
L0L
(lp1145
(lp1146
tp1147
a(L2017988548L
L0L
(lp1148
(lp1149
tp1150
a(L3028464L
L0L
(lp1151
(lp1152
tp1153
a(L210027286L
L0L
(lp1154
(lp1155
tp1156
a(L274500968L
L0L
(lp1157
(lp1158
tp1159
a(L3028481L
L0L
(lp1160
(lp1161
tp1162
a(L3360570486L
L0L
(lp1163
(lp1164
tp1165
atp1166
sI1074243652
(Vesp_rom_spiflash_erase_sector_internal
p1167
(lp1168
(L1530704874L
L0L
(lp1169
(lp1170
tp1171
a(L1282656327L
L3785322319L
(lp1172
(lp1173
Vesp_rom_spiflash_wait_idle
p1174
atp1175
a(L2576167264L
L0L
(lp1176
(lp1177
tp1178
a(L1387965403L
L3785322319L
(lp1179
(lp1180
Vesp_rom_spiflash_wait_idle
p1181
atp1182
a(L3880706073L
L0L
(lp1183
(lp1184
tp1185
atp1186
sI1074270016
(Vrtc_clk_fast_freq_get
p1187
(lp1188
(L3532708377L
L0L
(lp1189
(lp1190
tp1191
atp1192
sI1074237260
(Vbootloader_mmap
p1193
(lp1194
(L1677084120L
L0L
(lp1195
(lp1196
tp1197
a(L598880173L
L3785322319L
(lp1198
(lp1199
Vesp_log_early_timestamp
p1200
atp1201
a(L84419890L
L0L
(lp1202
(lp1203
tp1204
a(L3553269335L
L3785322319L
(lp1205
(lp1206
Vesp_log_early_timestamp
p1207
atp1208
a(L965195763L
L0L
(lp1209
(lp1210
tp1211
a(L3497909988L
L3785322319L
(lp1212
(lp1213
Vesp_log_early_timestamp
p1214
atp1215
a(L1058171362L
L0L
(lp1216
(lp1217
tp1218
atp1219
sI1074268228
(Vuart_console_configure
p1220
(lp1221
(L1288160468L
L0L
(lp1222
(lp1223
tp1224
a(L757419054L
L0L
(lp1225
(lp1226
tp1227
a(L2750712698L
L3785322319L
(lp1228
(lp1229
Vrtc_clk_apb_freq_get
p1230
atp1231
atp1232
sI1074269784
(Vrtc_clk_8m_enabled
p1233
(lp1234
(L2232382960L
L0L
(lp1235
(lp1236
tp1237
atp1238
sI1074234452
(Vbootloader_init_flash_configure
p1239
(lp1240
(L2326466312L
L1832448559L
(lp1241
(lp1242
Vbootloader_flash_gpio_config
p1243
aVbootloader_flash_dummy_config
p1244
aVbootloader_flash_cs_timing_config
p1245
atp1246
atp1247
sI1074267996
(Vwdt_reset_info_dump
p1248
(lp1249
(L1642351636L
L0L
(lp1250
(lp1251
tp1252
a(L460425251L
L0L
(lp1253
(lp1254
tp1255
a(L3201441043L
L0L
(lp1256
(lp1257
tp1258
a(L3028481L
L0L
(lp1259
(lp1260
tp1261
a(L4108682322L
L0L
(lp1262
(lp1263
tp1264
a(L1868797060L
L0L
(lp1265
(lp1266
tp1267
a(L1413004396L
L0L
(lp1268
(lp1269
tp1270
a(L1550379252L
L0L
(lp1271
(lp1272
tp1273
a(L72244772L
L3785322319L
(lp1274
(lp1275
Vesp_log_early_timestamp
p1276
atp1277
a(L3671594984L
L3785322319L
(lp1278
(lp1279
Vesp_log_early_timestamp
p1280
atp1281
atp1282
sI1074242128
(Vshould_load
p1283
(lp1284
(L335110113L
L3785322319L
(lp1285
(lp1286
Vshould_map
p1287
atp1288
a(L932156149L
L0L
(lp1289
(lp1290
tp1291
a(L3028464L
L0L
(lp1292
(lp1293
tp1294
a(L503567674L
L0L
(lp1295
(lp1296
tp1297
a(L2236588537L
L0L
(lp1298
(lp1299
tp1300
a(L588274170L
L0L
(lp1301
(lp1302
tp1303
a(L1610443436L
L0L
(lp1304
(lp1305
tp1306
a(L1610443405L
L0L
(lp1307
(lp1308
tp1309
a(L1298875774L
L0L
(lp1310
(lp1311
tp1312
a(L735741265L
L0L
(lp1313
(lp1314
tp1315
atp1316
sI1074269264
(Vrtc_clk_32k_enable_common
p1317
(lp1318
(L2256624389L
L0L
(lp1319
(lp1320
tp1321
atp1322
sI1074270032
(Vrtc_clk_bbpll_configure
p1323
(lp1324
(L4270275352L
L0L
(lp1325
(lp1326
tp1327
a(L106L
L0L
(lp1328
(lp1329
tp1330
a(L642488312L
L0L
(lp1331
(lp1332
tp1333
a(L83268344L
L0L
(lp1334
(lp1335
tp1336
a(L82345090L
L0L
(lp1337
(lp1338
tp1339
a(L106L
L0L
(lp1340
(lp1341
tp1342
a(L1874018433L
L0L
(lp1343
(lp1344
tp1345
a(L1968451090L
L0L
(lp1346
(lp1347
tp1348
a(L1534915856L
L0L
(lp1349
(lp1350
tp1351
a(L1310424409L
L0L
(lp1352
(lp1353
tp1354
a(L3137265894L
L0L
(lp1355
(lp1356
tp1357
a(L2092498725L
L0L
(lp1358
(lp1359
tp1360
a(L83268344L
L0L
(lp1361
(lp1362
tp1363
a(L82345090L
L0L
(lp1364
(lp1365
tp1366
a(L106L
L0L
(lp1367
(lp1368
tp1369
a(L294729621L
L0L
(lp1370
(lp1371
tp1372
a(L2738194110L
L0L
(lp1373
(lp1374
tp1375
a(L1534915856L
L0L
(lp1376
(lp1377
tp1378
a(L1335254829L
L0L
(lp1379
(lp1380
tp1381
a(L3855877810L
L0L
(lp1382
(lp1383
tp1384
a(L4274895118L
L3785322319L
(lp1385
(lp1386
Vrtc_clk_slow_freq_get
p1387
atp1388
a(L2679108412L
L0L
(lp1389
(lp1390
tp1391
a(L2780081410L
L0L
(lp1392
(lp1393
tp1394
a(L2413167643L
L0L
(lp1395
(lp1396
tp1397
atp1398
sI1074238812
(Vread_otadata
p1399
(lp1400
(L3233392553L
L0L
(lp1401
(lp1402
tp1403
a(L1997924796L
L0L
(lp1404
(lp1405
tp1406
a(L2275904182L
L3785322319L
(lp1407
(lp1408
Vesp_log_early_timestamp
p1409
atp1410
a(L566230772L
L3785322319L
(lp1411
(lp1412
Vbootloader_mmap
p1413
atp1414
a(L2491241521L
L3785322319L
(lp1415
(lp1416
Vesp_log_early_timestamp
p1417
atp1418
a(L4172365454L
L3785322319L
(lp1419
(lp1420
Vbootloader_munmap
p1421
atp1422
a(L446553694L
L0L
(lp1423
(lp1424
tp1425
atp1426
sI1074237020
(Vspi_to_esp_err
p1427
(lp1428
(L4037458691L
L0L
(lp1429
(lp1430
tp1431
a(L2902417580L
L0L
(lp1432
(lp1433
tp1434
a(L3020187L
L0L
(lp1435
(lp1436
tp1437
a(L106L
L0L
(lp1438
(lp1439
tp1440
a(L2993202392L
L0L
(lp1441
(lp1442
tp1443
a(L3237227496L
L0L
(lp1444
(lp1445
tp1446
a(L515633988L
L0L
(lp1447
(lp1448
tp1449
a(L3807431932L
L0L
(lp1450
(lp1451
tp1452
atp1453
sI1074243160
(Vbootloader_load_image
p1454
(lp1455
(L267004326L
L3785322319L
(lp1456
(lp1457
Vimage_load
p1458
atp1459
atp1460
sI1074268776
(Vbootloader_init
p1461
(lp1462
(L3622005570L
L0L
(lp1463
(lp1464
tp1465
a(L2120392034L
L0L
(lp1466
(lp1467
tp1468
a(L93837694L
L0L
(lp1469
(lp1470
tp1471
a(L192141843L
L0L
(lp1472
(lp1473
tp1474
a(L890423072L
L3785322319L
(lp1475
(lp1476
V__assert_func
p1477
atp1478
a(L1414857802L
L0L
(lp1479
(lp1480
tp1481
a(L1379643307L
L3785322319L
(lp1482
(lp1483
V__assert_func
p1484
atp1485
a(L3087386320L
L0L
(lp1486
(lp1487
tp1488
a(L558074864L
L3785322319L
(lp1489
(lp1490
V__assert_func
p1491
atp1492
a(L3119709555L
L0L
(lp1493
(lp1494
tp1495
a(L2690640693L
L3785322319L
(lp1496
(lp1497
V__assert_func
p1498
atp1499
a(L4083247916L
L3785322319L
(lp1500
(lp1501
Vbootloader_main
p1502
atp1503
a(L1299867982L
L0L
(lp1504
(lp1505
tp1506
a(L3360570486L
L0L
(lp1507
(lp1508
tp1509
atp1510
sI1074270824
(Vrtc_clk_apb_freq_update
p1511
(lp1512
(L2848388159L
L0L
(lp1513
(lp1514
tp1515
atp1516
sI1074271340
(Vrtc_clk_xtal_freq_estimate
p1517
(lp1518
(L2516060585L
L1880226080L
(lp1519
(lp1520
Vrtc_clk_8m_enabled
p1521
aVrtc_clk_8md256_enabled
p1522
atp1523
a(L967485502L
L3785322319L
(lp1524
(lp1525
Vrtc_clk_8m_enable
p1526
atp1527
a(L342199605L
L1880226080L
(lp1528
(lp1529
Vrtc_clk_cal_ratio
p1530
aV__udivdi3
p1531
atp1532
a(L988352644L
L0L
(lp1533
(lp1534
tp1535
a(L3259613597L
L3785322319L
(lp1536
(lp1537
Vesp_log_early_timestamp
p1538
atp1539
atp1540
sI1074234976
(Vexecute_flash_command
p1541
(lp1542
(L2909450247L
L3785322319L
(lp1543
(lp1544
Vbootloader_flash_execute_command_common
p1545
atp1546
atp1547
sI1074243948
(Vesp_rom_spiflash_enable_write
p1548
(lp1549
(L3941200661L
L3785322319L
(lp1550
(lp1551
Vesp_rom_spiflash_wait_idle
p1552
atp1553
a(L290612768L
L0L
(lp1554
(lp1555
tp1556
a(L106L
L0L
(lp1557
(lp1558
tp1559
a(L1337065440L
L3785322319L
(lp1560
(lp1561
Vesp_rom_spiflash_read_status
p1562
atp1563
a(L1253527241L
L0L
(lp1564
(lp1565
tp1566
a(L2993202392L
L0L
(lp1567
(lp1568
tp1569
atp1570
sI1074239084
(Vtry_load_partition
p1571
(lp1572
(L3877261386L
L0L
(lp1573
(lp1574
tp1575
a(L3498772767L
L3785322319L
(lp1576
(lp1577
Vbootloader_load_image
p1578
atp1579
a(L3880706073L
L0L
(lp1580
(lp1581
tp1582
a(L2993202392L
L0L
(lp1583
(lp1584
tp1585
a(L2993202392L
L0L
(lp1586
(lp1587
tp1588
atp1589
sI1074234472
(Vbootloader_flash_execute_command_common
p1590
(lp1591
(L1261224870L
L0L
(lp1592
(lp1593
tp1594
a(L2340697286L
L0L
(lp1595
(lp1596
tp1597
a(L2258748064L
L0L
(lp1598
(lp1599
tp1600
a(L3261841556L
L0L
(lp1601
(lp1602
tp1603
a(L3250406954L
L0L
(lp1604
(lp1605
tp1606
a(L3020684366L
L0L
(lp1607
(lp1608
tp1609
a(L929566513L
L0L
(lp1610
(lp1611
tp1612
a(L3745123390L
L0L
(lp1613
(lp1614
tp1615
a(L2258807646L
L0L
(lp1616
(lp1617
tp1618
a(L2021375256L
L0L
(lp1619
(lp1620
tp1621
a(L1917690936L
L0L
(lp1622
(lp1623
tp1624
a(L2258718273L
L0L
(lp1625
(lp1626
tp1627
a(L3530970620L
L0L
(lp1628
(lp1629
tp1630
a(L4280063587L
L0L
(lp1631
(lp1632
tp1633
a(L1755094872L
L0L
(lp1634
(lp1635
tp1636
a(L1294320558L
L0L
(lp1637
(lp1638
tp1639
a(L3360570486L
L0L
(lp1640
(lp1641
tp1642
atp1643
sI1074237800
(Vbootloader_flash_erase_sector
p1644
(lp1645
(L4129137686L
L1880226080L
(lp1646
(lp1647
Vesp_rom_spiflash_erase_sector
p1648
aVspi_to_esp_err
p1649
atp1650
atp1651
sI1074239336
(Vunpack_load_app
p1652
(lp1653
(L1842422795L
L0L
(lp1654
(lp1655
tp1656
a(L4094004208L
L0L
(lp1657
(lp1658
tp1659
a(L2902417580L
L0L
(lp1660
(lp1661
tp1662
a(L561903401L
L3785322319L
(lp1663
(lp1664
Vesp_log_early_timestamp
p1665
atp1666
a(L3411822821L
L0L
(lp1667
(lp1668
tp1669
a(L178466000L
L0L
(lp1670
(lp1671
tp1672
a(L2902417580L
L0L
(lp1673
(lp1674
tp1675
a(L315590314L
L3785322319L
(lp1676
(lp1677
Vesp_log_early_timestamp
p1678
atp1679
a(L87648306L
L0L
(lp1680
(lp1681
tp1682
a(L1799288861L
L0L
(lp1683
(lp1684
tp1685
a(L350965691L
L0L
(lp1686
(lp1687
tp1688
a(L106L
L0L
(lp1689
(lp1690
tp1691
a(L1717315991L
L3785322319L
(lp1692
(lp1693
Vset_cache_and_start_app
p1694
atp1695
atp1696
sI1074240872
(Vverify_segment_header
p1697
(lp1698
(L3674778058L
L0L
(lp1699
(lp1700
tp1701
a(L2496966260L
L0L
(lp1702
(lp1703
tp1704
a(L3028481L
L0L
(lp1705
(lp1706
tp1707
a(L2321714127L
L3785322319L
(lp1708
(lp1709
Vesp_log_early_timestamp
p1710
atp1711
a(L536784482L
L3785322319L
(lp1712
(lp1713
Vshould_map
p1714
atp1715
a(L3496178735L
L0L
(lp1716
(lp1717
tp1718
a(L2910371777L
L0L
(lp1719
(lp1720
tp1721
a(L1308300962L
L3785322319L
(lp1722
(lp1723
Vesp_log_early_timestamp
p1724
atp1725
a(L818279594L
L0L
(lp1726
(lp1727
tp1728
a(L2993202392L
L0L
(lp1729
(lp1730
tp1731
a(L2993202392L
L0L
(lp1732
(lp1733
tp1734
a(L818279594L
L0L
(lp1735
(lp1736
tp1737
atp1738
sI1074241128
(Vverify_image_header
p1739
(lp1740
(L171376062L
L0L
(lp1741
(lp1742
tp1743
a(L2910371777L
L0L
(lp1744
(lp1745
tp1746
a(L1653135211L
L3785322319L
(lp1747
(lp1748
Vesp_log_early_timestamp
p1749
atp1750
a(L1299866312L
L0L
(lp1751
(lp1752
tp1753
a(L702738228L
L0L
(lp1754
(lp1755
tp1756
a(L3710928811L
L3785322319L
(lp1757
(lp1758
Vbootloader_common_check_chip_validity
p1759
atp1760
a(L702738228L
L0L
(lp1761
(lp1762
tp1763
a(L3028481L
L0L
(lp1764
(lp1765
tp1766
a(L3270243289L
L0L
(lp1767
(lp1768
tp1769
a(L3909563099L
L3785322319L
(lp1770
(lp1771
Vesp_log_early_timestamp
p1772
atp1773
a(L385352084L
L0L
(lp1774
(lp1775
tp1776
a(L3591396211L
L3785322319L
(lp1777
(lp1778
Vesp_log_early_timestamp
p1779
atp1780
a(L3360570486L
L0L
(lp1781
(lp1782
tp1783
atp1784
sI1074243176
(Vesp_partition_table_verify
p1785
(lp1786
(L1334052503L
L0L
(lp1787
(lp1788
tp1789
a(L2919788121L
L0L
(lp1790
(lp1791
tp1792
a(L2544630126L
L0L
(lp1793
(lp1794
tp1795
a(L4183706628L
L0L
(lp1796
(lp1797
tp1798
a(L106L
L0L
(lp1799
(lp1800
tp1801
a(L2579271819L
L0L
(lp1802
(lp1803
tp1804
a(L1140002618L
L3785322319L
(lp1805
(lp1806
Vesp_log_early_timestamp
p1807
atp1808
a(L2904745467L
L0L
(lp1809
(lp1810
tp1811
a(L2902417580L
L0L
(lp1812
(lp1813
tp1814
a(L2579271819L
L0L
(lp1815
(lp1816
tp1817
a(L3986189625L
L3785322319L
(lp1818
(lp1819
Vesp_log_early_timestamp
p1820
atp1821
a(L2904876568L
L0L
(lp1822
(lp1823
tp1824
a(L2579271819L
L0L
(lp1825
(lp1826
tp1827
a(L1031357389L
L3785322319L
(lp1828
(lp1829
Vesp_log_early_timestamp
p1830
atp1831
a(L1610443436L
L0L
(lp1832
(lp1833
tp1834
a(L2966513628L
L0L
(lp1835
(lp1836
tp1837
a(L3720018517L
L0L
(lp1838
(lp1839
tp1840
a(L324306632L
L0L
(lp1841
(lp1842
tp1843
a(L2579271819L
L0L
(lp1844
(lp1845
tp1846
a(L3747333053L
L3785322319L
(lp1847
(lp1848
Vesp_log_early_timestamp
p1849
atp1850
a(L1799288861L
L0L
(lp1851
(lp1852
tp1853
a(L474850413L
L0L
(lp1854
(lp1855
tp1856
a(L106L
L0L
(lp1857
(lp1858
tp1859
a(L484089803L
L0L
(lp1860
(lp1861
tp1862
a(L1006963767L
L3785322319L
(lp1863
(lp1864
Vesp_log_early_timestamp
p1865
atp1866
a(L3854017309L
L0L
(lp1867
(lp1868
tp1869
a(L2966513628L
L0L
(lp1870
(lp1871
tp1872
a(L2966513628L
L0L
(lp1873
(lp1874
tp1875
atp1876
sI1074245736
(Vrtc_wdt_set_stage
p1877
(lp1878
(L1890082815L
L0L
(lp1879
(lp1880
tp1881
a(L1182990556L
L0L
(lp1882
(lp1883
tp1884
a(L4210890627L
L0L
(lp1885
(lp1886
tp1887
a(L1182990556L
L0L
(lp1888
(lp1889
tp1890
a(L3265635317L
L0L
(lp1891
(lp1892
tp1893
a(L2910371777L
L0L
(lp1894
(lp1895
tp1896
a(L610387674L
L0L
(lp1897
(lp1898
tp1899
a(L3028464L
L0L
(lp1900
(lp1901
tp1902
a(L2823883673L
L0L
(lp1903
(lp1904
tp1905
a(L3028464L
L0L
(lp1906
(lp1907
tp1908
a(L1767576130L
L0L
(lp1909
(lp1910
tp1911
a(L3916226437L
L0L
(lp1912
(lp1913
tp1914
a(L2079009947L
L0L
(lp1915
(lp1916
tp1917
atp1918
sI1074268284
(Vwdt_reset_check
p1919
(lp1920
(L1022302856L
L0L
(lp1921
(lp1922
tp1923
a(L3020187L
L0L
(lp1924
(lp1925
tp1926
a(L367582592L
L0L
(lp1927
(lp1928
tp1929
a(L367642441L
L0L
(lp1930
(lp1931
tp1932
a(L3265954431L
L3785322319L
(lp1933
(lp1934
Vesp_log_early_timestamp
p1935
atp1936
a(L1298905564L
L0L
(lp1937
(lp1938
tp1939
a(L1465910262L
L0L
(lp1940
(lp1941
tp1942
a(L3020187L
L0L
(lp1943
(lp1944
tp1945
a(L225031483L
L0L
(lp1946
(lp1947
tp1948
a(L225091332L
L0L
(lp1949
(lp1950
tp1951
a(L218457679L
L3785322319L
(lp1952
(lp1953
Vesp_log_early_timestamp
p1954
atp1955
a(L3020204L
L0L
(lp1956
(lp1957
tp1958
a(L1944713791L
L1880226080L
(lp1959
(lp1960
Vwdt_reset_info_dump
p1961
aVwdt_reset_info_dump
p1962
atp1963
a(L3738038928L
L3785322319L
(lp1964
(lp1965
Vwdt_reset_cpu0_info_enable
p1966
atp1967
atp1968
sI1074269564
(Vrtc_clk_32k_enable
p1969
(lp1970
(L753387299L
L0L
(lp1971
(lp1972
tp1973
a(L1120965557L
L3785322319L
(lp1974
(lp1975
Vrtc_clk_32k_enable_common
p1976
atp1977
a(L4259077145L
L0L
(lp1978
(lp1979
tp1980
atp1981
sI1074236784
(Vbootloader_common_check_chip_validity
p1982
(lp1983
(L2834967127L
L0L
(lp1984
(lp1985
tp1986
a(L77640997L
L3785322319L
(lp1987
(lp1988
Vesp_log_early_timestamp
p1989
atp1990
a(L1182841601L
L0L
(lp1991
(lp1992
tp1993
a(L2344894839L
L3785322319L
(lp1994
(lp1995
Vbootloader_common_get_chip_revision
p1996
atp1997
a(L3386657817L
L3785322319L
(lp1998
(lp1999
Vesp_log_early_timestamp
p2000
atp2001
a(L2983970029L
L0L
(lp2002
(lp2003
tp2004
atp2005
sI1074244464
(Vesp_rom_spiflash_erase_sector
p2006
(lp2007
(L4035206945L
L0L
(lp2008
(lp2009
tp2010
a(L171067138L
L3785322319L
(lp2011
(lp2012
Vesp_rom_spiflash_enable_write
p2013
atp2014
a(L3179197093L
L3785322319L
(lp2015
(lp2016
Vesp_rom_spiflash_erase_sector_internal
p2017
atp2018
a(L3880706073L
L0L
(lp2019
(lp2020
tp2021
a(L3880706073L
L0L
(lp2022
(lp2023
tp2024
a(L2258688483L
L0L
(lp2025
(lp2026
tp2027
a(L3360570486L
L0L
(lp2028
(lp2029
tp2030
atp2031
sI1074237820
(Vbootloader_mmap_get_free_pages
p2032
(lp2033
(L1496516875L
L0L
(lp2034
(lp2035
tp2036
atp2037
sI1074245500
(Vrtc_clk_apb_freq_get
p2038
(lp2039
(L920543704L
L0L
(lp2040
(lp2041
tp2042
atp2043
sI1074269812
(Vrtc_clk_8md256_enabled
p2044
(lp2045
(L3305220148L
L0L
(lp2046
(lp2047
tp2048
atp2049
sI1074235000
(Vbootloader_read_flash_id
p2050
(lp2051
(L458050129L
L3785322319L
(lp2052
(lp2053
Vexecute_flash_command
p2054
atp2055
atp2056
sI1074268552
(Vbootloader_main
p2057
(lp2058
(L980673034L
L1832448559L
(lp2059
(lp2060
Vbootloader_common_vddsdio_configure
p2061
aVbootloader_read_flash_id
p2062
aVbootloader_flash_read
p2063
atp2064
a(L2812358705L
L3785322319L
(lp2065
(lp2066
Vesp_log_early_timestamp
p2067
atp2068
a(L4062338276L
L1880226080L
(lp2069
(lp2070
Vbootloader_common_get_chip_revision
p2071
aVbootloader_common_check_chip_validity
p2072
atp2073
a(L2384136714L
L3810175232L
(lp2074
(lp2075
Vbootloader_init_flash_configure
p2076
aVbootloader_clock_configure
p2077
aVuart_console_configure
p2078
aVwdt_reset_check
p2079
aVrtc_wdt_protect_off
p2080
aVrtc_wdt_disable
p2081
aVrtc_wdt_set_length_of_reset_signal
p2082
aVrtc_wdt_set_length_of_reset_signal
p2083
aVrtc_wdt_set_stage
p2084
aVrtc_wdt_set_time
p2085
aVrtc_wdt_enable
p2086
aVrtc_wdt_protect_on
p2087
aVesp_rom_spiflash_unlock
p2088
aVbootloader_random_enable
p2089
aVprint_flash_info
p2090
aVupdate_flash_config
p2091
atp2092
a(L515633988L
L0L
(lp2093
(lp2094
tp2095
atp2096
sI1074237828
(Vbootloader_fill_random
p2097
(lp2098
(L4037466985L
L0L
(lp2099
(lp2100
tp2101
a(L2929045540L
L3785322319L
(lp2102
(lp2103
V__assert_func
p2104
atp2105
a(L3020204L
L0L
(lp2106
(lp2107
tp2108
a(L3105261274L
L0L
(lp2109
(lp2110
tp2111
a(L1424449256L
L0L
(lp2112
(lp2113
tp2114
a(L3783960976L
L0L
(lp2115
(lp2116
tp2117
a(L655163851L
L0L
(lp2118
(lp2119
tp2120
a(L1298905564L
L0L
(lp2121
(lp2122
tp2123
a(L2192561533L
L0L
(lp2124
(lp2125
tp2126
a(L3360570486L
L0L
(lp2127
(lp2128
tp2129
atp2130
sI1074236548
(Vbootloader_common_ota_select_crc
p2131
(lp2132
(L1051498320L
L0L
(lp2133
(lp2134
tp2135
atp2136
sI1074237056
(Vbootloader_flash_read_allow_decrypt
p2137
(lp2138
(L3381655731L
L0L
(lp2139
(lp2140
tp2141
a(L301771267L
L0L
(lp2142
(lp2143
tp2144
a(L4106046864L
L0L
(lp2145
(lp2146
tp2147
a(L1091397172L
L3785322319L
(lp2148
(lp2149
Vesp_log_early_timestamp
p2150
atp2151
a(L2559814200L
L0L
(lp2152
(lp2153
tp2154
a(L4151472741L
L0L
(lp2155
(lp2156
tp2157
a(L3423665670L
L0L
(lp2158
(lp2159
tp2160
a(L106L
L0L
(lp2161
(lp2162
tp2163
a(L2993202392L
L0L
(lp2164
(lp2165
tp2166
atp2167
sI1074239116
(Vset_cache_and_start_app
p2168
(lp2169
(L2869786913L
L0L
(lp2170
(lp2171
tp2172
a(L2622081891L
L0L
(lp2173
(lp2174
tp2175
a(L1548223148L
L0L
(lp2176
(lp2177
tp2178
a(L1829452838L
L0L
(lp2179
(lp2180
tp2181
atp2182
sI1074270852
(Vrtc_clk_cpu_freq_to_xtal
p2183
(lp2184
(L2271759294L
L3785322319L
(lp2185
(lp2186
Vrtc_clk_apb_freq_update
p2187
atp2188
a(L153089632L
L0L
(lp2189
(lp2190
tp2191
a(L3651804790L
L0L
(lp2192
(lp2193
tp2194
atp2195
sI1074243720
(Vesp_rom_spiflash_read_data
p2196
(lp2197
(L4122033220L
L0L
(lp2198
(lp2199
tp2200
a(L106L
L0L
(lp2201
(lp2202
tp2203
a(L2070875117L
L3785322319L
(lp2204
(lp2205
Vesp_rom_spiflash_wait_idle
p2206
atp2207
a(L2761836345L
L0L
(lp2208
(lp2209
tp2210
a(L3386648985L
L0L
(lp2211
(lp2212
tp2213
a(L290612768L
L0L
(lp2214
(lp2215
tp2216
a(L106L
L0L
(lp2217
(lp2218
tp2219
a(L682188760L
L0L
(lp2220
(lp2221
tp2222
a(L256664550L
L0L
(lp2223
(lp2224
tp2225
a(L663200857L
L0L
(lp2226
(lp2227
tp2228
a(L3096855577L
L0L
(lp2229
(lp2230
tp2231
a(L290612768L
L0L
(lp2232
(lp2233
tp2234
a(L1263158627L
L0L
(lp2235
(lp2236
tp2237
a(L131455463L
L0L
(lp2238
(lp2239
tp2240
a(L4208385735L
L0L
(lp2241
(lp2242
tp2243
a(L1305407438L
L0L
(lp2244
(lp2245
tp2246
a(L682188760L
L0L
(lp2247
(lp2248
tp2249
a(L3027019L
L0L
(lp2250
(lp2251
tp2252
a(L2258777855L
L0L
(lp2253
(lp2254
tp2255
a(L3027007L
L0L
(lp2256
(lp2257
tp2258
a(L106L
L0L
(lp2259
(lp2260
tp2261
a(L2993202392L
L0L
(lp2262
(lp2263
tp2264
a(L3880706073L
L0L
(lp2265
(lp2266
tp2267
atp2268
sI1074246024
(Vrtc_wdt_set_length_of_reset_signal
p2269
(lp2270
(L1890082815L
L0L
(lp2271
(lp2272
tp2273
a(L1182990556L
L0L
(lp2274
(lp2275
tp2276
a(L4210890627L
L0L
(lp2277
(lp2278
tp2279
a(L1182990556L
L0L
(lp2280
(lp2281
tp2282
a(L3265635317L
L0L
(lp2283
(lp2284
tp2285
a(L2910371777L
L0L
(lp2286
(lp2287
tp2288
a(L3056600676L
L0L
(lp2289
(lp2290
tp2291
a(L1910108731L
L0L
(lp2292
(lp2293
tp2294
a(L2079009947L
L0L
(lp2295
(lp2296
tp2297
atp2298
sI1074244244
(Vesp_rom_spiflash_read_statushigh
p2299
(lp2300
(L2290577886L
L3785322319L
(lp2301
(lp2302
Vesp_rom_spiflash_wait_idle
p2303
atp2304
atp2305
sI1074269840
(Vrtc_clk_slow_freq_set
p2306
(lp2307
(L3767740271L
L0L
(lp2308
(lp2309
tp2310
a(L1235012839L
L0L
(lp2311
(lp2312
tp2313
a(L2258688482L
L0L
(lp2314
(lp2315
tp2316
a(L1051499433L
L0L
(lp2317
(lp2318
tp2319
atp2320
sI1074270608
(Vrtc_clk_cpu_freq_get_config
p2321
(lp2322
(L121518893L
L0L
(lp2323
(lp2324
tp2325
a(L2902417580L
L0L
(lp2326
(lp2327
tp2328
a(L3020187L
L0L
(lp2329
(lp2330
tp2331
a(L106L
L0L
(lp2332
(lp2333
tp2334
a(L3792641957L
L3785322319L
(lp2335
(lp2336
Vrtc_clk_xtal_freq_get
p2337
atp2338
a(L1866886154L
L0L
(lp2339
(lp2340
tp2341
a(L3020187L
L0L
(lp2342
(lp2343
tp2344
a(L3020187L
L0L
(lp2345
(lp2346
tp2347
a(L2888746638L
L1880226080L
(lp2348
(lp2349
Vesp_log_early_timestamp
p2350
aVabort
p2351
atp2352
a(L2888746638L
L1880226080L
(lp2353
(lp2354
Vesp_log_early_timestamp
p2355
aVabort
p2356
atp2357
a(L1209507534L
L0L
(lp2358
(lp2359
tp2360
a(L1888221406L
L0L
(lp2361
(lp2362
tp2363
a(L3497772488L
L0L
(lp2364
(lp2365
tp2366
a(L2830593902L
L0L
(lp2367
(lp2368
tp2369
a(L134915478L
L0L
(lp2370
(lp2371
tp2372
atp2373
sI1074244764
(Vesp_rom_spiflash_write_encrypted
p2374
(lp2375
(L4165383288L
L0L
(lp2376
(lp2377
tp2378
a(L1782922338L
L0L
(lp2379
(lp2380
tp2381
a(L4158302444L
L0L
(lp2382
(lp2383
tp2384
a(L2399353543L
L0L
(lp2385
(lp2386
tp2387
a(L1441056191L
L3785322319L
(lp2388
(lp2389
Vesp_rom_spiflash_write
p2390
atp2391
a(L1885265687L
L0L
(lp2392
(lp2393
tp2394
a(L2728132755L
L0L
(lp2395
(lp2396
tp2397
a(L2672871265L
L0L
(lp2398
(lp2399
tp2400
a(L3880706073L
L0L
(lp2401
(lp2402
tp2403
a(L3880706073L
L0L
(lp2404
(lp2405
tp2406
atp2407
sI1074242204
(Vprocess_segment
p2408
(lp2409
(L486589204L
L3785322319L
(lp2410
(lp2411
Vbootloader_flash_read
p2412
atp2413
a(L1930844437L
L3785322319L
(lp2414
(lp2415
Vesp_log_early_timestamp
p2416
atp2417
a(L3020204L
L0L
(lp2418
(lp2419
tp2420
a(L574350325L
L3785322319L
(lp2421
(lp2422
Vbootloader_sha256_data
p2423
atp2424
a(L895916822L
L3785322319L
(lp2425
(lp2426
Vverify_segment_header
p2427
atp2428
a(L751831168L
L0L
(lp2429
(lp2430
tp2431
a(L3028481L
L0L
(lp2432
(lp2433
tp2434
a(L411183685L
L3785322319L
(lp2435
(lp2436
Vesp_log_early_timestamp
p2437
atp2438
a(L2086684166L
L0L
(lp2439
(lp2440
tp2441
a(L1677760460L
L3785322319L
(lp2442
(lp2443
Vshould_load
p2444
atp2445
a(L1303560427L
L0L
(lp2446
(lp2447
tp2448
a(L1303560396L
L0L
(lp2449
(lp2450
tp2451
a(L1182930974L
L0L
(lp2452
(lp2453
tp2454
a(L2888572729L
L0L
(lp2455
(lp2456
tp2457
a(L1927010817L
L3785322319L
(lp2458
(lp2459
Vverify_load_addresses
p2460
atp2461
a(L2440151172L
L3785322319L
(lp2462
(lp2463
Vbootloader_mmap_get_free_pages
p2464
atp2465
a(L3596440726L
L3785322319L
(lp2466
(lp2467
Vprocess_segment_data
p2468
atp2469
a(L1034011649L
L0L
(lp2470
(lp2471
tp2472
a(L3021737L
L0L
(lp2473
(lp2474
tp2475
a(L2993202392L
L0L
(lp2476
(lp2477
tp2478
a(L2902417580L
L0L
(lp2479
(lp2480
tp2481
a(L3871473710L
L0L
(lp2482
(lp2483
tp2484
a(L735741265L
L0L
(lp2485
(lp2486
tp2487
a(L818279594L
L0L
(lp2488
(lp2489
tp2490
a(L735741265L
L0L
(lp2491
(lp2492
tp2493
a(L818279594L
L0L
(lp2494
(lp2495
tp2496
atp2497
sI1074269076
(Vabort
p2498
(lp2499
(L3963591701L
L3785322319L
(lp2500
(lp2501
Vesp_cpu_in_ocd_debug_mode
p2502
atp2503
a(L409441471L
L0L
(lp2504
(lp2505
tp2506
a(L106L
L0L
(lp2507
(lp2508
tp2509
atp2510
sI1074236568
(Vbootloader_common_ota_select_valid
p2511
(lp2512
(L1731214134L
L3785322319L
(lp2513
(lp2514
Vbootloader_common_ota_select_invalid
p2515
atp2516
a(L668323607L
L3785322319L
(lp2517
(lp2518
Vbootloader_common_ota_select_crc
p2519
atp2520
a(L3880706073L
L0L
(lp2521
(lp2522
tp2523
a(L2993202392L
L0L
(lp2524
(lp2525
tp2526
a(L2993202392L
L0L
(lp2527
(lp2528
tp2529
atp2530
sI1074245540
(Vrtc_wdt_get_protect_status
p2531
(lp2532
(L4061809148L
L0L
(lp2533
(lp2534
tp2535
atp2536
sI1074235040
(Vbootloader_flash_cs_timing_config
p2537
(lp2538
(L436231625L
L0L
(lp2539
(lp2540
tp2541
atp2542
sI1074267808
(Vselected_boot_partition
p2543
(lp2544
(L2937841336L
L3785322319L
(lp2545
(lp2546
Vbootloader_utility_get_selected_boot_partition
p2547
atp2548
a(L2161672821L
L0L
(lp2549
(lp2550
tp2551
a(L3360570486L
L0L
(lp2552
(lp2553
tp2554
atp2555
sI1074243500
(Vesp_rom_spiflash_read_status
p2556
(lp2557
(L112105960L
L0L
(lp2558
(lp2559
tp2560
a(L106L
L0L
(lp2561
(lp2562
tp2563
a(L3932038977L
L0L
(lp2564
(lp2565
tp2566
a(L290612768L
L0L
(lp2567
(lp2568
tp2569
a(L1864339367L
L0L
(lp2570
(lp2571
tp2572
a(L4159619641L
L0L
(lp2573
(lp2574
tp2575
a(L106L
L0L
(lp2576
(lp2577
tp2578
a(L2664013634L
L0L
(lp2579
(lp2580
tp2581
a(L4159619641L
L0L
(lp2582
(lp2583
tp2584
a(L2392720019L
L0L
(lp2585
(lp2586
tp2587
atp2588
sI1074235816
(Vesp_cpu_in_ocd_debug_mode
p2589
(lp2590
(L3620038287L
L0L
(lp2591
(lp2592
tp2593
atp2594
sI1074244008
(Vesp_rom_spiflash_program_page_internal
p2595
(lp2596
(L2186516923L
L0L
(lp2597
(lp2598
tp2599
a(L3904186990L
L0L
(lp2600
(lp2601
tp2602
a(L106L
L0L
(lp2603
(lp2604
tp2605
a(L2070875117L
L3785322319L
(lp2606
(lp2607
Vesp_rom_spiflash_wait_idle
p2608
atp2609
a(L530241438L
L3785322319L
(lp2610
(lp2611
Vesp_rom_spiflash_enable_write
p2612
atp2613
a(L1499276535L
L0L
(lp2614
(lp2615
tp2616
a(L2941744308L
L0L
(lp2617
(lp2618
tp2619
a(L982300522L
L0L
(lp2620
(lp2621
tp2622
a(L93837694L
L0L
(lp2623
(lp2624
tp2625
a(L1943062613L
L0L
(lp2626
(lp2627
tp2628
a(L3125439889L
L0L
(lp2629
(lp2630
tp2631
a(L131455463L
L0L
(lp2632
(lp2633
tp2634
a(L4208385735L
L0L
(lp2635
(lp2636
tp2637
a(L1305407438L
L0L
(lp2638
(lp2639
tp2640
a(L982300522L
L0L
(lp2641
(lp2642
tp2643
a(L3027019L
L0L
(lp2644
(lp2645
tp2646
a(L1182901183L
L0L
(lp2647
(lp2648
tp2649
a(L3713842482L
L0L
(lp2650
(lp2651
tp2652
a(L2576167264L
L0L
(lp2653
(lp2654
tp2655
a(L1452275741L
L3785322319L
(lp2656
(lp2657
Vesp_rom_spiflash_wait_idle
p2658
atp2659
a(L3027007L
L0L
(lp2660
(lp2661
tp2662
a(L106L
L0L
(lp2663
(lp2664
tp2665
a(L2629009816L
L0L
(lp2666
(lp2667
tp2668
a(L3880706073L
L0L
(lp2669
(lp2670
tp2671
a(L3880706073L
L0L
(lp2672
(lp2673
tp2674
a(L3880706073L
L0L
(lp2675
(lp2676
tp2677
atp2678
sI1074271160
(Vrtc_clk_cpu_freq_to_8m
p2679
(lp2680
(L2861004411L
L3785322319L
(lp2681
(lp2682
Vrtc_clk_apb_freq_update
p2683
atp2684
atp2685
sI1074242484
(Vimage_load
p2686
(lp2687
(L2340434831L
L0L
(lp2688
(lp2689
tp2690
a(L106L
L0L
(lp2691
(lp2692
tp2693
a(L3911952751L
L0L
(lp2694
(lp2695
tp2696
a(L3028464L
L0L
(lp2697
(lp2698
tp2699
a(L106L
L0L
(lp2700
(lp2701
tp2702
a(L2762141292L
L3785322319L
(lp2703
(lp2704
Vesp_log_early_timestamp
p2705
atp2706
a(L2872870349L
L3785322319L
(lp2707
(lp2708
Vbootloader_flash_read
p2709
atp2710
a(L2950861325L
L0L
(lp2711
(lp2712
tp2713
a(L2568992188L
L3785322319L
(lp2714
(lp2715
Vbootloader_sha256_start
p2716
atp2717
a(L4173212049L
L3785322319L
(lp2718
(lp2719
Vbootloader_sha256_data
p2720
atp2721
a(L2258837437L
L0L
(lp2722
(lp2723
tp2724
a(L846347405L
L3785322319L
(lp2725
(lp2726
Vverify_image_header
p2727
atp2728
a(L1980404654L
L0L
(lp2729
(lp2730
tp2731
a(L3028464L
L0L
(lp2732
(lp2733
tp2734
a(L106L
L0L
(lp2735
(lp2736
tp2737
a(L3319110872L
L3785322319L
(lp2738
(lp2739
Vesp_log_early_timestamp
p2740
atp2741
a(L2671916466L
L0L
(lp2742
(lp2743
tp2744
a(L1898485626L
L3785322319L
(lp2745
(lp2746
Vprocess_segment
p2747
atp2748
a(L3878353414L
L0L
(lp2749
(lp2750
tp2751
a(L2125973223L
L0L
(lp2752
(lp2753
tp2754
a(L499151239L
L0L
(lp2755
(lp2756
tp2757
a(L3028464L
L0L
(lp2758
(lp2759
tp2760
a(L106L
L0L
(lp2761
(lp2762
tp2763
a(L2755046379L
L3785322319L
(lp2764
(lp2765
Vesp_log_early_timestamp
p2766
atp2767
a(L4041426534L
L3785322319L
(lp2768
(lp2769
Vesp_cpu_in_ocd_debug_mode
p2770
atp2771
a(L1482013975L
L3785322319L
(lp2772
(lp2773
Vverify_checksum
p2774
atp2775
a(L279608302L
L0L
(lp2776
(lp2777
tp2778
a(L3028464L
L0L
(lp2779
(lp2780
tp2781
a(L106L
L0L
(lp2782
(lp2783
tp2784
a(L2404265278L
L3785322319L
(lp2785
(lp2786
Vesp_log_early_timestamp
p2787
atp2788
a(L2078070517L
L0L
(lp2789
(lp2790
tp2791
a(L3020204L
L0L
(lp2792
(lp2793
tp2794
a(L3287840219L
L3785322319L
(lp2795
(lp2796
Vesp_cpu_in_ocd_debug_mode
p2797
atp2798
a(L3045806043L
L3785322319L
(lp2799
(lp2800
Vverify_simple_hash
p2801
atp2802
a(L3020204L
L0L
(lp2803
(lp2804
tp2805
a(L3688659868L
L3785322319L
(lp2806
(lp2807
Vbootloader_sha256_finish
p2808
atp2809
a(L3230798602L
L0L
(lp2810
(lp2811
tp2812
a(L84393073L
L3785322319L
(lp2813
(lp2814
Vbootloader_mmap
p2815
atp2816
a(L587211318L
L3785322319L
(lp2817
(lp2818
Vbootloader_munmap
p2819
atp2820
a(L3028481L
L0L
(lp2821
(lp2822
tp2823
a(L3020187L
L0L
(lp2824
(lp2825
tp2826
a(L106L
L0L
(lp2827
(lp2828
tp2829
a(L1834271588L
L0L
(lp2830
(lp2831
tp2832
a(L1837973949L
L0L
(lp2833
(lp2834
tp2835
a(L3360570486L
L0L
(lp2836
(lp2837
tp2838
a(L2814963175L
L3785322319L
(lp2839
(lp2840
Vshould_load
p2841
atp2842
a(L1299866312L
L0L
(lp2843
(lp2844
tp2845
a(L1712671152L
L0L
(lp2846
(lp2847
tp2848
a(L3922897988L
L0L
(lp2849
(lp2850
tp2851
a(L1234923754L
L0L
(lp2852
(lp2853
tp2854
a(L1253273515L
L0L
(lp2855
(lp2856
tp2857
a(L1191274096L
L0L
(lp2858
(lp2859
tp2860
a(L1720234353L
L0L
(lp2861
(lp2862
tp2863
a(L2258777855L
L0L
(lp2864
(lp2865
tp2866
a(L85798113L
L0L
(lp2867
(lp2868
tp2869
a(L2993202392L
L0L
(lp2870
(lp2871
tp2872
a(L3151898214L
L0L
(lp2873
(lp2874
tp2875
a(L1304483917L
L0L
(lp2876
(lp2877
tp2878
a(L1755718488L
L0L
(lp2879
(lp2880
tp2881
a(L2258837437L
L0L
(lp2882
(lp2883
tp2884
a(L2910371777L
L0L
(lp2885
(lp2886
tp2887
a(L2104867384L
L0L
(lp2888
(lp2889
tp2890
a(L3020204L
L0L
(lp2891
(lp2892
tp2893
a(L3688659868L
L3785322319L
(lp2894
(lp2895
Vbootloader_sha256_finish
p2896
atp2897
a(L887584652L
L0L
(lp2898
(lp2899
tp2900
a(L2079009947L
L0L
(lp2901
(lp2902
tp2903
a(L1191506266L
L0L
(lp2904
(lp2905
tp2906
a(L2993202392L
L0L
(lp2907
(lp2908
tp2909
a(L2993202392L
L0L
(lp2910
(lp2911
tp2912
atp2913
sI1074267836
(Vselect_partition_number
p2914
(lp2915
(L1731214134L
L3785322319L
(lp2916
(lp2917
Vbootloader_utility_load_partition_table
p2918
atp2919
a(L481673452L
L3785322319L
(lp2920
(lp2921
Vesp_log_early_timestamp
p2922
atp2923
a(L880231726L
L3785322319L
(lp2924
(lp2925
Vselected_boot_partition
p2926
atp2927
atp2928
sI1074269628
(Vrtc_clk_8m_enable
p2929
(lp2930
(L1474360438L
L0L
(lp2931
(lp2932
tp2933
a(L1412816489L
L0L
(lp2934
(lp2935
tp2936
a(L1250415890L
L0L
(lp2937
(lp2938
tp2939
a(L2921092510L
L0L
(lp2940
(lp2941
tp2942
a(L1147338265L
L0L
(lp2943
(lp2944
tp2945
a(L596196354L
L0L
(lp2946
(lp2947
tp2948
atp2949
sI1074236604
(Vbootloader_common_get_active_otadata
p2950
(lp2951
(L4066087859L
L0L
(lp2952
(lp2953
tp2954
a(L261345922L
L1832448559L
(lp2955
(lp2956
Vbootloader_common_ota_select_valid
p2957
aVbootloader_common_ota_select_valid
p2958
aVbootloader_common_select_otadata
p2959
atp2960
a(L515633988L
L0L
(lp2961
(lp2962
tp2963
atp2964
sI1074239928
(Vbootloader_reset
p2965
(lp2966
(L168051301L
L0L
(lp2967
(lp2968
tp2969
a(L106L
L0L
(lp2970
(lp2971
tp2972
atp2973
sI1074235832
(Vesp_log_early_timestamp
p2974
(lp2975
(L2262329302L
L0L
(lp2976
(lp2977
tp2978
atp2979
sI1074244280
(Vesp_rom_spiflash_write_status
p2980
(lp2981
(L4022637475L
L3785322319L
(lp2982
(lp2983
Vesp_rom_spiflash_wait_idle
p2984
atp2985
a(L2576167264L
L0L
(lp2986
(lp2987
tp2988
a(L1387965403L
L3785322319L
(lp2989
(lp2990
Vesp_rom_spiflash_wait_idle
p2991
atp2992
atp2993
sI1074240708
(Vbootloader_sha256_hex_to_str
p2994
(lp2995
(L90530756L
L0L
(lp2996
(lp2997
tp2998
a(L97422L
L0L
(lp2999
(lp3000
tp3001
a(L106L
L0L
(lp3002
(lp3003
tp3004
a(L201281358L
L0L
(lp3005
(lp3006
tp3007
a(L1611366926L
L0L
(lp3008
(lp3009
tp3010
a(L1298905568L
L0L
(lp3011
(lp3012
tp3013
a(L1295154486L
L0L
(lp3014
(lp3015
tp3016
a(L2172025409L
L0L
(lp3017
(lp3018
tp3019
a(L1079575012L
L0L
(lp3020
(lp3021
tp3022
a(L978975865L
L0L
(lp3023
(lp3024
tp3025
a(L2258897019L
L0L
(lp3026
(lp3027
tp3028
a(L3027007L
L0L
(lp3029
(lp3030
tp3031
a(L4126803969L
L0L
(lp3032
(lp3033
tp3034
a(L448827677L
L0L
(lp3035
(lp3036
tp3037
a(L2993202392L
L0L
(lp3038
(lp3039
tp3040
a(L2079009947L
L0L
(lp3041
(lp3042
tp3043
a(L2079009947L
L0L
(lp3044
(lp3045
tp3046
atp3047
sI1074237636
(Vbootloader_flash_write
p3048
(lp3049
(L1798169257L
L0L
(lp3050
(lp3051
tp3052
a(L1755666842L
L0L
(lp3053
(lp3054
tp3055
a(L1182930978L
L0L
(lp3056
(lp3057
tp3058
a(L1516326052L
L0L
(lp3059
(lp3060
tp3061
a(L3437426643L
L3785322319L
(lp3062
(lp3063
Vesp_log_early_timestamp
p3064
atp3065
a(L3291333414L
L0L
(lp3066
(lp3067
tp3068
a(L888077053L
L3785322319L
(lp3069
(lp3070
Vesp_log_early_timestamp
p3071
atp3072
a(L3283691850L
L0L
(lp3073
(lp3074
tp3075
a(L1191069799L
L3785322319L
(lp3076
(lp3077
Vesp_log_early_timestamp
p3078
atp3079
a(L2738388993L
L1880226080L
(lp3080
(lp3081
Vesp_rom_spiflash_unlock
p3082
aVspi_to_esp_err
p3083
atp3084
a(L2902417580L
L0L
(lp3085
(lp3086
tp3087
a(L640850222L
L1880226080L
(lp3088
(lp3089
Vesp_rom_spiflash_write_encrypted
p3090
aVspi_to_esp_err
p3091
atp3092
a(L640850222L
L1880226080L
(lp3093
(lp3094
Vesp_rom_spiflash_write
p3095
aVspi_to_esp_err
p3096
atp3097
a(L735741265L
L0L
(lp3098
(lp3099
tp3100
atp3101
sI1074245568
(Vrtc_wdt_protect_off
p3102
(lp3103
(L1971583396L
L0L
(lp3104
(lp3105
tp3106
atp3107
sI1074269120
(Vbootloader_clock_configure
p3108
(lp3109
(L3493042567L
L0L
(lp3110
(lp3111
tp3112
a(L757419054L
L0L
(lp3113
(lp3114
tp3115
a(L2483835727L
L0L
(lp3116
(lp3117
tp3118
a(L1402554578L
L0L
(lp3119
(lp3120
tp3121
a(L1812928027L
L0L
(lp3122
(lp3123
tp3124
a(L1812928027L
L0L
(lp3125
(lp3126
tp3127
a(L2312970590L
L0L
(lp3128
(lp3129
tp3130
a(L4288199591L
L1832448559L
(lp3131
(lp3132
Vrtc_clk_slow_freq_get
p3133
aVrtc_clk_fast_freq_get
p3134
aVrtc_clk_init
p3135
atp3136
atp3137
sI1074241996
(Vdebug_log_hash
p3138
(lp3139
(L1348589273L
L3785322319L
(lp3140
(lp3141
Vbootloader_sha256_hex_to_str
p3142
atp3143
atp3144
sI1074238408
(Vbootloader_random_disable
p3145
(lp3146
(L3448305741L
L0L
(lp3147
(lp3148
tp3149
atp3150
sI1074269912
(Vrtc_clk_slow_freq_get
p3151
(lp3152
(L4223698553L
L0L
(lp3153
(lp3154
tp3155
atp3156
sI1074244564
(Vesp_rom_spiflash_write
p3157
(lp3158
(L3849686911L
L0L
(lp3159
(lp3160
tp3161
a(L106L
L0L
(lp3162
(lp3163
tp3164
a(L748443699L
L0L
(lp3165
(lp3166
tp3167
a(L3450695912L
L3785322319L
(lp3168
(lp3169
Vesp_rom_spiflash_program_page_internal
p3170
atp3171
a(L3880706073L
L0L
(lp3172
(lp3173
tp3174
a(L174177699L
L3785322319L
(lp3175
(lp3176
Vesp_rom_spiflash_program_page_internal
p3177
atp3178
a(L4167669618L
L0L
(lp3179
(lp3180
tp3181
a(L3437081441L
L3785322319L
(lp3182
(lp3183
Vesp_rom_spiflash_program_page_internal
p3184
atp3185
a(L1130003055L
L0L
(lp3186
(lp3187
tp3188
a(L4159629294L
L0L
(lp3189
(lp3190
tp3191
a(L73963906L
L3785322319L
(lp3192
(lp3193
Vesp_rom_spiflash_program_page_internal
p3194
atp3195
a(L3880706073L
L0L
(lp3196
(lp3197
tp3198
a(L3880706073L
L0L
(lp3199
(lp3200
tp3201
a(L3880706073L
L0L
(lp3202
(lp3203
tp3204
a(L2258688483L
L0L
(lp3205
(lp3206
tp3207
a(L3360570486L
L0L
(lp3208
(lp3209
tp3210
atp3211
sI1074245584
(Vrtc_wdt_protect_on
p3212
(lp3213
(L2065318058L
L0L
(lp3214
(lp3215
tp3216
atp3217
sI1074240988
(Vverify_checksum
p3218
(lp3219
(L7413395L
L3785322319L
(lp3220
(lp3221
Vbootloader_flash_read
p3222
atp3223
a(L3633764684L
L3785322319L
(lp3224
(lp3225
Vesp_log_early_timestamp
p3226
atp3227
a(L3020204L
L0L
(lp3228
(lp3229
tp3230
a(L2547710365L
L3785322319L
(lp3231
(lp3232
Vbootloader_sha256_data
p3233
atp3234
a(L4124473353L
L0L
(lp3235
(lp3236
tp3237
a(L1223427414L
L0L
(lp3238
(lp3239
tp3240
a(L755040691L
L0L
(lp3241
(lp3242
tp3243
atp3244
sI1074269396
(Vrtc_clk_bbpll_disable
p3245
(lp3246
(L2542784833L
L0L
(lp3247
(lp3248
tp3249
a(L3241836643L
L0L
(lp3250
(lp3251
tp3252
a(L3360570486L
L0L
(lp3253
(lp3254
tp3255
atp3256
sI1074236888
(Vbootloader_common_ota_select_invalid
p3257
(lp3258
(L2808438197L
L0L
(lp3259
(lp3260
tp3261
a(L473337258L
L0L
(lp3262
(lp3263
tp3264
a(L3028464L
L0L
(lp3265
(lp3266
tp3267
a(L3880706073L
L0L
(lp3268
(lp3269
tp3270
a(L3880706073L
L0L
(lp3271
(lp3272
tp3273
a(L3880706073L
L0L
(lp3274
(lp3275
tp3276
a(L2993202392L
L0L
(lp3277
(lp3278
tp3279
atp3280
sI1074235864
(V__bswapsi2
p3281
(lp3282
(L1536547126L
L0L
(lp3283
(lp3284
tp3285
atp3286
sI1074238936
(Vwrite_otadata
p3287
(lp3288
(L1129643552L
L3785322319L
(lp3289
(lp3290
Vbootloader_flash_erase_sector
p3291
atp3292
a(L2292404229L
L3785322319L
(lp3293
(lp3294
Vbootloader_flash_write
p3295
atp3296
a(L3020204L
L0L
(lp3297
(lp3298
tp3299
a(L584550308L
L3785322319L
(lp3300
(lp3301
Vesp_log_early_timestamp
p3302
atp3303
a(L3360570486L
L0L
(lp3304
(lp3305
tp3306
atp3307
sI1074269928
(Vrtc_clk_slow_freq_get_hz
p3308
(lp3309
(L2601977293L
L3785322319L
(lp3310
(lp3311
Vrtc_clk_slow_freq_get
p3312
atp3313
a(L2902417580L
L0L
(lp3314
(lp3315
tp3316
a(L3020187L
L0L
(lp3317
(lp3318
tp3319
a(L106L
L0L
(lp3320
(lp3321
tp3322
a(L4253054859L
L0L
(lp3323
(lp3324
tp3325
a(L3190803042L
L0L
(lp3326
(lp3327
tp3328
a(L2993202392L
L0L
(lp3329
(lp3330
tp3331
a(L3761007478L
L0L
(lp3332
(lp3333
tp3334
atp3335
sI1074236644
(Vbootloader_common_vddsdio_configure
p3336
(lp3337
(L1829974089L
L3785322319L
(lp3338
(lp3339
Vrtc_vddsdio_get_config
p3340
atp3341
a(L955149828L
L3785322319L
(lp3342
(lp3343
Vrtc_vddsdio_set_config
p3344
atp3345
a(L3360570486L
L0L
(lp3346
(lp3347
tp3348
atp3349
sI1074239972
(Vbootloader_utility_load_boot_image
p3350
(lp3351
(L3583044102L
L0L
(lp3352
(lp3353
tp3354
a(L534474525L
L3785322319L
(lp3355
(lp3356
Vtry_load_partition
p3357
atp3358
a(L1346171890L
L3785322319L
(lp3359
(lp3360
Vload_image
p3361
atp3362
a(L2930560845L
L1880226080L
(lp3363
(lp3364
Vesp_log_early_timestamp
p3365
aVbootloader_reset
p3366
atp3367
a(L471331349L
L3785322319L
(lp3368
(lp3369
Vindex_to_partition
p3370
atp3371
a(L889780906L
L3785322319L
(lp3372
(lp3373
Vcheck_anti_rollback
p3374
atp3375
a(L1255570883L
L3785322319L
(lp3376
(lp3377
Vtry_load_partition
p3378
atp3379
a(L170811925L
L1880226080L
(lp3380
(lp3381
Vset_actual_ota_seq
p3382
aVload_image
p3383
atp3384
a(L1391131227L
L3785322319L
(lp3385
(lp3386
Vlog_invalid_app_partition
p3387
atp3388
a(L11368960L
L0L
(lp3389
(lp3390
tp3391
a(L3802068281L
L0L
(lp3392
(lp3393
tp3394
a(L3021737L
L0L
(lp3395
(lp3396
tp3397
a(L830883630L
L0L
(lp3398
(lp3399
tp3400
a(L4120885050L
L3785322319L
(lp3401
(lp3402
Vindex_to_partition
p3403
atp3404
a(L889780906L
L3785322319L
(lp3405
(lp3406
Vcheck_anti_rollback
p3407
atp3408
a(L1255570883L
L3785322319L
(lp3409
(lp3410
Vtry_load_partition
p3411
atp3412
a(L170811925L
L1880226080L
(lp3413
(lp3414
Vset_actual_ota_seq
p3415
aVload_image
p3416
atp3417
a(L1868897605L
L3785322319L
(lp3418
(lp3419
Vlog_invalid_app_partition
p3420
atp3421
a(L3335942427L
L0L
(lp3422
(lp3423
tp3424
a(L3305857427L
L0L
(lp3425
(lp3426
tp3427
a(L2528911837L
L3785322319L
(lp3428
(lp3429
Vtry_load_partition
p3430
atp3431
a(L511112347L
L1880226080L
(lp3432
(lp3433
Vesp_log_early_timestamp
p3434
aVload_image
p3435
atp3436
a(L2383896370L
L1880226080L
(lp3437
(lp3438
Vesp_log_early_timestamp
p3439
aVbootloader_reset
p3440
atp3441
atp3442
sI1074242020
(Vverify_simple_hash
p3443
(lp3444
(L2022847952L
L1832448559L
(lp3445
(lp3446
Vbootloader_sha256_finish
p3447
aVdebug_log_hash
p3448
aVbootloader_mmap
p3449
atp3450
a(L3897592506L
L1832448559L
(lp3451
(lp3452
Vesp_log_early_timestamp
p3453
aVdebug_log_hash
p3454
aVbootloader_munmap
p3455
atp3456
a(L1606099250L
L3785322319L
(lp3457
(lp3458
Vbootloader_munmap
p3459
atp3460
atp3461
sI1074267884
(Vcall_start_cpu0
p3462
(lp3463
(L2311976169L
L3785322319L
(lp3464
(lp3465
Vbootloader_init
p3466
atp3467
a(L3827921190L
L3785322319L
(lp3468
(lp3469
Vbootloader_reset
p3470
atp3471
a(L4083304126L
L3785322319L
(lp3472
(lp3473
Vselect_partition_number
p3474
atp3475
a(L94425498L
L3785322319L
(lp3476
(lp3477
Vbootloader_reset
p3478
atp3479
a(L1678595755L
L3785322319L
(lp3480
(lp3481
Vbootloader_utility_load_boot_image
p3482
atp3483
atp3484
sI1074240224
(Vindex_to_partition
p3485
(lp3486
(L4066096119L
L0L
(lp3487
(lp3488
tp3489
a(L937847257L
L0L
(lp3490
(lp3491
tp3492
a(L2808906342L
L0L
(lp3493
(lp3494
tp3495
a(L1765918994L
L0L
(lp3496
(lp3497
tp3498
a(L2808826781L
L0L
(lp3499
(lp3500
tp3501
a(L2911029954L
L0L
(lp3502
(lp3503
tp3504
a(L2511483031L
L0L
(lp3505
(lp3506
tp3507
a(L1984670054L
L0L
(lp3508
(lp3509
tp3510
a(L3698927993L
L0L
(lp3511
(lp3512
tp3513
atp3514
sI1074245600
(Vrtc_wdt_enable
p3515
(lp3516
(L2181238634L
L0L
(lp3517
(lp3518
tp3519
atp3520
sI1074241260
(Vverify_load_addresses
p3521
(lp3522
(L2763563698L
L0L
(lp3523
(lp3524
tp3525
a(L106L
L0L
(lp3526
(lp3527
tp3528
a(L97642L
L0L
(lp3529
(lp3530
tp3531
a(L3542986533L
L3785322319L
(lp3532
(lp3533
V__assert_func
p3534
atp3535
a(L3864826306L
L0L
(lp3536
(lp3537
tp3538
a(L106L
L0L
(lp3539
(lp3540
tp3541
a(L725397684L
L0L
(lp3542
(lp3543
tp3544
a(L106L
L0L
(lp3545
(lp3546
tp3547
a(L2865252108L
L0L
(lp3548
(lp3549
tp3550
a(L1182990556L
L0L
(lp3551
(lp3552
tp3553
a(L1322742497L
L0L
(lp3554
(lp3555
tp3556
a(L2306437309L
L0L
(lp3557
(lp3558
tp3559
a(L93892250L
L0L
(lp3560
(lp3561
tp3562
a(L106L
L0L
(lp3563
(lp3564
tp3565
a(L2496929674L
L0L
(lp3566
(lp3567
tp3568
a(L2258867228L
L0L
(lp3569
(lp3570
tp3571
a(L338862370L
L0L
(lp3572
(lp3573
tp3574
a(L2258897019L
L0L
(lp3575
(lp3576
tp3577
a(L93892250L
L0L
(lp3578
(lp3579
tp3580
a(L106L
L0L
(lp3581
(lp3582
tp3583
a(L3028481L
L0L
(lp3584
(lp3585
tp3586
a(L514240180L
L0L
(lp3587
(lp3588
tp3589
a(L2258807646L
L0L
(lp3590
(lp3591
tp3592
a(L3441810866L
L0L
(lp3593
(lp3594
tp3595
a(L2258867228L
L0L
(lp3596
(lp3597
tp3598
a(L3016266L
L0L
(lp3599
(lp3600
tp3601
a(L106L
L0L
(lp3602
(lp3603
tp3604
a(L388310638L
L0L
(lp3605
(lp3606
tp3607
a(L2792913908L
L0L
(lp3608
(lp3609
tp3610
a(L3200755436L
L0L
(lp3611
(lp3612
tp3613
a(L1633075119L
L0L
(lp3614
(lp3615
tp3616
a(L1981048030L
L0L
(lp3617
(lp3618
tp3619
a(L952242233L
L0L
(lp3620
(lp3621
tp3622
a(L97472L
L0L
(lp3623
(lp3624
tp3625
a(L2680290961L
L3785322319L
(lp3626
(lp3627
Vverify_load_addresses
p3628
atp3629
a(L3856589209L
L3785322319L
(lp3630
(lp3631
Vverify_load_addresses
p3632
atp3633
a(L3849698050L
L0L
(lp3634
(lp3635
tp3636
a(L106L
L0L
(lp3637
(lp3638
tp3639
a(L3432017078L
L0L
(lp3640
(lp3641
tp3642
a(L106L
L0L
(lp3643
(lp3644
tp3645
a(L2476493048L
L0L
(lp3646
(lp3647
tp3648
a(L2258867228L
L0L
(lp3649
(lp3650
tp3651
a(L318425744L
L0L
(lp3652
(lp3653
tp3654
a(L2258897019L
L0L
(lp3655
(lp3656
tp3657
a(L93892250L
L0L
(lp3658
(lp3659
tp3660
a(L106L
L0L
(lp3661
(lp3662
tp3663
a(L3028481L
L0L
(lp3664
(lp3665
tp3666
a(L492641705L
L0L
(lp3667
(lp3668
tp3669
a(L2258807646L
L0L
(lp3670
(lp3671
tp3672
a(L3442287522L
L0L
(lp3673
(lp3674
tp3675
a(L2258867228L
L0L
(lp3676
(lp3677
tp3678
a(L3016266L
L0L
(lp3679
(lp3680
tp3681
a(L106L
L0L
(lp3682
(lp3683
tp3684
a(L3932158916L
L0L
(lp3685
(lp3686
tp3687
a(L756993309L
L0L
(lp3688
(lp3689
tp3690
a(L3200755420L
L0L
(lp3691
(lp3692
tp3693
a(L881956101L
L0L
(lp3694
(lp3695
tp3696
a(L3966439367L
L0L
(lp3697
(lp3698
tp3699
a(L952242241L
L0L
(lp3700
(lp3701
tp3702
a(L97472L
L0L
(lp3703
(lp3704
tp3705
a(L2680290961L
L3785322319L
(lp3706
(lp3707
Vverify_load_addresses
p3708
atp3709
a(L3856589209L
L3785322319L
(lp3710
(lp3711
Vverify_load_addresses
p3712
atp3713
a(L4214307380L
L0L
(lp3714
(lp3715
tp3716
a(L692792479L
L0L
(lp3717
(lp3718
tp3719
a(L4259571888L
L0L
(lp3720
(lp3721
tp3722
a(L738056987L
L0L
(lp3723
(lp3724
tp3725
a(L832349157L
L0L
(lp3726
(lp3727
tp3728
a(L2501896659L
L0L
(lp3729
(lp3730
tp3731
a(L826419560L
L0L
(lp3732
(lp3733
tp3734
a(L826419932L
L0L
(lp3735
(lp3736
tp3737
a(L826419312L
L0L
(lp3738
(lp3739
tp3740
a(L826419436L
L0L
(lp3741
(lp3742
tp3743
a(L2104868674L
L0L
(lp3744
(lp3745
tp3746
a(L3020204L
L0L
(lp3747
(lp3748
tp3749
a(L147112632L
L3785322319L
(lp3750
(lp3751
Vesp_log_early_timestamp
p3752
atp3753
a(L3880706073L
L0L
(lp3754
(lp3755
tp3756
a(L3880706073L
L0L
(lp3757
(lp3758
tp3759
a(L3880706073L
L0L
(lp3760
(lp3761
tp3762
a(L3880706073L
L0L
(lp3763
(lp3764
tp3765
a(L3880706073L
L0L
(lp3766
(lp3767
tp3768
a(L3880706073L
L0L
(lp3769
(lp3770
tp3771
a(L3880706073L
L0L
(lp3772
(lp3773
tp3774
a(L3880706073L
L0L
(lp3775
(lp3776
tp3777
a(L2993202392L
L0L
(lp3778
(lp3779
tp3780
atp3781
sI1074244332
(Vesp_rom_spiflash_unlock
p3782
(lp3783
(L3149043907L
L1880226080L
(lp3784
(lp3785
Vesp_rom_spiflash_wait_idle
p3786
aVesp_rom_spiflash_read_statushigh
p3787
atp3788
a(L4254948709L
L3785322319L
(lp3789
(lp3790
Vesp_rom_spiflash_wait_idle
p3791
atp3792
a(L290612768L
L0L
(lp3793
(lp3794
tp3795
a(L2527585367L
L1832448559L
(lp3796
(lp3797
Vesp_rom_spiflash_wait_idle
p3798
aVesp_rom_spiflash_write_status
p3799
aVesp_rom_spiflash_wait_idle
p3800
atp3801
a(L290612768L
L0L
(lp3802
(lp3803
tp3804
a(L3360570486L
L0L
(lp3805
(lp3806
tp3807
a(L3880706073L
L0L
(lp3808
(lp3809
tp3810
atp3811
sI1074240488
(Vbootloader_sha256_finish
p3812
(lp3813
(L4066096136L
L0L
(lp3814
(lp3815
tp3816
a(L3985459950L
L3785322319L
(lp3817
(lp3818
V__assert_func
p3819
atp3820
a(L3020204L
L0L
(lp3821
(lp3822
tp3823
a(L3013429253L
L0L
(lp3824
(lp3825
tp3826
a(L2534656226L
L0L
(lp3827
(lp3828
tp3829
a(L321015369L
L0L
(lp3830
(lp3831
tp3832
a(L1503398922L
L3785322319L
(lp3833
(lp3834
V__assert_func
p3835
atp3836
a(L679732204L
L3785322319L
(lp3837
(lp3838
Vbootloader_sha256_data
p3839
atp3840
a(L2558591121L
L3785322319L
(lp3841
(lp3842
V__assert_func
p3843
atp3844
a(L1368734623L
L1880226080L
(lp3845
(lp3846
V__bswapsi2
p3847
aVbootloader_sha256_data
p3848
atp3849
a(L2976212994L
L3785322319L
(lp3850
(lp3851
V__assert_func
p3852
atp3853
a(L1950289402L
L0L
(lp3854
(lp3855
tp3856
a(L43384865L
L0L
(lp3857
(lp3858
tp3859
a(L1950289402L
L0L
(lp3860
(lp3861
tp3862
a(L1299866312L
L0L
(lp3863
(lp3864
tp3865
a(L3504483659L
L3785322319L
(lp3866
(lp3867
V__bswapsi2
p3868
atp3869
a(L93837694L
L0L
(lp3870
(lp3871
tp3872
a(L3347778L
L0L
(lp3873
(lp3874
tp3875
a(L3360570486L
L0L
(lp3876
(lp3877
tp3878
atp3879
sI1074239732
(Vbootloader_utility_get_selected_boot_partition
p3880
(lp3881
(L4002538433L
L0L
(lp3882
(lp3883
tp3884
a(L1053676827L
L3785322319L
(lp3885
(lp3886
Vread_otadata
p3887
atp3888
a(L2473074522L
L3785322319L
(lp3889
(lp3890
Vbootloader_common_ota_select_invalid
p3891
atp3892
a(L1836822349L
L3785322319L
(lp3893
(lp3894
Vbootloader_common_ota_select_invalid
p3895
atp3896
a(L3980563023L
L0L
(lp3897
(lp3898
tp3899
a(L45272527L
L0L
(lp3900
(lp3901
tp3902
a(L847222691L
L0L
(lp3903
(lp3904
tp3905
a(L2909605194L
L3785322319L
(lp3906
(lp3907
Vbootloader_common_ota_select_crc
p3908
atp3909
a(L505081345L
L0L
(lp3910
(lp3911
tp3912
a(L919052234L
L3785322319L
(lp3913
(lp3914
Vbootloader_common_ota_select_crc
p3915
atp3916
a(L2061673129L
L0L
(lp3917
(lp3918
tp3919
a(L726746649L
L3785322319L
(lp3920
(lp3921
Vbootloader_common_get_active_otadata
p3922
atp3923
a(L4158819813L
L0L
(lp3924
(lp3925
tp3926
a(L1630653147L
L0L
(lp3927
(lp3928
tp3929
a(L3396655192L
L3785322319L
(lp3930
(lp3931
Vesp_log_early_timestamp
p3932
atp3933
a(L1068172080L
L3785322319L
(lp3934
(lp3935
Vesp_log_early_timestamp
p3936
atp3937
a(L515633988L
L0L
(lp3938
(lp3939
tp3940
a(L3418183010L
L0L
(lp3941
(lp3942
tp3943
a(L1299867982L
L0L
(lp3944
(lp3945
tp3946
a(L3360570486L
L0L
(lp3947
(lp3948
tp3949
atp3950
sI1074272764
(Vrtc_clk_cal_ratio
p3951
(lp3952
(L1747571394L
L1880226080L
(lp3953
(lp3954
Vrtc_clk_cal_internal
p3955
aV__udivdi3
p3956
atp3957
atp3958
sI1074237936
(Vbootloader_random_enable
p3959
(lp3960
(L3306870867L
L0L
(lp3961
(lp3962
tp3963
atp3964
sI1074271984
(Vrtc_vddsdio_get_config
p3965
(lp3966
(L1454289152L
L0L
(lp3967
(lp3968
tp3969
a(L684164533L
L0L
(lp3970
(lp3971
tp3972
a(L414876639L
L0L
(lp3973
(lp3974
tp3975
a(L3883621059L
L0L
(lp3976
(lp3977
tp3978
a(L752801070L
L0L
(lp3979
(lp3980
tp3981
a(L564009070L
L0L
(lp3982
(lp3983
tp3984
a(L3360570486L
L0L
(lp3985
(lp3986
tp3987
atp3988
sI1074270452
(Vrtc_clk_xtal_freq_get
p3989
(lp3990
(L3290940297L
L0L
(lp3991
(lp3992
tp3993
a(L2237928244L
L0L
(lp3994
(lp3995
tp3996
a(L1299866312L
L0L
(lp3997
(lp3998
tp3999
a(L1299866312L
L0L
(lp4000
(lp4001
tp4002
a(L2258688483L
L0L
(lp4003
(lp4004
tp4005
a(L2902417580L
L0L
(lp4006
(lp4007
tp4008
a(L559411546L
L0L
(lp4009
(lp4010
tp4011
a(L2993202392L
L0L
(lp4012
(lp4013
tp4014
atp4015
sI1074272244
(Vrtc_vddsdio_set_config
p4016
(lp4017
(L3111301445L
L0L
(lp4018
(lp4019
tp4020
atp4021
sI1074236920
(Vbootloader_common_select_otadata
p4022
(lp4023
(L44027793L
L0L
(lp4024
(lp4025
tp4026
a(L1238320367L
L0L
(lp4027
(lp4028
tp4029
a(L1238350425L
L0L
(lp4030
(lp4031
tp4032
a(L3063569071L
L0L
(lp4033
(lp4034
tp4035
a(L1299866312L
L0L
(lp4036
(lp4037
tp4038
a(L2902417580L
L0L
(lp4039
(lp4040
tp4041
a(L1264419299L
L0L
(lp4042
(lp4043
tp4044
a(L1542955705L
L0L
(lp4045
(lp4046
tp4047
a(L3969214161L
L0L
(lp4048
(lp4049
tp4050
a(L2993202392L
L0L
(lp4051
(lp4052
tp4053
a(L1098457408L
L0L
(lp4054
(lp4055
tp4056
a(L1770629919L
L0L
(lp4057
(lp4058
tp4059
a(L3027007L
L0L
(lp4060
(lp4061
tp4062
a(L515633988L
L0L
(lp4063
(lp4064
tp4065
a(L515633988L
L0L
(lp4066
(lp4067
tp4068
a(L2258688483L
L0L
(lp4069
(lp4070
tp4071
a(L3360570486L
L0L
(lp4072
(lp4073
tp4074
atp4075
sI1074244856
(Vesp_rom_spiflash_read
p4076
(lp4077
(L1166455252L
L0L
(lp4078
(lp4079
tp4080
a(L4037886213L
L0L
(lp4081
(lp4082
tp4083
a(L3017366L
L0L
(lp4084
(lp4085
tp4086
a(L106L
L0L
(lp4087
(lp4088
tp4089
a(L887193324L
L0L
(lp4090
(lp4091
tp4092
a(L106L
L0L
(lp4093
(lp4094
tp4095
a(L3668347057L
L0L
(lp4096
(lp4097
tp4098
a(L1138912698L
L0L
(lp4099
(lp4100
tp4101
a(L3386949851L
L0L
(lp4102
(lp4103
tp4104
a(L3016870L
L0L
(lp4105
(lp4106
tp4107
a(L2255815346L
L0L
(lp4108
(lp4109
tp4110
a(L3016870L
L0L
(lp4111
(lp4112
tp4113
a(L3437049885L
L0L
(lp4114
(lp4115
tp4116
a(L521679745L
L0L
(lp4117
(lp4118
tp4119
a(L602441579L
L0L
(lp4120
(lp4121
tp4122
a(L2102685007L
L0L
(lp4123
(lp4124
tp4125
a(L4118914098L
L0L
(lp4126
(lp4127
tp4128
a(L705619477L
L0L
(lp4129
(lp4130
tp4131
a(L635013260L
L0L
(lp4132
(lp4133
tp4134
a(L163112941L
L3785322319L
(lp4135
(lp4136
Vesp_rom_spiflash_read_data
p4137
atp4138
a(L1298875774L
L0L
(lp4139
(lp4140
tp4141
a(L735741265L
L0L
(lp4142
(lp4143
tp4144
atp4145
ssS'functionsdups'
p4146
g11
((lp4147
tp4148
Rp4149
sS'immediatedups'
p4150
g11
((lp4151
tp4152
Rp4153
sS'functiondups'
p4154
g11
((lp4155
tp4156
Rp4157
sS'fuzzy'
p4158
(dp4159
L1536L
I1074239928
sL452507512L
I1074237636
sL1238425040L
I1074243652
sL4061702297L
I1074243600
sL430153639L
I1074242128
sL474176970L
I1074241260
sL1993052482L
I1074244464
sL45806640L
I1074240824
sL381930313L
I1074240988
sL2479661889L
I1074245916
sL3495415001L
I1074240488
sL2661072904L
I1074239972
sL312818747L
I1074238724
sL1622145584L
I1074235904
sL1157487583L
I1074272316
sL1420005888L
I1074269628
sL3110146889L
I1074239336
sL874365493L
I1074239524
sL1995141314L
I1074242484
sL1991897232L
I1074244280
sL2475522855L
I1074234452
sL1014503250L
I1074243948
sL4059437021L
I1074271248
sL1766137975L
I1074269564
sL2738222727L
I1074270608
sL2723847017L
I1074237500
sL3110784734L
I1074238992
sL275633497L
I1074268776
sL3619350029L
I1074241832
sL3247628459L
I1074244008
sL410455735L
I1074242020
sL512571597L
I1074267884
sL3137762375L
I1074236784
sL1518698944L
I1074239732
sL578413630L
I1074241128
sL2649994811L
I1074267836
sL533883930L
I1074268284
sL746513591L
I1074239084
sL1332800441L
I1074236604
sL433784338L
I1074267996
sL4160102055L
I1074268744
sL3280616158L
I1074236568
sL3476065511L
I1074271508
sL2474570535L
I1074244764
sL2033964903L
I1074269928
sL1060788199L
I1074270508
sL1381401481L
I1074238936
sL4270185191L
I1074270032
sL2705984041L
I1074243720
sL3380377753L
I1074244856
sL1179079586L
I1074271004
sL2766438284L
I1074238812
sL1043425753L
I1074237828
sL138378967L
I1074237260
sL447173967L
I1074245644
sL1885430409L
I1074268552
sL3128965227L
I1074240872
sL974711027L
I1074244332
sL1178348887L
I1074269120
sL3706231047L
I1074240324
sL1539809077L
I1074242204
sL4155364446L
I1074236644
sL1329074126L
I1074244564
sL1016692206L
I1074271340
sL3897638057L
I1074268228
sL59547383L
I1074237056
sL3965284519L
I1074243176
ssb.