ccopy_reg
_reconstructor
p0
(crizzo
RizzoSignature
p1
c__builtin__
object
p2
Ntp3
Rp4
(dp5
S'formal'
p6
(dp7
L3350618294L
I1074240360
sL949901980L
I1074272308
sL1542787824L
I1074270412
sL2622764882L
I1074271060
sL3425840181L
I1074246924
sL3669424062L
I1074236704
sL2330540513L
I1074273392
sL2886561796L
I1074236000
sL1741170115L
I1074237976
sL607973681L
I1074268640
sL3134194653L
I1074269616
sL2606761844L
I1074273944
sL1433108606L
I1074242428
sL2064144157L
I1074235952
sL3764810355L
I1074269660
sL957563653L
I1074237812
sL605489408L
I1074246848
sL2958601792L
I1074241304
sL836653253L
I1074269552
sL3813064027L
I1074239168
sL754318824L
I1074272656
sL1815150096L
I1074267960
sL1017252736L
I1074271076
sL580342964L
I1074268804
sL1590883061L
I1074246880
sL1900318819L
I1074272396
sL1296434798L
I1074241140
sL3623948073L
I1074272152
sL1306880972L
I1074240756
sL1825137888L
I1074270712
sL2625085788L
I1074245584
sL2632774850L
I1074269720
sL2445701622L
I1074247304
sL4051547724L
I1074270988
sL2145954777L
I1074272488
sL2226029212L
I1074268064
sL2440008540L
I1074269800
sL2901032402L
I1074237436
sL4159241682L
I1074271928
sL2195980192L
I1074234608
sL3595856912L
I1074246780
sL2198200131L
I1074270608
sL3740445365L
I1074241420
sL3085487008L
I1074237384
sL1515954963L
I1074271756
sL2919479368L
I1074269960
sL1904560840L
I1074273912
sL412115167L
I1074244840
sL4123390613L
I1074245452
sL4202775248L
I1074235288
sL1127622764L
I1074239332
sL1456331926L
I1074235112
sL2868258475L
I1074240920
sL414322927L
I1074243984
sL8265251L
I1074269848
sL2912846273L
I1074238584
sL3129199843L
I1074269640
sL1614396760L
I1074273464
sL3974320007L
I1074239280
sL3702197710L
I1074240656
sL2965770158L
I1074271972
sL2538659132L
I1074269220
sL111758788L
I1074246820
sL3308159808L
I1074240124
sL168610428L
I1074270200
sL1016492005L
I1074273132
sL1946518643L
I1074239728
sL974680943L
I1074268908
sL1141849463L
I1074235968
sL2850486431L
I1074247196
sL3189588833L
I1074242636
sL2905734477L
I1074246136
sL1933692989L
I1074270544
sL3965610460L
I1074237096
sL1903870450L
I1074242560
sL238454715L
I1074245364
sL4155870266L
I1074235784
sL3929602732L
I1074241256
sL3227211215L
I1074241560
sL3716030187L
I1074245400
sL3567473462L
I1074271180
sL4095446147L
I1074268336
sL946121725L
I1074242452
sL3156473018L
I1074245844
sL945719237L
I1074239112
sL2761480963L
I1074239760
sL975048066L
I1074237064
sL1431551436L
I1074240736
sL1942591337L
I1074239552
sL970194547L
I1074238112
sL3898185208L
I1074237620
sL453406624L
I1074243660
sL3898317309L
I1074270960
sL1552116527L
I1074237196
sL1158344635L
I1074270776
sL4060450998L
I1074236780
sL3665183941L
I1074245128
sL3397950012L
I1074271120
sL2358021945L
I1074236684
sL134208586L
I1074241692
sL2268948619L
I1074244772
sL1868338154L
I1074267932
sL4179931283L
I1074236740
sL4166761196L
I1074247016
sL456083351L
I1074268584
sL25406014L
I1074242968
sL2411516799L
I1074269596
sL1396453881L
I1074236040
sL1351291200L
I1074235176
sL1413861512L
I1074272000
sL2432257846L
I1074243644
sL3614537121L
I1074240404
sL2187400112L
I1074269744
sL1335159621L
I1074270932
sL2892100530L
I1074236832
sL4013211623L
I1074245068
sL841745912L
I1074242264
sL2263182908L
I1074237996
sL1056712485L
I1074245744
sL1539713060L
I1074237232
sL1001245007L
I1074269252
sL2068574383L
I1074238900
sL489309134L
I1074240728
sL3878322382L
I1074244620
sL2277111645L
I1074246044
sL1892088355L
I1074270344
sL2849615934L
I1074238988
sL4289306179L
I1074238004
sL2427362117L
I1074236920
sL4109328644L
I1074271656
sL2261506084L
I1074235136
sL240369573L
I1074234588
sL2249092089L
I1074268104
sL3745020111L
I1074268008
sL3152959252L
I1074237676
sL3401681979L
I1074246864
sL3322869492L
I1074269700
sL1788565088L
I1074271164
sL4267945887L
I1074271600
sL942136026L
I1074244720
ssS'immediates'
p8
(dp9
sS'formaldups'
p10
c__builtin__
set
p11
((lp12
tp13
Rp14
sS'stringdups'
p15
g11
((lp16
tp17
Rp18
sS'fuzzydups'
p19
g11
((lp20
tp21
Rp22
sS'strings'
p23
(dp24
sS'functions'
p25
(dp26
I1074269960
(Vbootloader_enable_qio_mode
p27
(lp28
(L655902763L
L3785322319L
(lp29
(lp30
Vesp_rom_spiflash_wait_idle
p31
atp32
a(L2110945619L
L0L
(lp33
(lp34
tp35
a(L2983828477L
L0L
(lp36
(lp37
tp38
a(L2158177645L
L3785322319L
(lp39
(lp40
Vesp_log_early_timestamp
p41
atp42
a(L3278624543L
L0L
(lp43
(lp44
tp45
a(L93837694L
L0L
(lp46
(lp47
tp48
a(L3028464L
L0L
(lp49
(lp50
tp51
a(L437386442L
L3785322319L
(lp52
(lp53
Vesp_log_early_timestamp
p54
atp55
a(L133402212L
L3785322319L
(lp56
(lp57
Venable_qio_mode
p58
atp59
atp60
sI1074270988
(Vrtc_clk_slow_freq_set
p61
(lp62
(L3640175357L
L0L
(lp63
(lp64
tp65
a(L1235012839L
L0L
(lp66
(lp67
tp68
a(L2258688482L
L0L
(lp69
(lp70
tp71
a(L911039713L
L0L
(lp72
(lp73
tp74
atp75
sI1074271756
(Vrtc_clk_cpu_freq_get_config
p76
(lp77
(L1763782048L
L0L
(lp78
(lp79
tp80
a(L2902417580L
L0L
(lp81
(lp82
tp83
a(L3020187L
L0L
(lp84
(lp85
tp86
a(L106L
L0L
(lp87
(lp88
tp89
a(L2256323488L
L3785322319L
(lp90
(lp91
Vrtc_clk_xtal_freq_get
p92
atp93
a(L4236944L
L0L
(lp94
(lp95
tp96
a(L3020187L
L0L
(lp97
(lp98
tp99
a(L3020187L
L0L
(lp100
(lp101
tp102
a(L317344350L
L1880226080L
(lp103
(lp104
Vesp_log_early_timestamp
p105
aVabort
p106
atp107
a(L317344350L
L1880226080L
(lp108
(lp109
Vesp_log_early_timestamp
p110
aVabort
p111
atp112
a(L1209507534L
L0L
(lp113
(lp114
tp115
a(L1888221406L
L0L
(lp116
(lp117
tp118
a(L3497772488L
L0L
(lp119
(lp120
tp121
a(L2830593902L
L0L
(lp122
(lp123
tp124
a(L134915478L
L0L
(lp125
(lp126
tp127
atp128
sI1074235136
(Vbootloader_read_flash_id
p129
(lp130
(L458050129L
L3785322319L
(lp131
(lp132
Vexecute_flash_command
p133
atp134
atp135
sI1074242560
(Vshould_load
p136
(lp137
(L3388943207L
L3785322319L
(lp138
(lp139
Vshould_map
p140
atp141
a(L932156149L
L0L
(lp142
(lp143
tp144
a(L3028464L
L0L
(lp145
(lp146
tp147
a(L311343067L
L0L
(lp148
(lp149
tp150
a(L1766512127L
L0L
(lp151
(lp152
tp153
a(L774393012L
L0L
(lp154
(lp155
tp156
a(L1610443436L
L0L
(lp157
(lp158
tp159
a(L1610443405L
L0L
(lp160
(lp161
tp162
a(L1298875774L
L0L
(lp163
(lp164
tp165
a(L735741265L
L0L
(lp166
(lp167
tp168
atp169
sI1074272000
(Vrtc_clk_cpu_freq_to_xtal
p170
(lp171
(L783743787L
L3785322319L
(lp172
(lp173
Vrtc_clk_apb_freq_update
p174
atp175
a(L4040620564L
L0L
(lp176
(lp177
tp178
a(L1886516873L
L0L
(lp179
(lp180
tp181
atp182
sI1074238988
(Vread_otadata
p183
(lp184
(L3233392553L
L0L
(lp185
(lp186
tp187
a(L2022859863L
L0L
(lp188
(lp189
tp190
a(L3242087815L
L3785322319L
(lp191
(lp192
Vesp_log_early_timestamp
p193
atp194
a(L566230772L
L3785322319L
(lp195
(lp196
Vbootloader_mmap
p197
atp198
a(L1638765019L
L3785322319L
(lp199
(lp200
Vesp_log_early_timestamp
p201
atp202
a(L586914804L
L3785322319L
(lp203
(lp204
Vbootloader_munmap
p205
atp206
a(L446553694L
L0L
(lp207
(lp208
tp209
atp210
sI1074237196
(Vspi_to_esp_err
p211
(lp212
(L4037458691L
L0L
(lp213
(lp214
tp215
a(L2902417580L
L0L
(lp216
(lp217
tp218
a(L3020187L
L0L
(lp219
(lp220
tp221
a(L106L
L0L
(lp222
(lp223
tp224
a(L2993202392L
L0L
(lp225
(lp226
tp227
a(L1255274971L
L0L
(lp228
(lp229
tp230
a(L515633988L
L0L
(lp231
(lp232
tp233
a(L1747322352L
L0L
(lp234
(lp235
tp236
atp237
sI1074236684
(Vbootloader_common_ota_select_crc
p238
(lp239
(L1051498320L
L0L
(lp240
(lp241
tp242
atp243
sI1074244620
(Vesp_rom_spiflash_read_status
p244
(lp245
(L112105960L
L0L
(lp246
(lp247
tp248
a(L106L
L0L
(lp249
(lp250
tp251
a(L353326949L
L0L
(lp252
(lp253
tp254
a(L961844875L
L0L
(lp255
(lp256
tp257
a(L2287041843L
L0L
(lp258
(lp259
tp260
a(L4159619641L
L0L
(lp261
(lp262
tp263
a(L106L
L0L
(lp264
(lp265
tp266
a(L3348993103L
L0L
(lp267
(lp268
tp269
a(L4159619641L
L0L
(lp270
(lp271
tp272
a(L2392720019L
L0L
(lp273
(lp274
tp275
atp276
sI1074246924
(Vrtc_wdt_set_time
p277
(lp278
(L607216364L
L0L
(lp279
(lp280
tp281
a(L2260479919L
L1880226080L
(lp282
(lp283
Vrtc_clk_slow_freq_get_hz
p284
aV__udivdi3
p285
atp286
a(L3654638447L
L0L
(lp287
(lp288
tp289
a(L3028464L
L0L
(lp290
(lp291
tp292
a(L2444229483L
L0L
(lp293
(lp294
tp295
a(L3028464L
L0L
(lp296
(lp297
tp298
a(L1655495911L
L0L
(lp299
(lp300
tp301
a(L3914028252L
L0L
(lp302
(lp303
tp304
a(L2079009947L
L0L
(lp305
(lp306
tp307
atp308
sI1074269700
(Vwrite_status_8b_wrsr
p309
(lp310
(L3692606543L
L3785322319L
(lp311
(lp312
Vexecute_flash_command
p313
atp314
atp315
sI1074245128
(Vesp_rom_spiflash_program_page_internal
p316
(lp317
(L2186516923L
L0L
(lp318
(lp319
tp320
a(L3904186990L
L0L
(lp321
(lp322
tp323
a(L106L
L0L
(lp324
(lp325
tp326
a(L2070875117L
L3785322319L
(lp327
(lp328
Vesp_rom_spiflash_wait_idle
p329
atp330
a(L530241438L
L3785322319L
(lp331
(lp332
Vesp_rom_spiflash_enable_write
p333
atp334
a(L1499276535L
L0L
(lp335
(lp336
tp337
a(L1862872171L
L0L
(lp338
(lp339
tp340
a(L3240138454L
L0L
(lp341
(lp342
tp343
a(L93837694L
L0L
(lp344
(lp345
tp346
a(L1943062613L
L0L
(lp347
(lp348
tp349
a(L3655843974L
L0L
(lp350
(lp351
tp352
a(L131455463L
L0L
(lp353
(lp354
tp355
a(L4208385735L
L0L
(lp356
(lp357
tp358
a(L1305407438L
L0L
(lp359
(lp360
tp361
a(L3240138454L
L0L
(lp362
(lp363
tp364
a(L3027019L
L0L
(lp365
(lp366
tp367
a(L1182901183L
L0L
(lp368
(lp369
tp370
a(L4227439713L
L0L
(lp371
(lp372
tp373
a(L2728820875L
L0L
(lp374
(lp375
tp376
a(L1452275741L
L3785322319L
(lp377
(lp378
Vesp_rom_spiflash_wait_idle
p379
atp380
a(L3027007L
L0L
(lp381
(lp382
tp383
a(L106L
L0L
(lp384
(lp385
tp386
a(L2629009816L
L0L
(lp387
(lp388
tp389
a(L3880706073L
L0L
(lp390
(lp391
tp392
a(L3880706073L
L0L
(lp393
(lp394
tp395
a(L3880706073L
L0L
(lp396
(lp397
tp398
atp399
sI1074269720
(Vread_status_8b_rdsr
p400
(lp401
(L4219679961L
L3785322319L
(lp402
(lp403
Vexecute_flash_command
p404
atp405
atp406
sI1074267932
(Vselected_boot_partition
p407
(lp408
(L2937841336L
L3785322319L
(lp409
(lp410
Vbootloader_utility_get_selected_boot_partition
p411
atp412
a(L2161672821L
L0L
(lp413
(lp414
tp415
a(L3360570486L
L0L
(lp416
(lp417
tp418
atp419
sI1074239760
(Vbootloader_utility_load_partition_table
p420
(lp421
(L893333307L
L3785322319L
(lp422
(lp423
Vbootloader_mmap
p424
atp425
a(L1270265708L
L3785322319L
(lp426
(lp427
Vesp_log_early_timestamp
p428
atp429
a(L3715067384L
L3785322319L
(lp430
(lp431
Vesp_partition_table_verify
p432
atp433
a(L3987355154L
L3785322319L
(lp434
(lp435
Vesp_log_early_timestamp
p436
atp437
a(L1947937882L
L1880226080L
(lp438
(lp439
Vesp_log_early_timestamp
p440
aVesp_log_early_timestamp
p441
atp442
a(L1941612774L
L0L
(lp443
(lp444
tp445
a(L3020187L
L0L
(lp446
(lp447
tp448
a(L106L
L0L
(lp449
(lp450
tp451
a(L3732412336L
L0L
(lp452
(lp453
tp454
a(L3020187L
L0L
(lp455
(lp456
tp457
a(L106L
L0L
(lp458
(lp459
tp460
a(L58579688L
L0L
(lp461
(lp462
tp463
a(L997270981L
L0L
(lp464
(lp465
tp466
a(L2893469516L
L0L
(lp467
(lp468
tp469
a(L495348327L
L0L
(lp470
(lp471
tp472
a(L3999773648L
L0L
(lp473
(lp474
tp475
a(L3101214432L
L0L
(lp476
(lp477
tp478
a(L826375354L
L0L
(lp479
(lp480
tp481
a(L826377648L
L0L
(lp482
(lp483
tp484
a(L826376067L
L0L
(lp485
(lp486
tp487
a(L3799567729L
L3785322319L
(lp488
(lp489
Vesp_log_early_timestamp
p490
atp491
a(L846653465L
L0L
(lp492
(lp493
tp494
a(L106L
L0L
(lp495
(lp496
tp497
a(L2229193238L
L1880226080L
(lp498
(lp499
Vbootloader_munmap
p500
aVesp_log_early_timestamp
p501
atp502
atp503
sI1074247196
(Vrtc_wdt_disable
p504
(lp505
(L1233433337L
L3785322319L
(lp506
(lp507
Vrtc_wdt_get_protect_status
p508
atp509
a(L3827921190L
L3785322319L
(lp510
(lp511
Vrtc_wdt_protect_off
p512
atp513
a(L1477354517L
L2485746240L
(lp514
(lp515
Vrtc_wdt_set_stage
p516
aVrtc_wdt_set_stage
p517
aVrtc_wdt_set_stage
p518
aVrtc_wdt_set_stage
p519
atp520
a(L94425498L
L3785322319L
(lp521
(lp522
Vrtc_wdt_protect_on
p523
atp524
a(L3360570486L
L0L
(lp525
(lp526
tp527
atp528
sI1074241560
(Vverify_image_header
p529
(lp530
(L171376062L
L0L
(lp531
(lp532
tp533
a(L2910371777L
L0L
(lp534
(lp535
tp536
a(L3027455160L
L3785322319L
(lp537
(lp538
Vesp_log_early_timestamp
p539
atp540
a(L1299866312L
L0L
(lp541
(lp542
tp543
a(L702739623L
L0L
(lp544
(lp545
tp546
a(L3710928811L
L3785322319L
(lp547
(lp548
Vbootloader_common_check_chip_validity
p549
atp550
a(L702739623L
L0L
(lp551
(lp552
tp553
a(L3028481L
L0L
(lp554
(lp555
tp556
a(L3270243289L
L0L
(lp557
(lp558
tp559
a(L3561392571L
L3785322319L
(lp560
(lp561
Vesp_log_early_timestamp
p562
atp563
a(L385352084L
L0L
(lp564
(lp565
tp566
a(L3243225683L
L3785322319L
(lp567
(lp568
Vesp_log_early_timestamp
p569
atp570
a(L3360570486L
L0L
(lp571
(lp572
tp573
atp574
sI1074241304
(Vverify_segment_header
p575
(lp576
(L3674778058L
L0L
(lp577
(lp578
tp579
a(L2496966260L
L0L
(lp580
(lp581
tp582
a(L3028481L
L0L
(lp583
(lp584
tp585
a(L632874435L
L3785322319L
(lp586
(lp587
Vesp_log_early_timestamp
p588
atp589
a(L536784482L
L3785322319L
(lp590
(lp591
Vshould_map
p592
atp593
a(L3496178735L
L0L
(lp594
(lp595
tp596
a(L2910371777L
L0L
(lp597
(lp598
tp599
a(L735888086L
L3785322319L
(lp600
(lp601
Vesp_log_early_timestamp
p602
atp603
a(L1935333341L
L0L
(lp604
(lp605
tp606
a(L2993202392L
L0L
(lp607
(lp608
tp609
a(L2993202392L
L0L
(lp610
(lp611
tp612
a(L1935333341L
L0L
(lp613
(lp614
tp615
atp616
sI1074237976
(Vbootloader_flash_erase_sector
p617
(lp618
(L4129137686L
L1880226080L
(lp619
(lp620
Vesp_rom_spiflash_erase_sector
p621
aVspi_to_esp_err
p622
atp623
atp624
sI1074245400
(Vesp_rom_spiflash_write_status
p625
(lp626
(L814447815L
L3785322319L
(lp627
(lp628
Vesp_rom_spiflash_wait_idle
p629
atp630
a(L2728820875L
L0L
(lp631
(lp632
tp633
a(L1387965403L
L3785322319L
(lp634
(lp635
Vesp_rom_spiflash_wait_idle
p636
atp637
atp638
sI1074236704
(Vbootloader_common_ota_select_valid
p639
(lp640
(L1731214134L
L3785322319L
(lp641
(lp642
Vbootloader_common_ota_select_invalid
p643
atp644
a(L668323607L
L3785322319L
(lp645
(lp646
Vbootloader_common_ota_select_crc
p647
atp648
a(L3880706073L
L0L
(lp649
(lp650
tp651
a(L2993202392L
L0L
(lp652
(lp653
tp654
a(L2993202392L
L0L
(lp655
(lp656
tp657
atp658
sI1074237996
(Vbootloader_mmap_get_free_pages
p659
(lp660
(L1496516875L
L0L
(lp661
(lp662
tp663
atp664
sI1074269220
(V__assert_func
p665
(lp666
(L434373324L
L3785322319L
(lp667
(lp668
Vesp_log_early_timestamp
p669
atp670
a(L106L
L0L
(lp671
(lp672
tp673
atp674
sI1074235176
(Vbootloader_flash_cs_timing_config
p675
(lp676
(L436231625L
L0L
(lp677
(lp678
tp679
atp680
sI1074267960
(Vselect_partition_number
p681
(lp682
(L1731214134L
L3785322319L
(lp683
(lp684
Vbootloader_utility_load_partition_table
p685
atp686
a(L481673452L
L3785322319L
(lp687
(lp688
Vesp_log_early_timestamp
p689
atp690
a(L880231726L
L3785322319L
(lp691
(lp692
Vselected_boot_partition
p693
atp694
atp695
sI1074270776
(Vrtc_clk_8m_enable
p696
(lp697
(L1474360438L
L0L
(lp698
(lp699
tp700
a(L146674581L
L0L
(lp701
(lp702
tp703
a(L735850693L
L0L
(lp704
(lp705
tp706
a(L1144901323L
L0L
(lp707
(lp708
tp709
a(L1582793822L
L0L
(lp710
(lp711
tp712
a(L4157583702L
L0L
(lp713
(lp714
tp715
atp716
sI1074238004
(Vbootloader_fill_random
p717
(lp718
(L4037466985L
L0L
(lp719
(lp720
tp721
a(L2010573816L
L3785322319L
(lp722
(lp723
V__assert_func
p724
atp725
a(L3020204L
L0L
(lp726
(lp727
tp728
a(L3105261274L
L0L
(lp729
(lp730
tp731
a(L3136497133L
L0L
(lp732
(lp733
tp734
a(L1453409990L
L0L
(lp735
(lp736
tp737
a(L655163851L
L0L
(lp738
(lp739
tp740
a(L1298905564L
L0L
(lp741
(lp742
tp743
a(L2192561533L
L0L
(lp744
(lp745
tp746
a(L3360570486L
L0L
(lp747
(lp748
tp749
atp750
sI1074239280
(Vtry_load_partition
p751
(lp752
(L3877261386L
L0L
(lp753
(lp754
tp755
a(L2260359711L
L3785322319L
(lp756
(lp757
Vbootloader_load_image
p758
atp759
a(L3165668283L
L3785322319L
(lp760
(lp761
Vesp_log_early_timestamp
p762
atp763
a(L2993202392L
L0L
(lp764
(lp765
tp766
a(L2993202392L
L0L
(lp767
(lp768
tp769
atp770
sI1074237232
(Vbootloader_flash_read_allow_decrypt
p771
(lp772
(L3381655731L
L0L
(lp773
(lp774
tp775
a(L2481394718L
L0L
(lp776
(lp777
tp778
a(L2827791035L
L0L
(lp779
(lp780
tp781
a(L2092868393L
L3785322319L
(lp782
(lp783
Vesp_log_early_timestamp
p784
atp785
a(L986745520L
L0L
(lp786
(lp787
tp788
a(L1792079040L
L0L
(lp789
(lp790
tp791
a(L3423665670L
L0L
(lp792
(lp793
tp794
a(L106L
L0L
(lp795
(lp796
tp797
a(L2993202392L
L0L
(lp798
(lp799
tp800
atp801
sI1074235952
(Vesp_cpu_in_ocd_debug_mode
p802
(lp803
(L3620038287L
L0L
(lp804
(lp805
tp806
atp807
sI1074269744
(Vwrite_status_8b_xmc25qu64a
p808
(lp809
(L2934226828L
L1157885199L
(lp810
(lp811
Vexecute_flash_command
p812
aVesp_rom_spiflash_wait_idle
p813
aVexecute_flash_command
p814
aVesp_rom_spiflash_wait_idle
p815
aVexecute_flash_command
p816
atp817
atp818
sI1074243644
(Vbootloader_load_image
p819
(lp820
(L267004326L
L3785322319L
(lp821
(lp822
Vimage_load
p823
atp824
atp825
sI1074272308
(Vrtc_clk_cpu_freq_to_8m
p826
(lp827
(L3343730133L
L3785322319L
(lp828
(lp829
Vrtc_clk_apb_freq_update
p830
atp831
atp832
sI1074236740
(Vbootloader_common_get_active_otadata
p833
(lp834
(L4066087859L
L0L
(lp835
(lp836
tp837
a(L261345922L
L1832448559L
(lp838
(lp839
Vbootloader_common_ota_select_valid
p840
aVbootloader_common_ota_select_valid
p841
aVbootloader_common_select_otadata
p842
atp843
a(L515633988L
L0L
(lp844
(lp845
tp846
atp847
sI1074239552
(Vunpack_load_app
p848
(lp849
(L1842422795L
L0L
(lp850
(lp851
tp852
a(L227424592L
L0L
(lp853
(lp854
tp855
a(L2902417580L
L0L
(lp856
(lp857
tp858
a(L1029628832L
L3785322319L
(lp859
(lp860
Vesp_log_early_timestamp
p861
atp862
a(L3411822821L
L0L
(lp863
(lp864
tp865
a(L606853680L
L0L
(lp866
(lp867
tp868
a(L2902417580L
L0L
(lp869
(lp870
tp871
a(L783315745L
L3785322319L
(lp872
(lp873
Vesp_log_early_timestamp
p874
atp875
a(L87648306L
L0L
(lp876
(lp877
tp878
a(L1799288861L
L0L
(lp879
(lp880
tp881
a(L350965691L
L0L
(lp882
(lp883
tp884
a(L106L
L0L
(lp885
(lp886
tp887
a(L1717315991L
L3785322319L
(lp888
(lp889
Vset_cache_and_start_app
p890
atp891
atp892
sI1074235968
(Vesp_log_early_timestamp
p893
(lp894
(L2262329302L
L0L
(lp895
(lp896
tp897
atp898
sI1074243660
(Vesp_partition_table_verify
p899
(lp900
(L1334052503L
L0L
(lp901
(lp902
tp903
a(L2962270087L
L0L
(lp904
(lp905
tp906
a(L2544630126L
L0L
(lp907
(lp908
tp909
a(L4183706628L
L0L
(lp910
(lp911
tp912
a(L106L
L0L
(lp913
(lp914
tp915
a(L2579271819L
L0L
(lp916
(lp917
tp918
a(L2039260187L
L3785322319L
(lp919
(lp920
Vesp_log_early_timestamp
p921
atp922
a(L4036952873L
L0L
(lp923
(lp924
tp925
a(L2902417580L
L0L
(lp926
(lp927
tp928
a(L2579271819L
L0L
(lp929
(lp930
tp931
a(L59892762L
L3785322319L
(lp932
(lp933
Vesp_log_early_timestamp
p934
atp935
a(L2063166656L
L0L
(lp936
(lp937
tp938
a(L2579271819L
L0L
(lp939
(lp940
tp941
a(L1400027822L
L3785322319L
(lp942
(lp943
Vesp_log_early_timestamp
p944
atp945
a(L1610443436L
L0L
(lp946
(lp947
tp948
a(L2966513628L
L0L
(lp949
(lp950
tp951
a(L3720018517L
L0L
(lp952
(lp953
tp954
a(L324306632L
L0L
(lp955
(lp956
tp957
a(L2579271819L
L0L
(lp958
(lp959
tp960
a(L638218334L
L3785322319L
(lp961
(lp962
Vesp_log_early_timestamp
p963
atp964
a(L1799288861L
L0L
(lp965
(lp966
tp967
a(L474850413L
L0L
(lp968
(lp969
tp970
a(L106L
L0L
(lp971
(lp972
tp973
a(L484089803L
L0L
(lp974
(lp975
tp976
a(L1906221336L
L3785322319L
(lp977
(lp978
Vesp_log_early_timestamp
p979
atp980
a(L3854017309L
L0L
(lp981
(lp982
tp983
a(L2966513628L
L0L
(lp984
(lp985
tp986
a(L2966513628L
L0L
(lp987
(lp988
tp989
atp990
sI1074242636
(Vprocess_segment
p991
(lp992
(L815192809L
L3785322319L
(lp993
(lp994
Vbootloader_flash_read
p995
atp996
a(L3091174693L
L3785322319L
(lp997
(lp998
Vesp_log_early_timestamp
p999
atp1000
a(L2378867762L
L0L
(lp1001
(lp1002
tp1003
a(L2241831349L
L3785322319L
(lp1004
(lp1005
Vbootloader_sha256_data
p1006
atp1007
a(L3508283154L
L3785322319L
(lp1008
(lp1009
Vverify_segment_header
p1010
atp1011
a(L2910581177L
L0L
(lp1012
(lp1013
tp1014
a(L3028481L
L0L
(lp1015
(lp1016
tp1017
a(L1177831742L
L3785322319L
(lp1018
(lp1019
Vesp_log_early_timestamp
p1020
atp1021
a(L3031411042L
L3785322319L
(lp1022
(lp1023
Vshould_map
p1024
atp1025
a(L3356129481L
L3785322319L
(lp1026
(lp1027
Vshould_load
p1028
atp1029
a(L1299866343L
L0L
(lp1030
(lp1031
tp1032
a(L1299866312L
L0L
(lp1033
(lp1034
tp1035
a(L1182811810L
L0L
(lp1036
(lp1037
tp1038
a(L3592074427L
L0L
(lp1039
(lp1040
tp1041
a(L3287840219L
L3785322319L
(lp1042
(lp1043
Vesp_log_early_timestamp
p1044
atp1045
a(L2902417580L
L0L
(lp1046
(lp1047
tp1048
a(L568281991L
L0L
(lp1049
(lp1050
tp1051
a(L568281743L
L0L
(lp1052
(lp1053
tp1054
a(L1403804991L
L0L
(lp1055
(lp1056
tp1057
a(L3602079949L
L0L
(lp1058
(lp1059
tp1060
a(L1893706348L
L0L
(lp1061
(lp1062
tp1063
a(L2261579306L
L3785322319L
(lp1064
(lp1065
Vverify_load_addresses
p1066
atp1067
a(L978787560L
L3785322319L
(lp1068
(lp1069
Vbootloader_mmap_get_free_pages
p1070
atp1071
a(L3725904442L
L3785322319L
(lp1072
(lp1073
Vprocess_segment_data
p1074
atp1075
a(L1231449635L
L0L
(lp1076
(lp1077
tp1078
a(L3021737L
L0L
(lp1079
(lp1080
tp1081
a(L2993202392L
L0L
(lp1082
(lp1083
tp1084
a(L2902417580L
L0L
(lp1085
(lp1086
tp1087
a(L3360570486L
L0L
(lp1088
(lp1089
tp1090
a(L1935333341L
L0L
(lp1091
(lp1092
tp1093
a(L735741265L
L0L
(lp1094
(lp1095
tp1096
a(L702739623L
L0L
(lp1097
(lp1098
tp1099
a(L3360570486L
L0L
(lp1100
(lp1101
tp1102
atp1103
sI1074245452
(Vesp_rom_spiflash_unlock
p1104
(lp1105
(L569490903L
L1880226080L
(lp1106
(lp1107
Vesp_rom_spiflash_wait_idle
p1108
aVesp_rom_spiflash_read_statushigh
p1109
atp1110
a(L1784321584L
L3785322319L
(lp1111
(lp1112
Vesp_rom_spiflash_wait_idle
p1113
atp1114
a(L961844875L
L0L
(lp1115
(lp1116
tp1117
a(L1211979746L
L1832448559L
(lp1118
(lp1119
Vesp_rom_spiflash_wait_idle
p1120
aVesp_rom_spiflash_write_status
p1121
aVesp_rom_spiflash_wait_idle
p1122
atp1123
a(L961844875L
L0L
(lp1124
(lp1125
tp1126
a(L3360570486L
L0L
(lp1127
(lp1128
tp1129
a(L3880706073L
L0L
(lp1130
(lp1131
tp1132
atp1133
sI1074269252
(Vbootloader_init
p1134
(lp1135
(L3219493732L
L0L
(lp1136
(lp1137
tp1138
a(L2120392034L
L0L
(lp1139
(lp1140
tp1141
a(L93837694L
L0L
(lp1142
(lp1143
tp1144
a(L3303829057L
L0L
(lp1145
(lp1146
tp1147
a(L4024803849L
L3785322319L
(lp1148
(lp1149
V__assert_func
p1150
atp1151
a(L3726656669L
L0L
(lp1152
(lp1153
tp1154
a(L1268571093L
L3785322319L
(lp1155
(lp1156
V__assert_func
p1157
atp1158
a(L2575755686L
L0L
(lp1159
(lp1160
tp1161
a(L3401136922L
L3785322319L
(lp1162
(lp1163
V__assert_func
p1164
atp1165
a(L2608078921L
L0L
(lp1166
(lp1167
tp1168
a(L1238735455L
L3785322319L
(lp1169
(lp1170
V__assert_func
p1171
atp1172
a(L1188562451L
L3785322319L
(lp1173
(lp1174
Vbootloader_main
p1175
atp1176
a(L1299867982L
L0L
(lp1177
(lp1178
tp1179
a(L3360570486L
L0L
(lp1180
(lp1181
tp1182
atp1183
sI1074270544
(Vrtc_clk_bbpll_disable
p1184
(lp1185
(L1978143509L
L0L
(lp1186
(lp1187
tp1188
a(L1136781973L
L0L
(lp1189
(lp1190
tp1191
a(L3360570486L
L0L
(lp1192
(lp1193
tp1194
atp1195
sI1074271060
(Vrtc_clk_slow_freq_get
p1196
(lp1197
(L1890625580L
L0L
(lp1198
(lp1199
tp1200
atp1201
sI1074268008
(Vcall_start_cpu0
p1202
(lp1203
(L2311976169L
L3785322319L
(lp1204
(lp1205
Vbootloader_init
p1206
atp1207
a(L3827921190L
L3785322319L
(lp1208
(lp1209
Vbootloader_reset
p1210
atp1211
a(L4083304126L
L3785322319L
(lp1212
(lp1213
Vselect_partition_number
p1214
atp1215
a(L94425498L
L3785322319L
(lp1216
(lp1217
Vbootloader_reset
p1218
atp1219
a(L1678595755L
L3785322319L
(lp1220
(lp1221
Vbootloader_utility_load_boot_image
p1222
atp1223
atp1224
sI1074269800
(Vread_status_8b_xmc25qu64a
p1225
(lp1226
(L2780492150L
L2485746240L
(lp1227
(lp1228
Vexecute_flash_command
p1229
aVesp_rom_spiflash_wait_idle
p1230
aVexecute_flash_command
p1231
aVexecute_flash_command
p1232
atp1233
atp1234
sI1074239332
(Vset_cache_and_start_app
p1235
(lp1236
(L393644359L
L0L
(lp1237
(lp1238
tp1239
a(L3947892742L
L0L
(lp1240
(lp1241
tp1242
a(L1548223148L
L0L
(lp1243
(lp1244
tp1245
a(L399753135L
L0L
(lp1246
(lp1247
tp1248
atp1249
sI1074273132
(Vrtc_vddsdio_get_config
p1250
(lp1251
(L552793531L
L0L
(lp1252
(lp1253
tp1254
a(L3419648162L
L0L
(lp1255
(lp1256
tp1257
a(L2646522962L
L0L
(lp1258
(lp1259
tp1260
a(L3731264797L
L0L
(lp1261
(lp1262
tp1263
a(L1153423798L
L0L
(lp1264
(lp1265
tp1266
a(L3533070299L
L0L
(lp1267
(lp1268
tp1269
a(L3360570486L
L0L
(lp1270
(lp1271
tp1272
atp1273
sI1074236000
(V__bswapsi2
p1274
(lp1275
(L1536547126L
L0L
(lp1276
(lp1277
tp1278
atp1279
sI1074236780
(Vbootloader_common_vddsdio_configure
p1280
(lp1281
(L1829974089L
L3785322319L
(lp1282
(lp1283
Vrtc_vddsdio_get_config
p1284
atp1285
a(L955149828L
L3785322319L
(lp1286
(lp1287
Vrtc_vddsdio_set_config
p1288
atp1289
a(L3360570486L
L0L
(lp1290
(lp1291
tp1292
atp1293
sI1074271076
(Vrtc_clk_slow_freq_get_hz
p1294
(lp1295
(L2601977293L
L3785322319L
(lp1296
(lp1297
Vrtc_clk_slow_freq_get
p1298
atp1299
a(L2902417580L
L0L
(lp1300
(lp1301
tp1302
a(L3020187L
L0L
(lp1303
(lp1304
tp1305
a(L106L
L0L
(lp1306
(lp1307
tp1308
a(L2132972176L
L0L
(lp1309
(lp1310
tp1311
a(L895972223L
L0L
(lp1312
(lp1313
tp1314
a(L2993202392L
L0L
(lp1315
(lp1316
tp1317
a(L1388019604L
L0L
(lp1318
(lp1319
tp1320
atp1321
sI1074240360
(Vbootloader_reset
p1322
(lp1323
(L44586103L
L0L
(lp1324
(lp1325
tp1326
a(L106L
L0L
(lp1327
(lp1328
tp1329
atp1330
sI1074247016
(Vrtc_wdt_set_stage
p1331
(lp1332
(L1890082815L
L0L
(lp1333
(lp1334
tp1335
a(L1182990556L
L0L
(lp1336
(lp1337
tp1338
a(L4210890627L
L0L
(lp1339
(lp1340
tp1341
a(L1182990556L
L0L
(lp1342
(lp1343
tp1344
a(L3265635317L
L0L
(lp1345
(lp1346
tp1347
a(L2910371777L
L0L
(lp1348
(lp1349
tp1350
a(L3205488602L
L0L
(lp1351
(lp1352
tp1353
a(L3028464L
L0L
(lp1354
(lp1355
tp1356
a(L734309554L
L0L
(lp1357
(lp1358
tp1359
a(L3028464L
L0L
(lp1360
(lp1361
tp1362
a(L2560878963L
L0L
(lp1363
(lp1364
tp1365
a(L804269725L
L0L
(lp1366
(lp1367
tp1368
a(L2079009947L
L0L
(lp1369
(lp1370
tp1371
atp1372
sI1074273912
(Vrtc_clk_cal_ratio
p1373
(lp1374
(L1747571394L
L1880226080L
(lp1375
(lp1376
Vrtc_clk_cal_internal
p1377
aV__udivdi3
p1378
atp1379
atp1380
sI1074241140
(Vbootloader_sha256_hex_to_str
p1381
(lp1382
(L90530756L
L0L
(lp1383
(lp1384
tp1385
a(L97422L
L0L
(lp1386
(lp1387
tp1388
a(L106L
L0L
(lp1389
(lp1390
tp1391
a(L201281358L
L0L
(lp1392
(lp1393
tp1394
a(L1611366926L
L0L
(lp1395
(lp1396
tp1397
a(L1298905568L
L0L
(lp1398
(lp1399
tp1400
a(L1295154486L
L0L
(lp1401
(lp1402
tp1403
a(L2172025409L
L0L
(lp1404
(lp1405
tp1406
a(L1079575012L
L0L
(lp1407
(lp1408
tp1409
a(L978975865L
L0L
(lp1410
(lp1411
tp1412
a(L2258897019L
L0L
(lp1413
(lp1414
tp1415
a(L3027007L
L0L
(lp1416
(lp1417
tp1418
a(L4126803969L
L0L
(lp1419
(lp1420
tp1421
a(L448827677L
L0L
(lp1422
(lp1423
tp1424
a(L2993202392L
L0L
(lp1425
(lp1426
tp1427
a(L2079009947L
L0L
(lp1428
(lp1429
tp1430
a(L2079009947L
L0L
(lp1431
(lp1432
tp1433
atp1434
sI1074237812
(Vbootloader_flash_write
p1435
(lp1436
(L1798169257L
L0L
(lp1437
(lp1438
tp1439
a(L1755666842L
L0L
(lp1440
(lp1441
tp1442
a(L1182930978L
L0L
(lp1443
(lp1444
tp1445
a(L1516326052L
L0L
(lp1446
(lp1447
tp1448
a(L3601225942L
L3785322319L
(lp1449
(lp1450
Vesp_log_early_timestamp
p1451
atp1452
a(L3291333414L
L0L
(lp1453
(lp1454
tp1455
a(L3705527871L
L3785322319L
(lp1456
(lp1457
Vesp_log_early_timestamp
p1458
atp1459
a(L3283691850L
L0L
(lp1460
(lp1461
tp1462
a(L3219727249L
L3785322319L
(lp1463
(lp1464
Vesp_log_early_timestamp
p1465
atp1466
a(L2738388993L
L1880226080L
(lp1467
(lp1468
Vesp_rom_spiflash_unlock
p1469
aVspi_to_esp_err
p1470
atp1471
a(L2902417580L
L0L
(lp1472
(lp1473
tp1474
a(L640850222L
L1880226080L
(lp1475
(lp1476
Vesp_rom_spiflash_write_encrypted
p1477
aVspi_to_esp_err
p1478
atp1479
a(L640850222L
L1880226080L
(lp1480
(lp1481
Vesp_rom_spiflash_write
p1482
aVspi_to_esp_err
p1483
atp1484
a(L735741265L
L0L
(lp1485
(lp1486
tp1487
atp1488
sI1074244720
(Vesp_rom_spiflash_wait_idle
p1489
(lp1490
(L287326052L
L0L
(lp1491
(lp1492
tp1493
a(L2706831909L
L0L
(lp1494
(lp1495
tp1496
a(L3888066448L
L0L
(lp1497
(lp1498
tp1499
a(L855829385L
L3785322319L
(lp1500
(lp1501
Vesp_rom_spiflash_read_status
p1502
atp1503
a(L1298875774L
L0L
(lp1504
(lp1505
tp1506
a(L735741265L
L0L
(lp1507
(lp1508
tp1509
atp1510
sI1074245744
(Vesp_rom_spiflash_erase_sector
p1511
(lp1512
(L1840307470L
L0L
(lp1513
(lp1514
tp1515
a(L1086878830L
L3785322319L
(lp1516
(lp1517
Vesp_rom_spiflash_enable_write
p1518
atp1519
a(L2701834425L
L3785322319L
(lp1520
(lp1521
Vesp_rom_spiflash_erase_sector_internal
p1522
atp1523
a(L3880706073L
L0L
(lp1524
(lp1525
tp1526
a(L3880706073L
L0L
(lp1527
(lp1528
tp1529
a(L2258688483L
L0L
(lp1530
(lp1531
tp1532
a(L3360570486L
L0L
(lp1533
(lp1534
tp1535
atp1536
sI1074269552
(Vabort
p1537
(lp1538
(L1519843993L
L3785322319L
(lp1539
(lp1540
Vesp_cpu_in_ocd_debug_mode
p1541
atp1542
a(L409441471L
L0L
(lp1543
(lp1544
tp1545
a(L106L
L0L
(lp1546
(lp1547
tp1548
atp1549
sI1074271600
(Vrtc_clk_xtal_freq_get
p1550
(lp1551
(L3329520893L
L0L
(lp1552
(lp1553
tp1554
a(L2237928244L
L0L
(lp1555
(lp1556
tp1557
a(L1299866312L
L0L
(lp1558
(lp1559
tp1560
a(L1299866312L
L0L
(lp1561
(lp1562
tp1563
a(L2258688483L
L0L
(lp1564
(lp1565
tp1566
a(L2902417580L
L0L
(lp1567
(lp1568
tp1569
a(L2423429582L
L0L
(lp1570
(lp1571
tp1572
a(L2993202392L
L0L
(lp1573
(lp1574
tp1575
atp1576
sI1074273392
(Vrtc_vddsdio_set_config
p1577
(lp1578
(L1132768946L
L0L
(lp1579
(lp1580
tp1581
atp1582
sI1074240124
(Vbootloader_utility_get_selected_boot_partition
p1583
(lp1584
(L493075905L
L0L
(lp1585
(lp1586
tp1587
a(L1053676827L
L3785322319L
(lp1588
(lp1589
Vread_otadata
p1590
atp1591
a(L608517063L
L3785322319L
(lp1592
(lp1593
Vbootloader_common_ota_select_invalid
p1594
atp1595
a(L1836822349L
L3785322319L
(lp1596
(lp1597
Vbootloader_common_ota_select_invalid
p1598
atp1599
a(L1103582223L
L0L
(lp1600
(lp1601
tp1602
a(L1434139642L
L0L
(lp1603
(lp1604
tp1605
a(L1928357489L
L3785322319L
(lp1606
(lp1607
Vesp_log_early_timestamp
p1608
atp1609
a(L1869322443L
L3785322319L
(lp1610
(lp1611
Vesp_log_early_timestamp
p1612
atp1613
a(L1231013322L
L3785322319L
(lp1614
(lp1615
Vbootloader_common_ota_select_crc
p1616
atp1617
a(L505081345L
L0L
(lp1618
(lp1619
tp1620
a(L919052234L
L3785322319L
(lp1621
(lp1622
Vbootloader_common_ota_select_crc
p1623
atp1624
a(L2401229276L
L0L
(lp1625
(lp1626
tp1627
a(L726746649L
L3785322319L
(lp1628
(lp1629
Vbootloader_common_get_active_otadata
p1630
atp1631
a(L4158819813L
L0L
(lp1632
(lp1633
tp1634
a(L1630653147L
L0L
(lp1635
(lp1636
tp1637
a(L357843848L
L3785322319L
(lp1638
(lp1639
Vesp_log_early_timestamp
p1640
atp1641
a(L2346681952L
L3785322319L
(lp1642
(lp1643
Vesp_log_early_timestamp
p1644
atp1645
a(L515633988L
L0L
(lp1646
(lp1647
tp1648
a(L2805938668L
L0L
(lp1649
(lp1650
tp1651
a(L3360570486L
L0L
(lp1652
(lp1653
tp1654
atp1655
sI1074242428
(Vdebug_log_hash
p1656
(lp1657
(L1348589273L
L3785322319L
(lp1658
(lp1659
Vbootloader_sha256_hex_to_str
p1660
atp1661
atp1662
sI1074246780
(Vrtc_clk_apb_freq_get
p1663
(lp1664
(L3391751270L
L0L
(lp1665
(lp1666
tp1667
atp1668
sI1074238584
(Vbootloader_random_disable
p1669
(lp1670
(L4057891542L
L0L
(lp1671
(lp1672
tp1673
atp1674
sI1074270344
(Vbootloader_flash_get_wp_pin
p1675
(lp1676
(L2642896018L
L0L
(lp1677
(lp1678
tp1679
a(L93674324L
L0L
(lp1680
(lp1681
tp1682
a(L3020187L
L0L
(lp1683
(lp1684
tp1685
a(L106L
L0L
(lp1686
(lp1687
tp1688
a(L3020187L
L0L
(lp1689
(lp1690
tp1691
a(L106L
L0L
(lp1692
(lp1693
tp1694
a(L615793567L
L0L
(lp1695
(lp1696
tp1697
a(L798587386L
L3785322319L
(lp1698
(lp1699
Vbootloader_common_get_chip_revision
p1700
atp1701
a(L615793567L
L0L
(lp1702
(lp1703
tp1704
a(L3531209801L
L0L
(lp1705
(lp1706
tp1707
a(L3730415589L
L0L
(lp1708
(lp1709
tp1710
a(L3730415589L
L0L
(lp1711
(lp1712
tp1713
atp1714
sI1074272396
(Vrtc_clk_cpu_freq_set_config
p1715
(lp1716
(L3477899030L
L3785322319L
(lp1717
(lp1718
Vrtc_clk_xtal_freq_get
p1719
atp1720
a(L1739379997L
L1880226080L
(lp1721
(lp1722
Vrtc_clk_cpu_freq_to_xtal
p1723
aVrtc_clk_wait_for_slow_cycle
p1724
atp1725
a(L3028464L
L0L
(lp1726
(lp1727
tp1728
a(L94425498L
L3785322319L
(lp1729
(lp1730
Vrtc_clk_bbpll_disable
p1731
atp1732
a(L3978916712L
L0L
(lp1733
(lp1734
tp1735
a(L2977209154L
L0L
(lp1736
(lp1737
tp1738
a(L540421064L
L3785322319L
(lp1739
(lp1740
Vrtc_clk_cpu_freq_to_xtal
p1741
atp1742
a(L3028464L
L0L
(lp1743
(lp1744
tp1745
a(L2697686144L
L1157885199L
(lp1746
(lp1747
Vrtc_clk_bbpll_enable
p1748
aVrtc_clk_wait_for_slow_cycle
p1749
aVrtc_clk_xtal_freq_get
p1750
aVrtc_clk_bbpll_configure
p1751
aVrtc_clk_cpu_freq_to_pll_mhz
p1752
atp1753
a(L3028464L
L0L
(lp1754
(lp1755
tp1756
a(L94425498L
L3785322319L
(lp1757
(lp1758
Vrtc_clk_cpu_freq_to_8m
p1759
atp1760
a(L3360570486L
L0L
(lp1761
(lp1762
tp1763
atp1764
sI1074241420
(Vverify_checksum
p1765
(lp1766
(L7413395L
L3785322319L
(lp1767
(lp1768
Vbootloader_flash_read
p1769
atp1770
a(L3061351808L
L3785322319L
(lp1771
(lp1772
Vesp_log_early_timestamp
p1773
atp1774
a(L3020204L
L0L
(lp1775
(lp1776
tp1777
a(L2547710365L
L3785322319L
(lp1778
(lp1779
Vbootloader_sha256_data
p1780
atp1781
a(L4124473353L
L0L
(lp1782
(lp1783
tp1784
a(L1223427414L
L0L
(lp1785
(lp1786
tp1787
a(L755040691L
L0L
(lp1788
(lp1789
tp1790
atp1791
sI1074268804
(Vupdate_flash_config
p1792
(lp1793
(L1046059555L
L0L
(lp1794
(lp1795
tp1796
a(L93674324L
L0L
(lp1797
(lp1798
tp1799
a(L2902417580L
L0L
(lp1800
(lp1801
tp1802
a(L106L
L0L
(lp1803
(lp1804
tp1805
a(L3020187L
L0L
(lp1806
(lp1807
tp1808
a(L3020187L
L0L
(lp1809
(lp1810
tp1811
a(L106L
L0L
(lp1812
(lp1813
tp1814
a(L1299866343L
L0L
(lp1815
(lp1816
tp1817
a(L1299866436L
L0L
(lp1818
(lp1819
tp1820
a(L1299866560L
L0L
(lp1821
(lp1822
tp1823
a(L1641149277L
L0L
(lp1824
(lp1825
tp1826
a(L2258688484L
L0L
(lp1827
(lp1828
tp1829
a(L3722066624L
L0L
(lp1830
(lp1831
tp1832
atp1833
sI1074239112
(Vwrite_otadata
p1834
(lp1835
(L1129643552L
L3785322319L
(lp1836
(lp1837
Vbootloader_flash_erase_sector
p1838
atp1839
a(L2292404229L
L3785322319L
(lp1840
(lp1841
Vbootloader_flash_write
p1842
atp1843
a(L3020204L
L0L
(lp1844
(lp1845
tp1846
a(L3719875213L
L3785322319L
(lp1847
(lp1848
Vesp_log_early_timestamp
p1849
atp1850
a(L3360570486L
L0L
(lp1851
(lp1852
tp1853
atp1854
sI1074237064
(Vbootloader_common_ota_select_invalid
p1855
(lp1856
(L2808438197L
L0L
(lp1857
(lp1858
tp1859
a(L473337258L
L0L
(lp1860
(lp1861
tp1862
a(L3028464L
L0L
(lp1863
(lp1864
tp1865
a(L3880706073L
L0L
(lp1866
(lp1867
tp1868
a(L3880706073L
L0L
(lp1869
(lp1870
tp1871
a(L3880706073L
L0L
(lp1872
(lp1873
tp1874
a(L2993202392L
L0L
(lp1875
(lp1876
tp1877
atp1878
sI1074236040
(V__udivdi3
p1879
(lp1880
(L1385793588L
L0L
(lp1881
(lp1882
tp1883
a(L3027019L
L0L
(lp1884
(lp1885
tp1886
a(L106L
L0L
(lp1887
(lp1888
tp1889
a(L2092509388L
L0L
(lp1890
(lp1891
tp1892
a(L3502386743L
L0L
(lp1893
(lp1894
tp1895
a(L1366962904L
L0L
(lp1896
(lp1897
tp1898
a(L438338333L
L0L
(lp1899
(lp1900
tp1901
a(L3027019L
L0L
(lp1902
(lp1903
tp1904
a(L1598954342L
L0L
(lp1905
(lp1906
tp1907
a(L3753924055L
L0L
(lp1908
(lp1909
tp1910
a(L1897931368L
L0L
(lp1911
(lp1912
tp1913
a(L1870013079L
L0L
(lp1914
(lp1915
tp1916
a(L3021749L
L0L
(lp1917
(lp1918
tp1919
a(L2802159608L
L0L
(lp1920
(lp1921
tp1922
a(L3888552627L
L0L
(lp1923
(lp1924
tp1925
a(L2632174215L
L0L
(lp1926
(lp1927
tp1928
a(L2910371777L
L0L
(lp1929
(lp1930
tp1931
a(L305663930L
L0L
(lp1932
(lp1933
tp1934
a(L2740121073L
L0L
(lp1935
(lp1936
tp1937
a(L706293450L
L0L
(lp1938
(lp1939
tp1940
a(L4229162210L
L0L
(lp1941
(lp1942
tp1943
a(L2843085605L
L0L
(lp1944
(lp1945
tp1946
a(L3027019L
L0L
(lp1947
(lp1948
tp1949
a(L3073587686L
L0L
(lp1950
(lp1951
tp1952
a(L3122262879L
L0L
(lp1953
(lp1954
tp1955
a(L1300871293L
L0L
(lp1956
(lp1957
tp1958
a(L94415139L
L0L
(lp1959
(lp1960
tp1961
a(L3027019L
L0L
(lp1962
(lp1963
tp1964
a(L11368960L
L0L
(lp1965
(lp1966
tp1967
a(L3212626947L
L0L
(lp1968
(lp1969
tp1970
a(L3756070799L
L0L
(lp1971
(lp1972
tp1973
a(L1029992261L
L0L
(lp1974
(lp1975
tp1976
a(L438338333L
L0L
(lp1977
(lp1978
tp1979
a(L3027019L
L0L
(lp1980
(lp1981
tp1982
a(L2534896770L
L0L
(lp1983
(lp1984
tp1985
a(L2789765947L
L0L
(lp1986
(lp1987
tp1988
a(L3482374298L
L0L
(lp1989
(lp1990
tp1991
a(L1870018349L
L0L
(lp1992
(lp1993
tp1994
a(L3027019L
L0L
(lp1995
(lp1996
tp1997
a(L2802159608L
L0L
(lp1998
(lp1999
tp2000
a(L3888552627L
L0L
(lp2001
(lp2002
tp2003
a(L36877582L
L0L
(lp2004
(lp2005
tp2006
a(L3021749L
L0L
(lp2007
(lp2008
tp2009
a(L106L
L0L
(lp2010
(lp2011
tp2012
a(L3988749468L
L0L
(lp2013
(lp2014
tp2015
a(L1375050317L
L0L
(lp2016
(lp2017
tp2018
a(L4185861754L
L0L
(lp2019
(lp2020
tp2021
a(L892947480L
L0L
(lp2022
(lp2023
tp2024
a(L2258688482L
L0L
(lp2025
(lp2026
tp2027
a(L2856348002L
L0L
(lp2028
(lp2029
tp2030
a(L1351383952L
L0L
(lp2031
(lp2032
tp2033
a(L1681866360L
L0L
(lp2034
(lp2035
tp2036
a(L3021749L
L0L
(lp2037
(lp2038
tp2039
a(L4115096326L
L0L
(lp2040
(lp2041
tp2042
a(L2229771582L
L0L
(lp2043
(lp2044
tp2045
a(L3630858718L
L0L
(lp2046
(lp2047
tp2048
a(L1986658244L
L0L
(lp2049
(lp2050
tp2051
a(L3027019L
L0L
(lp2052
(lp2053
tp2054
a(L2802159608L
L0L
(lp2055
(lp2056
tp2057
a(L2938387302L
L0L
(lp2058
(lp2059
tp2060
a(L3219580898L
L0L
(lp2061
(lp2062
tp2063
a(L4280816470L
L0L
(lp2064
(lp2065
tp2066
a(L97422L
L0L
(lp2067
(lp2068
tp2069
a(L1621601873L
L0L
(lp2070
(lp2071
tp2072
a(L3070693089L
L0L
(lp2073
(lp2074
tp2075
a(L2361595480L
L0L
(lp2076
(lp2077
tp2078
a(L539227760L
L0L
(lp2079
(lp2080
tp2081
atp2082
sI1074235784
(Vbootloader_flash_dummy_config
p2083
(lp2084
(L29985232L
L0L
(lp2085
(lp2086
tp2087
a(L3017366L
L0L
(lp2088
(lp2089
tp2090
a(L3016870L
L0L
(lp2091
(lp2092
tp2093
a(L2704877724L
L0L
(lp2094
(lp2095
tp2096
a(L3795431303L
L0L
(lp2097
(lp2098
tp2099
a(L1610443405L
L0L
(lp2100
(lp2101
tp2102
a(L1610443405L
L0L
(lp2103
(lp2104
tp2105
a(L1610443498L
L0L
(lp2106
(lp2107
tp2108
a(L1298875780L
L0L
(lp2109
(lp2110
tp2111
a(L680882736L
L0L
(lp2112
(lp2113
tp2114
a(L2902417580L
L0L
(lp2115
(lp2116
tp2117
a(L106L
L0L
(lp2118
(lp2119
tp2120
a(L3632614529L
L0L
(lp2121
(lp2122
tp2123
a(L325410616L
L0L
(lp2124
(lp2125
tp2126
a(L2363466905L
L0L
(lp2127
(lp2128
tp2129
a(L419079280L
L0L
(lp2130
(lp2131
tp2132
a(L3127423664L
L0L
(lp2133
(lp2134
tp2135
atp2136
sI1074247304
(Vrtc_wdt_set_length_of_reset_signal
p2137
(lp2138
(L1890082815L
L0L
(lp2139
(lp2140
tp2141
a(L1182990556L
L0L
(lp2142
(lp2143
tp2144
a(L4210890627L
L0L
(lp2145
(lp2146
tp2147
a(L1182990556L
L0L
(lp2148
(lp2149
tp2150
a(L3265635317L
L0L
(lp2151
(lp2152
tp2153
a(L2910371777L
L0L
(lp2154
(lp2155
tp2156
a(L2712100395L
L0L
(lp2157
(lp2158
tp2159
a(L3044077802L
L0L
(lp2160
(lp2161
tp2162
a(L2079009947L
L0L
(lp2163
(lp2164
tp2165
atp2166
sI1074269848
(Venable_qio_mode
p2167
(lp2168
(L2391718229L
L3785322319L
(lp2169
(lp2170
Vesp_rom_spiflash_wait_idle
p2171
atp2172
a(L1953458965L
L1880226080L
(lp2173
(lp2174
Vexecute_flash_command
p2175
aVesp_rom_spiflash_wait_idle
p2176
atp2177
a(L1301821810L
L3785322319L
(lp2178
(lp2179
Vesp_log_early_timestamp
p2180
atp2181
a(L3674643714L
L1880226080L
(lp2182
(lp2183
Vesp_rom_spiflash_config_readmode
p2184
aVbootloader_flash_get_wp_pin
p2185
atp2186
atp2187
sI1074272152
(Vrtc_clk_cpu_freq_to_pll_mhz
p2188
(lp2189
(L3639301015L
L0L
(lp2190
(lp2191
tp2192
a(L1541996779L
L0L
(lp2193
(lp2194
tp2195
a(L1546614651L
L0L
(lp2196
(lp2197
tp2198
a(L57328321L
L0L
(lp2199
(lp2200
tp2201
a(L420011616L
L1880226080L
(lp2202
(lp2203
Vesp_log_early_timestamp
p2204
aVabort
p2205
atp2206
a(L3546033543L
L0L
(lp2207
(lp2208
tp2209
a(L3307832802L
L0L
(lp2210
(lp2211
tp2212
a(L298197670L
L1880226080L
(lp2213
(lp2214
Vrtc_clk_apb_freq_update
p2215
aVrtc_clk_wait_for_slow_cycle
p2216
atp2217
atp2218
sI1074273944
(Vrtc_clk_wait_for_slow_cycle
p2219
(lp2220
(L2535073627L
L0L
(lp2221
(lp2222
tp2223
a(L3534475188L
L0L
(lp2224
(lp2225
tp2226
a(L4033200358L
L0L
(lp2227
(lp2228
tp2229
a(L3360570486L
L0L
(lp2230
(lp2231
tp2232
atp2233
sI1074240404
(Vbootloader_utility_load_boot_image
p2234
(lp2235
(L3583044102L
L0L
(lp2236
(lp2237
tp2238
a(L534474525L
L3785322319L
(lp2239
(lp2240
Vtry_load_partition
p2241
atp2242
a(L1346171890L
L3785322319L
(lp2243
(lp2244
Vload_image
p2245
atp2246
a(L2128935478L
L1880226080L
(lp2247
(lp2248
Vesp_log_early_timestamp
p2249
aVbootloader_reset
p2250
atp2251
a(L471331349L
L3785322319L
(lp2252
(lp2253
Vindex_to_partition
p2254
atp2255
a(L889780906L
L3785322319L
(lp2256
(lp2257
Vcheck_anti_rollback
p2258
atp2259
a(L1255570883L
L3785322319L
(lp2260
(lp2261
Vtry_load_partition
p2262
atp2263
a(L170811925L
L1880226080L
(lp2264
(lp2265
Vset_actual_ota_seq
p2266
aVload_image
p2267
atp2268
a(L1391131227L
L3785322319L
(lp2269
(lp2270
Vlog_invalid_app_partition
p2271
atp2272
a(L11368960L
L0L
(lp2273
(lp2274
tp2275
a(L3802068281L
L0L
(lp2276
(lp2277
tp2278
a(L3021737L
L0L
(lp2279
(lp2280
tp2281
a(L830883630L
L0L
(lp2282
(lp2283
tp2284
a(L4120885050L
L3785322319L
(lp2285
(lp2286
Vindex_to_partition
p2287
atp2288
a(L889780906L
L3785322319L
(lp2289
(lp2290
Vcheck_anti_rollback
p2291
atp2292
a(L1255570883L
L3785322319L
(lp2293
(lp2294
Vtry_load_partition
p2295
atp2296
a(L170811925L
L1880226080L
(lp2297
(lp2298
Vset_actual_ota_seq
p2299
aVload_image
p2300
atp2301
a(L1868897605L
L3785322319L
(lp2302
(lp2303
Vlog_invalid_app_partition
p2304
atp2305
a(L3335942427L
L0L
(lp2306
(lp2307
tp2308
a(L3305857427L
L0L
(lp2309
(lp2310
tp2311
a(L2528911837L
L3785322319L
(lp2312
(lp2313
Vtry_load_partition
p2314
atp2315
a(L477941458L
L1880226080L
(lp2316
(lp2317
Vesp_log_early_timestamp
p2318
aVload_image
p2319
atp2320
a(L1699416426L
L1880226080L
(lp2321
(lp2322
Vesp_log_early_timestamp
p2323
aVbootloader_reset
p2324
atp2325
atp2326
sI1074242452
(Vverify_simple_hash
p2327
(lp2328
(L1498278627L
L1832448559L
(lp2329
(lp2330
Vbootloader_sha256_finish
p2331
aVdebug_log_hash
p2332
aVbootloader_mmap
p2333
atp2334
a(L814089951L
L1832448559L
(lp2335
(lp2336
Vesp_log_early_timestamp
p2337
aVdebug_log_hash
p2338
aVbootloader_munmap
p2339
atp2340
a(L1606099250L
L3785322319L
(lp2341
(lp2342
Vbootloader_munmap
p2343
atp2344
atp2345
sI1074269596
(Vwrite_status_8b_wrsr2
p2346
(lp2347
(L3772914914L
L3785322319L
(lp2348
(lp2349
Vexecute_flash_command
p2350
atp2351
atp2352
sI1074240656
(Vindex_to_partition
p2353
(lp2354
(L4066096119L
L0L
(lp2355
(lp2356
tp2357
a(L937847257L
L0L
(lp2358
(lp2359
tp2360
a(L2808906342L
L0L
(lp2361
(lp2362
tp2363
a(L1765918994L
L0L
(lp2364
(lp2365
tp2366
a(L2808826781L
L0L
(lp2367
(lp2368
tp2369
a(L2911029954L
L0L
(lp2370
(lp2371
tp2372
a(L2511483031L
L0L
(lp2373
(lp2374
tp2375
a(L1984670054L
L0L
(lp2376
(lp2377
tp2378
a(L3698927993L
L0L
(lp2379
(lp2380
tp2381
atp2382
sI1074243984
(Vspi_cache_mode_switch
p2383
(lp2384
(L2910725452L
L0L
(lp2385
(lp2386
tp2387
a(L1948910468L
L0L
(lp2388
(lp2389
tp2390
a(L3017366L
L0L
(lp2391
(lp2392
tp2393
a(L106L
L0L
(lp2394
(lp2395
tp2396
a(L3817622846L
L0L
(lp2397
(lp2398
tp2399
a(L13887349L
L0L
(lp2400
(lp2401
tp2402
a(L3016870L
L0L
(lp2403
(lp2404
tp2405
a(L550985697L
L0L
(lp2406
(lp2407
tp2408
a(L3016870L
L0L
(lp2409
(lp2410
tp2411
a(L2033983047L
L0L
(lp2412
(lp2413
tp2414
a(L3875057704L
L0L
(lp2415
(lp2416
tp2417
a(L1377026159L
L0L
(lp2418
(lp2419
tp2420
a(L3434512658L
L0L
(lp2421
(lp2422
tp2423
a(L3584374746L
L0L
(lp2424
(lp2425
tp2426
a(L3840692995L
L0L
(lp2427
(lp2428
tp2429
atp2430
sI1074270608
(Vrtc_clk_bbpll_enable
p2431
(lp2432
(L1454873016L
L0L
(lp2433
(lp2434
tp2435
atp2436
sI1074271120
(Vrtc_clk_fast_freq_set
p2437
(lp2438
(L4294101357L
L0L
(lp2439
(lp2440
tp2441
atp2442
sI1074272656
(Vrtc_clk_init
p2443
(lp2444
(L434770603L
L0L
(lp2445
(lp2446
tp2447
a(L2549152574L
L3785322319L
(lp2448
(lp2449
Vrtc_clk_cpu_freq_to_xtal
p2450
atp2451
a(L893897570L
L0L
(lp2452
(lp2453
tp2454
a(L1094763575L
L0L
(lp2455
(lp2456
tp2457
a(L3224614952L
L0L
(lp2458
(lp2459
tp2460
a(L1299866312L
L0L
(lp2461
(lp2462
tp2463
a(L1299866312L
L0L
(lp2464
(lp2465
tp2466
a(L1182811811L
L0L
(lp2467
(lp2468
tp2469
a(L3020204L
L0L
(lp2470
(lp2471
tp2472
a(L1849746773L
L3785322319L
(lp2473
(lp2474
Vrtc_clk_xtal_freq_get
p2475
atp2476
a(L1375577398L
L3785322319L
(lp2477
(lp2478
Vrtc_clk_xtal_freq_estimate
p2479
atp2480
a(L2572306854L
L3785322319L
(lp2481
(lp2482
Vesp_log_early_timestamp
p2483
atp2484
a(L447979660L
L0L
(lp2485
(lp2486
tp2487
a(L4233392623L
L0L
(lp2488
(lp2489
tp2490
a(L1300789833L
L0L
(lp2491
(lp2492
tp2493
a(L1300789833L
L0L
(lp2494
(lp2495
tp2496
a(L2258718274L
L0L
(lp2497
(lp2498
tp2499
a(L3028481L
L0L
(lp2500
(lp2501
tp2502
a(L3183127930L
L3785322319L
(lp2503
(lp2504
Vrtc_clk_xtal_freq_estimate
p2505
atp2506
a(L3638436111L
L3785322319L
(lp2507
(lp2508
Vesp_log_early_timestamp
p2509
atp2510
a(L4147761415L
L0L
(lp2511
(lp2512
tp2513
a(L2052644251L
L2485746240L
(lp2514
(lp2515
Vrtc_clk_xtal_freq_update
p2516
aVrtc_clk_apb_freq_update
p2517
aVrtc_clk_cpu_freq_get_config
p2518
aVrtc_clk_cpu_freq_mhz_to_config
p2519
atp2520
a(L4250338340L
L1880226080L
(lp2521
(lp2522
Vesp_log_early_timestamp
p2523
aVabort
p2524
atp2525
a(L718886407L
L3785322319L
(lp2526
(lp2527
Vrtc_clk_cpu_freq_set_config
p2528
atp2529
a(L3804637084L
L3785322319L
(lp2530
(lp2531
Vrtc_clk_32k_enable
p2532
atp2533
a(L3016870L
L0L
(lp2534
(lp2535
tp2536
a(L1895010558L
L3785322319L
(lp2537
(lp2538
Vrtc_clk_8m_enable
p2539
atp2540
a(L530469956L
L1880226080L
(lp2541
(lp2542
Vrtc_clk_fast_freq_set
p2543
aVrtc_clk_slow_freq_set
p2544
atp2545
atp2546
sI1074246044
(Vesp_rom_spiflash_write_encrypted
p2547
(lp2548
(L4165383288L
L0L
(lp2549
(lp2550
tp2551
a(L1782922338L
L0L
(lp2552
(lp2553
tp2554
a(L1332765401L
L0L
(lp2555
(lp2556
tp2557
a(L1094752673L
L0L
(lp2558
(lp2559
tp2560
a(L1441056191L
L3785322319L
(lp2561
(lp2562
Vesp_rom_spiflash_write
p2563
atp2564
a(L1885265687L
L0L
(lp2565
(lp2566
tp2567
a(L2728132755L
L0L
(lp2568
(lp2569
tp2570
a(L3287693350L
L0L
(lp2571
(lp2572
tp2573
a(L3880706073L
L0L
(lp2574
(lp2575
tp2576
a(L3880706073L
L0L
(lp2577
(lp2578
tp2579
atp2580
sI1074241692
(Vverify_load_addresses
p2581
(lp2582
(L2763563698L
L0L
(lp2583
(lp2584
tp2585
a(L106L
L0L
(lp2586
(lp2587
tp2588
a(L97642L
L0L
(lp2589
(lp2590
tp2591
a(L7017171L
L3785322319L
(lp2592
(lp2593
V__assert_func
p2594
atp2595
a(L4000980610L
L0L
(lp2596
(lp2597
tp2598
a(L106L
L0L
(lp2599
(lp2600
tp2601
a(L2135626914L
L0L
(lp2602
(lp2603
tp2604
a(L106L
L0L
(lp2605
(lp2606
tp2607
a(L2848628730L
L0L
(lp2608
(lp2609
tp2610
a(L1182990556L
L0L
(lp2611
(lp2612
tp2613
a(L1322742497L
L0L
(lp2614
(lp2615
tp2616
a(L2306437309L
L0L
(lp2617
(lp2618
tp2619
a(L93892250L
L0L
(lp2620
(lp2621
tp2622
a(L106L
L0L
(lp2623
(lp2624
tp2625
a(L2480306296L
L0L
(lp2626
(lp2627
tp2628
a(L2258867228L
L0L
(lp2629
(lp2630
tp2631
a(L322238992L
L0L
(lp2632
(lp2633
tp2634
a(L2258897019L
L0L
(lp2635
(lp2636
tp2637
a(L93892250L
L0L
(lp2638
(lp2639
tp2640
a(L106L
L0L
(lp2641
(lp2642
tp2643
a(L3028481L
L0L
(lp2644
(lp2645
tp2646
a(L497616802L
L0L
(lp2647
(lp2648
tp2649
a(L2258807646L
L0L
(lp2650
(lp2651
tp2652
a(L3425187488L
L0L
(lp2653
(lp2654
tp2655
a(L2258867228L
L0L
(lp2656
(lp2657
tp2658
a(L3016266L
L0L
(lp2659
(lp2660
tp2661
a(L106L
L0L
(lp2662
(lp2663
tp2664
a(L524464942L
L0L
(lp2665
(lp2666
tp2667
a(L714262439L
L0L
(lp2668
(lp2669
tp2670
a(L3200754878L
L0L
(lp2671
(lp2672
tp2673
a(L1769229423L
L0L
(lp2674
(lp2675
tp2676
a(L1556778961L
L0L
(lp2677
(lp2678
tp2679
a(L952241675L
L0L
(lp2680
(lp2681
tp2682
a(L97472L
L0L
(lp2683
(lp2684
tp2685
a(L2680290961L
L3785322319L
(lp2686
(lp2687
Vverify_load_addresses
p2688
atp2689
a(L3856589209L
L3785322319L
(lp2690
(lp2691
Vverify_load_addresses
p2692
atp2693
a(L3985852354L
L0L
(lp2694
(lp2695
tp2696
a(L106L
L0L
(lp2697
(lp2698
tp2699
a(L547279012L
L0L
(lp2700
(lp2701
tp2702
a(L106L
L0L
(lp2703
(lp2704
tp2705
a(L2482034174L
L0L
(lp2706
(lp2707
tp2708
a(L2258867228L
L0L
(lp2709
(lp2710
tp2711
a(L323966870L
L0L
(lp2712
(lp2713
tp2714
a(L2258897019L
L0L
(lp2715
(lp2716
tp2717
a(L93892250L
L0L
(lp2718
(lp2719
tp2720
a(L106L
L0L
(lp2721
(lp2722
tp2723
a(L3028481L
L0L
(lp2724
(lp2725
tp2726
a(L498182831L
L0L
(lp2727
(lp2728
tp2729
a(L2258807646L
L0L
(lp2730
(lp2731
tp2732
a(L3425664144L
L0L
(lp2733
(lp2734
tp2735
a(L2258867228L
L0L
(lp2736
(lp2737
tp2738
a(L3016266L
L0L
(lp2739
(lp2740
tp2741
a(L106L
L0L
(lp2742
(lp2743
tp2744
a(L3199674524L
L0L
(lp2745
(lp2746
tp2747
a(L2018608855L
L0L
(lp2748
(lp2749
tp2750
a(L3200754862L
L0L
(lp2751
(lp2752
tp2753
a(L149471709L
L0L
(lp2754
(lp2755
tp2756
a(L903234305L
L0L
(lp2757
(lp2758
tp2759
a(L952241683L
L0L
(lp2760
(lp2761
tp2762
a(L97472L
L0L
(lp2763
(lp2764
tp2765
a(L2680290961L
L3785322319L
(lp2766
(lp2767
Vverify_load_addresses
p2768
atp2769
a(L3856589209L
L3785322319L
(lp2770
(lp2771
Vverify_load_addresses
p2772
atp2773
a(L2049074773L
L0L
(lp2774
(lp2775
tp2776
a(L2822527168L
L0L
(lp2777
(lp2778
tp2779
a(L2094339281L
L0L
(lp2780
(lp2781
tp2782
a(L2867791676L
L0L
(lp2783
(lp2784
tp2785
a(L640124550L
L0L
(lp2786
(lp2787
tp2788
a(L2031820249L
L0L
(lp2789
(lp2790
tp2791
a(L826402262L
L0L
(lp2792
(lp2793
tp2794
a(L826402634L
L0L
(lp2795
(lp2796
tp2797
a(L826402014L
L0L
(lp2798
(lp2799
tp2800
a(L826402138L
L0L
(lp2801
(lp2802
tp2803
a(L2104868116L
L0L
(lp2804
(lp2805
tp2806
a(L3020204L
L0L
(lp2807
(lp2808
tp2809
a(L1409683440L
L3785322319L
(lp2810
(lp2811
Vesp_log_early_timestamp
p2812
atp2813
a(L3880706073L
L0L
(lp2814
(lp2815
tp2816
a(L3880706073L
L0L
(lp2817
(lp2818
tp2819
a(L3880706073L
L0L
(lp2820
(lp2821
tp2822
a(L3880706073L
L0L
(lp2823
(lp2824
tp2825
a(L3880706073L
L0L
(lp2826
(lp2827
tp2828
a(L3880706073L
L0L
(lp2829
(lp2830
tp2831
a(L3880706073L
L0L
(lp2832
(lp2833
tp2834
a(L3880706073L
L0L
(lp2835
(lp2836
tp2837
a(L2993202392L
L0L
(lp2838
(lp2839
tp2840
atp2841
sI1074242968
(Vimage_load
p2842
(lp2843
(L2340434831L
L0L
(lp2844
(lp2845
tp2846
a(L106L
L0L
(lp2847
(lp2848
tp2849
a(L933926401L
L0L
(lp2850
(lp2851
tp2852
a(L3028464L
L0L
(lp2853
(lp2854
tp2855
a(L106L
L0L
(lp2856
(lp2857
tp2858
a(L3899222988L
L3785322319L
(lp2859
(lp2860
Vesp_log_early_timestamp
p2861
atp2862
a(L4159352654L
L3785322319L
(lp2863
(lp2864
Vbootloader_flash_read
p2865
atp2866
a(L2950861325L
L0L
(lp2867
(lp2868
tp2869
a(L2568992188L
L3785322319L
(lp2870
(lp2871
Vbootloader_sha256_start
p2872
atp2873
a(L4173212049L
L3785322319L
(lp2874
(lp2875
Vbootloader_sha256_data
p2876
atp2877
a(L2258837437L
L0L
(lp2878
(lp2879
tp2880
a(L846347405L
L3785322319L
(lp2881
(lp2882
Vverify_image_header
p2883
atp2884
a(L1980404654L
L0L
(lp2885
(lp2886
tp2887
a(L3028464L
L0L
(lp2888
(lp2889
tp2890
a(L106L
L0L
(lp2891
(lp2892
tp2893
a(L1318347320L
L3785322319L
(lp2894
(lp2895
Vesp_log_early_timestamp
p2896
atp2897
a(L2671916466L
L0L
(lp2898
(lp2899
tp2900
a(L1898485626L
L3785322319L
(lp2901
(lp2902
Vprocess_segment
p2903
atp2904
a(L3878353414L
L0L
(lp2905
(lp2906
tp2907
a(L2125973223L
L0L
(lp2908
(lp2909
tp2910
a(L499151239L
L0L
(lp2911
(lp2912
tp2913
a(L3028464L
L0L
(lp2914
(lp2915
tp2916
a(L106L
L0L
(lp2917
(lp2918
tp2919
a(L957905035L
L3785322319L
(lp2920
(lp2921
Vesp_log_early_timestamp
p2922
atp2923
a(L4041426534L
L3785322319L
(lp2924
(lp2925
Vesp_cpu_in_ocd_debug_mode
p2926
atp2927
a(L1482013975L
L3785322319L
(lp2928
(lp2929
Vverify_checksum
p2930
atp2931
a(L279608302L
L0L
(lp2932
(lp2933
tp2934
a(L3028464L
L0L
(lp2935
(lp2936
tp2937
a(L106L
L0L
(lp2938
(lp2939
tp2940
a(L607123934L
L3785322319L
(lp2941
(lp2942
Vesp_log_early_timestamp
p2943
atp2944
a(L2078070517L
L0L
(lp2945
(lp2946
tp2947
a(L3020204L
L0L
(lp2948
(lp2949
tp2950
a(L3287840219L
L3785322319L
(lp2951
(lp2952
Vesp_cpu_in_ocd_debug_mode
p2953
atp2954
a(L3045806043L
L3785322319L
(lp2955
(lp2956
Vverify_simple_hash
p2957
atp2958
a(L3020204L
L0L
(lp2959
(lp2960
tp2961
a(L3688659868L
L3785322319L
(lp2962
(lp2963
Vbootloader_sha256_finish
p2964
atp2965
a(L3230798602L
L0L
(lp2966
(lp2967
tp2968
a(L84393073L
L3785322319L
(lp2969
(lp2970
Vbootloader_mmap
p2971
atp2972
a(L4020522979L
L3785322319L
(lp2973
(lp2974
Vbootloader_munmap
p2975
atp2976
a(L3028481L
L0L
(lp2977
(lp2978
tp2979
a(L3020187L
L0L
(lp2980
(lp2981
tp2982
a(L106L
L0L
(lp2983
(lp2984
tp2985
a(L1062407658L
L0L
(lp2986
(lp2987
tp2988
a(L1066110019L
L0L
(lp2989
(lp2990
tp2991
a(L3360570486L
L0L
(lp2992
(lp2993
tp2994
a(L2814963175L
L3785322319L
(lp2995
(lp2996
Vshould_load
p2997
atp2998
a(L1299866312L
L0L
(lp2999
(lp3000
tp3001
a(L1712671152L
L0L
(lp3002
(lp3003
tp3004
a(L859692926L
L0L
(lp3005
(lp3006
tp3007
a(L1690300016L
L0L
(lp3008
(lp3009
tp3010
a(L1253273515L
L0L
(lp3011
(lp3012
tp3013
a(L1191274096L
L0L
(lp3014
(lp3015
tp3016
a(L1720234353L
L0L
(lp3017
(lp3018
tp3019
a(L2258777855L
L0L
(lp3020
(lp3021
tp3022
a(L85798113L
L0L
(lp3023
(lp3024
tp3025
a(L2993202392L
L0L
(lp3026
(lp3027
tp3028
a(L3151898214L
L0L
(lp3029
(lp3030
tp3031
a(L1304483917L
L0L
(lp3032
(lp3033
tp3034
a(L1755718488L
L0L
(lp3035
(lp3036
tp3037
a(L2258837437L
L0L
(lp3038
(lp3039
tp3040
a(L2910371777L
L0L
(lp3041
(lp3042
tp3043
a(L2104868779L
L0L
(lp3044
(lp3045
tp3046
a(L3020204L
L0L
(lp3047
(lp3048
tp3049
a(L3688659868L
L3785322319L
(lp3050
(lp3051
Vbootloader_sha256_finish
p3052
atp3053
a(L2132349133L
L0L
(lp3054
(lp3055
tp3056
a(L2079009947L
L0L
(lp3057
(lp3058
tp3059
a(L1191506266L
L0L
(lp3060
(lp3061
tp3062
a(L2993202392L
L0L
(lp3063
(lp3064
tp3065
a(L2993202392L
L0L
(lp3066
(lp3067
tp3068
atp3069
sI1074240920
(Vbootloader_sha256_finish
p3070
(lp3071
(L4066096136L
L0L
(lp3072
(lp3073
tp3074
a(L3729330241L
L3785322319L
(lp3075
(lp3076
V__assert_func
p3077
atp3078
a(L3020204L
L0L
(lp3079
(lp3080
tp3081
a(L519274930L
L0L
(lp3082
(lp3083
tp3084
a(L2534656226L
L0L
(lp3085
(lp3086
tp3087
a(L321015369L
L0L
(lp3088
(lp3089
tp3090
a(L1247269213L
L3785322319L
(lp3091
(lp3092
V__assert_func
p3093
atp3094
a(L2175790476L
L3785322319L
(lp3095
(lp3096
Vbootloader_sha256_data
p3097
atp3098
a(L136725150L
L3785322319L
(lp3099
(lp3100
V__assert_func
p3101
atp3102
a(L3232900178L
L1880226080L
(lp3103
(lp3104
V__bswapsi2
p3105
aVbootloader_sha256_data
p3106
atp3107
a(L554347023L
L3785322319L
(lp3108
(lp3109
V__assert_func
p3110
atp3111
a(L2130116199L
L0L
(lp3112
(lp3113
tp3114
a(L696856334L
L0L
(lp3115
(lp3116
tp3117
a(L2130116199L
L0L
(lp3118
(lp3119
tp3120
a(L1299866312L
L0L
(lp3121
(lp3122
tp3123
a(L3235326776L
L3785322319L
(lp3124
(lp3125
V__bswapsi2
p3126
atp3127
a(L93837694L
L0L
(lp3128
(lp3129
tp3130
a(L3347778L
L0L
(lp3131
(lp3132
tp3133
a(L3360570486L
L0L
(lp3134
(lp3135
tp3136
atp3137
sI1074235288
(Vbootloader_flash_gpio_config
p3138
(lp3139
(L1541720566L
L0L
(lp3140
(lp3141
tp3142
a(L1299866374L
L0L
(lp3143
(lp3144
tp3145
a(L2258688485L
L0L
(lp3146
(lp3147
tp3148
a(L2999495356L
L0L
(lp3149
(lp3150
tp3151
a(L175178334L
L0L
(lp3152
(lp3153
tp3154
a(L3955219521L
L0L
(lp3155
(lp3156
tp3157
a(L2136722540L
L0L
(lp3158
(lp3159
tp3160
a(L177068915L
L0L
(lp3161
(lp3162
tp3163
a(L3111470142L
L0L
(lp3164
(lp3165
tp3166
a(L3360570486L
L0L
(lp3167
(lp3168
tp3169
atp3170
sI1074268584
(Vuart_console_configure
p3171
(lp3172
(L854943876L
L0L
(lp3173
(lp3174
tp3175
a(L4147761415L
L0L
(lp3176
(lp3177
tp3178
a(L1432228188L
L3785322319L
(lp3179
(lp3180
Vrtc_clk_apb_freq_get
p3181
atp3182
atp3183
sI1074271656
(Vrtc_clk_cpu_freq_mhz_to_config
p3184
(lp3185
(L2601984125L
L3785322319L
(lp3186
(lp3187
Vrtc_clk_xtal_freq_get
p3188
atp3189
a(L608772507L
L0L
(lp3190
(lp3191
tp3192
a(L3263839434L
L0L
(lp3193
(lp3194
tp3195
a(L2762074623L
L0L
(lp3196
(lp3197
tp3198
a(L1541996779L
L0L
(lp3199
(lp3200
tp3201
a(L1546614651L
L0L
(lp3202
(lp3203
tp3204
a(L1555485793L
L0L
(lp3205
(lp3206
tp3207
a(L1695987314L
L0L
(lp3208
(lp3209
tp3210
a(L3652406074L
L0L
(lp3211
(lp3212
tp3213
a(L260454862L
L0L
(lp3214
(lp3215
tp3216
a(L2993202392L
L0L
(lp3217
(lp3218
tp3219
a(L2993202392L
L0L
(lp3220
(lp3221
tp3222
atp3223
sI1074244772
(Vesp_rom_spiflash_erase_sector_internal
p3224
(lp3225
(L1530704874L
L0L
(lp3226
(lp3227
tp3228
a(L1570715029L
L3785322319L
(lp3229
(lp3230
Vesp_rom_spiflash_wait_idle
p3231
atp3232
a(L2728820875L
L0L
(lp3233
(lp3234
tp3235
a(L1387965403L
L3785322319L
(lp3236
(lp3237
Vesp_rom_spiflash_wait_idle
p3238
atp3239
a(L3880706073L
L0L
(lp3240
(lp3241
tp3242
atp3243
sI1074246820
(Vrtc_wdt_get_protect_status
p3244
(lp3245
(L833493923L
L0L
(lp3246
(lp3247
tp3248
atp3249
sI1074236832
(Vbootloader_common_get_chip_revision
p3250
(lp3251
(L198853448L
L0L
(lp3252
(lp3253
tp3254
a(L3020187L
L0L
(lp3255
(lp3256
tp3257
a(L3020187L
L0L
(lp3258
(lp3259
tp3260
a(L2993202392L
L0L
(lp3261
(lp3262
tp3263
a(L473242458L
L0L
(lp3264
(lp3265
tp3266
a(L1360746139L
L0L
(lp3267
(lp3268
tp3269
a(L3880706073L
L0L
(lp3270
(lp3271
tp3272
atp3273
sI1074238112
(Vbootloader_random_enable
p3274
(lp3275
(L892023223L
L0L
(lp3276
(lp3277
tp3278
atp3279
sI1074268064
(Vwdt_reset_cpu0_info_enable
p3280
(lp3281
(L3662099294L
L0L
(lp3282
(lp3283
tp3284
atp3285
sI1074237096
(Vbootloader_common_select_otadata
p3286
(lp3287
(L44027793L
L0L
(lp3288
(lp3289
tp3290
a(L1238320367L
L0L
(lp3291
(lp3292
tp3293
a(L1238350425L
L0L
(lp3294
(lp3295
tp3296
a(L3063569071L
L0L
(lp3297
(lp3298
tp3299
a(L1299866312L
L0L
(lp3300
(lp3301
tp3302
a(L2902417580L
L0L
(lp3303
(lp3304
tp3305
a(L1264419299L
L0L
(lp3306
(lp3307
tp3308
a(L1542955705L
L0L
(lp3309
(lp3310
tp3311
a(L3969214161L
L0L
(lp3312
(lp3313
tp3314
a(L2993202392L
L0L
(lp3315
(lp3316
tp3317
a(L1098457408L
L0L
(lp3318
(lp3319
tp3320
a(L1770629919L
L0L
(lp3321
(lp3322
tp3323
a(L3027007L
L0L
(lp3324
(lp3325
tp3326
a(L515633988L
L0L
(lp3327
(lp3328
tp3329
a(L515633988L
L0L
(lp3330
(lp3331
tp3332
a(L2258688483L
L0L
(lp3333
(lp3334
tp3335
a(L3360570486L
L0L
(lp3336
(lp3337
tp3338
atp3339
sI1074271928
(Vrtc_clk_xtal_freq_update
p3340
(lp3341
(L805410738L
L0L
(lp3342
(lp3343
tp3344
a(L3509357017L
L0L
(lp3345
(lp3346
tp3347
a(L3854287382L
L0L
(lp3348
(lp3349
tp3350
atp3351
sI1074273464
(Vrtc_clk_cal_internal
p3352
(lp3353
(L4245629748L
L0L
(lp3354
(lp3355
tp3356
a(L2578626228L
L3785322319L
(lp3357
(lp3358
V__assert_func
p3359
atp3360
a(L3926008757L
L0L
(lp3361
(lp3362
tp3363
a(L498115733L
L0L
(lp3364
(lp3365
tp3366
a(L3028464L
L0L
(lp3367
(lp3368
tp3369
a(L3090952308L
L0L
(lp3370
(lp3371
tp3372
a(L1223712820L
L0L
(lp3373
(lp3374
tp3375
a(L3778615171L
L0L
(lp3376
(lp3377
tp3378
a(L97422L
L0L
(lp3379
(lp3380
tp3381
a(L571614780L
L0L
(lp3382
(lp3383
tp3384
a(L3900101950L
L0L
(lp3385
(lp3386
tp3387
a(L3900100617L
L0L
(lp3388
(lp3389
tp3390
a(L3900100617L
L0L
(lp3391
(lp3392
tp3393
a(L3900101950L
L0L
(lp3394
(lp3395
tp3396
a(L3450945661L
L0L
(lp3397
(lp3398
tp3399
a(L242442812L
L1880226080L
(lp3400
(lp3401
V__udivdi3
p3402
aVrtc_clk_xtal_freq_get
p3403
atp3404
a(L1610443417L
L0L
(lp3405
(lp3406
tp3407
a(L3815060311L
L0L
(lp3408
(lp3409
tp3410
a(L3597763492L
L3785322319L
(lp3411
(lp3412
Vesp_log_early_timestamp
p3413
atp3414
a(L1158704662L
L0L
(lp3415
(lp3416
tp3417
a(L3662495388L
L0L
(lp3418
(lp3419
tp3420
a(L4033200854L
L0L
(lp3421
(lp3422
tp3423
a(L3021737L
L0L
(lp3424
(lp3425
tp3426
a(L2387854206L
L0L
(lp3427
(lp3428
tp3429
a(L1471169863L
L0L
(lp3430
(lp3431
tp3432
a(L2902417580L
L0L
(lp3433
(lp3434
tp3435
a(L1945004311L
L0L
(lp3436
(lp3437
tp3438
a(L2993202392L
L0L
(lp3439
(lp3440
tp3441
atp3442
sI1074238900
(Vlog_invalid_app_partition
p3443
(lp3444
(L3991230301L
L0L
(lp3445
(lp3446
tp3447
a(L3028464L
L0L
(lp3448
(lp3449
tp3450
a(L2200570362L
L3785322319L
(lp3451
(lp3452
Vesp_log_early_timestamp
p3453
atp3454
a(L1792603454L
L3785322319L
(lp3455
(lp3456
Vesp_log_early_timestamp
p3457
atp3458
a(L3866681960L
L3785322319L
(lp3459
(lp3460
Vesp_log_early_timestamp
p3461
atp3462
atp3463
sI1074237620
(Vbootloader_munmap
p3464
(lp3465
(L3257303249L
L0L
(lp3466
(lp3467
tp3468
a(L4275226750L
L0L
(lp3469
(lp3470
tp3471
a(L3360570486L
L0L
(lp3472
(lp3473
tp3474
atp3475
sI1074271164
(Vrtc_clk_fast_freq_get
p3476
(lp3477
(L1199635404L
L0L
(lp3478
(lp3479
tp3480
atp3481
sI1074268336
(Vprint_flash_info
p3482
(lp3483
(L2664752807L
L0L
(lp3484
(lp3485
tp3486
a(L2902417580L
L0L
(lp3487
(lp3488
tp3489
a(L3020187L
L0L
(lp3490
(lp3491
tp3492
a(L225150647L
L0L
(lp3493
(lp3494
tp3495
a(L106L
L0L
(lp3496
(lp3497
tp3498
a(L460429684L
L0L
(lp3499
(lp3500
tp3501
a(L460431017L
L0L
(lp3502
(lp3503
tp3504
a(L460430397L
L0L
(lp3505
(lp3506
tp3507
a(L460431017L
L0L
(lp3508
(lp3509
tp3510
a(L3201441202L
L0L
(lp3511
(lp3512
tp3513
a(L866427733L
L3785322319L
(lp3514
(lp3515
Vesp_log_early_timestamp
p3516
atp3517
a(L3017366L
L0L
(lp3518
(lp3519
tp3520
a(L3017366L
L0L
(lp3521
(lp3522
tp3523
a(L3017366L
L0L
(lp3524
(lp3525
tp3526
a(L3016870L
L0L
(lp3527
(lp3528
tp3529
a(L460431358L
L0L
(lp3530
(lp3531
tp3532
a(L460430645L
L0L
(lp3533
(lp3534
tp3535
a(L460430521L
L0L
(lp3536
(lp3537
tp3538
a(L460431606L
L0L
(lp3539
(lp3540
tp3541
a(L460431482L
L0L
(lp3542
(lp3543
tp3544
a(L3201441280L
L0L
(lp3545
(lp3546
tp3547
a(L3048602044L
L3785322319L
(lp3548
(lp3549
Vesp_log_early_timestamp
p3550
atp3551
a(L93674324L
L0L
(lp3552
(lp3553
tp3554
a(L3020204L
L0L
(lp3555
(lp3556
tp3557
a(L106L
L0L
(lp3558
(lp3559
tp3560
a(L3020187L
L0L
(lp3561
(lp3562
tp3563
a(L3020187L
L0L
(lp3564
(lp3565
tp3566
a(L106L
L0L
(lp3567
(lp3568
tp3569
a(L331387079L
L0L
(lp3570
(lp3571
tp3572
a(L331387203L
L0L
(lp3573
(lp3574
tp3575
a(L331388660L
L0L
(lp3576
(lp3577
tp3578
a(L331387327L
L0L
(lp3579
(lp3580
tp3581
a(L703425374L
L0L
(lp3582
(lp3583
tp3584
a(L942644739L
L3785322319L
(lp3585
(lp3586
Vesp_log_early_timestamp
p3587
atp3588
atp3589
sI1074269616
(Vread_status_8b_rdsr2
p3590
(lp3591
(L1222983462L
L3785322319L
(lp3592
(lp3593
Vexecute_flash_command
p3594
atp3595
atp3596
sI1074268104
(Vwdt_reset_info_dump
p3597
(lp3598
(L1642351636L
L0L
(lp3599
(lp3600
tp3601
a(L460423918L
L0L
(lp3602
(lp3603
tp3604
a(L3201441063L
L0L
(lp3605
(lp3606
tp3607
a(L3028481L
L0L
(lp3608
(lp3609
tp3610
a(L3486670486L
L0L
(lp3611
(lp3612
tp3613
a(L3274622494L
L0L
(lp3614
(lp3615
tp3616
a(L1413004396L
L0L
(lp3617
(lp3618
tp3619
a(L1550379252L
L0L
(lp3620
(lp3621
tp3622
a(L4004427021L
L3785322319L
(lp3623
(lp3624
Vesp_log_early_timestamp
p3625
atp3626
a(L1148072953L
L3785322319L
(lp3627
(lp3628
Vesp_log_early_timestamp
p3629
atp3630
atp3631
sI1074269640
(Vwrite_status_16b_wrsr
p3632
(lp3633
(L1235576642L
L3785322319L
(lp3634
(lp3635
Vexecute_flash_command
p3636
atp3637
atp3638
sI1074270412
(Vrtc_clk_32k_enable_common
p3639
(lp3640
(L114348641L
L0L
(lp3641
(lp3642
tp3643
atp3644
sI1074271180
(Vrtc_clk_bbpll_configure
p3645
(lp3646
(L4270275352L
L0L
(lp3647
(lp3648
tp3649
a(L106L
L0L
(lp3650
(lp3651
tp3652
a(L1481254213L
L0L
(lp3653
(lp3654
tp3655
a(L83268344L
L0L
(lp3656
(lp3657
tp3658
a(L82345090L
L0L
(lp3659
(lp3660
tp3661
a(L106L
L0L
(lp3662
(lp3663
tp3664
a(L1874018433L
L0L
(lp3665
(lp3666
tp3667
a(L1968451090L
L0L
(lp3668
(lp3669
tp3670
a(L1534915856L
L0L
(lp3671
(lp3672
tp3673
a(L1310424409L
L0L
(lp3674
(lp3675
tp3676
a(L1905726156L
L0L
(lp3677
(lp3678
tp3679
a(L3808815317L
L0L
(lp3680
(lp3681
tp3682
a(L83268344L
L0L
(lp3683
(lp3684
tp3685
a(L82345090L
L0L
(lp3686
(lp3687
tp3688
a(L106L
L0L
(lp3689
(lp3690
tp3691
a(L294729621L
L0L
(lp3692
(lp3693
tp3694
a(L2738194110L
L0L
(lp3695
(lp3696
tp3697
a(L1534915856L
L0L
(lp3698
(lp3699
tp3700
a(L1335254829L
L0L
(lp3701
(lp3702
tp3703
a(L2015035404L
L0L
(lp3704
(lp3705
tp3706
a(L94461921L
L3785322319L
(lp3707
(lp3708
Vrtc_clk_slow_freq_get
p3709
atp3710
a(L2679108412L
L0L
(lp3711
(lp3712
tp3713
a(L2780081410L
L0L
(lp3714
(lp3715
tp3716
a(L3964614953L
L0L
(lp3717
(lp3718
tp3719
atp3720
sI1074239168
(Vset_actual_ota_seq
p3721
(lp3722
(L4094723830L
L0L
(lp3723
(lp3724
tp3725
a(L2837627603L
L0L
(lp3726
(lp3727
tp3728
a(L1545243494L
L3785322319L
(lp3729
(lp3730
Vbootloader_common_ota_select_crc
p3731
atp3732
a(L3016870L
L0L
(lp3733
(lp3734
tp3735
a(L1312346502L
L0L
(lp3736
(lp3737
tp3738
a(L1139269215L
L0L
(lp3739
(lp3740
tp3741
a(L3028481L
L0L
(lp3742
(lp3743
tp3744
a(L1485638071L
L1880226080L
(lp3745
(lp3746
Vwrite_otadata
p3747
aVesp_log_early_timestamp
p3748
atp3749
a(L3360570486L
L0L
(lp3750
(lp3751
tp3752
atp3753
sI1074246848
(Vrtc_wdt_protect_off
p3754
(lp3755
(L1494947509L
L0L
(lp3756
(lp3757
tp3758
atp3759
sI1074245068
(Vesp_rom_spiflash_enable_write
p3760
(lp3761
(L3768387109L
L3785322319L
(lp3762
(lp3763
Vesp_rom_spiflash_wait_idle
p3764
atp3765
a(L961844875L
L0L
(lp3766
(lp3767
tp3768
a(L106L
L0L
(lp3769
(lp3770
tp3771
a(L1337065440L
L3785322319L
(lp3772
(lp3773
Vesp_rom_spiflash_read_status
p3774
atp3775
a(L1253527241L
L0L
(lp3776
(lp3777
tp3778
a(L2993202392L
L0L
(lp3779
(lp3780
tp3781
atp3782
sI1074237384
(Vbootloader_flash_read_no_decrypt
p3783
(lp3784
(L1264233432L
L1880226080L
(lp3785
(lp3786
Vesp_rom_spiflash_read
p3787
aVspi_to_esp_err
p3788
atp3789
atp3790
sI1074245844
(Vesp_rom_spiflash_write
p3791
(lp3792
(L1347173268L
L0L
(lp3793
(lp3794
tp3795
a(L106L
L0L
(lp3796
(lp3797
tp3798
a(L567760543L
L0L
(lp3799
(lp3800
tp3801
a(L2728751700L
L3785322319L
(lp3802
(lp3803
Vesp_rom_spiflash_program_page_internal
p3804
atp3805
a(L3880706073L
L0L
(lp3806
(lp3807
tp3808
a(L2369541647L
L3785322319L
(lp3809
(lp3810
Vesp_rom_spiflash_program_page_internal
p3811
atp3812
a(L4167669618L
L0L
(lp3813
(lp3814
tp3815
a(L57925837L
L3785322319L
(lp3816
(lp3817
Vesp_rom_spiflash_program_page_internal
p3818
atp3819
a(L1130003055L
L0L
(lp3820
(lp3821
tp3822
a(L4159629294L
L0L
(lp3823
(lp3824
tp3825
a(L2070278126L
L3785322319L
(lp3826
(lp3827
Vesp_rom_spiflash_program_page_internal
p3828
atp3829
a(L3880706073L
L0L
(lp3830
(lp3831
tp3832
a(L3880706073L
L0L
(lp3833
(lp3834
tp3835
a(L3880706073L
L0L
(lp3836
(lp3837
tp3838
a(L2258688483L
L0L
(lp3839
(lp3840
tp3841
a(L3360570486L
L0L
(lp3842
(lp3843
tp3844
atp3845
sI1074269660
(Vread_status_16b_rdsr_rdsr2
p3846
(lp3847
(L2236397809L
L1880226080L
(lp3848
(lp3849
Vexecute_flash_command
p3850
aVexecute_flash_command
p3851
atp3852
atp3853
sI1074245584
(Vesp_rom_spiflash_config_readmode
p3854
(lp3855
(L3493042536L
L0L
(lp3856
(lp3857
tp3858
a(L141738533L
L0L
(lp3859
(lp3860
tp3861
a(L1436764368L
L0L
(lp3862
(lp3863
tp3864
a(L1949612764L
L0L
(lp3865
(lp3866
tp3867
a(L2099101309L
L0L
(lp3868
(lp3869
tp3870
a(L1610443405L
L0L
(lp3871
(lp3872
tp3873
a(L1081542156L
L3785322319L
(lp3874
(lp3875
Vspi_cache_mode_switch
p3876
atp3877
atp3878
sI1074246864
(Vrtc_wdt_protect_on
p3879
(lp3880
(L1086357179L
L0L
(lp3881
(lp3882
tp3883
atp3884
sI1074234588
(Vbootloader_init_flash_configure
p3885
(lp3886
(L2326466312L
L1832448559L
(lp3887
(lp3888
Vbootloader_flash_gpio_config
p3889
aVbootloader_flash_dummy_config
p3890
aVbootloader_flash_cs_timing_config
p3891
atp3892
atp3893
sI1074270932
(Vrtc_clk_8m_enabled
p3894
(lp3895
(L672899293L
L0L
(lp3896
(lp3897
tp3898
atp3899
sI1074240728
(Vcheck_anti_rollback
p3900
(lp3901
(L786711473L
L0L
(lp3902
(lp3903
tp3904
atp3905
sI1074242264
(Vprocess_segment_data
p3906
(lp3907
(L3236683529L
L3785322319L
(lp3908
(lp3909
Vbootloader_mmap
p3910
atp3911
a(L1497583147L
L3785322319L
(lp3912
(lp3913
Vesp_log_early_timestamp
p3914
atp3915
a(L3139609965L
L3785322319L
(lp3916
(lp3917
Vbootloader_fill_random
p3918
atp3919
a(L1062407658L
L0L
(lp3920
(lp3921
tp3922
a(L1066101742L
L0L
(lp3923
(lp3924
tp3925
a(L1299866312L
L0L
(lp3926
(lp3927
tp3928
a(L2008416411L
L0L
(lp3929
(lp3930
tp3931
a(L127299853L
L0L
(lp3932
(lp3933
tp3934
a(L859692926L
L0L
(lp3935
(lp3936
tp3937
a(L1690300016L
L0L
(lp3938
(lp3939
tp3940
a(L4117779536L
L0L
(lp3941
(lp3942
tp3943
a(L2902417580L
L0L
(lp3944
(lp3945
tp3946
a(L2505185480L
L0L
(lp3947
(lp3948
tp3949
a(L3094078540L
L3785322319L
(lp3950
(lp3951
Vbootloader_sha256_data
p3952
atp3953
a(L1770629922L
L0L
(lp3954
(lp3955
tp3956
a(L3896226538L
L0L
(lp3957
(lp3958
tp3959
a(L1564127900L
L3785322319L
(lp3960
(lp3961
Vbootloader_munmap
p3962
atp3963
atp3964
sI1074272488
(Vrtc_clk_xtal_freq_estimate
p3965
(lp3966
(L2516060585L
L1880226080L
(lp3967
(lp3968
Vrtc_clk_8m_enabled
p3969
aVrtc_clk_8md256_enabled
p3970
atp3971
a(L967485502L
L3785322319L
(lp3972
(lp3973
Vrtc_clk_8m_enable
p3974
atp3975
a(L2914669960L
L1880226080L
(lp3976
(lp3977
Vrtc_clk_cal_ratio
p3978
aV__udivdi3
p3979
atp3980
a(L1784426664L
L0L
(lp3981
(lp3982
tp3983
a(L3477743749L
L3785322319L
(lp3984
(lp3985
Vesp_log_early_timestamp
p3986
atp3987
atp3988
sI1074268908
(Vbootloader_main
p3989
(lp3990
(L4107727418L
L1832448559L
(lp3991
(lp3992
Vbootloader_common_vddsdio_configure
p3993
aVbootloader_read_flash_id
p3994
aVbootloader_flash_read
p3995
atp3996
a(L761908273L
L3785322319L
(lp3997
(lp3998
Vesp_log_early_timestamp
p3999
atp4000
a(L1778391864L
L1832448559L
(lp4001
(lp4002
Vbootloader_common_get_chip_revision
p4003
aVesp_log_early_timestamp
p4004
aVbootloader_common_check_chip_validity
p4005
atp4006
a(L918908878L
L3785322319L
(lp4007
(lp4008
Vbootloader_init_flash_configure
p4009
atp4010
a(L2313341324L
L0L
(lp4011
(lp4012
tp4013
a(L827481444L
L3785322319L
(lp4014
(lp4015
Vesp_log_early_timestamp
p4016
atp4017
a(L2164359610L
L2794580271L
(lp4018
(lp4019
Vbootloader_clock_configure
p4020
aVuart_console_configure
p4021
aVwdt_reset_check
p4022
aVesp_log_early_timestamp
p4023
aVesp_log_early_timestamp
p4024
aVrtc_wdt_protect_off
p4025
aVrtc_wdt_disable
p4026
aVrtc_wdt_set_length_of_reset_signal
p4027
aVrtc_wdt_set_length_of_reset_signal
p4028
aVrtc_wdt_set_stage
p4029
aVrtc_wdt_set_time
p4030
aVrtc_wdt_enable
p4031
aVrtc_wdt_protect_on
p4032
aVesp_rom_spiflash_unlock
p4033
aVesp_log_early_timestamp
p4034
aVbootloader_random_enable
p4035
aVbootloader_enable_qio_mode
p4036
aVprint_flash_info
p4037
aVupdate_flash_config
p4038
atp4039
a(L515633988L
L0L
(lp4040
(lp4041
tp4042
atp4043
sI1074240736
(Vbootloader_sha256_start
p4044
(lp4045
(L3645199537L
L0L
(lp4046
(lp4047
tp4048
atp4049
sI1074246880
(Vrtc_wdt_enable
p4050
(lp4051
(L2047985082L
L0L
(lp4052
(lp4053
tp4054
atp4055
sI1074268640
(Vwdt_reset_check
p4056
(lp4057
(L1022302856L
L0L
(lp4058
(lp4059
tp4060
a(L3020187L
L0L
(lp4061
(lp4062
tp4063
a(L367582592L
L0L
(lp4064
(lp4065
tp4066
a(L367642441L
L0L
(lp4067
(lp4068
tp4069
a(L2005476781L
L3785322319L
(lp4070
(lp4071
Vesp_log_early_timestamp
p4072
atp4073
a(L1298905564L
L0L
(lp4074
(lp4075
tp4076
a(L1465910262L
L0L
(lp4077
(lp4078
tp4079
a(L3020187L
L0L
(lp4080
(lp4081
tp4082
a(L225031483L
L0L
(lp4083
(lp4084
tp4085
a(L225091332L
L0L
(lp4086
(lp4087
tp4088
a(L2354305992L
L3785322319L
(lp4089
(lp4090
Vesp_log_early_timestamp
p4091
atp4092
a(L3020204L
L0L
(lp4093
(lp4094
tp4095
a(L1944713791L
L1880226080L
(lp4096
(lp4097
Vwdt_reset_info_dump
p4098
aVwdt_reset_info_dump
p4099
atp4100
a(L3738038928L
L3785322319L
(lp4101
(lp4102
Vwdt_reset_cpu0_info_enable
p4103
atp4104
atp4105
sI1074237676
(Vbootloader_flash_read
p4106
(lp4107
(L1127605422L
L0L
(lp4108
(lp4109
tp4110
a(L1829235751L
L3785322319L
(lp4111
(lp4112
Vesp_log_early_timestamp
p4113
atp4114
a(L899934477L
L0L
(lp4115
(lp4116
tp4117
a(L8604881L
L3785322319L
(lp4118
(lp4119
Vesp_log_early_timestamp
p4120
atp4121
a(L2696885836L
L0L
(lp4122
(lp4123
tp4124
a(L3942947446L
L3785322319L
(lp4125
(lp4126
Vesp_log_early_timestamp
p4127
atp4128
a(L3020204L
L0L
(lp4129
(lp4130
tp4131
a(L3807724270L
L3785322319L
(lp4132
(lp4133
Vbootloader_flash_read_allow_decrypt
p4134
atp4135
a(L1959236078L
L3785322319L
(lp4136
(lp4137
Vbootloader_flash_read_no_decrypt
p4138
atp4139
atp4140
sI1074271972
(Vrtc_clk_apb_freq_update
p4141
(lp4142
(L310322362L
L0L
(lp4143
(lp4144
tp4145
atp4146
sI1074244840
(Vesp_rom_spiflash_read_data
p4147
(lp4148
(L4122033220L
L0L
(lp4149
(lp4150
tp4151
a(L106L
L0L
(lp4152
(lp4153
tp4154
a(L2070875117L
L3785322319L
(lp4155
(lp4156
Vesp_rom_spiflash_wait_idle
p4157
atp4158
a(L2761836345L
L0L
(lp4159
(lp4160
tp4161
a(L644162573L
L0L
(lp4162
(lp4163
tp4164
a(L961844875L
L0L
(lp4165
(lp4166
tp4167
a(L106L
L0L
(lp4168
(lp4169
tp4170
a(L3813026372L
L0L
(lp4171
(lp4172
tp4173
a(L256664550L
L0L
(lp4174
(lp4175
tp4176
a(L663200857L
L0L
(lp4177
(lp4178
tp4179
a(L2560946445L
L0L
(lp4180
(lp4181
tp4182
a(L961844875L
L0L
(lp4183
(lp4184
tp4185
a(L1263158627L
L0L
(lp4186
(lp4187
tp4188
a(L131455463L
L0L
(lp4189
(lp4190
tp4191
a(L4208385735L
L0L
(lp4192
(lp4193
tp4194
a(L1305407438L
L0L
(lp4195
(lp4196
tp4197
a(L3813026372L
L0L
(lp4198
(lp4199
tp4200
a(L3027019L
L0L
(lp4201
(lp4202
tp4203
a(L2258777855L
L0L
(lp4204
(lp4205
tp4206
a(L3027007L
L0L
(lp4207
(lp4208
tp4209
a(L106L
L0L
(lp4210
(lp4211
tp4212
a(L2993202392L
L0L
(lp4213
(lp4214
tp4215
a(L3880706073L
L0L
(lp4216
(lp4217
tp4218
atp4219
sI1074241256
(Vshould_map
p4220
(lp4221
(L366535184L
L0L
(lp4222
(lp4223
tp4224
a(L1182990556L
L0L
(lp4225
(lp4226
tp4227
a(L1721317317L
L0L
(lp4228
(lp4229
tp4230
a(L1182990556L
L0L
(lp4231
(lp4232
tp4233
a(L1387712984L
L0L
(lp4234
(lp4235
tp4236
atp4237
sI1074235112
(Vexecute_flash_command
p4238
(lp4239
(L2909450247L
L3785322319L
(lp4240
(lp4241
Vbootloader_flash_execute_command_common
p4242
atp4243
atp4244
sI1074270200
(Vbootloader_clock_configure
p4245
(lp4246
(L3493042567L
L0L
(lp4247
(lp4248
tp4249
a(L4147761415L
L0L
(lp4250
(lp4251
tp4252
a(L4289274061L
L0L
(lp4253
(lp4254
tp4255
a(L3834872664L
L0L
(lp4256
(lp4257
tp4258
a(L1812928027L
L0L
(lp4259
(lp4260
tp4261
a(L1812928027L
L0L
(lp4262
(lp4263
tp4264
a(L2312970590L
L0L
(lp4265
(lp4266
tp4267
a(L2220404322L
L1832448559L
(lp4268
(lp4269
Vrtc_clk_slow_freq_get
p4270
aVrtc_clk_fast_freq_get
p4271
aVrtc_clk_init
p4272
atp4273
atp4274
sI1074270712
(Vrtc_clk_32k_enable
p4275
(lp4276
(L753387299L
L0L
(lp4277
(lp4278
tp4279
a(L1120965557L
L3785322319L
(lp4280
(lp4281
Vrtc_clk_32k_enable_common
p4282
atp4283
a(L1535792349L
L0L
(lp4284
(lp4285
tp4286
atp4287
sI1074240756
(Vbootloader_sha256_data
p4288
(lp4289
(L4037466985L
L0L
(lp4290
(lp4291
tp4292
a(L977687295L
L3785322319L
(lp4293
(lp4294
V__assert_func
p4295
atp4296
a(L2660352519L
L0L
(lp4297
(lp4298
tp4299
a(L1772659931L
L3785322319L
(lp4300
(lp4301
V__assert_func
p4302
atp4303
a(L66409669L
L0L
(lp4304
(lp4305
tp4306
a(L2746210212L
L0L
(lp4307
(lp4308
tp4309
a(L2130124493L
L0L
(lp4310
(lp4311
tp4312
a(L106L
L0L
(lp4313
(lp4314
tp4315
a(L3598343587L
L3785322319L
(lp4316
(lp4317
V__bswapsi2
p4318
atp4319
a(L3027019L
L0L
(lp4320
(lp4321
tp4322
a(L505666103L
L0L
(lp4323
(lp4324
tp4325
a(L3028464L
L0L
(lp4326
(lp4327
tp4328
a(L3287773641L
L0L
(lp4329
(lp4330
tp4331
a(L927972437L
L0L
(lp4332
(lp4333
tp4334
a(L3028481L
L0L
(lp4335
(lp4336
tp4337
a(L3360570486L
L0L
(lp4338
(lp4339
tp4340
atp4341
sI1074245364
(Vesp_rom_spiflash_read_statushigh
p4342
(lp4343
(L1839917085L
L3785322319L
(lp4344
(lp4345
Vesp_rom_spiflash_wait_idle
p4346
atp4347
atp4348
sI1074239728
(Vload_image
p4349
(lp4350
(L2527918292L
L1832448559L
(lp4351
(lp4352
Vesp_log_early_timestamp
p4353
aVbootloader_random_disable
p4354
aVunpack_load_app
p4355
atp4356
atp4357
sI1074234608
(Vbootloader_flash_execute_command_common
p4358
(lp4359
(L1261224870L
L0L
(lp4360
(lp4361
tp4362
a(L2340697286L
L0L
(lp4363
(lp4364
tp4365
a(L2258748064L
L0L
(lp4366
(lp4367
tp4368
a(L3261841556L
L0L
(lp4369
(lp4370
tp4371
a(L3250406954L
L0L
(lp4372
(lp4373
tp4374
a(L3020684366L
L0L
(lp4375
(lp4376
tp4377
a(L929566513L
L0L
(lp4378
(lp4379
tp4380
a(L3745123390L
L0L
(lp4381
(lp4382
tp4383
a(L2258807646L
L0L
(lp4384
(lp4385
tp4386
a(L2021375256L
L0L
(lp4387
(lp4388
tp4389
a(L1917690936L
L0L
(lp4390
(lp4391
tp4392
a(L2258718273L
L0L
(lp4393
(lp4394
tp4395
a(L3530970620L
L0L
(lp4396
(lp4397
tp4398
a(L4280063587L
L0L
(lp4399
(lp4400
tp4401
a(L1755094872L
L0L
(lp4402
(lp4403
tp4404
a(L1294320558L
L0L
(lp4405
(lp4406
tp4407
a(L3360570486L
L0L
(lp4408
(lp4409
tp4410
atp4411
sI1074270960
(Vrtc_clk_8md256_enabled
p4412
(lp4413
(L1493543521L
L0L
(lp4414
(lp4415
tp4416
atp4417
sI1074237436
(Vbootloader_mmap
p4418
(lp4419
(L525934365L
L0L
(lp4420
(lp4421
tp4422
a(L2463945795L
L3785322319L
(lp4423
(lp4424
Vesp_log_early_timestamp
p4425
atp4426
a(L73337638L
L0L
(lp4427
(lp4428
tp4429
a(L2060339797L
L3785322319L
(lp4430
(lp4431
Vesp_log_early_timestamp
p4432
atp4433
a(L3650112675L
L0L
(lp4434
(lp4435
tp4436
a(L3253120847L
L3785322319L
(lp4437
(lp4438
Vesp_log_early_timestamp
p4439
atp4440
a(L3200663919L
L0L
(lp4441
(lp4442
tp4443
atp4444
sI1074236920
(Vbootloader_common_check_chip_validity
p4445
(lp4446
(L2834967127L
L0L
(lp4447
(lp4448
tp4449
a(L3095624910L
L3785322319L
(lp4450
(lp4451
Vesp_log_early_timestamp
p4452
atp4453
a(L1182901183L
L0L
(lp4454
(lp4455
tp4456
a(L2344894839L
L3785322319L
(lp4457
(lp4458
Vbootloader_common_get_chip_revision
p4459
atp4460
a(L1421058101L
L3785322319L
(lp4461
(lp4462
Vesp_log_early_timestamp
p4463
atp4464
a(L97422L
L0L
(lp4465
(lp4466
tp4467
a(L3287840219L
L3785322319L
(lp4468
(lp4469
Vesp_log_early_timestamp
p4470
atp4471
a(L4136896670L
L0L
(lp4472
(lp4473
tp4474
a(L4151320888L
L0L
(lp4475
(lp4476
tp4477
a(L821517195L
L0L
(lp4478
(lp4479
tp4480
a(L464010095L
L0L
(lp4481
(lp4482
tp4483
atp4484
sI1074246136
(Vesp_rom_spiflash_read
p4485
(lp4486
(L1097485922L
L0L
(lp4487
(lp4488
tp4489
a(L731911010L
L0L
(lp4490
(lp4491
tp4492
a(L3017366L
L0L
(lp4493
(lp4494
tp4495
a(L106L
L0L
(lp4496
(lp4497
tp4498
a(L1195320654L
L0L
(lp4499
(lp4500
tp4501
a(L106L
L0L
(lp4502
(lp4503
tp4504
a(L3668347057L
L0L
(lp4505
(lp4506
tp4507
a(L2316993426L
L0L
(lp4508
(lp4509
tp4510
a(L4065386472L
L0L
(lp4511
(lp4512
tp4513
a(L3016870L
L0L
(lp4514
(lp4515
tp4516
a(L3067453572L
L0L
(lp4517
(lp4518
tp4519
a(L3016870L
L0L
(lp4520
(lp4521
tp4522
a(L1379442568L
L0L
(lp4523
(lp4524
tp4525
a(L2068256158L
L0L
(lp4526
(lp4527
tp4528
a(L1405350206L
L0L
(lp4529
(lp4530
tp4531
a(L2102685007L
L0L
(lp4532
(lp4533
tp4534
a(L4118914098L
L0L
(lp4535
(lp4536
tp4537
a(L3805583626L
L0L
(lp4538
(lp4539
tp4540
a(L914906123L
L0L
(lp4541
(lp4542
tp4543
a(L1078924633L
L3785322319L
(lp4544
(lp4545
Vesp_rom_spiflash_read_data
p4546
atp4547
a(L1298875774L
L0L
(lp4548
(lp4549
tp4550
a(L735741265L
L0L
(lp4551
(lp4552
tp4553
atp4554
ssS'functionsdups'
p4555
g11
((lp4556
tp4557
Rp4558
sS'immediatedups'
p4559
g11
((lp4560
tp4561
Rp4562
sS'functiondups'
p4563
g11
((lp4564
tp4565
Rp4566
sS'fuzzy'
p4567
(dp4568
L1536L
I1074240360
sL452507512L
I1074237812
sL1238425040L
I1074244772
sL4061702297L
I1074244720
sL430153639L
I1074242560
sL1694124286L
I1074269744
sL474176970L
I1074241692
sL1993052482L
I1074245744
sL45806640L
I1074241256
sL381930313L
I1074241420
sL4027856920L
I1074268908
sL2479661889L
I1074247196
sL3495415001L
I1074240920
sL3669996080L
I1074236920
sL2283800112L
I1074269960
sL2661072904L
I1074240404
sL2281838360L
I1074240124
sL3881399234L
I1074239280
sL312818747L
I1074238900
sL1622145584L
I1074236040
sL618873793L
I1074242636
sL1157487583L
I1074273464
sL1205197046L
I1074239168
sL1420005888L
I1074270776
sL3110146889L
I1074239552
sL1995141314L
I1074242968
sL1991897232L
I1074245400
sL1014503250L
I1074245068
sL1960722676L
I1074269848
sL4059437021L
I1074272396
sL2619119152L
I1074243984
sL1766137975L
I1074270712
sL2738222727L
I1074271756
sL2723847017L
I1074237676
sL275633497L
I1074269252
sL3619350029L
I1074242264
sL3247628459L
I1074245128
sL82042969L
I1074270344
sL2919037255L
I1074268336
sL410455735L
I1074242452
sL512571597L
I1074268008
sL578413630L
I1074241560
sL2649994811L
I1074267960
sL533883930L
I1074268640
sL1332800441L
I1074236740
sL433784338L
I1074268104
sL4160102055L
I1074269220
sL3280616158L
I1074236704
sL3476065511L
I1074272656
sL2474570535L
I1074246044
sL519424169L
I1074245584
sL2033964903L
I1074271076
sL1060788199L
I1074271656
sL1381401481L
I1074239112
sL4270185191L
I1074271180
sL2705984041L
I1074244840
sL3380377753L
I1074246136
sL1179079586L
I1074272152
sL2766438284L
I1074238988
sL1043425753L
I1074238004
sL138378967L
I1074237436
sL447173967L
I1074246924
sL3128965227L
I1074241304
sL974711027L
I1074245452
sL1178348887L
I1074270200
sL3706231047L
I1074240756
sL3791345684L
I1074269800
sL4155364446L
I1074236780
sL1329074126L
I1074245844
sL1016692206L
I1074272488
sL3897638057L
I1074268584
sL59547383L
I1074237232
sL455832661L
I1074239760
sL3965284519L
I1074243660
ssb.