ccopy_reg
_reconstructor
p0
(crizzo
RizzoSignature
p1
c__builtin__
object
p2
Ntp3
Rp4
(dp5
S'formal'
p6
(dp7
L3350618294L
I1074240336
sL3669424062L
I1074236680
sL2886561796L
I1074235976
sL1432758892L
I1074270236
sL1741170115L
I1074237952
sL607973681L
I1074268608
sL1433108606L
I1074242404
sL2064144157L
I1074235928
sL957563653L
I1074237788
sL2292612016L
I1074244704
sL2958601792L
I1074241280
sL138444125L
I1074244740
sL3813064027L
I1074239144
sL1815150096L
I1074267928
sL580342964L
I1074268772
sL1296434798L
I1074241116
sL1306880972L
I1074240732
sL342051663L
I1074269172
sL3987845533L
I1074269960
sL2722777976L
I1074244792
sL2599374813L
I1074245316
sL2226029212L
I1074268032
sL2632914909L
I1074271556
sL1201959315L
I1074270848
sL2901032402L
I1074237412
sL1156261845L
I1074273192
sL1926595221L
I1074271220
sL2195980192L
I1074234584
sL3740445365L
I1074241396
sL3085487008L
I1074237360
sL1904560840L
I1074273160
sL4202775248L
I1074235264
sL3428446987L
I1074244112
sL1648512529L
I1074270180
sL2709344808L
I1074271904
sL3263541981L
I1074270024
sL1127622764L
I1074239308
sL1456331926L
I1074235088
sL2868258475L
I1074240896
sL3225419805L
I1074246044
sL2912846273L
I1074238560
sL3000936321L
I1074269660
sL3974320007L
I1074239256
sL3702197710L
I1074240632
sL3308159808L
I1074240100
sL698767560L
I1074272380
sL50983014L
I1074271400
sL1396243276L
I1074244924
sL1946518643L
I1074239704
sL1212621616L
I1074246000
sL1141849463L
I1074235944
sL2491899391L
I1074245224
sL1217453288L
I1074246028
sL3189588833L
I1074242612
sL3965610460L
I1074237072
sL3424733605L
I1074246104
sL2544215075L
I1074244468
sL1903870450L
I1074242536
sL4155870266L
I1074235760
sL1318497797L
I1074268876
sL3929602732L
I1074241232
sL3227211215L
I1074241536
sL2018796993L
I1074245960
sL4095446147L
I1074268304
sL946121725L
I1074242428
sL945719237L
I1074239088
sL2761480963L
I1074239736
sL1864188806L
I1074269516
sL975048066L
I1074237040
sL1847249286L
I1074246060
sL987615808L
I1074269140
sL2217895852L
I1074270412
sL1431551436L
I1074240712
sL779623655L
I1074244180
sL1942591337L
I1074239528
sL970194547L
I1074238088
sL3898185208L
I1074237596
sL453406624L
I1074243636
sL3319180401L
I1074270428
sL1728979620L
I1074246376
sL2727773242L
I1074244060
sL1552116527L
I1074237172
sL470685631L
I1074272640
sL3825320115L
I1074270208
sL4060450998L
I1074236756
sL2358021945L
I1074236660
sL134208586L
I1074241668
sL1868338154L
I1074267900
sL4179931283L
I1074236716
sL456083351L
I1074268552
sL3968079165L
I1074270324
sL25406014L
I1074242944
sL3965817055L
I1074269472
sL1396453881L
I1074236016
sL3741999564L
I1074272712
sL1351291200L
I1074235152
sL201811660L
I1074243960
sL3846686602L
I1074269856
sL1449836452L
I1074270308
sL2432257846L
I1074243620
sL3098325347L
I1074271644
sL3614537121L
I1074240380
sL2953227478L
I1074245024
sL2892100530L
I1074236808
sL841745912L
I1074242240
sL3802574193L
I1074246484
sL2263182908L
I1074237972
sL4177551583L
I1074244408
sL1539713060L
I1074237208
sL2068574383L
I1074238876
sL489309134L
I1074240704
sL2849615934L
I1074238964
sL3617622088L
I1074246196
sL3451322463L
I1074271004
sL4289306179L
I1074237980
sL191613313L
I1074270368
sL2427362117L
I1074236896
sL4109328644L
I1074270904
sL2591389339L
I1074271176
sL2261506084L
I1074235112
sL1772991554L
I1074271248
sL240369573L
I1074234564
sL3745020111L
I1074267976
sL2249092089L
I1074268072
sL4156698171L
I1074271736
sL3152959252L
I1074237652
sL3958689032L
I1074269792
ssS'immediates'
p8
(dp9
sS'formaldups'
p10
c__builtin__
set
p11
((lp12
tp13
Rp14
sS'stringdups'
p15
g11
((lp16
tp17
Rp18
sS'fuzzydups'
p19
g11
((lp20
tp21
Rp22
sS'strings'
p23
(dp24
sS'functions'
p25
(dp26
I1074269960
(Vrtc_clk_32k_enable
p27
(lp28
(L753387299L
L0L
(lp29
(lp30
tp31
a(L1120965557L
L3785322319L
(lp32
(lp33
Vrtc_clk_32k_enable_common
p34
atp35
a(L586378022L
L0L
(lp36
(lp37
tp38
atp39
sI1074241536
(Vverify_image_header
p40
(lp41
(L171376062L
L0L
(lp42
(lp43
tp44
a(L2910371777L
L0L
(lp45
(lp46
tp47
a(L3027455160L
L3785322319L
(lp48
(lp49
Vesp_log_early_timestamp
p50
atp51
a(L1299866312L
L0L
(lp52
(lp53
tp54
a(L702739623L
L0L
(lp55
(lp56
tp57
a(L3710928811L
L3785322319L
(lp58
(lp59
Vbootloader_common_check_chip_validity
p60
atp61
a(L702739623L
L0L
(lp62
(lp63
tp64
a(L3028481L
L0L
(lp65
(lp66
tp67
a(L3270243289L
L0L
(lp68
(lp69
tp70
a(L3561392571L
L3785322319L
(lp71
(lp72
Vesp_log_early_timestamp
p73
atp74
a(L385352084L
L0L
(lp75
(lp76
tp77
a(L3243225683L
L3785322319L
(lp78
(lp79
Vesp_log_early_timestamp
p80
atp81
a(L3360570486L
L0L
(lp82
(lp83
tp84
atp85
sI1074241280
(Vverify_segment_header
p86
(lp87
(L3674778058L
L0L
(lp88
(lp89
tp90
a(L2496966260L
L0L
(lp91
(lp92
tp93
a(L3028481L
L0L
(lp94
(lp95
tp96
a(L632874435L
L3785322319L
(lp97
(lp98
Vesp_log_early_timestamp
p99
atp100
a(L536784482L
L3785322319L
(lp101
(lp102
Vshould_map
p103
atp104
a(L3496178735L
L0L
(lp105
(lp106
tp107
a(L2910371777L
L0L
(lp108
(lp109
tp110
a(L735888086L
L3785322319L
(lp111
(lp112
Vesp_log_early_timestamp
p113
atp114
a(L1935333341L
L0L
(lp115
(lp116
tp117
a(L2993202392L
L0L
(lp118
(lp119
tp120
a(L2993202392L
L0L
(lp121
(lp122
tp123
a(L1935333341L
L0L
(lp124
(lp125
tp126
atp127
sI1074237952
(Vbootloader_flash_erase_sector
p128
(lp129
(L4129137686L
L1880226080L
(lp130
(lp131
Vesp_rom_spiflash_erase_sector
p132
aVspi_to_esp_err
p133
atp134
atp135
sI1074270208
(Vrtc_clk_8md256_enabled
p136
(lp137
(L654509859L
L0L
(lp138
(lp139
tp140
atp141
sI1074236680
(Vbootloader_common_ota_select_valid
p142
(lp143
(L1731214134L
L3785322319L
(lp144
(lp145
Vbootloader_common_ota_select_invalid
p146
atp147
a(L668323607L
L3785322319L
(lp148
(lp149
Vbootloader_common_ota_select_crc
p150
atp151
a(L3880706073L
L0L
(lp152
(lp153
tp154
a(L2993202392L
L0L
(lp155
(lp156
tp157
a(L2993202392L
L0L
(lp158
(lp159
tp160
atp161
sI1074267928
(Vselect_partition_number
p162
(lp163
(L1731214134L
L3785322319L
(lp164
(lp165
Vbootloader_utility_load_partition_table
p166
atp167
a(L481673452L
L3785322319L
(lp168
(lp169
Vesp_log_early_timestamp
p170
atp171
a(L880231726L
L3785322319L
(lp172
(lp173
Vselected_boot_partition
p174
atp175
atp176
sI1074237972
(Vbootloader_mmap_get_free_pages
p177
(lp178
(L1496516875L
L0L
(lp179
(lp180
tp181
atp182
sI1074270236
(Vrtc_clk_slow_freq_set
p183
(lp184
(L2946016657L
L0L
(lp185
(lp186
tp187
a(L1235012839L
L0L
(lp188
(lp189
tp190
a(L2258688482L
L0L
(lp191
(lp192
tp193
a(L1361457185L
L0L
(lp194
(lp195
tp196
atp197
sI1074271004
(Vrtc_clk_cpu_freq_get_config
p198
(lp199
(L3609149214L
L0L
(lp200
(lp201
tp202
a(L2902417580L
L0L
(lp203
(lp204
tp205
a(L3020187L
L0L
(lp206
(lp207
tp208
a(L106L
L0L
(lp209
(lp210
tp211
a(L2748949662L
L3785322319L
(lp212
(lp213
Vrtc_clk_xtal_freq_get
p214
atp215
a(L1778749721L
L0L
(lp216
(lp217
tp218
a(L3020187L
L0L
(lp219
(lp220
tp221
a(L3020187L
L0L
(lp222
(lp223
tp224
a(L1965191002L
L1880226080L
(lp225
(lp226
Vesp_log_early_timestamp
p227
aVabort
p228
atp229
a(L1965191002L
L1880226080L
(lp230
(lp231
Vesp_log_early_timestamp
p232
aVabort
p233
atp234
a(L1209507534L
L0L
(lp235
(lp236
tp237
a(L1888221406L
L0L
(lp238
(lp239
tp240
a(L3497772488L
L0L
(lp241
(lp242
tp243
a(L2830593902L
L0L
(lp244
(lp245
tp246
a(L134915478L
L0L
(lp247
(lp248
tp249
atp250
sI1074235152
(Vbootloader_flash_cs_timing_config
p251
(lp252
(L436231625L
L0L
(lp253
(lp254
tp255
atp256
sI1074244112
(Vesp_rom_spiflash_erase_sector_internal
p257
(lp258
(L1530704874L
L0L
(lp259
(lp260
tp261
a(L3692658765L
L3785322319L
(lp262
(lp263
Vesp_rom_spiflash_wait_idle
p264
atp265
a(L3708374670L
L0L
(lp266
(lp267
tp268
a(L1387965403L
L3785322319L
(lp269
(lp270
Vesp_rom_spiflash_wait_idle
p271
atp272
a(L3880706073L
L0L
(lp273
(lp274
tp275
atp276
sI1074271248
(Vrtc_clk_cpu_freq_to_xtal
p277
(lp278
(L1564455077L
L3785322319L
(lp279
(lp280
Vrtc_clk_apb_freq_update
p281
atp282
a(L350140244L
L0L
(lp283
(lp284
tp285
a(L1478751936L
L0L
(lp286
(lp287
tp288
atp289
sI1074237980
(Vbootloader_fill_random
p290
(lp291
(L4037466985L
L0L
(lp292
(lp293
tp294
a(L2010573816L
L3785322319L
(lp295
(lp296
V__assert_func
p297
atp298
a(L3020204L
L0L
(lp299
(lp300
tp301
a(L3105261274L
L0L
(lp302
(lp303
tp304
a(L3136497133L
L0L
(lp305
(lp306
tp307
a(L1453409990L
L0L
(lp308
(lp309
tp310
a(L655163851L
L0L
(lp311
(lp312
tp313
a(L1298905564L
L0L
(lp314
(lp315
tp316
a(L2192561533L
L0L
(lp317
(lp318
tp319
a(L3360570486L
L0L
(lp320
(lp321
tp322
atp323
sI1074239256
(Vtry_load_partition
p324
(lp325
(L3877261386L
L0L
(lp326
(lp327
tp328
a(L2260359711L
L3785322319L
(lp329
(lp330
Vbootloader_load_image
p331
atp332
a(L3165668283L
L3785322319L
(lp333
(lp334
Vesp_log_early_timestamp
p335
atp336
a(L2993202392L
L0L
(lp337
(lp338
tp339
a(L2993202392L
L0L
(lp340
(lp341
tp342
atp343
sI1074237208
(Vbootloader_flash_read_allow_decrypt
p344
(lp345
(L3381655731L
L0L
(lp346
(lp347
tp348
a(L2481394718L
L0L
(lp349
(lp350
tp351
a(L2827791035L
L0L
(lp352
(lp353
tp354
a(L2092868393L
L3785322319L
(lp355
(lp356
Vesp_log_early_timestamp
p357
atp358
a(L986745520L
L0L
(lp359
(lp360
tp361
a(L1792079040L
L0L
(lp362
(lp363
tp364
a(L3423665670L
L0L
(lp365
(lp366
tp367
a(L106L
L0L
(lp368
(lp369
tp370
a(L2993202392L
L0L
(lp371
(lp372
tp373
atp374
sI1074235928
(Vesp_cpu_in_ocd_debug_mode
p375
(lp376
(L3620038287L
L0L
(lp377
(lp378
tp379
atp380
sI1074243620
(Vbootloader_load_image
p381
(lp382
(L267004326L
L3785322319L
(lp383
(lp384
Vimage_load
p385
atp386
atp387
sI1074269472
(Vabort
p388
(lp389
(L1522636689L
L3785322319L
(lp390
(lp391
Vesp_cpu_in_ocd_debug_mode
p392
atp393
a(L409441471L
L0L
(lp394
(lp395
tp396
a(L106L
L0L
(lp397
(lp398
tp399
atp400
sI1074236716
(Vbootloader_common_get_active_otadata
p401
(lp402
(L4066087859L
L0L
(lp403
(lp404
tp405
a(L261345922L
L1832448559L
(lp406
(lp407
Vbootloader_common_ota_select_valid
p408
aVbootloader_common_ota_select_valid
p409
aVbootloader_common_select_otadata
p410
atp411
a(L515633988L
L0L
(lp412
(lp413
tp414
atp415
sI1074235944
(Vesp_log_early_timestamp
p416
(lp417
(L2262329302L
L0L
(lp418
(lp419
tp420
atp421
sI1074239528
(Vunpack_load_app
p422
(lp423
(L1842422795L
L0L
(lp424
(lp425
tp426
a(L227424592L
L0L
(lp427
(lp428
tp429
a(L2902417580L
L0L
(lp430
(lp431
tp432
a(L1029628832L
L3785322319L
(lp433
(lp434
Vesp_log_early_timestamp
p435
atp436
a(L3411822821L
L0L
(lp437
(lp438
tp439
a(L606853680L
L0L
(lp440
(lp441
tp442
a(L2902417580L
L0L
(lp443
(lp444
tp445
a(L783315745L
L3785322319L
(lp446
(lp447
Vesp_log_early_timestamp
p448
atp449
a(L87648306L
L0L
(lp450
(lp451
tp452
a(L1799288861L
L0L
(lp453
(lp454
tp455
a(L350965691L
L0L
(lp456
(lp457
tp458
a(L106L
L0L
(lp459
(lp460
tp461
a(L1717315991L
L3785322319L
(lp462
(lp463
Vset_cache_and_start_app
p464
atp465
atp466
sI1074242612
(Vprocess_segment
p467
(lp468
(L815192809L
L3785322319L
(lp469
(lp470
Vbootloader_flash_read
p471
atp472
a(L3091174693L
L3785322319L
(lp473
(lp474
Vesp_log_early_timestamp
p475
atp476
a(L2378867762L
L0L
(lp477
(lp478
tp479
a(L2241831349L
L3785322319L
(lp480
(lp481
Vbootloader_sha256_data
p482
atp483
a(L3508283154L
L3785322319L
(lp484
(lp485
Vverify_segment_header
p486
atp487
a(L2910581177L
L0L
(lp488
(lp489
tp490
a(L3028481L
L0L
(lp491
(lp492
tp493
a(L1177831742L
L3785322319L
(lp494
(lp495
Vesp_log_early_timestamp
p496
atp497
a(L3031411042L
L3785322319L
(lp498
(lp499
Vshould_map
p500
atp501
a(L3356129481L
L3785322319L
(lp502
(lp503
Vshould_load
p504
atp505
a(L1299866343L
L0L
(lp506
(lp507
tp508
a(L1299866312L
L0L
(lp509
(lp510
tp511
a(L1182811810L
L0L
(lp512
(lp513
tp514
a(L3592074427L
L0L
(lp515
(lp516
tp517
a(L3287840219L
L3785322319L
(lp518
(lp519
Vesp_log_early_timestamp
p520
atp521
a(L2902417580L
L0L
(lp522
(lp523
tp524
a(L568281991L
L0L
(lp525
(lp526
tp527
a(L568281743L
L0L
(lp528
(lp529
tp530
a(L1403804991L
L0L
(lp531
(lp532
tp533
a(L3602079949L
L0L
(lp534
(lp535
tp536
a(L1893706348L
L0L
(lp537
(lp538
tp539
a(L2261579306L
L3785322319L
(lp540
(lp541
Vverify_load_addresses
p542
atp543
a(L978787560L
L3785322319L
(lp544
(lp545
Vbootloader_mmap_get_free_pages
p546
atp547
a(L3725904442L
L3785322319L
(lp548
(lp549
Vprocess_segment_data
p550
atp551
a(L1231449635L
L0L
(lp552
(lp553
tp554
a(L3021737L
L0L
(lp555
(lp556
tp557
a(L2993202392L
L0L
(lp558
(lp559
tp560
a(L2902417580L
L0L
(lp561
(lp562
tp563
a(L3360570486L
L0L
(lp564
(lp565
tp566
a(L1935333341L
L0L
(lp567
(lp568
tp569
a(L735741265L
L0L
(lp570
(lp571
tp572
a(L702739623L
L0L
(lp573
(lp574
tp575
a(L3360570486L
L0L
(lp576
(lp577
tp578
atp579
sI1074243636
(Vesp_partition_table_verify
p580
(lp581
(L1334052503L
L0L
(lp582
(lp583
tp584
a(L2962270087L
L0L
(lp585
(lp586
tp587
a(L2544630126L
L0L
(lp588
(lp589
tp590
a(L4183706628L
L0L
(lp591
(lp592
tp593
a(L106L
L0L
(lp594
(lp595
tp596
a(L2579271819L
L0L
(lp597
(lp598
tp599
a(L2039260187L
L3785322319L
(lp600
(lp601
Vesp_log_early_timestamp
p602
atp603
a(L4036952873L
L0L
(lp604
(lp605
tp606
a(L2902417580L
L0L
(lp607
(lp608
tp609
a(L2579271819L
L0L
(lp610
(lp611
tp612
a(L59892762L
L3785322319L
(lp613
(lp614
Vesp_log_early_timestamp
p615
atp616
a(L2063166656L
L0L
(lp617
(lp618
tp619
a(L2579271819L
L0L
(lp620
(lp621
tp622
a(L1400027822L
L3785322319L
(lp623
(lp624
Vesp_log_early_timestamp
p625
atp626
a(L1610443436L
L0L
(lp627
(lp628
tp629
a(L2966513628L
L0L
(lp630
(lp631
tp632
a(L3720018517L
L0L
(lp633
(lp634
tp635
a(L324306632L
L0L
(lp636
(lp637
tp638
a(L2579271819L
L0L
(lp639
(lp640
tp641
a(L638218334L
L3785322319L
(lp642
(lp643
Vesp_log_early_timestamp
p644
atp645
a(L1799288861L
L0L
(lp646
(lp647
tp648
a(L474850413L
L0L
(lp649
(lp650
tp651
a(L106L
L0L
(lp652
(lp653
tp654
a(L484089803L
L0L
(lp655
(lp656
tp657
a(L1906221336L
L3785322319L
(lp658
(lp659
Vesp_log_early_timestamp
p660
atp661
a(L3854017309L
L0L
(lp662
(lp663
tp664
a(L2966513628L
L0L
(lp665
(lp666
tp667
a(L2966513628L
L0L
(lp668
(lp669
tp670
atp671
sI1074246196
(Vrtc_wdt_set_stage
p672
(lp673
(L1890082815L
L0L
(lp674
(lp675
tp676
a(L1182990556L
L0L
(lp677
(lp678
tp679
a(L4210890627L
L0L
(lp680
(lp681
tp682
a(L1182990556L
L0L
(lp683
(lp684
tp685
a(L3265635317L
L0L
(lp686
(lp687
tp688
a(L2910371777L
L0L
(lp689
(lp690
tp691
a(L4000158451L
L0L
(lp692
(lp693
tp694
a(L3028464L
L0L
(lp695
(lp696
tp697
a(L1918687154L
L0L
(lp698
(lp699
tp700
a(L3028464L
L0L
(lp701
(lp702
tp703
a(L862379611L
L0L
(lp704
(lp705
tp706
a(L3011029918L
L0L
(lp707
(lp708
tp709
a(L2079009947L
L0L
(lp710
(lp711
tp712
atp713
sI1074244924
(Vesp_rom_spiflash_erase_sector
p714
(lp715
(L1387959666L
L0L
(lp716
(lp717
tp718
a(L863950961L
L3785322319L
(lp719
(lp720
Vesp_rom_spiflash_enable_write
p721
atp722
a(L2973411990L
L3785322319L
(lp723
(lp724
Vesp_rom_spiflash_erase_sector_internal
p725
atp726
a(L3880706073L
L0L
(lp727
(lp728
tp729
a(L3880706073L
L0L
(lp730
(lp731
tp732
a(L2258688483L
L0L
(lp733
(lp734
tp735
a(L3360570486L
L0L
(lp736
(lp737
tp738
atp739
sI1074244408
(Vesp_rom_spiflash_enable_write
p740
(lp741
(L186828786L
L3785322319L
(lp742
(lp743
Vesp_rom_spiflash_wait_idle
p744
atp745
a(L1715204046L
L0L
(lp746
(lp747
tp748
a(L106L
L0L
(lp749
(lp750
tp751
a(L1337065440L
L3785322319L
(lp752
(lp753
Vesp_rom_spiflash_read_status
p754
atp755
a(L1253527241L
L0L
(lp756
(lp757
tp758
a(L2993202392L
L0L
(lp759
(lp760
tp761
atp762
sI1074267976
(Vcall_start_cpu0
p763
(lp764
(L2311976169L
L3785322319L
(lp765
(lp766
Vbootloader_init
p767
atp768
a(L3827921190L
L3785322319L
(lp769
(lp770
Vbootloader_reset
p771
atp772
a(L4083304126L
L3785322319L
(lp773
(lp774
Vselect_partition_number
p775
atp776
a(L94425498L
L3785322319L
(lp777
(lp778
Vbootloader_reset
p779
atp780
a(L1678595755L
L3785322319L
(lp781
(lp782
Vbootloader_utility_load_boot_image
p783
atp784
atp785
sI1074270024
(Vrtc_clk_8m_enable
p786
(lp787
(L1474360438L
L0L
(lp788
(lp789
tp790
a(L3807070931L
L0L
(lp791
(lp792
tp793
a(L3769900739L
L0L
(lp794
(lp795
tp796
a(L268882317L
L0L
(lp797
(lp798
tp799
a(L2593911072L
L0L
(lp800
(lp801
tp802
a(L396335704L
L0L
(lp803
(lp804
tp805
atp806
sI1074269516
(Vbootloader_clock_configure
p807
(lp808
(L3493042567L
L0L
(lp809
(lp810
tp811
a(L4147761415L
L0L
(lp812
(lp813
tp814
a(L924778585L
L0L
(lp815
(lp816
tp817
a(L1314418145L
L0L
(lp818
(lp819
tp820
a(L1812928027L
L0L
(lp821
(lp822
tp823
a(L1812928027L
L0L
(lp824
(lp825
tp826
a(L2312970590L
L0L
(lp827
(lp828
tp829
a(L1314635988L
L1832448559L
(lp830
(lp831
Vrtc_clk_slow_freq_get
p832
aVrtc_clk_fast_freq_get
p833
aVrtc_clk_init
p834
atp835
atp836
sI1074239308
(Vset_cache_and_start_app
p837
(lp838
(L393644359L
L0L
(lp839
(lp840
tp841
a(L3947892742L
L0L
(lp842
(lp843
tp844
a(L1548223148L
L0L
(lp845
(lp846
tp847
a(L399753135L
L0L
(lp848
(lp849
tp850
atp851
sI1074271556
(Vrtc_clk_cpu_freq_to_8m
p852
(lp853
(L2434207256L
L3785322319L
(lp854
(lp855
Vrtc_clk_apb_freq_update
p856
atp857
atp858
sI1074235976
(V__bswapsi2
p859
(lp860
(L1536547126L
L0L
(lp861
(lp862
tp863
atp864
sI1074245960
(Vrtc_clk_apb_freq_get
p865
(lp866
(L2921014042L
L0L
(lp867
(lp868
tp869
atp870
sI1074236756
(Vbootloader_common_vddsdio_configure
p871
(lp872
(L1829974089L
L3785322319L
(lp873
(lp874
Vrtc_vddsdio_get_config
p875
atp876
a(L955149828L
L3785322319L
(lp877
(lp878
Vrtc_vddsdio_set_config
p879
atp880
a(L3360570486L
L0L
(lp881
(lp882
tp883
atp884
sI1074244180
(Vesp_rom_spiflash_read_data
p885
(lp886
(L4122033220L
L0L
(lp887
(lp888
tp889
a(L106L
L0L
(lp890
(lp891
tp892
a(L2070875117L
L3785322319L
(lp893
(lp894
Vesp_rom_spiflash_wait_idle
p895
atp896
a(L2761836345L
L0L
(lp897
(lp898
tp899
a(L1092526754L
L0L
(lp900
(lp901
tp902
a(L1715204046L
L0L
(lp903
(lp904
tp905
a(L106L
L0L
(lp906
(lp907
tp908
a(L2080316295L
L0L
(lp909
(lp910
tp911
a(L256664550L
L0L
(lp912
(lp913
tp914
a(L663200857L
L0L
(lp915
(lp916
tp917
a(L2129767330L
L0L
(lp918
(lp919
tp920
a(L1715204046L
L0L
(lp921
(lp922
tp923
a(L1263158627L
L0L
(lp924
(lp925
tp926
a(L131455463L
L0L
(lp927
(lp928
tp929
a(L4208385735L
L0L
(lp930
(lp931
tp932
a(L1305407438L
L0L
(lp933
(lp934
tp935
a(L2080316295L
L0L
(lp936
(lp937
tp938
a(L3027019L
L0L
(lp939
(lp940
tp941
a(L2258777855L
L0L
(lp942
(lp943
tp944
a(L3027007L
L0L
(lp945
(lp946
tp947
a(L106L
L0L
(lp948
(lp949
tp950
a(L2993202392L
L0L
(lp951
(lp952
tp953
a(L3880706073L
L0L
(lp954
(lp955
tp956
atp957
sI1074246484
(Vrtc_wdt_set_length_of_reset_signal
p958
(lp959
(L1890082815L
L0L
(lp960
(lp961
tp962
a(L1182990556L
L0L
(lp963
(lp964
tp965
a(L4210890627L
L0L
(lp966
(lp967
tp968
a(L1182990556L
L0L
(lp969
(lp970
tp971
a(L3265635317L
L0L
(lp972
(lp973
tp974
a(L2910371777L
L0L
(lp975
(lp976
tp977
a(L1641927467L
L0L
(lp978
(lp979
tp980
a(L495435522L
L0L
(lp981
(lp982
tp983
a(L2079009947L
L0L
(lp984
(lp985
tp986
atp987
sI1074240336
(Vbootloader_reset
p988
(lp989
(L44586103L
L0L
(lp990
(lp991
tp992
a(L106L
L0L
(lp993
(lp994
tp995
atp996
sI1074241116
(Vbootloader_sha256_hex_to_str
p997
(lp998
(L90530756L
L0L
(lp999
(lp1000
tp1001
a(L97422L
L0L
(lp1002
(lp1003
tp1004
a(L106L
L0L
(lp1005
(lp1006
tp1007
a(L201281358L
L0L
(lp1008
(lp1009
tp1010
a(L1611366926L
L0L
(lp1011
(lp1012
tp1013
a(L1298905568L
L0L
(lp1014
(lp1015
tp1016
a(L1295154486L
L0L
(lp1017
(lp1018
tp1019
a(L2172025409L
L0L
(lp1020
(lp1021
tp1022
a(L1079575012L
L0L
(lp1023
(lp1024
tp1025
a(L978975865L
L0L
(lp1026
(lp1027
tp1028
a(L2258897019L
L0L
(lp1029
(lp1030
tp1031
a(L3027007L
L0L
(lp1032
(lp1033
tp1034
a(L4126803969L
L0L
(lp1035
(lp1036
tp1037
a(L448827677L
L0L
(lp1038
(lp1039
tp1040
a(L2993202392L
L0L
(lp1041
(lp1042
tp1043
a(L2079009947L
L0L
(lp1044
(lp1045
tp1046
a(L2079009947L
L0L
(lp1047
(lp1048
tp1049
atp1050
sI1074237788
(Vbootloader_flash_write
p1051
(lp1052
(L1798169257L
L0L
(lp1053
(lp1054
tp1055
a(L1755666842L
L0L
(lp1056
(lp1057
tp1058
a(L1182930978L
L0L
(lp1059
(lp1060
tp1061
a(L1516326052L
L0L
(lp1062
(lp1063
tp1064
a(L3601225942L
L3785322319L
(lp1065
(lp1066
Vesp_log_early_timestamp
p1067
atp1068
a(L3291333414L
L0L
(lp1069
(lp1070
tp1071
a(L3705527871L
L3785322319L
(lp1072
(lp1073
Vesp_log_early_timestamp
p1074
atp1075
a(L3283691850L
L0L
(lp1076
(lp1077
tp1078
a(L3219727249L
L3785322319L
(lp1079
(lp1080
Vesp_log_early_timestamp
p1081
atp1082
a(L2738388993L
L1880226080L
(lp1083
(lp1084
Vesp_rom_spiflash_unlock
p1085
aVspi_to_esp_err
p1086
atp1087
a(L2902417580L
L0L
(lp1088
(lp1089
tp1090
a(L640850222L
L1880226080L
(lp1091
(lp1092
Vesp_rom_spiflash_write_encrypted
p1093
aVspi_to_esp_err
p1094
atp1095
a(L640850222L
L1880226080L
(lp1096
(lp1097
Vesp_rom_spiflash_write
p1098
aVspi_to_esp_err
p1099
atp1100
a(L735741265L
L0L
(lp1101
(lp1102
tp1103
atp1104
sI1074240100
(Vbootloader_utility_get_selected_boot_partition
p1105
(lp1106
(L493075905L
L0L
(lp1107
(lp1108
tp1109
a(L1053676827L
L3785322319L
(lp1110
(lp1111
Vread_otadata
p1112
atp1113
a(L608517063L
L3785322319L
(lp1114
(lp1115
Vbootloader_common_ota_select_invalid
p1116
atp1117
a(L1836822349L
L3785322319L
(lp1118
(lp1119
Vbootloader_common_ota_select_invalid
p1120
atp1121
a(L1103582223L
L0L
(lp1122
(lp1123
tp1124
a(L1434139642L
L0L
(lp1125
(lp1126
tp1127
a(L1928357489L
L3785322319L
(lp1128
(lp1129
Vesp_log_early_timestamp
p1130
atp1131
a(L1869322443L
L3785322319L
(lp1132
(lp1133
Vesp_log_early_timestamp
p1134
atp1135
a(L1231013322L
L3785322319L
(lp1136
(lp1137
Vbootloader_common_ota_select_crc
p1138
atp1139
a(L505081345L
L0L
(lp1140
(lp1141
tp1142
a(L919052234L
L3785322319L
(lp1143
(lp1144
Vbootloader_common_ota_select_crc
p1145
atp1146
a(L2401229276L
L0L
(lp1147
(lp1148
tp1149
a(L726746649L
L3785322319L
(lp1150
(lp1151
Vbootloader_common_get_active_otadata
p1152
atp1153
a(L4158819813L
L0L
(lp1154
(lp1155
tp1156
a(L1630653147L
L0L
(lp1157
(lp1158
tp1159
a(L357843848L
L3785322319L
(lp1160
(lp1161
Vesp_log_early_timestamp
p1162
atp1163
a(L2346681952L
L3785322319L
(lp1164
(lp1165
Vesp_log_early_timestamp
p1166
atp1167
a(L515633988L
L0L
(lp1168
(lp1169
tp1170
a(L2805938668L
L0L
(lp1171
(lp1172
tp1173
a(L3360570486L
L0L
(lp1174
(lp1175
tp1176
atp1177
sI1074242404
(Vdebug_log_hash
p1178
(lp1179
(L1348589273L
L3785322319L
(lp1180
(lp1181
Vbootloader_sha256_hex_to_str
p1182
atp1183
atp1184
sI1074238560
(Vbootloader_random_disable
p1185
(lp1186
(L4057891542L
L0L
(lp1187
(lp1188
tp1189
atp1190
sI1074244704
(Vesp_rom_spiflash_read_statushigh
p1191
(lp1192
(L3989395107L
L3785322319L
(lp1193
(lp1194
Vesp_rom_spiflash_wait_idle
p1195
atp1196
atp1197
sI1074269792
(Vrtc_clk_bbpll_disable
p1198
(lp1199
(L3862682263L
L0L
(lp1200
(lp1201
tp1202
a(L872918425L
L0L
(lp1203
(lp1204
tp1205
a(L3360570486L
L0L
(lp1206
(lp1207
tp1208
atp1209
sI1074268772
(Vupdate_flash_config
p1210
(lp1211
(L1046059555L
L0L
(lp1212
(lp1213
tp1214
a(L93674324L
L0L
(lp1215
(lp1216
tp1217
a(L2902417580L
L0L
(lp1218
(lp1219
tp1220
a(L106L
L0L
(lp1221
(lp1222
tp1223
a(L3020187L
L0L
(lp1224
(lp1225
tp1226
a(L3020187L
L0L
(lp1227
(lp1228
tp1229
a(L106L
L0L
(lp1230
(lp1231
tp1232
a(L1299866343L
L0L
(lp1233
(lp1234
tp1235
a(L1299866436L
L0L
(lp1236
(lp1237
tp1238
a(L1299866560L
L0L
(lp1239
(lp1240
tp1241
a(L1641149277L
L0L
(lp1242
(lp1243
tp1244
a(L2258688484L
L0L
(lp1245
(lp1246
tp1247
a(L3722066624L
L0L
(lp1248
(lp1249
tp1250
atp1251
sI1074270308
(Vrtc_clk_slow_freq_get
p1252
(lp1253
(L1466978858L
L0L
(lp1254
(lp1255
tp1256
atp1257
sI1074245224
(Vesp_rom_spiflash_write_encrypted
p1258
(lp1259
(L4165383288L
L0L
(lp1260
(lp1261
tp1262
a(L1782922338L
L0L
(lp1263
(lp1264
tp1265
a(L965508187L
L0L
(lp1266
(lp1267
tp1268
a(L3538468344L
L0L
(lp1269
(lp1270
tp1271
a(L1441056191L
L3785322319L
(lp1272
(lp1273
Vesp_rom_spiflash_write
p1274
atp1275
a(L1885265687L
L0L
(lp1276
(lp1277
tp1278
a(L2728132755L
L0L
(lp1279
(lp1280
tp1281
a(L2986711568L
L0L
(lp1282
(lp1283
tp1284
a(L3880706073L
L0L
(lp1285
(lp1286
tp1287
a(L3880706073L
L0L
(lp1288
(lp1289
tp1290
atp1291
sI1074241396
(Vverify_checksum
p1292
(lp1293
(L7413395L
L3785322319L
(lp1294
(lp1295
Vbootloader_flash_read
p1296
atp1297
a(L3061351808L
L3785322319L
(lp1298
(lp1299
Vesp_log_early_timestamp
p1300
atp1301
a(L3020204L
L0L
(lp1302
(lp1303
tp1304
a(L2547710365L
L3785322319L
(lp1305
(lp1306
Vbootloader_sha256_data
p1307
atp1308
a(L4124473353L
L0L
(lp1309
(lp1310
tp1311
a(L1223427414L
L0L
(lp1312
(lp1313
tp1314
a(L755040691L
L0L
(lp1315
(lp1316
tp1317
atp1318
sI1074244468
(Vesp_rom_spiflash_program_page_internal
p1319
(lp1320
(L2186516923L
L0L
(lp1321
(lp1322
tp1323
a(L3904186990L
L0L
(lp1324
(lp1325
tp1326
a(L106L
L0L
(lp1327
(lp1328
tp1329
a(L2070875117L
L3785322319L
(lp1330
(lp1331
Vesp_rom_spiflash_wait_idle
p1332
atp1333
a(L530241438L
L3785322319L
(lp1334
(lp1335
Vesp_rom_spiflash_enable_write
p1336
atp1337
a(L1499276535L
L0L
(lp1338
(lp1339
tp1340
a(L370006870L
L0L
(lp1341
(lp1342
tp1343
a(L258098009L
L0L
(lp1344
(lp1345
tp1346
a(L93837694L
L0L
(lp1347
(lp1348
tp1349
a(L1943062613L
L0L
(lp1350
(lp1351
tp1352
a(L920461499L
L0L
(lp1353
(lp1354
tp1355
a(L131455463L
L0L
(lp1356
(lp1357
tp1358
a(L4208385735L
L0L
(lp1359
(lp1360
tp1361
a(L1305407438L
L0L
(lp1362
(lp1363
tp1364
a(L258098009L
L0L
(lp1365
(lp1366
tp1367
a(L3027019L
L0L
(lp1368
(lp1369
tp1370
a(L1182901183L
L0L
(lp1371
(lp1372
tp1373
a(L9381199L
L0L
(lp1374
(lp1375
tp1376
a(L3708374670L
L0L
(lp1377
(lp1378
tp1379
a(L1452275741L
L3785322319L
(lp1380
(lp1381
Vesp_rom_spiflash_wait_idle
p1382
atp1383
a(L3027007L
L0L
(lp1384
(lp1385
tp1386
a(L106L
L0L
(lp1387
(lp1388
tp1389
a(L2629009816L
L0L
(lp1390
(lp1391
tp1392
a(L3880706073L
L0L
(lp1393
(lp1394
tp1395
a(L3880706073L
L0L
(lp1396
(lp1397
tp1398
a(L3880706073L
L0L
(lp1399
(lp1400
tp1401
atp1402
sI1074272380
(Vrtc_vddsdio_get_config
p1403
(lp1404
(L2848305879L
L0L
(lp1405
(lp1406
tp1407
a(L267183332L
L0L
(lp1408
(lp1409
tp1410
a(L156994000L
L0L
(lp1411
(lp1412
tp1413
a(L766704957L
L0L
(lp1414
(lp1415
tp1416
a(L2481714678L
L0L
(lp1417
(lp1418
tp1419
a(L2552115485L
L0L
(lp1420
(lp1421
tp1422
a(L3360570486L
L0L
(lp1423
(lp1424
tp1425
atp1426
sI1074235760
(Vbootloader_flash_dummy_config
p1427
(lp1428
(L29985232L
L0L
(lp1429
(lp1430
tp1431
a(L3017366L
L0L
(lp1432
(lp1433
tp1434
a(L3016870L
L0L
(lp1435
(lp1436
tp1437
a(L2704877724L
L0L
(lp1438
(lp1439
tp1440
a(L3795431303L
L0L
(lp1441
(lp1442
tp1443
a(L1610443405L
L0L
(lp1444
(lp1445
tp1446
a(L1610443405L
L0L
(lp1447
(lp1448
tp1449
a(L1610443498L
L0L
(lp1450
(lp1451
tp1452
a(L1298875780L
L0L
(lp1453
(lp1454
tp1455
a(L680882736L
L0L
(lp1456
(lp1457
tp1458
a(L2902417580L
L0L
(lp1459
(lp1460
tp1461
a(L106L
L0L
(lp1462
(lp1463
tp1464
a(L3632614529L
L0L
(lp1465
(lp1466
tp1467
a(L325410616L
L0L
(lp1468
(lp1469
tp1470
a(L2363466905L
L0L
(lp1471
(lp1472
tp1473
a(L419079280L
L0L
(lp1474
(lp1475
tp1476
a(L3127423664L
L0L
(lp1477
(lp1478
tp1479
atp1480
sI1074236016
(V__udivdi3
p1481
(lp1482
(L1385793588L
L0L
(lp1483
(lp1484
tp1485
a(L3027019L
L0L
(lp1486
(lp1487
tp1488
a(L106L
L0L
(lp1489
(lp1490
tp1491
a(L2092509388L
L0L
(lp1492
(lp1493
tp1494
a(L3502386743L
L0L
(lp1495
(lp1496
tp1497
a(L1366962904L
L0L
(lp1498
(lp1499
tp1500
a(L438338333L
L0L
(lp1501
(lp1502
tp1503
a(L3027019L
L0L
(lp1504
(lp1505
tp1506
a(L1598954342L
L0L
(lp1507
(lp1508
tp1509
a(L3753924055L
L0L
(lp1510
(lp1511
tp1512
a(L1897931368L
L0L
(lp1513
(lp1514
tp1515
a(L1870013079L
L0L
(lp1516
(lp1517
tp1518
a(L3021749L
L0L
(lp1519
(lp1520
tp1521
a(L2802159608L
L0L
(lp1522
(lp1523
tp1524
a(L3888552627L
L0L
(lp1525
(lp1526
tp1527
a(L2632174215L
L0L
(lp1528
(lp1529
tp1530
a(L2910371777L
L0L
(lp1531
(lp1532
tp1533
a(L305663930L
L0L
(lp1534
(lp1535
tp1536
a(L2740121073L
L0L
(lp1537
(lp1538
tp1539
a(L706293450L
L0L
(lp1540
(lp1541
tp1542
a(L4229162210L
L0L
(lp1543
(lp1544
tp1545
a(L2843085605L
L0L
(lp1546
(lp1547
tp1548
a(L3027019L
L0L
(lp1549
(lp1550
tp1551
a(L3073587686L
L0L
(lp1552
(lp1553
tp1554
a(L3122262879L
L0L
(lp1555
(lp1556
tp1557
a(L1300871293L
L0L
(lp1558
(lp1559
tp1560
a(L94415139L
L0L
(lp1561
(lp1562
tp1563
a(L3027019L
L0L
(lp1564
(lp1565
tp1566
a(L11368960L
L0L
(lp1567
(lp1568
tp1569
a(L3212626947L
L0L
(lp1570
(lp1571
tp1572
a(L3756070799L
L0L
(lp1573
(lp1574
tp1575
a(L1029992261L
L0L
(lp1576
(lp1577
tp1578
a(L438338333L
L0L
(lp1579
(lp1580
tp1581
a(L3027019L
L0L
(lp1582
(lp1583
tp1584
a(L2534896770L
L0L
(lp1585
(lp1586
tp1587
a(L2789765947L
L0L
(lp1588
(lp1589
tp1590
a(L3482374298L
L0L
(lp1591
(lp1592
tp1593
a(L1870018349L
L0L
(lp1594
(lp1595
tp1596
a(L3027019L
L0L
(lp1597
(lp1598
tp1599
a(L2802159608L
L0L
(lp1600
(lp1601
tp1602
a(L3888552627L
L0L
(lp1603
(lp1604
tp1605
a(L36877582L
L0L
(lp1606
(lp1607
tp1608
a(L3021749L
L0L
(lp1609
(lp1610
tp1611
a(L106L
L0L
(lp1612
(lp1613
tp1614
a(L3988749468L
L0L
(lp1615
(lp1616
tp1617
a(L1375050317L
L0L
(lp1618
(lp1619
tp1620
a(L4185861754L
L0L
(lp1621
(lp1622
tp1623
a(L892947480L
L0L
(lp1624
(lp1625
tp1626
a(L2258688482L
L0L
(lp1627
(lp1628
tp1629
a(L2856348002L
L0L
(lp1630
(lp1631
tp1632
a(L1351383952L
L0L
(lp1633
(lp1634
tp1635
a(L1681866360L
L0L
(lp1636
(lp1637
tp1638
a(L3021749L
L0L
(lp1639
(lp1640
tp1641
a(L4115096326L
L0L
(lp1642
(lp1643
tp1644
a(L2229771582L
L0L
(lp1645
(lp1646
tp1647
a(L3630858718L
L0L
(lp1648
(lp1649
tp1650
a(L1986658244L
L0L
(lp1651
(lp1652
tp1653
a(L3027019L
L0L
(lp1654
(lp1655
tp1656
a(L2802159608L
L0L
(lp1657
(lp1658
tp1659
a(L2938387302L
L0L
(lp1660
(lp1661
tp1662
a(L3219580898L
L0L
(lp1663
(lp1664
tp1665
a(L4280816470L
L0L
(lp1666
(lp1667
tp1668
a(L97422L
L0L
(lp1669
(lp1670
tp1671
a(L1621601873L
L0L
(lp1672
(lp1673
tp1674
a(L3070693089L
L0L
(lp1675
(lp1676
tp1677
a(L2361595480L
L0L
(lp1678
(lp1679
tp1680
a(L539227760L
L0L
(lp1681
(lp1682
tp1683
atp1684
sI1074237040
(Vbootloader_common_ota_select_invalid
p1685
(lp1686
(L2808438197L
L0L
(lp1687
(lp1688
tp1689
a(L473337258L
L0L
(lp1690
(lp1691
tp1692
a(L3028464L
L0L
(lp1693
(lp1694
tp1695
a(L3880706073L
L0L
(lp1696
(lp1697
tp1698
a(L3880706073L
L0L
(lp1699
(lp1700
tp1701
a(L3880706073L
L0L
(lp1702
(lp1703
tp1704
a(L2993202392L
L0L
(lp1705
(lp1706
tp1707
atp1708
sI1074239088
(Vwrite_otadata
p1709
(lp1710
(L1129643552L
L3785322319L
(lp1711
(lp1712
Vbootloader_flash_erase_sector
p1713
atp1714
a(L2292404229L
L3785322319L
(lp1715
(lp1716
Vbootloader_flash_write
p1717
atp1718
a(L3020204L
L0L
(lp1719
(lp1720
tp1721
a(L3719875213L
L3785322319L
(lp1722
(lp1723
Vesp_log_early_timestamp
p1724
atp1725
a(L3360570486L
L0L
(lp1726
(lp1727
tp1728
atp1729
sI1074246000
(Vrtc_wdt_get_protect_status
p1730
(lp1731
(L3055417052L
L0L
(lp1732
(lp1733
tp1734
atp1735
sI1074240380
(Vbootloader_utility_load_boot_image
p1736
(lp1737
(L3583044102L
L0L
(lp1738
(lp1739
tp1740
a(L534474525L
L3785322319L
(lp1741
(lp1742
Vtry_load_partition
p1743
atp1744
a(L1346171890L
L3785322319L
(lp1745
(lp1746
Vload_image
p1747
atp1748
a(L2128935478L
L1880226080L
(lp1749
(lp1750
Vesp_log_early_timestamp
p1751
aVbootloader_reset
p1752
atp1753
a(L471331349L
L3785322319L
(lp1754
(lp1755
Vindex_to_partition
p1756
atp1757
a(L889780906L
L3785322319L
(lp1758
(lp1759
Vcheck_anti_rollback
p1760
atp1761
a(L1255570883L
L3785322319L
(lp1762
(lp1763
Vtry_load_partition
p1764
atp1765
a(L170811925L
L1880226080L
(lp1766
(lp1767
Vset_actual_ota_seq
p1768
aVload_image
p1769
atp1770
a(L1391131227L
L3785322319L
(lp1771
(lp1772
Vlog_invalid_app_partition
p1773
atp1774
a(L11368960L
L0L
(lp1775
(lp1776
tp1777
a(L3802068281L
L0L
(lp1778
(lp1779
tp1780
a(L3021737L
L0L
(lp1781
(lp1782
tp1783
a(L830883630L
L0L
(lp1784
(lp1785
tp1786
a(L4120885050L
L3785322319L
(lp1787
(lp1788
Vindex_to_partition
p1789
atp1790
a(L889780906L
L3785322319L
(lp1791
(lp1792
Vcheck_anti_rollback
p1793
atp1794
a(L1255570883L
L3785322319L
(lp1795
(lp1796
Vtry_load_partition
p1797
atp1798
a(L170811925L
L1880226080L
(lp1799
(lp1800
Vset_actual_ota_seq
p1801
aVload_image
p1802
atp1803
a(L1868897605L
L3785322319L
(lp1804
(lp1805
Vlog_invalid_app_partition
p1806
atp1807
a(L3335942427L
L0L
(lp1808
(lp1809
tp1810
a(L3305857427L
L0L
(lp1811
(lp1812
tp1813
a(L2528911837L
L3785322319L
(lp1814
(lp1815
Vtry_load_partition
p1816
atp1817
a(L477941458L
L1880226080L
(lp1818
(lp1819
Vesp_log_early_timestamp
p1820
aVload_image
p1821
atp1822
a(L1699416426L
L1880226080L
(lp1823
(lp1824
Vesp_log_early_timestamp
p1825
aVbootloader_reset
p1826
atp1827
atp1828
sI1074242428
(Vverify_simple_hash
p1829
(lp1830
(L1498278627L
L1832448559L
(lp1831
(lp1832
Vbootloader_sha256_finish
p1833
aVdebug_log_hash
p1834
aVbootloader_mmap
p1835
atp1836
a(L814089951L
L1832448559L
(lp1837
(lp1838
Vesp_log_early_timestamp
p1839
aVdebug_log_hash
p1840
aVbootloader_munmap
p1841
atp1842
a(L1606099250L
L3785322319L
(lp1843
(lp1844
Vbootloader_munmap
p1845
atp1846
atp1847
sI1074270324
(Vrtc_clk_slow_freq_get_hz
p1848
(lp1849
(L2601977293L
L3785322319L
(lp1850
(lp1851
Vrtc_clk_slow_freq_get
p1852
atp1853
a(L2902417580L
L0L
(lp1854
(lp1855
tp1856
a(L3020187L
L0L
(lp1857
(lp1858
tp1859
a(L106L
L0L
(lp1860
(lp1861
tp1862
a(L1820093882L
L0L
(lp1863
(lp1864
tp1865
a(L583093929L
L0L
(lp1866
(lp1867
tp1868
a(L2993202392L
L0L
(lp1869
(lp1870
tp1871
a(L1075141310L
L0L
(lp1872
(lp1873
tp1874
atp1875
sI1074240632
(Vindex_to_partition
p1876
(lp1877
(L4066096119L
L0L
(lp1878
(lp1879
tp1880
a(L937847257L
L0L
(lp1881
(lp1882
tp1883
a(L2808906342L
L0L
(lp1884
(lp1885
tp1886
a(L1765918994L
L0L
(lp1887
(lp1888
tp1889
a(L2808826781L
L0L
(lp1890
(lp1891
tp1892
a(L2911029954L
L0L
(lp1893
(lp1894
tp1895
a(L2511483031L
L0L
(lp1896
(lp1897
tp1898
a(L1984670054L
L0L
(lp1899
(lp1900
tp1901
a(L3698927993L
L0L
(lp1902
(lp1903
tp1904
atp1905
sI1074243960
(Vesp_rom_spiflash_read_status
p1906
(lp1907
(L112105960L
L0L
(lp1908
(lp1909
tp1910
a(L106L
L0L
(lp1911
(lp1912
tp1913
a(L1709169862L
L0L
(lp1914
(lp1915
tp1916
a(L1715204046L
L0L
(lp1917
(lp1918
tp1919
a(L3695632725L
L0L
(lp1920
(lp1921
tp1922
a(L4159619641L
L0L
(lp1923
(lp1924
tp1925
a(L106L
L0L
(lp1926
(lp1927
tp1928
a(L2351135340L
L0L
(lp1929
(lp1930
tp1931
a(L4159619641L
L0L
(lp1932
(lp1933
tp1934
a(L2392720019L
L0L
(lp1935
(lp1936
tp1937
atp1938
sI1074268552
(Vuart_console_configure
p1939
(lp1940
(L854943876L
L0L
(lp1941
(lp1942
tp1943
a(L4147761415L
L0L
(lp1944
(lp1945
tp1946
a(L1432228188L
L3785322319L
(lp1947
(lp1948
Vrtc_clk_apb_freq_get
p1949
atp1950
atp1951
sI1074273160
(Vrtc_clk_cal_ratio
p1952
(lp1953
(L1747571394L
L1880226080L
(lp1954
(lp1955
Vrtc_clk_cal_internal
p1956
aV__udivdi3
p1957
atp1958
atp1959
sI1074241668
(Vverify_load_addresses
p1960
(lp1961
(L2763563698L
L0L
(lp1962
(lp1963
tp1964
a(L106L
L0L
(lp1965
(lp1966
tp1967
a(L97642L
L0L
(lp1968
(lp1969
tp1970
a(L7017171L
L3785322319L
(lp1971
(lp1972
V__assert_func
p1973
atp1974
a(L4000980610L
L0L
(lp1975
(lp1976
tp1977
a(L106L
L0L
(lp1978
(lp1979
tp1980
a(L2135626914L
L0L
(lp1981
(lp1982
tp1983
a(L106L
L0L
(lp1984
(lp1985
tp1986
a(L2848628730L
L0L
(lp1987
(lp1988
tp1989
a(L1182990556L
L0L
(lp1990
(lp1991
tp1992
a(L1322742497L
L0L
(lp1993
(lp1994
tp1995
a(L2306437309L
L0L
(lp1996
(lp1997
tp1998
a(L93892250L
L0L
(lp1999
(lp2000
tp2001
a(L106L
L0L
(lp2002
(lp2003
tp2004
a(L2480306296L
L0L
(lp2005
(lp2006
tp2007
a(L2258867228L
L0L
(lp2008
(lp2009
tp2010
a(L322238992L
L0L
(lp2011
(lp2012
tp2013
a(L2258897019L
L0L
(lp2014
(lp2015
tp2016
a(L93892250L
L0L
(lp2017
(lp2018
tp2019
a(L106L
L0L
(lp2020
(lp2021
tp2022
a(L3028481L
L0L
(lp2023
(lp2024
tp2025
a(L497616802L
L0L
(lp2026
(lp2027
tp2028
a(L2258807646L
L0L
(lp2029
(lp2030
tp2031
a(L3425187488L
L0L
(lp2032
(lp2033
tp2034
a(L2258867228L
L0L
(lp2035
(lp2036
tp2037
a(L3016266L
L0L
(lp2038
(lp2039
tp2040
a(L106L
L0L
(lp2041
(lp2042
tp2043
a(L524464942L
L0L
(lp2044
(lp2045
tp2046
a(L714262439L
L0L
(lp2047
(lp2048
tp2049
a(L3200754878L
L0L
(lp2050
(lp2051
tp2052
a(L1769229423L
L0L
(lp2053
(lp2054
tp2055
a(L1556778961L
L0L
(lp2056
(lp2057
tp2058
a(L952241675L
L0L
(lp2059
(lp2060
tp2061
a(L97472L
L0L
(lp2062
(lp2063
tp2064
a(L2680290961L
L3785322319L
(lp2065
(lp2066
Vverify_load_addresses
p2067
atp2068
a(L3856589209L
L3785322319L
(lp2069
(lp2070
Vverify_load_addresses
p2071
atp2072
a(L3985852354L
L0L
(lp2073
(lp2074
tp2075
a(L106L
L0L
(lp2076
(lp2077
tp2078
a(L547279012L
L0L
(lp2079
(lp2080
tp2081
a(L106L
L0L
(lp2082
(lp2083
tp2084
a(L2482034174L
L0L
(lp2085
(lp2086
tp2087
a(L2258867228L
L0L
(lp2088
(lp2089
tp2090
a(L323966870L
L0L
(lp2091
(lp2092
tp2093
a(L2258897019L
L0L
(lp2094
(lp2095
tp2096
a(L93892250L
L0L
(lp2097
(lp2098
tp2099
a(L106L
L0L
(lp2100
(lp2101
tp2102
a(L3028481L
L0L
(lp2103
(lp2104
tp2105
a(L498182831L
L0L
(lp2106
(lp2107
tp2108
a(L2258807646L
L0L
(lp2109
(lp2110
tp2111
a(L3425664144L
L0L
(lp2112
(lp2113
tp2114
a(L2258867228L
L0L
(lp2115
(lp2116
tp2117
a(L3016266L
L0L
(lp2118
(lp2119
tp2120
a(L106L
L0L
(lp2121
(lp2122
tp2123
a(L3199674524L
L0L
(lp2124
(lp2125
tp2126
a(L2018608855L
L0L
(lp2127
(lp2128
tp2129
a(L3200754862L
L0L
(lp2130
(lp2131
tp2132
a(L149471709L
L0L
(lp2133
(lp2134
tp2135
a(L903234305L
L0L
(lp2136
(lp2137
tp2138
a(L952241683L
L0L
(lp2139
(lp2140
tp2141
a(L97472L
L0L
(lp2142
(lp2143
tp2144
a(L2680290961L
L3785322319L
(lp2145
(lp2146
Vverify_load_addresses
p2147
atp2148
a(L3856589209L
L3785322319L
(lp2149
(lp2150
Vverify_load_addresses
p2151
atp2152
a(L2049074773L
L0L
(lp2153
(lp2154
tp2155
a(L2822527168L
L0L
(lp2156
(lp2157
tp2158
a(L2094339281L
L0L
(lp2159
(lp2160
tp2161
a(L2867791676L
L0L
(lp2162
(lp2163
tp2164
a(L640124550L
L0L
(lp2165
(lp2166
tp2167
a(L2031820249L
L0L
(lp2168
(lp2169
tp2170
a(L826402262L
L0L
(lp2171
(lp2172
tp2173
a(L826402634L
L0L
(lp2174
(lp2175
tp2176
a(L826402014L
L0L
(lp2177
(lp2178
tp2179
a(L826402138L
L0L
(lp2180
(lp2181
tp2182
a(L2104868116L
L0L
(lp2183
(lp2184
tp2185
a(L3020204L
L0L
(lp2186
(lp2187
tp2188
a(L1409683440L
L3785322319L
(lp2189
(lp2190
Vesp_log_early_timestamp
p2191
atp2192
a(L3880706073L
L0L
(lp2193
(lp2194
tp2195
a(L3880706073L
L0L
(lp2196
(lp2197
tp2198
a(L3880706073L
L0L
(lp2199
(lp2200
tp2201
a(L3880706073L
L0L
(lp2202
(lp2203
tp2204
a(L3880706073L
L0L
(lp2205
(lp2206
tp2207
a(L3880706073L
L0L
(lp2208
(lp2209
tp2210
a(L3880706073L
L0L
(lp2211
(lp2212
tp2213
a(L3880706073L
L0L
(lp2214
(lp2215
tp2216
a(L2993202392L
L0L
(lp2217
(lp2218
tp2219
atp2220
sI1074244740
(Vesp_rom_spiflash_write_status
p2221
(lp2222
(L2161108584L
L3785322319L
(lp2223
(lp2224
Vesp_rom_spiflash_wait_idle
p2225
atp2226
a(L3708374670L
L0L
(lp2227
(lp2228
tp2229
a(L1387965403L
L3785322319L
(lp2230
(lp2231
Vesp_rom_spiflash_wait_idle
p2232
atp2233
atp2234
sI1074240896
(Vbootloader_sha256_finish
p2235
(lp2236
(L4066096136L
L0L
(lp2237
(lp2238
tp2239
a(L3729330241L
L3785322319L
(lp2240
(lp2241
V__assert_func
p2242
atp2243
a(L3020204L
L0L
(lp2244
(lp2245
tp2246
a(L519274930L
L0L
(lp2247
(lp2248
tp2249
a(L2534656226L
L0L
(lp2250
(lp2251
tp2252
a(L321015369L
L0L
(lp2253
(lp2254
tp2255
a(L1247269213L
L3785322319L
(lp2256
(lp2257
V__assert_func
p2258
atp2259
a(L2175790476L
L3785322319L
(lp2260
(lp2261
Vbootloader_sha256_data
p2262
atp2263
a(L136725150L
L3785322319L
(lp2264
(lp2265
V__assert_func
p2266
atp2267
a(L3232900178L
L1880226080L
(lp2268
(lp2269
V__bswapsi2
p2270
aVbootloader_sha256_data
p2271
atp2272
a(L554347023L
L3785322319L
(lp2273
(lp2274
V__assert_func
p2275
atp2276
a(L2130116199L
L0L
(lp2277
(lp2278
tp2279
a(L696856334L
L0L
(lp2280
(lp2281
tp2282
a(L2130116199L
L0L
(lp2283
(lp2284
tp2285
a(L1299866312L
L0L
(lp2286
(lp2287
tp2288
a(L3235326776L
L3785322319L
(lp2289
(lp2290
V__bswapsi2
p2291
atp2292
a(L93837694L
L0L
(lp2293
(lp2294
tp2295
a(L3347778L
L0L
(lp2296
(lp2297
tp2298
a(L3360570486L
L0L
(lp2299
(lp2300
tp2301
atp2302
sI1074235264
(Vbootloader_flash_gpio_config
p2303
(lp2304
(L1541720566L
L0L
(lp2305
(lp2306
tp2307
a(L1299866374L
L0L
(lp2308
(lp2309
tp2310
a(L2258688485L
L0L
(lp2311
(lp2312
tp2313
a(L2999495356L
L0L
(lp2314
(lp2315
tp2316
a(L175178334L
L0L
(lp2317
(lp2318
tp2319
a(L3955219521L
L0L
(lp2320
(lp2321
tp2322
a(L2136722540L
L0L
(lp2323
(lp2324
tp2325
a(L177068915L
L0L
(lp2326
(lp2327
tp2328
a(L3111470142L
L0L
(lp2329
(lp2330
tp2331
a(L3360570486L
L0L
(lp2332
(lp2333
tp2334
atp2335
sI1074242944
(Vimage_load
p2336
(lp2337
(L2340434831L
L0L
(lp2338
(lp2339
tp2340
a(L106L
L0L
(lp2341
(lp2342
tp2343
a(L933926401L
L0L
(lp2344
(lp2345
tp2346
a(L3028464L
L0L
(lp2347
(lp2348
tp2349
a(L106L
L0L
(lp2350
(lp2351
tp2352
a(L3899222988L
L3785322319L
(lp2353
(lp2354
Vesp_log_early_timestamp
p2355
atp2356
a(L4159352654L
L3785322319L
(lp2357
(lp2358
Vbootloader_flash_read
p2359
atp2360
a(L2950861325L
L0L
(lp2361
(lp2362
tp2363
a(L2568992188L
L3785322319L
(lp2364
(lp2365
Vbootloader_sha256_start
p2366
atp2367
a(L4173212049L
L3785322319L
(lp2368
(lp2369
Vbootloader_sha256_data
p2370
atp2371
a(L2258837437L
L0L
(lp2372
(lp2373
tp2374
a(L846347405L
L3785322319L
(lp2375
(lp2376
Vverify_image_header
p2377
atp2378
a(L1980404654L
L0L
(lp2379
(lp2380
tp2381
a(L3028464L
L0L
(lp2382
(lp2383
tp2384
a(L106L
L0L
(lp2385
(lp2386
tp2387
a(L1318347320L
L3785322319L
(lp2388
(lp2389
Vesp_log_early_timestamp
p2390
atp2391
a(L2671916466L
L0L
(lp2392
(lp2393
tp2394
a(L1898485626L
L3785322319L
(lp2395
(lp2396
Vprocess_segment
p2397
atp2398
a(L3878353414L
L0L
(lp2399
(lp2400
tp2401
a(L2125973223L
L0L
(lp2402
(lp2403
tp2404
a(L499151239L
L0L
(lp2405
(lp2406
tp2407
a(L3028464L
L0L
(lp2408
(lp2409
tp2410
a(L106L
L0L
(lp2411
(lp2412
tp2413
a(L957905035L
L3785322319L
(lp2414
(lp2415
Vesp_log_early_timestamp
p2416
atp2417
a(L4041426534L
L3785322319L
(lp2418
(lp2419
Vesp_cpu_in_ocd_debug_mode
p2420
atp2421
a(L1482013975L
L3785322319L
(lp2422
(lp2423
Vverify_checksum
p2424
atp2425
a(L279608302L
L0L
(lp2426
(lp2427
tp2428
a(L3028464L
L0L
(lp2429
(lp2430
tp2431
a(L106L
L0L
(lp2432
(lp2433
tp2434
a(L607123934L
L3785322319L
(lp2435
(lp2436
Vesp_log_early_timestamp
p2437
atp2438
a(L2078070517L
L0L
(lp2439
(lp2440
tp2441
a(L3020204L
L0L
(lp2442
(lp2443
tp2444
a(L3287840219L
L3785322319L
(lp2445
(lp2446
Vesp_cpu_in_ocd_debug_mode
p2447
atp2448
a(L3045806043L
L3785322319L
(lp2449
(lp2450
Vverify_simple_hash
p2451
atp2452
a(L3020204L
L0L
(lp2453
(lp2454
tp2455
a(L3688659868L
L3785322319L
(lp2456
(lp2457
Vbootloader_sha256_finish
p2458
atp2459
a(L3230798602L
L0L
(lp2460
(lp2461
tp2462
a(L84393073L
L3785322319L
(lp2463
(lp2464
Vbootloader_mmap
p2465
atp2466
a(L4020522979L
L3785322319L
(lp2467
(lp2468
Vbootloader_munmap
p2469
atp2470
a(L3028481L
L0L
(lp2471
(lp2472
tp2473
a(L3020187L
L0L
(lp2474
(lp2475
tp2476
a(L106L
L0L
(lp2477
(lp2478
tp2479
a(L1062407658L
L0L
(lp2480
(lp2481
tp2482
a(L1066110019L
L0L
(lp2483
(lp2484
tp2485
a(L3360570486L
L0L
(lp2486
(lp2487
tp2488
a(L2814963175L
L3785322319L
(lp2489
(lp2490
Vshould_load
p2491
atp2492
a(L1299866312L
L0L
(lp2493
(lp2494
tp2495
a(L1712671152L
L0L
(lp2496
(lp2497
tp2498
a(L859692926L
L0L
(lp2499
(lp2500
tp2501
a(L1690300016L
L0L
(lp2502
(lp2503
tp2504
a(L1253273515L
L0L
(lp2505
(lp2506
tp2507
a(L1191274096L
L0L
(lp2508
(lp2509
tp2510
a(L1720234353L
L0L
(lp2511
(lp2512
tp2513
a(L2258777855L
L0L
(lp2514
(lp2515
tp2516
a(L85798113L
L0L
(lp2517
(lp2518
tp2519
a(L2993202392L
L0L
(lp2520
(lp2521
tp2522
a(L3151898214L
L0L
(lp2523
(lp2524
tp2525
a(L1304483917L
L0L
(lp2526
(lp2527
tp2528
a(L1755718488L
L0L
(lp2529
(lp2530
tp2531
a(L2258837437L
L0L
(lp2532
(lp2533
tp2534
a(L2910371777L
L0L
(lp2535
(lp2536
tp2537
a(L2104868779L
L0L
(lp2538
(lp2539
tp2540
a(L3020204L
L0L
(lp2541
(lp2542
tp2543
a(L3688659868L
L3785322319L
(lp2544
(lp2545
Vbootloader_sha256_finish
p2546
atp2547
a(L2132349133L
L0L
(lp2548
(lp2549
tp2550
a(L2079009947L
L0L
(lp2551
(lp2552
tp2553
a(L1191506266L
L0L
(lp2554
(lp2555
tp2556
a(L2993202392L
L0L
(lp2557
(lp2558
tp2559
a(L2993202392L
L0L
(lp2560
(lp2561
tp2562
atp2563
sI1074268032
(Vwdt_reset_cpu0_info_enable
p2564
(lp2565
(L3662099294L
L0L
(lp2566
(lp2567
tp2568
atp2569
sI1074270848
(Vrtc_clk_xtal_freq_get
p2570
(lp2571
(L1942735483L
L0L
(lp2572
(lp2573
tp2574
a(L2237928244L
L0L
(lp2575
(lp2576
tp2577
a(L1299866312L
L0L
(lp2578
(lp2579
tp2580
a(L1299866312L
L0L
(lp2581
(lp2582
tp2583
a(L2258688483L
L0L
(lp2584
(lp2585
tp2586
a(L2902417580L
L0L
(lp2587
(lp2588
tp2589
a(L4011777484L
L0L
(lp2590
(lp2591
tp2592
a(L2993202392L
L0L
(lp2593
(lp2594
tp2595
atp2596
sI1074272640
(Vrtc_vddsdio_set_config
p2597
(lp2598
(L414524807L
L0L
(lp2599
(lp2600
tp2601
atp2602
sI1074246028
(Vrtc_wdt_protect_off
p2603
(lp2604
(L3946267058L
L0L
(lp2605
(lp2606
tp2607
atp2608
sI1074236808
(Vbootloader_common_get_chip_revision
p2609
(lp2610
(L198853448L
L0L
(lp2611
(lp2612
tp2613
a(L3020187L
L0L
(lp2614
(lp2615
tp2616
a(L3020187L
L0L
(lp2617
(lp2618
tp2619
a(L2993202392L
L0L
(lp2620
(lp2621
tp2622
a(L473242458L
L0L
(lp2623
(lp2624
tp2625
a(L1360746139L
L0L
(lp2626
(lp2627
tp2628
a(L3880706073L
L0L
(lp2629
(lp2630
tp2631
atp2632
sI1074238088
(Vbootloader_random_enable
p2633
(lp2634
(L892023223L
L0L
(lp2635
(lp2636
tp2637
atp2638
sI1074271644
(Vrtc_clk_cpu_freq_set_config
p2639
(lp2640
(L2818367508L
L3785322319L
(lp2641
(lp2642
Vrtc_clk_xtal_freq_get
p2643
atp2644
a(L1739379997L
L1880226080L
(lp2645
(lp2646
Vrtc_clk_cpu_freq_to_xtal
p2647
aVrtc_clk_wait_for_slow_cycle
p2648
atp2649
a(L3028464L
L0L
(lp2650
(lp2651
tp2652
a(L94425498L
L3785322319L
(lp2653
(lp2654
Vrtc_clk_bbpll_disable
p2655
atp2656
a(L3978916712L
L0L
(lp2657
(lp2658
tp2659
a(L2977209154L
L0L
(lp2660
(lp2661
tp2662
a(L540421064L
L3785322319L
(lp2663
(lp2664
Vrtc_clk_cpu_freq_to_xtal
p2665
atp2666
a(L3028464L
L0L
(lp2667
(lp2668
tp2669
a(L2697686144L
L1157885199L
(lp2670
(lp2671
Vrtc_clk_bbpll_enable
p2672
aVrtc_clk_wait_for_slow_cycle
p2673
aVrtc_clk_xtal_freq_get
p2674
aVrtc_clk_bbpll_configure
p2675
aVrtc_clk_cpu_freq_to_pll_mhz
p2676
atp2677
a(L3028464L
L0L
(lp2678
(lp2679
tp2680
a(L94425498L
L3785322319L
(lp2681
(lp2682
Vrtc_clk_cpu_freq_to_8m
p2683
atp2684
a(L3360570486L
L0L
(lp2685
(lp2686
tp2687
atp2688
sI1074237072
(Vbootloader_common_select_otadata
p2689
(lp2690
(L44027793L
L0L
(lp2691
(lp2692
tp2693
a(L1238320367L
L0L
(lp2694
(lp2695
tp2696
a(L1238350425L
L0L
(lp2697
(lp2698
tp2699
a(L3063569071L
L0L
(lp2700
(lp2701
tp2702
a(L1299866312L
L0L
(lp2703
(lp2704
tp2705
a(L2902417580L
L0L
(lp2706
(lp2707
tp2708
a(L1264419299L
L0L
(lp2709
(lp2710
tp2711
a(L1542955705L
L0L
(lp2712
(lp2713
tp2714
a(L3969214161L
L0L
(lp2715
(lp2716
tp2717
a(L2993202392L
L0L
(lp2718
(lp2719
tp2720
a(L1098457408L
L0L
(lp2721
(lp2722
tp2723
a(L1770629919L
L0L
(lp2724
(lp2725
tp2726
a(L3027007L
L0L
(lp2727
(lp2728
tp2729
a(L515633988L
L0L
(lp2730
(lp2731
tp2732
a(L515633988L
L0L
(lp2733
(lp2734
tp2735
a(L2258688483L
L0L
(lp2736
(lp2737
tp2738
a(L3360570486L
L0L
(lp2739
(lp2740
tp2741
atp2742
sI1074268304
(Vprint_flash_info
p2743
(lp2744
(L2664752807L
L0L
(lp2745
(lp2746
tp2747
a(L2902417580L
L0L
(lp2748
(lp2749
tp2750
a(L3020187L
L0L
(lp2751
(lp2752
tp2753
a(L225150647L
L0L
(lp2754
(lp2755
tp2756
a(L106L
L0L
(lp2757
(lp2758
tp2759
a(L460429684L
L0L
(lp2760
(lp2761
tp2762
a(L460431017L
L0L
(lp2763
(lp2764
tp2765
a(L460430397L
L0L
(lp2766
(lp2767
tp2768
a(L460431017L
L0L
(lp2769
(lp2770
tp2771
a(L3201441202L
L0L
(lp2772
(lp2773
tp2774
a(L866427733L
L3785322319L
(lp2775
(lp2776
Vesp_log_early_timestamp
p2777
atp2778
a(L3017366L
L0L
(lp2779
(lp2780
tp2781
a(L3017366L
L0L
(lp2782
(lp2783
tp2784
a(L3017366L
L0L
(lp2785
(lp2786
tp2787
a(L3016870L
L0L
(lp2788
(lp2789
tp2790
a(L460431358L
L0L
(lp2791
(lp2792
tp2793
a(L460430645L
L0L
(lp2794
(lp2795
tp2796
a(L460430521L
L0L
(lp2797
(lp2798
tp2799
a(L460431606L
L0L
(lp2800
(lp2801
tp2802
a(L460431482L
L0L
(lp2803
(lp2804
tp2805
a(L3201441280L
L0L
(lp2806
(lp2807
tp2808
a(L3048602044L
L3785322319L
(lp2809
(lp2810
Vesp_log_early_timestamp
p2811
atp2812
a(L93674324L
L0L
(lp2813
(lp2814
tp2815
a(L3020204L
L0L
(lp2816
(lp2817
tp2818
a(L106L
L0L
(lp2819
(lp2820
tp2821
a(L3020187L
L0L
(lp2822
(lp2823
tp2824
a(L3020187L
L0L
(lp2825
(lp2826
tp2827
a(L106L
L0L
(lp2828
(lp2829
tp2830
a(L331387079L
L0L
(lp2831
(lp2832
tp2833
a(L331387203L
L0L
(lp2834
(lp2835
tp2836
a(L331388660L
L0L
(lp2837
(lp2838
tp2839
a(L331387327L
L0L
(lp2840
(lp2841
tp2842
a(L703425374L
L0L
(lp2843
(lp2844
tp2845
a(L942644739L
L3785322319L
(lp2846
(lp2847
Vesp_log_early_timestamp
p2848
atp2849
atp2850
sI1074238876
(Vlog_invalid_app_partition
p2851
(lp2852
(L3991230301L
L0L
(lp2853
(lp2854
tp2855
a(L3028464L
L0L
(lp2856
(lp2857
tp2858
a(L2200570362L
L3785322319L
(lp2859
(lp2860
Vesp_log_early_timestamp
p2861
atp2862
a(L1792603454L
L3785322319L
(lp2863
(lp2864
Vesp_log_early_timestamp
p2865
atp2866
a(L3866681960L
L3785322319L
(lp2867
(lp2868
Vesp_log_early_timestamp
p2869
atp2870
atp2871
sI1074237596
(Vbootloader_munmap
p2872
(lp2873
(L3257303249L
L0L
(lp2874
(lp2875
tp2876
a(L4275226750L
L0L
(lp2877
(lp2878
tp2879
a(L3360570486L
L0L
(lp2880
(lp2881
tp2882
atp2883
sI1074246044
(Vrtc_wdt_protect_on
p2884
(lp2885
(L409754545L
L0L
(lp2886
(lp2887
tp2888
atp2889
sI1074268072
(Vwdt_reset_info_dump
p2890
(lp2891
(L1642351636L
L0L
(lp2892
(lp2893
tp2894
a(L460423918L
L0L
(lp2895
(lp2896
tp2897
a(L3201441063L
L0L
(lp2898
(lp2899
tp2900
a(L3028481L
L0L
(lp2901
(lp2902
tp2903
a(L3486670486L
L0L
(lp2904
(lp2905
tp2906
a(L3274622494L
L0L
(lp2907
(lp2908
tp2909
a(L1413004396L
L0L
(lp2910
(lp2911
tp2912
a(L1550379252L
L0L
(lp2913
(lp2914
tp2915
a(L4004427021L
L3785322319L
(lp2916
(lp2917
Vesp_log_early_timestamp
p2918
atp2919
a(L1148072953L
L3785322319L
(lp2920
(lp2921
Vesp_log_early_timestamp
p2922
atp2923
atp2924
sI1074271400
(Vrtc_clk_cpu_freq_to_pll_mhz
p2925
(lp2926
(L3639301015L
L0L
(lp2927
(lp2928
tp2929
a(L1541996779L
L0L
(lp2930
(lp2931
tp2932
a(L1546614651L
L0L
(lp2933
(lp2934
tp2935
a(L1960735467L
L0L
(lp2936
(lp2937
tp2938
a(L1941990108L
L1880226080L
(lp2939
(lp2940
Vesp_log_early_timestamp
p2941
aVabort
p2942
atp2943
a(L3546033543L
L0L
(lp2944
(lp2945
tp2946
a(L3307832802L
L0L
(lp2947
(lp2948
tp2949
a(L3325866111L
L1880226080L
(lp2950
(lp2951
Vrtc_clk_apb_freq_update
p2952
aVrtc_clk_wait_for_slow_cycle
p2953
atp2954
atp2955
sI1074273192
(Vrtc_clk_wait_for_slow_cycle
p2956
(lp2957
(L1899322733L
L0L
(lp2958
(lp2959
tp2960
a(L48854518L
L0L
(lp2961
(lp2962
tp2963
a(L1543671396L
L0L
(lp2964
(lp2965
tp2966
a(L3360570486L
L0L
(lp2967
(lp2968
tp2969
atp2970
sI1074245024
(Vesp_rom_spiflash_write
p2971
(lp2972
(L2204199436L
L0L
(lp2973
(lp2974
tp2975
a(L106L
L0L
(lp2976
(lp2977
tp2978
a(L3549162722L
L0L
(lp2979
(lp2980
tp2981
a(L4152697687L
L3785322319L
(lp2982
(lp2983
Vesp_rom_spiflash_program_page_internal
p2984
atp2985
a(L3880706073L
L0L
(lp2986
(lp2987
tp2988
a(L657579730L
L3785322319L
(lp2989
(lp2990
Vesp_rom_spiflash_program_page_internal
p2991
atp2992
a(L4167669618L
L0L
(lp2993
(lp2994
tp2995
a(L4129965264L
L3785322319L
(lp2996
(lp2997
Vesp_rom_spiflash_program_page_internal
p2998
atp2999
a(L1130003055L
L0L
(lp3000
(lp3001
tp3002
a(L4159629294L
L0L
(lp3003
(lp3004
tp3005
a(L387804209L
L3785322319L
(lp3006
(lp3007
Vesp_rom_spiflash_program_page_internal
p3008
atp3009
a(L3880706073L
L0L
(lp3010
(lp3011
tp3012
a(L3880706073L
L0L
(lp3013
(lp3014
tp3015
a(L3880706073L
L0L
(lp3016
(lp3017
tp3018
a(L2258688483L
L0L
(lp3019
(lp3020
tp3021
a(L3360570486L
L0L
(lp3022
(lp3023
tp3024
atp3025
sI1074269856
(Vrtc_clk_bbpll_enable
p3026
(lp3027
(L1668767418L
L0L
(lp3028
(lp3029
tp3030
atp3031
sI1074270368
(Vrtc_clk_fast_freq_set
p3032
(lp3033
(L1533403675L
L0L
(lp3034
(lp3035
tp3036
atp3037
sI1074271904
(Vrtc_clk_init
p3038
(lp3039
(L2280137769L
L0L
(lp3040
(lp3041
tp3042
a(L2549152574L
L3785322319L
(lp3043
(lp3044
Vrtc_clk_cpu_freq_to_xtal
p3045
atp3046
a(L2120357134L
L0L
(lp3047
(lp3048
tp3049
a(L4002945461L
L0L
(lp3050
(lp3051
tp3052
a(L3224614952L
L0L
(lp3053
(lp3054
tp3055
a(L1299866312L
L0L
(lp3056
(lp3057
tp3058
a(L1299866312L
L0L
(lp3059
(lp3060
tp3061
a(L1182811811L
L0L
(lp3062
(lp3063
tp3064
a(L3020204L
L0L
(lp3065
(lp3066
tp3067
a(L1849746773L
L3785322319L
(lp3068
(lp3069
Vrtc_clk_xtal_freq_get
p3070
atp3071
a(L1375577398L
L3785322319L
(lp3072
(lp3073
Vrtc_clk_xtal_freq_estimate
p3074
atp3075
a(L2330171938L
L3785322319L
(lp3076
(lp3077
Vesp_log_early_timestamp
p3078
atp3079
a(L3356161546L
L0L
(lp3080
(lp3081
tp3082
a(L4233392623L
L0L
(lp3083
(lp3084
tp3085
a(L1300789833L
L0L
(lp3086
(lp3087
tp3088
a(L1300789833L
L0L
(lp3089
(lp3090
tp3091
a(L2258718274L
L0L
(lp3092
(lp3093
tp3094
a(L3028481L
L0L
(lp3095
(lp3096
tp3097
a(L3183127930L
L3785322319L
(lp3098
(lp3099
Vrtc_clk_xtal_freq_estimate
p3100
atp3101
a(L2234109587L
L3785322319L
(lp3102
(lp3103
Vesp_log_early_timestamp
p3104
atp3105
a(L4147761415L
L0L
(lp3106
(lp3107
tp3108
a(L4086038297L
L2485746240L
(lp3109
(lp3110
Vrtc_clk_xtal_freq_update
p3111
aVrtc_clk_apb_freq_update
p3112
aVrtc_clk_cpu_freq_get_config
p3113
aVrtc_clk_cpu_freq_mhz_to_config
p3114
atp3115
a(L342055289L
L1880226080L
(lp3116
(lp3117
Vesp_log_early_timestamp
p3118
aVabort
p3119
atp3120
a(L3168787669L
L3785322319L
(lp3121
(lp3122
Vrtc_clk_cpu_freq_set_config
p3123
atp3124
a(L3804637084L
L3785322319L
(lp3125
(lp3126
Vrtc_clk_32k_enable
p3127
atp3128
a(L3016870L
L0L
(lp3129
(lp3130
tp3131
a(L3530680725L
L3785322319L
(lp3132
(lp3133
Vrtc_clk_8m_enable
p3134
atp3135
a(L530469956L
L1880226080L
(lp3136
(lp3137
Vrtc_clk_fast_freq_set
p3138
aVrtc_clk_slow_freq_set
p3139
atp3140
atp3141
sI1074246060
(Vrtc_wdt_enable
p3142
(lp3143
(L3145061365L
L0L
(lp3144
(lp3145
tp3146
atp3147
sI1074239144
(Vset_actual_ota_seq
p3148
(lp3149
(L4094723830L
L0L
(lp3150
(lp3151
tp3152
a(L2837627603L
L0L
(lp3153
(lp3154
tp3155
a(L1545243494L
L3785322319L
(lp3156
(lp3157
Vbootloader_common_ota_select_crc
p3158
atp3159
a(L3016870L
L0L
(lp3160
(lp3161
tp3162
a(L1312346502L
L0L
(lp3163
(lp3164
tp3165
a(L1139269215L
L0L
(lp3166
(lp3167
tp3168
a(L3028481L
L0L
(lp3169
(lp3170
tp3171
a(L1485638071L
L1880226080L
(lp3172
(lp3173
Vwrite_otadata
p3174
aVesp_log_early_timestamp
p3175
atp3176
a(L3360570486L
L0L
(lp3177
(lp3178
tp3179
atp3180
sI1074270904
(Vrtc_clk_cpu_freq_mhz_to_config
p3181
(lp3182
(L2601984125L
L3785322319L
(lp3183
(lp3184
Vrtc_clk_xtal_freq_get
p3185
atp3186
a(L608772507L
L0L
(lp3187
(lp3188
tp3189
a(L3263839434L
L0L
(lp3190
(lp3191
tp3192
a(L2762074623L
L0L
(lp3193
(lp3194
tp3195
a(L1541996779L
L0L
(lp3196
(lp3197
tp3198
a(L1546614651L
L0L
(lp3199
(lp3200
tp3201
a(L1555485793L
L0L
(lp3202
(lp3203
tp3204
a(L1695987314L
L0L
(lp3205
(lp3206
tp3207
a(L3652406074L
L0L
(lp3208
(lp3209
tp3210
a(L260454862L
L0L
(lp3211
(lp3212
tp3213
a(L2993202392L
L0L
(lp3214
(lp3215
tp3216
a(L2993202392L
L0L
(lp3217
(lp3218
tp3219
atp3220
sI1074237360
(Vbootloader_flash_read_no_decrypt
p3221
(lp3222
(L1264233432L
L1880226080L
(lp3223
(lp3224
Vesp_rom_spiflash_read
p3225
aVspi_to_esp_err
p3226
atp3227
atp3228
sI1074244792
(Vesp_rom_spiflash_unlock
p3229
(lp3230
(L3388971380L
L1880226080L
(lp3231
(lp3232
Vesp_rom_spiflash_wait_idle
p3233
aVesp_rom_spiflash_read_statushigh
p3234
atp3235
a(L3810816915L
L3785322319L
(lp3236
(lp3237
Vesp_rom_spiflash_wait_idle
p3238
atp3239
a(L1715204046L
L0L
(lp3240
(lp3241
tp3242
a(L1465563842L
L1832448559L
(lp3243
(lp3244
Vesp_rom_spiflash_wait_idle
p3245
aVesp_rom_spiflash_write_status
p3246
aVesp_rom_spiflash_wait_idle
p3247
atp3248
a(L1715204046L
L0L
(lp3249
(lp3250
tp3251
a(L3360570486L
L0L
(lp3252
(lp3253
tp3254
a(L3880706073L
L0L
(lp3255
(lp3256
tp3257
atp3258
sI1074271176
(Vrtc_clk_xtal_freq_update
p3259
(lp3260
(L2169616370L
L0L
(lp3261
(lp3262
tp3263
a(L3509357017L
L0L
(lp3264
(lp3265
tp3266
a(L3713738772L
L0L
(lp3267
(lp3268
tp3269
atp3270
sI1074272712
(Vrtc_clk_cal_internal
p3271
(lp3272
(L4188371446L
L0L
(lp3273
(lp3274
tp3275
a(L3563035634L
L3785322319L
(lp3276
(lp3277
V__assert_func
p3278
atp3279
a(L254323063L
L0L
(lp3280
(lp3281
tp3282
a(L54215059L
L0L
(lp3283
(lp3284
tp3285
a(L3028464L
L0L
(lp3286
(lp3287
tp3288
a(L824571122L
L0L
(lp3289
(lp3290
tp3291
a(L772609322L
L0L
(lp3292
(lp3293
tp3294
a(L3778615171L
L0L
(lp3295
(lp3296
tp3297
a(L97422L
L0L
(lp3298
(lp3299
tp3300
a(L571614780L
L0L
(lp3301
(lp3302
tp3303
a(L3900123092L
L0L
(lp3304
(lp3305
tp3306
a(L3900121759L
L0L
(lp3307
(lp3308
tp3309
a(L3900121759L
L0L
(lp3310
(lp3311
tp3312
a(L3900123092L
L0L
(lp3313
(lp3314
tp3315
a(L3450946343L
L0L
(lp3316
(lp3317
tp3318
a(L2803305658L
L1880226080L
(lp3319
(lp3320
V__udivdi3
p3321
aVrtc_clk_xtal_freq_get
p3322
atp3323
a(L1610443417L
L0L
(lp3324
(lp3325
tp3326
a(L1514237721L
L0L
(lp3327
(lp3328
tp3329
a(L1966280272L
L3785322319L
(lp3330
(lp3331
Vesp_log_early_timestamp
p3332
atp3333
a(L3880349718L
L0L
(lp3334
(lp3335
tp3336
a(L176874718L
L0L
(lp3337
(lp3338
tp3339
a(L1543671892L
L0L
(lp3340
(lp3341
tp3342
a(L3021737L
L0L
(lp3343
(lp3344
tp3345
a(L3530356672L
L0L
(lp3346
(lp3347
tp3348
a(L1471169863L
L0L
(lp3349
(lp3350
tp3351
a(L2902417580L
L0L
(lp3352
(lp3353
tp3354
a(L1901936961L
L0L
(lp3355
(lp3356
tp3357
a(L2993202392L
L0L
(lp3358
(lp3359
tp3360
atp3361
sI1074234564
(Vbootloader_init_flash_configure
p3362
(lp3363
(L2326466312L
L1832448559L
(lp3364
(lp3365
Vbootloader_flash_gpio_config
p3366
aVbootloader_flash_dummy_config
p3367
aVbootloader_flash_cs_timing_config
p3368
atp3369
atp3370
sI1074245316
(Vesp_rom_spiflash_read
p3371
(lp3372
(L2004870068L
L0L
(lp3373
(lp3374
tp3375
a(L3094408135L
L0L
(lp3376
(lp3377
tp3378
a(L3017366L
L0L
(lp3379
(lp3380
tp3381
a(L106L
L0L
(lp3382
(lp3383
tp3384
a(L1618789147L
L0L
(lp3385
(lp3386
tp3387
a(L106L
L0L
(lp3388
(lp3389
tp3390
a(L3668347057L
L0L
(lp3391
(lp3392
tp3393
a(L1569765500L
L0L
(lp3394
(lp3395
tp3396
a(L3873780000L
L0L
(lp3397
(lp3398
tp3399
a(L3016870L
L0L
(lp3400
(lp3401
tp3402
a(L1820526612L
L0L
(lp3403
(lp3404
tp3405
a(L3016870L
L0L
(lp3406
(lp3407
tp3408
a(L3001761151L
L0L
(lp3409
(lp3410
tp3411
a(L2724395487L
L0L
(lp3412
(lp3413
tp3414
a(L1914716311L
L0L
(lp3415
(lp3416
tp3417
a(L2102685007L
L0L
(lp3418
(lp3419
tp3420
a(L4118914098L
L0L
(lp3421
(lp3422
tp3423
a(L3166389496L
L0L
(lp3424
(lp3425
tp3426
a(L3844535225L
L0L
(lp3427
(lp3428
tp3429
a(L855996764L
L3785322319L
(lp3430
(lp3431
Vesp_rom_spiflash_read_data
p3432
atp3433
a(L1298875774L
L0L
(lp3434
(lp3435
tp3436
a(L735741265L
L0L
(lp3437
(lp3438
tp3439
atp3440
sI1074268876
(Vbootloader_main
p3441
(lp3442
(L4107727418L
L1832448559L
(lp3443
(lp3444
Vbootloader_common_vddsdio_configure
p3445
aVbootloader_read_flash_id
p3446
aVbootloader_flash_read
p3447
atp3448
a(L761908273L
L3785322319L
(lp3449
(lp3450
Vesp_log_early_timestamp
p3451
atp3452
a(L1778391864L
L1832448559L
(lp3453
(lp3454
Vbootloader_common_get_chip_revision
p3455
aVesp_log_early_timestamp
p3456
aVbootloader_common_check_chip_validity
p3457
atp3458
a(L2648226535L
L2794580271L
(lp3459
(lp3460
Vbootloader_init_flash_configure
p3461
aVbootloader_clock_configure
p3462
aVuart_console_configure
p3463
aVwdt_reset_check
p3464
aVesp_log_early_timestamp
p3465
aVesp_log_early_timestamp
p3466
aVrtc_wdt_protect_off
p3467
aVrtc_wdt_disable
p3468
aVrtc_wdt_set_length_of_reset_signal
p3469
aVrtc_wdt_set_length_of_reset_signal
p3470
aVrtc_wdt_set_stage
p3471
aVrtc_wdt_set_time
p3472
aVrtc_wdt_enable
p3473
aVrtc_wdt_protect_on
p3474
aVesp_rom_spiflash_unlock
p3475
aVesp_log_early_timestamp
p3476
aVbootloader_random_enable
p3477
aVprint_flash_info
p3478
aVupdate_flash_config
p3479
atp3480
a(L515633988L
L0L
(lp3481
(lp3482
tp3483
atp3484
sI1074270412
(Vrtc_clk_fast_freq_get
p3485
(lp3486
(L775988682L
L0L
(lp3487
(lp3488
tp3489
atp3490
sI1074240704
(Vcheck_anti_rollback
p3491
(lp3492
(L786711473L
L0L
(lp3493
(lp3494
tp3495
atp3496
sI1074242240
(Vprocess_segment_data
p3497
(lp3498
(L3236683529L
L3785322319L
(lp3499
(lp3500
Vbootloader_mmap
p3501
atp3502
a(L1497583147L
L3785322319L
(lp3503
(lp3504
Vesp_log_early_timestamp
p3505
atp3506
a(L3139609965L
L3785322319L
(lp3507
(lp3508
Vbootloader_fill_random
p3509
atp3510
a(L1062407658L
L0L
(lp3511
(lp3512
tp3513
a(L1066101742L
L0L
(lp3514
(lp3515
tp3516
a(L1299866312L
L0L
(lp3517
(lp3518
tp3519
a(L2008416411L
L0L
(lp3520
(lp3521
tp3522
a(L127299853L
L0L
(lp3523
(lp3524
tp3525
a(L859692926L
L0L
(lp3526
(lp3527
tp3528
a(L1690300016L
L0L
(lp3529
(lp3530
tp3531
a(L4117779536L
L0L
(lp3532
(lp3533
tp3534
a(L2902417580L
L0L
(lp3535
(lp3536
tp3537
a(L2505185480L
L0L
(lp3538
(lp3539
tp3540
a(L3094078540L
L3785322319L
(lp3541
(lp3542
Vbootloader_sha256_data
p3543
atp3544
a(L1770629922L
L0L
(lp3545
(lp3546
tp3547
a(L3896226538L
L0L
(lp3548
(lp3549
tp3550
a(L1564127900L
L3785322319L
(lp3551
(lp3552
Vbootloader_munmap
p3553
atp3554
atp3555
sI1074268608
(Vwdt_reset_check
p3556
(lp3557
(L1022302856L
L0L
(lp3558
(lp3559
tp3560
a(L3020187L
L0L
(lp3561
(lp3562
tp3563
a(L367582592L
L0L
(lp3564
(lp3565
tp3566
a(L367642441L
L0L
(lp3567
(lp3568
tp3569
a(L2005476781L
L3785322319L
(lp3570
(lp3571
Vesp_log_early_timestamp
p3572
atp3573
a(L1298905564L
L0L
(lp3574
(lp3575
tp3576
a(L1465910262L
L0L
(lp3577
(lp3578
tp3579
a(L3020187L
L0L
(lp3580
(lp3581
tp3582
a(L225031483L
L0L
(lp3583
(lp3584
tp3585
a(L225091332L
L0L
(lp3586
(lp3587
tp3588
a(L2354305992L
L3785322319L
(lp3589
(lp3590
Vesp_log_early_timestamp
p3591
atp3592
a(L3020204L
L0L
(lp3593
(lp3594
tp3595
a(L1944713791L
L1880226080L
(lp3596
(lp3597
Vwdt_reset_info_dump
p3598
aVwdt_reset_info_dump
p3599
atp3600
a(L3738038928L
L3785322319L
(lp3601
(lp3602
Vwdt_reset_cpu0_info_enable
p3603
atp3604
atp3605
sI1074240712
(Vbootloader_sha256_start
p3606
(lp3607
(L3645199537L
L0L
(lp3608
(lp3609
tp3610
atp3611
sI1074237652
(Vbootloader_flash_read
p3612
(lp3613
(L1127605422L
L0L
(lp3614
(lp3615
tp3616
a(L1829235751L
L3785322319L
(lp3617
(lp3618
Vesp_log_early_timestamp
p3619
atp3620
a(L899934477L
L0L
(lp3621
(lp3622
tp3623
a(L8604881L
L3785322319L
(lp3624
(lp3625
Vesp_log_early_timestamp
p3626
atp3627
a(L2696885836L
L0L
(lp3628
(lp3629
tp3630
a(L3942947446L
L3785322319L
(lp3631
(lp3632
Vesp_log_early_timestamp
p3633
atp3634
a(L3020204L
L0L
(lp3635
(lp3636
tp3637
a(L3807724270L
L3785322319L
(lp3638
(lp3639
Vbootloader_flash_read_allow_decrypt
p3640
atp3641
a(L1959236078L
L3785322319L
(lp3642
(lp3643
Vbootloader_flash_read_no_decrypt
p3644
atp3645
atp3646
sI1074269660
(Vrtc_clk_32k_enable_common
p3647
(lp3648
(L2901627576L
L0L
(lp3649
(lp3650
tp3651
atp3652
sI1074270428
(Vrtc_clk_bbpll_configure
p3653
(lp3654
(L4270275352L
L0L
(lp3655
(lp3656
tp3657
a(L106L
L0L
(lp3658
(lp3659
tp3660
a(L1956606702L
L0L
(lp3661
(lp3662
tp3663
a(L83268344L
L0L
(lp3664
(lp3665
tp3666
a(L82345090L
L0L
(lp3667
(lp3668
tp3669
a(L106L
L0L
(lp3670
(lp3671
tp3672
a(L1874018433L
L0L
(lp3673
(lp3674
tp3675
a(L1968451090L
L0L
(lp3676
(lp3677
tp3678
a(L1534915856L
L0L
(lp3679
(lp3680
tp3681
a(L1310424409L
L0L
(lp3682
(lp3683
tp3684
a(L1198602184L
L0L
(lp3685
(lp3686
tp3687
a(L1381371049L
L0L
(lp3688
(lp3689
tp3690
a(L83268344L
L0L
(lp3691
(lp3692
tp3693
a(L82345090L
L0L
(lp3694
(lp3695
tp3696
a(L106L
L0L
(lp3697
(lp3698
tp3699
a(L294729621L
L0L
(lp3700
(lp3701
tp3702
a(L2738194110L
L0L
(lp3703
(lp3704
tp3705
a(L1534915856L
L0L
(lp3706
(lp3707
tp3708
a(L1335254829L
L0L
(lp3709
(lp3710
tp3711
a(L606751632L
L0L
(lp3712
(lp3713
tp3714
a(L852204831L
L3785322319L
(lp3715
(lp3716
Vrtc_clk_slow_freq_get
p3717
atp3718
a(L2679108412L
L0L
(lp3719
(lp3720
tp3721
a(L2780081410L
L0L
(lp3722
(lp3723
tp3724
a(L144339109L
L0L
(lp3725
(lp3726
tp3727
atp3728
sI1074235088
(Vexecute_flash_command
p3729
(lp3730
(L2909450247L
L3785322319L
(lp3731
(lp3732
Vbootloader_flash_execute_command_common
p3733
atp3734
atp3735
sI1074241232
(Vshould_map
p3736
(lp3737
(L366535184L
L0L
(lp3738
(lp3739
tp3740
a(L1182990556L
L0L
(lp3741
(lp3742
tp3743
a(L1721317317L
L0L
(lp3744
(lp3745
tp3746
a(L1182990556L
L0L
(lp3747
(lp3748
tp3749
a(L1387712984L
L0L
(lp3750
(lp3751
tp3752
atp3753
sI1074240732
(Vbootloader_sha256_data
p3754
(lp3755
(L4037466985L
L0L
(lp3756
(lp3757
tp3758
a(L977687295L
L3785322319L
(lp3759
(lp3760
V__assert_func
p3761
atp3762
a(L2660352519L
L0L
(lp3763
(lp3764
tp3765
a(L1772659931L
L3785322319L
(lp3766
(lp3767
V__assert_func
p3768
atp3769
a(L66409669L
L0L
(lp3770
(lp3771
tp3772
a(L2746210212L
L0L
(lp3773
(lp3774
tp3775
a(L2130124493L
L0L
(lp3776
(lp3777
tp3778
a(L106L
L0L
(lp3779
(lp3780
tp3781
a(L3598343587L
L3785322319L
(lp3782
(lp3783
V__bswapsi2
p3784
atp3785
a(L3027019L
L0L
(lp3786
(lp3787
tp3788
a(L505666103L
L0L
(lp3789
(lp3790
tp3791
a(L3028464L
L0L
(lp3792
(lp3793
tp3794
a(L3287773641L
L0L
(lp3795
(lp3796
tp3797
a(L927972437L
L0L
(lp3798
(lp3799
tp3800
a(L3028481L
L0L
(lp3801
(lp3802
tp3803
a(L3360570486L
L0L
(lp3804
(lp3805
tp3806
atp3807
sI1074244060
(Vesp_rom_spiflash_wait_idle
p3808
(lp3809
(L287326052L
L0L
(lp3810
(lp3811
tp3812
a(L2444542658L
L0L
(lp3813
(lp3814
tp3815
a(L756531654L
L0L
(lp3816
(lp3817
tp3818
a(L855829385L
L3785322319L
(lp3819
(lp3820
Vesp_rom_spiflash_read_status
p3821
atp3822
a(L1298875774L
L0L
(lp3823
(lp3824
tp3825
a(L735741265L
L0L
(lp3826
(lp3827
tp3828
atp3829
sI1074269140
(V__assert_func
p3830
(lp3831
(L3361159364L
L3785322319L
(lp3832
(lp3833
Vesp_log_early_timestamp
p3834
atp3835
a(L106L
L0L
(lp3836
(lp3837
tp3838
atp3839
sI1074234584
(Vbootloader_flash_execute_command_common
p3840
(lp3841
(L1261224870L
L0L
(lp3842
(lp3843
tp3844
a(L2340697286L
L0L
(lp3845
(lp3846
tp3847
a(L2258748064L
L0L
(lp3848
(lp3849
tp3850
a(L3261841556L
L0L
(lp3851
(lp3852
tp3853
a(L3250406954L
L0L
(lp3854
(lp3855
tp3856
a(L3020684366L
L0L
(lp3857
(lp3858
tp3859
a(L929566513L
L0L
(lp3860
(lp3861
tp3862
a(L3745123390L
L0L
(lp3863
(lp3864
tp3865
a(L2258807646L
L0L
(lp3866
(lp3867
tp3868
a(L2021375256L
L0L
(lp3869
(lp3870
tp3871
a(L1917690936L
L0L
(lp3872
(lp3873
tp3874
a(L2258718273L
L0L
(lp3875
(lp3876
tp3877
a(L3530970620L
L0L
(lp3878
(lp3879
tp3880
a(L4280063587L
L0L
(lp3881
(lp3882
tp3883
a(L1755094872L
L0L
(lp3884
(lp3885
tp3886
a(L1294320558L
L0L
(lp3887
(lp3888
tp3889
a(L3360570486L
L0L
(lp3890
(lp3891
tp3892
atp3893
sI1074239704
(Vload_image
p3894
(lp3895
(L2527918292L
L1832448559L
(lp3896
(lp3897
Vesp_log_early_timestamp
p3898
aVbootloader_random_disable
p3899
aVunpack_load_app
p3900
atp3901
atp3902
sI1074246104
(Vrtc_wdt_set_time
p3903
(lp3904
(L607216364L
L0L
(lp3905
(lp3906
tp3907
a(L1471782262L
L1880226080L
(lp3908
(lp3909
Vrtc_clk_slow_freq_get_hz
p3910
aV__udivdi3
p3911
atp3912
a(L1243399806L
L0L
(lp3913
(lp3914
tp3915
a(L3028464L
L0L
(lp3916
(lp3917
tp3918
a(L3278533939L
L0L
(lp3919
(lp3920
tp3921
a(L3028464L
L0L
(lp3922
(lp3923
tp3924
a(L2903197294L
L0L
(lp3925
(lp3926
tp3927
a(L2114463722L
L0L
(lp3928
(lp3929
tp3930
a(L2079009947L
L0L
(lp3931
(lp3932
tp3933
atp3934
sI1074237412
(Vbootloader_mmap
p3935
(lp3936
(L525934365L
L0L
(lp3937
(lp3938
tp3939
a(L2463945795L
L3785322319L
(lp3940
(lp3941
Vesp_log_early_timestamp
p3942
atp3943
a(L73337638L
L0L
(lp3944
(lp3945
tp3946
a(L2060339797L
L3785322319L
(lp3947
(lp3948
Vesp_log_early_timestamp
p3949
atp3950
a(L3650112675L
L0L
(lp3951
(lp3952
tp3953
a(L3253120847L
L3785322319L
(lp3954
(lp3955
Vesp_log_early_timestamp
p3956
atp3957
a(L3200663919L
L0L
(lp3958
(lp3959
tp3960
atp3961
sI1074236896
(Vbootloader_common_check_chip_validity
p3962
(lp3963
(L2834967127L
L0L
(lp3964
(lp3965
tp3966
a(L3095624910L
L3785322319L
(lp3967
(lp3968
Vesp_log_early_timestamp
p3969
atp3970
a(L1182901183L
L0L
(lp3971
(lp3972
tp3973
a(L2344894839L
L3785322319L
(lp3974
(lp3975
Vbootloader_common_get_chip_revision
p3976
atp3977
a(L1421058101L
L3785322319L
(lp3978
(lp3979
Vesp_log_early_timestamp
p3980
atp3981
a(L97422L
L0L
(lp3982
(lp3983
tp3984
a(L3287840219L
L3785322319L
(lp3985
(lp3986
Vesp_log_early_timestamp
p3987
atp3988
a(L4136896670L
L0L
(lp3989
(lp3990
tp3991
a(L4151320888L
L0L
(lp3992
(lp3993
tp3994
a(L821517195L
L0L
(lp3995
(lp3996
tp3997
a(L464010095L
L0L
(lp3998
(lp3999
tp4000
atp4001
sI1074270180
(Vrtc_clk_8m_enabled
p4002
(lp4003
(L1815401759L
L0L
(lp4004
(lp4005
tp4006
atp4007
sI1074242536
(Vshould_load
p4008
(lp4009
(L3388943207L
L3785322319L
(lp4010
(lp4011
Vshould_map
p4012
atp4013
a(L932156149L
L0L
(lp4014
(lp4015
tp4016
a(L3028464L
L0L
(lp4017
(lp4018
tp4019
a(L311343067L
L0L
(lp4020
(lp4021
tp4022
a(L1766512127L
L0L
(lp4023
(lp4024
tp4025
a(L774393012L
L0L
(lp4026
(lp4027
tp4028
a(L1610443436L
L0L
(lp4029
(lp4030
tp4031
a(L1610443405L
L0L
(lp4032
(lp4033
tp4034
a(L1298875774L
L0L
(lp4035
(lp4036
tp4037
a(L735741265L
L0L
(lp4038
(lp4039
tp4040
atp4041
sI1074235112
(Vbootloader_read_flash_id
p4042
(lp4043
(L458050129L
L3785322319L
(lp4044
(lp4045
Vexecute_flash_command
p4046
atp4047
atp4048
sI1074246376
(Vrtc_wdt_disable
p4049
(lp4050
(L1233433337L
L3785322319L
(lp4051
(lp4052
Vrtc_wdt_get_protect_status
p4053
atp4054
a(L3827921190L
L3785322319L
(lp4055
(lp4056
Vrtc_wdt_protect_off
p4057
atp4058
a(L645769770L
L2485746240L
(lp4059
(lp4060
Vrtc_wdt_set_stage
p4061
aVrtc_wdt_set_stage
p4062
aVrtc_wdt_set_stage
p4063
aVrtc_wdt_set_stage
p4064
atp4065
a(L94425498L
L3785322319L
(lp4066
(lp4067
Vrtc_wdt_protect_on
p4068
atp4069
a(L3360570486L
L0L
(lp4070
(lp4071
tp4072
atp4073
sI1074271736
(Vrtc_clk_xtal_freq_estimate
p4074
(lp4075
(L2516060585L
L1880226080L
(lp4076
(lp4077
Vrtc_clk_8m_enabled
p4078
aVrtc_clk_8md256_enabled
p4079
atp4080
a(L967485502L
L3785322319L
(lp4081
(lp4082
Vrtc_clk_8m_enable
p4083
atp4084
a(L3729092618L
L1880226080L
(lp4085
(lp4086
Vrtc_clk_cal_ratio
p4087
aV__udivdi3
p4088
atp4089
a(L1761794410L
L0L
(lp4090
(lp4091
tp4092
a(L2714323457L
L3785322319L
(lp4093
(lp4094
Vesp_log_early_timestamp
p4095
atp4096
atp4097
sI1074238964
(Vread_otadata
p4098
(lp4099
(L3233392553L
L0L
(lp4100
(lp4101
tp4102
a(L2022859863L
L0L
(lp4103
(lp4104
tp4105
a(L3242087815L
L3785322319L
(lp4106
(lp4107
Vesp_log_early_timestamp
p4108
atp4109
a(L566230772L
L3785322319L
(lp4110
(lp4111
Vbootloader_mmap
p4112
atp4113
a(L1638765019L
L3785322319L
(lp4114
(lp4115
Vesp_log_early_timestamp
p4116
atp4117
a(L586914804L
L3785322319L
(lp4118
(lp4119
Vbootloader_munmap
p4120
atp4121
a(L446553694L
L0L
(lp4122
(lp4123
tp4124
atp4125
sI1074237172
(Vspi_to_esp_err
p4126
(lp4127
(L4037458691L
L0L
(lp4128
(lp4129
tp4130
a(L2902417580L
L0L
(lp4131
(lp4132
tp4133
a(L3020187L
L0L
(lp4134
(lp4135
tp4136
a(L106L
L0L
(lp4137
(lp4138
tp4139
a(L2993202392L
L0L
(lp4140
(lp4141
tp4142
a(L1255274971L
L0L
(lp4143
(lp4144
tp4145
a(L515633988L
L0L
(lp4146
(lp4147
tp4148
a(L1747322352L
L0L
(lp4149
(lp4150
tp4151
atp4152
sI1074236660
(Vbootloader_common_ota_select_crc
p4153
(lp4154
(L1051498320L
L0L
(lp4155
(lp4156
tp4157
atp4158
sI1074267900
(Vselected_boot_partition
p4159
(lp4160
(L2937841336L
L3785322319L
(lp4161
(lp4162
Vbootloader_utility_get_selected_boot_partition
p4163
atp4164
a(L2161672821L
L0L
(lp4165
(lp4166
tp4167
a(L3360570486L
L0L
(lp4168
(lp4169
tp4170
atp4171
sI1074269172
(Vbootloader_init
p4172
(lp4173
(L2585389894L
L0L
(lp4174
(lp4175
tp4176
a(L2120392034L
L0L
(lp4177
(lp4178
tp4179
a(L93837694L
L0L
(lp4180
(lp4181
tp4182
a(L895305024L
L0L
(lp4183
(lp4184
tp4185
a(L2881389761L
L3785322319L
(lp4186
(lp4187
V__assert_func
p4188
atp4189
a(L2375710182L
L0L
(lp4190
(lp4191
tp4192
a(L1156997797L
L3785322319L
(lp4193
(lp4194
V__assert_func
p4195
atp4196
a(L2590532022L
L0L
(lp4197
(lp4198
tp4199
a(L1208208529L
L3785322319L
(lp4200
(lp4201
V__assert_func
p4202
atp4203
a(L2600690753L
L0L
(lp4204
(lp4205
tp4206
a(L2308933566L
L3785322319L
(lp4207
(lp4208
V__assert_func
p4209
atp4210
a(L2081485033L
L3785322319L
(lp4211
(lp4212
Vbootloader_main
p4213
atp4214
a(L1299867982L
L0L
(lp4215
(lp4216
tp4217
a(L3360570486L
L0L
(lp4218
(lp4219
tp4220
atp4221
sI1074271220
(Vrtc_clk_apb_freq_update
p4222
(lp4223
(L169773752L
L0L
(lp4224
(lp4225
tp4226
atp4227
sI1074239736
(Vbootloader_utility_load_partition_table
p4228
(lp4229
(L893333307L
L3785322319L
(lp4230
(lp4231
Vbootloader_mmap
p4232
atp4233
a(L1270265708L
L3785322319L
(lp4234
(lp4235
Vesp_log_early_timestamp
p4236
atp4237
a(L3715067384L
L3785322319L
(lp4238
(lp4239
Vesp_partition_table_verify
p4240
atp4241
a(L3987355154L
L3785322319L
(lp4242
(lp4243
Vesp_log_early_timestamp
p4244
atp4245
a(L1947937882L
L1880226080L
(lp4246
(lp4247
Vesp_log_early_timestamp
p4248
aVesp_log_early_timestamp
p4249
atp4250
a(L1941612774L
L0L
(lp4251
(lp4252
tp4253
a(L3020187L
L0L
(lp4254
(lp4255
tp4256
a(L106L
L0L
(lp4257
(lp4258
tp4259
a(L3732412336L
L0L
(lp4260
(lp4261
tp4262
a(L3020187L
L0L
(lp4263
(lp4264
tp4265
a(L106L
L0L
(lp4266
(lp4267
tp4268
a(L58579688L
L0L
(lp4269
(lp4270
tp4271
a(L997270981L
L0L
(lp4272
(lp4273
tp4274
a(L2893469516L
L0L
(lp4275
(lp4276
tp4277
a(L495348327L
L0L
(lp4278
(lp4279
tp4280
a(L3999773648L
L0L
(lp4281
(lp4282
tp4283
a(L3101214432L
L0L
(lp4284
(lp4285
tp4286
a(L826375354L
L0L
(lp4287
(lp4288
tp4289
a(L826377648L
L0L
(lp4290
(lp4291
tp4292
a(L826376067L
L0L
(lp4293
(lp4294
tp4295
a(L3799567729L
L3785322319L
(lp4296
(lp4297
Vesp_log_early_timestamp
p4298
atp4299
a(L846653465L
L0L
(lp4300
(lp4301
tp4302
a(L106L
L0L
(lp4303
(lp4304
tp4305
a(L2229193238L
L1880226080L
(lp4306
(lp4307
Vbootloader_munmap
p4308
aVesp_log_early_timestamp
p4309
atp4310
atp4311
ssS'functionsdups'
p4312
g11
((lp4313
tp4314
Rp4315
sS'immediatedups'
p4316
g11
((lp4317
tp4318
Rp4319
sS'functiondups'
p4320
g11
((lp4321
tp4322
Rp4323
sS'fuzzy'
p4324
(dp4325
L1536L
I1074240336
sL452507512L
I1074237788
sL1238425040L
I1074244112
sL4061702297L
I1074244060
sL430153639L
I1074242536
sL474176970L
I1074241668
sL1993052482L
I1074244924
sL45806640L
I1074241232
sL381930313L
I1074241396
sL2479661889L
I1074246376
sL3495415001L
I1074240896
sL3669996080L
I1074236896
sL2661072904L
I1074240380
sL2281838360L
I1074240100
sL3881399234L
I1074239256
sL312818747L
I1074238876
sL1622145584L
I1074236016
sL618873793L
I1074242612
sL1157487583L
I1074272712
sL1205197046L
I1074239144
sL1420005888L
I1074270024
sL3110146889L
I1074239528
sL1995141314L
I1074242944
sL1991897232L
I1074244740
sL1014503250L
I1074244408
sL4059437021L
I1074271644
sL2112593370L
I1074268876
sL1766137975L
I1074269960
sL2738222727L
I1074271004
sL2723847017L
I1074237652
sL275633497L
I1074269172
sL3619350029L
I1074242240
sL3247628459L
I1074244468
sL2919037255L
I1074268304
sL410455735L
I1074242428
sL512571597L
I1074267976
sL578413630L
I1074241536
sL2649994811L
I1074267928
sL533883930L
I1074268608
sL1332800441L
I1074236716
sL433784338L
I1074268072
sL4160102055L
I1074269140
sL3280616158L
I1074236680
sL3476065511L
I1074271904
sL2474570535L
I1074245224
sL2033964903L
I1074270324
sL1060788199L
I1074270904
sL1381401481L
I1074239088
sL4270185191L
I1074270428
sL2705984041L
I1074244180
sL3380377753L
I1074245316
sL1179079586L
I1074271400
sL2766438284L
I1074238964
sL1043425753L
I1074237980
sL138378967L
I1074237412
sL447173967L
I1074246104
sL3128965227L
I1074241280
sL974711027L
I1074244792
sL1178348887L
I1074269516
sL3706231047L
I1074240732
sL4155364446L
I1074236756
sL1329074126L
I1074245024
sL1016692206L
I1074271736
sL3897638057L
I1074268552
sL59547383L
I1074237208
sL455832661L
I1074239736
sL3965284519L
I1074243636
ssb.