ccopy_reg
_reconstructor
p0
(crizzo
RizzoSignature
p1
c__builtin__
object
p2
Ntp3
Rp4
(dp5
S'formal'
p6
(dp7
L3350618294L
I1074240336
sL1754604948L
I1074270072
sL3669424062L
I1074236680
sL2886561796L
I1074235976
sL1741170115L
I1074237952
sL607973681L
I1074268612
sL1433108606L
I1074242404
sL2064144157L
I1074235928
sL14252748L
I1074270896
sL957563653L
I1074237788
sL2292612016L
I1074244704
sL2958601792L
I1074241280
sL836653253L
I1074269520
sL3813064027L
I1074239144
sL138444125L
I1074244740
sL1156091125L
I1074271296
sL68550923L
I1074272428
sL1815150096L
I1074267932
sL580342964L
I1074268776
sL1097248323L
I1074270460
sL1296434798L
I1074241116
sL1306880972L
I1074240732
sL2722777976L
I1074244792
sL2599374813L
I1074245316
sL2226029212L
I1074268036
sL2901032402L
I1074237412
sL320258601L
I1074271268
sL2195980192L
I1074234584
sL3740445365L
I1074241396
sL3085487008L
I1074237360
sL1904560840L
I1074273208
sL4202775248L
I1074235264
sL3428446987L
I1074244112
sL425139457L
I1074270476
sL2392364737L
I1074268880
sL1127622764L
I1074239308
sL1456331926L
I1074235088
sL2868258475L
I1074240896
sL3225419805L
I1074246044
sL3699895770L
I1074270008
sL2912846273L
I1074238560
sL3974320007L
I1074239256
sL3702197710L
I1074240632
sL2538659132L
I1074269188
sL3308159808L
I1074240100
sL1396243276L
I1074244924
sL1946518643L
I1074239704
sL1212621616L
I1074246000
sL1141849463L
I1074235944
sL2491899391L
I1074245224
sL1217453288L
I1074246028
sL1180873241L
I1074270256
sL3189588833L
I1074242612
sL3965610460L
I1074237072
sL3424733605L
I1074246104
sL2544215075L
I1074244468
sL1903870450L
I1074242536
sL4155870266L
I1074235760
sL3929602732L
I1074241232
sL3227211215L
I1074241536
sL2018796993L
I1074245960
sL4095446147L
I1074268308
sL946121725L
I1074242428
sL945719237L
I1074239088
sL2761480963L
I1074239736
sL1539008800L
I1074270372
sL975048066L
I1074237040
sL1847249286L
I1074246060
sL1431551436L
I1074240712
sL779623655L
I1074244180
sL1942591337L
I1074239528
sL970194547L
I1074238088
sL3898185208L
I1074237596
sL1399744719L
I1074270284
sL2136501245L
I1074269904
sL453406624L
I1074243636
sL1742112113L
I1074269840
sL1728979620L
I1074246376
sL1552116527L
I1074237172
sL2727773242L
I1074244060
sL2689592802L
I1074271604
sL1171902571L
I1074270356
sL4060450998L
I1074236756
sL3859506872L
I1074271692
sL2358021945L
I1074236660
sL134208586L
I1074241668
sL1868338154L
I1074267904
sL2366595257L
I1074269708
sL4179931283L
I1074236716
sL456083351L
I1074268556
sL25406014L
I1074242944
sL3689500712L
I1074269564
sL3761860602L
I1074271052
sL1396453881L
I1074236016
sL3707191346L
I1074272760
sL1351291200L
I1074235152
sL201811660L
I1074243960
sL3721124614L
I1074271952
sL2432257846L
I1074243620
sL3614537121L
I1074240380
sL2953227478L
I1074245024
sL2892100530L
I1074236808
sL841745912L
I1074242240
sL3802574193L
I1074246484
sL2263182908L
I1074237972
sL2275695999L
I1074271224
sL4177551583L
I1074244408
sL1539713060L
I1074237208
sL1001245007L
I1074269220
sL4073230634L
I1074271448
sL2068574383L
I1074238876
sL489309134L
I1074240704
sL2849615934L
I1074238964
sL591304665L
I1074270228
sL2949990450L
I1074272688
sL3617622088L
I1074246196
sL4289306179L
I1074237980
sL2427362117L
I1074236896
sL45586524L
I1074270416
sL4109328644L
I1074270952
sL3880482208L
I1074273240
sL579276650L
I1074271784
sL2261506084L
I1074235112
sL240369573L
I1074234564
sL3745020111L
I1074267980
sL2249092089L
I1074268076
sL3152959252L
I1074237652
ssS'immediates'
p8
(dp9
sS'formaldups'
p10
c__builtin__
set
p11
((lp12
tp13
Rp14
sS'stringdups'
p15
g11
((lp16
tp17
Rp18
sS'fuzzydups'
p19
g11
((lp20
tp21
Rp22
sS'strings'
p23
(dp24
sS'functions'
p25
(dp26
I1074269708
(Vrtc_clk_32k_enable_common
p27
(lp28
(L4222319666L
L0L
(lp29
(lp30
tp31
atp32
sI1074270476
(Vrtc_clk_bbpll_configure
p33
(lp34
(L4270275352L
L0L
(lp35
(lp36
tp37
a(L106L
L0L
(lp38
(lp39
tp40
a(L1743260734L
L0L
(lp41
(lp42
tp43
a(L83268344L
L0L
(lp44
(lp45
tp46
a(L82345090L
L0L
(lp47
(lp48
tp49
a(L106L
L0L
(lp50
(lp51
tp52
a(L1874018433L
L0L
(lp53
(lp54
tp55
a(L1968451090L
L0L
(lp56
(lp57
tp58
a(L1534915856L
L0L
(lp59
(lp60
tp61
a(L1310424409L
L0L
(lp62
(lp63
tp64
a(L4015169728L
L0L
(lp65
(lp66
tp67
a(L2543875808L
L0L
(lp68
(lp69
tp70
a(L83268344L
L0L
(lp71
(lp72
tp73
a(L82345090L
L0L
(lp74
(lp75
tp76
a(L106L
L0L
(lp77
(lp78
tp79
a(L294729621L
L0L
(lp80
(lp81
tp82
a(L2738194110L
L0L
(lp83
(lp84
tp85
a(L1534915856L
L0L
(lp86
(lp87
tp88
a(L1335254829L
L0L
(lp89
(lp90
tp91
a(L3330007960L
L0L
(lp92
(lp93
tp94
a(L110581531L
L3785322319L
(lp95
(lp96
Vrtc_clk_slow_freq_get
p97
atp98
a(L2679108412L
L0L
(lp99
(lp100
tp101
a(L2780081410L
L0L
(lp102
(lp103
tp104
a(L322544565L
L0L
(lp105
(lp106
tp107
atp108
sI1074241536
(Vverify_image_header
p109
(lp110
(L171376062L
L0L
(lp111
(lp112
tp113
a(L2910371777L
L0L
(lp114
(lp115
tp116
a(L3027455160L
L3785322319L
(lp117
(lp118
Vesp_log_early_timestamp
p119
atp120
a(L1299866312L
L0L
(lp121
(lp122
tp123
a(L702739623L
L0L
(lp124
(lp125
tp126
a(L3710928811L
L3785322319L
(lp127
(lp128
Vbootloader_common_check_chip_validity
p129
atp130
a(L702739623L
L0L
(lp131
(lp132
tp133
a(L3028481L
L0L
(lp134
(lp135
tp136
a(L3270243289L
L0L
(lp137
(lp138
tp139
a(L3561392571L
L3785322319L
(lp140
(lp141
Vesp_log_early_timestamp
p142
atp143
a(L385352084L
L0L
(lp144
(lp145
tp146
a(L3243225683L
L3785322319L
(lp147
(lp148
Vesp_log_early_timestamp
p149
atp150
a(L3360570486L
L0L
(lp151
(lp152
tp153
atp154
sI1074241280
(Vverify_segment_header
p155
(lp156
(L3674778058L
L0L
(lp157
(lp158
tp159
a(L2496966260L
L0L
(lp160
(lp161
tp162
a(L3028481L
L0L
(lp163
(lp164
tp165
a(L632874435L
L3785322319L
(lp166
(lp167
Vesp_log_early_timestamp
p168
atp169
a(L536784482L
L3785322319L
(lp170
(lp171
Vshould_map
p172
atp173
a(L3496178735L
L0L
(lp174
(lp175
tp176
a(L2910371777L
L0L
(lp177
(lp178
tp179
a(L735888086L
L3785322319L
(lp180
(lp181
Vesp_log_early_timestamp
p182
atp183
a(L1935333341L
L0L
(lp184
(lp185
tp186
a(L2993202392L
L0L
(lp187
(lp188
tp189
a(L2993202392L
L0L
(lp190
(lp191
tp192
a(L1935333341L
L0L
(lp193
(lp194
tp195
atp196
sI1074237952
(Vbootloader_flash_erase_sector
p197
(lp198
(L4129137686L
L1880226080L
(lp199
(lp200
Vesp_rom_spiflash_erase_sector
p201
aVspi_to_esp_err
p202
atp203
atp204
sI1074267904
(Vselected_boot_partition
p205
(lp206
(L2937841336L
L3785322319L
(lp207
(lp208
Vbootloader_utility_get_selected_boot_partition
p209
atp210
a(L2161672821L
L0L
(lp211
(lp212
tp213
a(L3360570486L
L0L
(lp214
(lp215
tp216
atp217
sI1074269188
(V__assert_func
p218
(lp219
(L434373324L
L3785322319L
(lp220
(lp221
Vesp_log_early_timestamp
p222
atp223
a(L106L
L0L
(lp224
(lp225
tp226
atp227
sI1074236680
(Vbootloader_common_ota_select_valid
p228
(lp229
(L1731214134L
L3785322319L
(lp230
(lp231
Vbootloader_common_ota_select_invalid
p232
atp233
a(L668323607L
L3785322319L
(lp234
(lp235
Vbootloader_common_ota_select_crc
p236
atp237
a(L3880706073L
L0L
(lp238
(lp239
tp240
a(L2993202392L
L0L
(lp241
(lp242
tp243
a(L2993202392L
L0L
(lp244
(lp245
tp246
atp247
sI1074237972
(Vbootloader_mmap_get_free_pages
p248
(lp249
(L1496516875L
L0L
(lp250
(lp251
tp252
atp253
sI1074267932
(Vselect_partition_number
p254
(lp255
(L1731214134L
L3785322319L
(lp256
(lp257
Vbootloader_utility_load_partition_table
p258
atp259
a(L481673452L
L3785322319L
(lp260
(lp261
Vesp_log_early_timestamp
p262
atp263
a(L880231726L
L3785322319L
(lp264
(lp265
Vselected_boot_partition
p266
atp267
atp268
sI1074235152
(Vbootloader_flash_cs_timing_config
p269
(lp270
(L436231625L
L0L
(lp271
(lp272
tp273
atp274
sI1074244112
(Vesp_rom_spiflash_erase_sector_internal
p275
(lp276
(L1530704874L
L0L
(lp277
(lp278
tp279
a(L3692658765L
L3785322319L
(lp280
(lp281
Vesp_rom_spiflash_wait_idle
p282
atp283
a(L3708374670L
L0L
(lp284
(lp285
tp286
a(L1387965403L
L3785322319L
(lp287
(lp288
Vesp_rom_spiflash_wait_idle
p289
atp290
a(L3880706073L
L0L
(lp291
(lp292
tp293
atp294
sI1074237980
(Vbootloader_fill_random
p295
(lp296
(L4037466985L
L0L
(lp297
(lp298
tp299
a(L2010573816L
L3785322319L
(lp300
(lp301
V__assert_func
p302
atp303
a(L3020204L
L0L
(lp304
(lp305
tp306
a(L3105261274L
L0L
(lp307
(lp308
tp309
a(L3136497133L
L0L
(lp310
(lp311
tp312
a(L1453409990L
L0L
(lp313
(lp314
tp315
a(L655163851L
L0L
(lp316
(lp317
tp318
a(L1298905564L
L0L
(lp319
(lp320
tp321
a(L2192561533L
L0L
(lp322
(lp323
tp324
a(L3360570486L
L0L
(lp325
(lp326
tp327
atp328
sI1074270228
(Vrtc_clk_8m_enabled
p329
(lp330
(L2295881251L
L0L
(lp331
(lp332
tp333
atp334
sI1074239256
(Vtry_load_partition
p335
(lp336
(L3877261386L
L0L
(lp337
(lp338
tp339
a(L2260359711L
L3785322319L
(lp340
(lp341
Vbootloader_load_image
p342
atp343
a(L3165668283L
L3785322319L
(lp344
(lp345
Vesp_log_early_timestamp
p346
atp347
a(L2993202392L
L0L
(lp348
(lp349
tp350
a(L2993202392L
L0L
(lp351
(lp352
tp353
atp354
sI1074237208
(Vbootloader_flash_read_allow_decrypt
p355
(lp356
(L3381655731L
L0L
(lp357
(lp358
tp359
a(L2481394718L
L0L
(lp360
(lp361
tp362
a(L2827791035L
L0L
(lp363
(lp364
tp365
a(L2092868393L
L3785322319L
(lp366
(lp367
Vesp_log_early_timestamp
p368
atp369
a(L986745520L
L0L
(lp370
(lp371
tp372
a(L1792079040L
L0L
(lp373
(lp374
tp375
a(L3423665670L
L0L
(lp376
(lp377
tp378
a(L106L
L0L
(lp379
(lp380
tp381
a(L2993202392L
L0L
(lp382
(lp383
tp384
atp385
sI1074235928
(Vesp_cpu_in_ocd_debug_mode
p386
(lp387
(L3620038287L
L0L
(lp388
(lp389
tp390
atp391
sI1074271784
(Vrtc_clk_xtal_freq_estimate
p392
(lp393
(L2516060585L
L1880226080L
(lp394
(lp395
Vrtc_clk_8m_enabled
p396
aVrtc_clk_8md256_enabled
p397
atp398
a(L967485502L
L3785322319L
(lp399
(lp400
Vrtc_clk_8m_enable
p401
atp402
a(L3377036231L
L1880226080L
(lp403
(lp404
Vrtc_clk_cal_ratio
p405
aV__udivdi3
p406
atp407
a(L784662358L
L0L
(lp408
(lp409
tp410
a(L14228753L
L3785322319L
(lp411
(lp412
Vesp_log_early_timestamp
p413
atp414
atp415
sI1074243620
(Vbootloader_load_image
p416
(lp417
(L267004326L
L3785322319L
(lp418
(lp419
Vimage_load
p420
atp421
atp422
sI1074236716
(Vbootloader_common_get_active_otadata
p423
(lp424
(L4066087859L
L0L
(lp425
(lp426
tp427
a(L261345922L
L1832448559L
(lp428
(lp429
Vbootloader_common_ota_select_valid
p430
aVbootloader_common_ota_select_valid
p431
aVbootloader_common_select_otadata
p432
atp433
a(L515633988L
L0L
(lp434
(lp435
tp436
atp437
sI1074269220
(Vbootloader_init
p438
(lp439
(L3219493732L
L0L
(lp440
(lp441
tp442
a(L2120392034L
L0L
(lp443
(lp444
tp445
a(L93837694L
L0L
(lp446
(lp447
tp448
a(L3303829057L
L0L
(lp449
(lp450
tp451
a(L4024803849L
L3785322319L
(lp452
(lp453
V__assert_func
p454
atp455
a(L3726656669L
L0L
(lp456
(lp457
tp458
a(L1268571093L
L3785322319L
(lp459
(lp460
V__assert_func
p461
atp462
a(L2575755686L
L0L
(lp463
(lp464
tp465
a(L3401136922L
L3785322319L
(lp466
(lp467
V__assert_func
p468
atp469
a(L2608078921L
L0L
(lp470
(lp471
tp472
a(L1238735455L
L3785322319L
(lp473
(lp474
V__assert_func
p475
atp476
a(L1188562451L
L3785322319L
(lp477
(lp478
Vbootloader_main
p479
atp480
a(L1299867982L
L0L
(lp481
(lp482
tp483
a(L3360570486L
L0L
(lp484
(lp485
tp486
atp487
sI1074271268
(Vrtc_clk_apb_freq_update
p488
(lp489
(L1583450669L
L0L
(lp490
(lp491
tp492
atp493
sI1074235944
(Vesp_log_early_timestamp
p494
(lp495
(L2262329302L
L0L
(lp496
(lp497
tp498
atp499
sI1074239528
(Vunpack_load_app
p500
(lp501
(L1842422795L
L0L
(lp502
(lp503
tp504
a(L227424592L
L0L
(lp505
(lp506
tp507
a(L2902417580L
L0L
(lp508
(lp509
tp510
a(L1029628832L
L3785322319L
(lp511
(lp512
Vesp_log_early_timestamp
p513
atp514
a(L3411822821L
L0L
(lp515
(lp516
tp517
a(L606853680L
L0L
(lp518
(lp519
tp520
a(L2902417580L
L0L
(lp521
(lp522
tp523
a(L783315745L
L3785322319L
(lp524
(lp525
Vesp_log_early_timestamp
p526
atp527
a(L87648306L
L0L
(lp528
(lp529
tp530
a(L1799288861L
L0L
(lp531
(lp532
tp533
a(L350965691L
L0L
(lp534
(lp535
tp536
a(L106L
L0L
(lp537
(lp538
tp539
a(L1717315991L
L3785322319L
(lp540
(lp541
Vset_cache_and_start_app
p542
atp543
atp544
sI1074270008
(Vrtc_clk_32k_enable
p545
(lp546
(L753387299L
L0L
(lp547
(lp548
tp549
a(L1120965557L
L3785322319L
(lp550
(lp551
Vrtc_clk_32k_enable_common
p552
atp553
a(L3680083756L
L0L
(lp554
(lp555
tp556
atp557
sI1074242612
(Vprocess_segment
p558
(lp559
(L815192809L
L3785322319L
(lp560
(lp561
Vbootloader_flash_read
p562
atp563
a(L3091174693L
L3785322319L
(lp564
(lp565
Vesp_log_early_timestamp
p566
atp567
a(L2378867762L
L0L
(lp568
(lp569
tp570
a(L2241831349L
L3785322319L
(lp571
(lp572
Vbootloader_sha256_data
p573
atp574
a(L3508283154L
L3785322319L
(lp575
(lp576
Vverify_segment_header
p577
atp578
a(L2910581177L
L0L
(lp579
(lp580
tp581
a(L3028481L
L0L
(lp582
(lp583
tp584
a(L1177831742L
L3785322319L
(lp585
(lp586
Vesp_log_early_timestamp
p587
atp588
a(L3031411042L
L3785322319L
(lp589
(lp590
Vshould_map
p591
atp592
a(L3356129481L
L3785322319L
(lp593
(lp594
Vshould_load
p595
atp596
a(L1299866343L
L0L
(lp597
(lp598
tp599
a(L1299866312L
L0L
(lp600
(lp601
tp602
a(L1182811810L
L0L
(lp603
(lp604
tp605
a(L3592074427L
L0L
(lp606
(lp607
tp608
a(L3287840219L
L3785322319L
(lp609
(lp610
Vesp_log_early_timestamp
p611
atp612
a(L2902417580L
L0L
(lp613
(lp614
tp615
a(L568281991L
L0L
(lp616
(lp617
tp618
a(L568281743L
L0L
(lp619
(lp620
tp621
a(L1403804991L
L0L
(lp622
(lp623
tp624
a(L3602079949L
L0L
(lp625
(lp626
tp627
a(L1893706348L
L0L
(lp628
(lp629
tp630
a(L2261579306L
L3785322319L
(lp631
(lp632
Vverify_load_addresses
p633
atp634
a(L978787560L
L3785322319L
(lp635
(lp636
Vbootloader_mmap_get_free_pages
p637
atp638
a(L3725904442L
L3785322319L
(lp639
(lp640
Vprocess_segment_data
p641
atp642
a(L1231449635L
L0L
(lp643
(lp644
tp645
a(L3021737L
L0L
(lp646
(lp647
tp648
a(L2993202392L
L0L
(lp649
(lp650
tp651
a(L2902417580L
L0L
(lp652
(lp653
tp654
a(L3360570486L
L0L
(lp655
(lp656
tp657
a(L1935333341L
L0L
(lp658
(lp659
tp660
a(L735741265L
L0L
(lp661
(lp662
tp663
a(L702739623L
L0L
(lp664
(lp665
tp666
a(L3360570486L
L0L
(lp667
(lp668
tp669
atp670
sI1074243636
(Vesp_partition_table_verify
p671
(lp672
(L1334052503L
L0L
(lp673
(lp674
tp675
a(L2962270087L
L0L
(lp676
(lp677
tp678
a(L2544630126L
L0L
(lp679
(lp680
tp681
a(L4183706628L
L0L
(lp682
(lp683
tp684
a(L106L
L0L
(lp685
(lp686
tp687
a(L2579271819L
L0L
(lp688
(lp689
tp690
a(L2039260187L
L3785322319L
(lp691
(lp692
Vesp_log_early_timestamp
p693
atp694
a(L4036952873L
L0L
(lp695
(lp696
tp697
a(L2902417580L
L0L
(lp698
(lp699
tp700
a(L2579271819L
L0L
(lp701
(lp702
tp703
a(L59892762L
L3785322319L
(lp704
(lp705
Vesp_log_early_timestamp
p706
atp707
a(L2063166656L
L0L
(lp708
(lp709
tp710
a(L2579271819L
L0L
(lp711
(lp712
tp713
a(L1400027822L
L3785322319L
(lp714
(lp715
Vesp_log_early_timestamp
p716
atp717
a(L1610443436L
L0L
(lp718
(lp719
tp720
a(L2966513628L
L0L
(lp721
(lp722
tp723
a(L3720018517L
L0L
(lp724
(lp725
tp726
a(L324306632L
L0L
(lp727
(lp728
tp729
a(L2579271819L
L0L
(lp730
(lp731
tp732
a(L638218334L
L3785322319L
(lp733
(lp734
Vesp_log_early_timestamp
p735
atp736
a(L1799288861L
L0L
(lp737
(lp738
tp739
a(L474850413L
L0L
(lp740
(lp741
tp742
a(L106L
L0L
(lp743
(lp744
tp745
a(L484089803L
L0L
(lp746
(lp747
tp748
a(L1906221336L
L3785322319L
(lp749
(lp750
Vesp_log_early_timestamp
p751
atp752
a(L3854017309L
L0L
(lp753
(lp754
tp755
a(L2966513628L
L0L
(lp756
(lp757
tp758
a(L2966513628L
L0L
(lp759
(lp760
tp761
atp762
sI1074246196
(Vrtc_wdt_set_stage
p763
(lp764
(L1890082815L
L0L
(lp765
(lp766
tp767
a(L1182990556L
L0L
(lp768
(lp769
tp770
a(L4210890627L
L0L
(lp771
(lp772
tp773
a(L1182990556L
L0L
(lp774
(lp775
tp776
a(L3265635317L
L0L
(lp777
(lp778
tp779
a(L2910371777L
L0L
(lp780
(lp781
tp782
a(L4000158451L
L0L
(lp783
(lp784
tp785
a(L3028464L
L0L
(lp786
(lp787
tp788
a(L1918687154L
L0L
(lp789
(lp790
tp791
a(L3028464L
L0L
(lp792
(lp793
tp794
a(L862379611L
L0L
(lp795
(lp796
tp797
a(L3011029918L
L0L
(lp798
(lp799
tp800
a(L2079009947L
L0L
(lp801
(lp802
tp803
atp804
sI1074270256
(Vrtc_clk_8md256_enabled
p805
(lp806
(L708641063L
L0L
(lp807
(lp808
tp809
atp810
sI1074244924
(Vesp_rom_spiflash_erase_sector
p811
(lp812
(L1387959666L
L0L
(lp813
(lp814
tp815
a(L863950961L
L3785322319L
(lp816
(lp817
Vesp_rom_spiflash_enable_write
p818
atp819
a(L2973411990L
L3785322319L
(lp820
(lp821
Vesp_rom_spiflash_erase_sector_internal
p822
atp823
a(L3880706073L
L0L
(lp824
(lp825
tp826
a(L3880706073L
L0L
(lp827
(lp828
tp829
a(L2258688483L
L0L
(lp830
(lp831
tp832
a(L3360570486L
L0L
(lp833
(lp834
tp835
atp836
sI1074244408
(Vesp_rom_spiflash_enable_write
p837
(lp838
(L186828786L
L3785322319L
(lp839
(lp840
Vesp_rom_spiflash_wait_idle
p841
atp842
a(L1715204046L
L0L
(lp843
(lp844
tp845
a(L106L
L0L
(lp846
(lp847
tp848
a(L1337065440L
L3785322319L
(lp849
(lp850
Vesp_rom_spiflash_read_status
p851
atp852
a(L1253527241L
L0L
(lp853
(lp854
tp855
a(L2993202392L
L0L
(lp856
(lp857
tp858
atp859
sI1074267980
(Vcall_start_cpu0
p860
(lp861
(L2311976169L
L3785322319L
(lp862
(lp863
Vbootloader_init
p864
atp865
a(L3827921190L
L3785322319L
(lp866
(lp867
Vbootloader_reset
p868
atp869
a(L4083304126L
L3785322319L
(lp870
(lp871
Vselect_partition_number
p872
atp873
a(L94425498L
L3785322319L
(lp874
(lp875
Vbootloader_reset
p876
atp877
a(L1678595755L
L3785322319L
(lp878
(lp879
Vbootloader_utility_load_boot_image
p880
atp881
atp882
sI1074270284
(Vrtc_clk_slow_freq_set
p883
(lp884
(L2029699465L
L0L
(lp885
(lp886
tp887
a(L1235012839L
L0L
(lp888
(lp889
tp890
a(L2258688482L
L0L
(lp891
(lp892
tp893
a(L3802008201L
L0L
(lp894
(lp895
tp896
atp897
sI1074271052
(Vrtc_clk_cpu_freq_get_config
p898
(lp899
(L1550430618L
L0L
(lp900
(lp901
tp902
a(L2902417580L
L0L
(lp903
(lp904
tp905
a(L3020187L
L0L
(lp906
(lp907
tp908
a(L106L
L0L
(lp909
(lp910
tp911
a(L3931310227L
L3785322319L
(lp912
(lp913
Vrtc_clk_xtal_freq_get
p914
atp915
a(L3073775556L
L0L
(lp916
(lp917
tp918
a(L3020187L
L0L
(lp919
(lp920
tp921
a(L3020187L
L0L
(lp922
(lp923
tp924
a(L539497322L
L1880226080L
(lp925
(lp926
Vesp_log_early_timestamp
p927
aVabort
p928
atp929
a(L539497322L
L1880226080L
(lp930
(lp931
Vesp_log_early_timestamp
p932
aVabort
p933
atp934
a(L1209507534L
L0L
(lp935
(lp936
tp937
a(L1888221406L
L0L
(lp938
(lp939
tp940
a(L3497772488L
L0L
(lp941
(lp942
tp943
a(L2830593902L
L0L
(lp944
(lp945
tp946
a(L134915478L
L0L
(lp947
(lp948
tp949
atp950
sI1074271296
(Vrtc_clk_cpu_freq_to_xtal
p951
(lp952
(L2840053865L
L3785322319L
(lp953
(lp954
Vrtc_clk_apb_freq_update
p955
atp956
a(L1149216507L
L0L
(lp957
(lp958
tp959
a(L3290080112L
L0L
(lp960
(lp961
tp962
atp963
sI1074239308
(Vset_cache_and_start_app
p964
(lp965
(L393644359L
L0L
(lp966
(lp967
tp968
a(L3947892742L
L0L
(lp969
(lp970
tp971
a(L1548223148L
L0L
(lp972
(lp973
tp974
a(L399753135L
L0L
(lp975
(lp976
tp977
atp978
sI1074235976
(V__bswapsi2
p979
(lp980
(L1536547126L
L0L
(lp981
(lp982
tp983
atp984
sI1074245960
(Vrtc_clk_apb_freq_get
p985
(lp986
(L2921014042L
L0L
(lp987
(lp988
tp989
atp990
sI1074236756
(Vbootloader_common_vddsdio_configure
p991
(lp992
(L1829974089L
L3785322319L
(lp993
(lp994
Vrtc_vddsdio_get_config
p995
atp996
a(L955149828L
L3785322319L
(lp997
(lp998
Vrtc_vddsdio_set_config
p999
atp1000
a(L3360570486L
L0L
(lp1001
(lp1002
tp1003
atp1004
sI1074244180
(Vesp_rom_spiflash_read_data
p1005
(lp1006
(L4122033220L
L0L
(lp1007
(lp1008
tp1009
a(L106L
L0L
(lp1010
(lp1011
tp1012
a(L2070875117L
L3785322319L
(lp1013
(lp1014
Vesp_rom_spiflash_wait_idle
p1015
atp1016
a(L2761836345L
L0L
(lp1017
(lp1018
tp1019
a(L1092526754L
L0L
(lp1020
(lp1021
tp1022
a(L1715204046L
L0L
(lp1023
(lp1024
tp1025
a(L106L
L0L
(lp1026
(lp1027
tp1028
a(L2080316295L
L0L
(lp1029
(lp1030
tp1031
a(L256664550L
L0L
(lp1032
(lp1033
tp1034
a(L663200857L
L0L
(lp1035
(lp1036
tp1037
a(L2129767330L
L0L
(lp1038
(lp1039
tp1040
a(L1715204046L
L0L
(lp1041
(lp1042
tp1043
a(L1263158627L
L0L
(lp1044
(lp1045
tp1046
a(L131455463L
L0L
(lp1047
(lp1048
tp1049
a(L4208385735L
L0L
(lp1050
(lp1051
tp1052
a(L1305407438L
L0L
(lp1053
(lp1054
tp1055
a(L2080316295L
L0L
(lp1056
(lp1057
tp1058
a(L3027019L
L0L
(lp1059
(lp1060
tp1061
a(L2258777855L
L0L
(lp1062
(lp1063
tp1064
a(L3027007L
L0L
(lp1065
(lp1066
tp1067
a(L106L
L0L
(lp1068
(lp1069
tp1070
a(L2993202392L
L0L
(lp1071
(lp1072
tp1073
a(L3880706073L
L0L
(lp1074
(lp1075
tp1076
atp1077
sI1074246484
(Vrtc_wdt_set_length_of_reset_signal
p1078
(lp1079
(L1890082815L
L0L
(lp1080
(lp1081
tp1082
a(L1182990556L
L0L
(lp1083
(lp1084
tp1085
a(L4210890627L
L0L
(lp1086
(lp1087
tp1088
a(L1182990556L
L0L
(lp1089
(lp1090
tp1091
a(L3265635317L
L0L
(lp1092
(lp1093
tp1094
a(L2910371777L
L0L
(lp1095
(lp1096
tp1097
a(L1641927467L
L0L
(lp1098
(lp1099
tp1100
a(L495435522L
L0L
(lp1101
(lp1102
tp1103
a(L2079009947L
L0L
(lp1104
(lp1105
tp1106
atp1107
sI1074240336
(Vbootloader_reset
p1108
(lp1109
(L44586103L
L0L
(lp1110
(lp1111
tp1112
a(L106L
L0L
(lp1113
(lp1114
tp1115
atp1116
sI1074269520
(Vabort
p1117
(lp1118
(L1519843993L
L3785322319L
(lp1119
(lp1120
Vesp_cpu_in_ocd_debug_mode
p1121
atp1122
a(L409441471L
L0L
(lp1123
(lp1124
tp1125
a(L106L
L0L
(lp1126
(lp1127
tp1128
atp1129
sI1074241116
(Vbootloader_sha256_hex_to_str
p1130
(lp1131
(L90530756L
L0L
(lp1132
(lp1133
tp1134
a(L97422L
L0L
(lp1135
(lp1136
tp1137
a(L106L
L0L
(lp1138
(lp1139
tp1140
a(L201281358L
L0L
(lp1141
(lp1142
tp1143
a(L1611366926L
L0L
(lp1144
(lp1145
tp1146
a(L1298905568L
L0L
(lp1147
(lp1148
tp1149
a(L1295154486L
L0L
(lp1150
(lp1151
tp1152
a(L2172025409L
L0L
(lp1153
(lp1154
tp1155
a(L1079575012L
L0L
(lp1156
(lp1157
tp1158
a(L978975865L
L0L
(lp1159
(lp1160
tp1161
a(L2258897019L
L0L
(lp1162
(lp1163
tp1164
a(L3027007L
L0L
(lp1165
(lp1166
tp1167
a(L4126803969L
L0L
(lp1168
(lp1169
tp1170
a(L448827677L
L0L
(lp1171
(lp1172
tp1173
a(L2993202392L
L0L
(lp1174
(lp1175
tp1176
a(L2079009947L
L0L
(lp1177
(lp1178
tp1179
a(L2079009947L
L0L
(lp1180
(lp1181
tp1182
atp1183
sI1074237788
(Vbootloader_flash_write
p1184
(lp1185
(L1798169257L
L0L
(lp1186
(lp1187
tp1188
a(L1755666842L
L0L
(lp1189
(lp1190
tp1191
a(L1182930978L
L0L
(lp1192
(lp1193
tp1194
a(L1516326052L
L0L
(lp1195
(lp1196
tp1197
a(L3601225942L
L3785322319L
(lp1198
(lp1199
Vesp_log_early_timestamp
p1200
atp1201
a(L3291333414L
L0L
(lp1202
(lp1203
tp1204
a(L3705527871L
L3785322319L
(lp1205
(lp1206
Vesp_log_early_timestamp
p1207
atp1208
a(L3283691850L
L0L
(lp1209
(lp1210
tp1211
a(L3219727249L
L3785322319L
(lp1212
(lp1213
Vesp_log_early_timestamp
p1214
atp1215
a(L2738388993L
L1880226080L
(lp1216
(lp1217
Vesp_rom_spiflash_unlock
p1218
aVspi_to_esp_err
p1219
atp1220
a(L2902417580L
L0L
(lp1221
(lp1222
tp1223
a(L640850222L
L1880226080L
(lp1224
(lp1225
Vesp_rom_spiflash_write_encrypted
p1226
aVspi_to_esp_err
p1227
atp1228
a(L640850222L
L1880226080L
(lp1229
(lp1230
Vesp_rom_spiflash_write
p1231
aVspi_to_esp_err
p1232
atp1233
a(L735741265L
L0L
(lp1234
(lp1235
tp1236
atp1237
sI1074268776
(Vupdate_flash_config
p1238
(lp1239
(L1046059555L
L0L
(lp1240
(lp1241
tp1242
a(L93674324L
L0L
(lp1243
(lp1244
tp1245
a(L2902417580L
L0L
(lp1246
(lp1247
tp1248
a(L106L
L0L
(lp1249
(lp1250
tp1251
a(L3020187L
L0L
(lp1252
(lp1253
tp1254
a(L3020187L
L0L
(lp1255
(lp1256
tp1257
a(L106L
L0L
(lp1258
(lp1259
tp1260
a(L1299866343L
L0L
(lp1261
(lp1262
tp1263
a(L1299866436L
L0L
(lp1264
(lp1265
tp1266
a(L1299866560L
L0L
(lp1267
(lp1268
tp1269
a(L1641149277L
L0L
(lp1270
(lp1271
tp1272
a(L2258688484L
L0L
(lp1273
(lp1274
tp1275
a(L3722066624L
L0L
(lp1276
(lp1277
tp1278
atp1279
sI1074240100
(Vbootloader_utility_get_selected_boot_partition
p1280
(lp1281
(L493075905L
L0L
(lp1282
(lp1283
tp1284
a(L1053676827L
L3785322319L
(lp1285
(lp1286
Vread_otadata
p1287
atp1288
a(L608517063L
L3785322319L
(lp1289
(lp1290
Vbootloader_common_ota_select_invalid
p1291
atp1292
a(L1836822349L
L3785322319L
(lp1293
(lp1294
Vbootloader_common_ota_select_invalid
p1295
atp1296
a(L1103582223L
L0L
(lp1297
(lp1298
tp1299
a(L1434139642L
L0L
(lp1300
(lp1301
tp1302
a(L1928357489L
L3785322319L
(lp1303
(lp1304
Vesp_log_early_timestamp
p1305
atp1306
a(L1869322443L
L3785322319L
(lp1307
(lp1308
Vesp_log_early_timestamp
p1309
atp1310
a(L1231013322L
L3785322319L
(lp1311
(lp1312
Vbootloader_common_ota_select_crc
p1313
atp1314
a(L505081345L
L0L
(lp1315
(lp1316
tp1317
a(L919052234L
L3785322319L
(lp1318
(lp1319
Vbootloader_common_ota_select_crc
p1320
atp1321
a(L2401229276L
L0L
(lp1322
(lp1323
tp1324
a(L726746649L
L3785322319L
(lp1325
(lp1326
Vbootloader_common_get_active_otadata
p1327
atp1328
a(L4158819813L
L0L
(lp1329
(lp1330
tp1331
a(L1630653147L
L0L
(lp1332
(lp1333
tp1334
a(L357843848L
L3785322319L
(lp1335
(lp1336
Vesp_log_early_timestamp
p1337
atp1338
a(L2346681952L
L3785322319L
(lp1339
(lp1340
Vesp_log_early_timestamp
p1341
atp1342
a(L515633988L
L0L
(lp1343
(lp1344
tp1345
a(L2805938668L
L0L
(lp1346
(lp1347
tp1348
a(L3360570486L
L0L
(lp1349
(lp1350
tp1351
atp1352
sI1074242404
(Vdebug_log_hash
p1353
(lp1354
(L1348589273L
L3785322319L
(lp1355
(lp1356
Vbootloader_sha256_hex_to_str
p1357
atp1358
atp1359
sI1074238560
(Vbootloader_random_disable
p1360
(lp1361
(L4057891542L
L0L
(lp1362
(lp1363
tp1364
atp1365
sI1074244704
(Vesp_rom_spiflash_read_statushigh
p1366
(lp1367
(L3989395107L
L3785322319L
(lp1368
(lp1369
Vesp_rom_spiflash_wait_idle
p1370
atp1371
atp1372
sI1074245224
(Vesp_rom_spiflash_write_encrypted
p1373
(lp1374
(L4165383288L
L0L
(lp1375
(lp1376
tp1377
a(L1782922338L
L0L
(lp1378
(lp1379
tp1380
a(L965508187L
L0L
(lp1381
(lp1382
tp1383
a(L3538468344L
L0L
(lp1384
(lp1385
tp1386
a(L1441056191L
L3785322319L
(lp1387
(lp1388
Vesp_rom_spiflash_write
p1389
atp1390
a(L1885265687L
L0L
(lp1391
(lp1392
tp1393
a(L2728132755L
L0L
(lp1394
(lp1395
tp1396
a(L2986711568L
L0L
(lp1397
(lp1398
tp1399
a(L3880706073L
L0L
(lp1400
(lp1401
tp1402
a(L3880706073L
L0L
(lp1403
(lp1404
tp1405
atp1406
sI1074270072
(Vrtc_clk_8m_enable
p1407
(lp1408
(L1474360438L
L0L
(lp1409
(lp1410
tp1411
a(L658277238L
L0L
(lp1412
(lp1413
tp1414
a(L3851250239L
L0L
(lp1415
(lp1416
tp1417
a(L1156683665L
L0L
(lp1418
(lp1419
tp1420
a(L4167003916L
L0L
(lp1421
(lp1422
tp1423
a(L3619897685L
L0L
(lp1424
(lp1425
tp1426
atp1427
sI1074241396
(Vverify_checksum
p1428
(lp1429
(L7413395L
L3785322319L
(lp1430
(lp1431
Vbootloader_flash_read
p1432
atp1433
a(L3061351808L
L3785322319L
(lp1434
(lp1435
Vesp_log_early_timestamp
p1436
atp1437
a(L3020204L
L0L
(lp1438
(lp1439
tp1440
a(L2547710365L
L3785322319L
(lp1441
(lp1442
Vbootloader_sha256_data
p1443
atp1444
a(L4124473353L
L0L
(lp1445
(lp1446
tp1447
a(L1223427414L
L0L
(lp1448
(lp1449
tp1450
a(L755040691L
L0L
(lp1451
(lp1452
tp1453
atp1454
sI1074244468
(Vesp_rom_spiflash_program_page_internal
p1455
(lp1456
(L2186516923L
L0L
(lp1457
(lp1458
tp1459
a(L3904186990L
L0L
(lp1460
(lp1461
tp1462
a(L106L
L0L
(lp1463
(lp1464
tp1465
a(L2070875117L
L3785322319L
(lp1466
(lp1467
Vesp_rom_spiflash_wait_idle
p1468
atp1469
a(L530241438L
L3785322319L
(lp1470
(lp1471
Vesp_rom_spiflash_enable_write
p1472
atp1473
a(L1499276535L
L0L
(lp1474
(lp1475
tp1476
a(L370006870L
L0L
(lp1477
(lp1478
tp1479
a(L258098009L
L0L
(lp1480
(lp1481
tp1482
a(L93837694L
L0L
(lp1483
(lp1484
tp1485
a(L1943062613L
L0L
(lp1486
(lp1487
tp1488
a(L920461499L
L0L
(lp1489
(lp1490
tp1491
a(L131455463L
L0L
(lp1492
(lp1493
tp1494
a(L4208385735L
L0L
(lp1495
(lp1496
tp1497
a(L1305407438L
L0L
(lp1498
(lp1499
tp1500
a(L258098009L
L0L
(lp1501
(lp1502
tp1503
a(L3027019L
L0L
(lp1504
(lp1505
tp1506
a(L1182901183L
L0L
(lp1507
(lp1508
tp1509
a(L9381199L
L0L
(lp1510
(lp1511
tp1512
a(L3708374670L
L0L
(lp1513
(lp1514
tp1515
a(L1452275741L
L3785322319L
(lp1516
(lp1517
Vesp_rom_spiflash_wait_idle
p1518
atp1519
a(L3027007L
L0L
(lp1520
(lp1521
tp1522
a(L106L
L0L
(lp1523
(lp1524
tp1525
a(L2629009816L
L0L
(lp1526
(lp1527
tp1528
a(L3880706073L
L0L
(lp1529
(lp1530
tp1531
a(L3880706073L
L0L
(lp1532
(lp1533
tp1534
a(L3880706073L
L0L
(lp1535
(lp1536
tp1537
atp1538
sI1074269564
(Vbootloader_clock_configure
p1539
(lp1540
(L3493042567L
L0L
(lp1541
(lp1542
tp1543
a(L4147761415L
L0L
(lp1544
(lp1545
tp1546
a(L4289274061L
L0L
(lp1547
(lp1548
tp1549
a(L2609443980L
L0L
(lp1550
(lp1551
tp1552
a(L1812928027L
L0L
(lp1553
(lp1554
tp1555
a(L1812928027L
L0L
(lp1556
(lp1557
tp1558
a(L2312970590L
L0L
(lp1559
(lp1560
tp1561
a(L3896974555L
L1832448559L
(lp1562
(lp1563
Vrtc_clk_slow_freq_get
p1564
aVrtc_clk_fast_freq_get
p1565
aVrtc_clk_init
p1566
atp1567
atp1568
sI1074235760
(Vbootloader_flash_dummy_config
p1569
(lp1570
(L29985232L
L0L
(lp1571
(lp1572
tp1573
a(L3017366L
L0L
(lp1574
(lp1575
tp1576
a(L3016870L
L0L
(lp1577
(lp1578
tp1579
a(L2704877724L
L0L
(lp1580
(lp1581
tp1582
a(L3795431303L
L0L
(lp1583
(lp1584
tp1585
a(L1610443405L
L0L
(lp1586
(lp1587
tp1588
a(L1610443405L
L0L
(lp1589
(lp1590
tp1591
a(L1610443498L
L0L
(lp1592
(lp1593
tp1594
a(L1298875780L
L0L
(lp1595
(lp1596
tp1597
a(L680882736L
L0L
(lp1598
(lp1599
tp1600
a(L2902417580L
L0L
(lp1601
(lp1602
tp1603
a(L106L
L0L
(lp1604
(lp1605
tp1606
a(L3632614529L
L0L
(lp1607
(lp1608
tp1609
a(L325410616L
L0L
(lp1610
(lp1611
tp1612
a(L2363466905L
L0L
(lp1613
(lp1614
tp1615
a(L419079280L
L0L
(lp1616
(lp1617
tp1618
a(L3127423664L
L0L
(lp1619
(lp1620
tp1621
atp1622
sI1074236016
(V__udivdi3
p1623
(lp1624
(L1385793588L
L0L
(lp1625
(lp1626
tp1627
a(L3027019L
L0L
(lp1628
(lp1629
tp1630
a(L106L
L0L
(lp1631
(lp1632
tp1633
a(L2092509388L
L0L
(lp1634
(lp1635
tp1636
a(L3502386743L
L0L
(lp1637
(lp1638
tp1639
a(L1366962904L
L0L
(lp1640
(lp1641
tp1642
a(L438338333L
L0L
(lp1643
(lp1644
tp1645
a(L3027019L
L0L
(lp1646
(lp1647
tp1648
a(L1598954342L
L0L
(lp1649
(lp1650
tp1651
a(L3753924055L
L0L
(lp1652
(lp1653
tp1654
a(L1897931368L
L0L
(lp1655
(lp1656
tp1657
a(L1870013079L
L0L
(lp1658
(lp1659
tp1660
a(L3021749L
L0L
(lp1661
(lp1662
tp1663
a(L2802159608L
L0L
(lp1664
(lp1665
tp1666
a(L3888552627L
L0L
(lp1667
(lp1668
tp1669
a(L2632174215L
L0L
(lp1670
(lp1671
tp1672
a(L2910371777L
L0L
(lp1673
(lp1674
tp1675
a(L305663930L
L0L
(lp1676
(lp1677
tp1678
a(L2740121073L
L0L
(lp1679
(lp1680
tp1681
a(L706293450L
L0L
(lp1682
(lp1683
tp1684
a(L4229162210L
L0L
(lp1685
(lp1686
tp1687
a(L2843085605L
L0L
(lp1688
(lp1689
tp1690
a(L3027019L
L0L
(lp1691
(lp1692
tp1693
a(L3073587686L
L0L
(lp1694
(lp1695
tp1696
a(L3122262879L
L0L
(lp1697
(lp1698
tp1699
a(L1300871293L
L0L
(lp1700
(lp1701
tp1702
a(L94415139L
L0L
(lp1703
(lp1704
tp1705
a(L3027019L
L0L
(lp1706
(lp1707
tp1708
a(L11368960L
L0L
(lp1709
(lp1710
tp1711
a(L3212626947L
L0L
(lp1712
(lp1713
tp1714
a(L3756070799L
L0L
(lp1715
(lp1716
tp1717
a(L1029992261L
L0L
(lp1718
(lp1719
tp1720
a(L438338333L
L0L
(lp1721
(lp1722
tp1723
a(L3027019L
L0L
(lp1724
(lp1725
tp1726
a(L2534896770L
L0L
(lp1727
(lp1728
tp1729
a(L2789765947L
L0L
(lp1730
(lp1731
tp1732
a(L3482374298L
L0L
(lp1733
(lp1734
tp1735
a(L1870018349L
L0L
(lp1736
(lp1737
tp1738
a(L3027019L
L0L
(lp1739
(lp1740
tp1741
a(L2802159608L
L0L
(lp1742
(lp1743
tp1744
a(L3888552627L
L0L
(lp1745
(lp1746
tp1747
a(L36877582L
L0L
(lp1748
(lp1749
tp1750
a(L3021749L
L0L
(lp1751
(lp1752
tp1753
a(L106L
L0L
(lp1754
(lp1755
tp1756
a(L3988749468L
L0L
(lp1757
(lp1758
tp1759
a(L1375050317L
L0L
(lp1760
(lp1761
tp1762
a(L4185861754L
L0L
(lp1763
(lp1764
tp1765
a(L892947480L
L0L
(lp1766
(lp1767
tp1768
a(L2258688482L
L0L
(lp1769
(lp1770
tp1771
a(L2856348002L
L0L
(lp1772
(lp1773
tp1774
a(L1351383952L
L0L
(lp1775
(lp1776
tp1777
a(L1681866360L
L0L
(lp1778
(lp1779
tp1780
a(L3021749L
L0L
(lp1781
(lp1782
tp1783
a(L4115096326L
L0L
(lp1784
(lp1785
tp1786
a(L2229771582L
L0L
(lp1787
(lp1788
tp1789
a(L3630858718L
L0L
(lp1790
(lp1791
tp1792
a(L1986658244L
L0L
(lp1793
(lp1794
tp1795
a(L3027019L
L0L
(lp1796
(lp1797
tp1798
a(L2802159608L
L0L
(lp1799
(lp1800
tp1801
a(L2938387302L
L0L
(lp1802
(lp1803
tp1804
a(L3219580898L
L0L
(lp1805
(lp1806
tp1807
a(L4280816470L
L0L
(lp1808
(lp1809
tp1810
a(L97422L
L0L
(lp1811
(lp1812
tp1813
a(L1621601873L
L0L
(lp1814
(lp1815
tp1816
a(L3070693089L
L0L
(lp1817
(lp1818
tp1819
a(L2361595480L
L0L
(lp1820
(lp1821
tp1822
a(L539227760L
L0L
(lp1823
(lp1824
tp1825
atp1826
sI1074237040
(Vbootloader_common_ota_select_invalid
p1827
(lp1828
(L2808438197L
L0L
(lp1829
(lp1830
tp1831
a(L473337258L
L0L
(lp1832
(lp1833
tp1834
a(L3028464L
L0L
(lp1835
(lp1836
tp1837
a(L3880706073L
L0L
(lp1838
(lp1839
tp1840
a(L3880706073L
L0L
(lp1841
(lp1842
tp1843
a(L3880706073L
L0L
(lp1844
(lp1845
tp1846
a(L2993202392L
L0L
(lp1847
(lp1848
tp1849
atp1850
sI1074239088
(Vwrite_otadata
p1851
(lp1852
(L1129643552L
L3785322319L
(lp1853
(lp1854
Vbootloader_flash_erase_sector
p1855
atp1856
a(L2292404229L
L3785322319L
(lp1857
(lp1858
Vbootloader_flash_write
p1859
atp1860
a(L3020204L
L0L
(lp1861
(lp1862
tp1863
a(L3719875213L
L3785322319L
(lp1864
(lp1865
Vesp_log_early_timestamp
p1866
atp1867
a(L3360570486L
L0L
(lp1868
(lp1869
tp1870
atp1871
sI1074246000
(Vrtc_wdt_get_protect_status
p1872
(lp1873
(L3055417052L
L0L
(lp1874
(lp1875
tp1876
atp1877
sI1074240380
(Vbootloader_utility_load_boot_image
p1878
(lp1879
(L3583044102L
L0L
(lp1880
(lp1881
tp1882
a(L534474525L
L3785322319L
(lp1883
(lp1884
Vtry_load_partition
p1885
atp1886
a(L1346171890L
L3785322319L
(lp1887
(lp1888
Vload_image
p1889
atp1890
a(L2128935478L
L1880226080L
(lp1891
(lp1892
Vesp_log_early_timestamp
p1893
aVbootloader_reset
p1894
atp1895
a(L471331349L
L3785322319L
(lp1896
(lp1897
Vindex_to_partition
p1898
atp1899
a(L889780906L
L3785322319L
(lp1900
(lp1901
Vcheck_anti_rollback
p1902
atp1903
a(L1255570883L
L3785322319L
(lp1904
(lp1905
Vtry_load_partition
p1906
atp1907
a(L170811925L
L1880226080L
(lp1908
(lp1909
Vset_actual_ota_seq
p1910
aVload_image
p1911
atp1912
a(L1391131227L
L3785322319L
(lp1913
(lp1914
Vlog_invalid_app_partition
p1915
atp1916
a(L11368960L
L0L
(lp1917
(lp1918
tp1919
a(L3802068281L
L0L
(lp1920
(lp1921
tp1922
a(L3021737L
L0L
(lp1923
(lp1924
tp1925
a(L830883630L
L0L
(lp1926
(lp1927
tp1928
a(L4120885050L
L3785322319L
(lp1929
(lp1930
Vindex_to_partition
p1931
atp1932
a(L889780906L
L3785322319L
(lp1933
(lp1934
Vcheck_anti_rollback
p1935
atp1936
a(L1255570883L
L3785322319L
(lp1937
(lp1938
Vtry_load_partition
p1939
atp1940
a(L170811925L
L1880226080L
(lp1941
(lp1942
Vset_actual_ota_seq
p1943
aVload_image
p1944
atp1945
a(L1868897605L
L3785322319L
(lp1946
(lp1947
Vlog_invalid_app_partition
p1948
atp1949
a(L3335942427L
L0L
(lp1950
(lp1951
tp1952
a(L3305857427L
L0L
(lp1953
(lp1954
tp1955
a(L2528911837L
L3785322319L
(lp1956
(lp1957
Vtry_load_partition
p1958
atp1959
a(L477941458L
L1880226080L
(lp1960
(lp1961
Vesp_log_early_timestamp
p1962
aVload_image
p1963
atp1964
a(L1699416426L
L1880226080L
(lp1965
(lp1966
Vesp_log_early_timestamp
p1967
aVbootloader_reset
p1968
atp1969
atp1970
sI1074242428
(Vverify_simple_hash
p1971
(lp1972
(L1498278627L
L1832448559L
(lp1973
(lp1974
Vbootloader_sha256_finish
p1975
aVdebug_log_hash
p1976
aVbootloader_mmap
p1977
atp1978
a(L814089951L
L1832448559L
(lp1979
(lp1980
Vesp_log_early_timestamp
p1981
aVdebug_log_hash
p1982
aVbootloader_munmap
p1983
atp1984
a(L1606099250L
L3785322319L
(lp1985
(lp1986
Vbootloader_munmap
p1987
atp1988
atp1989
sI1074271604
(Vrtc_clk_cpu_freq_to_8m
p1990
(lp1991
(L2879817778L
L3785322319L
(lp1992
(lp1993
Vrtc_clk_apb_freq_update
p1994
atp1995
atp1996
sI1074240632
(Vindex_to_partition
p1997
(lp1998
(L4066096119L
L0L
(lp1999
(lp2000
tp2001
a(L937847257L
L0L
(lp2002
(lp2003
tp2004
a(L2808906342L
L0L
(lp2005
(lp2006
tp2007
a(L1765918994L
L0L
(lp2008
(lp2009
tp2010
a(L2808826781L
L0L
(lp2011
(lp2012
tp2013
a(L2911029954L
L0L
(lp2014
(lp2015
tp2016
a(L2511483031L
L0L
(lp2017
(lp2018
tp2019
a(L1984670054L
L0L
(lp2020
(lp2021
tp2022
a(L3698927993L
L0L
(lp2023
(lp2024
tp2025
atp2026
sI1074243960
(Vesp_rom_spiflash_read_status
p2027
(lp2028
(L112105960L
L0L
(lp2029
(lp2030
tp2031
a(L106L
L0L
(lp2032
(lp2033
tp2034
a(L1709169862L
L0L
(lp2035
(lp2036
tp2037
a(L1715204046L
L0L
(lp2038
(lp2039
tp2040
a(L3695632725L
L0L
(lp2041
(lp2042
tp2043
a(L4159619641L
L0L
(lp2044
(lp2045
tp2046
a(L106L
L0L
(lp2047
(lp2048
tp2049
a(L2351135340L
L0L
(lp2050
(lp2051
tp2052
a(L4159619641L
L0L
(lp2053
(lp2054
tp2055
a(L2392720019L
L0L
(lp2056
(lp2057
tp2058
atp2059
sI1074241668
(Vverify_load_addresses
p2060
(lp2061
(L2763563698L
L0L
(lp2062
(lp2063
tp2064
a(L106L
L0L
(lp2065
(lp2066
tp2067
a(L97642L
L0L
(lp2068
(lp2069
tp2070
a(L7017171L
L3785322319L
(lp2071
(lp2072
V__assert_func
p2073
atp2074
a(L4000980610L
L0L
(lp2075
(lp2076
tp2077
a(L106L
L0L
(lp2078
(lp2079
tp2080
a(L2135626914L
L0L
(lp2081
(lp2082
tp2083
a(L106L
L0L
(lp2084
(lp2085
tp2086
a(L2848628730L
L0L
(lp2087
(lp2088
tp2089
a(L1182990556L
L0L
(lp2090
(lp2091
tp2092
a(L1322742497L
L0L
(lp2093
(lp2094
tp2095
a(L2306437309L
L0L
(lp2096
(lp2097
tp2098
a(L93892250L
L0L
(lp2099
(lp2100
tp2101
a(L106L
L0L
(lp2102
(lp2103
tp2104
a(L2480306296L
L0L
(lp2105
(lp2106
tp2107
a(L2258867228L
L0L
(lp2108
(lp2109
tp2110
a(L322238992L
L0L
(lp2111
(lp2112
tp2113
a(L2258897019L
L0L
(lp2114
(lp2115
tp2116
a(L93892250L
L0L
(lp2117
(lp2118
tp2119
a(L106L
L0L
(lp2120
(lp2121
tp2122
a(L3028481L
L0L
(lp2123
(lp2124
tp2125
a(L497616802L
L0L
(lp2126
(lp2127
tp2128
a(L2258807646L
L0L
(lp2129
(lp2130
tp2131
a(L3425187488L
L0L
(lp2132
(lp2133
tp2134
a(L2258867228L
L0L
(lp2135
(lp2136
tp2137
a(L3016266L
L0L
(lp2138
(lp2139
tp2140
a(L106L
L0L
(lp2141
(lp2142
tp2143
a(L524464942L
L0L
(lp2144
(lp2145
tp2146
a(L714262439L
L0L
(lp2147
(lp2148
tp2149
a(L3200754878L
L0L
(lp2150
(lp2151
tp2152
a(L1769229423L
L0L
(lp2153
(lp2154
tp2155
a(L1556778961L
L0L
(lp2156
(lp2157
tp2158
a(L952241675L
L0L
(lp2159
(lp2160
tp2161
a(L97472L
L0L
(lp2162
(lp2163
tp2164
a(L2680290961L
L3785322319L
(lp2165
(lp2166
Vverify_load_addresses
p2167
atp2168
a(L3856589209L
L3785322319L
(lp2169
(lp2170
Vverify_load_addresses
p2171
atp2172
a(L3985852354L
L0L
(lp2173
(lp2174
tp2175
a(L106L
L0L
(lp2176
(lp2177
tp2178
a(L547279012L
L0L
(lp2179
(lp2180
tp2181
a(L106L
L0L
(lp2182
(lp2183
tp2184
a(L2482034174L
L0L
(lp2185
(lp2186
tp2187
a(L2258867228L
L0L
(lp2188
(lp2189
tp2190
a(L323966870L
L0L
(lp2191
(lp2192
tp2193
a(L2258897019L
L0L
(lp2194
(lp2195
tp2196
a(L93892250L
L0L
(lp2197
(lp2198
tp2199
a(L106L
L0L
(lp2200
(lp2201
tp2202
a(L3028481L
L0L
(lp2203
(lp2204
tp2205
a(L498182831L
L0L
(lp2206
(lp2207
tp2208
a(L2258807646L
L0L
(lp2209
(lp2210
tp2211
a(L3425664144L
L0L
(lp2212
(lp2213
tp2214
a(L2258867228L
L0L
(lp2215
(lp2216
tp2217
a(L3016266L
L0L
(lp2218
(lp2219
tp2220
a(L106L
L0L
(lp2221
(lp2222
tp2223
a(L3199674524L
L0L
(lp2224
(lp2225
tp2226
a(L2018608855L
L0L
(lp2227
(lp2228
tp2229
a(L3200754862L
L0L
(lp2230
(lp2231
tp2232
a(L149471709L
L0L
(lp2233
(lp2234
tp2235
a(L903234305L
L0L
(lp2236
(lp2237
tp2238
a(L952241683L
L0L
(lp2239
(lp2240
tp2241
a(L97472L
L0L
(lp2242
(lp2243
tp2244
a(L2680290961L
L3785322319L
(lp2245
(lp2246
Vverify_load_addresses
p2247
atp2248
a(L3856589209L
L3785322319L
(lp2249
(lp2250
Vverify_load_addresses
p2251
atp2252
a(L2049074773L
L0L
(lp2253
(lp2254
tp2255
a(L2822527168L
L0L
(lp2256
(lp2257
tp2258
a(L2094339281L
L0L
(lp2259
(lp2260
tp2261
a(L2867791676L
L0L
(lp2262
(lp2263
tp2264
a(L640124550L
L0L
(lp2265
(lp2266
tp2267
a(L2031820249L
L0L
(lp2268
(lp2269
tp2270
a(L826402262L
L0L
(lp2271
(lp2272
tp2273
a(L826402634L
L0L
(lp2274
(lp2275
tp2276
a(L826402014L
L0L
(lp2277
(lp2278
tp2279
a(L826402138L
L0L
(lp2280
(lp2281
tp2282
a(L2104868116L
L0L
(lp2283
(lp2284
tp2285
a(L3020204L
L0L
(lp2286
(lp2287
tp2288
a(L1409683440L
L3785322319L
(lp2289
(lp2290
Vesp_log_early_timestamp
p2291
atp2292
a(L3880706073L
L0L
(lp2293
(lp2294
tp2295
a(L3880706073L
L0L
(lp2296
(lp2297
tp2298
a(L3880706073L
L0L
(lp2299
(lp2300
tp2301
a(L3880706073L
L0L
(lp2302
(lp2303
tp2304
a(L3880706073L
L0L
(lp2305
(lp2306
tp2307
a(L3880706073L
L0L
(lp2308
(lp2309
tp2310
a(L3880706073L
L0L
(lp2311
(lp2312
tp2313
a(L3880706073L
L0L
(lp2314
(lp2315
tp2316
a(L2993202392L
L0L
(lp2317
(lp2318
tp2319
atp2320
sI1074244740
(Vesp_rom_spiflash_write_status
p2321
(lp2322
(L2161108584L
L3785322319L
(lp2323
(lp2324
Vesp_rom_spiflash_wait_idle
p2325
atp2326
a(L3708374670L
L0L
(lp2327
(lp2328
tp2329
a(L1387965403L
L3785322319L
(lp2330
(lp2331
Vesp_rom_spiflash_wait_idle
p2332
atp2333
atp2334
sI1074268556
(Vuart_console_configure
p2335
(lp2336
(L854943876L
L0L
(lp2337
(lp2338
tp2339
a(L4147761415L
L0L
(lp2340
(lp2341
tp2342
a(L1432228188L
L3785322319L
(lp2343
(lp2344
Vrtc_clk_apb_freq_get
p2345
atp2346
atp2347
sI1074240896
(Vbootloader_sha256_finish
p2348
(lp2349
(L4066096136L
L0L
(lp2350
(lp2351
tp2352
a(L3729330241L
L3785322319L
(lp2353
(lp2354
V__assert_func
p2355
atp2356
a(L3020204L
L0L
(lp2357
(lp2358
tp2359
a(L519274930L
L0L
(lp2360
(lp2361
tp2362
a(L2534656226L
L0L
(lp2363
(lp2364
tp2365
a(L321015369L
L0L
(lp2366
(lp2367
tp2368
a(L1247269213L
L3785322319L
(lp2369
(lp2370
V__assert_func
p2371
atp2372
a(L2175790476L
L3785322319L
(lp2373
(lp2374
Vbootloader_sha256_data
p2375
atp2376
a(L136725150L
L3785322319L
(lp2377
(lp2378
V__assert_func
p2379
atp2380
a(L3232900178L
L1880226080L
(lp2381
(lp2382
V__bswapsi2
p2383
aVbootloader_sha256_data
p2384
atp2385
a(L554347023L
L3785322319L
(lp2386
(lp2387
V__assert_func
p2388
atp2389
a(L2130116199L
L0L
(lp2390
(lp2391
tp2392
a(L696856334L
L0L
(lp2393
(lp2394
tp2395
a(L2130116199L
L0L
(lp2396
(lp2397
tp2398
a(L1299866312L
L0L
(lp2399
(lp2400
tp2401
a(L3235326776L
L3785322319L
(lp2402
(lp2403
V__bswapsi2
p2404
atp2405
a(L93837694L
L0L
(lp2406
(lp2407
tp2408
a(L3347778L
L0L
(lp2409
(lp2410
tp2411
a(L3360570486L
L0L
(lp2412
(lp2413
tp2414
atp2415
sI1074235264
(Vbootloader_flash_gpio_config
p2416
(lp2417
(L1541720566L
L0L
(lp2418
(lp2419
tp2420
a(L1299866374L
L0L
(lp2421
(lp2422
tp2423
a(L2258688485L
L0L
(lp2424
(lp2425
tp2426
a(L2999495356L
L0L
(lp2427
(lp2428
tp2429
a(L175178334L
L0L
(lp2430
(lp2431
tp2432
a(L3955219521L
L0L
(lp2433
(lp2434
tp2435
a(L2136722540L
L0L
(lp2436
(lp2437
tp2438
a(L177068915L
L0L
(lp2439
(lp2440
tp2441
a(L3111470142L
L0L
(lp2442
(lp2443
tp2444
a(L3360570486L
L0L
(lp2445
(lp2446
tp2447
atp2448
sI1074242944
(Vimage_load
p2449
(lp2450
(L2340434831L
L0L
(lp2451
(lp2452
tp2453
a(L106L
L0L
(lp2454
(lp2455
tp2456
a(L933926401L
L0L
(lp2457
(lp2458
tp2459
a(L3028464L
L0L
(lp2460
(lp2461
tp2462
a(L106L
L0L
(lp2463
(lp2464
tp2465
a(L3899222988L
L3785322319L
(lp2466
(lp2467
Vesp_log_early_timestamp
p2468
atp2469
a(L4159352654L
L3785322319L
(lp2470
(lp2471
Vbootloader_flash_read
p2472
atp2473
a(L2950861325L
L0L
(lp2474
(lp2475
tp2476
a(L2568992188L
L3785322319L
(lp2477
(lp2478
Vbootloader_sha256_start
p2479
atp2480
a(L4173212049L
L3785322319L
(lp2481
(lp2482
Vbootloader_sha256_data
p2483
atp2484
a(L2258837437L
L0L
(lp2485
(lp2486
tp2487
a(L846347405L
L3785322319L
(lp2488
(lp2489
Vverify_image_header
p2490
atp2491
a(L1980404654L
L0L
(lp2492
(lp2493
tp2494
a(L3028464L
L0L
(lp2495
(lp2496
tp2497
a(L106L
L0L
(lp2498
(lp2499
tp2500
a(L1318347320L
L3785322319L
(lp2501
(lp2502
Vesp_log_early_timestamp
p2503
atp2504
a(L2671916466L
L0L
(lp2505
(lp2506
tp2507
a(L1898485626L
L3785322319L
(lp2508
(lp2509
Vprocess_segment
p2510
atp2511
a(L3878353414L
L0L
(lp2512
(lp2513
tp2514
a(L2125973223L
L0L
(lp2515
(lp2516
tp2517
a(L499151239L
L0L
(lp2518
(lp2519
tp2520
a(L3028464L
L0L
(lp2521
(lp2522
tp2523
a(L106L
L0L
(lp2524
(lp2525
tp2526
a(L957905035L
L3785322319L
(lp2527
(lp2528
Vesp_log_early_timestamp
p2529
atp2530
a(L4041426534L
L3785322319L
(lp2531
(lp2532
Vesp_cpu_in_ocd_debug_mode
p2533
atp2534
a(L1482013975L
L3785322319L
(lp2535
(lp2536
Vverify_checksum
p2537
atp2538
a(L279608302L
L0L
(lp2539
(lp2540
tp2541
a(L3028464L
L0L
(lp2542
(lp2543
tp2544
a(L106L
L0L
(lp2545
(lp2546
tp2547
a(L607123934L
L3785322319L
(lp2548
(lp2549
Vesp_log_early_timestamp
p2550
atp2551
a(L2078070517L
L0L
(lp2552
(lp2553
tp2554
a(L3020204L
L0L
(lp2555
(lp2556
tp2557
a(L3287840219L
L3785322319L
(lp2558
(lp2559
Vesp_cpu_in_ocd_debug_mode
p2560
atp2561
a(L3045806043L
L3785322319L
(lp2562
(lp2563
Vverify_simple_hash
p2564
atp2565
a(L3020204L
L0L
(lp2566
(lp2567
tp2568
a(L3688659868L
L3785322319L
(lp2569
(lp2570
Vbootloader_sha256_finish
p2571
atp2572
a(L3230798602L
L0L
(lp2573
(lp2574
tp2575
a(L84393073L
L3785322319L
(lp2576
(lp2577
Vbootloader_mmap
p2578
atp2579
a(L4020522979L
L3785322319L
(lp2580
(lp2581
Vbootloader_munmap
p2582
atp2583
a(L3028481L
L0L
(lp2584
(lp2585
tp2586
a(L3020187L
L0L
(lp2587
(lp2588
tp2589
a(L106L
L0L
(lp2590
(lp2591
tp2592
a(L1062407658L
L0L
(lp2593
(lp2594
tp2595
a(L1066110019L
L0L
(lp2596
(lp2597
tp2598
a(L3360570486L
L0L
(lp2599
(lp2600
tp2601
a(L2814963175L
L3785322319L
(lp2602
(lp2603
Vshould_load
p2604
atp2605
a(L1299866312L
L0L
(lp2606
(lp2607
tp2608
a(L1712671152L
L0L
(lp2609
(lp2610
tp2611
a(L859692926L
L0L
(lp2612
(lp2613
tp2614
a(L1690300016L
L0L
(lp2615
(lp2616
tp2617
a(L1253273515L
L0L
(lp2618
(lp2619
tp2620
a(L1191274096L
L0L
(lp2621
(lp2622
tp2623
a(L1720234353L
L0L
(lp2624
(lp2625
tp2626
a(L2258777855L
L0L
(lp2627
(lp2628
tp2629
a(L85798113L
L0L
(lp2630
(lp2631
tp2632
a(L2993202392L
L0L
(lp2633
(lp2634
tp2635
a(L3151898214L
L0L
(lp2636
(lp2637
tp2638
a(L1304483917L
L0L
(lp2639
(lp2640
tp2641
a(L1755718488L
L0L
(lp2642
(lp2643
tp2644
a(L2258837437L
L0L
(lp2645
(lp2646
tp2647
a(L2910371777L
L0L
(lp2648
(lp2649
tp2650
a(L2104868779L
L0L
(lp2651
(lp2652
tp2653
a(L3020204L
L0L
(lp2654
(lp2655
tp2656
a(L3688659868L
L3785322319L
(lp2657
(lp2658
Vbootloader_sha256_finish
p2659
atp2660
a(L2132349133L
L0L
(lp2661
(lp2662
tp2663
a(L2079009947L
L0L
(lp2664
(lp2665
tp2666
a(L1191506266L
L0L
(lp2667
(lp2668
tp2669
a(L2993202392L
L0L
(lp2670
(lp2671
tp2672
a(L2993202392L
L0L
(lp2673
(lp2674
tp2675
atp2676
sI1074246028
(Vrtc_wdt_protect_off
p2677
(lp2678
(L3946267058L
L0L
(lp2679
(lp2680
tp2681
atp2682
sI1074268036
(Vwdt_reset_cpu0_info_enable
p2683
(lp2684
(L3662099294L
L0L
(lp2685
(lp2686
tp2687
atp2688
sI1074236808
(Vbootloader_common_get_chip_revision
p2689
(lp2690
(L198853448L
L0L
(lp2691
(lp2692
tp2693
a(L3020187L
L0L
(lp2694
(lp2695
tp2696
a(L3020187L
L0L
(lp2697
(lp2698
tp2699
a(L2993202392L
L0L
(lp2700
(lp2701
tp2702
a(L473242458L
L0L
(lp2703
(lp2704
tp2705
a(L1360746139L
L0L
(lp2706
(lp2707
tp2708
a(L3880706073L
L0L
(lp2709
(lp2710
tp2711
atp2712
sI1074238088
(Vbootloader_random_enable
p2713
(lp2714
(L892023223L
L0L
(lp2715
(lp2716
tp2717
atp2718
sI1074237072
(Vbootloader_common_select_otadata
p2719
(lp2720
(L44027793L
L0L
(lp2721
(lp2722
tp2723
a(L1238320367L
L0L
(lp2724
(lp2725
tp2726
a(L1238350425L
L0L
(lp2727
(lp2728
tp2729
a(L3063569071L
L0L
(lp2730
(lp2731
tp2732
a(L1299866312L
L0L
(lp2733
(lp2734
tp2735
a(L2902417580L
L0L
(lp2736
(lp2737
tp2738
a(L1264419299L
L0L
(lp2739
(lp2740
tp2741
a(L1542955705L
L0L
(lp2742
(lp2743
tp2744
a(L3969214161L
L0L
(lp2745
(lp2746
tp2747
a(L2993202392L
L0L
(lp2748
(lp2749
tp2750
a(L1098457408L
L0L
(lp2751
(lp2752
tp2753
a(L1770629919L
L0L
(lp2754
(lp2755
tp2756
a(L3027007L
L0L
(lp2757
(lp2758
tp2759
a(L515633988L
L0L
(lp2760
(lp2761
tp2762
a(L515633988L
L0L
(lp2763
(lp2764
tp2765
a(L2258688483L
L0L
(lp2766
(lp2767
tp2768
a(L3360570486L
L0L
(lp2769
(lp2770
tp2771
atp2772
sI1074269840
(Vrtc_clk_bbpll_disable
p2773
(lp2774
(L3090335828L
L0L
(lp2775
(lp2776
tp2777
a(L588831881L
L0L
(lp2778
(lp2779
tp2780
a(L3360570486L
L0L
(lp2781
(lp2782
tp2783
atp2784
sI1074238876
(Vlog_invalid_app_partition
p2785
(lp2786
(L3991230301L
L0L
(lp2787
(lp2788
tp2789
a(L3028464L
L0L
(lp2790
(lp2791
tp2792
a(L2200570362L
L3785322319L
(lp2793
(lp2794
Vesp_log_early_timestamp
p2795
atp2796
a(L1792603454L
L3785322319L
(lp2797
(lp2798
Vesp_log_early_timestamp
p2799
atp2800
a(L3866681960L
L3785322319L
(lp2801
(lp2802
Vesp_log_early_timestamp
p2803
atp2804
atp2805
sI1074237596
(Vbootloader_munmap
p2806
(lp2807
(L3257303249L
L0L
(lp2808
(lp2809
tp2810
a(L4275226750L
L0L
(lp2811
(lp2812
tp2813
a(L3360570486L
L0L
(lp2814
(lp2815
tp2816
atp2817
sI1074246044
(Vrtc_wdt_protect_on
p2818
(lp2819
(L409754545L
L0L
(lp2820
(lp2821
tp2822
atp2823
sI1074268308
(Vprint_flash_info
p2824
(lp2825
(L2664752807L
L0L
(lp2826
(lp2827
tp2828
a(L2902417580L
L0L
(lp2829
(lp2830
tp2831
a(L3020187L
L0L
(lp2832
(lp2833
tp2834
a(L225150647L
L0L
(lp2835
(lp2836
tp2837
a(L106L
L0L
(lp2838
(lp2839
tp2840
a(L460429684L
L0L
(lp2841
(lp2842
tp2843
a(L460431017L
L0L
(lp2844
(lp2845
tp2846
a(L460430397L
L0L
(lp2847
(lp2848
tp2849
a(L460431017L
L0L
(lp2850
(lp2851
tp2852
a(L3201441202L
L0L
(lp2853
(lp2854
tp2855
a(L866427733L
L3785322319L
(lp2856
(lp2857
Vesp_log_early_timestamp
p2858
atp2859
a(L3017366L
L0L
(lp2860
(lp2861
tp2862
a(L3017366L
L0L
(lp2863
(lp2864
tp2865
a(L3017366L
L0L
(lp2866
(lp2867
tp2868
a(L3016870L
L0L
(lp2869
(lp2870
tp2871
a(L460431358L
L0L
(lp2872
(lp2873
tp2874
a(L460430645L
L0L
(lp2875
(lp2876
tp2877
a(L460430521L
L0L
(lp2878
(lp2879
tp2880
a(L460431606L
L0L
(lp2881
(lp2882
tp2883
a(L460431482L
L0L
(lp2884
(lp2885
tp2886
a(L3201441280L
L0L
(lp2887
(lp2888
tp2889
a(L3048602044L
L3785322319L
(lp2890
(lp2891
Vesp_log_early_timestamp
p2892
atp2893
a(L93674324L
L0L
(lp2894
(lp2895
tp2896
a(L3020204L
L0L
(lp2897
(lp2898
tp2899
a(L106L
L0L
(lp2900
(lp2901
tp2902
a(L3020187L
L0L
(lp2903
(lp2904
tp2905
a(L3020187L
L0L
(lp2906
(lp2907
tp2908
a(L106L
L0L
(lp2909
(lp2910
tp2911
a(L331387079L
L0L
(lp2912
(lp2913
tp2914
a(L331387203L
L0L
(lp2915
(lp2916
tp2917
a(L331388660L
L0L
(lp2918
(lp2919
tp2920
a(L331387327L
L0L
(lp2921
(lp2922
tp2923
a(L703425374L
L0L
(lp2924
(lp2925
tp2926
a(L942644739L
L3785322319L
(lp2927
(lp2928
Vesp_log_early_timestamp
p2929
atp2930
atp2931
sI1074270356
(Vrtc_clk_slow_freq_get
p2932
(lp2933
(L3018331558L
L0L
(lp2934
(lp2935
tp2936
atp2937
sI1074268076
(Vwdt_reset_info_dump
p2938
(lp2939
(L1642351636L
L0L
(lp2940
(lp2941
tp2942
a(L460423918L
L0L
(lp2943
(lp2944
tp2945
a(L3201441063L
L0L
(lp2946
(lp2947
tp2948
a(L3028481L
L0L
(lp2949
(lp2950
tp2951
a(L3486670486L
L0L
(lp2952
(lp2953
tp2954
a(L3274622494L
L0L
(lp2955
(lp2956
tp2957
a(L1413004396L
L0L
(lp2958
(lp2959
tp2960
a(L1550379252L
L0L
(lp2961
(lp2962
tp2963
a(L4004427021L
L3785322319L
(lp2964
(lp2965
Vesp_log_early_timestamp
p2966
atp2967
a(L1148072953L
L3785322319L
(lp2968
(lp2969
Vesp_log_early_timestamp
p2970
atp2971
atp2972
sI1074272428
(Vrtc_vddsdio_get_config
p2973
(lp2974
(L3147805695L
L0L
(lp2975
(lp2976
tp2977
a(L747662824L
L0L
(lp2978
(lp2979
tp2980
a(L594703436L
L0L
(lp2981
(lp2982
tp2983
a(L752418139L
L0L
(lp2984
(lp2985
tp2986
a(L3078510990L
L0L
(lp2987
(lp2988
tp2989
a(L3308139553L
L0L
(lp2990
(lp2991
tp2992
a(L3360570486L
L0L
(lp2993
(lp2994
tp2995
atp2996
sI1074245024
(Vesp_rom_spiflash_write
p2997
(lp2998
(L2204199436L
L0L
(lp2999
(lp3000
tp3001
a(L106L
L0L
(lp3002
(lp3003
tp3004
a(L3549162722L
L0L
(lp3005
(lp3006
tp3007
a(L4152697687L
L3785322319L
(lp3008
(lp3009
Vesp_rom_spiflash_program_page_internal
p3010
atp3011
a(L3880706073L
L0L
(lp3012
(lp3013
tp3014
a(L657579730L
L3785322319L
(lp3015
(lp3016
Vesp_rom_spiflash_program_page_internal
p3017
atp3018
a(L4167669618L
L0L
(lp3019
(lp3020
tp3021
a(L4129965264L
L3785322319L
(lp3022
(lp3023
Vesp_rom_spiflash_program_page_internal
p3024
atp3025
a(L1130003055L
L0L
(lp3026
(lp3027
tp3028
a(L4159629294L
L0L
(lp3029
(lp3030
tp3031
a(L387804209L
L3785322319L
(lp3032
(lp3033
Vesp_rom_spiflash_program_page_internal
p3034
atp3035
a(L3880706073L
L0L
(lp3036
(lp3037
tp3038
a(L3880706073L
L0L
(lp3039
(lp3040
tp3041
a(L3880706073L
L0L
(lp3042
(lp3043
tp3044
a(L2258688483L
L0L
(lp3045
(lp3046
tp3047
a(L3360570486L
L0L
(lp3048
(lp3049
tp3050
atp3051
sI1074246060
(Vrtc_wdt_enable
p3052
(lp3053
(L3145061365L
L0L
(lp3054
(lp3055
tp3056
atp3057
sI1074270372
(Vrtc_clk_slow_freq_get_hz
p3058
(lp3059
(L2601977293L
L3785322319L
(lp3060
(lp3061
Vrtc_clk_slow_freq_get
p3062
atp3063
a(L2902417580L
L0L
(lp3064
(lp3065
tp3066
a(L3020187L
L0L
(lp3067
(lp3068
tp3069
a(L106L
L0L
(lp3070
(lp3071
tp3072
a(L1075141310L
L0L
(lp3073
(lp3074
tp3075
a(L12889493L
L0L
(lp3076
(lp3077
tp3078
a(L2993202392L
L0L
(lp3079
(lp3080
tp3081
a(L583093929L
L0L
(lp3082
(lp3083
tp3084
atp3085
sI1074239144
(Vset_actual_ota_seq
p3086
(lp3087
(L4094723830L
L0L
(lp3088
(lp3089
tp3090
a(L2837627603L
L0L
(lp3091
(lp3092
tp3093
a(L1545243494L
L3785322319L
(lp3094
(lp3095
Vbootloader_common_ota_select_crc
p3096
atp3097
a(L3016870L
L0L
(lp3098
(lp3099
tp3100
a(L1312346502L
L0L
(lp3101
(lp3102
tp3103
a(L1139269215L
L0L
(lp3104
(lp3105
tp3106
a(L3028481L
L0L
(lp3107
(lp3108
tp3109
a(L1485638071L
L1880226080L
(lp3110
(lp3111
Vwrite_otadata
p3112
aVesp_log_early_timestamp
p3113
atp3114
a(L3360570486L
L0L
(lp3115
(lp3116
tp3117
atp3118
sI1074273208
(Vrtc_clk_cal_ratio
p3119
(lp3120
(L1747571394L
L1880226080L
(lp3121
(lp3122
Vrtc_clk_cal_internal
p3123
aV__udivdi3
p3124
atp3125
atp3126
sI1074237360
(Vbootloader_flash_read_no_decrypt
p3127
(lp3128
(L1264233432L
L1880226080L
(lp3129
(lp3130
Vesp_rom_spiflash_read
p3131
aVspi_to_esp_err
p3132
atp3133
atp3134
sI1074270896
(Vrtc_clk_xtal_freq_get
p3135
(lp3136
(L3694773495L
L0L
(lp3137
(lp3138
tp3139
a(L2237928244L
L0L
(lp3140
(lp3141
tp3142
a(L1299866312L
L0L
(lp3143
(lp3144
tp3145
a(L1299866312L
L0L
(lp3146
(lp3147
tp3148
a(L2258688483L
L0L
(lp3149
(lp3150
tp3151
a(L2902417580L
L0L
(lp3152
(lp3153
tp3154
a(L1969640776L
L0L
(lp3155
(lp3156
tp3157
a(L2993202392L
L0L
(lp3158
(lp3159
tp3160
atp3161
sI1074272688
(Vrtc_vddsdio_set_config
p3162
(lp3163
(L3183776120L
L0L
(lp3164
(lp3165
tp3166
atp3167
sI1074244792
(Vesp_rom_spiflash_unlock
p3168
(lp3169
(L3388971380L
L1880226080L
(lp3170
(lp3171
Vesp_rom_spiflash_wait_idle
p3172
aVesp_rom_spiflash_read_statushigh
p3173
atp3174
a(L3810816915L
L3785322319L
(lp3175
(lp3176
Vesp_rom_spiflash_wait_idle
p3177
atp3178
a(L1715204046L
L0L
(lp3179
(lp3180
tp3181
a(L1465563842L
L1832448559L
(lp3182
(lp3183
Vesp_rom_spiflash_wait_idle
p3184
aVesp_rom_spiflash_write_status
p3185
aVesp_rom_spiflash_wait_idle
p3186
atp3187
a(L1715204046L
L0L
(lp3188
(lp3189
tp3190
a(L3360570486L
L0L
(lp3191
(lp3192
tp3193
a(L3880706073L
L0L
(lp3194
(lp3195
tp3196
atp3197
sI1074234564
(Vbootloader_init_flash_configure
p3198
(lp3199
(L2326466312L
L1832448559L
(lp3200
(lp3201
Vbootloader_flash_gpio_config
p3202
aVbootloader_flash_dummy_config
p3203
aVbootloader_flash_cs_timing_config
p3204
atp3205
atp3206
sI1074245316
(Vesp_rom_spiflash_read
p3207
(lp3208
(L2004870068L
L0L
(lp3209
(lp3210
tp3211
a(L3094408135L
L0L
(lp3212
(lp3213
tp3214
a(L3017366L
L0L
(lp3215
(lp3216
tp3217
a(L106L
L0L
(lp3218
(lp3219
tp3220
a(L1618789147L
L0L
(lp3221
(lp3222
tp3223
a(L106L
L0L
(lp3224
(lp3225
tp3226
a(L3668347057L
L0L
(lp3227
(lp3228
tp3229
a(L1569765500L
L0L
(lp3230
(lp3231
tp3232
a(L3873780000L
L0L
(lp3233
(lp3234
tp3235
a(L3016870L
L0L
(lp3236
(lp3237
tp3238
a(L1820526612L
L0L
(lp3239
(lp3240
tp3241
a(L3016870L
L0L
(lp3242
(lp3243
tp3244
a(L3001761151L
L0L
(lp3245
(lp3246
tp3247
a(L2724395487L
L0L
(lp3248
(lp3249
tp3250
a(L1914716311L
L0L
(lp3251
(lp3252
tp3253
a(L2102685007L
L0L
(lp3254
(lp3255
tp3256
a(L4118914098L
L0L
(lp3257
(lp3258
tp3259
a(L3166389496L
L0L
(lp3260
(lp3261
tp3262
a(L3844535225L
L0L
(lp3263
(lp3264
tp3265
a(L855996764L
L3785322319L
(lp3266
(lp3267
Vesp_rom_spiflash_read_data
p3268
atp3269
a(L1298875774L
L0L
(lp3270
(lp3271
tp3272
a(L735741265L
L0L
(lp3273
(lp3274
tp3275
atp3276
sI1074271692
(Vrtc_clk_cpu_freq_set_config
p3277
(lp3278
(L2029633936L
L3785322319L
(lp3279
(lp3280
Vrtc_clk_xtal_freq_get
p3281
atp3282
a(L1739379997L
L1880226080L
(lp3283
(lp3284
Vrtc_clk_cpu_freq_to_xtal
p3285
aVrtc_clk_wait_for_slow_cycle
p3286
atp3287
a(L3028464L
L0L
(lp3288
(lp3289
tp3290
a(L94425498L
L3785322319L
(lp3291
(lp3292
Vrtc_clk_bbpll_disable
p3293
atp3294
a(L3978916712L
L0L
(lp3295
(lp3296
tp3297
a(L2977209154L
L0L
(lp3298
(lp3299
tp3300
a(L540421064L
L3785322319L
(lp3301
(lp3302
Vrtc_clk_cpu_freq_to_xtal
p3303
atp3304
a(L3028464L
L0L
(lp3305
(lp3306
tp3307
a(L2697686144L
L1157885199L
(lp3308
(lp3309
Vrtc_clk_bbpll_enable
p3310
aVrtc_clk_wait_for_slow_cycle
p3311
aVrtc_clk_xtal_freq_get
p3312
aVrtc_clk_bbpll_configure
p3313
aVrtc_clk_cpu_freq_to_pll_mhz
p3314
atp3315
a(L3028464L
L0L
(lp3316
(lp3317
tp3318
a(L94425498L
L3785322319L
(lp3319
(lp3320
Vrtc_clk_cpu_freq_to_8m
p3321
atp3322
a(L3360570486L
L0L
(lp3323
(lp3324
tp3325
atp3326
sI1074240704
(Vcheck_anti_rollback
p3327
(lp3328
(L786711473L
L0L
(lp3329
(lp3330
tp3331
atp3332
sI1074242240
(Vprocess_segment_data
p3333
(lp3334
(L3236683529L
L3785322319L
(lp3335
(lp3336
Vbootloader_mmap
p3337
atp3338
a(L1497583147L
L3785322319L
(lp3339
(lp3340
Vesp_log_early_timestamp
p3341
atp3342
a(L3139609965L
L3785322319L
(lp3343
(lp3344
Vbootloader_fill_random
p3345
atp3346
a(L1062407658L
L0L
(lp3347
(lp3348
tp3349
a(L1066101742L
L0L
(lp3350
(lp3351
tp3352
a(L1299866312L
L0L
(lp3353
(lp3354
tp3355
a(L2008416411L
L0L
(lp3356
(lp3357
tp3358
a(L127299853L
L0L
(lp3359
(lp3360
tp3361
a(L859692926L
L0L
(lp3362
(lp3363
tp3364
a(L1690300016L
L0L
(lp3365
(lp3366
tp3367
a(L4117779536L
L0L
(lp3368
(lp3369
tp3370
a(L2902417580L
L0L
(lp3371
(lp3372
tp3373
a(L2505185480L
L0L
(lp3374
(lp3375
tp3376
a(L3094078540L
L3785322319L
(lp3377
(lp3378
Vbootloader_sha256_data
p3379
atp3380
a(L1770629922L
L0L
(lp3381
(lp3382
tp3383
a(L3896226538L
L0L
(lp3384
(lp3385
tp3386
a(L1564127900L
L3785322319L
(lp3387
(lp3388
Vbootloader_munmap
p3389
atp3390
atp3391
sI1074268612
(Vwdt_reset_check
p3392
(lp3393
(L1022302856L
L0L
(lp3394
(lp3395
tp3396
a(L3020187L
L0L
(lp3397
(lp3398
tp3399
a(L367582592L
L0L
(lp3400
(lp3401
tp3402
a(L367642441L
L0L
(lp3403
(lp3404
tp3405
a(L2005476781L
L3785322319L
(lp3406
(lp3407
Vesp_log_early_timestamp
p3408
atp3409
a(L1298905564L
L0L
(lp3410
(lp3411
tp3412
a(L1465910262L
L0L
(lp3413
(lp3414
tp3415
a(L3020187L
L0L
(lp3416
(lp3417
tp3418
a(L225031483L
L0L
(lp3419
(lp3420
tp3421
a(L225091332L
L0L
(lp3422
(lp3423
tp3424
a(L2354305992L
L3785322319L
(lp3425
(lp3426
Vesp_log_early_timestamp
p3427
atp3428
a(L3020204L
L0L
(lp3429
(lp3430
tp3431
a(L1944713791L
L1880226080L
(lp3432
(lp3433
Vwdt_reset_info_dump
p3434
aVwdt_reset_info_dump
p3435
atp3436
a(L3738038928L
L3785322319L
(lp3437
(lp3438
Vwdt_reset_cpu0_info_enable
p3439
atp3440
atp3441
sI1074240712
(Vbootloader_sha256_start
p3442
(lp3443
(L3645199537L
L0L
(lp3444
(lp3445
tp3446
atp3447
sI1074271448
(Vrtc_clk_cpu_freq_to_pll_mhz
p3448
(lp3449
(L3639301015L
L0L
(lp3450
(lp3451
tp3452
a(L1541996779L
L0L
(lp3453
(lp3454
tp3455
a(L1546614651L
L0L
(lp3456
(lp3457
tp3458
a(L2674990831L
L0L
(lp3459
(lp3460
tp3461
a(L752788460L
L1880226080L
(lp3462
(lp3463
Vesp_log_early_timestamp
p3464
aVabort
p3465
atp3466
a(L3546033543L
L0L
(lp3467
(lp3468
tp3469
a(L3307832802L
L0L
(lp3470
(lp3471
tp3472
a(L1311204631L
L1880226080L
(lp3473
(lp3474
Vrtc_clk_apb_freq_update
p3475
aVrtc_clk_wait_for_slow_cycle
p3476
atp3477
atp3478
sI1074273240
(Vrtc_clk_wait_for_slow_cycle
p3479
(lp3480
(L1793902647L
L0L
(lp3481
(lp3482
tp3483
a(L3773617378L
L0L
(lp3484
(lp3485
tp3486
a(L3650091512L
L0L
(lp3487
(lp3488
tp3489
a(L3360570486L
L0L
(lp3490
(lp3491
tp3492
atp3493
sI1074237652
(Vbootloader_flash_read
p3494
(lp3495
(L1127605422L
L0L
(lp3496
(lp3497
tp3498
a(L1829235751L
L3785322319L
(lp3499
(lp3500
Vesp_log_early_timestamp
p3501
atp3502
a(L899934477L
L0L
(lp3503
(lp3504
tp3505
a(L8604881L
L3785322319L
(lp3506
(lp3507
Vesp_log_early_timestamp
p3508
atp3509
a(L2696885836L
L0L
(lp3510
(lp3511
tp3512
a(L3942947446L
L3785322319L
(lp3513
(lp3514
Vesp_log_early_timestamp
p3515
atp3516
a(L3020204L
L0L
(lp3517
(lp3518
tp3519
a(L3807724270L
L3785322319L
(lp3520
(lp3521
Vbootloader_flash_read_allow_decrypt
p3522
atp3523
a(L1959236078L
L3785322319L
(lp3524
(lp3525
Vbootloader_flash_read_no_decrypt
p3526
atp3527
atp3528
sI1074235088
(Vexecute_flash_command
p3529
(lp3530
(L2909450247L
L3785322319L
(lp3531
(lp3532
Vbootloader_flash_execute_command_common
p3533
atp3534
atp3535
sI1074241232
(Vshould_map
p3536
(lp3537
(L366535184L
L0L
(lp3538
(lp3539
tp3540
a(L1182990556L
L0L
(lp3541
(lp3542
tp3543
a(L1721317317L
L0L
(lp3544
(lp3545
tp3546
a(L1182990556L
L0L
(lp3547
(lp3548
tp3549
a(L1387712984L
L0L
(lp3550
(lp3551
tp3552
atp3553
sI1074268880
(Vbootloader_main
p3554
(lp3555
(L4107727418L
L1832448559L
(lp3556
(lp3557
Vbootloader_common_vddsdio_configure
p3558
aVbootloader_read_flash_id
p3559
aVbootloader_flash_read
p3560
atp3561
a(L761908273L
L3785322319L
(lp3562
(lp3563
Vesp_log_early_timestamp
p3564
atp3565
a(L1778391864L
L1832448559L
(lp3566
(lp3567
Vbootloader_common_get_chip_revision
p3568
aVesp_log_early_timestamp
p3569
aVbootloader_common_check_chip_validity
p3570
atp3571
a(L918908878L
L3785322319L
(lp3572
(lp3573
Vbootloader_init_flash_configure
p3574
atp3575
a(L2313341324L
L0L
(lp3576
(lp3577
tp3578
a(L827481444L
L3785322319L
(lp3579
(lp3580
Vesp_log_early_timestamp
p3581
atp3582
a(L1679963404L
L3067142688L
(lp3583
(lp3584
Vbootloader_clock_configure
p3585
aVuart_console_configure
p3586
aVwdt_reset_check
p3587
aVesp_log_early_timestamp
p3588
aVesp_log_early_timestamp
p3589
aVrtc_wdt_protect_off
p3590
aVrtc_wdt_disable
p3591
aVrtc_wdt_set_length_of_reset_signal
p3592
aVrtc_wdt_set_length_of_reset_signal
p3593
aVrtc_wdt_set_stage
p3594
aVrtc_wdt_set_time
p3595
aVrtc_wdt_enable
p3596
aVrtc_wdt_protect_on
p3597
aVesp_rom_spiflash_unlock
p3598
aVesp_log_early_timestamp
p3599
aVbootloader_random_enable
p3600
aVprint_flash_info
p3601
aVupdate_flash_config
p3602
atp3603
a(L515633988L
L0L
(lp3604
(lp3605
tp3606
atp3607
sI1074269904
(Vrtc_clk_bbpll_enable
p3608
(lp3609
(L408041790L
L0L
(lp3610
(lp3611
tp3612
atp3613
sI1074270416
(Vrtc_clk_fast_freq_set
p3614
(lp3615
(L3290118927L
L0L
(lp3616
(lp3617
tp3618
atp3619
sI1074271952
(Vrtc_clk_init
p3620
(lp3621
(L221419173L
L0L
(lp3622
(lp3623
tp3624
a(L2549152574L
L3785322319L
(lp3625
(lp3626
Vrtc_clk_cpu_freq_to_xtal
p3627
atp3628
a(L2082258133L
L0L
(lp3629
(lp3630
tp3631
a(L1460016177L
L0L
(lp3632
(lp3633
tp3634
a(L3224614952L
L0L
(lp3635
(lp3636
tp3637
a(L1299866312L
L0L
(lp3638
(lp3639
tp3640
a(L1299866312L
L0L
(lp3641
(lp3642
tp3643
a(L1182811811L
L0L
(lp3644
(lp3645
tp3646
a(L3020204L
L0L
(lp3647
(lp3648
tp3649
a(L1849746773L
L3785322319L
(lp3650
(lp3651
Vrtc_clk_xtal_freq_get
p3652
atp3653
a(L1375577398L
L3785322319L
(lp3654
(lp3655
Vrtc_clk_xtal_freq_estimate
p3656
atp3657
a(L1652281491L
L3785322319L
(lp3658
(lp3659
Vesp_log_early_timestamp
p3660
atp3661
a(L813232262L
L0L
(lp3662
(lp3663
tp3664
a(L4233392623L
L0L
(lp3665
(lp3666
tp3667
a(L1300789833L
L0L
(lp3668
(lp3669
tp3670
a(L1300789833L
L0L
(lp3671
(lp3672
tp3673
a(L2258718274L
L0L
(lp3674
(lp3675
tp3676
a(L3028481L
L0L
(lp3677
(lp3678
tp3679
a(L3183127930L
L3785322319L
(lp3680
(lp3681
Vrtc_clk_xtal_freq_estimate
p3682
atp3683
a(L3346418819L
L3785322319L
(lp3684
(lp3685
Vesp_log_early_timestamp
p3686
atp3687
a(L4147761415L
L0L
(lp3688
(lp3689
tp3690
a(L1278288557L
L2485746240L
(lp3691
(lp3692
Vrtc_clk_xtal_freq_update
p3693
aVrtc_clk_apb_freq_update
p3694
aVrtc_clk_cpu_freq_get_config
p3695
aVrtc_clk_cpu_freq_mhz_to_config
p3696
atp3697
a(L3699425905L
L1880226080L
(lp3698
(lp3699
Vesp_log_early_timestamp
p3700
aVabort
p3701
atp3702
a(L1527606420L
L3785322319L
(lp3703
(lp3704
Vrtc_clk_cpu_freq_set_config
p3705
atp3706
a(L3804637084L
L3785322319L
(lp3707
(lp3708
Vrtc_clk_32k_enable
p3709
atp3710
a(L3016870L
L0L
(lp3711
(lp3712
tp3713
a(L3360425257L
L3785322319L
(lp3714
(lp3715
Vrtc_clk_8m_enable
p3716
atp3717
a(L530469956L
L1880226080L
(lp3718
(lp3719
Vrtc_clk_fast_freq_set
p3720
aVrtc_clk_slow_freq_set
p3721
atp3722
atp3723
sI1074240732
(Vbootloader_sha256_data
p3724
(lp3725
(L4037466985L
L0L
(lp3726
(lp3727
tp3728
a(L977687295L
L3785322319L
(lp3729
(lp3730
V__assert_func
p3731
atp3732
a(L2660352519L
L0L
(lp3733
(lp3734
tp3735
a(L1772659931L
L3785322319L
(lp3736
(lp3737
V__assert_func
p3738
atp3739
a(L66409669L
L0L
(lp3740
(lp3741
tp3742
a(L2746210212L
L0L
(lp3743
(lp3744
tp3745
a(L2130124493L
L0L
(lp3746
(lp3747
tp3748
a(L106L
L0L
(lp3749
(lp3750
tp3751
a(L3598343587L
L3785322319L
(lp3752
(lp3753
V__bswapsi2
p3754
atp3755
a(L3027019L
L0L
(lp3756
(lp3757
tp3758
a(L505666103L
L0L
(lp3759
(lp3760
tp3761
a(L3028464L
L0L
(lp3762
(lp3763
tp3764
a(L3287773641L
L0L
(lp3765
(lp3766
tp3767
a(L927972437L
L0L
(lp3768
(lp3769
tp3770
a(L3028481L
L0L
(lp3771
(lp3772
tp3773
a(L3360570486L
L0L
(lp3774
(lp3775
tp3776
atp3777
sI1074244060
(Vesp_rom_spiflash_wait_idle
p3778
(lp3779
(L287326052L
L0L
(lp3780
(lp3781
tp3782
a(L2444542658L
L0L
(lp3783
(lp3784
tp3785
a(L756531654L
L0L
(lp3786
(lp3787
tp3788
a(L855829385L
L3785322319L
(lp3789
(lp3790
Vesp_rom_spiflash_read_status
p3791
atp3792
a(L1298875774L
L0L
(lp3793
(lp3794
tp3795
a(L735741265L
L0L
(lp3796
(lp3797
tp3798
atp3799
sI1074234584
(Vbootloader_flash_execute_command_common
p3800
(lp3801
(L1261224870L
L0L
(lp3802
(lp3803
tp3804
a(L2340697286L
L0L
(lp3805
(lp3806
tp3807
a(L2258748064L
L0L
(lp3808
(lp3809
tp3810
a(L3261841556L
L0L
(lp3811
(lp3812
tp3813
a(L3250406954L
L0L
(lp3814
(lp3815
tp3816
a(L3020684366L
L0L
(lp3817
(lp3818
tp3819
a(L929566513L
L0L
(lp3820
(lp3821
tp3822
a(L3745123390L
L0L
(lp3823
(lp3824
tp3825
a(L2258807646L
L0L
(lp3826
(lp3827
tp3828
a(L2021375256L
L0L
(lp3829
(lp3830
tp3831
a(L1917690936L
L0L
(lp3832
(lp3833
tp3834
a(L2258718273L
L0L
(lp3835
(lp3836
tp3837
a(L3530970620L
L0L
(lp3838
(lp3839
tp3840
a(L4280063587L
L0L
(lp3841
(lp3842
tp3843
a(L1755094872L
L0L
(lp3844
(lp3845
tp3846
a(L1294320558L
L0L
(lp3847
(lp3848
tp3849
a(L3360570486L
L0L
(lp3850
(lp3851
tp3852
atp3853
sI1074239704
(Vload_image
p3854
(lp3855
(L2527918292L
L1832448559L
(lp3856
(lp3857
Vesp_log_early_timestamp
p3858
aVbootloader_random_disable
p3859
aVunpack_load_app
p3860
atp3861
atp3862
sI1074246104
(Vrtc_wdt_set_time
p3863
(lp3864
(L607216364L
L0L
(lp3865
(lp3866
tp3867
a(L1471782262L
L1880226080L
(lp3868
(lp3869
Vrtc_clk_slow_freq_get_hz
p3870
aV__udivdi3
p3871
atp3872
a(L1243399806L
L0L
(lp3873
(lp3874
tp3875
a(L3028464L
L0L
(lp3876
(lp3877
tp3878
a(L3278533939L
L0L
(lp3879
(lp3880
tp3881
a(L3028464L
L0L
(lp3882
(lp3883
tp3884
a(L2903197294L
L0L
(lp3885
(lp3886
tp3887
a(L2114463722L
L0L
(lp3888
(lp3889
tp3890
a(L2079009947L
L0L
(lp3891
(lp3892
tp3893
atp3894
sI1074270952
(Vrtc_clk_cpu_freq_mhz_to_config
p3895
(lp3896
(L2601984125L
L3785322319L
(lp3897
(lp3898
Vrtc_clk_xtal_freq_get
p3899
atp3900
a(L608772507L
L0L
(lp3901
(lp3902
tp3903
a(L3263839434L
L0L
(lp3904
(lp3905
tp3906
a(L2762074623L
L0L
(lp3907
(lp3908
tp3909
a(L1541996779L
L0L
(lp3910
(lp3911
tp3912
a(L1546614651L
L0L
(lp3913
(lp3914
tp3915
a(L1555485793L
L0L
(lp3916
(lp3917
tp3918
a(L1695987314L
L0L
(lp3919
(lp3920
tp3921
a(L3652406074L
L0L
(lp3922
(lp3923
tp3924
a(L260454862L
L0L
(lp3925
(lp3926
tp3927
a(L2993202392L
L0L
(lp3928
(lp3929
tp3930
a(L2993202392L
L0L
(lp3931
(lp3932
tp3933
atp3934
sI1074237412
(Vbootloader_mmap
p3935
(lp3936
(L525934365L
L0L
(lp3937
(lp3938
tp3939
a(L2463945795L
L3785322319L
(lp3940
(lp3941
Vesp_log_early_timestamp
p3942
atp3943
a(L73337638L
L0L
(lp3944
(lp3945
tp3946
a(L2060339797L
L3785322319L
(lp3947
(lp3948
Vesp_log_early_timestamp
p3949
atp3950
a(L3650112675L
L0L
(lp3951
(lp3952
tp3953
a(L3253120847L
L3785322319L
(lp3954
(lp3955
Vesp_log_early_timestamp
p3956
atp3957
a(L3200663919L
L0L
(lp3958
(lp3959
tp3960
atp3961
sI1074236896
(Vbootloader_common_check_chip_validity
p3962
(lp3963
(L2834967127L
L0L
(lp3964
(lp3965
tp3966
a(L3095624910L
L3785322319L
(lp3967
(lp3968
Vesp_log_early_timestamp
p3969
atp3970
a(L1182901183L
L0L
(lp3971
(lp3972
tp3973
a(L2344894839L
L3785322319L
(lp3974
(lp3975
Vbootloader_common_get_chip_revision
p3976
atp3977
a(L1421058101L
L3785322319L
(lp3978
(lp3979
Vesp_log_early_timestamp
p3980
atp3981
a(L97422L
L0L
(lp3982
(lp3983
tp3984
a(L3287840219L
L3785322319L
(lp3985
(lp3986
Vesp_log_early_timestamp
p3987
atp3988
a(L4136896670L
L0L
(lp3989
(lp3990
tp3991
a(L4151320888L
L0L
(lp3992
(lp3993
tp3994
a(L821517195L
L0L
(lp3995
(lp3996
tp3997
a(L464010095L
L0L
(lp3998
(lp3999
tp4000
atp4001
sI1074242536
(Vshould_load
p4002
(lp4003
(L3388943207L
L3785322319L
(lp4004
(lp4005
Vshould_map
p4006
atp4007
a(L932156149L
L0L
(lp4008
(lp4009
tp4010
a(L3028464L
L0L
(lp4011
(lp4012
tp4013
a(L311343067L
L0L
(lp4014
(lp4015
tp4016
a(L1766512127L
L0L
(lp4017
(lp4018
tp4019
a(L774393012L
L0L
(lp4020
(lp4021
tp4022
a(L1610443436L
L0L
(lp4023
(lp4024
tp4025
a(L1610443405L
L0L
(lp4026
(lp4027
tp4028
a(L1298875774L
L0L
(lp4029
(lp4030
tp4031
a(L735741265L
L0L
(lp4032
(lp4033
tp4034
atp4035
sI1074235112
(Vbootloader_read_flash_id
p4036
(lp4037
(L458050129L
L3785322319L
(lp4038
(lp4039
Vexecute_flash_command
p4040
atp4041
atp4042
sI1074246376
(Vrtc_wdt_disable
p4043
(lp4044
(L1233433337L
L3785322319L
(lp4045
(lp4046
Vrtc_wdt_get_protect_status
p4047
atp4048
a(L3827921190L
L3785322319L
(lp4049
(lp4050
Vrtc_wdt_protect_off
p4051
atp4052
a(L645769770L
L2485746240L
(lp4053
(lp4054
Vrtc_wdt_set_stage
p4055
aVrtc_wdt_set_stage
p4056
aVrtc_wdt_set_stage
p4057
aVrtc_wdt_set_stage
p4058
atp4059
a(L94425498L
L3785322319L
(lp4060
(lp4061
Vrtc_wdt_protect_on
p4062
atp4063
a(L3360570486L
L0L
(lp4064
(lp4065
tp4066
atp4067
sI1074271224
(Vrtc_clk_xtal_freq_update
p4068
(lp4069
(L557582450L
L0L
(lp4070
(lp4071
tp4072
a(L3509357017L
L0L
(lp4073
(lp4074
tp4075
a(L3445711760L
L0L
(lp4076
(lp4077
tp4078
atp4079
sI1074272760
(Vrtc_clk_cal_internal
p4080
(lp4081
(L4169901026L
L0L
(lp4082
(lp4083
tp4084
a(L598189607L
L3785322319L
(lp4085
(lp4086
V__assert_func
p4087
atp4088
a(L491206011L
L0L
(lp4089
(lp4090
tp4091
a(L3130895119L
L0L
(lp4092
(lp4093
tp4094
a(L3028464L
L0L
(lp4095
(lp4096
tp4097
a(L4157377902L
L0L
(lp4098
(lp4099
tp4100
a(L871495143L
L0L
(lp4101
(lp4102
tp4103
a(L3778615171L
L0L
(lp4104
(lp4105
tp4106
a(L97422L
L0L
(lp4107
(lp4108
tp4109
a(L571614780L
L0L
(lp4110
(lp4111
tp4112
a(L3900122472L
L0L
(lp4113
(lp4114
tp4115
a(L3900123092L
L0L
(lp4116
(lp4117
tp4118
a(L3900123092L
L0L
(lp4119
(lp4120
tp4121
a(L3900122472L
L0L
(lp4122
(lp4123
tp4124
a(L3450946347L
L0L
(lp4125
(lp4126
tp4127
a(L2521011790L
L1880226080L
(lp4128
(lp4129
V__udivdi3
p4130
aVrtc_clk_xtal_freq_get
p4131
atp4132
a(L1610443417L
L0L
(lp4133
(lp4134
tp4135
a(L217847557L
L0L
(lp4136
(lp4137
tp4138
a(L2536091208L
L3785322319L
(lp4139
(lp4140
Vesp_log_early_timestamp
p4141
atp4142
a(L1679905591L
L0L
(lp4143
(lp4144
tp4145
a(L3901637578L
L0L
(lp4146
(lp4147
tp4148
a(L3650092008L
L0L
(lp4149
(lp4150
tp4151
a(L3021737L
L0L
(lp4152
(lp4153
tp4154
a(L4010836164L
L0L
(lp4155
(lp4156
tp4157
a(L1471169863L
L0L
(lp4158
(lp4159
tp4160
a(L2902417580L
L0L
(lp4161
(lp4162
tp4163
a(L213925957L
L0L
(lp4164
(lp4165
tp4166
a(L2993202392L
L0L
(lp4167
(lp4168
tp4169
atp4170
sI1074238964
(Vread_otadata
p4171
(lp4172
(L3233392553L
L0L
(lp4173
(lp4174
tp4175
a(L2022859863L
L0L
(lp4176
(lp4177
tp4178
a(L3242087815L
L3785322319L
(lp4179
(lp4180
Vesp_log_early_timestamp
p4181
atp4182
a(L566230772L
L3785322319L
(lp4183
(lp4184
Vbootloader_mmap
p4185
atp4186
a(L1638765019L
L3785322319L
(lp4187
(lp4188
Vesp_log_early_timestamp
p4189
atp4190
a(L586914804L
L3785322319L
(lp4191
(lp4192
Vbootloader_munmap
p4193
atp4194
a(L446553694L
L0L
(lp4195
(lp4196
tp4197
atp4198
sI1074237172
(Vspi_to_esp_err
p4199
(lp4200
(L4037458691L
L0L
(lp4201
(lp4202
tp4203
a(L2902417580L
L0L
(lp4204
(lp4205
tp4206
a(L3020187L
L0L
(lp4207
(lp4208
tp4209
a(L106L
L0L
(lp4210
(lp4211
tp4212
a(L2993202392L
L0L
(lp4213
(lp4214
tp4215
a(L1255274971L
L0L
(lp4216
(lp4217
tp4218
a(L515633988L
L0L
(lp4219
(lp4220
tp4221
a(L1747322352L
L0L
(lp4222
(lp4223
tp4224
atp4225
sI1074236660
(Vbootloader_common_ota_select_crc
p4226
(lp4227
(L1051498320L
L0L
(lp4228
(lp4229
tp4230
atp4231
sI1074270460
(Vrtc_clk_fast_freq_get
p4232
(lp4233
(L2327341382L
L0L
(lp4234
(lp4235
tp4236
atp4237
sI1074239736
(Vbootloader_utility_load_partition_table
p4238
(lp4239
(L893333307L
L3785322319L
(lp4240
(lp4241
Vbootloader_mmap
p4242
atp4243
a(L1270265708L
L3785322319L
(lp4244
(lp4245
Vesp_log_early_timestamp
p4246
atp4247
a(L3715067384L
L3785322319L
(lp4248
(lp4249
Vesp_partition_table_verify
p4250
atp4251
a(L3987355154L
L3785322319L
(lp4252
(lp4253
Vesp_log_early_timestamp
p4254
atp4255
a(L1947937882L
L1880226080L
(lp4256
(lp4257
Vesp_log_early_timestamp
p4258
aVesp_log_early_timestamp
p4259
atp4260
a(L1941612774L
L0L
(lp4261
(lp4262
tp4263
a(L3020187L
L0L
(lp4264
(lp4265
tp4266
a(L106L
L0L
(lp4267
(lp4268
tp4269
a(L3732412336L
L0L
(lp4270
(lp4271
tp4272
a(L3020187L
L0L
(lp4273
(lp4274
tp4275
a(L106L
L0L
(lp4276
(lp4277
tp4278
a(L58579688L
L0L
(lp4279
(lp4280
tp4281
a(L997270981L
L0L
(lp4282
(lp4283
tp4284
a(L2893469516L
L0L
(lp4285
(lp4286
tp4287
a(L495348327L
L0L
(lp4288
(lp4289
tp4290
a(L3999773648L
L0L
(lp4291
(lp4292
tp4293
a(L3101214432L
L0L
(lp4294
(lp4295
tp4296
a(L826375354L
L0L
(lp4297
(lp4298
tp4299
a(L826377648L
L0L
(lp4300
(lp4301
tp4302
a(L826376067L
L0L
(lp4303
(lp4304
tp4305
a(L3799567729L
L3785322319L
(lp4306
(lp4307
Vesp_log_early_timestamp
p4308
atp4309
a(L846653465L
L0L
(lp4310
(lp4311
tp4312
a(L106L
L0L
(lp4313
(lp4314
tp4315
a(L2229193238L
L1880226080L
(lp4316
(lp4317
Vbootloader_munmap
p4318
aVesp_log_early_timestamp
p4319
atp4320
atp4321
ssS'functionsdups'
p4322
g11
((lp4323
tp4324
Rp4325
sS'immediatedups'
p4326
g11
((lp4327
tp4328
Rp4329
sS'functiondups'
p4330
g11
((lp4331
tp4332
Rp4333
sS'fuzzy'
p4334
(dp4335
L1536L
I1074240336
sL452507512L
I1074237788
sL1238425040L
I1074244112
sL4061702297L
I1074244060
sL430153639L
I1074242536
sL474176970L
I1074241668
sL1993052482L
I1074244924
sL45806640L
I1074241232
sL381930313L
I1074241396
sL2479661889L
I1074246376
sL3495415001L
I1074240896
sL3669996080L
I1074236896
sL2661072904L
I1074240380
sL2281838360L
I1074240100
sL3881399234L
I1074239256
sL312818747L
I1074238876
sL1622145584L
I1074236016
sL618873793L
I1074242612
sL1157487583L
I1074272760
sL1205197046L
I1074239144
sL1420005888L
I1074270072
sL3110146889L
I1074239528
sL1995141314L
I1074242944
sL1991897232L
I1074244740
sL1014503250L
I1074244408
sL4059437021L
I1074271692
sL1766137975L
I1074270008
sL2738222727L
I1074271052
sL2723847017L
I1074237652
sL275633497L
I1074269220
sL3619350029L
I1074242240
sL3247628459L
I1074244468
sL2919037255L
I1074268308
sL410455735L
I1074242428
sL512571597L
I1074267980
sL578413630L
I1074241536
sL2649994811L
I1074267932
sL533883930L
I1074268612
sL1332800441L
I1074236716
sL433784338L
I1074268076
sL2004795954L
I1074268880
sL4160102055L
I1074269188
sL3280616158L
I1074236680
sL3476065511L
I1074271952
sL2474570535L
I1074245224
sL2033964903L
I1074270372
sL1060788199L
I1074270952
sL1381401481L
I1074239088
sL4270185191L
I1074270476
sL2705984041L
I1074244180
sL3380377753L
I1074245316
sL1179079586L
I1074271448
sL2766438284L
I1074238964
sL1043425753L
I1074237980
sL138378967L
I1074237412
sL447173967L
I1074246104
sL3128965227L
I1074241280
sL974711027L
I1074244792
sL1178348887L
I1074269564
sL3706231047L
I1074240732
sL4155364446L
I1074236756
sL1329074126L
I1074245024
sL1016692206L
I1074271784
sL3897638057L
I1074268556
sL59547383L
I1074237208
sL455832661L
I1074239736
sL3965284519L
I1074243636
ssb.