ccopy_reg
_reconstructor
p0
(crizzo
RizzoSignature
p1
c__builtin__
object
p2
Ntp3
Rp4
(dp5
S'formal'
p6
(dp7
L4253230215L
I1074234600
sL3643148335L
I1074239336
sL1741170115L
I1074238140
sL2242706338L
I1074245304
sL3839347161L
I1074267788
sL3363435627L
I1074247416
sL3327636805L
I1074267684
sL4272876733L
I1074236268
sL144584589L
I1074239692
sL1433108606L
I1074241820
sL3735493042L
I1074243656
sL2425276312L
I1074236124
sL2687259701L
I1074244184
sL3828158260L
I1074247372
sL1437577651L
I1074270452
sL297829853L
I1074245868
sL998684056L
I1074238168
sL2405729348L
I1074239432
sL1678159655L
I1074241260
sL2549823962L
I1074247112
sL1556689645L
I1074234712
sL3117719280L
I1074247580
sL1082650537L
I1074241844
sL2924990840L
I1074245448
sL2823258230L
I1074268132
sL679538355L
I1074246172
sL870892253L
I1074237236
sL2188456776L
I1074239888
sL966310561L
I1074244508
sL262580893L
I1074243592
sL1180032878L
I1074247056
sL3939356145L
I1074236880
sL2668698413L
I1074237780
sL1138844892L
I1074237980
sL508591982L
I1074246236
sL2429902229L
I1074237836
sL4192207264L
I1074240796
sL981567168L
I1074268296
sL3282660847L
I1074239468
sL604485967L
I1074240672
sL2906223984L
I1074268616
sL4225606284L
I1074242432
sL2374084562L
I1074236920
sL4009519780L
I1074240336
sL433790339L
I1074240816
sL4005906845L
I1074268952
sL2034371355L
I1074239280
sL1456331926L
I1074236004
sL2662742250L
I1074237016
sL1693432499L
I1074245244
sL1820433633L
I1074246580
sL1122800781L
I1074240292
sL3757029261L
I1074245288
sL3927027826L
I1074269664
sL1444145275L
I1074237544
sL4097987886L
I1074268648
sL3810534989L
I1074241512
sL1707586218L
I1074236028
sL1304961191L
I1074245348
sL484709515L
I1074241212
sL462613218L
I1074243116
sL3569407924L
I1074245644
sL4157276607L
I1074247444
sL2354928682L
I1074268396
sL4281729101L
I1074245272
sL3466480353L
I1074241648
sL170395816L
I1074241956
sL3067327568L
I1074239876
sL3379072494L
I1074243944
sL3996419506L
I1074246392
sL4024787567L
I1074237200
sL805038705L
I1074246004
sL2866214747L
I1074235288
sL3131778085L
I1074236716
sL3768163606L
I1074240092
sL4015741130L
I1074269172
sL3600770317L
I1074247920
sL2656373452L
I1074270420
sL3548630047L
I1074269880
sL1923392004L
I1074247740
sL103827857L
I1074237384
sL192754140L
I1074238748
sL1682479597L
I1074243540
sL3364045093L
I1074247828
sL565127432L
I1074240588
sL4033984474L
I1074240988
sL3599684131L
I1074235464
sL2147838901L
I1074239064
sL447453465L
I1074246068
sL2782795882L
I1074236572
sL2946878736L
I1074245752
sL1868338154L
I1074267656
sL4252663489L
I1074269952
sL2221692368L
I1074236860
sL1554851950L
I1074241364
sL2871237600L
I1074246624
sL3035638838L
I1074236588
sL3129778758L
I1074246420
sL2114406090L
I1074246640
sL2432257846L
I1074243100
sL1865356000L
I1074244600
sL1093747937L
I1074267844
sL3835213384L
I1074268996
sL2979064644L
I1074236964
sL3815517881L
I1074236072
sL2263182908L
I1074238160
sL1875755542L
I1074238276
sL853512195L
I1074237348
sL489309134L
I1074240664
sL1619385953L
I1074243440
sL4036689020L
I1074239152
sL2926497928L
I1074246520
sL4293976857L
I1074246536
sL109878119L
I1074236680
sL3989125672L
I1074242032
sL1479255238L
I1074244288
sL1344962757L
I1074246448
sL4028099046L
I1074237096
sL2894032013L
I1074247212
sL240369573L
I1074234580
sL3745020111L
I1074267732
sL2908740520L
I1074267804
sL4002410358L
I1074268076
sL1446504908L
I1074237596
sL1797066464L
I1074243884
ssS'immediates'
p8
(dp9
sS'formaldups'
p10
c__builtin__
set
p11
((lp12
tp13
Rp14
sS'stringdups'
p15
g11
((lp16
tp17
Rp18
sS'fuzzydups'
p19
g11
((lp20
tp21
Rp22
sS'strings'
p23
(dp24
sS'functions'
p25
(dp26
I1074267656
(Vselected_boot_partition
p27
(lp28
(L2937841336L
L3785322319L
(lp29
(lp30
Vbootloader_utility_get_selected_boot_partition
p31
atp32
a(L2161672821L
L0L
(lp33
(lp34
tp35
a(L3360570486L
L0L
(lp36
(lp37
tp38
atp39
sI1074269952
(Vrtc_clk_cal_internal
p40
(lp41
(L3300867765L
L0L
(lp42
(lp43
tp44
a(L3093378034L
L3785322319L
(lp45
(lp46
V__assert_func
p47
atp48
a(L2300985187L
L0L
(lp49
(lp50
tp51
a(L841598248L
L0L
(lp52
(lp53
tp54
a(L3028464L
L0L
(lp55
(lp56
tp57
a(L1309267079L
L0L
(lp58
(lp59
tp60
a(L765603205L
L0L
(lp61
(lp62
tp63
a(L1352009054L
L0L
(lp64
(lp65
tp66
a(L97422L
L0L
(lp67
(lp68
tp69
a(L2120918540L
L0L
(lp70
(lp71
tp72
a(L3900118752L
L0L
(lp73
(lp74
tp75
a(L3900118628L
L0L
(lp76
(lp77
tp78
a(L3900118628L
L0L
(lp79
(lp80
tp81
a(L3900118752L
L0L
(lp82
(lp83
tp84
a(L3450946254L
L0L
(lp85
(lp86
tp87
a(L489725615L
L3785322319L
(lp88
(lp89
Vrtc_clk_xtal_freq_get
p90
atp91
a(L2780079961L
L0L
(lp92
(lp93
tp94
a(L597638473L
L0L
(lp95
(lp96
tp97
a(L2514009733L
L3785322319L
(lp98
(lp99
Vesp_log_early_timestamp
p100
atp101
a(L2771418416L
L0L
(lp102
(lp103
tp104
a(L3662495388L
L0L
(lp105
(lp106
tp107
a(L1610678645L
L0L
(lp108
(lp109
tp110
a(L3021737L
L0L
(lp111
(lp112
tp113
a(L3525554481L
L0L
(lp114
(lp115
tp116
a(L524443757L
L0L
(lp117
(lp118
tp119
a(L2902417580L
L0L
(lp120
(lp121
tp122
a(L2242053592L
L0L
(lp123
(lp124
tp125
a(L2258688482L
L0L
(lp126
(lp127
tp128
a(L3360570486L
L0L
(lp129
(lp130
tp131
atp132
sI1074245644
(Vrtc_wdt_disable
p133
(lp134
(L1233433337L
L3785322319L
(lp135
(lp136
Vrtc_wdt_get_protect_status
p137
atp138
a(L3827921190L
L3785322319L
(lp139
(lp140
Vrtc_wdt_protect_off
p141
atp142
a(L891180875L
L2485746240L
(lp143
(lp144
Vrtc_wdt_set_stage
p145
aVrtc_wdt_set_stage
p146
aVrtc_wdt_set_stage
p147
aVrtc_wdt_set_stage
p148
atp149
a(L94425498L
L3785322319L
(lp150
(lp151
Vrtc_wdt_protect_on
p152
atp153
a(L3360570486L
L0L
(lp154
(lp155
tp156
atp157
sI1074243592
(Vesp_rom_spiflash_erase_sector_internal
p158
(lp159
(L3143713660L
L0L
(lp160
(lp161
tp162
a(L2481212255L
L3785322319L
(lp163
(lp164
Vesp_rom_spiflash_wait_idle
p165
atp166
a(L2331349433L
L0L
(lp167
(lp168
tp169
a(L175395183L
L3785322319L
(lp170
(lp171
Vesp_rom_spiflash_wait_idle
p172
atp173
a(L2258688483L
L0L
(lp174
(lp175
tp176
a(L3360570486L
L0L
(lp177
(lp178
tp179
atp180
sI1074236680
(Vesp_log_early_timestamp
p181
(lp182
(L2465094177L
L0L
(lp183
(lp184
tp185
atp186
sI1074268952
(Vabort
p187
(lp188
(L2577988798L
L3785322319L
(lp189
(lp190
Vesp_cpu_in_ocd_debug_mode
p191
atp192
a(L409441471L
L0L
(lp193
(lp194
tp195
a(L106L
L0L
(lp196
(lp197
tp198
atp199
sI1074246420
(Vrtc_clk_8md256_enabled
p200
(lp201
(L1219303366L
L0L
(lp202
(lp203
tp204
atp205
sI1074247444
(Vrtc_clk_cpu_freq_to_xtal
p206
(lp207
(L1859119812L
L3785322319L
(lp208
(lp209
Vrtc_clk_apb_freq_update
p210
atp211
a(L704196538L
L0L
(lp212
(lp213
tp214
a(L3201087345L
L0L
(lp215
(lp216
tp217
a(L3360570486L
L0L
(lp218
(lp219
tp220
atp221
sI1074237200
(Vbootloader_common_ota_select_invalid
p222
(lp223
(L2808438197L
L0L
(lp224
(lp225
tp226
a(L473337258L
L0L
(lp227
(lp228
tp229
a(L3028464L
L0L
(lp230
(lp231
tp232
a(L1299866343L
L0L
(lp233
(lp234
tp235
a(L1299866343L
L0L
(lp236
(lp237
tp238
a(L1299866343L
L0L
(lp239
(lp240
tp241
a(L2258688482L
L0L
(lp242
(lp243
tp244
a(L3360570486L
L0L
(lp245
(lp246
tp247
atp248
sI1074238748
(Vbootloader_random_disable
p249
(lp250
(L3193024314L
L0L
(lp251
(lp252
tp253
atp254
sI1074237980
(Vbootloader_flash_write
p255
(lp256
(L1798169257L
L0L
(lp257
(lp258
tp259
a(L1755666842L
L0L
(lp260
(lp261
tp262
a(L1182930978L
L0L
(lp263
(lp264
tp265
a(L1516326052L
L0L
(lp266
(lp267
tp268
a(L2577505532L
L3785322319L
(lp269
(lp270
Vesp_log_early_timestamp
p271
atp272
a(L3291333414L
L0L
(lp273
(lp274
tp275
a(L3575517822L
L3785322319L
(lp276
(lp277
Vesp_log_early_timestamp
p278
atp279
a(L3283691850L
L0L
(lp280
(lp281
tp282
a(L3404730344L
L3785322319L
(lp283
(lp284
Vesp_log_early_timestamp
p285
atp286
a(L3212356251L
L3785322319L
(lp287
(lp288
Vbootloader_flash_unlock
p289
atp290
a(L2902417580L
L0L
(lp291
(lp292
tp293
a(L2913054701L
L1880226080L
(lp294
(lp295
Vesp_rom_spiflash_write_encrypted
p296
aVspi_to_esp_err
p297
atp298
a(L4281627677L
L1880226080L
(lp299
(lp300
Vesp_rom_spiflash_write
p301
aVspi_to_esp_err
p302
atp303
a(L735741265L
L0L
(lp304
(lp305
tp306
atp307
sI1074240796
(Vbootloader_sha256_start
p308
(lp309
(L3415422197L
L0L
(lp310
(lp311
tp312
atp313
sI1074241820
(Vdebug_log_hash
p314
(lp315
(L1348589273L
L3785322319L
(lp316
(lp317
Vbootloader_sha256_hex_to_str
p318
atp319
atp320
sI1074243100
(Vbootloader_load_image
p321
(lp322
(L267004326L
L3785322319L
(lp323
(lp324
Vimage_load
p325
atp326
atp327
sI1074246172
(Vrtc_clk_32k_enable
p328
(lp329
(L753387299L
L0L
(lp330
(lp331
tp332
a(L958782923L
L3785322319L
(lp333
(lp334
Vrtc_clk_32k_enable_common
p335
atp336
a(L2321499812L
L0L
(lp337
(lp338
tp339
a(L3360570486L
L0L
(lp340
(lp341
tp342
atp343
sI1074240292
(Vbootloader_reset
p344
(lp345
(L372621144L
L0L
(lp346
(lp347
tp348
a(L106L
L0L
(lp349
(lp350
tp351
atp352
sI1074236964
(Vbootloader_common_vddsdio_configure
p353
(lp354
(L1829974089L
L3785322319L
(lp355
(lp356
Vrtc_vddsdio_get_config
p357
atp358
a(L2697960163L
L3785322319L
(lp359
(lp360
Vrtc_vddsdio_set_config
p361
atp362
a(L3360570486L
L0L
(lp363
(lp364
tp365
atp366
sI1074236716
(Vbootloader_clock_configure
p367
(lp368
(L3493042567L
L0L
(lp369
(lp370
tp371
a(L4281448847L
L0L
(lp372
(lp373
tp374
a(L1229860772L
L0L
(lp375
(lp376
tp377
a(L1518940034L
L0L
(lp378
(lp379
tp380
a(L1812928027L
L0L
(lp381
(lp382
tp383
a(L1812928027L
L0L
(lp384
(lp385
tp386
a(L2312970590L
L0L
(lp387
(lp388
tp389
a(L2314897641L
L1832448559L
(lp390
(lp391
Vrtc_clk_slow_freq_get
p392
aVrtc_clk_fast_freq_get
p393
aVrtc_clk_init
p394
atp395
atp396
sI1074243116
(Vesp_partition_table_verify
p397
(lp398
(L1363364359L
L0L
(lp399
(lp400
tp401
a(L90280480L
L0L
(lp402
(lp403
tp404
a(L2937657136L
L0L
(lp405
(lp406
tp407
a(L2865039366L
L0L
(lp408
(lp409
tp410
a(L106L
L0L
(lp411
(lp412
tp413
a(L484089803L
L0L
(lp414
(lp415
tp416
a(L1914627545L
L3785322319L
(lp417
(lp418
Vesp_log_early_timestamp
p419
atp420
a(L1235012963L
L0L
(lp421
(lp422
tp423
a(L2293822063L
L0L
(lp424
(lp425
tp426
a(L2902417580L
L0L
(lp427
(lp428
tp429
a(L2579271819L
L0L
(lp430
(lp431
tp432
a(L3254700347L
L3785322319L
(lp433
(lp434
Vesp_log_early_timestamp
p435
atp436
a(L1520777607L
L0L
(lp437
(lp438
tp439
a(L2579271819L
L0L
(lp440
(lp441
tp442
a(L2986673335L
L3785322319L
(lp443
(lp444
Vesp_log_early_timestamp
p445
atp446
a(L1610443436L
L0L
(lp447
(lp448
tp449
a(L1235012932L
L0L
(lp450
(lp451
tp452
a(L3720018517L
L0L
(lp453
(lp454
tp455
a(L1682246360L
L0L
(lp456
(lp457
tp458
a(L2579271819L
L0L
(lp459
(lp460
tp461
a(L1802374421L
L3785322319L
(lp462
(lp463
Vesp_log_early_timestamp
p464
atp465
a(L1235012932L
L0L
(lp466
(lp467
tp468
a(L1799288861L
L0L
(lp469
(lp470
tp471
a(L902240557L
L0L
(lp472
(lp473
tp474
a(L106L
L0L
(lp475
(lp476
tp477
a(L484089803L
L0L
(lp478
(lp479
tp480
a(L2336701254L
L3785322319L
(lp481
(lp482
Vesp_log_early_timestamp
p483
atp484
a(L2810785766L
L0L
(lp485
(lp486
tp487
a(L3360570486L
L0L
(lp488
(lp489
tp490
atp491
sI1074243884
(Vesp_rom_spiflash_enable_write
p492
(lp493
(L2227444725L
L3785322319L
(lp494
(lp495
Vesp_rom_spiflash_wait_idle
p496
atp497
a(L1152268403L
L0L
(lp498
(lp499
tp500
a(L106L
L0L
(lp501
(lp502
tp503
a(L1337065440L
L3785322319L
(lp504
(lp505
Vesp_rom_spiflash_read_status
p506
atp507
a(L1253527241L
L0L
(lp508
(lp509
tp510
a(L2993202392L
L0L
(lp511
(lp512
tp513
atp514
sI1074247212
(Vrtc_clk_cpu_freq_get_config
p515
(lp516
(L4193981730L
L0L
(lp517
(lp518
tp519
a(L2902417580L
L0L
(lp520
(lp521
tp522
a(L3020187L
L0L
(lp523
(lp524
tp525
a(L106L
L0L
(lp526
(lp527
tp528
a(L1631195885L
L3785322319L
(lp529
(lp530
Vrtc_clk_xtal_freq_get
p531
atp532
a(L1031411839L
L0L
(lp533
(lp534
tp535
a(L3020187L
L0L
(lp536
(lp537
tp538
a(L3020187L
L0L
(lp539
(lp540
tp541
a(L4090186057L
L1880226080L
(lp542
(lp543
Vesp_log_early_timestamp
p544
aVabort
p545
atp546
a(L4090186057L
L1880226080L
(lp547
(lp548
Vesp_log_early_timestamp
p549
aVabort
p550
atp551
a(L2637615626L
L0L
(lp552
(lp553
tp554
a(L2816701179L
L0L
(lp555
(lp556
tp557
a(L883419018L
L0L
(lp558
(lp559
tp560
a(L791693831L
L0L
(lp561
(lp562
tp563
a(L2032620637L
L0L
(lp564
(lp565
tp566
atp567
sI1074267684
(Vselect_partition_number
p568
(lp569
(L1731214134L
L3785322319L
(lp570
(lp571
Vbootloader_utility_load_partition_table
p572
atp573
a(L1837697588L
L3785322319L
(lp574
(lp575
Vesp_log_early_timestamp
p576
atp577
a(L1750549816L
L3785322319L
(lp578
(lp579
Vselected_boot_partition
p580
atp581
a(L3496950L
L0L
(lp582
(lp583
tp584
atp585
sI1074241844
(Vverify_simple_hash
p586
(lp587
(L2407906676L
L1832448559L
(lp588
(lp589
Vbootloader_sha256_finish
p590
aVdebug_log_hash
p591
aVbootloader_mmap
p592
atp593
a(L411041162L
L1832448559L
(lp594
(lp595
Vesp_log_early_timestamp
p596
aVdebug_log_hash
p597
aVbootloader_munmap
p598
atp599
a(L1362502076L
L3785322319L
(lp600
(lp601
Vbootloader_munmap
p602
atp603
a(L3360570486L
L0L
(lp604
(lp605
tp606
atp607
sI1074237236
(Vbootloader_common_select_otadata
p608
(lp609
(L3584189777L
L0L
(lp610
(lp611
tp612
a(L1238320367L
L0L
(lp613
(lp614
tp615
a(L1238350425L
L0L
(lp616
(lp617
tp618
a(L3063569071L
L0L
(lp619
(lp620
tp621
a(L1299866312L
L0L
(lp622
(lp623
tp624
a(L2902417580L
L0L
(lp625
(lp626
tp627
a(L2266899299L
L0L
(lp628
(lp629
tp630
a(L1021104441L
L0L
(lp631
(lp632
tp633
a(L3969214161L
L0L
(lp634
(lp635
tp636
a(L1299866312L
L0L
(lp637
(lp638
tp639
a(L1098457408L
L0L
(lp640
(lp641
tp642
a(L1770629919L
L0L
(lp643
(lp644
tp645
a(L3027007L
L0L
(lp646
(lp647
tp648
a(L1641201884L
L0L
(lp649
(lp650
tp651
a(L1641201884L
L0L
(lp652
(lp653
tp654
a(L2258688483L
L0L
(lp655
(lp656
tp657
a(L3360570486L
L0L
(lp658
(lp659
tp660
atp661
sI1074239280
(Vwrite_otadata
p662
(lp663
(L1129643552L
L3785322319L
(lp664
(lp665
Vbootloader_flash_erase_sector
p666
atp667
a(L2292404229L
L3785322319L
(lp668
(lp669
Vbootloader_flash_write
p670
atp671
a(L3020204L
L0L
(lp672
(lp673
tp674
a(L1166263010L
L3785322319L
(lp675
(lp676
Vesp_log_early_timestamp
p677
atp678
a(L3360570486L
L0L
(lp679
(lp680
tp681
atp682
sI1074240816
(Vbootloader_sha256_data
p683
(lp684
(L4037466985L
L0L
(lp685
(lp686
tp687
a(L3634309897L
L3785322319L
(lp688
(lp689
V__assert_func
p690
atp691
a(L2660352519L
L0L
(lp692
(lp693
tp694
a(L134315237L
L3785322319L
(lp695
(lp696
V__assert_func
p697
atp698
a(L66409669L
L0L
(lp699
(lp700
tp701
a(L2484576014L
L0L
(lp702
(lp703
tp704
a(L1827333279L
L0L
(lp705
(lp706
tp707
a(L1301713354L
L0L
(lp708
(lp709
tp710
a(L1236842280L
L0L
(lp711
(lp712
tp713
a(L3027019L
L0L
(lp714
(lp715
tp716
a(L2996249045L
L0L
(lp717
(lp718
tp719
a(L3028464L
L0L
(lp720
(lp721
tp722
a(L3199104680L
L0L
(lp723
(lp724
tp725
a(L732820678L
L0L
(lp726
(lp727
tp728
a(L3028481L
L0L
(lp729
(lp730
tp731
a(L3360570486L
L0L
(lp732
(lp733
tp734
atp735
sI1074246448
(Vrtc_clk_slow_freq_set
p736
(lp737
(L2730325889L
L0L
(lp738
(lp739
tp740
a(L1235012839L
L0L
(lp741
(lp742
tp743
a(L2258688482L
L0L
(lp744
(lp745
tp746
a(L4171631134L
L0L
(lp747
(lp748
tp749
atp750
sI1074247740
(Vrtc_clk_cpu_freq_to_8m
p751
(lp752
(L4006921769L
L3785322319L
(lp753
(lp754
Vrtc_clk_apb_freq_update
p755
atp756
atp757
sI1074238276
(Vbootloader_random_enable
p758
(lp759
(L3394434275L
L0L
(lp760
(lp761
tp762
atp763
sI1074240588
(Vindex_to_partition
p764
(lp765
(L4066096119L
L0L
(lp766
(lp767
tp768
a(L937847257L
L0L
(lp769
(lp770
tp771
a(L2808906342L
L0L
(lp772
(lp773
tp774
a(L1765918994L
L0L
(lp775
(lp776
tp777
a(L2808826781L
L0L
(lp778
(lp779
tp780
a(L2911029954L
L0L
(lp781
(lp782
tp783
a(L544791756L
L0L
(lp784
(lp785
tp786
a(L1984670054L
L0L
(lp787
(lp788
tp789
a(L3698927993L
L0L
(lp790
(lp791
tp792
atp793
sI1074268996
(Vrtc_clk_xtal_freq_estimate
p794
(lp795
(L2516060585L
L1880226080L
(lp796
(lp797
Vrtc_clk_8m_enabled
p798
aVrtc_clk_8md256_enabled
p799
atp800
a(L967485502L
L3785322319L
(lp801
(lp802
Vrtc_clk_8m_enable
p803
atp804
a(L1270476268L
L3785322319L
(lp805
(lp806
Vrtc_clk_cal_ratio
p807
atp808
a(L1721257132L
L0L
(lp809
(lp810
tp811
a(L4242372671L
L3785322319L
(lp812
(lp813
Vesp_log_early_timestamp
p814
atp815
a(L3360570486L
L0L
(lp816
(lp817
tp818
atp819
sI1074235464
(Vbootloader_flash_execute_command_common
p820
(lp821
(L3093683517L
L0L
(lp822
(lp823
tp824
a(L3553389917L
L3785322319L
(lp825
(lp826
V__assert_func
p827
atp828
a(L3934048903L
L0L
(lp829
(lp830
tp831
a(L200507376L
L3785322319L
(lp832
(lp833
V__assert_func
p834
atp835
a(L271654967L
L0L
(lp836
(lp837
tp838
a(L3677736035L
L0L
(lp839
(lp840
tp841
a(L2720116201L
L0L
(lp842
(lp843
tp844
a(L1370372145L
L0L
(lp845
(lp846
tp847
a(L2053727415L
L0L
(lp848
(lp849
tp850
a(L3056583676L
L0L
(lp851
(lp852
tp853
a(L2460931740L
L0L
(lp854
(lp855
tp856
a(L2258807646L
L0L
(lp857
(lp858
tp859
a(L363225620L
L0L
(lp860
(lp861
tp862
a(L3513331551L
L0L
(lp863
(lp864
tp865
a(L2258807646L
L0L
(lp866
(lp867
tp868
a(L2509596774L
L0L
(lp869
(lp870
tp871
a(L3541824727L
L0L
(lp872
(lp873
tp874
a(L526118246L
L0L
(lp875
(lp876
tp877
a(L377965372L
L0L
(lp878
(lp879
tp880
a(L3360570486L
L0L
(lp881
(lp882
tp883
atp884
sI1074243656
(Vesp_rom_spiflash_read_data
p885
(lp886
(L4122033220L
L0L
(lp887
(lp888
tp889
a(L106L
L0L
(lp890
(lp891
tp892
a(L2070875117L
L3785322319L
(lp893
(lp894
Vesp_rom_spiflash_wait_idle
p895
atp896
a(L2761836345L
L0L
(lp897
(lp898
tp899
a(L1317513426L
L0L
(lp900
(lp901
tp902
a(L1152268403L
L0L
(lp903
(lp904
tp905
a(L106L
L0L
(lp906
(lp907
tp908
a(L481305644L
L0L
(lp909
(lp910
tp911
a(L256664550L
L0L
(lp912
(lp913
tp914
a(L663200857L
L0L
(lp915
(lp916
tp917
a(L2905177298L
L0L
(lp918
(lp919
tp920
a(L1152268403L
L0L
(lp921
(lp922
tp923
a(L1263158627L
L0L
(lp924
(lp925
tp926
a(L131455463L
L0L
(lp927
(lp928
tp929
a(L3922957135L
L0L
(lp930
(lp931
tp932
a(L1305407438L
L0L
(lp933
(lp934
tp935
a(L481305644L
L0L
(lp936
(lp937
tp938
a(L3027019L
L0L
(lp939
(lp940
tp941
a(L2258777855L
L0L
(lp942
(lp943
tp944
a(L3027007L
L0L
(lp945
(lp946
tp947
a(L106L
L0L
(lp948
(lp949
tp950
a(L1299866312L
L0L
(lp951
(lp952
tp953
a(L2258688483L
L0L
(lp954
(lp955
tp956
a(L3360570486L
L0L
(lp957
(lp958
tp959
atp960
sI1074245448
(Vrtc_wdt_set_stage
p961
(lp962
(L1890082815L
L0L
(lp963
(lp964
tp965
a(L1182990556L
L0L
(lp966
(lp967
tp968
a(L1158671683L
L0L
(lp969
(lp970
tp971
a(L1183020347L
L0L
(lp972
(lp973
tp974
a(L1745934199L
L0L
(lp975
(lp976
tp977
a(L2910371777L
L0L
(lp978
(lp979
tp980
a(L3670857185L
L0L
(lp981
(lp982
tp983
a(L3028464L
L0L
(lp984
(lp985
tp986
a(L1464294054L
L0L
(lp987
(lp988
tp989
a(L3028464L
L0L
(lp990
(lp991
tp992
a(L1308673738L
L0L
(lp993
(lp994
tp995
a(L2505242302L
L0L
(lp996
(lp997
tp998
a(L2810785765L
L0L
(lp999
(lp1000
tp1001
a(L3360570486L
L0L
(lp1002
(lp1003
tp1004
atp1005
sI1074241364
(Vverify_checksum
p1006
(lp1007
(L2404488809L
L3785322319L
(lp1008
(lp1009
Vbootloader_flash_read
p1010
atp1011
a(L536801886L
L3785322319L
(lp1012
(lp1013
Vesp_log_early_timestamp
p1014
atp1015
a(L3020204L
L0L
(lp1016
(lp1017
tp1018
a(L2547710365L
L3785322319L
(lp1019
(lp1020
Vbootloader_sha256_data
p1021
atp1022
a(L4124473353L
L0L
(lp1023
(lp1024
tp1025
a(L1223427414L
L0L
(lp1026
(lp1027
tp1028
a(L4270503677L
L0L
(lp1029
(lp1030
tp1031
a(L3360570486L
L0L
(lp1032
(lp1033
tp1034
atp1035
sI1074237780
(Vbootloader_munmap
p1036
(lp1037
(L1879649227L
L0L
(lp1038
(lp1039
tp1040
a(L2375056936L
L0L
(lp1041
(lp1042
tp1043
a(L3360570486L
L0L
(lp1044
(lp1045
tp1046
atp1047
sI1074240336
(Vbootloader_utility_load_boot_image
p1048
(lp1049
(L3583044102L
L0L
(lp1050
(lp1051
tp1052
a(L534474525L
L3785322319L
(lp1053
(lp1054
Vtry_load_partition
p1055
atp1056
a(L1346171890L
L3785322319L
(lp1057
(lp1058
Vload_image
p1059
atp1060
a(L3138571315L
L1880226080L
(lp1061
(lp1062
Vesp_log_early_timestamp
p1063
aVbootloader_reset
p1064
atp1065
a(L471331349L
L3785322319L
(lp1066
(lp1067
Vindex_to_partition
p1068
atp1069
a(L889780906L
L3785322319L
(lp1070
(lp1071
Vcheck_anti_rollback
p1072
atp1073
a(L1255570883L
L3785322319L
(lp1074
(lp1075
Vtry_load_partition
p1076
atp1077
a(L170811925L
L1880226080L
(lp1078
(lp1079
Vset_actual_ota_seq
p1080
aVload_image
p1081
atp1082
a(L1391131227L
L3785322319L
(lp1083
(lp1084
Vlog_invalid_app_partition
p1085
atp1086
a(L11368960L
L0L
(lp1087
(lp1088
tp1089
a(L3802068281L
L0L
(lp1090
(lp1091
tp1092
a(L3021737L
L0L
(lp1093
(lp1094
tp1095
a(L4238347245L
L0L
(lp1096
(lp1097
tp1098
a(L3969617880L
L3785322319L
(lp1099
(lp1100
Vindex_to_partition
p1101
atp1102
a(L889780906L
L3785322319L
(lp1103
(lp1104
Vcheck_anti_rollback
p1105
atp1106
a(L1255570883L
L3785322319L
(lp1107
(lp1108
Vtry_load_partition
p1109
atp1110
a(L2740298324L
L1880226080L
(lp1111
(lp1112
Vset_actual_ota_seq
p1113
aVload_image
p1114
atp1115
a(L2162300612L
L3785322319L
(lp1116
(lp1117
Vlog_invalid_app_partition
p1118
atp1119
a(L3307283485L
L0L
(lp1120
(lp1121
tp1122
a(L1508906068L
L0L
(lp1123
(lp1124
tp1125
a(L2528911837L
L3785322319L
(lp1126
(lp1127
Vtry_load_partition
p1128
atp1129
a(L2819040949L
L1880226080L
(lp1130
(lp1131
Vesp_log_early_timestamp
p1132
aVload_image
p1133
atp1134
a(L2681807236L
L1880226080L
(lp1135
(lp1136
Vesp_log_early_timestamp
p1137
aVbootloader_reset
p1138
atp1139
atp1140
sI1074240092
(Vbootloader_utility_get_selected_boot_partition
p1141
(lp1142
(L4002538433L
L0L
(lp1143
(lp1144
tp1145
a(L1053676827L
L3785322319L
(lp1146
(lp1147
Vread_otadata
p1148
atp1149
a(L1021228474L
L3785322319L
(lp1150
(lp1151
Vbootloader_common_ota_select_invalid
p1152
atp1153
a(L1836822349L
L3785322319L
(lp1154
(lp1155
Vbootloader_common_ota_select_invalid
p1156
atp1157
a(L3980563023L
L0L
(lp1158
(lp1159
tp1160
a(L45272527L
L0L
(lp1161
(lp1162
tp1163
a(L847222691L
L0L
(lp1164
(lp1165
tp1166
a(L1182403797L
L3785322319L
(lp1167
(lp1168
Vbootloader_common_ota_select_crc
p1169
atp1170
a(L106L
L0L
(lp1171
(lp1172
tp1173
a(L505081345L
L0L
(lp1174
(lp1175
tp1176
a(L3204025930L
L3785322319L
(lp1177
(lp1178
Vbootloader_common_ota_select_crc
p1179
atp1180
a(L4236820941L
L0L
(lp1181
(lp1182
tp1183
a(L1876827316L
L3785322319L
(lp1184
(lp1185
Vbootloader_common_get_active_otadata
p1186
atp1187
a(L2624014019L
L0L
(lp1188
(lp1189
tp1190
a(L1434139642L
L0L
(lp1191
(lp1192
tp1193
a(L847570288L
L3785322319L
(lp1194
(lp1195
Vesp_log_early_timestamp
p1196
atp1197
a(L2069061740L
L3785322319L
(lp1198
(lp1199
Vesp_log_early_timestamp
p1200
atp1201
a(L1641201884L
L0L
(lp1202
(lp1203
tp1204
a(L1084752894L
L0L
(lp1205
(lp1206
tp1207
a(L1299867982L
L0L
(lp1208
(lp1209
tp1210
a(L3360570486L
L0L
(lp1211
(lp1212
tp1213
atp1214
sI1074246236
(Vrtc_clk_8m_enable
p1215
(lp1216
(L1474360438L
L0L
(lp1217
(lp1218
tp1219
a(L3062387412L
L0L
(lp1220
(lp1221
tp1222
a(L705371492L
L0L
(lp1223
(lp1224
tp1225
a(L2210176652L
L0L
(lp1226
(lp1227
tp1228
a(L3227012120L
L0L
(lp1229
(lp1230
tp1231
a(L2870329421L
L0L
(lp1232
(lp1233
tp1234
a(L3360570486L
L0L
(lp1235
(lp1236
tp1237
atp1238
sI1074267732
(Vcall_start_cpu0
p1239
(lp1240
(L2311976169L
L3785322319L
(lp1241
(lp1242
Vbootloader_init
p1243
atp1244
a(L3827921190L
L3785322319L
(lp1245
(lp1246
Vbootloader_reset
p1247
atp1248
a(L4083304126L
L3785322319L
(lp1249
(lp1250
Vselect_partition_number
p1251
atp1252
a(L94425498L
L3785322319L
(lp1253
(lp1254
Vbootloader_reset
p1255
atp1256
a(L1678595755L
L3785322319L
(lp1257
(lp1258
Vbootloader_utility_load_boot_image
p1259
atp1260
atp1261
sI1074239064
(Vlog_invalid_app_partition
p1262
(lp1263
(L3686132467L
L0L
(lp1264
(lp1265
tp1266
a(L3028464L
L0L
(lp1267
(lp1268
tp1269
a(L2349463320L
L3785322319L
(lp1270
(lp1271
Vesp_log_early_timestamp
p1272
atp1273
a(L3689598380L
L3785322319L
(lp1274
(lp1275
Vesp_log_early_timestamp
p1276
atp1277
a(L2312406593L
L3785322319L
(lp1278
(lp1279
Vesp_log_early_timestamp
p1280
atp1281
a(L3496950L
L0L
(lp1282
(lp1283
tp1284
atp1285
sI1074237016
(Vbootloader_common_get_chip_revision
p1286
(lp1287
(L713572164L
L0L
(lp1288
(lp1289
tp1290
a(L3020187L
L0L
(lp1291
(lp1292
tp1293
a(L3020187L
L0L
(lp1294
(lp1295
tp1296
a(L1299866312L
L0L
(lp1297
(lp1298
tp1299
a(L1299866374L
L0L
(lp1300
(lp1301
tp1302
a(L1299866405L
L0L
(lp1303
(lp1304
tp1305
a(L2258688483L
L0L
(lp1306
(lp1307
tp1308
a(L3360570486L
L0L
(lp1309
(lp1310
tp1311
atp1312
sI1074234712
(Vbootloader_flash_gpio_config
p1313
(lp1314
(L2421374338L
L0L
(lp1315
(lp1316
tp1317
a(L1299866374L
L0L
(lp1318
(lp1319
tp1320
a(L2258688485L
L0L
(lp1321
(lp1322
tp1323
a(L3994737887L
L0L
(lp1324
(lp1325
tp1326
a(L3374238576L
L0L
(lp1327
(lp1328
tp1329
a(L3028464L
L0L
(lp1330
(lp1331
tp1332
a(L3374238576L
L0L
(lp1333
(lp1334
tp1335
a(L3028464L
L0L
(lp1336
(lp1337
tp1338
a(L3374238576L
L0L
(lp1339
(lp1340
tp1341
a(L1620391664L
L0L
(lp1342
(lp1343
tp1344
a(L2823660977L
L0L
(lp1345
(lp1346
tp1347
a(L2854935024L
L0L
(lp1348
(lp1349
tp1350
a(L3360570486L
L0L
(lp1351
(lp1352
tp1353
atp1354
sI1074244184
(Vesp_rom_spiflash_erase_sector
p1355
(lp1356
(L794300548L
L0L
(lp1357
(lp1358
tp1359
a(L2752721518L
L3785322319L
(lp1360
(lp1361
Vesp_rom_spiflash_enable_write
p1362
atp1363
a(L1603672759L
L3785322319L
(lp1364
(lp1365
Vesp_rom_spiflash_erase_sector_internal
p1366
atp1367
a(L106L
L0L
(lp1368
(lp1369
tp1370
a(L1299866343L
L0L
(lp1371
(lp1372
tp1373
a(L1299866343L
L0L
(lp1374
(lp1375
tp1376
a(L2258688483L
L0L
(lp1377
(lp1378
tp1379
a(L3360570486L
L0L
(lp1380
(lp1381
tp1382
atp1383
sI1074236004
(Vexecute_flash_command
p1384
(lp1385
(L2909450247L
L3785322319L
(lp1386
(lp1387
Vbootloader_flash_execute_command_common
p1388
atp1389
atp1390
sI1074236268
(Vbootloader_flash_unlock
p1391
(lp1392
(L3746304696L
L3785322319L
(lp1393
(lp1394
Vesp_rom_spiflash_wait_idle
p1395
atp1396
a(L3827077634L
L3785322319L
(lp1397
(lp1398
Vexecute_flash_command
p1399
atp1400
a(L3162775668L
L0L
(lp1401
(lp1402
tp1403
a(L1225466760L
L0L
(lp1404
(lp1405
tp1406
a(L2151861662L
L0L
(lp1407
(lp1408
tp1409
a(L1299866312L
L0L
(lp1410
(lp1411
tp1412
a(L1299866312L
L0L
(lp1413
(lp1414
tp1415
a(L1299866312L
L0L
(lp1416
(lp1417
tp1418
a(L1182811811L
L0L
(lp1419
(lp1420
tp1421
a(L3020204L
L0L
(lp1422
(lp1423
tp1424
a(L2678961441L
L1880226080L
(lp1425
(lp1426
Vexecute_flash_command
p1427
aVexecute_flash_command
p1428
atp1429
a(L3220422812L
L1880226080L
(lp1430
(lp1431
Vexecute_flash_command
p1432
aVexecute_flash_command
p1433
atp1434
a(L97422L
L0L
(lp1435
(lp1436
tp1437
a(L2746578736L
L1157885199L
(lp1438
(lp1439
Vesp_rom_spiflash_wait_idle
p1440
aVexecute_flash_command
p1441
aVesp_rom_spiflash_wait_idle
p1442
aVexecute_flash_command
p1443
aVesp_rom_spiflash_wait_idle
p1444
atp1445
a(L97422L
L0L
(lp1446
(lp1447
tp1448
a(L779969632L
L1157885199L
(lp1449
(lp1450
Vesp_rom_spiflash_wait_idle
p1451
aVexecute_flash_command
p1452
aVesp_rom_spiflash_wait_idle
p1453
aVexecute_flash_command
p1454
aVesp_rom_spiflash_wait_idle
p1455
atp1456
a(L2531355236L
L1880226080L
(lp1457
(lp1458
Vexecute_flash_command
p1459
aVesp_rom_spiflash_wait_idle
p1460
atp1461
atp1462
sI1074239336
(Vset_actual_ota_seq
p1463
(lp1464
(L4094723830L
L0L
(lp1465
(lp1466
tp1467
a(L3023977158L
L0L
(lp1468
(lp1469
tp1470
a(L530614021L
L3785322319L
(lp1471
(lp1472
Vbootloader_common_ota_select_crc
p1473
atp1474
a(L3016870L
L0L
(lp1475
(lp1476
tp1477
a(L2175534482L
L0L
(lp1478
(lp1479
tp1480
a(L1139269215L
L0L
(lp1481
(lp1482
tp1483
a(L3028481L
L0L
(lp1484
(lp1485
tp1486
a(L1910345802L
L3785322319L
(lp1487
(lp1488
Vwrite_otadata
p1489
atp1490
a(L3496950L
L0L
(lp1491
(lp1492
tp1493
atp1494
sI1074237544
(Vbootloader_flash_read_no_decrypt
p1495
(lp1496
(L2128801373L
L1880226080L
(lp1497
(lp1498
Vesp_rom_spiflash_read
p1499
aVspi_to_esp_err
p1500
atp1501
atp1502
sI1074243944
(Vesp_rom_spiflash_program_page_internal
p1503
(lp1504
(L2773322937L
L0L
(lp1505
(lp1506
tp1507
a(L3904186990L
L0L
(lp1508
(lp1509
tp1510
a(L106L
L0L
(lp1511
(lp1512
tp1513
a(L2070875117L
L3785322319L
(lp1514
(lp1515
Vesp_rom_spiflash_wait_idle
p1516
atp1517
a(L530241438L
L3785322319L
(lp1518
(lp1519
Vesp_rom_spiflash_enable_write
p1520
atp1521
a(L1499276535L
L0L
(lp1522
(lp1523
tp1524
a(L1375363292L
L0L
(lp1525
(lp1526
tp1527
a(L1207154366L
L0L
(lp1528
(lp1529
tp1530
a(L93837694L
L0L
(lp1531
(lp1532
tp1533
a(L1943062613L
L0L
(lp1534
(lp1535
tp1536
a(L160068320L
L0L
(lp1537
(lp1538
tp1539
a(L131455463L
L0L
(lp1540
(lp1541
tp1542
a(L3922957135L
L0L
(lp1543
(lp1544
tp1545
a(L1305407438L
L0L
(lp1546
(lp1547
tp1548
a(L1207154366L
L0L
(lp1549
(lp1550
tp1551
a(L3027019L
L0L
(lp1552
(lp1553
tp1554
a(L1243408381L
L0L
(lp1555
(lp1556
tp1557
a(L2311872600L
L0L
(lp1558
(lp1559
tp1560
a(L1951366259L
L0L
(lp1561
(lp1562
tp1563
a(L1452275741L
L3785322319L
(lp1564
(lp1565
Vesp_rom_spiflash_wait_idle
p1566
atp1567
a(L3027007L
L0L
(lp1568
(lp1569
tp1570
a(L106L
L0L
(lp1571
(lp1572
tp1573
a(L2307427848L
L0L
(lp1574
(lp1575
tp1576
a(L1299866343L
L0L
(lp1577
(lp1578
tp1579
a(L1299866343L
L0L
(lp1580
(lp1581
tp1582
a(L2258688483L
L0L
(lp1583
(lp1584
tp1585
a(L3360570486L
L0L
(lp1586
(lp1587
tp1588
atp1589
sI1074246004
(Vrtc_clk_bbpll_disable
p1590
(lp1591
(L561024572L
L0L
(lp1592
(lp1593
tp1594
a(L839711615L
L0L
(lp1595
(lp1596
tp1597
a(L3360570486L
L0L
(lp1598
(lp1599
tp1600
atp1601
sI1074243440
(Vesp_rom_spiflash_read_status
p1602
(lp1603
(L1642541540L
L0L
(lp1604
(lp1605
tp1606
a(L106L
L0L
(lp1607
(lp1608
tp1609
a(L2151348167L
L0L
(lp1610
(lp1611
tp1612
a(L1152268403L
L0L
(lp1613
(lp1614
tp1615
a(L3447416637L
L0L
(lp1616
(lp1617
tp1618
a(L4159619641L
L0L
(lp1619
(lp1620
tp1621
a(L106L
L0L
(lp1622
(lp1623
tp1624
a(L176250727L
L0L
(lp1625
(lp1626
tp1627
a(L4159619641L
L0L
(lp1628
(lp1629
tp1630
a(L2392720019L
L0L
(lp1631
(lp1632
tp1633
atp1634
sI1074241648
(Vprocess_segment_data
p1635
(lp1636
(L3236683529L
L3785322319L
(lp1637
(lp1638
Vbootloader_mmap
p1639
atp1640
a(L376809991L
L3785322319L
(lp1641
(lp1642
Vesp_log_early_timestamp
p1643
atp1644
a(L1971210241L
L3785322319L
(lp1645
(lp1646
Vbootloader_fill_random
p1647
atp1648
a(L3638420984L
L0L
(lp1649
(lp1650
tp1651
a(L3642115068L
L0L
(lp1652
(lp1653
tp1654
a(L1299866312L
L0L
(lp1655
(lp1656
tp1657
a(L2008416411L
L0L
(lp1658
(lp1659
tp1660
a(L3016870L
L0L
(lp1661
(lp1662
tp1663
a(L2302149040L
L0L
(lp1664
(lp1665
tp1666
a(L3820880894L
L0L
(lp1667
(lp1668
tp1669
a(L731312119L
L0L
(lp1670
(lp1671
tp1672
a(L2902417580L
L0L
(lp1673
(lp1674
tp1675
a(L2505185480L
L0L
(lp1676
(lp1677
tp1678
a(L3094078540L
L3785322319L
(lp1679
(lp1680
Vbootloader_sha256_data
p1681
atp1682
a(L1770629922L
L0L
(lp1683
(lp1684
tp1685
a(L3896226538L
L0L
(lp1686
(lp1687
tp1688
a(L74549926L
L3785322319L
(lp1689
(lp1690
Vbootloader_munmap
p1691
atp1692
a(L3360570486L
L0L
(lp1693
(lp1694
tp1695
atp1696
sI1074236028
(Vbootloader_read_flash_id
p1697
(lp1698
(L1815620575L
L3785322319L
(lp1699
(lp1700
Vexecute_flash_command
p1701
atp1702
atp1703
sI1074245244
(Vrtc_wdt_get_protect_status
p1704
(lp1705
(L4080027576L
L0L
(lp1706
(lp1707
tp1708
atp1709
sI1074245752
(Vrtc_wdt_set_length_of_reset_signal
p1710
(lp1711
(L1890082815L
L0L
(lp1712
(lp1713
tp1714
a(L1182990556L
L0L
(lp1715
(lp1716
tp1717
a(L1158671683L
L0L
(lp1718
(lp1719
tp1720
a(L1183020347L
L0L
(lp1721
(lp1722
tp1723
a(L1745934199L
L0L
(lp1724
(lp1725
tp1726
a(L2910371777L
L0L
(lp1727
(lp1728
tp1729
a(L491225922L
L0L
(lp1730
(lp1731
tp1732
a(L767249467L
L0L
(lp1733
(lp1734
tp1735
a(L2810785765L
L0L
(lp1736
(lp1737
tp1738
a(L3360570486L
L0L
(lp1739
(lp1740
tp1741
atp1742
sI1074246520
(Vrtc_clk_slow_freq_get
p1743
(lp1744
(L3086098815L
L0L
(lp1745
(lp1746
tp1747
atp1748
sI1074268296
(Vupdate_flash_config
p1749
(lp1750
(L2363123660L
L0L
(lp1751
(lp1752
tp1753
a(L2878833082L
L0L
(lp1754
(lp1755
tp1756
a(L2258688484L
L0L
(lp1757
(lp1758
tp1759
a(L1627691211L
L0L
(lp1760
(lp1761
tp1762
atp1763
sI1074239876
(Vload_image
p1764
(lp1765
(L1599382955L
L1880226080L
(lp1766
(lp1767
Vbootloader_random_disable
p1768
aVunpack_load_app
p1769
atp1770
atp1771
sI1074267788
(Vprint_flash_info
p1772
(lp1773
(L3711533291L
L0L
(lp1774
(lp1775
tp1776
atp1777
sI1074242432
(Vimage_load
p1778
(lp1779
(L915390607L
L0L
(lp1780
(lp1781
tp1782
a(L106L
L0L
(lp1783
(lp1784
tp1785
a(L3798955775L
L0L
(lp1786
(lp1787
tp1788
a(L3020187L
L0L
(lp1789
(lp1790
tp1791
a(L4000958321L
L3785322319L
(lp1792
(lp1793
Vesp_log_early_timestamp
p1794
atp1795
a(L3896850786L
L0L
(lp1796
(lp1797
tp1798
a(L849855312L
L3785322319L
(lp1799
(lp1800
Vbootloader_flash_read
p1801
atp1802
a(L4124473353L
L0L
(lp1803
(lp1804
tp1805
a(L2568992188L
L3785322319L
(lp1806
(lp1807
Vbootloader_sha256_start
p1808
atp1809
a(L623197325L
L3785322319L
(lp1810
(lp1811
Vbootloader_sha256_data
p1812
atp1813
a(L2258837437L
L0L
(lp1814
(lp1815
tp1816
a(L2658039957L
L3785322319L
(lp1817
(lp1818
Vverify_image_header
p1819
atp1820
a(L1980404654L
L0L
(lp1821
(lp1822
tp1823
a(L3028464L
L0L
(lp1824
(lp1825
tp1826
a(L106L
L0L
(lp1827
(lp1828
tp1829
a(L2862585833L
L3785322319L
(lp1830
(lp1831
Vesp_log_early_timestamp
p1832
atp1833
a(L2178537071L
L0L
(lp1834
(lp1835
tp1836
a(L1255687483L
L3785322319L
(lp1837
(lp1838
Vprocess_segment
p1839
atp1840
a(L1589625955L
L0L
(lp1841
(lp1842
tp1843
a(L2125973223L
L0L
(lp1844
(lp1845
tp1846
a(L2993473092L
L0L
(lp1847
(lp1848
tp1849
a(L3028464L
L0L
(lp1850
(lp1851
tp1852
a(L106L
L0L
(lp1853
(lp1854
tp1855
a(L2428159868L
L3785322319L
(lp1856
(lp1857
Vesp_log_early_timestamp
p1858
atp1859
a(L2638226786L
L3785322319L
(lp1860
(lp1861
Vesp_cpu_in_ocd_debug_mode
p1862
atp1863
a(L3100707227L
L3785322319L
(lp1864
(lp1865
Vverify_checksum
p1866
atp1867
a(L279608302L
L0L
(lp1868
(lp1869
tp1870
a(L3028464L
L0L
(lp1871
(lp1872
tp1873
a(L106L
L0L
(lp1874
(lp1875
tp1876
a(L3759082696L
L3785322319L
(lp1877
(lp1878
Vesp_log_early_timestamp
p1879
atp1880
a(L2074376433L
L0L
(lp1881
(lp1882
tp1883
a(L3020204L
L0L
(lp1884
(lp1885
tp1886
a(L3287840219L
L3785322319L
(lp1887
(lp1888
Vesp_cpu_in_ocd_debug_mode
p1889
atp1890
a(L3042111959L
L3785322319L
(lp1891
(lp1892
Vverify_simple_hash
p1893
atp1894
a(L3020204L
L0L
(lp1895
(lp1896
tp1897
a(L3688659868L
L3785322319L
(lp1898
(lp1899
Vbootloader_sha256_finish
p1900
atp1901
a(L3230798602L
L0L
(lp1902
(lp1903
tp1904
a(L84393073L
L3785322319L
(lp1905
(lp1906
Vbootloader_mmap
p1907
atp1908
a(L654670429L
L3785322319L
(lp1909
(lp1910
Vbootloader_munmap
p1911
atp1912
a(L3028481L
L0L
(lp1913
(lp1914
tp1915
a(L3020187L
L0L
(lp1916
(lp1917
tp1918
a(L106L
L0L
(lp1919
(lp1920
tp1921
a(L106L
L0L
(lp1922
(lp1923
tp1924
a(L808845010L
L3785322319L
(lp1925
(lp1926
Vshould_load
p1927
atp1928
a(L3632402446L
L0L
(lp1929
(lp1930
tp1931
a(L4103406395L
L0L
(lp1932
(lp1933
tp1934
a(L3490931181L
L0L
(lp1935
(lp1936
tp1937
a(L1359536673L
L0L
(lp1938
(lp1939
tp1940
a(L3743228140L
L0L
(lp1941
(lp1942
tp1943
a(L1818239465L
L0L
(lp1944
(lp1945
tp1946
a(L1720234353L
L0L
(lp1947
(lp1948
tp1949
a(L3802069241L
L0L
(lp1950
(lp1951
tp1952
a(L2573310946L
L0L
(lp1953
(lp1954
tp1955
a(L106L
L0L
(lp1956
(lp1957
tp1958
a(L1304483917L
L0L
(lp1959
(lp1960
tp1961
a(L2258837437L
L0L
(lp1962
(lp1963
tp1964
a(L2902417580L
L0L
(lp1965
(lp1966
tp1967
a(L106L
L0L
(lp1968
(lp1969
tp1970
a(L1641201884L
L0L
(lp1971
(lp1972
tp1973
a(L702739514L
L0L
(lp1974
(lp1975
tp1976
a(L3020204L
L0L
(lp1977
(lp1978
tp1979
a(L3688659868L
L3785322319L
(lp1980
(lp1981
Vbootloader_sha256_finish
p1982
atp1983
a(L491784581L
L0L
(lp1984
(lp1985
tp1986
a(L1235012901L
L0L
(lp1987
(lp1988
tp1989
a(L2810785764L
L0L
(lp1990
(lp1991
tp1992
a(L3360570486L
L0L
(lp1993
(lp1994
tp1995
atp1996
sI1074237836
(Vbootloader_flash_read
p1997
(lp1998
(L1127605422L
L0L
(lp1999
(lp2000
tp2001
a(L2973286733L
L3785322319L
(lp2002
(lp2003
Vesp_log_early_timestamp
p2004
atp2005
a(L899934477L
L0L
(lp2006
(lp2007
tp2008
a(L2424792907L
L3785322319L
(lp2009
(lp2010
Vesp_log_early_timestamp
p2011
atp2012
a(L2696885836L
L0L
(lp2013
(lp2014
tp2015
a(L268238079L
L3785322319L
(lp2016
(lp2017
Vesp_log_early_timestamp
p2018
atp2019
a(L3020204L
L0L
(lp2020
(lp2021
tp2022
a(L3107770098L
L3785322319L
(lp2023
(lp2024
Vbootloader_flash_read_allow_decrypt
p2025
atp2026
a(L2175061880L
L3785322319L
(lp2027
(lp2028
Vbootloader_flash_read_no_decrypt
p2029
atp2030
a(L3360570486L
L0L
(lp2031
(lp2032
tp2033
atp2034
sI1074246536
(Vrtc_clk_slow_freq_get_hz
p2035
(lp2036
(L2601977293L
L3785322319L
(lp2037
(lp2038
Vrtc_clk_slow_freq_get
p2039
atp2040
a(L2902417580L
L0L
(lp2041
(lp2042
tp2043
a(L3020187L
L0L
(lp2044
(lp2045
tp2046
a(L1299866312L
L0L
(lp2047
(lp2048
tp2049
a(L310017446L
L0L
(lp2050
(lp2051
tp2052
a(L310106943L
L0L
(lp2053
(lp2054
tp2055
a(L702740103L
L0L
(lp2056
(lp2057
tp2058
a(L3360570486L
L0L
(lp2059
(lp2060
tp2061
atp2062
sI1074247828
(Vrtc_clk_cpu_freq_set_config
p2063
(lp2064
(L1695392233L
L3785322319L
(lp2065
(lp2066
Vrtc_clk_xtal_freq_get
p2067
atp2068
a(L1739379997L
L1880226080L
(lp2069
(lp2070
Vrtc_clk_cpu_freq_to_xtal
p2071
aVrtc_clk_wait_for_slow_cycle
p2072
atp2073
a(L3028464L
L0L
(lp2074
(lp2075
tp2076
a(L94425498L
L3785322319L
(lp2077
(lp2078
Vrtc_clk_bbpll_disable
p2079
atp2080
a(L3978916712L
L0L
(lp2081
(lp2082
tp2083
a(L2977209154L
L0L
(lp2084
(lp2085
tp2086
a(L3224389080L
L3785322319L
(lp2087
(lp2088
Vrtc_clk_cpu_freq_to_xtal
p2089
atp2090
a(L3028464L
L0L
(lp2091
(lp2092
tp2093
a(L2123040928L
L1157885199L
(lp2094
(lp2095
Vrtc_clk_bbpll_enable
p2096
aVrtc_clk_wait_for_slow_cycle
p2097
aVrtc_clk_xtal_freq_get
p2098
aVrtc_clk_bbpll_configure
p2099
aVrtc_clk_cpu_freq_to_pll_mhz
p2100
atp2101
a(L3028464L
L0L
(lp2102
(lp2103
tp2104
a(L94425498L
L3785322319L
(lp2105
(lp2106
Vrtc_clk_cpu_freq_to_8m
p2107
atp2108
a(L3360570486L
L0L
(lp2109
(lp2110
tp2111
atp2112
sI1074267804
(Vwdt_reset_cpu0_info_enable
p2113
(lp2114
(L1654993634L
L0L
(lp2115
(lp2116
tp2117
atp2118
sI1074239888
(Vbootloader_utility_load_partition_table
p2119
(lp2120
(L1895658324L
L3785322319L
(lp2121
(lp2122
Vbootloader_mmap
p2123
atp2124
a(L2218589640L
L3785322319L
(lp2125
(lp2126
Vesp_log_early_timestamp
p2127
atp2128
a(L1640479211L
L3785322319L
(lp2129
(lp2130
Vesp_partition_table_verify
p2131
atp2132
a(L2620079870L
L3785322319L
(lp2133
(lp2134
Vesp_log_early_timestamp
p2135
atp2136
a(L2035507904L
L0L
(lp2137
(lp2138
tp2139
a(L3020187L
L0L
(lp2140
(lp2141
tp2142
a(L106L
L0L
(lp2143
(lp2144
tp2145
a(L3137092968L
L0L
(lp2146
(lp2147
tp2148
a(L3020187L
L0L
(lp2149
(lp2150
tp2151
a(L106L
L0L
(lp2152
(lp2153
tp2154
a(L735059833L
L0L
(lp2155
(lp2156
tp2157
a(L455830292L
L0L
(lp2158
(lp2159
tp2160
a(L2610008785L
L0L
(lp2161
(lp2162
tp2163
a(L4179852089L
L0L
(lp2164
(lp2165
tp2166
a(L3145047165L
L0L
(lp2167
(lp2168
tp2169
a(L2550828394L
L0L
(lp2170
(lp2171
tp2172
a(L4126803969L
L0L
(lp2173
(lp2174
tp2175
a(L871720679L
L0L
(lp2176
(lp2177
tp2178
a(L211061095L
L3785322319L
(lp2179
(lp2180
Vbootloader_munmap
p2181
atp2182
a(L3360570486L
L0L
(lp2183
(lp2184
tp2185
atp2186
sI1074247056
(Vrtc_clk_xtal_freq_get
p2187
(lp2188
(L2309361531L
L0L
(lp2189
(lp2190
tp2191
a(L4143442356L
L0L
(lp2192
(lp2193
tp2194
a(L1305407438L
L0L
(lp2195
(lp2196
tp2197
a(L1305407438L
L0L
(lp2198
(lp2199
tp2200
a(L2258867229L
L0L
(lp2201
(lp2202
tp2203
a(L2902417580L
L0L
(lp2204
(lp2205
tp2206
a(L2453147366L
L0L
(lp2207
(lp2208
tp2209
a(L2258688482L
L0L
(lp2210
(lp2211
tp2212
a(L3360570486L
L0L
(lp2213
(lp2214
tp2215
atp2216
sI1074237596
(Vbootloader_mmap
p2217
(lp2218
(L3745313687L
L0L
(lp2219
(lp2220
tp2221
a(L641168392L
L3785322319L
(lp2222
(lp2223
Vesp_log_early_timestamp
p2224
atp2225
a(L151836923L
L0L
(lp2226
(lp2227
tp2228
a(L4071240823L
L3785322319L
(lp2229
(lp2230
Vesp_log_early_timestamp
p2231
atp2232
a(L3439782442L
L0L
(lp2233
(lp2234
tp2235
a(L3257954243L
L3785322319L
(lp2236
(lp2237
Vesp_log_early_timestamp
p2238
atp2239
a(L4262572309L
L0L
(lp2240
(lp2241
tp2242
a(L3360570486L
L0L
(lp2243
(lp2244
tp2245
atp2246
sI1074236572
(Vesp_cpu_in_ocd_debug_mode
p2247
(lp2248
(L881579880L
L0L
(lp2249
(lp2250
tp2251
atp2252
sI1074244508
(Vesp_rom_spiflash_write_encrypted
p2253
(lp2254
(L2711657322L
L0L
(lp2255
(lp2256
tp2257
a(L2663131359L
L0L
(lp2258
(lp2259
tp2260
a(L1094668045L
L0L
(lp2261
(lp2262
tp2263
a(L2182869341L
L0L
(lp2264
(lp2265
tp2266
a(L4068652995L
L3785322319L
(lp2267
(lp2268
Vesp_rom_spiflash_write
p2269
atp2270
a(L1856606745L
L0L
(lp2271
(lp2272
tp2273
a(L2924646260L
L0L
(lp2274
(lp2275
tp2276
a(L927957862L
L0L
(lp2277
(lp2278
tp2279
a(L1299866343L
L0L
(lp2280
(lp2281
tp2282
a(L2258688483L
L0L
(lp2283
(lp2284
tp2285
a(L3360570486L
L0L
(lp2286
(lp2287
tp2288
atp2289
sI1074247580
(Vrtc_clk_cpu_freq_to_pll_mhz
p2290
(lp2291
(L3639301015L
L0L
(lp2292
(lp2293
tp2294
a(L1541996779L
L0L
(lp2295
(lp2296
tp2297
a(L1546614651L
L0L
(lp2298
(lp2299
tp2300
a(L2245131903L
L0L
(lp2301
(lp2302
tp2303
a(L469148983L
L1880226080L
(lp2304
(lp2305
Vesp_log_early_timestamp
p2306
aVabort
p2307
atp2308
a(L3546033543L
L0L
(lp2309
(lp2310
tp2311
a(L3307832802L
L0L
(lp2312
(lp2313
tp2314
a(L3454972215L
L1880226080L
(lp2315
(lp2316
Vrtc_clk_apb_freq_update
p2317
aVrtc_clk_wait_for_slow_cycle
p2318
atp2319
atp2320
sI1074235288
(Vbootloader_flash_dummy_config
p2321
(lp2322
(L3640861900L
L0L
(lp2323
(lp2324
tp2325
a(L3017366L
L0L
(lp2326
(lp2327
tp2328
a(L3016870L
L0L
(lp2329
(lp2330
tp2331
a(L2359764484L
L0L
(lp2332
(lp2333
tp2334
a(L2568071894L
L0L
(lp2335
(lp2336
tp2337
a(L1612290447L
L0L
(lp2338
(lp2339
tp2340
a(L1612290447L
L0L
(lp2341
(lp2342
tp2343
a(L1612290540L
L0L
(lp2344
(lp2345
tp2346
a(L1298935362L
L0L
(lp2347
(lp2348
tp2349
a(L2962820102L
L0L
(lp2350
(lp2351
tp2352
a(L608600031L
L0L
(lp2353
(lp2354
tp2355
a(L106L
L0L
(lp2356
(lp2357
tp2358
a(L2336993863L
L0L
(lp2359
(lp2360
tp2361
a(L4137832380L
L0L
(lp2362
(lp2363
tp2364
a(L1880921373L
L0L
(lp2365
(lp2366
tp2367
a(L1373344620L
L0L
(lp2368
(lp2369
tp2370
a(L905084611L
L0L
(lp2371
(lp2372
tp2373
atp2374
sI1074240664
(Vcheck_anti_rollback
p2375
(lp2376
(L786711473L
L0L
(lp2377
(lp2378
tp2379
atp2380
sI1074245272
(Vrtc_wdt_protect_off
p2381
(lp2382
(L56072656L
L0L
(lp2383
(lp2384
tp2385
atp2386
sI1074237348
(Vspi_to_esp_err
p2387
(lp2388
(L4037458691L
L0L
(lp2389
(lp2390
tp2391
a(L2902417580L
L0L
(lp2392
(lp2393
tp2394
a(L3020187L
L0L
(lp2395
(lp2396
tp2397
a(L1641201884L
L0L
(lp2398
(lp2399
tp2400
a(L310010595L
L0L
(lp2401
(lp2402
tp2403
a(L1299866312L
L0L
(lp2404
(lp2405
tp2406
a(L702737003L
L0L
(lp2407
(lp2408
tp2409
a(L3360570486L
L0L
(lp2410
(lp2411
tp2412
atp2413
sI1074241956
(Vshould_load
p2414
(lp2415
(L1612065641L
L3785322319L
(lp2416
(lp2417
Vshould_map
p2418
atp2419
a(L1121477954L
L0L
(lp2420
(lp2421
tp2422
a(L3028464L
L0L
(lp2423
(lp2424
tp2425
a(L3419164730L
L0L
(lp2426
(lp2427
tp2428
a(L672584960L
L0L
(lp2429
(lp2430
tp2431
a(L3696812972L
L0L
(lp2432
(lp2433
tp2434
a(L1610443436L
L0L
(lp2435
(lp2436
tp2437
a(L1610443405L
L0L
(lp2438
(lp2439
tp2440
a(L1298875774L
L0L
(lp2441
(lp2442
tp2443
a(L735741265L
L0L
(lp2444
(lp2445
tp2446
atp2447
sI1074268076
(Vuart_console_configure
p2448
(lp2449
(L1288160468L
L0L
(lp2450
(lp2451
tp2452
a(L757419054L
L0L
(lp2453
(lp2454
tp2455
a(L1150827932L
L3785322319L
(lp2456
(lp2457
Vrtc_clk_apb_freq_get
p2458
atp2459
atp2460
sI1074240672
(Vbootloader_sha256_hex_to_str
p2461
(lp2462
(L801955396L
L0L
(lp2463
(lp2464
tp2465
a(L97422L
L0L
(lp2466
(lp2467
tp2468
a(L106L
L0L
(lp2469
(lp2470
tp2471
a(L201281358L
L0L
(lp2472
(lp2473
tp2474
a(L1611366926L
L0L
(lp2475
(lp2476
tp2477
a(L1298905568L
L0L
(lp2478
(lp2479
tp2480
a(L1295154486L
L0L
(lp2481
(lp2482
tp2483
a(L435009006L
L0L
(lp2484
(lp2485
tp2486
a(L3378846871L
L0L
(lp2487
(lp2488
tp2489
a(L978975865L
L0L
(lp2490
(lp2491
tp2492
a(L2258897019L
L0L
(lp2493
(lp2494
tp2495
a(L3027007L
L0L
(lp2496
(lp2497
tp2498
a(L4126803969L
L0L
(lp2499
(lp2500
tp2501
a(L448827677L
L0L
(lp2502
(lp2503
tp2504
a(L1299866312L
L0L
(lp2505
(lp2506
tp2507
a(L1235012901L
L0L
(lp2508
(lp2509
tp2510
a(L2810785765L
L0L
(lp2511
(lp2512
tp2513
a(L3360570486L
L0L
(lp2514
(lp2515
tp2516
atp2517
sI1074236588
(Vis_xmc_chip_strict
p2518
(lp2519
(L3238746245L
L0L
(lp2520
(lp2521
tp2522
a(L3028464L
L0L
(lp2523
(lp2524
tp2525
a(L1879955864L
L0L
(lp2526
(lp2527
tp2528
a(L1299866312L
L0L
(lp2529
(lp2530
tp2531
a(L209024199L
L0L
(lp2532
(lp2533
tp2534
a(L4093075049L
L0L
(lp2535
(lp2536
tp2537
a(L1299866312L
L0L
(lp2538
(lp2539
tp2540
a(L209917929L
L0L
(lp2541
(lp2542
tp2543
a(L245016591L
L0L
(lp2544
(lp2545
tp2546
a(L1299866312L
L0L
(lp2547
(lp2548
tp2549
a(L1299866312L
L0L
(lp2550
(lp2551
tp2552
a(L1299866343L
L0L
(lp2553
(lp2554
tp2555
a(L1299866343L
L0L
(lp2556
(lp2557
tp2558
a(L1299866312L
L0L
(lp2559
(lp2560
tp2561
a(L2258688483L
L0L
(lp2562
(lp2563
tp2564
a(L3360570486L
L0L
(lp2565
(lp2566
tp2567
atp2568
sI1074236072
(Vbootloader_flash_read_sfdp
p2569
(lp2570
(L1494883415L
L0L
(lp2571
(lp2572
tp2573
a(L1071917914L
L3785322319L
(lp2574
(lp2575
V__assert_func
p2576
atp2577
a(L486614504L
L3785322319L
(lp2578
(lp2579
Vbootloader_flash_execute_command_common
p2580
atp2581
atp2582
sI1074237096
(Vbootloader_common_check_chip_validity
p2583
(lp2584
(L2649880599L
L0L
(lp2585
(lp2586
tp2587
a(L147510327L
L3785322319L
(lp2588
(lp2589
Vesp_log_early_timestamp
p2590
atp2591
a(L1182841601L
L0L
(lp2592
(lp2593
tp2594
a(L2344894839L
L3785322319L
(lp2595
(lp2596
Vbootloader_common_get_chip_revision
p2597
atp2598
a(L797368430L
L3785322319L
(lp2599
(lp2600
Vesp_log_early_timestamp
p2601
atp2602
a(L2983970029L
L0L
(lp2603
(lp2604
tp2605
atp2606
sI1074245288
(Vrtc_wdt_protect_on
p2607
(lp2608
(L3703133414L
L0L
(lp2609
(lp2610
tp2611
atp2612
sI1074269880
(Vrtc_vddsdio_set_config
p2613
(lp2614
(L3011329958L
L0L
(lp2615
(lp2616
tp2617
atp2618
sI1074246068
(Vrtc_clk_bbpll_enable
p2619
(lp2620
(L2193234762L
L0L
(lp2621
(lp2622
tp2623
atp2624
sI1074246580
(Vrtc_clk_fast_freq_set
p2625
(lp2626
(L1742789764L
L0L
(lp2627
(lp2628
tp2629
atp2630
sI1074239152
(Vread_otadata
p2631
(lp2632
(L3233392553L
L0L
(lp2633
(lp2634
tp2635
a(L1400406709L
L0L
(lp2636
(lp2637
tp2638
a(L3881708645L
L3785322319L
(lp2639
(lp2640
Vesp_log_early_timestamp
p2641
atp2642
a(L566230772L
L3785322319L
(lp2643
(lp2644
Vbootloader_mmap
p2645
atp2646
a(L1546945193L
L3785322319L
(lp2647
(lp2648
Vesp_log_early_timestamp
p2649
atp2650
a(L1703865888L
L3785322319L
(lp2651
(lp2652
Vbootloader_munmap
p2653
atp2654
a(L2810785768L
L0L
(lp2655
(lp2656
tp2657
a(L3360570486L
L0L
(lp2658
(lp2659
tp2660
atp2661
sI1074236860
(Vbootloader_common_ota_select_crc
p2662
(lp2663
(L1467561936L
L0L
(lp2664
(lp2665
tp2666
atp2667
sI1074238140
(Vbootloader_flash_erase_sector
p2668
(lp2669
(L4129137686L
L1880226080L
(lp2670
(lp2671
Vesp_rom_spiflash_erase_sector
p2672
aVspi_to_esp_err
p2673
atp2674
atp2675
sI1074241212
(Vshould_map
p2676
(lp2677
(L3821367504L
L0L
(lp2678
(lp2679
tp2680
a(L1182990556L
L0L
(lp2681
(lp2682
tp2683
a(L881182341L
L0L
(lp2684
(lp2685
tp2686
a(L1182990556L
L0L
(lp2687
(lp2688
tp2689
a(L1296420068L
L0L
(lp2690
(lp2691
tp2692
atp2693
sI1074245304
(Vrtc_wdt_enable
p2694
(lp2695
(L518631516L
L0L
(lp2696
(lp2697
tp2698
atp2699
sI1074268616
(V__assert_func
p2700
(lp2701
(L2696072144L
L3785322319L
(lp2702
(lp2703
Vesp_log_early_timestamp
p2704
atp2705
a(L106L
L0L
(lp2706
(lp2707
tp2708
atp2709
sI1074244288
(Vesp_rom_spiflash_write
p2710
(lp2711
(L3901438993L
L0L
(lp2712
(lp2713
tp2714
a(L106L
L0L
(lp2715
(lp2716
tp2717
a(L1532298144L
L0L
(lp2718
(lp2719
tp2720
a(L3864146004L
L3785322319L
(lp2721
(lp2722
Vesp_rom_spiflash_program_page_internal
p2723
atp2724
a(L106L
L0L
(lp2725
(lp2726
tp2727
a(L90178256L
L3785322319L
(lp2728
(lp2729
Vesp_rom_spiflash_program_page_internal
p2730
atp2731
a(L1672331730L
L0L
(lp2732
(lp2733
tp2734
a(L354242329L
L3785322319L
(lp2735
(lp2736
Vesp_rom_spiflash_program_page_internal
p2737
atp2738
a(L850197805L
L0L
(lp2739
(lp2740
tp2741
a(L4159629294L
L0L
(lp2742
(lp2743
tp2744
a(L718584025L
L3785322319L
(lp2745
(lp2746
Vesp_rom_spiflash_program_page_internal
p2747
atp2748
a(L106L
L0L
(lp2749
(lp2750
tp2751
a(L1299866343L
L0L
(lp2752
(lp2753
tp2754
a(L1299866343L
L0L
(lp2755
(lp2756
tp2757
a(L1299866343L
L0L
(lp2758
(lp2759
tp2760
a(L1299866343L
L0L
(lp2761
(lp2762
tp2763
a(L1182811811L
L0L
(lp2764
(lp2765
tp2766
a(L3360570486L
L0L
(lp2767
(lp2768
tp2769
atp2770
sI1074239692
(Vunpack_load_app
p2771
(lp2772
(L1842422795L
L0L
(lp2773
(lp2774
tp2775
a(L352964409L
L0L
(lp2776
(lp2777
tp2778
a(L2902417580L
L0L
(lp2779
(lp2780
tp2781
a(L709054831L
L3785322319L
(lp2782
(lp2783
Vesp_log_early_timestamp
p2784
atp2785
a(L119201706L
L0L
(lp2786
(lp2787
tp2788
a(L316236377L
L0L
(lp2789
(lp2790
tp2791
a(L2902417580L
L0L
(lp2792
(lp2793
tp2794
a(L462741744L
L3785322319L
(lp2795
(lp2796
Vesp_log_early_timestamp
p2797
atp2798
a(L2669168141L
L0L
(lp2799
(lp2800
tp2801
a(L1799288861L
L0L
(lp2802
(lp2803
tp2804
a(L350965691L
L0L
(lp2805
(lp2806
tp2807
a(L106L
L0L
(lp2808
(lp2809
tp2810
a(L1717315991L
L3785322319L
(lp2811
(lp2812
Vset_cache_and_start_app
p2813
atp2814
atp2815
sI1074247372
(Vrtc_clk_xtal_freq_update
p2816
(lp2817
(L2607743147L
L0L
(lp2818
(lp2819
tp2820
a(L3509357017L
L0L
(lp2821
(lp2822
tp2823
a(L1494398344L
L0L
(lp2824
(lp2825
tp2826
atp2827
sI1074267844
(Vwdt_reset_info_dump
p2828
(lp2829
(L1642351636L
L0L
(lp2830
(lp2831
tp2832
a(L460424631L
L0L
(lp2833
(lp2834
tp2835
a(L3201441063L
L0L
(lp2836
(lp2837
tp2838
a(L3028481L
L0L
(lp2839
(lp2840
tp2841
a(L4108682322L
L0L
(lp2842
(lp2843
tp2844
a(L2331507652L
L0L
(lp2845
(lp2846
tp2847
a(L2307613036L
L0L
(lp2848
(lp2849
tp2850
a(L1550379252L
L0L
(lp2851
(lp2852
tp2853
a(L1298205180L
L3785322319L
(lp2854
(lp2855
Vesp_log_early_timestamp
p2856
atp2857
a(L3358054642L
L3785322319L
(lp2858
(lp2859
Vesp_log_early_timestamp
p2860
atp2861
a(L3360570486L
L0L
(lp2862
(lp2863
tp2864
atp2865
sI1074239432
(Vtry_load_partition
p2866
(lp2867
(L3877261386L
L0L
(lp2868
(lp2869
tp2870
a(L3490818570L
L3785322319L
(lp2871
(lp2872
Vbootloader_load_image
p2873
atp2874
a(L1299866312L
L0L
(lp2875
(lp2876
tp2877
a(L1299866312L
L0L
(lp2878
(lp2879
tp2880
a(L2258688483L
L0L
(lp2881
(lp2882
tp2883
a(L3360570486L
L0L
(lp2884
(lp2885
tp2886
atp2887
sI1074237384
(Vbootloader_flash_read_allow_decrypt
p2888
(lp2889
(L3384426294L
L0L
(lp2890
(lp2891
tp2892
a(L3652703414L
L0L
(lp2893
(lp2894
tp2895
a(L2733922457L
L0L
(lp2896
(lp2897
tp2898
a(L1775282757L
L3785322319L
(lp2899
(lp2900
Vesp_log_early_timestamp
p2901
atp2902
a(L3956208671L
L0L
(lp2903
(lp2904
tp2905
a(L4221421214L
L0L
(lp2906
(lp2907
tp2908
a(L2538932552L
L0L
(lp2909
(lp2910
tp2911
a(L106L
L0L
(lp2912
(lp2913
tp2914
a(L2258688482L
L0L
(lp2915
(lp2916
tp2917
a(L3360570486L
L0L
(lp2918
(lp2919
tp2920
atp2921
sI1074247112
(Vrtc_clk_cpu_freq_mhz_to_config
p2922
(lp2923
(L2601984125L
L3785322319L
(lp2924
(lp2925
Vrtc_clk_xtal_freq_get
p2926
atp2927
a(L2647093801L
L0L
(lp2928
(lp2929
tp2930
a(L3263839434L
L0L
(lp2931
(lp2932
tp2933
a(L2762074623L
L0L
(lp2934
(lp2935
tp2936
a(L1541996779L
L0L
(lp2937
(lp2938
tp2939
a(L1546614651L
L0L
(lp2940
(lp2941
tp2942
a(L1555485793L
L0L
(lp2943
(lp2944
tp2945
a(L1695987314L
L0L
(lp2946
(lp2947
tp2948
a(L3652406074L
L0L
(lp2949
(lp2950
tp2951
a(L1139084306L
L0L
(lp2952
(lp2953
tp2954
a(L1299866312L
L0L
(lp2955
(lp2956
tp2957
a(L2258688482L
L0L
(lp2958
(lp2959
tp2960
a(L3360570486L
L0L
(lp2961
(lp2962
tp2963
atp2964
sI1074234580
(Vbootloader_init_flash_configure
p2965
(lp2966
(L2326466312L
L1832448559L
(lp2967
(lp2968
Vbootloader_flash_gpio_config
p2969
aVbootloader_flash_dummy_config
p2970
aVbootloader_flash_cs_timing_config
p2971
atp2972
atp2973
sI1074243540
(Vesp_rom_spiflash_wait_idle
p2974
(lp2975
(L287326052L
L0L
(lp2976
(lp2977
tp2978
a(L3144266045L
L0L
(lp2979
(lp2980
tp2981
a(L30533288L
L0L
(lp2982
(lp2983
tp2984
a(L855829385L
L3785322319L
(lp2985
(lp2986
Vesp_rom_spiflash_read_status
p2987
atp2988
a(L1298875774L
L0L
(lp2989
(lp2990
tp2991
a(L735741265L
L0L
(lp2992
(lp2993
tp2994
atp2995
sI1074236880
(Vbootloader_common_ota_select_valid
p2996
(lp2997
(L1731214134L
L3785322319L
(lp2998
(lp2999
Vbootloader_common_ota_select_invalid
p3000
atp3001
a(L668323607L
L3785322319L
(lp3002
(lp3003
Vbootloader_common_ota_select_crc
p3004
atp3005
a(L1299866343L
L0L
(lp3006
(lp3007
tp3008
a(L1299866312L
L0L
(lp3009
(lp3010
tp3011
a(L2258688482L
L0L
(lp3012
(lp3013
tp3014
a(L3360570486L
L0L
(lp3015
(lp3016
tp3017
atp3018
sI1074238160
(Vbootloader_mmap_get_free_pages
p3019
(lp3020
(L1496516875L
L0L
(lp3021
(lp3022
tp3023
atp3024
sI1074240988
(Vbootloader_sha256_finish
p3025
(lp3026
(L4066096136L
L0L
(lp3027
(lp3028
tp3029
a(L334490508L
L3785322319L
(lp3030
(lp3031
V__assert_func
p3032
atp3033
a(L3020204L
L0L
(lp3034
(lp3035
tp3036
a(L1325023004L
L0L
(lp3037
(lp3038
tp3039
a(L2534656226L
L0L
(lp3040
(lp3041
tp3042
a(L321015369L
L0L
(lp3043
(lp3044
tp3045
a(L2417263684L
L3785322319L
(lp3046
(lp3047
V__assert_func
p3048
atp3049
a(L1538255535L
L3785322319L
(lp3050
(lp3051
Vbootloader_sha256_data
p3052
atp3053
a(L1370066991L
L3785322319L
(lp3054
(lp3055
V__assert_func
p3056
atp3057
a(L443868286L
L3785322319L
(lp3058
(lp3059
Vbootloader_sha256_data
p3060
atp3061
a(L1921698056L
L3785322319L
(lp3062
(lp3063
V__assert_func
p3064
atp3065
a(L1827324985L
L0L
(lp3066
(lp3067
tp3068
a(L402923840L
L0L
(lp3069
(lp3070
tp3071
a(L1827324985L
L0L
(lp3072
(lp3073
tp3074
a(L1301713354L
L0L
(lp3075
(lp3076
tp3077
a(L2644911812L
L0L
(lp3078
(lp3079
tp3080
a(L93837694L
L0L
(lp3081
(lp3082
tp3083
a(L3347778L
L0L
(lp3084
(lp3085
tp3086
a(L3360570486L
L0L
(lp3087
(lp3088
tp3089
atp3090
sI1074236124
(Vbootloader_flash_xmc_startup
p3091
(lp3092
(L907480987L
L3785322319L
(lp3093
(lp3094
Vis_xmc_chip_strict
p3095
atp3096
a(L251913992L
L3785322319L
(lp3097
(lp3098
Vbootloader_flash_read_sfdp
p3099
atp3100
a(L2214543080L
L267944800L
(lp3101
(lp3102
Vexecute_flash_command
p3103
aVexecute_flash_command
p3104
aVexecute_flash_command
p3105
aVexecute_flash_command
p3106
aVbootloader_read_flash_id
p3107
aVis_xmc_chip_strict
p3108
atp3109
a(L1391924622L
L3785322319L
(lp3110
(lp3111
Vesp_log_early_timestamp
p3112
atp3113
a(L1299866312L
L0L
(lp3114
(lp3115
tp3116
a(L1299866312L
L0L
(lp3117
(lp3118
tp3119
a(L2258688482L
L0L
(lp3120
(lp3121
tp3122
a(L3360570486L
L0L
(lp3123
(lp3124
tp3125
atp3126
sI1074270420
(Vrtc_clk_cal_ratio
p3127
(lp3128
(L2303398318L
L3785322319L
(lp3129
(lp3130
Vrtc_clk_cal_internal
p3131
atp3132
atp3133
sI1074238168
(Vbootloader_fill_random
p3134
(lp3135
(L4037466985L
L0L
(lp3136
(lp3137
tp3138
a(L2169578498L
L3785322319L
(lp3139
(lp3140
V__assert_func
p3141
atp3142
a(L3020204L
L0L
(lp3143
(lp3144
tp3145
a(L607245337L
L0L
(lp3146
(lp3147
tp3148
a(L3372311848L
L0L
(lp3149
(lp3150
tp3151
a(L961522393L
L0L
(lp3152
(lp3153
tp3154
a(L2435735273L
L0L
(lp3155
(lp3156
tp3157
a(L1298875773L
L0L
(lp3158
(lp3159
tp3160
a(L448827677L
L0L
(lp3161
(lp3162
tp3163
a(L3360570486L
L0L
(lp3164
(lp3165
tp3166
atp3167
sI1074268648
(Vbootloader_init
p3168
(lp3169
(L911155242L
L0L
(lp3170
(lp3171
tp3172
a(L581302695L
L0L
(lp3173
(lp3174
tp3175
a(L93837694L
L0L
(lp3176
(lp3177
tp3178
a(L2105311962L
L0L
(lp3179
(lp3180
tp3181
a(L4181561856L
L3785322319L
(lp3182
(lp3183
V__assert_func
p3184
atp3185
a(L2407599784L
L0L
(lp3186
(lp3187
tp3188
a(L299381692L
L3785322319L
(lp3189
(lp3190
V__assert_func
p3191
atp3192
a(L3094774488L
L0L
(lp3193
(lp3194
tp3195
a(L1781941249L
L3785322319L
(lp3196
(lp3197
V__assert_func
p3198
atp3199
a(L3163115042L
L0L
(lp3200
(lp3201
tp3202
a(L214293677L
L3785322319L
(lp3203
(lp3204
V__assert_func
p3205
atp3206
a(L1027390241L
L3785322319L
(lp3207
(lp3208
Vbootloader_main
p3209
atp3210
a(L1299867982L
L0L
(lp3211
(lp3212
tp3213
a(L3360570486L
L0L
(lp3214
(lp3215
tp3216
atp3217
sI1074245348
(Vrtc_wdt_set_time
p3218
(lp3219
(L607216364L
L0L
(lp3220
(lp3221
tp3222
a(L2711115388L
L3785322319L
(lp3223
(lp3224
Vrtc_clk_slow_freq_get_hz
p3225
atp3226
a(L2653493451L
L0L
(lp3227
(lp3228
tp3229
a(L3028464L
L0L
(lp3230
(lp3231
tp3232
a(L74860214L
L0L
(lp3233
(lp3234
tp3235
a(L3028464L
L0L
(lp3236
(lp3237
tp3238
a(L1648796066L
L0L
(lp3239
(lp3240
tp3241
a(L3051995814L
L0L
(lp3242
(lp3243
tp3244
a(L2810785765L
L0L
(lp3245
(lp3246
tp3247
a(L3360570486L
L0L
(lp3248
(lp3249
tp3250
atp3251
sI1074268396
(Vbootloader_main
p3252
(lp3253
(L3235304391L
L1832448559L
(lp3254
(lp3255
Vbootloader_common_vddsdio_configure
p3256
aVbootloader_read_flash_id
p3257
aVbootloader_flash_xmc_startup
p3258
atp3259
a(L317381572L
L3785322319L
(lp3260
(lp3261
Vesp_log_early_timestamp
p3262
atp3263
a(L1348540544L
L3785322319L
(lp3264
(lp3265
Vbootloader_flash_read
p3266
atp3267
a(L4261049432L
L3785322319L
(lp3268
(lp3269
Vesp_log_early_timestamp
p3270
atp3271
a(L4062338276L
L1880226080L
(lp3272
(lp3273
Vbootloader_common_get_chip_revision
p3274
aVbootloader_common_check_chip_validity
p3275
atp3276
a(L2246559042L
L3810175232L
(lp3277
(lp3278
Vbootloader_init_flash_configure
p3279
aVbootloader_clock_configure
p3280
aVuart_console_configure
p3281
aVwdt_reset_check
p3282
aVrtc_wdt_protect_off
p3283
aVrtc_wdt_disable
p3284
aVrtc_wdt_set_length_of_reset_signal
p3285
aVrtc_wdt_set_length_of_reset_signal
p3286
aVrtc_wdt_set_stage
p3287
aVrtc_wdt_set_time
p3288
aVrtc_wdt_enable
p3289
aVrtc_wdt_protect_on
p3290
aVbootloader_flash_unlock
p3291
aVbootloader_random_enable
p3292
aVprint_flash_info
p3293
aVupdate_flash_config
p3294
atp3295
a(L1299867982L
L0L
(lp3296
(lp3297
tp3298
a(L3360570486L
L0L
(lp3299
(lp3300
tp3301
atp3302
sI1074246624
(Vrtc_clk_fast_freq_get
p3303
(lp3304
(L2395108639L
L0L
(lp3305
(lp3306
tp3307
atp3308
sI1074269664
(Vrtc_vddsdio_get_config
p3309
(lp3310
(L554826411L
L0L
(lp3311
(lp3312
tp3313
a(L236607965L
L0L
(lp3314
(lp3315
tp3316
a(L4277772118L
L0L
(lp3317
(lp3318
tp3319
a(L3326459366L
L0L
(lp3320
(lp3321
tp3322
a(L1126075573L
L0L
(lp3323
(lp3324
tp3325
a(L3803836966L
L0L
(lp3326
(lp3327
tp3328
a(L3360570486L
L0L
(lp3329
(lp3330
tp3331
atp3332
sI1074239468
(Vset_cache_and_start_app
p3333
(lp3334
(L1192145338L
L0L
(lp3335
(lp3336
tp3337
a(L2024171526L
L0L
(lp3338
(lp3339
tp3340
a(L1548223148L
L0L
(lp3341
(lp3342
tp3343
a(L3579515360L
L0L
(lp3344
(lp3345
tp3346
atp3347
sI1074241260
(Vverify_segment_header
p3348
(lp3349
(L3674778058L
L0L
(lp3350
(lp3351
tp3352
a(L3795436786L
L0L
(lp3353
(lp3354
tp3355
a(L3028481L
L0L
(lp3356
(lp3357
tp3358
a(L2736810708L
L3785322319L
(lp3359
(lp3360
Vesp_log_early_timestamp
p3361
atp3362
a(L310088560L
L0L
(lp3363
(lp3364
tp3365
a(L536784482L
L3785322319L
(lp3366
(lp3367
Vshould_map
p3368
atp3369
a(L3496178735L
L0L
(lp3370
(lp3371
tp3372
a(L2910371777L
L0L
(lp3373
(lp3374
tp3375
a(L744368655L
L3785322319L
(lp3376
(lp3377
Vesp_log_early_timestamp
p3378
atp3379
a(L310088560L
L0L
(lp3380
(lp3381
tp3382
a(L1299866312L
L0L
(lp3383
(lp3384
tp3385
a(L2258688482L
L0L
(lp3386
(lp3387
tp3388
a(L3360570486L
L0L
(lp3389
(lp3390
tp3391
atp3392
sI1074245868
(Vrtc_clk_32k_enable_common
p3393
(lp3394
(L516053452L
L0L
(lp3395
(lp3396
tp3397
atp3398
sI1074268132
(Vwdt_reset_check
p3399
(lp3400
(L1474067986L
L0L
(lp3401
(lp3402
tp3403
a(L3020187L
L0L
(lp3404
(lp3405
tp3406
a(L367582592L
L0L
(lp3407
(lp3408
tp3409
a(L367642441L
L0L
(lp3410
(lp3411
tp3412
a(L3265954431L
L3785322319L
(lp3413
(lp3414
Vesp_log_early_timestamp
p3415
atp3416
a(L1298905564L
L0L
(lp3417
(lp3418
tp3419
a(L2986794716L
L0L
(lp3420
(lp3421
tp3422
a(L3020187L
L0L
(lp3423
(lp3424
tp3425
a(L225031483L
L0L
(lp3426
(lp3427
tp3428
a(L225091332L
L0L
(lp3429
(lp3430
tp3431
a(L3614811960L
L3785322319L
(lp3432
(lp3433
Vesp_log_early_timestamp
p3434
atp3435
a(L3020204L
L0L
(lp3436
(lp3437
tp3438
a(L1944713791L
L1880226080L
(lp3439
(lp3440
Vwdt_reset_info_dump
p3441
aVwdt_reset_info_dump
p3442
atp3443
a(L3738038928L
L3785322319L
(lp3444
(lp3445
Vwdt_reset_cpu0_info_enable
p3446
atp3447
atp3448
sI1074241512
(Vverify_image_header
p3449
(lp3450
(L171376062L
L0L
(lp3451
(lp3452
tp3453
a(L3028481L
L0L
(lp3454
(lp3455
tp3456
a(L2095304246L
L3785322319L
(lp3457
(lp3458
Vesp_log_early_timestamp
p3459
atp3460
a(L1299866312L
L0L
(lp3461
(lp3462
tp3463
a(L702739514L
L0L
(lp3464
(lp3465
tp3466
a(L3615160363L
L3785322319L
(lp3467
(lp3468
Vbootloader_common_check_chip_validity
p3469
atp3470
a(L702739514L
L0L
(lp3471
(lp3472
tp3473
a(L3028481L
L0L
(lp3474
(lp3475
tp3476
a(L3270243289L
L0L
(lp3477
(lp3478
tp3479
a(L1331730449L
L3785322319L
(lp3480
(lp3481
Vesp_log_early_timestamp
p3482
atp3483
a(L3355980489L
L0L
(lp3484
(lp3485
tp3486
a(L2436289937L
L3785322319L
(lp3487
(lp3488
Vesp_log_early_timestamp
p3489
atp3490
a(L3360570486L
L0L
(lp3491
(lp3492
tp3493
atp3494
sI1074234600
(Vbootloader_flash_cs_timing_config
p3495
(lp3496
(L227725170L
L0L
(lp3497
(lp3498
tp3499
atp3500
sI1074242032
(Vprocess_segment
p3501
(lp3502
(L185039260L
L3785322319L
(lp3503
(lp3504
Vbootloader_flash_read
p3505
atp3506
a(L2591823502L
L3785322319L
(lp3507
(lp3508
Vesp_log_early_timestamp
p3509
atp3510
a(L190788284L
L0L
(lp3511
(lp3512
tp3513
a(L2241831349L
L3785322319L
(lp3514
(lp3515
Vbootloader_sha256_data
p3516
atp3517
a(L3774987724L
L3785322319L
(lp3518
(lp3519
Vverify_segment_header
p3520
atp3521
a(L3228125772L
L0L
(lp3522
(lp3523
tp3524
a(L2910371777L
L0L
(lp3525
(lp3526
tp3527
a(L372149700L
L3785322319L
(lp3528
(lp3529
Vesp_log_early_timestamp
p3530
atp3531
a(L1692137841L
L0L
(lp3532
(lp3533
tp3534
a(L3020204L
L0L
(lp3535
(lp3536
tp3537
a(L1704490810L
L3785322319L
(lp3538
(lp3539
Vshould_load
p3540
atp3541
a(L1301713385L
L0L
(lp3542
(lp3543
tp3544
a(L121346786L
L0L
(lp3545
(lp3546
tp3547
a(L3190503048L
L0L
(lp3548
(lp3549
tp3550
a(L3017366L
L0L
(lp3551
(lp3552
tp3553
a(L106L
L0L
(lp3554
(lp3555
tp3556
a(L677944598L
L0L
(lp3557
(lp3558
tp3559
a(L2144852652L
L0L
(lp3560
(lp3561
tp3562
a(L106L
L0L
(lp3563
(lp3564
tp3565
a(L2641954449L
L3785322319L
(lp3566
(lp3567
Vesp_log_early_timestamp
p3568
atp3569
a(L4259590412L
L0L
(lp3570
(lp3571
tp3572
a(L1382519934L
L3785322319L
(lp3573
(lp3574
V__assert_func
p3575
atp3576
a(L3962778229L
L0L
(lp3577
(lp3578
tp3579
a(L2554561638L
L3785322319L
(lp3580
(lp3581
V__assert_func
p3582
atp3583
a(L240782022L
L0L
(lp3584
(lp3585
tp3586
a(L1182990556L
L0L
(lp3587
(lp3588
tp3589
a(L1848859538L
L0L
(lp3590
(lp3591
tp3592
a(L2258867228L
L0L
(lp3593
(lp3594
tp3595
a(L2816536719L
L0L
(lp3596
(lp3597
tp3598
a(L3449852671L
L3785322319L
(lp3599
(lp3600
Vesp_log_early_timestamp
p3601
atp3602
a(L1472062545L
L3785322319L
(lp3603
(lp3604
Vbootloader_mmap_get_free_pages
p3605
atp3606
a(L1645103386L
L3785322319L
(lp3607
(lp3608
Vprocess_segment_data
p3609
atp3610
a(L1626325607L
L0L
(lp3611
(lp3612
tp3613
a(L3021737L
L0L
(lp3614
(lp3615
tp3616
a(L106L
L0L
(lp3617
(lp3618
tp3619
a(L1985849760L
L0L
(lp3620
(lp3621
tp3622
a(L3355598844L
L0L
(lp3623
(lp3624
tp3625
atp3626
sI1074246640
(Vrtc_clk_bbpll_configure
p3627
(lp3628
(L4270275352L
L0L
(lp3629
(lp3630
tp3631
a(L106L
L0L
(lp3632
(lp3633
tp3634
a(L678328555L
L0L
(lp3635
(lp3636
tp3637
a(L83268344L
L0L
(lp3638
(lp3639
tp3640
a(L82344823L
L0L
(lp3641
(lp3642
tp3643
a(L3716763792L
L0L
(lp3644
(lp3645
tp3646
a(L2946597619L
L0L
(lp3647
(lp3648
tp3649
a(L1853483621L
L0L
(lp3650
(lp3651
tp3652
a(L2588903510L
L0L
(lp3653
(lp3654
tp3655
a(L1537835812L
L0L
(lp3656
(lp3657
tp3658
a(L137518894L
L0L
(lp3659
(lp3660
tp3661
a(L83268344L
L0L
(lp3662
(lp3663
tp3664
a(L82344823L
L0L
(lp3665
(lp3666
tp3667
a(L3716763792L
L0L
(lp3668
(lp3669
tp3670
a(L3716340639L
L0L
(lp3671
(lp3672
tp3673
a(L274194809L
L0L
(lp3674
(lp3675
tp3676
a(L2613733930L
L0L
(lp3677
(lp3678
tp3679
a(L2952182900L
L0L
(lp3680
(lp3681
tp3682
a(L4142394251L
L3785322319L
(lp3683
(lp3684
Vrtc_clk_slow_freq_get
p3685
atp3686
a(L2679108412L
L0L
(lp3687
(lp3688
tp3689
a(L2780081410L
L0L
(lp3690
(lp3691
tp3692
a(L947749407L
L0L
(lp3693
(lp3694
tp3695
atp3696
sI1074247920
(Vrtc_clk_apb_freq_get
p3697
(lp3698
(L1809923876L
L0L
(lp3699
(lp3700
tp3701
atp3702
sI1074269172
(Vrtc_clk_init
p3703
(lp3704
(L637874614L
L0L
(lp3705
(lp3706
tp3707
a(L2549152574L
L3785322319L
(lp3708
(lp3709
Vrtc_clk_cpu_freq_to_xtal
p3710
atp3711
a(L1400985921L
L0L
(lp3712
(lp3713
tp3714
a(L1998460441L
L0L
(lp3715
(lp3716
tp3717
a(L3224614952L
L0L
(lp3718
(lp3719
tp3720
a(L1299866312L
L0L
(lp3721
(lp3722
tp3723
a(L1299866312L
L0L
(lp3724
(lp3725
tp3726
a(L1182811811L
L0L
(lp3727
(lp3728
tp3729
a(L3020204L
L0L
(lp3730
(lp3731
tp3732
a(L1849746773L
L3785322319L
(lp3733
(lp3734
Vrtc_clk_xtal_freq_get
p3735
atp3736
a(L1375577398L
L3785322319L
(lp3737
(lp3738
Vrtc_clk_xtal_freq_estimate
p3739
atp3740
a(L3080746339L
L3785322319L
(lp3741
(lp3742
Vesp_log_early_timestamp
p3743
atp3744
a(L1351676526L
L0L
(lp3745
(lp3746
tp3747
a(L4233392623L
L0L
(lp3748
(lp3749
tp3750
a(L1300789833L
L0L
(lp3751
(lp3752
tp3753
a(L1300789833L
L0L
(lp3754
(lp3755
tp3756
a(L2258718274L
L0L
(lp3757
(lp3758
tp3759
a(L3028481L
L0L
(lp3760
(lp3761
tp3762
a(L3183127930L
L3785322319L
(lp3763
(lp3764
Vrtc_clk_xtal_freq_estimate
p3765
atp3766
a(L1172714930L
L3785322319L
(lp3767
(lp3768
Vesp_log_early_timestamp
p3769
atp3770
a(L757419054L
L0L
(lp3771
(lp3772
tp3773
a(L3073394004L
L2485746240L
(lp3774
(lp3775
Vrtc_clk_xtal_freq_update
p3776
aVrtc_clk_apb_freq_update
p3777
aVrtc_clk_cpu_freq_get_config
p3778
aVrtc_clk_cpu_freq_mhz_to_config
p3779
atp3780
a(L611953462L
L1880226080L
(lp3781
(lp3782
Vesp_log_early_timestamp
p3783
aVabort
p3784
atp3785
a(L2482667340L
L3785322319L
(lp3786
(lp3787
Vrtc_clk_cpu_freq_set_config
p3788
atp3789
a(L4168829660L
L3785322319L
(lp3790
(lp3791
Vrtc_clk_32k_enable
p3792
atp3793
a(L3016870L
L0L
(lp3794
(lp3795
tp3796
a(L3283132290L
L3785322319L
(lp3797
(lp3798
Vrtc_clk_8m_enable
p3799
atp3800
a(L530469956L
L1880226080L
(lp3801
(lp3802
Vrtc_clk_fast_freq_set
p3803
aVrtc_clk_slow_freq_set
p3804
atp3805
atp3806
sI1074270452
(Vrtc_clk_wait_for_slow_cycle
p3807
(lp3808
(L4191744332L
L0L
(lp3809
(lp3810
tp3811
a(L3534475188L
L0L
(lp3812
(lp3813
tp3814
a(L1610678149L
L0L
(lp3815
(lp3816
tp3817
a(L3360570486L
L0L
(lp3818
(lp3819
tp3820
atp3821
sI1074246392
(Vrtc_clk_8m_enabled
p3822
(lp3823
(L1309784714L
L0L
(lp3824
(lp3825
tp3826
atp3827
sI1074244600
(Vesp_rom_spiflash_read
p3828
(lp3829
(L2098744706L
L0L
(lp3830
(lp3831
tp3832
a(L4203278812L
L0L
(lp3833
(lp3834
tp3835
a(L3017366L
L0L
(lp3836
(lp3837
tp3838
a(L106L
L0L
(lp3839
(lp3840
tp3841
a(L2834948923L
L0L
(lp3842
(lp3843
tp3844
a(L106L
L0L
(lp3845
(lp3846
tp3847
a(L903815341L
L0L
(lp3848
(lp3849
tp3850
a(L1356526634L
L0L
(lp3851
(lp3852
tp3853
a(L2634852126L
L0L
(lp3854
(lp3855
tp3856
a(L3016870L
L0L
(lp3857
(lp3858
tp3859
a(L749057012L
L0L
(lp3860
(lp3861
tp3862
a(L3016870L
L0L
(lp3863
(lp3864
tp3865
a(L3091472223L
L0L
(lp3866
(lp3867
tp3868
a(L2861302783L
L0L
(lp3869
(lp3870
tp3871
a(L347219812L
L0L
(lp3872
(lp3873
tp3874
a(L2174432247L
L0L
(lp3875
(lp3876
tp3877
a(L3069035187L
L0L
(lp3878
(lp3879
tp3880
a(L1555729142L
L0L
(lp3881
(lp3882
tp3883
a(L3681823017L
L0L
(lp3884
(lp3885
tp3886
a(L2744767321L
L3785322319L
(lp3887
(lp3888
Vesp_rom_spiflash_read_data
p3889
atp3890
a(L1298875774L
L0L
(lp3891
(lp3892
tp3893
a(L735741265L
L0L
(lp3894
(lp3895
tp3896
atp3897
sI1074236920
(Vbootloader_common_get_active_otadata
p3898
(lp3899
(L4066087859L
L0L
(lp3900
(lp3901
tp3902
a(L3619672798L
L1832448559L
(lp3903
(lp3904
Vbootloader_common_ota_select_valid
p3905
aVbootloader_common_ota_select_valid
p3906
aVbootloader_common_select_otadata
p3907
atp3908
a(L1299867982L
L0L
(lp3909
(lp3910
tp3911
a(L3360570486L
L0L
(lp3912
(lp3913
tp3914
atp3915
sI1074247416
(Vrtc_clk_apb_freq_update
p3916
(lp3917
(L2838614867L
L0L
(lp3918
(lp3919
tp3920
atp3921
ssS'functionsdups'
p3922
g11
((lp3923
tp3924
Rp3925
sS'immediatedups'
p3926
g11
((lp3927
tp3928
Rp3929
sS'functiondups'
p3930
g11
((lp3931
tp3932
Rp3933
sS'fuzzy'
p3934
(dp3935
L1536L
I1074240292
sL3718826409L
I1074236124
sL4061702297L
I1074243540
sL1667084889L
I1074239432
sL430153639L
I1074241956
sL1655084846L
I1074244184
sL4289748025L
I1074237596
sL45806640L
I1074241212
sL2479661889L
I1074245644
sL3538491111L
I1074247444
sL4155208228L
I1074239152
sL3037832707L
I1074239888
sL2661072904L
I1074240336
sL1845968921L
I1074237384
sL2834878951L
I1074237836
sL313524880L
I1074237980
sL3110146889L
I1074239692
sL2475522855L
I1074234580
sL3802805760L
I1074240672
sL4031437920L
I1074243592
sL1014503250L
I1074243884
sL3270437317L
I1074236268
sL4059437021L
I1074247828
sL1338770016L
I1074240816
sL1892234469L
I1074243944
sL2914853138L
I1074236880
sL3803452955L
I1074243116
sL3249905159L
I1074241364
sL2738222727L
I1074247212
sL4134193241L
I1074241844
sL3110784734L
I1074239336
sL275633497L
I1074268648
sL3697242601L
I1074244508
sL2819663145L
I1074247112
sL2874826336L
I1074235464
sL2662108055L
I1074236920
sL1634949710L
I1074244288
sL1383394121L
I1074269952
sL3948451046L
I1074240988
sL2935879234L
I1074236072
sL512571597L
I1074267732
sL552680240L
I1074242032
sL3137762375L
I1074237096
sL3504571296L
I1074242432
sL578413630L
I1074241512
sL3210669721L
I1074246172
sL533883930L
I1074268132
sL4153801561L
I1074268396
sL2281126695L
I1074243656
sL4160102055L
I1074268616
sL1768086576L
I1074234712
sL545460565L
I1074267684
sL1107446613L
I1074239064
sL3476065511L
I1074269172
sL562412638L
I1074267844
sL2033964903L
I1074246536
sL3703834906L
I1074268996
sL1381401481L
I1074239280
sL3708199143L
I1074246640
sL530701251L
I1074241648
sL3380377753L
I1074244600
sL1179079586L
I1074247580
sL1048421140L
I1074240092
sL1178348887L
I1074236716
sL2020016265L
I1074241260
sL4155364446L
I1074236964
sL3883282432L
I1074236588
sL3271076352L
I1074245448
sL3897638057L
I1074268076
ssb.