ccopy_reg
_reconstructor
p0
(crizzo
RizzoSignature
p1
c__builtin__
object
p2
Ntp3
Rp4
(dp5
S'formal'
p6
(dp7
L3402418382L
I1074270384
sL2047770889L
I1074242668
sL3310276169L
I1074246100
sL3386010842L
I1074235412
sL3240339753L
I1074247124
sL192902261L
I1074269024
sL1741170115L
I1074238404
sL3115577506L
I1074247552
sL3870944683L
I1074248392
sL3327636805L
I1074267780
sL4272876733L
I1074236452
sL2824184385L
I1074240228
sL2051989078L
I1074241880
sL3395577470L
I1074267928
sL2714103262L
I1074240612
sL3987316663L
I1074242448
sL3853232267L
I1074238036
sL4118849442L
I1074246620
sL1517279559L
I1074246952
sL1144063518L
I1074268404
sL2028775646L
I1074243160
sL870892253L
I1074237476
sL3939356145L
I1074237068
sL1217520047L
I1074237108
sL110432215L
I1074234712
sL2854459750L
I1074243868
sL1447220229L
I1074239776
sL2520223867L
I1074242592
sL3677445759L
I1074236168
sL1312372343L
I1074237844
sL2806906626L
I1074239556
sL2261959042L
I1074246744
sL381446380L
I1074270308
sL542630405L
I1074239020
sL3409102432L
I1074244204
sL965518296L
I1074240864
sL3568176122L
I1074244988
sL1734087942L
I1074241396
sL2662742250L
I1074237216
sL2897402350L
I1074241596
sL2446872711L
I1074248888
sL1155576451L
I1074242476
sL514405571L
I1074240196
sL998419945L
I1074245412
sL3253534592L
I1074239428
sL1707586218L
I1074236200
sL807153521L
I1074236300
sL1828348553L
I1074246120
sL3087319921L
I1074244672
sL233631383L
I1074245320
sL2758294038L
I1074237624
sL1624296110L
I1074267884
sL252091513L
I1074237296
sL2050076851L
I1074247292
sL1381886942L
I1074247320
sL2498658152L
I1074235608
sL717682752L
I1074246300
sL1475472759L
I1074246512
sL973625230L
I1074248704
sL4024787567L
I1074237440
sL804221539L
I1074247348
sL1024457600L
I1074237588
sL1247009474L
I1074244740
sL443006964L
I1074245096
sL3745024428L
I1074234828
sL4134720228L
I1074242136
sL2272641762L
I1074244364
sL2387551959L
I1074236244
sL9862158L
I1074268724
sL1448049363L
I1074270092
sL1165407979L
I1074236896
sL891223743L
I1074246072
sL3890664515L
I1074246140
sL268220756L
I1074248364
sL1830483376L
I1074248796
sL1938669350L
I1074246188
sL2253137889L
I1074242272
sL130114671L
I1074248052
sL4238621974L
I1074268160
sL3756139089L
I1074269060
sL2782795882L
I1074236752
sL1258975935L
I1074241984
sL3909269172L
I1074237792
sL1868338154L
I1074267752
sL3868619310L
I1074247996
sL3199926275L
I1074268460
sL3155930274L
I1074240004
sL2622718953L
I1074238244
sL1578043317L
I1074244432
sL3418220806L
I1074247488
sL2221692368L
I1074237048
sL2104613327L
I1074239612
sL1621937171L
I1074248540
sL3697823959L
I1074269412
sL3035638838L
I1074236768
sL516762635L
I1074238432
sL3993140164L
I1074247428
sL3228102574L
I1074247444
sL1780559850L
I1074248316
sL993221117L
I1074270896
sL2432257846L
I1074243852
sL3601788030L
I1074247060
sL2979064644L
I1074237164
sL1979018272L
I1074241832
sL3584618110L
I1074238100
sL2655988888L
I1074269368
sL2263182908L
I1074238424
sL2702615755L
I1074241160
sL189996942L
I1074269588
sL2793529951L
I1074246884
sL489309134L
I1074241248
sL1318135924L
I1074239724
sL2493391225L
I1074241256
sL2419100376L
I1074240912
sL718196260L
I1074248156
sL109878119L
I1074236860
sL2460777799L
I1074247536
sL3880901821L
I1074268624
sL702415664L
I1074238548
sL1262975670L
I1074244312
sL4108636432L
I1074270864
sL2927255439L
I1074239340
sL240369573L
I1074234692
sL3745020111L
I1074267828
sL2775262864L
I1074241420
ssS'immediates'
p8
(dp9
sS'formaldups'
p10
c__builtin__
set
p11
((lp12
tp13
Rp14
sS'stringdups'
p15
g11
((lp16
tp17
Rp18
sS'fuzzydups'
p19
g11
((lp20
tp21
Rp22
sS'strings'
p23
(dp24
sS'functions'
p25
(dp26
I1074240004
(Vunpack_load_app
p27
(lp28
(L429129353L
L0L
(lp29
(lp30
tp31
a(L3082114560L
L0L
(lp32
(lp33
tp34
a(L2902417580L
L0L
(lp35
(lp36
tp37
a(L661733570L
L3785322319L
(lp38
(lp39
Vesp_log_early_timestamp
p40
atp41
a(L119201706L
L0L
(lp42
(lp43
tp44
a(L780641376L
L0L
(lp45
(lp46
tp47
a(L2902417580L
L0L
(lp48
(lp49
tp50
a(L415420483L
L3785322319L
(lp51
(lp52
Vesp_log_early_timestamp
p53
atp54
a(L2669168141L
L0L
(lp55
(lp56
tp57
a(L1799288861L
L0L
(lp58
(lp59
tp60
a(L350965691L
L0L
(lp61
(lp62
tp63
a(L106L
L0L
(lp64
(lp65
tp66
a(L3091862805L
L3785322319L
(lp67
(lp68
Vset_cache_and_start_app
p69
atp70
atp71
sI1074247428
(Vrtc_clk_slow_freq_get
p72
(lp73
(L4240038829L
L0L
(lp74
(lp75
tp76
atp77
sI1074237440
(Vbootloader_common_ota_select_invalid
p78
(lp79
(L2808438197L
L0L
(lp80
(lp81
tp82
a(L473337258L
L0L
(lp83
(lp84
tp85
a(L3028464L
L0L
(lp86
(lp87
tp88
a(L1299866343L
L0L
(lp89
(lp90
tp91
a(L1299866343L
L0L
(lp92
(lp93
tp94
a(L1299866343L
L0L
(lp95
(lp96
tp97
a(L2258688482L
L0L
(lp98
(lp99
tp100
a(L3360570486L
L0L
(lp101
(lp102
tp103
atp104
sI1074248704
(Vrtc_clk_cpu_freq_to_8m
p105
(lp106
(L1958734979L
L3785322319L
(lp107
(lp108
Vrtc_clk_apb_freq_update
p109
atp110
atp111
sI1074268160
(Vprint_flash_info
p112
(lp113
(L2711731451L
L0L
(lp114
(lp115
tp116
a(L608600031L
L0L
(lp117
(lp118
tp119
a(L3020187L
L0L
(lp120
(lp121
tp122
a(L225150647L
L0L
(lp123
(lp124
tp125
a(L460429684L
L0L
(lp126
(lp127
tp128
a(L460429560L
L0L
(lp129
(lp130
tp131
a(L460430397L
L0L
(lp132
(lp133
tp134
a(L460429684L
L0L
(lp135
(lp136
tp137
a(L3201441249L
L0L
(lp138
(lp139
tp140
a(L1848995258L
L3785322319L
(lp141
(lp142
Vesp_log_early_timestamp
p143
atp144
a(L3017366L
L0L
(lp145
(lp146
tp147
a(L3017366L
L0L
(lp148
(lp149
tp150
a(L3017366L
L0L
(lp151
(lp152
tp153
a(L3016870L
L0L
(lp154
(lp155
tp156
a(L460431606L
L0L
(lp157
(lp158
tp159
a(L460430521L
L0L
(lp160
(lp161
tp162
a(L460430645L
L0L
(lp163
(lp164
tp165
a(L460431482L
L0L
(lp166
(lp167
tp168
a(L460431358L
L0L
(lp169
(lp170
tp171
a(L3201441280L
L0L
(lp172
(lp173
tp174
a(L17431379L
L3785322319L
(lp175
(lp176
Vesp_log_early_timestamp
p177
atp178
a(L937550364L
L0L
(lp179
(lp180
tp181
a(L703425374L
L0L
(lp182
(lp183
tp184
a(L3185200879L
L3785322319L
(lp185
(lp186
Vesp_log_early_timestamp
p187
atp188
atp189
sI1074243852
(Vbootloader_load_image
p190
(lp191
(L267004326L
L3785322319L
(lp192
(lp193
Vimage_load
p194
atp195
atp196
sI1074244364
(Vesp_rom_spiflash_erase_sector_internal
p197
(lp198
(L3143713660L
L0L
(lp199
(lp200
tp201
a(L1961361637L
L3785322319L
(lp202
(lp203
Vesp_rom_spiflash_wait_idle
p204
atp205
a(L3755940711L
L0L
(lp206
(lp207
tp208
a(L4274660785L
L3785322319L
(lp209
(lp210
Vesp_rom_spiflash_wait_idle
p211
atp212
a(L2258688483L
L0L
(lp213
(lp214
tp215
a(L3360570486L
L0L
(lp216
(lp217
tp218
atp219
sI1074236168
(Vexecute_flash_command
p220
(lp221
(L2477210053L
L3785322319L
(lp222
(lp223
Vbootloader_flash_execute_command_common
p224
atp225
atp226
sI1074267928
(Vwdt_reset_info_dump
p227
(lp228
(L1642351636L
L0L
(lp229
(lp230
tp231
a(L460425251L
L0L
(lp232
(lp233
tp234
a(L3201441020L
L0L
(lp235
(lp236
tp237
a(L3028481L
L0L
(lp238
(lp239
tp240
a(L3486670486L
L0L
(lp241
(lp242
tp243
a(L4041715166L
L0L
(lp244
(lp245
tp246
a(L2307613036L
L0L
(lp247
(lp248
tp249
a(L1550379252L
L0L
(lp250
(lp251
tp252
a(L1243497843L
L3785322319L
(lp253
(lp254
Vesp_log_early_timestamp
p255
atp256
a(L3007616451L
L3785322319L
(lp257
(lp258
Vesp_log_early_timestamp
p259
atp260
a(L3360570486L
L0L
(lp261
(lp262
tp263
atp264
sI1074235412
(Vbootloader_flash_dummy_config
p265
(lp266
(L3640861900L
L0L
(lp267
(lp268
tp269
a(L3017366L
L0L
(lp270
(lp271
tp272
a(L3016870L
L0L
(lp273
(lp274
tp275
a(L4181089282L
L0L
(lp276
(lp277
tp278
a(L2568071894L
L0L
(lp279
(lp280
tp281
a(L1612290447L
L0L
(lp282
(lp283
tp284
a(L1612290447L
L0L
(lp285
(lp286
tp287
a(L1612290540L
L0L
(lp288
(lp289
tp290
a(L1298935362L
L0L
(lp291
(lp292
tp293
a(L2962820102L
L0L
(lp294
(lp295
tp296
a(L608600031L
L0L
(lp297
(lp298
tp299
a(L106L
L0L
(lp300
(lp301
tp302
a(L2336993863L
L0L
(lp303
(lp304
tp305
a(L1158698168L
L0L
(lp306
(lp307
tp308
a(L1147382041L
L0L
(lp309
(lp310
tp311
a(L167711406L
L0L
(lp312
(lp313
tp314
a(L3194563589L
L0L
(lp315
(lp316
tp317
atp318
sI1074247444
(Vrtc_clk_slow_freq_get_hz
p319
(lp320
(L2601977293L
L3785322319L
(lp321
(lp322
Vrtc_clk_slow_freq_get
p323
atp324
a(L2902417580L
L0L
(lp325
(lp326
tp327
a(L3020187L
L0L
(lp328
(lp329
tp330
a(L1299866312L
L0L
(lp331
(lp332
tp333
a(L310018283L
L0L
(lp334
(lp335
tp336
a(L310151149L
L0L
(lp337
(lp338
tp339
a(L702741529L
L0L
(lp340
(lp341
tp342
a(L3360570486L
L0L
(lp343
(lp344
tp345
atp346
sI1074243868
(Vesp_partition_table_verify
p347
(lp348
(L189449861L
L0L
(lp349
(lp350
tp351
a(L1222487886L
L0L
(lp352
(lp353
tp354
a(L2937657136L
L0L
(lp355
(lp356
tp357
a(L2865039366L
L0L
(lp358
(lp359
tp360
a(L106L
L0L
(lp361
(lp362
tp363
a(L2579271819L
L0L
(lp364
(lp365
tp366
a(L2131895423L
L3785322319L
(lp367
(lp368
Vesp_log_early_timestamp
p369
atp370
a(L1235012963L
L0L
(lp371
(lp372
tp373
a(L3426029469L
L0L
(lp374
(lp375
tp376
a(L2902417580L
L0L
(lp377
(lp378
tp379
a(L2579271819L
L0L
(lp380
(lp381
tp382
a(L3812131991L
L3785322319L
(lp383
(lp384
Vesp_log_early_timestamp
p385
atp386
a(L1876049735L
L0L
(lp387
(lp388
tp389
a(L2579271819L
L0L
(lp390
(lp391
tp392
a(L3544104979L
L3785322319L
(lp393
(lp394
Vesp_log_early_timestamp
p395
atp396
a(L1610443436L
L0L
(lp397
(lp398
tp399
a(L1235012932L
L0L
(lp400
(lp401
tp402
a(L3720018517L
L0L
(lp403
(lp404
tp405
a(L1391310550L
L0L
(lp406
(lp407
tp408
a(L2579271819L
L0L
(lp409
(lp410
tp411
a(L4037113401L
L3785322319L
(lp412
(lp413
Vesp_log_early_timestamp
p414
atp415
a(L1235012932L
L0L
(lp416
(lp417
tp418
a(L1799288861L
L0L
(lp419
(lp420
tp421
a(L902240557L
L0L
(lp422
(lp423
tp424
a(L106L
L0L
(lp425
(lp426
tp427
a(L484089803L
L0L
(lp428
(lp429
tp430
a(L605163114L
L3785322319L
(lp431
(lp432
Vesp_log_early_timestamp
p433
atp434
a(L2810785766L
L0L
(lp435
(lp436
tp437
a(L3360570486L
L0L
(lp438
(lp439
tp440
atp441
sI1074238244
(Vbootloader_flash_write
p442
(lp443
(L1798169257L
L0L
(lp444
(lp445
tp446
a(L1755666842L
L0L
(lp447
(lp448
tp449
a(L1182930978L
L0L
(lp450
(lp451
tp452
a(L1516326052L
L0L
(lp453
(lp454
tp455
a(L20293602L
L3785322319L
(lp456
(lp457
Vesp_log_early_timestamp
p458
atp459
a(L3291333414L
L0L
(lp460
(lp461
tp462
a(L1693862220L
L3785322319L
(lp463
(lp464
Vesp_log_early_timestamp
p465
atp466
a(L3283691850L
L0L
(lp467
(lp468
tp469
a(L1664792438L
L3785322319L
(lp470
(lp471
Vesp_log_early_timestamp
p472
atp473
a(L3212356251L
L3785322319L
(lp474
(lp475
Vbootloader_flash_unlock
p476
atp477
a(L2902417580L
L0L
(lp478
(lp479
tp480
a(L2913054701L
L1880226080L
(lp481
(lp482
Vesp_rom_spiflash_write_encrypted
p483
aVspi_to_esp_err
p484
atp485
a(L4281627677L
L1880226080L
(lp486
(lp487
Vesp_rom_spiflash_write
p488
aVspi_to_esp_err
p489
atp490
a(L735741265L
L0L
(lp491
(lp492
tp493
atp494
sI1074237476
(Vbootloader_common_select_otadata
p495
(lp496
(L3584189777L
L0L
(lp497
(lp498
tp499
a(L1238320367L
L0L
(lp500
(lp501
tp502
a(L1238350425L
L0L
(lp503
(lp504
tp505
a(L3063569071L
L0L
(lp506
(lp507
tp508
a(L1299866312L
L0L
(lp509
(lp510
tp511
a(L2902417580L
L0L
(lp512
(lp513
tp514
a(L2266899299L
L0L
(lp515
(lp516
tp517
a(L1021104441L
L0L
(lp518
(lp519
tp520
a(L3969214161L
L0L
(lp521
(lp522
tp523
a(L1299866312L
L0L
(lp524
(lp525
tp526
a(L1098457408L
L0L
(lp527
(lp528
tp529
a(L1770629919L
L0L
(lp530
(lp531
tp532
a(L3027007L
L0L
(lp533
(lp534
tp535
a(L1641201884L
L0L
(lp536
(lp537
tp538
a(L1641201884L
L0L
(lp539
(lp540
tp541
a(L2258688483L
L0L
(lp542
(lp543
tp544
a(L3360570486L
L0L
(lp545
(lp546
tp547
atp548
sI1074236452
(Vbootloader_flash_unlock
p549
(lp550
(L3746304696L
L3785322319L
(lp551
(lp552
Vesp_rom_spiflash_wait_idle
p553
atp554
a(L3827077634L
L3785322319L
(lp555
(lp556
Vexecute_flash_command
p557
atp558
a(L3162775668L
L0L
(lp559
(lp560
tp561
a(L1225466760L
L0L
(lp562
(lp563
tp564
a(L2151861662L
L0L
(lp565
(lp566
tp567
a(L1299866312L
L0L
(lp568
(lp569
tp570
a(L1299866312L
L0L
(lp571
(lp572
tp573
a(L1299866312L
L0L
(lp574
(lp575
tp576
a(L1182811811L
L0L
(lp577
(lp578
tp579
a(L3020204L
L0L
(lp580
(lp581
tp582
a(L2678961441L
L1880226080L
(lp583
(lp584
Vexecute_flash_command
p585
aVexecute_flash_command
p586
atp587
a(L3220422812L
L1880226080L
(lp588
(lp589
Vexecute_flash_command
p590
aVexecute_flash_command
p591
atp592
a(L97422L
L0L
(lp593
(lp594
tp595
a(L2746578736L
L1157885199L
(lp596
(lp597
Vesp_rom_spiflash_wait_idle
p598
aVexecute_flash_command
p599
aVesp_rom_spiflash_wait_idle
p600
aVexecute_flash_command
p601
aVesp_rom_spiflash_wait_idle
p602
atp603
a(L97422L
L0L
(lp604
(lp605
tp606
a(L779969632L
L1157885199L
(lp607
(lp608
Vesp_rom_spiflash_wait_idle
p609
aVexecute_flash_command
p610
aVesp_rom_spiflash_wait_idle
p611
aVexecute_flash_command
p612
aVesp_rom_spiflash_wait_idle
p613
atp614
a(L2531355236L
L1880226080L
(lp615
(lp616
Vexecute_flash_command
p617
aVesp_rom_spiflash_wait_idle
p618
atp619
atp620
sI1074245412
(Vesp_rom_spiflash_read
p621
(lp622
(L2937159522L
L0L
(lp623
(lp624
tp625
a(L1537930652L
L0L
(lp626
(lp627
tp628
a(L3017366L
L0L
(lp629
(lp630
tp631
a(L106L
L0L
(lp632
(lp633
tp634
a(L3566544746L
L0L
(lp635
(lp636
tp637
a(L106L
L0L
(lp638
(lp639
tp640
a(L903815341L
L0L
(lp641
(lp642
tp643
a(L3455000874L
L0L
(lp644
(lp645
tp646
a(L3858719578L
L0L
(lp647
(lp648
tp649
a(L3016870L
L0L
(lp650
(lp651
tp652
a(L3041195604L
L0L
(lp653
(lp654
tp655
a(L3016870L
L0L
(lp656
(lp657
tp658
a(L731493439L
L0L
(lp659
(lp660
tp661
a(L769051229L
L0L
(lp662
(lp663
tp664
a(L2838089903L
L0L
(lp665
(lp666
tp667
a(L2174432247L
L0L
(lp668
(lp669
tp670
a(L812714289L
L0L
(lp671
(lp672
tp673
a(L993738264L
L0L
(lp674
(lp675
tp676
a(L467248536L
L0L
(lp677
(lp678
tp679
a(L2364932422L
L3785322319L
(lp680
(lp681
Vesp_rom_spiflash_read_data
p682
atp683
a(L1298875774L
L0L
(lp684
(lp685
tp686
a(L735741265L
L0L
(lp687
(lp688
tp689
atp690
sI1074268460
(Vwdt_reset_check
p691
(lp692
(L1474067986L
L0L
(lp693
(lp694
tp695
a(L3020187L
L0L
(lp696
(lp697
tp698
a(L367582592L
L0L
(lp699
(lp700
tp701
a(L367642441L
L0L
(lp702
(lp703
tp704
a(L4264009122L
L3785322319L
(lp705
(lp706
Vesp_log_early_timestamp
p707
atp708
a(L1298905564L
L0L
(lp709
(lp710
tp711
a(L2986794716L
L0L
(lp712
(lp713
tp714
a(L3020187L
L0L
(lp715
(lp716
tp717
a(L225031483L
L0L
(lp718
(lp719
tp720
a(L225091332L
L0L
(lp721
(lp722
tp723
a(L3965368819L
L3785322319L
(lp724
(lp725
Vesp_log_early_timestamp
p726
atp727
a(L3020204L
L0L
(lp728
(lp729
tp730
a(L1944713791L
L1880226080L
(lp731
(lp732
Vwdt_reset_info_dump
p733
aVwdt_reset_info_dump
p734
atp735
a(L3738038928L
L3785322319L
(lp736
(lp737
Vwdt_reset_cpu0_info_enable
p738
atp739
atp740
sI1074239776
(Vset_cache_and_start_app
p741
(lp742
(L795218187L
L0L
(lp743
(lp744
tp745
a(L1268627280L
L0L
(lp746
(lp747
tp748
a(L1548223148L
L0L
(lp749
(lp750
tp751
a(L2424743540L
L0L
(lp752
(lp753
tp754
atp755
sI1074237216
(Vbootloader_common_get_chip_revision
p756
(lp757
(L713572164L
L0L
(lp758
(lp759
tp760
a(L3020187L
L0L
(lp761
(lp762
tp763
a(L3020187L
L0L
(lp764
(lp765
tp766
a(L1299866312L
L0L
(lp767
(lp768
tp769
a(L1299866374L
L0L
(lp770
(lp771
tp772
a(L1299866405L
L0L
(lp773
(lp774
tp775
a(L2258688483L
L0L
(lp776
(lp777
tp778
a(L3360570486L
L0L
(lp779
(lp780
tp781
atp782
sI1074242592
(Vshould_load
p783
(lp784
(L370931439L
L3785322319L
(lp785
(lp786
Vshould_map
p787
atp788
a(L1121477954L
L0L
(lp789
(lp790
tp791
a(L3028464L
L0L
(lp792
(lp793
tp794
a(L4095578819L
L0L
(lp795
(lp796
tp797
a(L202508550L
L0L
(lp798
(lp799
tp800
a(L3882931814L
L0L
(lp801
(lp802
tp803
a(L1610443436L
L0L
(lp804
(lp805
tp806
a(L1610443405L
L0L
(lp807
(lp808
tp809
a(L1298875774L
L0L
(lp810
(lp811
tp812
a(L735741265L
L0L
(lp813
(lp814
tp815
atp816
sI1074239020
(Vbootloader_random_disable
p817
(lp818
(L2712237401L
L0L
(lp819
(lp820
tp821
atp822
sI1074246188
(Vrtc_wdt_set_time
p823
(lp824
(L607216364L
L0L
(lp825
(lp826
tp827
a(L1079095605L
L3785322319L
(lp828
(lp829
Vrtc_clk_slow_freq_get_hz
p830
atp831
a(L2025149026L
L0L
(lp832
(lp833
tp834
a(L3028464L
L0L
(lp835
(lp836
tp837
a(L3959184973L
L0L
(lp838
(lp839
tp840
a(L3028464L
L0L
(lp841
(lp842
tp843
a(L3809305401L
L0L
(lp844
(lp845
tp846
a(L2121294397L
L0L
(lp847
(lp848
tp849
a(L2810785765L
L0L
(lp850
(lp851
tp852
a(L3360570486L
L0L
(lp853
(lp854
tp855
atp856
sI1074236200
(Vbootloader_read_flash_id
p857
(lp858
(L1815620575L
L3785322319L
(lp859
(lp860
Vexecute_flash_command
p861
atp862
atp863
sI1074241832
(Vshould_map
p864
(lp865
(L3937304407L
L0L
(lp866
(lp867
tp868
a(L1182990556L
L0L
(lp869
(lp870
tp871
a(L997119244L
L0L
(lp872
(lp873
tp874
a(L1182990556L
L0L
(lp875
(lp876
tp877
a(L1296420068L
L0L
(lp878
(lp879
tp880
atp881
sI1074246952
(Vrtc_clk_bbpll_enable
p882
(lp883
(L1700249723L
L0L
(lp884
(lp885
tp886
atp887
sI1074241596
(Vbootloader_sha256_finish
p888
(lp889
(L4066096136L
L0L
(lp890
(lp891
tp892
a(L2507192538L
L3785322319L
(lp893
(lp894
V__assert_func
p895
atp896
a(L3020204L
L0L
(lp897
(lp898
tp899
a(L3125835977L
L0L
(lp900
(lp901
tp902
a(L2534656226L
L0L
(lp903
(lp904
tp905
a(L321015369L
L0L
(lp906
(lp907
tp908
a(L2452280183L
L3785322319L
(lp909
(lp910
V__assert_func
p911
atp912
a(L1861479824L
L3785322319L
(lp913
(lp914
Vbootloader_sha256_data
p915
atp916
a(L698983516L
L3785322319L
(lp917
(lp918
V__assert_func
p919
atp920
a(L3556259933L
L3785322319L
(lp921
(lp922
Vbootloader_sha256_data
p923
atp924
a(L1250614581L
L3785322319L
(lp925
(lp926
V__assert_func
p927
atp928
a(L2007151782L
L0L
(lp929
(lp930
tp931
a(L199233554L
L0L
(lp932
(lp933
tp934
a(L2007151782L
L0L
(lp935
(lp936
tp937
a(L2573104328L
L0L
(lp938
(lp939
tp940
a(L1870616799L
L0L
(lp941
(lp942
tp943
a(L93837694L
L0L
(lp944
(lp945
tp946
a(L3347778L
L0L
(lp947
(lp948
tp949
a(L477681720L
L0L
(lp950
(lp951
tp952
atp953
sI1074247996
(Vrtc_clk_xtal_freq_get
p954
(lp955
(L384131857L
L0L
(lp956
(lp957
tp958
a(L4143442356L
L0L
(lp959
(lp960
tp961
a(L1305407438L
L0L
(lp962
(lp963
tp964
a(L1305407438L
L0L
(lp965
(lp966
tp967
a(L2258867229L
L0L
(lp968
(lp969
tp970
a(L2902417580L
L0L
(lp971
(lp972
tp973
a(L997999888L
L0L
(lp974
(lp975
tp976
a(L2258688482L
L0L
(lp977
(lp978
tp979
a(L3360570486L
L0L
(lp980
(lp981
tp982
atp983
sI1074268724
(Vbootloader_main
p984
(lp985
(L2330071950L
L1832448559L
(lp986
(lp987
Vbootloader_common_vddsdio_configure
p988
aVbootloader_read_flash_id
p989
aVbootloader_flash_xmc_startup
p990
atp991
a(L951842311L
L3785322319L
(lp992
(lp993
Vesp_log_early_timestamp
p994
atp995
a(L2463179889L
L3785322319L
(lp996
(lp997
Vbootloader_flash_read
p998
atp999
a(L1663730364L
L3785322319L
(lp1000
(lp1001
Vesp_log_early_timestamp
p1002
atp1003
a(L3191571389L
L1832448559L
(lp1004
(lp1005
Vbootloader_common_get_chip_revision
p1006
aVesp_log_early_timestamp
p1007
aVbootloader_common_check_chip_validity
p1008
atp1009
a(L548188688L
L2794580271L
(lp1010
(lp1011
Vbootloader_init_flash_configure
p1012
aVbootloader_clock_configure
p1013
aVuart_console_configure
p1014
aVwdt_reset_check
p1015
aVesp_log_early_timestamp
p1016
aVesp_log_early_timestamp
p1017
aVrtc_wdt_protect_off
p1018
aVrtc_wdt_disable
p1019
aVrtc_wdt_set_length_of_reset_signal
p1020
aVrtc_wdt_set_length_of_reset_signal
p1021
aVrtc_wdt_set_stage
p1022
aVrtc_wdt_set_time
p1023
aVrtc_wdt_enable
p1024
aVrtc_wdt_protect_on
p1025
aVbootloader_flash_unlock
p1026
aVesp_log_early_timestamp
p1027
aVbootloader_random_enable
p1028
aVprint_flash_info
p1029
aVupdate_flash_config
p1030
atp1031
a(L1299867982L
L0L
(lp1032
(lp1033
tp1034
a(L3360570486L
L0L
(lp1035
(lp1036
tp1037
atp1038
sI1074234692
(Vbootloader_init_flash_configure
p1039
(lp1040
(L2326466312L
L1832448559L
(lp1041
(lp1042
Vbootloader_flash_gpio_config
p1043
aVbootloader_flash_dummy_config
p1044
aVbootloader_flash_cs_timing_config
p1045
atp1046
atp1047
sI1074239556
(Vwrite_otadata
p1048
(lp1049
(L1129643552L
L3785322319L
(lp1050
(lp1051
Vbootloader_flash_erase_sector
p1052
atp1053
a(L2292404229L
L3785322319L
(lp1054
(lp1055
Vbootloader_flash_write
p1056
atp1057
a(L3020204L
L0L
(lp1058
(lp1059
tp1060
a(L205662936L
L3785322319L
(lp1061
(lp1062
Vesp_log_early_timestamp
p1063
atp1064
a(L3360570486L
L0L
(lp1065
(lp1066
tp1067
atp1068
sI1074244672
(Vesp_rom_spiflash_enable_write
p1069
(lp1070
(L291594491L
L3785322319L
(lp1071
(lp1072
Vesp_rom_spiflash_wait_idle
p1073
atp1074
a(L2576859681L
L0L
(lp1075
(lp1076
tp1077
a(L103781224L
L0L
(lp1078
(lp1079
tp1080
a(L1337065440L
L3785322319L
(lp1081
(lp1082
Vesp_rom_spiflash_read_status
p1083
atp1084
a(L1253527241L
L0L
(lp1085
(lp1086
tp1087
a(L2993202392L
L0L
(lp1088
(lp1089
tp1090
atp1091
sI1074247488
(Vrtc_clk_fast_freq_set
p1092
(lp1093
(L1935765189L
L0L
(lp1094
(lp1095
tp1096
atp1097
sI1074238548
(Vbootloader_random_enable
p1098
(lp1099
(L1091309104L
L0L
(lp1100
(lp1101
tp1102
atp1103
sI1074236244
(Vbootloader_flash_read_sfdp
p1104
(lp1105
(L1494883415L
L0L
(lp1106
(lp1107
tp1108
a(L1071917914L
L3785322319L
(lp1109
(lp1110
V__assert_func
p1111
atp1112
a(L1433634662L
L3785322319L
(lp1113
(lp1114
Vbootloader_flash_execute_command_common
p1115
atp1116
atp1117
sI1074238036
(Vbootloader_munmap
p1118
(lp1119
(L1305494608L
L0L
(lp1120
(lp1121
tp1122
a(L916383412L
L0L
(lp1123
(lp1124
tp1125
a(L477681720L
L0L
(lp1126
(lp1127
tp1128
atp1129
sI1074236752
(Vesp_cpu_in_ocd_debug_mode
p1130
(lp1131
(L881579880L
L0L
(lp1132
(lp1133
tp1134
atp1135
sI1074244432
(Vesp_rom_spiflash_read_data
p1136
(lp1137
(L4122033220L
L0L
(lp1138
(lp1139
tp1140
a(L106L
L0L
(lp1141
(lp1142
tp1143
a(L2070875117L
L3785322319L
(lp1144
(lp1145
Vesp_rom_spiflash_wait_idle
p1146
atp1147
a(L2761836345L
L0L
(lp1148
(lp1149
tp1150
a(L1878898240L
L0L
(lp1151
(lp1152
tp1153
a(L2576859681L
L0L
(lp1154
(lp1155
tp1156
a(L103781224L
L0L
(lp1157
(lp1158
tp1159
a(L2461641154L
L0L
(lp1160
(lp1161
tp1162
a(L256664550L
L0L
(lp1163
(lp1164
tp1165
a(L408266711L
L0L
(lp1166
(lp1167
tp1168
a(L4205509696L
L0L
(lp1169
(lp1170
tp1171
a(L2576859681L
L0L
(lp1172
(lp1173
tp1174
a(L1263158627L
L0L
(lp1175
(lp1176
tp1177
a(L340944485L
L0L
(lp1178
(lp1179
tp1180
a(L3922957135L
L0L
(lp1181
(lp1182
tp1183
a(L1305407438L
L0L
(lp1184
(lp1185
tp1186
a(L2461641154L
L0L
(lp1187
(lp1188
tp1189
a(L3027019L
L0L
(lp1190
(lp1191
tp1192
a(L2258777855L
L0L
(lp1193
(lp1194
tp1195
a(L3027007L
L0L
(lp1196
(lp1197
tp1198
a(L106L
L0L
(lp1199
(lp1200
tp1201
a(L1893045958L
L0L
(lp1202
(lp1203
tp1204
a(L2258688483L
L0L
(lp1205
(lp1206
tp1207
a(L3360570486L
L0L
(lp1208
(lp1209
tp1210
atp1211
sI1074248540
(Vrtc_clk_cpu_freq_to_pll_mhz
p1212
(lp1213
(L3639301015L
L0L
(lp1214
(lp1215
tp1216
a(L1541996779L
L0L
(lp1217
(lp1218
tp1219
a(L1546614651L
L0L
(lp1220
(lp1221
tp1222
a(L2245131903L
L0L
(lp1223
(lp1224
tp1225
a(L3941059644L
L1880226080L
(lp1226
(lp1227
Vesp_log_early_timestamp
p1228
aVabort
p1229
atp1230
a(L3546033543L
L0L
(lp1231
(lp1232
tp1233
a(L3307832802L
L0L
(lp1234
(lp1235
tp1236
a(L2254545658L
L1880226080L
(lp1237
(lp1238
Vrtc_clk_apb_freq_update
p1239
aVrtc_clk_wait_for_slow_cycle
p1240
atp1241
atp1242
sI1074248796
(Vrtc_clk_cpu_freq_set_config
p1243
(lp1244
(L3979715351L
L3785322319L
(lp1245
(lp1246
Vrtc_clk_xtal_freq_get
p1247
atp1248
a(L1739379997L
L1880226080L
(lp1249
(lp1250
Vrtc_clk_cpu_freq_to_xtal
p1251
aVrtc_clk_wait_for_slow_cycle
p1252
atp1253
a(L3028464L
L0L
(lp1254
(lp1255
tp1256
a(L94425498L
L3785322319L
(lp1257
(lp1258
Vrtc_clk_bbpll_disable
p1259
atp1260
a(L3978916712L
L0L
(lp1261
(lp1262
tp1263
a(L2977209154L
L0L
(lp1264
(lp1265
tp1266
a(L3224389080L
L3785322319L
(lp1267
(lp1268
Vrtc_clk_cpu_freq_to_xtal
p1269
atp1270
a(L3028464L
L0L
(lp1271
(lp1272
tp1273
a(L2123040928L
L1157885199L
(lp1274
(lp1275
Vrtc_clk_bbpll_enable
p1276
aVrtc_clk_wait_for_slow_cycle
p1277
aVrtc_clk_xtal_freq_get
p1278
aVrtc_clk_bbpll_configure
p1279
aVrtc_clk_cpu_freq_to_pll_mhz
p1280
atp1281
a(L3028464L
L0L
(lp1282
(lp1283
tp1284
a(L94425498L
L3785322319L
(lp1285
(lp1286
Vrtc_clk_cpu_freq_to_8m
p1287
atp1288
a(L3360570486L
L0L
(lp1289
(lp1290
tp1291
atp1292
sI1074243160
(Vimage_load
p1293
(lp1294
(L915390607L
L0L
(lp1295
(lp1296
tp1297
a(L106L
L0L
(lp1298
(lp1299
tp1300
a(L820929425L
L0L
(lp1301
(lp1302
tp1303
a(L3020187L
L0L
(lp1304
(lp1305
tp1306
a(L11952279L
L3785322319L
(lp1307
(lp1308
Vesp_log_early_timestamp
p1309
atp1310
a(L3896850786L
L0L
(lp1311
(lp1312
tp1313
a(L2519400463L
L3785322319L
(lp1314
(lp1315
Vbootloader_flash_read
p1316
atp1317
a(L4124473353L
L0L
(lp1318
(lp1319
tp1320
a(L2568992188L
L3785322319L
(lp1321
(lp1322
Vbootloader_sha256_start
p1323
atp1324
a(L623197325L
L3785322319L
(lp1325
(lp1326
Vbootloader_sha256_data
p1327
atp1328
a(L1182960765L
L0L
(lp1329
(lp1330
tp1331
a(L1665201235L
L3785322319L
(lp1332
(lp1333
Vverify_image_header
p1334
atp1335
a(L3587758190L
L0L
(lp1336
(lp1337
tp1338
a(L3028464L
L0L
(lp1339
(lp1340
tp1341
a(L106L
L0L
(lp1342
(lp1343
tp1344
a(L2100097797L
L3785322319L
(lp1345
(lp1346
Vesp_log_early_timestamp
p1347
atp1348
a(L3144998637L
L0L
(lp1349
(lp1350
tp1351
a(L2678524473L
L3785322319L
(lp1352
(lp1353
Vprocess_segment
p1354
atp1355
a(L1589625955L
L0L
(lp1356
(lp1357
tp1358
a(L2125973223L
L0L
(lp1359
(lp1360
tp1361
a(L2993473092L
L0L
(lp1362
(lp1363
tp1364
a(L3028464L
L0L
(lp1365
(lp1366
tp1367
a(L106L
L0L
(lp1368
(lp1369
tp1370
a(L549951062L
L3785322319L
(lp1371
(lp1372
Vesp_log_early_timestamp
p1373
atp1374
a(L2924158688L
L3785322319L
(lp1375
(lp1376
Vesp_cpu_in_ocd_debug_mode
p1377
atp1378
a(L3100707227L
L3785322319L
(lp1379
(lp1380
Vverify_checksum
p1381
atp1382
a(L279608302L
L0L
(lp1383
(lp1384
tp1385
a(L3028464L
L0L
(lp1386
(lp1387
tp1388
a(L106L
L0L
(lp1389
(lp1390
tp1391
a(L3774139236L
L3785322319L
(lp1392
(lp1393
Vesp_log_early_timestamp
p1394
atp1395
a(L2074376433L
L0L
(lp1396
(lp1397
tp1398
a(L3020204L
L0L
(lp1399
(lp1400
tp1401
a(L3287840219L
L3785322319L
(lp1402
(lp1403
Vesp_cpu_in_ocd_debug_mode
p1404
atp1405
a(L3042111959L
L3785322319L
(lp1406
(lp1407
Vverify_simple_hash
p1408
atp1409
a(L3020204L
L0L
(lp1410
(lp1411
tp1412
a(L3688659868L
L3785322319L
(lp1413
(lp1414
Vbootloader_sha256_finish
p1415
atp1416
a(L3230798602L
L0L
(lp1417
(lp1418
tp1419
a(L84393073L
L3785322319L
(lp1420
(lp1421
Vbootloader_mmap
p1422
atp1423
a(L1461725474L
L3785322319L
(lp1424
(lp1425
Vbootloader_munmap
p1426
atp1427
a(L3028481L
L0L
(lp1428
(lp1429
tp1430
a(L3020187L
L0L
(lp1431
(lp1432
tp1433
a(L106L
L0L
(lp1434
(lp1435
tp1436
a(L106L
L0L
(lp1437
(lp1438
tp1439
a(L808845010L
L3785322319L
(lp1440
(lp1441
Vshould_load
p1442
atp1443
a(L3632402446L
L0L
(lp1444
(lp1445
tp1446
a(L4103406395L
L0L
(lp1447
(lp1448
tp1449
a(L4090611775L
L0L
(lp1450
(lp1451
tp1452
a(L4288375183L
L0L
(lp1453
(lp1454
tp1455
a(L3743228140L
L0L
(lp1456
(lp1457
tp1458
a(L1818239465L
L0L
(lp1459
(lp1460
tp1461
a(L2807720175L
L0L
(lp1462
(lp1463
tp1464
a(L3802069241L
L0L
(lp1465
(lp1466
tp1467
a(L2573310946L
L0L
(lp1468
(lp1469
tp1470
a(L106L
L0L
(lp1471
(lp1472
tp1473
a(L1304483917L
L0L
(lp1474
(lp1475
tp1476
a(L2258837437L
L0L
(lp1477
(lp1478
tp1479
a(L2902417580L
L0L
(lp1480
(lp1481
tp1482
a(L106L
L0L
(lp1483
(lp1484
tp1485
a(L1641201884L
L0L
(lp1486
(lp1487
tp1488
a(L702738956L
L0L
(lp1489
(lp1490
tp1491
a(L3020204L
L0L
(lp1492
(lp1493
tp1494
a(L3688659868L
L3785322319L
(lp1495
(lp1496
Vbootloader_sha256_finish
p1497
atp1498
a(L2075779526L
L0L
(lp1499
(lp1500
tp1501
a(L1235012901L
L0L
(lp1502
(lp1503
tp1504
a(L2810785764L
L0L
(lp1505
(lp1506
tp1507
a(L3360570486L
L0L
(lp1508
(lp1509
tp1510
atp1511
sI1074242136
(Vverify_image_header
p1512
(lp1513
(L171376062L
L0L
(lp1514
(lp1515
tp1516
a(L3028481L
L0L
(lp1517
(lp1518
tp1519
a(L2716102016L
L3785322319L
(lp1520
(lp1521
Vesp_log_early_timestamp
p1522
atp1523
a(L1299866312L
L0L
(lp1524
(lp1525
tp1526
a(L702738956L
L0L
(lp1527
(lp1528
tp1529
a(L3615160363L
L3785322319L
(lp1530
(lp1531
Vbootloader_common_check_chip_validity
p1532
atp1533
a(L702738956L
L0L
(lp1534
(lp1535
tp1536
a(L3028481L
L0L
(lp1537
(lp1538
tp1539
a(L3270243289L
L0L
(lp1540
(lp1541
tp1542
a(L2572607029L
L3785322319L
(lp1543
(lp1544
Vesp_log_early_timestamp
p1545
atp1546
a(L3355980489L
L0L
(lp1547
(lp1548
tp1549
a(L2682253109L
L3785322319L
(lp1550
(lp1551
Vesp_log_early_timestamp
p1552
atp1553
a(L3360570486L
L0L
(lp1554
(lp1555
tp1556
atp1557
sI1074241880
(Vverify_segment_header
p1558
(lp1559
(L3674778058L
L0L
(lp1560
(lp1561
tp1562
a(L3795436786L
L0L
(lp1563
(lp1564
tp1565
a(L3028481L
L0L
(lp1566
(lp1567
tp1568
a(L3977687288L
L3785322319L
(lp1569
(lp1570
Vesp_log_early_timestamp
p1571
atp1572
a(L310071262L
L0L
(lp1573
(lp1574
tp1575
a(L536784482L
L3785322319L
(lp1576
(lp1577
Vshould_map
p1578
atp1579
a(L3496178735L
L0L
(lp1580
(lp1581
tp1582
a(L2910371777L
L0L
(lp1583
(lp1584
tp1585
a(L990331827L
L3785322319L
(lp1586
(lp1587
Vesp_log_early_timestamp
p1588
atp1589
a(L310071262L
L0L
(lp1590
(lp1591
tp1592
a(L1299866312L
L0L
(lp1593
(lp1594
tp1595
a(L2258688482L
L0L
(lp1596
(lp1597
tp1598
a(L3360570486L
L0L
(lp1599
(lp1600
tp1601
atp1602
sI1074234712
(Vbootloader_flash_cs_timing_config
p1603
(lp1604
(L922979636L
L0L
(lp1605
(lp1606
tp1607
atp1608
sI1074246744
(Vrtc_clk_32k_enable_common
p1609
(lp1610
(L1242720404L
L0L
(lp1611
(lp1612
tp1613
atp1614
sI1074267752
(Vselected_boot_partition
p1615
(lp1616
(L2937841336L
L3785322319L
(lp1617
(lp1618
Vbootloader_utility_get_selected_boot_partition
p1619
atp1620
a(L2161672821L
L0L
(lp1621
(lp1622
tp1623
a(L3360570486L
L0L
(lp1624
(lp1625
tp1626
atp1627
sI1074240612
(Vbootloader_utility_get_selected_boot_partition
p1628
(lp1629
(L493075905L
L0L
(lp1630
(lp1631
tp1632
a(L1354991579L
L3785322319L
(lp1633
(lp1634
Vread_otadata
p1635
atp1636
a(L2867402026L
L3785322319L
(lp1637
(lp1638
Vbootloader_common_ota_select_invalid
p1639
atp1640
a(L1836822349L
L3785322319L
(lp1641
(lp1642
Vbootloader_common_ota_select_invalid
p1643
atp1644
a(L1103582223L
L0L
(lp1645
(lp1646
tp1647
a(L1434139642L
L0L
(lp1648
(lp1649
tp1650
a(L356763204L
L3785322319L
(lp1651
(lp1652
Vesp_log_early_timestamp
p1653
atp1654
a(L2249798943L
L3785322319L
(lp1655
(lp1656
Vesp_log_early_timestamp
p1657
atp1658
a(L1231013322L
L3785322319L
(lp1659
(lp1660
Vbootloader_common_ota_select_crc
p1661
atp1662
a(L505081345L
L0L
(lp1663
(lp1664
tp1665
a(L919052234L
L3785322319L
(lp1666
(lp1667
Vbootloader_common_ota_select_crc
p1668
atp1669
a(L1543946941L
L0L
(lp1670
(lp1671
tp1672
a(L1876827316L
L3785322319L
(lp1673
(lp1674
Vbootloader_common_get_active_otadata
p1675
atp1676
a(L2624014019L
L0L
(lp1677
(lp1678
tp1679
a(L1434139642L
L0L
(lp1680
(lp1681
tp1682
a(L3957781474L
L3785322319L
(lp1683
(lp1684
Vesp_log_early_timestamp
p1685
atp1686
a(L2376675742L
L3785322319L
(lp1687
(lp1688
Vesp_log_early_timestamp
p1689
atp1690
a(L1641201884L
L0L
(lp1691
(lp1692
tp1693
a(L2805938668L
L0L
(lp1694
(lp1695
tp1696
a(L3360570486L
L0L
(lp1697
(lp1698
tp1699
atp1700
sI1074240864
(Vbootloader_reset
p1701
(lp1702
(L3425357023L
L0L
(lp1703
(lp1704
tp1705
a(L103781224L
L0L
(lp1706
(lp1707
tp1708
atp1709
sI1074236768
(Vis_xmc_chip_strict
p1710
(lp1711
(L3238746245L
L0L
(lp1712
(lp1713
tp1714
a(L3028464L
L0L
(lp1715
(lp1716
tp1717
a(L1879955864L
L0L
(lp1718
(lp1719
tp1720
a(L1299866312L
L0L
(lp1721
(lp1722
tp1723
a(L209024199L
L0L
(lp1724
(lp1725
tp1726
a(L4093075049L
L0L
(lp1727
(lp1728
tp1729
a(L1299866312L
L0L
(lp1730
(lp1731
tp1732
a(L209917929L
L0L
(lp1733
(lp1734
tp1735
a(L245016591L
L0L
(lp1736
(lp1737
tp1738
a(L1299866312L
L0L
(lp1739
(lp1740
tp1741
a(L1299866312L
L0L
(lp1742
(lp1743
tp1744
a(L1299866343L
L0L
(lp1745
(lp1746
tp1747
a(L1299866343L
L0L
(lp1748
(lp1749
tp1750
a(L1299866312L
L0L
(lp1751
(lp1752
tp1753
a(L2258688483L
L0L
(lp1754
(lp1755
tp1756
a(L3360570486L
L0L
(lp1757
(lp1758
tp1759
atp1760
sI1074237792
(Vbootloader_flash_read_no_decrypt
p1761
(lp1762
(L581569905L
L1880226080L
(lp1763
(lp1764
Vesp_rom_spiflash_read
p1765
aVspi_to_esp_err
p1766
atp1767
atp1768
sI1074269024
(V__assert_func
p1769
(lp1770
(L2577339833L
L3785322319L
(lp1771
(lp1772
Vesp_log_early_timestamp
p1773
atp1774
a(L106L
L0L
(lp1775
(lp1776
tp1777
atp1778
sI1074239340
(Vlog_invalid_app_partition
p1779
(lp1780
(L3686132467L
L0L
(lp1781
(lp1782
tp1783
a(L3028464L
L0L
(lp1784
(lp1785
tp1786
a(L90812228L
L3785322319L
(lp1787
(lp1788
Vesp_log_early_timestamp
p1789
atp1790
a(L1504489145L
L3785322319L
(lp1791
(lp1792
Vesp_log_early_timestamp
p1793
atp1794
a(L444413052L
L3785322319L
(lp1795
(lp1796
Vesp_log_early_timestamp
p1797
atp1798
a(L3496950L
L0L
(lp1799
(lp1800
tp1801
atp1802
sI1074242668
(Vprocess_segment
p1803
(lp1804
(L465493436L
L3785322319L
(lp1805
(lp1806
Vbootloader_flash_read
p1807
atp1808
a(L4117411598L
L3785322319L
(lp1809
(lp1810
Vesp_log_early_timestamp
p1811
atp1812
a(L2378867762L
L0L
(lp1813
(lp1814
tp1815
a(L2241831349L
L3785322319L
(lp1816
(lp1817
Vbootloader_sha256_data
p1818
atp1819
a(L116518101L
L3785322319L
(lp1820
(lp1821
Vverify_segment_header
p1822
atp1823
a(L1173506670L
L0L
(lp1824
(lp1825
tp1826
a(L2910371777L
L0L
(lp1827
(lp1828
tp1829
a(L3265528973L
L3785322319L
(lp1830
(lp1831
Vesp_log_early_timestamp
p1832
atp1833
a(L310071262L
L0L
(lp1834
(lp1835
tp1836
a(L1396114142L
L3785322319L
(lp1837
(lp1838
Vshould_map
p1839
atp1840
a(L377540549L
L3785322319L
(lp1841
(lp1842
Vshould_load
p1843
atp1844
a(L2682686882L
L0L
(lp1845
(lp1846
tp1847
a(L264369637L
L0L
(lp1848
(lp1849
tp1850
a(L4267722531L
L0L
(lp1851
(lp1852
tp1853
a(L1477562579L
L0L
(lp1854
(lp1855
tp1856
a(L1145234265L
L3785322319L
(lp1857
(lp1858
Vesp_log_early_timestamp
p1859
atp1860
a(L2902417580L
L0L
(lp1861
(lp1862
tp1863
a(L568241505L
L0L
(lp1864
(lp1865
tp1866
a(L568242001L
L0L
(lp1867
(lp1868
tp1869
a(L1403803685L
L0L
(lp1870
(lp1871
tp1872
a(L2103891696L
L0L
(lp1873
(lp1874
tp1875
a(L3020204L
L0L
(lp1876
(lp1877
tp1878
a(L1835996274L
L0L
(lp1879
(lp1880
tp1881
a(L4134747623L
L0L
(lp1882
(lp1883
tp1884
a(L106L
L0L
(lp1885
(lp1886
tp1887
a(L1189963235L
L3785322319L
(lp1888
(lp1889
Vesp_log_early_timestamp
p1890
atp1891
a(L307668797L
L0L
(lp1892
(lp1893
tp1894
a(L105765708L
L3785322319L
(lp1895
(lp1896
V__assert_func
p1897
atp1898
a(L97642L
L0L
(lp1899
(lp1900
tp1901
a(L1814764641L
L3785322319L
(lp1902
(lp1903
V__assert_func
p1904
atp1905
a(L366123053L
L0L
(lp1906
(lp1907
tp1908
a(L2258867228L
L0L
(lp1909
(lp1910
tp1911
a(L1052660505L
L0L
(lp1912
(lp1913
tp1914
a(L1182990556L
L0L
(lp1915
(lp1916
tp1917
a(L2816536719L
L0L
(lp1918
(lp1919
tp1920
a(L299054750L
L3785322319L
(lp1921
(lp1922
Vesp_log_early_timestamp
p1923
atp1924
a(L397217552L
L3785322319L
(lp1925
(lp1926
Vbootloader_mmap_get_free_pages
p1927
atp1928
a(L1429983462L
L3785322319L
(lp1929
(lp1930
Vprocess_segment_data
p1931
atp1932
a(L1624476643L
L0L
(lp1933
(lp1934
tp1935
a(L3021737L
L0L
(lp1936
(lp1937
tp1938
a(L930693660L
L0L
(lp1939
(lp1940
tp1941
a(L1899940123L
L0L
(lp1942
(lp1943
tp1944
a(L3360570486L
L0L
(lp1945
(lp1946
tp1947
atp1948
sI1074244204
(Vesp_rom_spiflash_read_status
p1949
(lp1950
(L1642541540L
L0L
(lp1951
(lp1952
tp1953
a(L103781224L
L0L
(lp1954
(lp1955
tp1956
a(L3107600815L
L0L
(lp1957
(lp1958
tp1959
a(L2576859681L
L0L
(lp1960
(lp1961
tp1962
a(L935816171L
L0L
(lp1963
(lp1964
tp1965
a(L4159619641L
L0L
(lp1966
(lp1967
tp1968
a(L103781224L
L0L
(lp1969
(lp1970
tp1971
a(L3036114809L
L0L
(lp1972
(lp1973
tp1974
a(L4159619641L
L0L
(lp1975
(lp1976
tp1977
a(L185485269L
L0L
(lp1978
(lp1979
tp1980
atp1981
sI1074270308
(Vrtc_vddsdio_set_config
p1982
(lp1983
(L1509782275L
L0L
(lp1984
(lp1985
tp1986
atp1987
sI1074241396
(Vbootloader_sha256_start
p1988
(lp1989
(L3226038877L
L0L
(lp1990
(lp1991
tp1992
atp1993
sI1074248052
(Vrtc_clk_cpu_freq_mhz_to_config
p1994
(lp1995
(L2601984125L
L3785322319L
(lp1996
(lp1997
Vrtc_clk_xtal_freq_get
p1998
atp1999
a(L2647093801L
L0L
(lp2000
(lp2001
tp2002
a(L3263839434L
L0L
(lp2003
(lp2004
tp2005
a(L2762074623L
L0L
(lp2006
(lp2007
tp2008
a(L1541996779L
L0L
(lp2009
(lp2010
tp2011
a(L1546614651L
L0L
(lp2012
(lp2013
tp2014
a(L1555485793L
L0L
(lp2015
(lp2016
tp2017
a(L1695987314L
L0L
(lp2018
(lp2019
tp2020
a(L3652406074L
L0L
(lp2021
(lp2022
tp2023
a(L1943440144L
L0L
(lp2024
(lp2025
tp2026
a(L1299866312L
L0L
(lp2027
(lp2028
tp2029
a(L2258688482L
L0L
(lp2030
(lp2031
tp2032
a(L3360570486L
L0L
(lp2033
(lp2034
tp2035
atp2036
sI1074237296
(Vbootloader_common_check_chip_validity
p2037
(lp2038
(L4112384119L
L0L
(lp2039
(lp2040
tp2041
a(L286674125L
L3785322319L
(lp2042
(lp2043
Vesp_log_early_timestamp
p2044
atp2045
a(L1182901183L
L0L
(lp2046
(lp2047
tp2048
a(L2344894839L
L3785322319L
(lp2049
(lp2050
Vbootloader_common_get_chip_revision
p2051
atp2052
a(L3030060795L
L3785322319L
(lp2053
(lp2054
Vesp_log_early_timestamp
p2055
atp2056
a(L97422L
L0L
(lp2057
(lp2058
tp2059
a(L3287840219L
L3785322319L
(lp2060
(lp2061
Vesp_log_early_timestamp
p2062
atp2063
a(L4136876117L
L0L
(lp2064
(lp2065
tp2066
a(L4151320241L
L0L
(lp2067
(lp2068
tp2069
a(L1621868829L
L0L
(lp2070
(lp2071
tp2072
a(L464010095L
L0L
(lp2073
(lp2074
tp2075
atp2076
sI1074246512
(Vrtc_wdt_disable
p2077
(lp2078
(L4213431993L
L3785322319L
(lp2079
(lp2080
Vrtc_wdt_get_protect_status
p2081
atp2082
a(L94425498L
L3785322319L
(lp2083
(lp2084
Vrtc_wdt_protect_off
p2085
atp2086
a(L1896545947L
L2485746240L
(lp2087
(lp2088
Vrtc_wdt_set_stage
p2089
aVrtc_wdt_set_stage
p2090
aVrtc_wdt_set_stage
p2091
aVrtc_wdt_set_stage
p2092
atp2093
a(L1941091736L
L3785322319L
(lp2094
(lp2095
Vrtc_wdt_protect_on
p2096
atp2097
a(L3360570486L
L0L
(lp2098
(lp2099
tp2100
atp2101
sI1074247536
(Vrtc_clk_fast_freq_get
p2102
(lp2103
(L3549048653L
L0L
(lp2104
(lp2105
tp2106
atp2107
sI1074244988
(Vesp_rom_spiflash_erase_sector
p2108
(lp2109
(L680826645L
L0L
(lp2110
(lp2111
tp2112
a(L2372886619L
L3785322319L
(lp2113
(lp2114
Vesp_rom_spiflash_enable_write
p2115
atp2116
a(L1397887656L
L3785322319L
(lp2117
(lp2118
Vesp_rom_spiflash_erase_sector_internal
p2119
atp2120
a(L106L
L0L
(lp2121
(lp2122
tp2123
a(L1299866343L
L0L
(lp2124
(lp2125
tp2126
a(L1299866343L
L0L
(lp2127
(lp2128
tp2129
a(L2258688483L
L0L
(lp2130
(lp2131
tp2132
a(L3360570486L
L0L
(lp2133
(lp2134
tp2135
atp2136
sI1074239612
(Vset_actual_ota_seq
p2137
(lp2138
(L4094723830L
L0L
(lp2139
(lp2140
tp2141
a(L560452690L
L0L
(lp2142
(lp2143
tp2144
a(L1254815033L
L3785322319L
(lp2145
(lp2146
Vbootloader_common_ota_select_crc
p2147
atp2148
a(L3016870L
L0L
(lp2149
(lp2150
tp2151
a(L2175534482L
L0L
(lp2152
(lp2153
tp2154
a(L1139269215L
L0L
(lp2155
(lp2156
tp2157
a(L3028481L
L0L
(lp2158
(lp2159
tp2160
a(L2996572586L
L1880226080L
(lp2161
(lp2162
Vwrite_otadata
p2163
aVesp_log_early_timestamp
p2164
atp2165
a(L3360570486L
L0L
(lp2166
(lp2167
tp2168
atp2169
sI1074247292
(Vrtc_clk_8m_enabled
p2170
(lp2171
(L762781880L
L0L
(lp2172
(lp2173
tp2174
atp2175
sI1074248316
(Vrtc_clk_xtal_freq_update
p2176
(lp2177
(L3023300274L
L0L
(lp2178
(lp2179
tp2180
a(L3509357017L
L0L
(lp2181
(lp2182
tp2183
a(L3795065696L
L0L
(lp2184
(lp2185
tp2186
atp2187
sI1074237048
(Vbootloader_common_ota_select_crc
p2188
(lp2189
(L1467561936L
L0L
(lp2190
(lp2191
tp2192
atp2193
sI1074244740
(Vesp_rom_spiflash_program_page_internal
p2194
(lp2195
(L2773322937L
L0L
(lp2196
(lp2197
tp2198
a(L3904186990L
L0L
(lp2199
(lp2200
tp2201
a(L106L
L0L
(lp2202
(lp2203
tp2204
a(L2070875117L
L3785322319L
(lp2205
(lp2206
Vesp_rom_spiflash_wait_idle
p2207
atp2208
a(L530241438L
L3785322319L
(lp2209
(lp2210
Vesp_rom_spiflash_enable_write
p2211
atp2212
a(L1499276535L
L0L
(lp2213
(lp2214
tp2215
a(L681383261L
L0L
(lp2216
(lp2217
tp2218
a(L1639067348L
L0L
(lp2219
(lp2220
tp2221
a(L93837694L
L0L
(lp2222
(lp2223
tp2224
a(L322203091L
L0L
(lp2225
(lp2226
tp2227
a(L2250057226L
L0L
(lp2228
(lp2229
tp2230
a(L340944485L
L0L
(lp2231
(lp2232
tp2233
a(L3922957135L
L0L
(lp2234
(lp2235
tp2236
a(L1305407438L
L0L
(lp2237
(lp2238
tp2239
a(L1639067348L
L0L
(lp2240
(lp2241
tp2242
a(L3027019L
L0L
(lp2243
(lp2244
tp2245
a(L1243408381L
L0L
(lp2246
(lp2247
tp2248
a(L387849589L
L0L
(lp2249
(lp2250
tp2251
a(L2576859681L
L0L
(lp2252
(lp2253
tp2254
a(L3553944219L
L3785322319L
(lp2255
(lp2256
Vesp_rom_spiflash_wait_idle
p2257
atp2258
a(L3027007L
L0L
(lp2259
(lp2260
tp2261
a(L106L
L0L
(lp2262
(lp2263
tp2264
a(L1299866312L
L0L
(lp2265
(lp2266
tp2267
a(L1299866343L
L0L
(lp2268
(lp2269
tp2270
a(L1299866343L
L0L
(lp2271
(lp2272
tp2273
a(L2258688483L
L0L
(lp2274
(lp2275
tp2276
a(L3360570486L
L0L
(lp2277
(lp2278
tp2279
atp2280
sI1074270092
(Vrtc_vddsdio_get_config
p2281
(lp2282
(L388342366L
L0L
(lp2283
(lp2284
tp2285
a(L236607965L
L0L
(lp2286
(lp2287
tp2288
a(L3346847940L
L0L
(lp2289
(lp2290
tp2291
a(L2395535188L
L0L
(lp2292
(lp2293
tp2294
a(L1126075573L
L0L
(lp2295
(lp2296
tp2297
a(L3565178232L
L0L
(lp2298
(lp2299
tp2300
a(L3360570486L
L0L
(lp2301
(lp2302
tp2303
atp2304
sI1074247552
(Vrtc_clk_bbpll_configure
p2305
(lp2306
(L4270275352L
L0L
(lp2307
(lp2308
tp2309
a(L106L
L0L
(lp2310
(lp2311
tp2312
a(L3464316587L
L0L
(lp2313
(lp2314
tp2315
a(L83268344L
L0L
(lp2316
(lp2317
tp2318
a(L82344823L
L0L
(lp2319
(lp2320
tp2321
a(L1621647502L
L0L
(lp2322
(lp2323
tp2324
a(L751479153L
L0L
(lp2325
(lp2326
tp2327
a(L1901987811L
L0L
(lp2328
(lp2329
tp2330
a(L2588903510L
L0L
(lp2331
(lp2332
tp2333
a(L1791206078L
L0L
(lp2334
(lp2335
tp2336
a(L2421603226L
L0L
(lp2337
(lp2338
tp2339
a(L83268344L
L0L
(lp2340
(lp2341
tp2342
a(L82344823L
L0L
(lp2343
(lp2344
tp2345
a(L1621647502L
L0L
(lp2346
(lp2347
tp2348
a(L1672989725L
L0L
(lp2349
(lp2350
tp2351
a(L1988252919L
L0L
(lp2352
(lp2353
tp2354
a(L2613733930L
L0L
(lp2355
(lp2356
tp2357
a(L3398326874L
L0L
(lp2358
(lp2359
tp2360
a(L3894176505L
L3785322319L
(lp2361
(lp2362
Vrtc_clk_slow_freq_get
p2363
atp2364
a(L2679108412L
L0L
(lp2365
(lp2366
tp2367
a(L2780081410L
L0L
(lp2368
(lp2369
tp2370
a(L1937307535L
L0L
(lp2371
(lp2372
tp2373
atp2374
sI1074241420
(Vbootloader_sha256_data
p2375
(lp2376
(L4037466985L
L0L
(lp2377
(lp2378
tp2379
a(L812451094L
L3785322319L
(lp2380
(lp2381
V__assert_func
p2382
atp2383
a(L2660352519L
L0L
(lp2384
(lp2385
tp2386
a(L1607423730L
L3785322319L
(lp2387
(lp2388
V__assert_func
p2389
atp2390
a(L66409669L
L0L
(lp2391
(lp2392
tp2393
a(L1522849211L
L0L
(lp2394
(lp2395
tp2396
a(L2007160076L
L0L
(lp2397
(lp2398
tp2399
a(L1301713354L
L0L
(lp2400
(lp2401
tp2402
a(L2895000905L
L0L
(lp2403
(lp2404
tp2405
a(L3027019L
L0L
(lp2406
(lp2407
tp2408
a(L119955842L
L0L
(lp2409
(lp2410
tp2411
a(L3028464L
L0L
(lp2412
(lp2413
tp2414
a(L81739540L
L0L
(lp2415
(lp2416
tp2417
a(L174464152L
L0L
(lp2418
(lp2419
tp2420
a(L3028481L
L0L
(lp2421
(lp2422
tp2423
a(L477681720L
L0L
(lp2424
(lp2425
tp2426
atp2427
sI1074237068
(Vbootloader_common_ota_select_valid
p2428
(lp2429
(L1731214134L
L3785322319L
(lp2430
(lp2431
Vbootloader_common_ota_select_invalid
p2432
atp2433
a(L668323607L
L3785322319L
(lp2434
(lp2435
Vbootloader_common_ota_select_crc
p2436
atp2437
a(L1299866343L
L0L
(lp2438
(lp2439
tp2440
a(L1299866312L
L0L
(lp2441
(lp2442
tp2443
a(L2258688482L
L0L
(lp2444
(lp2445
tp2446
a(L3360570486L
L0L
(lp2447
(lp2448
tp2449
atp2450
sI1074236300
(Vbootloader_flash_xmc_startup
p2451
(lp2452
(L907480987L
L3785322319L
(lp2453
(lp2454
Vis_xmc_chip_strict
p2455
atp2456
a(L251905715L
L3785322319L
(lp2457
(lp2458
Vbootloader_flash_read_sfdp
p2459
atp2460
a(L106L
L0L
(lp2461
(lp2462
tp2463
a(L3280818598L
L267944800L
(lp2464
(lp2465
Vexecute_flash_command
p2466
aVexecute_flash_command
p2467
aVexecute_flash_command
p2468
aVexecute_flash_command
p2469
aVbootloader_read_flash_id
p2470
aVis_xmc_chip_strict
p2471
atp2472
a(L246938062L
L3785322319L
(lp2473
(lp2474
Vesp_log_early_timestamp
p2475
atp2476
a(L1299866312L
L0L
(lp2477
(lp2478
tp2479
a(L1299866312L
L0L
(lp2480
(lp2481
tp2482
a(L2258688482L
L0L
(lp2483
(lp2484
tp2485
a(L3360570486L
L0L
(lp2486
(lp2487
tp2488
atp2489
sI1074267780
(Vselect_partition_number
p2490
(lp2491
(L1731214134L
L3785322319L
(lp2492
(lp2493
Vbootloader_utility_load_partition_table
p2494
atp2495
a(L1837697588L
L3785322319L
(lp2496
(lp2497
Vesp_log_early_timestamp
p2498
atp2499
a(L1750549816L
L3785322319L
(lp2500
(lp2501
Vselected_boot_partition
p2502
atp2503
a(L3496950L
L0L
(lp2504
(lp2505
tp2506
atp2507
sI1074269060
(Vbootloader_init
p2508
(lp2509
(L2578592054L
L0L
(lp2510
(lp2511
tp2512
a(L581302695L
L0L
(lp2513
(lp2514
tp2515
a(L93837694L
L0L
(lp2516
(lp2517
tp2518
a(L2390524012L
L0L
(lp2519
(lp2520
tp2521
a(L156344622L
L3785322319L
(lp2522
(lp2523
V__assert_func
p2524
atp2525
a(L609682228L
L0L
(lp2526
(lp2527
tp2528
a(L830352338L
L3785322319L
(lp2529
(lp2530
V__assert_func
p2531
atp2532
a(L2579449770L
L0L
(lp2533
(lp2534
tp2535
a(L2312911895L
L3785322319L
(lp2536
(lp2537
V__assert_func
p2538
atp2539
a(L2647790324L
L0L
(lp2540
(lp2541
tp2542
a(L745264323L
L3785322319L
(lp2543
(lp2544
V__assert_func
p2545
atp2546
a(L1158300447L
L3785322319L
(lp2547
(lp2548
Vbootloader_main
p2549
atp2550
a(L1299867982L
L0L
(lp2551
(lp2552
tp2553
a(L3360570486L
L0L
(lp2554
(lp2555
tp2556
atp2557
sI1074241160
(Vindex_to_partition
p2558
(lp2559
(L4066096119L
L0L
(lp2560
(lp2561
tp2562
a(L2832575831L
L0L
(lp2563
(lp2564
tp2565
a(L2808906342L
L0L
(lp2566
(lp2567
tp2568
a(L4069312528L
L0L
(lp2569
(lp2570
tp2571
a(L2808826781L
L0L
(lp2572
(lp2573
tp2574
a(L2911029954L
L0L
(lp2575
(lp2576
tp2577
a(L1279225546L
L0L
(lp2578
(lp2579
tp2580
a(L1984670054L
L0L
(lp2581
(lp2582
tp2583
a(L395283387L
L0L
(lp2584
(lp2585
tp2586
atp2587
sI1074247060
(Vrtc_clk_32k_enable
p2588
(lp2589
(L753387299L
L0L
(lp2590
(lp2591
tp2592
a(L958782923L
L3785322319L
(lp2593
(lp2594
Vrtc_clk_32k_enable_common
p2595
atp2596
a(L3528263542L
L0L
(lp2597
(lp2598
tp2599
a(L477681720L
L0L
(lp2600
(lp2601
tp2602
atp2603
sI1074237588
(Vspi_to_esp_err
p2604
(lp2605
(L4037458691L
L0L
(lp2606
(lp2607
tp2608
a(L2902417580L
L0L
(lp2609
(lp2610
tp2611
a(L3020187L
L0L
(lp2612
(lp2613
tp2614
a(L1641201884L
L0L
(lp2615
(lp2616
tp2617
a(L310012176L
L0L
(lp2618
(lp2619
tp2620
a(L1299866312L
L0L
(lp2621
(lp2622
tp2623
a(L702737030L
L0L
(lp2624
(lp2625
tp2626
a(L3360570486L
L0L
(lp2627
(lp2628
tp2629
atp2630
sI1074237844
(Vbootloader_mmap
p2631
(lp2632
(L2594163932L
L0L
(lp2633
(lp2634
tp2635
a(L3651522543L
L3785322319L
(lp2636
(lp2637
Vesp_log_early_timestamp
p2638
atp2639
a(L198936494L
L0L
(lp2640
(lp2641
tp2642
a(L2359481093L
L3785322319L
(lp2643
(lp2644
Vesp_log_early_timestamp
p2645
atp2646
a(L1859133887L
L0L
(lp2647
(lp2648
tp2649
a(L1749171692L
L3785322319L
(lp2650
(lp2651
Vesp_log_early_timestamp
p2652
atp2653
a(L407277845L
L0L
(lp2654
(lp2655
tp2656
a(L477681720L
L0L
(lp2657
(lp2658
tp2659
atp2660
sI1074238100
(Vbootloader_flash_read
p2661
(lp2662
(L1127605422L
L0L
(lp2663
(lp2664
tp2665
a(L2085875711L
L3785322319L
(lp2666
(lp2667
Vesp_log_early_timestamp
p2668
atp2669
a(L899934477L
L0L
(lp2670
(lp2671
tp2672
a(L1537381885L
L3785322319L
(lp2673
(lp2674
Vesp_log_early_timestamp
p2675
atp2676
a(L2696885836L
L0L
(lp2677
(lp2678
tp2679
a(L628528440L
L3785322319L
(lp2680
(lp2681
Vesp_log_early_timestamp
p2682
atp2683
a(L3020204L
L0L
(lp2684
(lp2685
tp2686
a(L3107770098L
L3785322319L
(lp2687
(lp2688
Vbootloader_flash_read_allow_decrypt
p2689
atp2690
a(L2175061880L
L3785322319L
(lp2691
(lp2692
Vbootloader_flash_read_no_decrypt
p2693
atp2694
a(L3360570486L
L0L
(lp2695
(lp2696
tp2697
atp2698
sI1074240912
(Vbootloader_utility_load_boot_image
p2699
(lp2700
(L3583044102L
L0L
(lp2701
(lp2702
tp2703
a(L534474525L
L3785322319L
(lp2704
(lp2705
Vtry_load_partition
p2706
atp2707
a(L1346171890L
L3785322319L
(lp2708
(lp2709
Vload_image
p2710
atp2711
a(L3662849985L
L1880226080L
(lp2712
(lp2713
Vesp_log_early_timestamp
p2714
aVbootloader_reset
p2715
atp2716
a(L60323605L
L3785322319L
(lp2717
(lp2718
Vindex_to_partition
p2719
atp2720
a(L1412879912L
L3785322319L
(lp2721
(lp2722
Vcheck_anti_rollback
p2723
atp2724
a(L1255570883L
L3785322319L
(lp2725
(lp2726
Vtry_load_partition
p2727
atp2728
a(L170811925L
L1880226080L
(lp2729
(lp2730
Vset_actual_ota_seq
p2731
aVload_image
p2732
atp2733
a(L1391131227L
L3785322319L
(lp2734
(lp2735
Vlog_invalid_app_partition
p2736
atp2737
a(L11368960L
L0L
(lp2738
(lp2739
tp2740
a(L3802068281L
L0L
(lp2741
(lp2742
tp2743
a(L3021737L
L0L
(lp2744
(lp2745
tp2746
a(L4238347245L
L0L
(lp2747
(lp2748
tp2749
a(L3969617880L
L3785322319L
(lp2750
(lp2751
Vindex_to_partition
p2752
atp2753
a(L1412879912L
L3785322319L
(lp2754
(lp2755
Vcheck_anti_rollback
p2756
atp2757
a(L1255570883L
L3785322319L
(lp2758
(lp2759
Vtry_load_partition
p2760
atp2761
a(L2740298324L
L1880226080L
(lp2762
(lp2763
Vset_actual_ota_seq
p2764
aVload_image
p2765
atp2766
a(L1362502076L
L3785322319L
(lp2767
(lp2768
Vlog_invalid_app_partition
p2769
atp2770
a(L1799288861L
L0L
(lp2771
(lp2772
tp2773
a(L1508906068L
L0L
(lp2774
(lp2775
tp2776
a(L2528911837L
L3785322319L
(lp2777
(lp2778
Vtry_load_partition
p2779
atp2780
a(L1849241319L
L1880226080L
(lp2781
(lp2782
Vesp_log_early_timestamp
p2783
aVload_image
p2784
atp2785
a(L966515959L
L1880226080L
(lp2786
(lp2787
Vesp_log_early_timestamp
p2788
aVbootloader_reset
p2789
atp2790
atp2791
sI1074242448
(Vdebug_log_hash
p2792
(lp2793
(L2061764377L
L3785322319L
(lp2794
(lp2795
Vbootloader_sha256_hex_to_str
p2796
atp2797
atp2798
sI1074270864
(Vrtc_clk_cal_ratio
p2799
(lp2800
(L3583061729L
L3785322319L
(lp2801
(lp2802
Vrtc_clk_cal_internal
p2803
atp2804
atp2805
sI1074246300
(Vrtc_wdt_set_stage
p2806
(lp2807
(L1890082815L
L0L
(lp2808
(lp2809
tp2810
a(L1182990556L
L0L
(lp2811
(lp2812
tp2813
a(L1158671683L
L0L
(lp2814
(lp2815
tp2816
a(L1183020347L
L0L
(lp2817
(lp2818
tp2819
a(L1745934199L
L0L
(lp2820
(lp2821
tp2822
a(L2910371777L
L0L
(lp2823
(lp2824
tp2825
a(L1226745687L
L0L
(lp2826
(lp2827
tp2828
a(L3028464L
L0L
(lp2829
(lp2830
tp2831
a(L2289793589L
L0L
(lp2832
(lp2833
tp2834
a(L3028464L
L0L
(lp2835
(lp2836
tp2837
a(L1855599705L
L0L
(lp2838
(lp2839
tp2840
a(L3705262573L
L0L
(lp2841
(lp2842
tp2843
a(L2810785765L
L0L
(lp2844
(lp2845
tp2846
a(L3360570486L
L0L
(lp2847
(lp2848
tp2849
atp2850
sI1074269588
(Vrtc_clk_init
p2851
(lp2852
(L2066786339L
L0L
(lp2853
(lp2854
tp2855
a(L2721278908L
L3785322319L
(lp2856
(lp2857
Vrtc_clk_cpu_freq_to_xtal
p2858
atp2859
a(L820553223L
L0L
(lp2860
(lp2861
tp2862
a(L3136361094L
L0L
(lp2863
(lp2864
tp2865
a(L3224614952L
L0L
(lp2866
(lp2867
tp2868
a(L1893045958L
L0L
(lp2869
(lp2870
tp2871
a(L1299866312L
L0L
(lp2872
(lp2873
tp2874
a(L1182811811L
L0L
(lp2875
(lp2876
tp2877
a(L3020204L
L0L
(lp2878
(lp2879
tp2880
a(L1849746773L
L3785322319L
(lp2881
(lp2882
Vrtc_clk_xtal_freq_get
p2883
atp2884
a(L1375577398L
L3785322319L
(lp2885
(lp2886
Vrtc_clk_xtal_freq_estimate
p2887
atp2888
a(L4233814653L
L3785322319L
(lp2889
(lp2890
Vesp_log_early_timestamp
p2891
atp2892
a(L2489577179L
L0L
(lp2893
(lp2894
tp2895
a(L4233392623L
L0L
(lp2896
(lp2897
tp2898
a(L1300789833L
L0L
(lp2899
(lp2900
tp2901
a(L1300789833L
L0L
(lp2902
(lp2903
tp2904
a(L2258718274L
L0L
(lp2905
(lp2906
tp2907
a(L3028481L
L0L
(lp2908
(lp2909
tp2910
a(L3183127930L
L3785322319L
(lp2911
(lp2912
Vrtc_clk_xtal_freq_estimate
p2913
atp2914
a(L2705290648L
L3785322319L
(lp2915
(lp2916
Vesp_log_early_timestamp
p2917
atp2918
a(L2092736903L
L0L
(lp2919
(lp2920
tp2921
a(L2419184577L
L2485746240L
(lp2922
(lp2923
Vrtc_clk_xtal_freq_update
p2924
aVrtc_clk_apb_freq_update
p2925
aVrtc_clk_cpu_freq_get_config
p2926
aVrtc_clk_cpu_freq_mhz_to_config
p2927
atp2928
a(L42625808L
L1880226080L
(lp2929
(lp2930
Vesp_log_early_timestamp
p2931
aVabort
p2932
atp2933
a(L3979963265L
L3785322319L
(lp2934
(lp2935
Vrtc_clk_cpu_freq_set_config
p2936
atp2937
a(L4168829660L
L3785322319L
(lp2938
(lp2939
Vrtc_clk_32k_enable
p2940
atp2941
a(L3016870L
L0L
(lp2942
(lp2943
tp2944
a(L3687097263L
L3785322319L
(lp2945
(lp2946
Vrtc_clk_8m_enable
p2947
atp2948
a(L530469956L
L1880226080L
(lp2949
(lp2950
Vrtc_clk_fast_freq_set
p2951
aVrtc_clk_slow_freq_set
p2952
atp2953
atp2954
sI1074247320
(Vrtc_clk_8md256_enabled
p2955
(lp2956
(L619852148L
L0L
(lp2957
(lp2958
tp2959
atp2960
sI1074242476
(Vverify_simple_hash
p2961
(lp2962
(L3367871898L
L1832448559L
(lp2963
(lp2964
Vbootloader_sha256_finish
p2965
aVdebug_log_hash
p2966
aVbootloader_mmap
p2967
atp2968
a(L3906789258L
L1832448559L
(lp2969
(lp2970
Vesp_log_early_timestamp
p2971
aVdebug_log_hash
p2972
aVbootloader_munmap
p2973
atp2974
a(L1362502076L
L3785322319L
(lp2975
(lp2976
Vbootloader_munmap
p2977
atp2978
a(L3360570486L
L0L
(lp2979
(lp2980
tp2981
atp2982
sI1074248364
(Vrtc_clk_apb_freq_update
p2983
(lp2984
(L1669172228L
L0L
(lp2985
(lp2986
tp2987
atp2988
sI1074269368
(Vabort
p2989
(lp2990
(L1496783690L
L3785322319L
(lp2991
(lp2992
Vesp_cpu_in_ocd_debug_mode
p2993
atp2994
a(L409441471L
L0L
(lp2995
(lp2996
tp2997
a(L106L
L0L
(lp2998
(lp2999
tp3000
atp3001
sI1074237108
(Vbootloader_common_get_active_otadata
p3002
(lp3003
(L4066087859L
L0L
(lp3004
(lp3005
tp3006
a(L1924573730L
L1832448559L
(lp3007
(lp3008
Vbootloader_common_ota_select_valid
p3009
aVbootloader_common_ota_select_valid
p3010
aVbootloader_common_select_otadata
p3011
atp3012
a(L1299867982L
L0L
(lp3013
(lp3014
tp3015
a(L3360570486L
L0L
(lp3016
(lp3017
tp3018
atp3019
sI1074247348
(Vrtc_clk_slow_freq_set
p3020
(lp3021
(L1497633467L
L0L
(lp3022
(lp3023
tp3024
a(L1667750245L
L0L
(lp3025
(lp3026
tp3027
a(L2258688482L
L0L
(lp3028
(lp3029
tp3030
a(L1854728206L
L0L
(lp3031
(lp3032
tp3033
atp3034
sI1074270384
(Vrtc_clk_cal_internal
p3035
(lp3036
(L2785543047L
L0L
(lp3037
(lp3038
tp3039
a(L2344137504L
L3785322319L
(lp3040
(lp3041
V__assert_func
p3042
atp3043
a(L209486870L
L0L
(lp3044
(lp3045
tp3046
a(L1979498901L
L0L
(lp3047
(lp3048
tp3049
a(L3028464L
L0L
(lp3050
(lp3051
tp3052
a(L763236212L
L0L
(lp3053
(lp3054
tp3055
a(L401232362L
L0L
(lp3056
(lp3057
tp3058
a(L1352009054L
L0L
(lp3059
(lp3060
tp3061
a(L97422L
L0L
(lp3062
(lp3063
tp3064
a(L2120918540L
L0L
(lp3065
(lp3066
tp3067
a(L1601852492L
L0L
(lp3068
(lp3069
tp3070
a(L3900101330L
L0L
(lp3071
(lp3072
tp3073
a(L3900101330L
L0L
(lp3074
(lp3075
tp3076
a(L3900101454L
L0L
(lp3077
(lp3078
tp3079
a(L3450945696L
L0L
(lp3080
(lp3081
tp3082
a(L1277380815L
L3785322319L
(lp3083
(lp3084
Vrtc_clk_xtal_freq_get
p3085
atp3086
a(L2780079961L
L0L
(lp3087
(lp3088
tp3089
a(L2007867703L
L0L
(lp3090
(lp3091
tp3092
a(L2257879593L
L3785322319L
(lp3093
(lp3094
Vesp_log_early_timestamp
p3095
atp3096
a(L156175342L
L0L
(lp3097
(lp3098
tp3099
a(L2356680430L
L0L
(lp3100
(lp3101
tp3102
a(L679754467L
L0L
(lp3103
(lp3104
tp3105
a(L3021737L
L0L
(lp3106
(lp3107
tp3108
a(L3589052772L
L0L
(lp3109
(lp3110
tp3111
a(L524443757L
L0L
(lp3112
(lp3113
tp3114
a(L2902417580L
L0L
(lp3115
(lp3116
tp3117
a(L328775236L
L0L
(lp3118
(lp3119
tp3120
a(L2258688482L
L0L
(lp3121
(lp3122
tp3123
a(L3360570486L
L0L
(lp3124
(lp3125
tp3126
atp3127
sI1074270896
(Vrtc_clk_wait_for_slow_cycle
p3128
(lp3129
(L797800852L
L0L
(lp3130
(lp3131
tp3132
a(L2228660230L
L0L
(lp3133
(lp3134
tp3135
a(L679753971L
L0L
(lp3136
(lp3137
tp3138
a(L3360570486L
L0L
(lp3139
(lp3140
tp3141
atp3142
sI1074236860
(Vesp_log_early_timestamp
p3143
(lp3144
(L2465094177L
L0L
(lp3145
(lp3146
tp3147
atp3148
sI1074267828
(Vcall_start_cpu0
p3149
(lp3150
(L2311976169L
L3785322319L
(lp3151
(lp3152
Vbootloader_init
p3153
atp3154
a(L3827921190L
L3785322319L
(lp3155
(lp3156
Vbootloader_reset
p3157
atp3158
a(L4083304126L
L3785322319L
(lp3159
(lp3160
Vselect_partition_number
p3161
atp3162
a(L94425498L
L3785322319L
(lp3163
(lp3164
Vbootloader_reset
p3165
atp3166
a(L1678595755L
L3785322319L
(lp3167
(lp3168
Vbootloader_utility_load_boot_image
p3169
atp3170
atp3171
sI1074237624
(Vbootloader_flash_read_allow_decrypt
p3172
(lp3173
(L3621096500L
L0L
(lp3174
(lp3175
tp3176
a(L1406929297L
L0L
(lp3177
(lp3178
tp3179
a(L315414249L
L0L
(lp3180
(lp3181
tp3182
a(L2247663932L
L3785322319L
(lp3183
(lp3184
Vesp_log_early_timestamp
p3185
atp3186
a(L2662382273L
L0L
(lp3187
(lp3188
tp3189
a(L3087968042L
L0L
(lp3190
(lp3191
tp3192
a(L2538932552L
L0L
(lp3193
(lp3194
tp3195
a(L106L
L0L
(lp3196
(lp3197
tp3198
a(L2258688482L
L0L
(lp3199
(lp3200
tp3201
a(L477681720L
L0L
(lp3202
(lp3203
tp3204
atp3205
sI1074246072
(Vrtc_wdt_get_protect_status
p3206
(lp3207
(L1851824600L
L0L
(lp3208
(lp3209
tp3210
atp3211
sI1074248888
(Vrtc_clk_apb_freq_get
p3212
(lp3213
(L3667312403L
L0L
(lp3214
(lp3215
tp3216
atp3217
sI1074238404
(Vbootloader_flash_erase_sector
p3218
(lp3219
(L4129137686L
L1880226080L
(lp3220
(lp3221
Vesp_rom_spiflash_erase_sector
p3222
aVspi_to_esp_err
p3223
atp3224
atp3225
sI1074239428
(Vread_otadata
p3226
(lp3227
(L3233392553L
L0L
(lp3228
(lp3229
tp3230
a(L1425341776L
L0L
(lp3231
(lp3232
tp3233
a(L3366121590L
L3785322319L
(lp3234
(lp3235
Vesp_log_early_timestamp
p3236
atp3237
a(L566230772L
L3785322319L
(lp3238
(lp3239
Vbootloader_mmap
p3240
atp3241
a(L3641189915L
L3785322319L
(lp3242
(lp3243
Vesp_log_early_timestamp
p3244
atp3245
a(L3241021226L
L3785322319L
(lp3246
(lp3247
Vbootloader_munmap
p3248
atp3249
a(L2810785768L
L0L
(lp3250
(lp3251
tp3252
a(L3360570486L
L0L
(lp3253
(lp3254
tp3255
atp3256
sI1074240196
(Vload_image
p3257
(lp3258
(L1261593556L
L1832448559L
(lp3259
(lp3260
Vesp_log_early_timestamp
p3261
aVbootloader_random_disable
p3262
aVunpack_load_app
p3263
atp3264
atp3265
sI1074241984
(Vverify_checksum
p3266
(lp3267
(L2404488809L
L3785322319L
(lp3268
(lp3269
Vbootloader_flash_read
p3270
atp3271
a(L1157599656L
L3785322319L
(lp3272
(lp3273
Vesp_log_early_timestamp
p3274
atp3275
a(L3020204L
L0L
(lp3276
(lp3277
tp3278
a(L2547710365L
L3785322319L
(lp3279
(lp3280
Vbootloader_sha256_data
p3281
atp3282
a(L4124473353L
L0L
(lp3283
(lp3284
tp3285
a(L1223427414L
L0L
(lp3286
(lp3287
tp3288
a(L4270503677L
L0L
(lp3289
(lp3290
tp3291
a(L477681720L
L0L
(lp3292
(lp3293
tp3294
atp3295
sI1074234828
(Vbootloader_flash_gpio_config
p3296
(lp3297
(L2421374338L
L0L
(lp3298
(lp3299
tp3300
a(L1299866374L
L0L
(lp3301
(lp3302
tp3303
a(L2258688485L
L0L
(lp3304
(lp3305
tp3306
a(L3994737887L
L0L
(lp3307
(lp3308
tp3309
a(L1027959662L
L0L
(lp3310
(lp3311
tp3312
a(L3028464L
L0L
(lp3313
(lp3314
tp3315
a(L1027959662L
L0L
(lp3316
(lp3317
tp3318
a(L3028464L
L0L
(lp3319
(lp3320
tp3321
a(L1027959662L
L0L
(lp3322
(lp3323
tp3324
a(L1620391664L
L0L
(lp3325
(lp3326
tp3327
a(L2823660977L
L0L
(lp3328
(lp3329
tp3330
a(L2854935024L
L0L
(lp3331
(lp3332
tp3333
a(L477681720L
L0L
(lp3334
(lp3335
tp3336
atp3337
sI1074245320
(Vesp_rom_spiflash_write_encrypted
p3338
(lp3339
(L2711657322L
L0L
(lp3340
(lp3341
tp3342
a(L2663131359L
L0L
(lp3343
(lp3344
tp3345
a(L865028862L
L0L
(lp3346
(lp3347
tp3348
a(L3321984142L
L0L
(lp3349
(lp3350
tp3351
a(L4068652995L
L3785322319L
(lp3352
(lp3353
Vesp_rom_spiflash_write
p3354
atp3355
a(L1856606745L
L0L
(lp3356
(lp3357
tp3358
a(L2924646260L
L0L
(lp3359
(lp3360
tp3361
a(L1589912661L
L0L
(lp3362
(lp3363
tp3364
a(L1299866343L
L0L
(lp3365
(lp3366
tp3367
a(L2258688483L
L0L
(lp3368
(lp3369
tp3370
a(L3360570486L
L0L
(lp3371
(lp3372
tp3373
atp3374
sI1074248392
(Vrtc_clk_cpu_freq_to_xtal
p3375
(lp3376
(L2807073884L
L3785322319L
(lp3377
(lp3378
Vrtc_clk_apb_freq_update
p3379
atp3380
a(L4097939576L
L0L
(lp3381
(lp3382
tp3383
a(L137634225L
L0L
(lp3384
(lp3385
tp3386
a(L477681720L
L0L
(lp3387
(lp3388
tp3389
atp3390
sI1074246100
(Vrtc_wdt_protect_off
p3391
(lp3392
(L3414483312L
L0L
(lp3393
(lp3394
tp3395
atp3396
sI1074247124
(Vrtc_clk_8m_enable
p3397
(lp3398
(L1474360438L
L0L
(lp3399
(lp3400
tp3401
a(L477649986L
L0L
(lp3402
(lp3403
tp3404
a(L1278376592L
L0L
(lp3405
(lp3406
tp3407
a(L2884435806L
L0L
(lp3408
(lp3409
tp3410
a(L2163474646L
L0L
(lp3411
(lp3412
tp3413
a(L3073463967L
L0L
(lp3414
(lp3415
tp3416
a(L477681720L
L0L
(lp3417
(lp3418
tp3419
atp3420
sI1074268624
(Vupdate_flash_config
p3421
(lp3422
(L2363123660L
L0L
(lp3423
(lp3424
tp3425
a(L604335882L
L0L
(lp3426
(lp3427
tp3428
a(L2258688484L
L0L
(lp3429
(lp3430
tp3431
a(L1002360078L
L0L
(lp3432
(lp3433
tp3434
atp3435
sI1074246620
(Vrtc_wdt_set_length_of_reset_signal
p3436
(lp3437
(L1890082815L
L0L
(lp3438
(lp3439
tp3440
a(L1182990556L
L0L
(lp3441
(lp3442
tp3443
a(L1158671683L
L0L
(lp3444
(lp3445
tp3446
a(L1183020347L
L0L
(lp3447
(lp3448
tp3449
a(L1745934199L
L0L
(lp3450
(lp3451
tp3452
a(L2910371777L
L0L
(lp3453
(lp3454
tp3455
a(L3452973651L
L0L
(lp3456
(lp3457
tp3458
a(L2094323404L
L0L
(lp3459
(lp3460
tp3461
a(L2810785765L
L0L
(lp3462
(lp3463
tp3464
a(L3360570486L
L0L
(lp3465
(lp3466
tp3467
atp3468
sI1074248156
(Vrtc_clk_cpu_freq_get_config
p3469
(lp3470
(L405242576L
L0L
(lp3471
(lp3472
tp3473
a(L2902417580L
L0L
(lp3474
(lp3475
tp3476
a(L3020187L
L0L
(lp3477
(lp3478
tp3479
a(L106L
L0L
(lp3480
(lp3481
tp3482
a(L1032874007L
L3785322319L
(lp3483
(lp3484
Vrtc_clk_xtal_freq_get
p3485
atp3486
a(L1031411839L
L0L
(lp3487
(lp3488
tp3489
a(L3020187L
L0L
(lp3490
(lp3491
tp3492
a(L3020187L
L0L
(lp3493
(lp3494
tp3495
a(L1882579662L
L1880226080L
(lp3496
(lp3497
Vesp_log_early_timestamp
p3498
aVabort
p3499
atp3500
a(L1882579662L
L1880226080L
(lp3501
(lp3502
Vesp_log_early_timestamp
p3503
aVabort
p3504
atp3505
a(L2637615626L
L0L
(lp3506
(lp3507
tp3508
a(L2816701179L
L0L
(lp3509
(lp3510
tp3511
a(L883419018L
L0L
(lp3512
(lp3513
tp3514
a(L791693831L
L0L
(lp3515
(lp3516
tp3517
a(L161850527L
L0L
(lp3518
(lp3519
tp3520
atp3521
sI1074244312
(Vesp_rom_spiflash_wait_idle
p3522
(lp3523
(L287326052L
L0L
(lp3524
(lp3525
tp3526
a(L2663764559L
L0L
(lp3527
(lp3528
tp3529
a(L3844999098L
L0L
(lp3530
(lp3531
tp3532
a(L855829385L
L3785322319L
(lp3533
(lp3534
Vesp_rom_spiflash_read_status
p3535
atp3536
a(L1298875774L
L0L
(lp3537
(lp3538
tp3539
a(L735741265L
L0L
(lp3540
(lp3541
tp3542
atp3543
sI1074238424
(Vbootloader_mmap_get_free_pages
p3544
(lp3545
(L1496516875L
L0L
(lp3546
(lp3547
tp3548
atp3549
sI1074235608
(Vbootloader_flash_execute_command_common
p3550
(lp3551
(L3093683517L
L0L
(lp3552
(lp3553
tp3554
a(L3553389917L
L3785322319L
(lp3555
(lp3556
V__assert_func
p3557
atp3558
a(L3934048903L
L0L
(lp3559
(lp3560
tp3561
a(L200507376L
L3785322319L
(lp3562
(lp3563
V__assert_func
p3564
atp3565
a(L271654967L
L0L
(lp3566
(lp3567
tp3568
a(L3677736035L
L0L
(lp3569
(lp3570
tp3571
a(L2720116201L
L0L
(lp3572
(lp3573
tp3574
a(L3806236591L
L0L
(lp3575
(lp3576
tp3577
a(L2053727415L
L0L
(lp3578
(lp3579
tp3580
a(L3056583676L
L0L
(lp3581
(lp3582
tp3583
a(L1547960474L
L0L
(lp3584
(lp3585
tp3586
a(L2258807646L
L0L
(lp3587
(lp3588
tp3589
a(L363225620L
L0L
(lp3590
(lp3591
tp3592
a(L2429435869L
L0L
(lp3593
(lp3594
tp3595
a(L2258807646L
L0L
(lp3596
(lp3597
tp3598
a(L1947718374L
L0L
(lp3599
(lp3600
tp3601
a(L3541824727L
L0L
(lp3602
(lp3603
tp3604
a(L96352870L
L0L
(lp3605
(lp3606
tp3607
a(L3172016656L
L0L
(lp3608
(lp3609
tp3610
a(L477681720L
L0L
(lp3611
(lp3612
tp3613
atp3614
sI1074240228
(Vbootloader_utility_load_partition_table
p3615
(lp3616
(L2304595928L
L3785322319L
(lp3617
(lp3618
Vbootloader_mmap
p3619
atp3620
a(L440001179L
L3785322319L
(lp3621
(lp3622
Vesp_log_early_timestamp
p3623
atp3624
a(L2772313617L
L3785322319L
(lp3625
(lp3626
Vesp_partition_table_verify
p3627
atp3628
a(L3641489746L
L3785322319L
(lp3629
(lp3630
Vesp_log_early_timestamp
p3631
atp3632
a(L2379869612L
L1880226080L
(lp3633
(lp3634
Vesp_log_early_timestamp
p3635
aVesp_log_early_timestamp
p3636
atp3637
a(L1941612774L
L0L
(lp3638
(lp3639
tp3640
a(L3020187L
L0L
(lp3641
(lp3642
tp3643
a(L826379074L
L0L
(lp3644
(lp3645
tp3646
a(L3732412336L
L0L
(lp3647
(lp3648
tp3649
a(L3020187L
L0L
(lp3650
(lp3651
tp3652
a(L106L
L0L
(lp3653
(lp3654
tp3655
a(L4063433566L
L0L
(lp3656
(lp3657
tp3658
a(L396076987L
L0L
(lp3659
(lp3660
tp3661
a(L2893469516L
L0L
(lp3662
(lp3663
tp3664
a(L3433834275L
L0L
(lp3665
(lp3666
tp3667
a(L3999773648L
L0L
(lp3668
(lp3669
tp3670
a(L2051104840L
L0L
(lp3671
(lp3672
tp3673
a(L826379570L
L0L
(lp3674
(lp3675
tp3676
a(L826377276L
L0L
(lp3677
(lp3678
tp3679
a(L1762459499L
L3785322319L
(lp3680
(lp3681
Vesp_log_early_timestamp
p3682
atp3683
a(L846653465L
L0L
(lp3684
(lp3685
tp3686
a(L106L
L0L
(lp3687
(lp3688
tp3689
a(L111767836L
L1880226080L
(lp3690
(lp3691
Vbootloader_munmap
p3692
aVesp_log_early_timestamp
p3693
atp3694
a(L3360570486L
L0L
(lp3695
(lp3696
tp3697
atp3698
sI1074246884
(Vrtc_clk_bbpll_disable
p3699
(lp3700
(L1090240395L
L0L
(lp3701
(lp3702
tp3703
a(L1085782834L
L0L
(lp3704
(lp3705
tp3706
a(L477681720L
L0L
(lp3707
(lp3708
tp3709
atp3710
sI1074267884
(Vwdt_reset_cpu0_info_enable
p3711
(lp3712
(L3315180960L
L0L
(lp3713
(lp3714
tp3715
atp3716
sI1074236896
(Vbootloader_clock_configure
p3717
(lp3718
(L3493042567L
L0L
(lp3719
(lp3720
tp3721
a(L4281448847L
L0L
(lp3722
(lp3723
tp3724
a(L1229860772L
L0L
(lp3725
(lp3726
tp3727
a(L1518940034L
L0L
(lp3728
(lp3729
tp3730
a(L1812928027L
L0L
(lp3731
(lp3732
tp3733
a(L1812928027L
L0L
(lp3734
(lp3735
tp3736
a(L2312970590L
L0L
(lp3737
(lp3738
tp3739
a(L1078467617L
L1832448559L
(lp3740
(lp3741
Vrtc_clk_slow_freq_get
p3742
aVrtc_clk_fast_freq_get
p3743
aVrtc_clk_init
p3744
atp3745
atp3746
sI1074238432
(Vbootloader_fill_random
p3747
(lp3748
(L4037466985L
L0L
(lp3749
(lp3750
tp3751
a(L960226728L
L3785322319L
(lp3752
(lp3753
V__assert_func
p3754
atp3755
a(L3020204L
L0L
(lp3756
(lp3757
tp3758
a(L607245337L
L0L
(lp3759
(lp3760
tp3761
a(L789392429L
L0L
(lp3762
(lp3763
tp3764
a(L2889921384L
L0L
(lp3765
(lp3766
tp3767
a(L3892333225L
L0L
(lp3768
(lp3769
tp3770
a(L1298875773L
L0L
(lp3771
(lp3772
tp3773
a(L448827677L
L0L
(lp3774
(lp3775
tp3776
a(L3360570486L
L0L
(lp3777
(lp3778
tp3779
atp3780
sI1074241248
(Vcheck_anti_rollback
p3781
(lp3782
(L786711473L
L0L
(lp3783
(lp3784
tp3785
atp3786
sI1074242272
(Vprocess_segment_data
p3787
(lp3788
(L3944694151L
L3785322319L
(lp3789
(lp3790
Vbootloader_mmap
p3791
atp3792
a(L1026710243L
L3785322319L
(lp3793
(lp3794
Vesp_log_early_timestamp
p3795
atp3796
a(L1050403375L
L3785322319L
(lp3797
(lp3798
Vbootloader_fill_random
p3799
atp3800
a(L145327846L
L0L
(lp3801
(lp3802
tp3803
a(L149021930L
L0L
(lp3804
(lp3805
tp3806
a(L1299866312L
L0L
(lp3807
(lp3808
tp3809
a(L2008416411L
L0L
(lp3810
(lp3811
tp3812
a(L3016870L
L0L
(lp3813
(lp3814
tp3815
a(L4227362560L
L0L
(lp3816
(lp3817
tp3818
a(L512200428L
L0L
(lp3819
(lp3820
tp3821
a(L731312119L
L0L
(lp3822
(lp3823
tp3824
a(L2902417580L
L0L
(lp3825
(lp3826
tp3827
a(L2505185480L
L0L
(lp3828
(lp3829
tp3830
a(L3497074506L
L3785322319L
(lp3831
(lp3832
Vbootloader_sha256_data
p3833
atp3834
a(L1770629922L
L0L
(lp3835
(lp3836
tp3837
a(L3896226538L
L0L
(lp3838
(lp3839
tp3840
a(L74549926L
L3785322319L
(lp3841
(lp3842
Vbootloader_munmap
p3843
atp3844
a(L3360570486L
L0L
(lp3845
(lp3846
tp3847
atp3848
sI1074239724
(Vtry_load_partition
p3849
(lp3850
(L3877261386L
L0L
(lp3851
(lp3852
tp3853
a(L2260359711L
L3785322319L
(lp3854
(lp3855
Vbootloader_load_image
p3856
atp3857
a(L4143673232L
L3785322319L
(lp3858
(lp3859
Vesp_log_early_timestamp
p3860
atp3861
a(L1299866312L
L0L
(lp3862
(lp3863
tp3864
a(L2258688482L
L0L
(lp3865
(lp3866
tp3867
a(L3360570486L
L0L
(lp3868
(lp3869
tp3870
atp3871
sI1074237164
(Vbootloader_common_vddsdio_configure
p3872
(lp3873
(L1829974089L
L3785322319L
(lp3874
(lp3875
Vrtc_vddsdio_get_config
p3876
atp3877
a(L2697960163L
L3785322319L
(lp3878
(lp3879
Vrtc_vddsdio_set_config
p3880
atp3881
a(L3360570486L
L0L
(lp3882
(lp3883
tp3884
atp3885
sI1074269412
(Vrtc_clk_xtal_freq_estimate
p3886
(lp3887
(L2516060585L
L1880226080L
(lp3888
(lp3889
Vrtc_clk_8m_enabled
p3890
aVrtc_clk_8md256_enabled
p3891
atp3892
a(L967485502L
L3785322319L
(lp3893
(lp3894
Vrtc_clk_8m_enable
p3895
atp3896
a(L59032741L
L3785322319L
(lp3897
(lp3898
Vrtc_clk_cal_ratio
p3899
atp3900
a(L1789153894L
L0L
(lp3901
(lp3902
tp3903
a(L3390943589L
L3785322319L
(lp3904
(lp3905
Vesp_log_early_timestamp
p3906
atp3907
a(L3360570486L
L0L
(lp3908
(lp3909
tp3910
atp3911
sI1074241256
(Vbootloader_sha256_hex_to_str
p3912
(lp3913
(L801955396L
L0L
(lp3914
(lp3915
tp3916
a(L97422L
L0L
(lp3917
(lp3918
tp3919
a(L106L
L0L
(lp3920
(lp3921
tp3922
a(L201281358L
L0L
(lp3923
(lp3924
tp3925
a(L1611366926L
L0L
(lp3926
(lp3927
tp3928
a(L1298905568L
L0L
(lp3929
(lp3930
tp3931
a(L1295154486L
L0L
(lp3932
(lp3933
tp3934
a(L653486314L
L0L
(lp3935
(lp3936
tp3937
a(L570035801L
L0L
(lp3938
(lp3939
tp3940
a(L1274998775L
L0L
(lp3941
(lp3942
tp3943
a(L2258897019L
L0L
(lp3944
(lp3945
tp3946
a(L3027007L
L0L
(lp3947
(lp3948
tp3949
a(L4126803969L
L0L
(lp3950
(lp3951
tp3952
a(L448827677L
L0L
(lp3953
(lp3954
tp3955
a(L1299866312L
L0L
(lp3956
(lp3957
tp3958
a(L1235012901L
L0L
(lp3959
(lp3960
tp3961
a(L2810785765L
L0L
(lp3962
(lp3963
tp3964
a(L3360570486L
L0L
(lp3965
(lp3966
tp3967
atp3968
sI1074245096
(Vesp_rom_spiflash_write
p3969
(lp3970
(L2255951518L
L0L
(lp3971
(lp3972
tp3973
a(L106L
L0L
(lp3974
(lp3975
tp3976
a(L38049871L
L0L
(lp3977
(lp3978
tp3979
a(L3355210049L
L3785322319L
(lp3980
(lp3981
Vesp_rom_spiflash_program_page_internal
p3982
atp3983
a(L106L
L0L
(lp3984
(lp3985
tp3986
a(L573580287L
L3785322319L
(lp3987
(lp3988
Vesp_rom_spiflash_program_page_internal
p3989
atp3990
a(L1892573392L
L0L
(lp3991
(lp3992
tp3993
a(L1047126152L
L3785322319L
(lp3994
(lp3995
Vesp_rom_spiflash_program_page_internal
p3996
atp3997
a(L850197805L
L0L
(lp3998
(lp3999
tp4000
a(L4159629294L
L0L
(lp4001
(lp4002
tp4003
a(L1032424328L
L3785322319L
(lp4004
(lp4005
Vesp_rom_spiflash_program_page_internal
p4006
atp4007
a(L106L
L0L
(lp4008
(lp4009
tp4010
a(L1299866343L
L0L
(lp4011
(lp4012
tp4013
a(L1299866343L
L0L
(lp4014
(lp4015
tp4016
a(L1299866343L
L0L
(lp4017
(lp4018
tp4019
a(L1299866343L
L0L
(lp4020
(lp4021
tp4022
a(L2258688483L
L0L
(lp4023
(lp4024
tp4025
a(L3360570486L
L0L
(lp4026
(lp4027
tp4028
atp4029
sI1074246120
(Vrtc_wdt_protect_on
p4030
(lp4031
(L2462398937L
L0L
(lp4032
(lp4033
tp4034
atp4035
sI1074246140
(Vrtc_wdt_enable
p4036
(lp4037
(L2003710833L
L0L
(lp4038
(lp4039
tp4040
atp4041
sI1074268404
(Vuart_console_configure
p4042
(lp4043
(L3427826548L
L0L
(lp4044
(lp4045
tp4046
a(L2092736903L
L0L
(lp4047
(lp4048
tp4049
a(L4185365725L
L3785322319L
(lp4050
(lp4051
Vrtc_clk_apb_freq_get
p4052
atp4053
atp4054
ssS'functionsdups'
p4055
g11
((lp4056
tp4057
Rp4058
sS'immediatedups'
p4059
g11
((lp4060
tp4061
Rp4062
sS'functiondups'
p4063
g11
((lp4064
tp4065
Rp4066
sS'fuzzy'
p4067
(dp4068
L1536L
I1074240864
sL4061702297L
I1074244312
sL430153639L
I1074242592
sL1655084846L
I1074244988
sL4289748025L
I1074237844
sL45806640L
I1074241832
sL2479661889L
I1074246512
sL3538491111L
I1074248392
sL3669996080L
I1074237296
sL4155208228L
I1074239428
sL1370598945L
I1074240228
sL2661072904L
I1074240912
sL2281838360L
I1074240612
sL1845968921L
I1074237624
sL2834878951L
I1074238100
sL313524880L
I1074238244
sL3061747165L
I1074236300
sL1205197046L
I1074239612
sL3110146889L
I1074240004
sL3802805760L
I1074241256
sL4031437920L
I1074244364
sL1014503250L
I1074244672
sL3270437317L
I1074236452
sL4059437021L
I1074248796
sL1338770016L
I1074241420
sL1892234469L
I1074244740
sL2914853138L
I1074237068
sL3803452955L
I1074243868
sL4103879596L
I1074242668
sL3249905159L
I1074241984
sL2738222727L
I1074248156
sL4134193241L
I1074242476
sL275633497L
I1074269060
sL3697242601L
I1074245320
sL2819663145L
I1074248052
sL2874826336L
I1074235608
sL2662108055L
I1074237108
sL1634949710L
I1074245096
sL1383394121L
I1074270384
sL3948451046L
I1074241596
sL2935879234L
I1074236244
sL512571597L
I1074267828
sL3504571296L
I1074243160
sL578413630L
I1074242136
sL3210669721L
I1074247060
sL533883930L
I1074268460
sL2281126695L
I1074244432
sL4160102055L
I1074269024
sL1768086576L
I1074234828
sL545460565L
I1074267780
sL1107446613L
I1074239340
sL3476065511L
I1074269588
sL562412638L
I1074267928
sL2033964903L
I1074247444
sL3703834906L
I1074269412
sL1381401481L
I1074239556
sL3708199143L
I1074247552
sL530701251L
I1074242272
sL3380377753L
I1074245412
sL1179079586L
I1074248540
sL1178348887L
I1074236896
sL2020016265L
I1074241880
sL4065942187L
I1074268160
sL4155364446L
I1074237164
sL3883282432L
I1074236768
sL3271076352L
I1074246300
sL3897638057L
I1074268404
sL64292014L
I1074239724
sL2605918760L
I1074268724
ssb.