ccopy_reg
_reconstructor
p0
(crizzo
RizzoSignature
p1
c__builtin__
object
p2
Ntp3
Rp4
(dp5
S'formal'
p6
(dp7
L1003526354L
I1074241400
sL4253230215L
I1074234716
sL4036736158L
I1074240460
sL697116295L
I1074241208
sL1741170115L
I1074238292
sL1754039175L
I1074243600
sL1037478596L
I1074245728
sL3327636805L
I1074267780
sL4272876733L
I1074236384
sL2543156614L
I1074267884
sL1433108606L
I1074242232
sL2425276312L
I1074236240
sL673456947L
I1074240092
sL579820183L
I1074247928
sL620880923L
I1074246488
sL3395577470L
I1074267924
sL2245790663L
I1074237536
sL2402973217L
I1074247124
sL2181804842L
I1074246236
sL2549823962L
I1074247596
sL1556689645L
I1074234828
sL3734312115L
I1074243924
sL1374394819L
I1074245756
sL3421793247L
I1074247004
sL1144063518L
I1074268400
sL2643536547L
I1074246128
sL4039828222L
I1074270352
sL870892253L
I1074237388
sL3552299405L
I1074246656
sL3347138999L
I1074247108
sL610085989L
I1074242444
sL1937763397L
I1074270852
sL3939356145L
I1074236992
sL2975127659L
I1074245084
sL1584370986L
I1074238428
sL1605170666L
I1074241228
sL1625099930L
I1074241672
sL604485967L
I1074241080
sL379879407L
I1074242920
sL708475249L
I1074246552
sL3271564876L
I1074244024
sL1086279665L
I1074244428
sL2806906626L
I1074239432
sL1069708435L
I1074270280
sL2374084562L
I1074237032
sL3995804287L
I1074244076
sL503215017L
I1074244368
sL2025095148L
I1074240744
sL645864231L
I1074269048
sL595232544L
I1074237748
sL2981996263L
I1074246352
sL1456331926L
I1074236120
sL2662742250L
I1074237128
sL1823824616L
I1074238900
sL91760400L
I1074247020
sL514405571L
I1074240060
sL3588048311L
I1074247696
sL2472460085L
I1074241924
sL3253534592L
I1074239304
sL1707586218L
I1074236144
sL949064703L
I1074245832
sL3973628343L
I1074240700
sL1276219749L
I1074248404
sL2765973931L
I1074247064
sL1923947L
I1074268720
sL252091513L
I1074237208
sL541227069L
I1074242060
sL655632028L
I1074247900
sL4024787567L
I1074237352
sL2866214747L
I1074235404
sL3131778085L
I1074236828
sL2268167615L
I1074244772
sL1024457600L
I1074237500
sL3312859105L
I1074237932
sL1448049363L
I1074270064
sL565127432L
I1074240996
sL1557040484L
I1074241776
sL4173817453L
I1074246876
sL3599684131L
I1074235580
sL2255901124L
I1074248064
sL4238621974L
I1074268156
sL2782795882L
I1074236684
sL3909269172L
I1074237696
sL1868338154L
I1074267752
sL3199926275L
I1074268456
sL2611122715L
I1074245932
sL2622718953L
I1074238132
sL3308401033L
I1074244992
sL2221692368L
I1074236972
sL3295139034L
I1074239488
sL3697823959L
I1074269396
sL3035638838L
I1074236700
sL2164672463L
I1074245788
sL2780402803L
I1074242256
sL3828574719L
I1074246932
sL2432257846L
I1074243584
sL2328686595L
I1074247856
sL1448880780L
I1074244668
sL2979064644L
I1074237076
sL3815517881L
I1074236188
sL1979018272L
I1074241624
sL3584618110L
I1074237988
sL362106947L
I1074247540
sL2655988888L
I1074269352
sL2263182908L
I1074238312
sL607019252L
I1074244140
sL2972008954L
I1074239876
sL3422633696L
I1074248224
sL4030023636L
I1074269016
sL489309134L
I1074241072
sL3514386589L
I1074245772
sL1318135924L
I1074239600
sL2643594359L
I1074239652
sL2560528763L
I1074242368
sL2979010165L
I1074246720
sL3046473586L
I1074238320
sL109878119L
I1074236792
sL3880901821L
I1074268620
sL3035701279L
I1074248312
sL669471251L
I1074246904
sL4108636432L
I1074270820
sL2927255439L
I1074239216
sL240369573L
I1074234696
sL3745020111L
I1074267828
sL2500922092L
I1074269572
ssS'immediates'
p8
(dp9
sS'formaldups'
p10
c__builtin__
set
p11
((lp12
tp13
Rp14
sS'stringdups'
p15
g11
((lp16
tp17
Rp18
sS'fuzzydups'
p19
g11
((lp20
tp21
Rp22
sS'strings'
p23
(dp24
sS'functions'
p25
(dp26
I1074243584
(Vbootloader_load_image
p27
(lp28
(L267004326L
L3785322319L
(lp29
(lp30
Vimage_load
p31
atp32
atp33
sI1074239488
(Vset_actual_ota_seq
p34
(lp35
(L4094723830L
L0L
(lp36
(lp37
tp38
a(L560452690L
L0L
(lp39
(lp40
tp41
a(L2457209721L
L3785322319L
(lp42
(lp43
Vbootloader_common_ota_select_crc
p44
atp45
a(L3016870L
L0L
(lp46
(lp47
tp48
a(L2175534482L
L0L
(lp49
(lp50
tp51
a(L1139269215L
L0L
(lp52
(lp53
tp54
a(L3028481L
L0L
(lp55
(lp56
tp57
a(L2996572586L
L1880226080L
(lp58
(lp59
Vwrite_otadata
p60
aVesp_log_early_timestamp
p61
atp62
a(L3360570486L
L0L
(lp63
(lp64
tp65
atp66
sI1074237696
(Vbootloader_flash_read_no_decrypt
p67
(lp68
(L581569905L
L1880226080L
(lp69
(lp70
Vesp_rom_spiflash_read
p71
aVspi_to_esp_err
p72
atp73
atp74
sI1074246656
(Vrtc_clk_32k_enable
p75
(lp76
(L753387299L
L0L
(lp77
(lp78
tp79
a(L958782923L
L3785322319L
(lp80
(lp81
Vrtc_clk_32k_enable_common
p82
atp83
a(L3394391010L
L0L
(lp84
(lp85
tp86
a(L3360570486L
L0L
(lp87
(lp88
tp89
atp90
sI1074242060
(Vprocess_segment_data
p91
(lp92
(L3236683529L
L3785322319L
(lp93
(lp94
Vbootloader_mmap
p95
atp96
a(L1216013012L
L3785322319L
(lp97
(lp98
Vesp_log_early_timestamp
p99
atp100
a(L112099364L
L3785322319L
(lp101
(lp102
Vbootloader_fill_random
p103
atp104
a(L275549787L
L0L
(lp105
(lp106
tp107
a(L279243871L
L0L
(lp108
(lp109
tp110
a(L1299866312L
L0L
(lp111
(lp112
tp113
a(L2008416411L
L0L
(lp114
(lp115
tp116
a(L3016870L
L0L
(lp117
(lp118
tp119
a(L3302047981L
L0L
(lp120
(lp121
tp122
a(L1767790049L
L0L
(lp123
(lp124
tp125
a(L731312119L
L0L
(lp126
(lp127
tp128
a(L2902417580L
L0L
(lp129
(lp130
tp131
a(L2505185480L
L0L
(lp132
(lp133
tp134
a(L3094078540L
L3785322319L
(lp135
(lp136
Vbootloader_sha256_data
p137
atp138
a(L1770629922L
L0L
(lp139
(lp140
tp141
a(L3896226538L
L0L
(lp142
(lp143
tp144
a(L74549926L
L3785322319L
(lp145
(lp146
Vbootloader_munmap
p147
atp148
a(L3360570486L
L0L
(lp149
(lp150
tp151
atp152
sI1074236684
(Vesp_cpu_in_ocd_debug_mode
p153
(lp154
(L881579880L
L0L
(lp155
(lp156
tp157
atp158
sI1074235404
(Vbootloader_flash_dummy_config
p159
(lp160
(L3640861900L
L0L
(lp161
(lp162
tp163
a(L3017366L
L0L
(lp164
(lp165
tp166
a(L3016870L
L0L
(lp167
(lp168
tp169
a(L2359764484L
L0L
(lp170
(lp171
tp172
a(L2568071894L
L0L
(lp173
(lp174
tp175
a(L1612290447L
L0L
(lp176
(lp177
tp178
a(L1612290447L
L0L
(lp179
(lp180
tp181
a(L1612290540L
L0L
(lp182
(lp183
tp184
a(L1298935362L
L0L
(lp185
(lp186
tp187
a(L2962820102L
L0L
(lp188
(lp189
tp190
a(L608600031L
L0L
(lp191
(lp192
tp193
a(L106L
L0L
(lp194
(lp195
tp196
a(L2336993863L
L0L
(lp197
(lp198
tp199
a(L4137832380L
L0L
(lp200
(lp201
tp202
a(L1880921373L
L0L
(lp203
(lp204
tp205
a(L1373344620L
L0L
(lp206
(lp207
tp208
a(L905084611L
L0L
(lp209
(lp210
tp211
atp212
sI1074246932
(Vrtc_clk_slow_freq_set
p213
(lp214
(L849914480L
L0L
(lp215
(lp216
tp217
a(L1235012839L
L0L
(lp218
(lp219
tp220
a(L2258688482L
L0L
(lp221
(lp222
tp223
a(L2770581249L
L0L
(lp224
(lp225
tp226
atp227
sI1074243600
(Vesp_partition_table_verify
p228
(lp229
(L1363364359L
L0L
(lp230
(lp231
tp232
a(L3882158282L
L0L
(lp233
(lp234
tp235
a(L2937657136L
L0L
(lp236
(lp237
tp238
a(L2865039366L
L0L
(lp239
(lp240
tp241
a(L106L
L0L
(lp242
(lp243
tp244
a(L484089803L
L0L
(lp245
(lp246
tp247
a(L2606600556L
L3785322319L
(lp248
(lp249
Vesp_log_early_timestamp
p250
atp251
a(L1235012963L
L0L
(lp252
(lp253
tp254
a(L3012579377L
L0L
(lp255
(lp256
tp257
a(L2902417580L
L0L
(lp258
(lp259
tp260
a(L2579271819L
L0L
(lp261
(lp262
tp263
a(L2325817743L
L3785322319L
(lp264
(lp265
Vesp_log_early_timestamp
p266
atp267
a(L3571215271L
L0L
(lp268
(lp269
tp270
a(L2579271819L
L0L
(lp271
(lp272
tp273
a(L2057790731L
L3785322319L
(lp274
(lp275
Vesp_log_early_timestamp
p276
atp277
a(L1610443436L
L0L
(lp278
(lp279
tp280
a(L1235012932L
L0L
(lp281
(lp282
tp283
a(L3720018517L
L0L
(lp284
(lp285
tp286
a(L1682246360L
L0L
(lp287
(lp288
tp289
a(L2579271819L
L0L
(lp290
(lp291
tp292
a(L1965206312L
L3785322319L
(lp293
(lp294
Vesp_log_early_timestamp
p295
atp296
a(L1235012932L
L0L
(lp297
(lp298
tp299
a(L1799288861L
L0L
(lp300
(lp301
tp302
a(L902240557L
L0L
(lp303
(lp304
tp305
a(L106L
L0L
(lp306
(lp307
tp308
a(L484089803L
L0L
(lp309
(lp310
tp311
a(L3915457626L
L3785322319L
(lp312
(lp313
Vesp_log_early_timestamp
p314
atp315
a(L2810785766L
L0L
(lp316
(lp317
tp318
a(L3360570486L
L0L
(lp319
(lp320
tp321
atp322
sI1074244368
(Vesp_rom_spiflash_enable_write
p323
(lp324
(L1165253961L
L3785322319L
(lp325
(lp326
Vesp_rom_spiflash_wait_idle
p327
atp328
a(L3014569117L
L0L
(lp329
(lp330
tp331
a(L106L
L0L
(lp332
(lp333
tp334
a(L1337065440L
L3785322319L
(lp335
(lp336
Vesp_rom_spiflash_read_status
p337
atp338
a(L1253527241L
L0L
(lp339
(lp340
tp341
a(L2993202392L
L0L
(lp342
(lp343
tp344
atp345
sI1074247696
(Vrtc_clk_cpu_freq_get_config
p346
(lp347
(L1896337797L
L0L
(lp348
(lp349
tp350
a(L2902417580L
L0L
(lp351
(lp352
tp353
a(L3020187L
L0L
(lp354
(lp355
tp356
a(L106L
L0L
(lp357
(lp358
tp359
a(L648781570L
L3785322319L
(lp360
(lp361
Vrtc_clk_xtal_freq_get
p362
atp363
a(L1031411839L
L0L
(lp364
(lp365
tp366
a(L3020187L
L0L
(lp367
(lp368
tp369
a(L3020187L
L0L
(lp370
(lp371
tp372
a(L456885982L
L1880226080L
(lp373
(lp374
Vesp_log_early_timestamp
p375
aVabort
p376
atp377
a(L456885982L
L1880226080L
(lp378
(lp379
Vesp_log_early_timestamp
p380
aVabort
p381
atp382
a(L2637615626L
L0L
(lp383
(lp384
tp385
a(L2816701179L
L0L
(lp386
(lp387
tp388
a(L883419018L
L0L
(lp389
(lp390
tp391
a(L791693831L
L0L
(lp392
(lp393
tp394
a(L2032620637L
L0L
(lp395
(lp396
tp397
atp398
sI1074236700
(Vis_xmc_chip_strict
p399
(lp400
(L3238746245L
L0L
(lp401
(lp402
tp403
a(L3028464L
L0L
(lp404
(lp405
tp406
a(L1879955864L
L0L
(lp407
(lp408
tp409
a(L1299866312L
L0L
(lp410
(lp411
tp412
a(L209024199L
L0L
(lp413
(lp414
tp415
a(L4093075049L
L0L
(lp416
(lp417
tp418
a(L1299866312L
L0L
(lp419
(lp420
tp421
a(L209917929L
L0L
(lp422
(lp423
tp424
a(L245016591L
L0L
(lp425
(lp426
tp427
a(L1299866312L
L0L
(lp428
(lp429
tp430
a(L1299866312L
L0L
(lp431
(lp432
tp433
a(L1299866343L
L0L
(lp434
(lp435
tp436
a(L1299866343L
L0L
(lp437
(lp438
tp439
a(L1299866312L
L0L
(lp440
(lp441
tp442
a(L2258688483L
L0L
(lp443
(lp444
tp445
a(L3360570486L
L0L
(lp446
(lp447
tp448
atp449
sI1074236188
(Vbootloader_flash_read_sfdp
p450
(lp451
(L1494883415L
L0L
(lp452
(lp453
tp454
a(L1071917914L
L3785322319L
(lp455
(lp456
V__assert_func
p457
atp458
a(L486614504L
L3785322319L
(lp459
(lp460
Vbootloader_flash_execute_command_common
p461
atp462
atp463
sI1074267924
(Vwdt_reset_info_dump
p464
(lp465
(L1642351636L
L0L
(lp466
(lp467
tp468
a(L460425251L
L0L
(lp469
(lp470
tp471
a(L3201441020L
L0L
(lp472
(lp473
tp474
a(L3028481L
L0L
(lp475
(lp476
tp477
a(L3486670486L
L0L
(lp478
(lp479
tp480
a(L4041715166L
L0L
(lp481
(lp482
tp483
a(L2307613036L
L0L
(lp484
(lp485
tp486
a(L1550379252L
L0L
(lp487
(lp488
tp489
a(L1243497843L
L3785322319L
(lp490
(lp491
Vesp_log_early_timestamp
p492
atp493
a(L3007616451L
L3785322319L
(lp494
(lp495
Vesp_log_early_timestamp
p496
atp497
a(L3360570486L
L0L
(lp498
(lp499
tp500
atp501
sI1074237208
(Vbootloader_common_check_chip_validity
p502
(lp503
(L4112384119L
L0L
(lp504
(lp505
tp506
a(L286674125L
L3785322319L
(lp507
(lp508
Vesp_log_early_timestamp
p509
atp510
a(L1182901183L
L0L
(lp511
(lp512
tp513
a(L2344894839L
L3785322319L
(lp514
(lp515
Vbootloader_common_get_chip_revision
p516
atp517
a(L3030060795L
L3785322319L
(lp518
(lp519
Vesp_log_early_timestamp
p520
atp521
a(L97422L
L0L
(lp522
(lp523
tp524
a(L3287840219L
L3785322319L
(lp525
(lp526
Vesp_log_early_timestamp
p527
atp528
a(L4136876117L
L0L
(lp529
(lp530
tp531
a(L4151320241L
L0L
(lp532
(lp533
tp534
a(L1621868829L
L0L
(lp535
(lp536
tp537
a(L464010095L
L0L
(lp538
(lp539
tp540
atp541
sI1074268456
(Vwdt_reset_check
p542
(lp543
(L1474067986L
L0L
(lp544
(lp545
tp546
a(L3020187L
L0L
(lp547
(lp548
tp549
a(L367582592L
L0L
(lp550
(lp551
tp552
a(L367642441L
L0L
(lp553
(lp554
tp555
a(L4264009122L
L3785322319L
(lp556
(lp557
Vesp_log_early_timestamp
p558
atp559
a(L1298905564L
L0L
(lp560
(lp561
tp562
a(L2986794716L
L0L
(lp563
(lp564
tp565
a(L3020187L
L0L
(lp566
(lp567
tp568
a(L225031483L
L0L
(lp569
(lp570
tp571
a(L225091332L
L0L
(lp572
(lp573
tp574
a(L3965368819L
L3785322319L
(lp575
(lp576
Vesp_log_early_timestamp
p577
atp578
a(L3020204L
L0L
(lp579
(lp580
tp581
a(L1944713791L
L1880226080L
(lp582
(lp583
Vwdt_reset_info_dump
p584
aVwdt_reset_info_dump
p585
atp586
a(L3738038928L
L3785322319L
(lp587
(lp588
Vwdt_reset_cpu0_info_enable
p589
atp590
atp591
sI1074237988
(Vbootloader_flash_read
p592
(lp593
(L1127605422L
L0L
(lp594
(lp595
tp596
a(L2085875711L
L3785322319L
(lp597
(lp598
Vesp_log_early_timestamp
p599
atp600
a(L899934477L
L0L
(lp601
(lp602
tp603
a(L1537381885L
L3785322319L
(lp604
(lp605
Vesp_log_early_timestamp
p606
atp607
a(L2696885836L
L0L
(lp608
(lp609
tp610
a(L628528440L
L3785322319L
(lp611
(lp612
Vesp_log_early_timestamp
p613
atp614
a(L3020204L
L0L
(lp615
(lp616
tp617
a(L3107770098L
L3785322319L
(lp618
(lp619
Vbootloader_flash_read_allow_decrypt
p620
atp621
a(L2175061880L
L3785322319L
(lp622
(lp623
Vbootloader_flash_read_no_decrypt
p624
atp625
a(L3360570486L
L0L
(lp626
(lp627
tp628
atp629
sI1074248224
(Vrtc_clk_cpu_freq_to_8m
p630
(lp631
(L4236529506L
L3785322319L
(lp632
(lp633
Vrtc_clk_apb_freq_update
p634
atp635
atp636
sI1074236972
(Vbootloader_common_ota_select_crc
p637
(lp638
(L1467561936L
L0L
(lp639
(lp640
tp641
atp642
sI1074244140
(Vesp_rom_spiflash_read_data
p643
(lp644
(L4122033220L
L0L
(lp645
(lp646
tp647
a(L106L
L0L
(lp648
(lp649
tp650
a(L2070875117L
L3785322319L
(lp651
(lp652
Vesp_rom_spiflash_wait_idle
p653
atp654
a(L2761836345L
L0L
(lp655
(lp656
tp657
a(L3742708284L
L0L
(lp658
(lp659
tp660
a(L3014569117L
L0L
(lp661
(lp662
tp663
a(L106L
L0L
(lp664
(lp665
tp666
a(L2013418871L
L0L
(lp667
(lp668
tp669
a(L256664550L
L0L
(lp670
(lp671
tp672
a(L663200857L
L0L
(lp673
(lp674
tp675
a(L2395851836L
L0L
(lp676
(lp677
tp678
a(L3014569117L
L0L
(lp679
(lp680
tp681
a(L1263158627L
L0L
(lp682
(lp683
tp684
a(L131455463L
L0L
(lp685
(lp686
tp687
a(L3922957135L
L0L
(lp688
(lp689
tp690
a(L1305407438L
L0L
(lp691
(lp692
tp693
a(L2013418871L
L0L
(lp694
(lp695
tp696
a(L3027019L
L0L
(lp697
(lp698
tp699
a(L2258777855L
L0L
(lp700
(lp701
tp702
a(L3027007L
L0L
(lp703
(lp704
tp705
a(L106L
L0L
(lp706
(lp707
tp708
a(L1299866312L
L0L
(lp709
(lp710
tp711
a(L2258688483L
L0L
(lp712
(lp713
tp714
a(L3360570486L
L0L
(lp715
(lp716
tp717
atp718
sI1074245932
(Vrtc_wdt_set_stage
p719
(lp720
(L1890082815L
L0L
(lp721
(lp722
tp723
a(L1182990556L
L0L
(lp724
(lp725
tp726
a(L1158671683L
L0L
(lp727
(lp728
tp729
a(L1183020347L
L0L
(lp730
(lp731
tp732
a(L1745934199L
L0L
(lp733
(lp734
tp735
a(L2910371777L
L0L
(lp736
(lp737
tp738
a(L1225391384L
L0L
(lp739
(lp740
tp741
a(L3028464L
L0L
(lp742
(lp743
tp744
a(L4024983778L
L0L
(lp745
(lp746
tp747
a(L3028464L
L0L
(lp748
(lp749
tp750
a(L2834579552L
L0L
(lp751
(lp752
tp753
a(L14111898L
L0L
(lp754
(lp755
tp756
a(L2810785765L
L0L
(lp757
(lp758
tp759
a(L3360570486L
L0L
(lp760
(lp761
tp762
atp763
sI1074237748
(Vbootloader_mmap
p764
(lp765
(L2594163932L
L0L
(lp766
(lp767
tp768
a(L3651522543L
L3785322319L
(lp769
(lp770
Vesp_log_early_timestamp
p771
atp772
a(L198936494L
L0L
(lp773
(lp774
tp775
a(L2359481093L
L3785322319L
(lp776
(lp777
Vesp_log_early_timestamp
p778
atp779
a(L1859133887L
L0L
(lp780
(lp781
tp782
a(L1749171692L
L3785322319L
(lp783
(lp784
Vesp_log_early_timestamp
p785
atp786
a(L2329745047L
L0L
(lp787
(lp788
tp789
a(L3360570486L
L0L
(lp790
(lp791
tp792
atp793
sI1074241072
(Vcheck_anti_rollback
p794
(lp795
(L786711473L
L0L
(lp796
(lp797
tp798
atp799
sI1074268720
(Vbootloader_main
p800
(lp801
(L3624327952L
L1832448559L
(lp802
(lp803
Vbootloader_common_vddsdio_configure
p804
aVbootloader_read_flash_id
p805
aVbootloader_flash_xmc_startup
p806
atp807
a(L3700165319L
L3785322319L
(lp808
(lp809
Vesp_log_early_timestamp
p810
atp811
a(L2463179889L
L3785322319L
(lp812
(lp813
Vbootloader_flash_read
p814
atp815
a(L1663730364L
L3785322319L
(lp816
(lp817
Vesp_log_early_timestamp
p818
atp819
a(L3191571389L
L1832448559L
(lp820
(lp821
Vbootloader_common_get_chip_revision
p822
aVesp_log_early_timestamp
p823
aVbootloader_common_check_chip_validity
p824
atp825
a(L3592265678L
L2794580271L
(lp826
(lp827
Vbootloader_init_flash_configure
p828
aVbootloader_clock_configure
p829
aVuart_console_configure
p830
aVwdt_reset_check
p831
aVesp_log_early_timestamp
p832
aVesp_log_early_timestamp
p833
aVrtc_wdt_protect_off
p834
aVrtc_wdt_disable
p835
aVrtc_wdt_set_length_of_reset_signal
p836
aVrtc_wdt_set_length_of_reset_signal
p837
aVrtc_wdt_set_stage
p838
aVrtc_wdt_set_time
p839
aVrtc_wdt_enable
p840
aVrtc_wdt_protect_on
p841
aVbootloader_flash_unlock
p842
aVesp_log_early_timestamp
p843
aVbootloader_random_enable
p844
aVprint_flash_info
p845
aVupdate_flash_config
p846
atp847
a(L1299867982L
L0L
(lp848
(lp849
tp850
a(L3360570486L
L0L
(lp851
(lp852
tp853
atp854
sI1074240060
(Vload_image
p855
(lp856
(L1261593556L
L1832448559L
(lp857
(lp858
Vesp_log_early_timestamp
p859
aVbootloader_random_disable
p860
aVunpack_load_app
p861
atp862
atp863
sI1074237500
(Vspi_to_esp_err
p864
(lp865
(L4037458691L
L0L
(lp866
(lp867
tp868
a(L2902417580L
L0L
(lp869
(lp870
tp871
a(L3020187L
L0L
(lp872
(lp873
tp874
a(L1641201884L
L0L
(lp875
(lp876
tp877
a(L310012176L
L0L
(lp878
(lp879
tp880
a(L1299866312L
L0L
(lp881
(lp882
tp883
a(L702737030L
L0L
(lp884
(lp885
tp886
a(L3360570486L
L0L
(lp887
(lp888
tp889
atp890
sI1074244668
(Vesp_rom_spiflash_erase_sector
p891
(lp892
(L1983022568L
L0L
(lp893
(lp894
tp895
a(L863950961L
L3785322319L
(lp896
(lp897
Vesp_rom_spiflash_enable_write
p898
atp899
a(L1553074836L
L3785322319L
(lp900
(lp901
Vesp_rom_spiflash_erase_sector_internal
p902
atp903
a(L106L
L0L
(lp904
(lp905
tp906
a(L1299866343L
L0L
(lp907
(lp908
tp909
a(L1299866343L
L0L
(lp910
(lp911
tp912
a(L2258688483L
L0L
(lp913
(lp914
tp915
a(L3360570486L
L0L
(lp916
(lp917
tp918
atp919
sI1074241080
(Vbootloader_sha256_hex_to_str
p920
(lp921
(L801955396L
L0L
(lp922
(lp923
tp924
a(L97422L
L0L
(lp925
(lp926
tp927
a(L106L
L0L
(lp928
(lp929
tp930
a(L201281358L
L0L
(lp931
(lp932
tp933
a(L1611366926L
L0L
(lp934
(lp935
tp936
a(L1298905568L
L0L
(lp937
(lp938
tp939
a(L1295154486L
L0L
(lp940
(lp941
tp942
a(L435009006L
L0L
(lp943
(lp944
tp945
a(L3378846871L
L0L
(lp946
(lp947
tp948
a(L978975865L
L0L
(lp949
(lp950
tp951
a(L2258897019L
L0L
(lp952
(lp953
tp954
a(L3027007L
L0L
(lp955
(lp956
tp957
a(L4126803969L
L0L
(lp958
(lp959
tp960
a(L448827677L
L0L
(lp961
(lp962
tp963
a(L1299866312L
L0L
(lp964
(lp965
tp966
a(L1235012901L
L0L
(lp967
(lp968
tp969
a(L2810785765L
L0L
(lp970
(lp971
tp972
a(L3360570486L
L0L
(lp973
(lp974
tp975
atp976
sI1074270280
(Vrtc_vddsdio_set_config
p977
(lp978
(L4165858497L
L0L
(lp979
(lp980
tp981
atp982
sI1074236992
(Vbootloader_common_ota_select_valid
p983
(lp984
(L1731214134L
L3785322319L
(lp985
(lp986
Vbootloader_common_ota_select_invalid
p987
atp988
a(L668323607L
L3785322319L
(lp989
(lp990
Vbootloader_common_ota_select_crc
p991
atp992
a(L1299866343L
L0L
(lp993
(lp994
tp995
a(L1299866312L
L0L
(lp996
(lp997
tp998
a(L2258688482L
L0L
(lp999
(lp1000
tp1001
a(L3360570486L
L0L
(lp1002
(lp1003
tp1004
atp1005
sI1074242368
(Vshould_load
p1006
(lp1007
(L1862026660L
L3785322319L
(lp1008
(lp1009
Vshould_map
p1010
atp1011
a(L1121477954L
L0L
(lp1012
(lp1013
tp1014
a(L3028464L
L0L
(lp1015
(lp1016
tp1017
a(L1347982679L
L0L
(lp1018
(lp1019
tp1020
a(L2455339138L
L0L
(lp1021
(lp1022
tp1023
a(L4164029034L
L0L
(lp1024
(lp1025
tp1026
a(L1610443436L
L0L
(lp1027
(lp1028
tp1029
a(L1610443405L
L0L
(lp1030
(lp1031
tp1032
a(L1298875774L
L0L
(lp1033
(lp1034
tp1035
a(L735741265L
L0L
(lp1036
(lp1037
tp1038
atp1039
sI1074246720
(Vrtc_clk_8m_enable
p1040
(lp1041
(L1474360438L
L0L
(lp1042
(lp1043
tp1044
a(L1239538383L
L0L
(lp1045
(lp1046
tp1047
a(L516204295L
L0L
(lp1048
(lp1049
tp1050
a(L3985190857L
L0L
(lp1051
(lp1052
tp1053
a(L3227012120L
L0L
(lp1054
(lp1055
tp1056
a(L4233718962L
L0L
(lp1057
(lp1058
tp1059
a(L3360570486L
L0L
(lp1060
(lp1061
tp1062
atp1063
sI1074244428
(Vesp_rom_spiflash_program_page_internal
p1064
(lp1065
(L2773322937L
L0L
(lp1066
(lp1067
tp1068
a(L3904186990L
L0L
(lp1069
(lp1070
tp1071
a(L106L
L0L
(lp1072
(lp1073
tp1074
a(L2070875117L
L3785322319L
(lp1075
(lp1076
Vesp_rom_spiflash_wait_idle
p1077
atp1078
a(L530241438L
L3785322319L
(lp1079
(lp1080
Vesp_rom_spiflash_enable_write
p1081
atp1082
a(L1499276535L
L0L
(lp1083
(lp1084
tp1085
a(L3292717659L
L0L
(lp1086
(lp1087
tp1088
a(L394182985L
L0L
(lp1089
(lp1090
tp1091
a(L93837694L
L0L
(lp1092
(lp1093
tp1094
a(L1943062613L
L0L
(lp1095
(lp1096
tp1097
a(L2854290190L
L0L
(lp1098
(lp1099
tp1100
a(L131455463L
L0L
(lp1101
(lp1102
tp1103
a(L3922957135L
L0L
(lp1104
(lp1105
tp1106
a(L1305407438L
L0L
(lp1107
(lp1108
tp1109
a(L394182985L
L0L
(lp1110
(lp1111
tp1112
a(L3027019L
L0L
(lp1113
(lp1114
tp1115
a(L1243408381L
L0L
(lp1116
(lp1117
tp1118
a(L1917903213L
L0L
(lp1119
(lp1120
tp1121
a(L1448276765L
L0L
(lp1122
(lp1123
tp1124
a(L1452275741L
L3785322319L
(lp1125
(lp1126
Vesp_rom_spiflash_wait_idle
p1127
atp1128
a(L3027007L
L0L
(lp1129
(lp1130
tp1131
a(L106L
L0L
(lp1132
(lp1133
tp1134
a(L2307427848L
L0L
(lp1135
(lp1136
tp1137
a(L1299866343L
L0L
(lp1138
(lp1139
tp1140
a(L1299866343L
L0L
(lp1141
(lp1142
tp1143
a(L2258688483L
L0L
(lp1144
(lp1145
tp1146
a(L3360570486L
L0L
(lp1147
(lp1148
tp1149
atp1150
sI1074239304
(Vread_otadata
p1151
(lp1152
(L3233392553L
L0L
(lp1153
(lp1154
tp1155
a(L1425341776L
L0L
(lp1156
(lp1157
tp1158
a(L3366121590L
L3785322319L
(lp1159
(lp1160
Vesp_log_early_timestamp
p1161
atp1162
a(L566230772L
L3785322319L
(lp1163
(lp1164
Vbootloader_mmap
p1165
atp1166
a(L3641189915L
L3785322319L
(lp1167
(lp1168
Vesp_log_early_timestamp
p1169
atp1170
a(L3241021226L
L3785322319L
(lp1171
(lp1172
Vbootloader_munmap
p1173
atp1174
a(L2810785768L
L0L
(lp1175
(lp1176
tp1177
a(L3360570486L
L0L
(lp1178
(lp1179
tp1180
atp1181
sI1074234696
(Vbootloader_init_flash_configure
p1182
(lp1183
(L2326466312L
L1832448559L
(lp1184
(lp1185
Vbootloader_flash_gpio_config
p1186
aVbootloader_flash_dummy_config
p1187
aVbootloader_flash_cs_timing_config
p1188
atp1189
atp1190
sI1074269016
(V__assert_func
p1191
(lp1192
(L2419638455L
L3785322319L
(lp1193
(lp1194
Vesp_log_early_timestamp
p1195
atp1196
a(L106L
L0L
(lp1197
(lp1198
tp1199
atp1200
sI1074243924
(Vesp_rom_spiflash_read_status
p1201
(lp1202
(L1642541540L
L0L
(lp1203
(lp1204
tp1205
a(L106L
L0L
(lp1206
(lp1207
tp1208
a(L236202687L
L0L
(lp1209
(lp1210
tp1211
a(L3014569117L
L0L
(lp1212
(lp1213
tp1214
a(L2568699135L
L0L
(lp1215
(lp1216
tp1217
a(L4159619641L
L0L
(lp1218
(lp1219
tp1220
a(L106L
L0L
(lp1221
(lp1222
tp1223
a(L2291162237L
L0L
(lp1224
(lp1225
tp1226
a(L4159619641L
L0L
(lp1227
(lp1228
tp1229
a(L2392720019L
L0L
(lp1230
(lp1231
tp1232
atp1233
sI1074238292
(Vbootloader_flash_erase_sector
p1234
(lp1235
(L4129137686L
L1880226080L
(lp1236
(lp1237
Vesp_rom_spiflash_erase_sector
p1238
aVspi_to_esp_err
p1239
atp1240
atp1241
sI1074236240
(Vbootloader_flash_xmc_startup
p1242
(lp1243
(L907480987L
L3785322319L
(lp1244
(lp1245
Vis_xmc_chip_strict
p1246
atp1247
a(L251913992L
L3785322319L
(lp1248
(lp1249
Vbootloader_flash_read_sfdp
p1250
atp1251
a(L2214543080L
L267944800L
(lp1252
(lp1253
Vexecute_flash_command
p1254
aVexecute_flash_command
p1255
aVexecute_flash_command
p1256
aVexecute_flash_command
p1257
aVbootloader_read_flash_id
p1258
aVis_xmc_chip_strict
p1259
atp1260
a(L1391924622L
L3785322319L
(lp1261
(lp1262
Vesp_log_early_timestamp
p1263
atp1264
a(L1299866312L
L0L
(lp1265
(lp1266
tp1267
a(L1299866312L
L0L
(lp1268
(lp1269
tp1270
a(L2258688482L
L0L
(lp1271
(lp1272
tp1273
a(L3360570486L
L0L
(lp1274
(lp1275
tp1276
atp1277
sI1074246236
(Vrtc_wdt_set_length_of_reset_signal
p1278
(lp1279
(L1890082815L
L0L
(lp1280
(lp1281
tp1282
a(L1182990556L
L0L
(lp1283
(lp1284
tp1285
a(L1158671683L
L0L
(lp1286
(lp1287
tp1288
a(L1183020347L
L0L
(lp1289
(lp1290
tp1291
a(L1745934199L
L0L
(lp1292
(lp1293
tp1294
a(L2910371777L
L0L
(lp1295
(lp1296
tp1297
a(L3992332474L
L0L
(lp1298
(lp1299
tp1300
a(L2543988658L
L0L
(lp1301
(lp1302
tp1303
a(L2810785765L
L0L
(lp1304
(lp1305
tp1306
a(L3360570486L
L0L
(lp1307
(lp1308
tp1309
atp1310
sI1074240092
(Vbootloader_utility_load_partition_table
p1311
(lp1312
(L2783313115L
L3785322319L
(lp1313
(lp1314
Vbootloader_mmap
p1315
atp1316
a(L3551417438L
L3785322319L
(lp1317
(lp1318
Vesp_log_early_timestamp
p1319
atp1320
a(L2772313617L
L3785322319L
(lp1321
(lp1322
Vesp_partition_table_verify
p1323
atp1324
a(L1953478742L
L3785322319L
(lp1325
(lp1326
Vesp_log_early_timestamp
p1327
atp1328
a(L34134891L
L1880226080L
(lp1329
(lp1330
Vesp_log_early_timestamp
p1331
aVesp_log_early_timestamp
p1332
atp1333
a(L1941612774L
L0L
(lp1334
(lp1335
tp1336
a(L3020187L
L0L
(lp1337
(lp1338
tp1339
a(L826379074L
L0L
(lp1340
(lp1341
tp1342
a(L3732412336L
L0L
(lp1343
(lp1344
tp1345
a(L3020187L
L0L
(lp1346
(lp1347
tp1348
a(L106L
L0L
(lp1349
(lp1350
tp1351
a(L58583904L
L0L
(lp1352
(lp1353
tp1354
a(L997275197L
L0L
(lp1355
(lp1356
tp1357
a(L2893469516L
L0L
(lp1358
(lp1359
tp1360
a(L976857509L
L0L
(lp1361
(lp1362
tp1363
a(L3999773648L
L0L
(lp1364
(lp1365
tp1366
a(L528544332L
L0L
(lp1367
(lp1368
tp1369
a(L826379570L
L0L
(lp1370
(lp1371
tp1372
a(L826377276L
L0L
(lp1373
(lp1374
tp1375
a(L3293506409L
L3785322319L
(lp1376
(lp1377
Vesp_log_early_timestamp
p1378
atp1379
a(L846653465L
L0L
(lp1380
(lp1381
tp1382
a(L106L
L0L
(lp1383
(lp1384
tp1385
a(L1258250833L
L1880226080L
(lp1386
(lp1387
Vbootloader_munmap
p1388
aVesp_log_early_timestamp
p1389
atp1390
a(L3360570486L
L0L
(lp1391
(lp1392
tp1393
atp1394
sI1074234716
(Vbootloader_flash_cs_timing_config
p1395
(lp1396
(L227725170L
L0L
(lp1397
(lp1398
tp1399
atp1400
sI1074247004
(Vrtc_clk_slow_freq_get
p1401
(lp1402
(L2663469346L
L0L
(lp1403
(lp1404
tp1405
atp1406
sI1074241624
(Vshould_map
p1407
(lp1408
(L3937304407L
L0L
(lp1409
(lp1410
tp1411
a(L1182990556L
L0L
(lp1412
(lp1413
tp1414
a(L997119244L
L0L
(lp1415
(lp1416
tp1417
a(L1182990556L
L0L
(lp1418
(lp1419
tp1420
a(L1296420068L
L0L
(lp1421
(lp1422
tp1423
atp1424
sI1074246488
(Vrtc_clk_bbpll_disable
p1425
(lp1426
(L3546796655L
L0L
(lp1427
(lp1428
tp1429
a(L4068719646L
L0L
(lp1430
(lp1431
tp1432
a(L3360570486L
L0L
(lp1433
(lp1434
tp1435
atp1436
sI1074267752
(Vselected_boot_partition
p1437
(lp1438
(L2937841336L
L3785322319L
(lp1439
(lp1440
Vbootloader_utility_get_selected_boot_partition
p1441
atp1442
a(L2161672821L
L0L
(lp1443
(lp1444
tp1445
a(L3360570486L
L0L
(lp1446
(lp1447
tp1448
atp1449
sI1074237536
(Vbootloader_flash_read_allow_decrypt
p1450
(lp1451
(L3384426294L
L0L
(lp1452
(lp1453
tp1454
a(L1406929297L
L0L
(lp1455
(lp1456
tp1457
a(L315414249L
L0L
(lp1458
(lp1459
tp1460
a(L2247663932L
L3785322319L
(lp1461
(lp1462
Vesp_log_early_timestamp
p1463
atp1464
a(L2557888127L
L0L
(lp1465
(lp1466
tp1467
a(L3087968042L
L0L
(lp1468
(lp1469
tp1470
a(L2538932552L
L0L
(lp1471
(lp1472
tp1473
a(L106L
L0L
(lp1474
(lp1475
tp1476
a(L2258688482L
L0L
(lp1477
(lp1478
tp1479
a(L3360570486L
L0L
(lp1480
(lp1481
tp1482
atp1483
sI1074245728
(Vrtc_wdt_get_protect_status
p1484
(lp1485
(L3262692217L
L0L
(lp1486
(lp1487
tp1488
atp1489
sI1074247020
(Vrtc_clk_slow_freq_get_hz
p1490
(lp1491
(L2601977293L
L3785322319L
(lp1492
(lp1493
Vrtc_clk_slow_freq_get
p1494
atp1495
a(L2902417580L
L0L
(lp1496
(lp1497
tp1498
a(L3020187L
L0L
(lp1499
(lp1500
tp1501
a(L1299866312L
L0L
(lp1502
(lp1503
tp1504
a(L310018283L
L0L
(lp1505
(lp1506
tp1507
a(L310152482L
L0L
(lp1508
(lp1509
tp1510
a(L702741533L
L0L
(lp1511
(lp1512
tp1513
a(L3360570486L
L0L
(lp1514
(lp1515
tp1516
atp1517
sI1074270820
(Vrtc_clk_cal_ratio
p1518
(lp1519
(L3583061729L
L3785322319L
(lp1520
(lp1521
Vrtc_clk_cal_internal
p1522
atp1523
atp1524
sI1074238312
(Vbootloader_mmap_get_free_pages
p1525
(lp1526
(L1496516875L
L0L
(lp1527
(lp1528
tp1529
atp1530
sI1074237032
(Vbootloader_common_get_active_otadata
p1531
(lp1532
(L4066087859L
L0L
(lp1533
(lp1534
tp1535
a(L3619672798L
L1832448559L
(lp1536
(lp1537
Vbootloader_common_ota_select_valid
p1538
aVbootloader_common_ota_select_valid
p1539
aVbootloader_common_select_otadata
p1540
atp1541
a(L1299867982L
L0L
(lp1542
(lp1543
tp1544
a(L3360570486L
L0L
(lp1545
(lp1546
tp1547
atp1548
sI1074242920
(Vimage_load
p1549
(lp1550
(L915390607L
L0L
(lp1551
(lp1552
tp1553
a(L106L
L0L
(lp1554
(lp1555
tp1556
a(L802459005L
L0L
(lp1557
(lp1558
tp1559
a(L3020187L
L0L
(lp1560
(lp1561
tp1562
a(L2125135172L
L3785322319L
(lp1563
(lp1564
Vesp_log_early_timestamp
p1565
atp1566
a(L3896850786L
L0L
(lp1567
(lp1568
tp1569
a(L2136337617L
L3785322319L
(lp1570
(lp1571
Vbootloader_flash_read
p1572
atp1573
a(L4124473353L
L0L
(lp1574
(lp1575
tp1576
a(L2568992188L
L3785322319L
(lp1577
(lp1578
Vbootloader_sha256_start
p1579
atp1580
a(L623197325L
L3785322319L
(lp1581
(lp1582
Vbootloader_sha256_data
p1583
atp1584
a(L2258837437L
L0L
(lp1585
(lp1586
tp1587
a(L2658039957L
L3785322319L
(lp1588
(lp1589
Vverify_image_header
p1590
atp1591
a(L1980404654L
L0L
(lp1592
(lp1593
tp1594
a(L3028464L
L0L
(lp1595
(lp1596
tp1597
a(L106L
L0L
(lp1598
(lp1599
tp1600
a(L546643062L
L3785322319L
(lp1601
(lp1602
Vesp_log_early_timestamp
p1603
atp1604
a(L2178537071L
L0L
(lp1605
(lp1606
tp1607
a(L1255687483L
L3785322319L
(lp1608
(lp1609
Vprocess_segment
p1610
atp1611
a(L1589625955L
L0L
(lp1612
(lp1613
tp1614
a(L2125973223L
L0L
(lp1615
(lp1616
tp1617
a(L2993473092L
L0L
(lp1618
(lp1619
tp1620
a(L3028464L
L0L
(lp1621
(lp1622
tp1623
a(L106L
L0L
(lp1624
(lp1625
tp1626
a(L2103602370L
L3785322319L
(lp1627
(lp1628
Vesp_log_early_timestamp
p1629
atp1630
a(L2638226786L
L3785322319L
(lp1631
(lp1632
Vesp_cpu_in_ocd_debug_mode
p1633
atp1634
a(L3100707227L
L3785322319L
(lp1635
(lp1636
Vverify_checksum
p1637
atp1638
a(L279608302L
L0L
(lp1639
(lp1640
tp1641
a(L3028464L
L0L
(lp1642
(lp1643
tp1644
a(L106L
L0L
(lp1645
(lp1646
tp1647
a(L3360983341L
L3785322319L
(lp1648
(lp1649
Vesp_log_early_timestamp
p1650
atp1651
a(L2074376433L
L0L
(lp1652
(lp1653
tp1654
a(L3020204L
L0L
(lp1655
(lp1656
tp1657
a(L3287840219L
L3785322319L
(lp1658
(lp1659
Vesp_cpu_in_ocd_debug_mode
p1660
atp1661
a(L3042111959L
L3785322319L
(lp1662
(lp1663
Vverify_simple_hash
p1664
atp1665
a(L3020204L
L0L
(lp1666
(lp1667
tp1668
a(L3688659868L
L3785322319L
(lp1669
(lp1670
Vbootloader_sha256_finish
p1671
atp1672
a(L3230798602L
L0L
(lp1673
(lp1674
tp1675
a(L84393073L
L3785322319L
(lp1676
(lp1677
Vbootloader_mmap
p1678
atp1679
a(L1461725474L
L3785322319L
(lp1680
(lp1681
Vbootloader_munmap
p1682
atp1683
a(L3028481L
L0L
(lp1684
(lp1685
tp1686
a(L3020187L
L0L
(lp1687
(lp1688
tp1689
a(L106L
L0L
(lp1690
(lp1691
tp1692
a(L106L
L0L
(lp1693
(lp1694
tp1695
a(L808845010L
L3785322319L
(lp1696
(lp1697
Vshould_load
p1698
atp1699
a(L3632402446L
L0L
(lp1700
(lp1701
tp1702
a(L4103406395L
L0L
(lp1703
(lp1704
tp1705
a(L195862826L
L0L
(lp1706
(lp1707
tp1708
a(L4024190788L
L0L
(lp1709
(lp1710
tp1711
a(L3743228140L
L0L
(lp1712
(lp1713
tp1714
a(L1818239465L
L0L
(lp1715
(lp1716
tp1717
a(L1720234353L
L0L
(lp1718
(lp1719
tp1720
a(L3802069241L
L0L
(lp1721
(lp1722
tp1723
a(L2573310946L
L0L
(lp1724
(lp1725
tp1726
a(L106L
L0L
(lp1727
(lp1728
tp1729
a(L1304483917L
L0L
(lp1730
(lp1731
tp1732
a(L2258837437L
L0L
(lp1733
(lp1734
tp1735
a(L2902417580L
L0L
(lp1736
(lp1737
tp1738
a(L106L
L0L
(lp1739
(lp1740
tp1741
a(L1641201884L
L0L
(lp1742
(lp1743
tp1744
a(L702738960L
L0L
(lp1745
(lp1746
tp1747
a(L3020204L
L0L
(lp1748
(lp1749
tp1750
a(L3688659868L
L3785322319L
(lp1751
(lp1752
Vbootloader_sha256_finish
p1753
atp1754
a(L2075779526L
L0L
(lp1755
(lp1756
tp1757
a(L1235012901L
L0L
(lp1758
(lp1759
tp1760
a(L2810785764L
L0L
(lp1761
(lp1762
tp1763
a(L3360570486L
L0L
(lp1764
(lp1765
tp1766
atp1767
sI1074269048
(Vbootloader_init
p1768
(lp1769
(L2578592054L
L0L
(lp1770
(lp1771
tp1772
a(L581302695L
L0L
(lp1773
(lp1774
tp1775
a(L93837694L
L0L
(lp1776
(lp1777
tp1778
a(L2390524012L
L0L
(lp1779
(lp1780
tp1781
a(L156344622L
L3785322319L
(lp1782
(lp1783
V__assert_func
p1784
atp1785
a(L609682228L
L0L
(lp1786
(lp1787
tp1788
a(L830352338L
L3785322319L
(lp1789
(lp1790
V__assert_func
p1791
atp1792
a(L2579449770L
L0L
(lp1793
(lp1794
tp1795
a(L2312911895L
L3785322319L
(lp1796
(lp1797
V__assert_func
p1798
atp1799
a(L2647790324L
L0L
(lp1800
(lp1801
tp1802
a(L745264323L
L3785322319L
(lp1803
(lp1804
V__assert_func
p1805
atp1806
a(L2996985571L
L3785322319L
(lp1807
(lp1808
Vbootloader_main
p1809
atp1810
a(L1299867982L
L0L
(lp1811
(lp1812
tp1813
a(L3360570486L
L0L
(lp1814
(lp1815
tp1816
atp1817
sI1074247540
(Vrtc_clk_xtal_freq_get
p1818
(lp1819
(L2136169869L
L0L
(lp1820
(lp1821
tp1822
a(L4143442356L
L0L
(lp1823
(lp1824
tp1825
a(L1305407438L
L0L
(lp1826
(lp1827
tp1828
a(L1305407438L
L0L
(lp1829
(lp1830
tp1831
a(L2258867229L
L0L
(lp1832
(lp1833
tp1834
a(L2902417580L
L0L
(lp1835
(lp1836
tp1837
a(L2400129044L
L0L
(lp1838
(lp1839
tp1840
a(L2258688482L
L0L
(lp1841
(lp1842
tp1843
a(L3360570486L
L0L
(lp1844
(lp1845
tp1846
atp1847
sI1074238320
(Vbootloader_fill_random
p1848
(lp1849
(L4037466985L
L0L
(lp1850
(lp1851
tp1852
a(L960226728L
L3785322319L
(lp1853
(lp1854
V__assert_func
p1855
atp1856
a(L3020204L
L0L
(lp1857
(lp1858
tp1859
a(L607245337L
L0L
(lp1860
(lp1861
tp1862
a(L789392429L
L0L
(lp1863
(lp1864
tp1865
a(L2889921384L
L0L
(lp1866
(lp1867
tp1868
a(L2435735273L
L0L
(lp1869
(lp1870
tp1871
a(L1298875773L
L0L
(lp1872
(lp1873
tp1874
a(L448827677L
L0L
(lp1875
(lp1876
tp1877
a(L3360570486L
L0L
(lp1878
(lp1879
tp1880
atp1881
sI1074239600
(Vtry_load_partition
p1882
(lp1883
(L3877261386L
L0L
(lp1884
(lp1885
tp1886
a(L2260359711L
L3785322319L
(lp1887
(lp1888
Vbootloader_load_image
p1889
atp1890
a(L4143673232L
L3785322319L
(lp1891
(lp1892
Vesp_log_early_timestamp
p1893
atp1894
a(L1299866312L
L0L
(lp1895
(lp1896
tp1897
a(L2258688482L
L0L
(lp1898
(lp1899
tp1900
a(L3360570486L
L0L
(lp1901
(lp1902
tp1903
atp1904
sI1074270064
(Vrtc_vddsdio_get_config
p1905
(lp1906
(L388342366L
L0L
(lp1907
(lp1908
tp1909
a(L236607965L
L0L
(lp1910
(lp1911
tp1912
a(L3346847940L
L0L
(lp1913
(lp1914
tp1915
a(L2395535188L
L0L
(lp1916
(lp1917
tp1918
a(L1126075573L
L0L
(lp1919
(lp1920
tp1921
a(L3565178232L
L0L
(lp1922
(lp1923
tp1924
a(L3360570486L
L0L
(lp1925
(lp1926
tp1927
atp1928
sI1074245756
(Vrtc_wdt_protect_off
p1929
(lp1930
(L2005750431L
L0L
(lp1931
(lp1932
tp1933
atp1934
sI1074241400
(Vbootloader_sha256_finish
p1935
(lp1936
(L4066096136L
L0L
(lp1937
(lp1938
tp1939
a(L1076855957L
L3785322319L
(lp1940
(lp1941
V__assert_func
p1942
atp1943
a(L3020204L
L0L
(lp1944
(lp1945
tp1946
a(L738748997L
L0L
(lp1947
(lp1948
tp1949
a(L2534656226L
L0L
(lp1950
(lp1951
tp1952
a(L321015369L
L0L
(lp1953
(lp1954
tp1955
a(L2204626403L
L3785322319L
(lp1956
(lp1957
V__assert_func
p1958
atp1959
a(L4224257616L
L3785322319L
(lp1960
(lp1961
Vbootloader_sha256_data
p1962
atp1963
a(L3261051863L
L3785322319L
(lp1964
(lp1965
V__assert_func
p1966
atp1967
a(L3654067096L
L3785322319L
(lp1968
(lp1969
Vbootloader_sha256_data
p1970
atp1971
a(L1141152305L
L3785322319L
(lp1972
(lp1973
V__assert_func
p1974
atp1975
a(L270077275L
L0L
(lp1976
(lp1977
tp1978
a(L2971640342L
L0L
(lp1979
(lp1980
tp1981
a(L270077275L
L0L
(lp1982
(lp1983
tp1984
a(L1301713354L
L0L
(lp1985
(lp1986
tp1987
a(L489699472L
L0L
(lp1988
(lp1989
tp1990
a(L93837694L
L0L
(lp1991
(lp1992
tp1993
a(L3347778L
L0L
(lp1994
(lp1995
tp1996
a(L3360570486L
L0L
(lp1997
(lp1998
tp1999
atp2000
sI1074236792
(Vesp_log_early_timestamp
p2001
(lp2002
(L2465094177L
L0L
(lp2003
(lp2004
tp2005
atp2006
sI1074248312
(Vrtc_clk_cpu_freq_set_config
p2007
(lp2008
(L1943280396L
L3785322319L
(lp2009
(lp2010
Vrtc_clk_xtal_freq_get
p2011
atp2012
a(L1739379997L
L1880226080L
(lp2013
(lp2014
Vrtc_clk_cpu_freq_to_xtal
p2015
aVrtc_clk_wait_for_slow_cycle
p2016
atp2017
a(L3028464L
L0L
(lp2018
(lp2019
tp2020
a(L94425498L
L3785322319L
(lp2021
(lp2022
Vrtc_clk_bbpll_disable
p2023
atp2024
a(L3978916712L
L0L
(lp2025
(lp2026
tp2027
a(L2977209154L
L0L
(lp2028
(lp2029
tp2030
a(L3224389080L
L3785322319L
(lp2031
(lp2032
Vrtc_clk_cpu_freq_to_xtal
p2033
atp2034
a(L3028464L
L0L
(lp2035
(lp2036
tp2037
a(L2123040928L
L1157885199L
(lp2038
(lp2039
Vrtc_clk_bbpll_enable
p2040
aVrtc_clk_wait_for_slow_cycle
p2041
aVrtc_clk_xtal_freq_get
p2042
aVrtc_clk_bbpll_configure
p2043
aVrtc_clk_cpu_freq_to_pll_mhz
p2044
atp2045
a(L3028464L
L0L
(lp2046
(lp2047
tp2048
a(L94425498L
L3785322319L
(lp2049
(lp2050
Vrtc_clk_cpu_freq_to_8m
p2051
atp2052
a(L3360570486L
L0L
(lp2053
(lp2054
tp2055
atp2056
sI1074239876
(Vunpack_load_app
p2057
(lp2058
(L1842422795L
L0L
(lp2059
(lp2060
tp2061
a(L3082114560L
L0L
(lp2062
(lp2063
tp2064
a(L2902417580L
L0L
(lp2065
(lp2066
tp2067
a(L661733570L
L3785322319L
(lp2068
(lp2069
Vesp_log_early_timestamp
p2070
atp2071
a(L119201706L
L0L
(lp2072
(lp2073
tp2074
a(L780641376L
L0L
(lp2075
(lp2076
tp2077
a(L2902417580L
L0L
(lp2078
(lp2079
tp2080
a(L415420483L
L3785322319L
(lp2081
(lp2082
Vesp_log_early_timestamp
p2083
atp2084
a(L2669168141L
L0L
(lp2085
(lp2086
tp2087
a(L1799288861L
L0L
(lp2088
(lp2089
tp2090
a(L350965691L
L0L
(lp2091
(lp2092
tp2093
a(L106L
L0L
(lp2094
(lp2095
tp2096
a(L1717315991L
L3785322319L
(lp2097
(lp2098
Vset_cache_and_start_app
p2099
atp2100
atp2101
sI1074241924
(Vverify_image_header
p2102
(lp2103
(L171376062L
L0L
(lp2104
(lp2105
tp2106
a(L3028481L
L0L
(lp2107
(lp2108
tp2109
a(L2321893222L
L3785322319L
(lp2110
(lp2111
Vesp_log_early_timestamp
p2112
atp2113
a(L1299866312L
L0L
(lp2114
(lp2115
tp2116
a(L702738960L
L0L
(lp2117
(lp2118
tp2119
a(L3615160363L
L3785322319L
(lp2120
(lp2121
Vbootloader_common_check_chip_validity
p2122
atp2123
a(L702738960L
L0L
(lp2124
(lp2125
tp2126
a(L3028481L
L0L
(lp2127
(lp2128
tp2129
a(L3270243289L
L0L
(lp2130
(lp2131
tp2132
a(L3113468748L
L3785322319L
(lp2133
(lp2134
Vesp_log_early_timestamp
p2135
atp2136
a(L3355980489L
L0L
(lp2137
(lp2138
tp2139
a(L553931684L
L3785322319L
(lp2140
(lp2141
Vesp_log_early_timestamp
p2142
atp2143
a(L3360570486L
L0L
(lp2144
(lp2145
tp2146
atp2147
sI1074244992
(Vesp_rom_spiflash_write_encrypted
p2148
(lp2149
(L2711657322L
L0L
(lp2150
(lp2151
tp2152
a(L2663131359L
L0L
(lp2153
(lp2154
tp2155
a(L1983300354L
L0L
(lp2156
(lp2157
tp2158
a(L4006074770L
L0L
(lp2159
(lp2160
tp2161
a(L4068652995L
L3785322319L
(lp2162
(lp2163
Vesp_rom_spiflash_write
p2164
atp2165
a(L1856606745L
L0L
(lp2166
(lp2167
tp2168
a(L2924646260L
L0L
(lp2169
(lp2170
tp2171
a(L3516313034L
L0L
(lp2172
(lp2173
tp2174
a(L1299866343L
L0L
(lp2175
(lp2176
tp2177
a(L2258688483L
L0L
(lp2178
(lp2179
tp2180
a(L3360570486L
L0L
(lp2181
(lp2182
tp2183
atp2184
sI1074248064
(Vrtc_clk_cpu_freq_to_pll_mhz
p2185
(lp2186
(L3639301015L
L0L
(lp2187
(lp2188
tp2189
a(L1541996779L
L0L
(lp2190
(lp2191
tp2192
a(L1546614651L
L0L
(lp2193
(lp2194
tp2195
a(L2245131903L
L0L
(lp2196
(lp2197
tp2198
a(L275600484L
L1880226080L
(lp2199
(lp2200
Vesp_log_early_timestamp
p2201
aVabort
p2202
atp2203
a(L3546033543L
L0L
(lp2204
(lp2205
tp2206
a(L3307832802L
L0L
(lp2207
(lp2208
tp2209
a(L3097863628L
L1880226080L
(lp2210
(lp2211
Vrtc_clk_apb_freq_update
p2212
aVrtc_clk_wait_for_slow_cycle
p2213
atp2214
atp2215
sI1074242444
(Vprocess_segment
p2216
(lp2217
(L4023325822L
L3785322319L
(lp2218
(lp2219
Vbootloader_flash_read
p2220
atp2221
a(L4245660792L
L3785322319L
(lp2222
(lp2223
Vesp_log_early_timestamp
p2224
atp2225
a(L2378867762L
L0L
(lp2226
(lp2227
tp2228
a(L2241831349L
L3785322319L
(lp2229
(lp2230
Vbootloader_sha256_data
p2231
atp2232
a(L3662992855L
L3785322319L
(lp2233
(lp2234
Vverify_segment_header
p2235
atp2236
a(L3458480366L
L0L
(lp2237
(lp2238
tp2239
a(L3028481L
L0L
(lp2240
(lp2241
tp2242
a(L1327631076L
L3785322319L
(lp2243
(lp2244
Vesp_log_early_timestamp
p2245
atp2246
a(L310071386L
L0L
(lp2247
(lp2248
tp2249
a(L1396114142L
L3785322319L
(lp2250
(lp2251
Vshould_map
p2252
atp2253
a(L3872460357L
L3785322319L
(lp2254
(lp2255
Vshould_load
p2256
atp2257
a(L2440112036L
L0L
(lp2258
(lp2259
tp2260
a(L2893621607L
L0L
(lp2261
(lp2262
tp2263
a(L4267722531L
L0L
(lp2264
(lp2265
tp2266
a(L1477562579L
L0L
(lp2267
(lp2268
tp2269
a(L3287840219L
L3785322319L
(lp2270
(lp2271
Vesp_log_early_timestamp
p2272
atp2273
a(L2902417580L
L0L
(lp2274
(lp2275
tp2276
a(L568241629L
L0L
(lp2277
(lp2278
tp2279
a(L568241381L
L0L
(lp2280
(lp2281
tp2282
a(L1403803689L
L0L
(lp2283
(lp2284
tp2285
a(L2788417309L
L0L
(lp2286
(lp2287
tp2288
a(L3020204L
L0L
(lp2289
(lp2290
tp2291
a(L1836115438L
L0L
(lp2292
(lp2293
tp2294
a(L108352914L
L0L
(lp2295
(lp2296
tp2297
a(L106L
L0L
(lp2298
(lp2299
tp2300
a(L1773149546L
L3785322319L
(lp2301
(lp2302
Vesp_log_early_timestamp
p2303
atp2304
a(L2967458357L
L0L
(lp2305
(lp2306
tp2307
a(L1242112302L
L3785322319L
(lp2308
(lp2309
V__assert_func
p2310
atp2311
a(L97642L
L0L
(lp2312
(lp2313
tp2314
a(L1706351068L
L3785322319L
(lp2315
(lp2316
V__assert_func
p2317
atp2318
a(L366123053L
L0L
(lp2319
(lp2320
tp2321
a(L2258867228L
L0L
(lp2322
(lp2323
tp2324
a(L1052660505L
L0L
(lp2325
(lp2326
tp2327
a(L1182990556L
L0L
(lp2328
(lp2329
tp2330
a(L2816536719L
L0L
(lp2331
(lp2332
tp2333
a(L1149229446L
L3785322319L
(lp2334
(lp2335
Vesp_log_early_timestamp
p2336
atp2337
a(L1067290642L
L3785322319L
(lp2338
(lp2339
Vbootloader_mmap_get_free_pages
p2340
atp2341
a(L1429983462L
L3785322319L
(lp2342
(lp2343
Vprocess_segment_data
p2344
atp2345
a(L1624476643L
L0L
(lp2346
(lp2347
tp2348
a(L3021737L
L0L
(lp2349
(lp2350
tp2351
a(L930693660L
L0L
(lp2352
(lp2353
tp2354
a(L1899940123L
L0L
(lp2355
(lp2356
tp2357
a(L3360570486L
L0L
(lp2358
(lp2359
tp2360
atp2361
sI1074245772
(Vrtc_wdt_protect_on
p2362
(lp2363
(L1794034690L
L0L
(lp2364
(lp2365
tp2366
atp2367
sI1074267780
(Vselect_partition_number
p2368
(lp2369
(L1731214134L
L3785322319L
(lp2370
(lp2371
Vbootloader_utility_load_partition_table
p2372
atp2373
a(L1837697588L
L3785322319L
(lp2374
(lp2375
Vesp_log_early_timestamp
p2376
atp2377
a(L1750549816L
L3785322319L
(lp2378
(lp2379
Vselected_boot_partition
p2380
atp2381
a(L3496950L
L0L
(lp2382
(lp2383
tp2384
atp2385
sI1074269572
(Vrtc_clk_init
p2386
(lp2387
(L2066786339L
L0L
(lp2388
(lp2389
tp2390
a(L2549152574L
L3785322319L
(lp2391
(lp2392
Vrtc_clk_cpu_freq_to_xtal
p2393
atp2394
a(L820553223L
L0L
(lp2395
(lp2396
tp2397
a(L3136361094L
L0L
(lp2398
(lp2399
tp2400
a(L3224614952L
L0L
(lp2401
(lp2402
tp2403
a(L1299866312L
L0L
(lp2404
(lp2405
tp2406
a(L1299866312L
L0L
(lp2407
(lp2408
tp2409
a(L1182811811L
L0L
(lp2410
(lp2411
tp2412
a(L3020204L
L0L
(lp2413
(lp2414
tp2415
a(L1849746773L
L3785322319L
(lp2416
(lp2417
Vrtc_clk_xtal_freq_get
p2418
atp2419
a(L1375577398L
L3785322319L
(lp2420
(lp2421
Vrtc_clk_xtal_freq_estimate
p2422
atp2423
a(L4233814653L
L3785322319L
(lp2424
(lp2425
Vesp_log_early_timestamp
p2426
atp2427
a(L2489577179L
L0L
(lp2428
(lp2429
tp2430
a(L4233392623L
L0L
(lp2431
(lp2432
tp2433
a(L1300789833L
L0L
(lp2434
(lp2435
tp2436
a(L1300789833L
L0L
(lp2437
(lp2438
tp2439
a(L2258718274L
L0L
(lp2440
(lp2441
tp2442
a(L3028481L
L0L
(lp2443
(lp2444
tp2445
a(L3183127930L
L3785322319L
(lp2446
(lp2447
Vrtc_clk_xtal_freq_estimate
p2448
atp2449
a(L2705290648L
L3785322319L
(lp2450
(lp2451
Vesp_log_early_timestamp
p2452
atp2453
a(L2092736903L
L0L
(lp2454
(lp2455
tp2456
a(L2419184577L
L2485746240L
(lp2457
(lp2458
Vrtc_clk_xtal_freq_update
p2459
aVrtc_clk_apb_freq_update
p2460
aVrtc_clk_cpu_freq_get_config
p2461
aVrtc_clk_cpu_freq_mhz_to_config
p2462
atp2463
a(L42625808L
L1880226080L
(lp2464
(lp2465
Vesp_log_early_timestamp
p2466
aVabort
p2467
atp2468
a(L26164863L
L3785322319L
(lp2469
(lp2470
Vrtc_clk_cpu_freq_set_config
p2471
atp2472
a(L4168829660L
L3785322319L
(lp2473
(lp2474
Vrtc_clk_32k_enable
p2475
atp2476
a(L3016870L
L0L
(lp2477
(lp2478
tp2479
a(L2533479215L
L3785322319L
(lp2480
(lp2481
Vrtc_clk_8m_enable
p2482
atp2483
a(L530469956L
L1880226080L
(lp2484
(lp2485
Vrtc_clk_fast_freq_set
p2486
aVrtc_clk_slow_freq_set
p2487
atp2488
atp2489
sI1074270852
(Vrtc_clk_wait_for_slow_cycle
p2490
(lp2491
(L3644181782L
L0L
(lp2492
(lp2493
tp2494
a(L2228660230L
L0L
(lp2495
(lp2496
tp2497
a(L679753971L
L0L
(lp2498
(lp2499
tp2500
a(L3360570486L
L0L
(lp2501
(lp2502
tp2503
atp2504
sI1074241672
(Vverify_segment_header
p2505
(lp2506
(L3674778058L
L0L
(lp2507
(lp2508
tp2509
a(L3795436786L
L0L
(lp2510
(lp2511
tp2512
a(L3028481L
L0L
(lp2513
(lp2514
tp2515
a(L223581711L
L3785322319L
(lp2516
(lp2517
Vesp_log_early_timestamp
p2518
atp2519
a(L310071386L
L0L
(lp2520
(lp2521
tp2522
a(L536784482L
L3785322319L
(lp2523
(lp2524
Vshould_map
p2525
atp2526
a(L3496178735L
L0L
(lp2527
(lp2528
tp2529
a(L2910371777L
L0L
(lp2530
(lp2531
tp2532
a(L3156977698L
L3785322319L
(lp2533
(lp2534
Vesp_log_early_timestamp
p2535
atp2536
a(L310071386L
L0L
(lp2537
(lp2538
tp2539
a(L1299866312L
L0L
(lp2540
(lp2541
tp2542
a(L2258688482L
L0L
(lp2543
(lp2544
tp2545
a(L3360570486L
L0L
(lp2546
(lp2547
tp2548
atp2549
sI1074237076
(Vbootloader_common_vddsdio_configure
p2550
(lp2551
(L1829974089L
L3785322319L
(lp2552
(lp2553
Vrtc_vddsdio_get_config
p2554
atp2555
a(L2697960163L
L3785322319L
(lp2556
(lp2557
Vrtc_vddsdio_set_config
p2558
atp2559
a(L3360570486L
L0L
(lp2560
(lp2561
tp2562
atp2563
sI1074270352
(Vrtc_clk_cal_internal
p2564
(lp2565
(L2785543047L
L0L
(lp2566
(lp2567
tp2568
a(L2344137504L
L3785322319L
(lp2569
(lp2570
V__assert_func
p2571
atp2572
a(L209486870L
L0L
(lp2573
(lp2574
tp2575
a(L1979498901L
L0L
(lp2576
(lp2577
tp2578
a(L3028464L
L0L
(lp2579
(lp2580
tp2581
a(L763236212L
L0L
(lp2582
(lp2583
tp2584
a(L401232362L
L0L
(lp2585
(lp2586
tp2587
a(L1352009054L
L0L
(lp2588
(lp2589
tp2590
a(L97422L
L0L
(lp2591
(lp2592
tp2593
a(L2120918540L
L0L
(lp2594
(lp2595
tp2596
a(L3900101454L
L0L
(lp2597
(lp2598
tp2599
a(L3900101330L
L0L
(lp2600
(lp2601
tp2602
a(L3900101330L
L0L
(lp2603
(lp2604
tp2605
a(L3900101454L
L0L
(lp2606
(lp2607
tp2608
a(L3450945696L
L0L
(lp2609
(lp2610
tp2611
a(L1277380815L
L3785322319L
(lp2612
(lp2613
Vrtc_clk_xtal_freq_get
p2614
atp2615
a(L2780079961L
L0L
(lp2616
(lp2617
tp2618
a(L2007867703L
L0L
(lp2619
(lp2620
tp2621
a(L2257879593L
L3785322319L
(lp2622
(lp2623
Vesp_log_early_timestamp
p2624
atp2625
a(L2209925168L
L0L
(lp2626
(lp2627
tp2628
a(L2356680430L
L0L
(lp2629
(lp2630
tp2631
a(L679754467L
L0L
(lp2632
(lp2633
tp2634
a(L3021737L
L0L
(lp2635
(lp2636
tp2637
a(L3589052772L
L0L
(lp2638
(lp2639
tp2640
a(L524443757L
L0L
(lp2641
(lp2642
tp2643
a(L2902417580L
L0L
(lp2644
(lp2645
tp2646
a(L222622022L
L0L
(lp2647
(lp2648
tp2649
a(L2258688482L
L0L
(lp2650
(lp2651
tp2652
a(L3360570486L
L0L
(lp2653
(lp2654
tp2655
atp2656
sI1074236828
(Vbootloader_clock_configure
p2657
(lp2658
(L3493042567L
L0L
(lp2659
(lp2660
tp2661
a(L4281448847L
L0L
(lp2662
(lp2663
tp2664
a(L1229860772L
L0L
(lp2665
(lp2666
tp2667
a(L1518940034L
L0L
(lp2668
(lp2669
tp2670
a(L1812928027L
L0L
(lp2671
(lp2672
tp2673
a(L1812928027L
L0L
(lp2674
(lp2675
tp2676
a(L2312970590L
L0L
(lp2677
(lp2678
tp2679
a(L2314897641L
L1832448559L
(lp2680
(lp2681
Vrtc_clk_slow_freq_get
p2682
aVrtc_clk_fast_freq_get
p2683
aVrtc_clk_init
p2684
atp2685
atp2686
sI1074245788
(Vrtc_wdt_enable
p2687
(lp2688
(L1218092682L
L0L
(lp2689
(lp2690
tp2691
atp2692
sI1074246552
(Vrtc_clk_bbpll_enable
p2693
(lp2694
(L207504232L
L0L
(lp2695
(lp2696
tp2697
atp2698
sI1074247064
(Vrtc_clk_fast_freq_set
p2699
(lp2700
(L2405882798L
L0L
(lp2701
(lp2702
tp2703
atp2704
sI1074269352
(Vabort
p2705
(lp2706
(L1496783690L
L3785322319L
(lp2707
(lp2708
Vesp_cpu_in_ocd_debug_mode
p2709
atp2710
a(L409441471L
L0L
(lp2711
(lp2712
tp2713
a(L106L
L0L
(lp2714
(lp2715
tp2716
atp2717
sI1074239652
(Vset_cache_and_start_app
p2718
(lp2719
(L2286081353L
L0L
(lp2720
(lp2721
tp2722
a(L1268627280L
L0L
(lp2723
(lp2724
tp2725
a(L1548223148L
L0L
(lp2726
(lp2727
tp2728
a(L2687545080L
L0L
(lp2729
(lp2730
tp2731
atp2732
sI1074244772
(Vesp_rom_spiflash_write
p2733
(lp2734
(L2240382307L
L0L
(lp2735
(lp2736
tp2737
a(L106L
L0L
(lp2738
(lp2739
tp2740
a(L1741708259L
L0L
(lp2741
(lp2742
tp2743
a(L4152697687L
L3785322319L
(lp2744
(lp2745
Vesp_rom_spiflash_program_page_internal
p2746
atp2747
a(L106L
L0L
(lp2748
(lp2749
tp2750
a(L208883091L
L3785322319L
(lp2751
(lp2752
Vesp_rom_spiflash_program_page_internal
p2753
atp2754
a(L1672331730L
L0L
(lp2755
(lp2756
tp2757
a(L2760439068L
L3785322319L
(lp2758
(lp2759
Vesp_rom_spiflash_program_page_internal
p2760
atp2761
a(L850197805L
L0L
(lp2762
(lp2763
tp2764
a(L4159629294L
L0L
(lp2765
(lp2766
tp2767
a(L3138844444L
L3785322319L
(lp2768
(lp2769
Vesp_rom_spiflash_program_page_internal
p2770
atp2771
a(L106L
L0L
(lp2772
(lp2773
tp2774
a(L1299866343L
L0L
(lp2775
(lp2776
tp2777
a(L1299866343L
L0L
(lp2778
(lp2779
tp2780
a(L1299866343L
L0L
(lp2781
(lp2782
tp2783
a(L1299866343L
L0L
(lp2784
(lp2785
tp2786
a(L1182811811L
L0L
(lp2787
(lp2788
tp2789
a(L3360570486L
L0L
(lp2790
(lp2791
tp2792
atp2793
sI1074247596
(Vrtc_clk_cpu_freq_mhz_to_config
p2794
(lp2795
(L2601984125L
L3785322319L
(lp2796
(lp2797
Vrtc_clk_xtal_freq_get
p2798
atp2799
a(L2647093801L
L0L
(lp2800
(lp2801
tp2802
a(L3263839434L
L0L
(lp2803
(lp2804
tp2805
a(L2762074623L
L0L
(lp2806
(lp2807
tp2808
a(L1541996779L
L0L
(lp2809
(lp2810
tp2811
a(L1546614651L
L0L
(lp2812
(lp2813
tp2814
a(L1555485793L
L0L
(lp2815
(lp2816
tp2817
a(L1695987314L
L0L
(lp2818
(lp2819
tp2820
a(L3652406074L
L0L
(lp2821
(lp2822
tp2823
a(L1139084306L
L0L
(lp2824
(lp2825
tp2826
a(L1299866312L
L0L
(lp2827
(lp2828
tp2829
a(L2258688482L
L0L
(lp2830
(lp2831
tp2832
a(L3360570486L
L0L
(lp2833
(lp2834
tp2835
atp2836
sI1074237352
(Vbootloader_common_ota_select_invalid
p2837
(lp2838
(L2808438197L
L0L
(lp2839
(lp2840
tp2841
a(L473337258L
L0L
(lp2842
(lp2843
tp2844
a(L3028464L
L0L
(lp2845
(lp2846
tp2847
a(L1299866343L
L0L
(lp2848
(lp2849
tp2850
a(L1299866343L
L0L
(lp2851
(lp2852
tp2853
a(L1299866343L
L0L
(lp2854
(lp2855
tp2856
a(L2258688482L
L0L
(lp2857
(lp2858
tp2859
a(L3360570486L
L0L
(lp2860
(lp2861
tp2862
atp2863
sI1074238132
(Vbootloader_flash_write
p2864
(lp2865
(L1798169257L
L0L
(lp2866
(lp2867
tp2868
a(L1755666842L
L0L
(lp2869
(lp2870
tp2871
a(L1182930978L
L0L
(lp2872
(lp2873
tp2874
a(L1516326052L
L0L
(lp2875
(lp2876
tp2877
a(L20293602L
L3785322319L
(lp2878
(lp2879
Vesp_log_early_timestamp
p2880
atp2881
a(L3291333414L
L0L
(lp2882
(lp2883
tp2884
a(L1693862220L
L3785322319L
(lp2885
(lp2886
Vesp_log_early_timestamp
p2887
atp2888
a(L3283691850L
L0L
(lp2889
(lp2890
tp2891
a(L1664792438L
L3785322319L
(lp2892
(lp2893
Vesp_log_early_timestamp
p2894
atp2895
a(L3212356251L
L3785322319L
(lp2896
(lp2897
Vbootloader_flash_unlock
p2898
atp2899
a(L2902417580L
L0L
(lp2900
(lp2901
tp2902
a(L2913054701L
L1880226080L
(lp2903
(lp2904
Vesp_rom_spiflash_write_encrypted
p2905
aVspi_to_esp_err
p2906
atp2907
a(L4281627677L
L1880226080L
(lp2908
(lp2909
Vesp_rom_spiflash_write
p2910
aVspi_to_esp_err
p2911
atp2912
a(L735741265L
L0L
(lp2913
(lp2914
tp2915
atp2916
sI1074238900
(Vbootloader_random_disable
p2917
(lp2918
(L3386151447L
L0L
(lp2919
(lp2920
tp2921
atp2922
sI1074247856
(Vrtc_clk_xtal_freq_update
p2923
(lp2924
(L1411266354L
L0L
(lp2925
(lp2926
tp2927
a(L3509357017L
L0L
(lp2928
(lp2929
tp2930
a(L2772406042L
L0L
(lp2931
(lp2932
tp2933
atp2934
sI1074240700
(Vbootloader_reset
p2935
(lp2936
(L1448621163L
L0L
(lp2937
(lp2938
tp2939
a(L106L
L0L
(lp2940
(lp2941
tp2942
atp2943
sI1074235580
(Vbootloader_flash_execute_command_common
p2944
(lp2945
(L3093683517L
L0L
(lp2946
(lp2947
tp2948
a(L3553389917L
L3785322319L
(lp2949
(lp2950
V__assert_func
p2951
atp2952
a(L3934048903L
L0L
(lp2953
(lp2954
tp2955
a(L200507376L
L3785322319L
(lp2956
(lp2957
V__assert_func
p2958
atp2959
a(L271654967L
L0L
(lp2960
(lp2961
tp2962
a(L3677736035L
L0L
(lp2963
(lp2964
tp2965
a(L2720116201L
L0L
(lp2966
(lp2967
tp2968
a(L1370372145L
L0L
(lp2969
(lp2970
tp2971
a(L2053727415L
L0L
(lp2972
(lp2973
tp2974
a(L3056583676L
L0L
(lp2975
(lp2976
tp2977
a(L2460931740L
L0L
(lp2978
(lp2979
tp2980
a(L2258807646L
L0L
(lp2981
(lp2982
tp2983
a(L363225620L
L0L
(lp2984
(lp2985
tp2986
a(L3513331551L
L0L
(lp2987
(lp2988
tp2989
a(L2258807646L
L0L
(lp2990
(lp2991
tp2992
a(L2509596774L
L0L
(lp2993
(lp2994
tp2995
a(L3541824727L
L0L
(lp2996
(lp2997
tp2998
a(L526118246L
L0L
(lp2999
(lp3000
tp3001
a(L377965372L
L0L
(lp3002
(lp3003
tp3004
a(L3360570486L
L0L
(lp3005
(lp3006
tp3007
atp3008
sI1074267828
(Vcall_start_cpu0
p3009
(lp3010
(L2311976169L
L3785322319L
(lp3011
(lp3012
Vbootloader_init
p3013
atp3014
a(L3827921190L
L3785322319L
(lp3015
(lp3016
Vbootloader_reset
p3017
atp3018
a(L4083304126L
L3785322319L
(lp3019
(lp3020
Vselect_partition_number
p3021
atp3022
a(L94425498L
L3785322319L
(lp3023
(lp3024
Vbootloader_reset
p3025
atp3026
a(L1678595755L
L3785322319L
(lp3027
(lp3028
Vbootloader_utility_load_boot_image
p3029
atp3030
atp3031
sI1074241208
(Vbootloader_sha256_start
p3032
(lp3033
(L3681654819L
L0L
(lp3034
(lp3035
tp3036
atp3037
sI1074242232
(Vdebug_log_hash
p3038
(lp3039
(L1348589273L
L3785322319L
(lp3040
(lp3041
Vbootloader_sha256_hex_to_str
p3042
atp3043
atp3044
sI1074244024
(Vesp_rom_spiflash_wait_idle
p3045
(lp3046
(L287326052L
L0L
(lp3047
(lp3048
tp3049
a(L3844999098L
L0L
(lp3050
(lp3051
tp3052
a(L4132553662L
L0L
(lp3053
(lp3054
tp3055
a(L855829385L
L3785322319L
(lp3056
(lp3057
Vesp_rom_spiflash_read_status
p3058
atp3059
a(L1298875774L
L0L
(lp3060
(lp3061
tp3062
a(L735741265L
L0L
(lp3063
(lp3064
tp3065
atp3066
sI1074247108
(Vrtc_clk_fast_freq_get
p3067
(lp3068
(L1972479170L
L0L
(lp3069
(lp3070
tp3071
atp3072
sI1074268620
(Vupdate_flash_config
p3073
(lp3074
(L2363123660L
L0L
(lp3075
(lp3076
tp3077
a(L604335882L
L0L
(lp3078
(lp3079
tp3080
a(L2258688484L
L0L
(lp3081
(lp3082
tp3083
a(L1002360078L
L0L
(lp3084
(lp3085
tp3086
atp3087
sI1074241228
(Vbootloader_sha256_data
p3088
(lp3089
(L4037466985L
L0L
(lp3090
(lp3091
tp3092
a(L3677081809L
L3785322319L
(lp3093
(lp3094
V__assert_func
p3095
atp3096
a(L2660352519L
L0L
(lp3097
(lp3098
tp3099
a(L2258442246L
L3785322319L
(lp3100
(lp3101
V__assert_func
p3102
atp3103
a(L66409669L
L0L
(lp3104
(lp3105
tp3106
a(L1926497079L
L0L
(lp3107
(lp3108
tp3109
a(L270085569L
L0L
(lp3110
(lp3111
tp3112
a(L1301713354L
L0L
(lp3113
(lp3114
tp3115
a(L3038547586L
L0L
(lp3116
(lp3117
tp3118
a(L3027019L
L0L
(lp3119
(lp3120
tp3121
a(L656661246L
L0L
(lp3122
(lp3123
tp3124
a(L3028464L
L0L
(lp3125
(lp3126
tp3127
a(L1224937618L
L0L
(lp3128
(lp3129
tp3130
a(L455561372L
L0L
(lp3131
(lp3132
tp3133
a(L3028481L
L0L
(lp3134
(lp3135
tp3136
a(L3360570486L
L0L
(lp3137
(lp3138
tp3139
atp3140
sI1074240460
(Vbootloader_utility_get_selected_boot_partition
p3141
(lp3142
(L493075905L
L0L
(lp3143
(lp3144
tp3145
a(L1053676827L
L3785322319L
(lp3146
(lp3147
Vread_otadata
p3148
atp3149
a(L2110620846L
L3785322319L
(lp3150
(lp3151
Vbootloader_common_ota_select_invalid
p3152
atp3153
a(L1836822349L
L3785322319L
(lp3154
(lp3155
Vbootloader_common_ota_select_invalid
p3156
atp3157
a(L1103582223L
L0L
(lp3158
(lp3159
tp3160
a(L1434139642L
L0L
(lp3161
(lp3162
tp3163
a(L5463768L
L3785322319L
(lp3164
(lp3165
Vesp_log_early_timestamp
p3166
atp3167
a(L191080347L
L3785322319L
(lp3168
(lp3169
Vesp_log_early_timestamp
p3170
atp3171
a(L1231013322L
L3785322319L
(lp3172
(lp3173
Vbootloader_common_ota_select_crc
p3174
atp3175
a(L505081345L
L0L
(lp3176
(lp3177
tp3178
a(L919052234L
L3785322319L
(lp3179
(lp3180
Vbootloader_common_ota_select_crc
p3181
atp3182
a(L2184549057L
L0L
(lp3183
(lp3184
tp3185
a(L1876827316L
L3785322319L
(lp3186
(lp3187
Vbootloader_common_get_active_otadata
p3188
atp3189
a(L2624014019L
L0L
(lp3190
(lp3191
tp3192
a(L1434139642L
L0L
(lp3193
(lp3194
tp3195
a(L3689754462L
L3785322319L
(lp3196
(lp3197
Vesp_log_early_timestamp
p3198
atp3199
a(L3790352659L
L3785322319L
(lp3200
(lp3201
Vesp_log_early_timestamp
p3202
atp3203
a(L1641201884L
L0L
(lp3204
(lp3205
tp3206
a(L2805938668L
L0L
(lp3207
(lp3208
tp3209
a(L3360570486L
L0L
(lp3210
(lp3211
tp3212
atp3213
sI1074237388
(Vbootloader_common_select_otadata
p3214
(lp3215
(L3584189777L
L0L
(lp3216
(lp3217
tp3218
a(L1238320367L
L0L
(lp3219
(lp3220
tp3221
a(L1238350425L
L0L
(lp3222
(lp3223
tp3224
a(L3063569071L
L0L
(lp3225
(lp3226
tp3227
a(L1299866312L
L0L
(lp3228
(lp3229
tp3230
a(L2902417580L
L0L
(lp3231
(lp3232
tp3233
a(L2266899299L
L0L
(lp3234
(lp3235
tp3236
a(L1021104441L
L0L
(lp3237
(lp3238
tp3239
a(L3969214161L
L0L
(lp3240
(lp3241
tp3242
a(L1299866312L
L0L
(lp3243
(lp3244
tp3245
a(L1098457408L
L0L
(lp3246
(lp3247
tp3248
a(L1770629919L
L0L
(lp3249
(lp3250
tp3251
a(L3027007L
L0L
(lp3252
(lp3253
tp3254
a(L1641201884L
L0L
(lp3255
(lp3256
tp3257
a(L1641201884L
L0L
(lp3258
(lp3259
tp3260
a(L2258688483L
L0L
(lp3261
(lp3262
tp3263
a(L3360570486L
L0L
(lp3264
(lp3265
tp3266
atp3267
sI1074234828
(Vbootloader_flash_gpio_config
p3268
(lp3269
(L2421374338L
L0L
(lp3270
(lp3271
tp3272
a(L1299866374L
L0L
(lp3273
(lp3274
tp3275
a(L2258688485L
L0L
(lp3276
(lp3277
tp3278
a(L3994737887L
L0L
(lp3279
(lp3280
tp3281
a(L3374238576L
L0L
(lp3282
(lp3283
tp3284
a(L3028464L
L0L
(lp3285
(lp3286
tp3287
a(L3374238576L
L0L
(lp3288
(lp3289
tp3290
a(L3028464L
L0L
(lp3291
(lp3292
tp3293
a(L3374238576L
L0L
(lp3294
(lp3295
tp3296
a(L1620391664L
L0L
(lp3297
(lp3298
tp3299
a(L2823660977L
L0L
(lp3300
(lp3301
tp3302
a(L2854935024L
L0L
(lp3303
(lp3304
tp3305
a(L3360570486L
L0L
(lp3306
(lp3307
tp3308
atp3309
sI1074237128
(Vbootloader_common_get_chip_revision
p3310
(lp3311
(L713572164L
L0L
(lp3312
(lp3313
tp3314
a(L3020187L
L0L
(lp3315
(lp3316
tp3317
a(L3020187L
L0L
(lp3318
(lp3319
tp3320
a(L1299866312L
L0L
(lp3321
(lp3322
tp3323
a(L1299866374L
L0L
(lp3324
(lp3325
tp3326
a(L1299866405L
L0L
(lp3327
(lp3328
tp3329
a(L2258688483L
L0L
(lp3330
(lp3331
tp3332
a(L3360570486L
L0L
(lp3333
(lp3334
tp3335
atp3336
sI1074239432
(Vwrite_otadata
p3337
(lp3338
(L1129643552L
L3785322319L
(lp3339
(lp3340
Vbootloader_flash_erase_sector
p3341
atp3342
a(L2292404229L
L3785322319L
(lp3343
(lp3344
Vbootloader_flash_write
p3345
atp3346
a(L3020204L
L0L
(lp3347
(lp3348
tp3349
a(L205662936L
L3785322319L
(lp3350
(lp3351
Vesp_log_early_timestamp
p3352
atp3353
a(L3360570486L
L0L
(lp3354
(lp3355
tp3356
atp3357
sI1074245832
(Vrtc_wdt_set_time
p3358
(lp3359
(L607216364L
L0L
(lp3360
(lp3361
tp3362
a(L1805180960L
L3785322319L
(lp3363
(lp3364
Vrtc_clk_slow_freq_get_hz
p3365
atp3366
a(L3565034703L
L0L
(lp3367
(lp3368
tp3369
a(L3028464L
L0L
(lp3370
(lp3371
tp3372
a(L462971067L
L0L
(lp3373
(lp3374
tp3375
a(L3028464L
L0L
(lp3376
(lp3377
tp3378
a(L1866170815L
L0L
(lp3379
(lp3380
tp3381
a(L3269370563L
L0L
(lp3382
(lp3383
tp3384
a(L2810785765L
L0L
(lp3385
(lp3386
tp3387
a(L3360570486L
L0L
(lp3388
(lp3389
tp3390
atp3391
sI1074247124
(Vrtc_clk_bbpll_configure
p3392
(lp3393
(L4270275352L
L0L
(lp3394
(lp3395
tp3396
a(L106L
L0L
(lp3397
(lp3398
tp3399
a(L3473424451L
L0L
(lp3400
(lp3401
tp3402
a(L83268344L
L0L
(lp3403
(lp3404
tp3405
a(L82344823L
L0L
(lp3406
(lp3407
tp3408
a(L3716763792L
L0L
(lp3409
(lp3410
tp3411
a(L2946597619L
L0L
(lp3412
(lp3413
tp3414
a(L1853483621L
L0L
(lp3415
(lp3416
tp3417
a(L2588903510L
L0L
(lp3418
(lp3419
tp3420
a(L3718849448L
L0L
(lp3421
(lp3422
tp3423
a(L3858106240L
L0L
(lp3424
(lp3425
tp3426
a(L83268344L
L0L
(lp3427
(lp3428
tp3429
a(L82344823L
L0L
(lp3430
(lp3431
tp3432
a(L3716763792L
L0L
(lp3433
(lp3434
tp3435
a(L3716340639L
L0L
(lp3436
(lp3437
tp3438
a(L274194809L
L0L
(lp3439
(lp3440
tp3441
a(L2613733930L
L0L
(lp3442
(lp3443
tp3444
a(L251591536L
L0L
(lp3445
(lp3446
tp3447
a(L3307325709L
L3785322319L
(lp3448
(lp3449
Vrtc_clk_slow_freq_get
p3450
atp3451
a(L2679108412L
L0L
(lp3452
(lp3453
tp3454
a(L2780081410L
L0L
(lp3455
(lp3456
tp3457
a(L444659913L
L0L
(lp3458
(lp3459
tp3460
atp3461
sI1074248404
(Vrtc_clk_apb_freq_get
p3462
(lp3463
(L1474494697L
L0L
(lp3464
(lp3465
tp3466
atp3467
sI1074242256
(Vverify_simple_hash
p3468
(lp3469
(L1704488175L
L1832448559L
(lp3470
(lp3471
Vbootloader_sha256_finish
p3472
aVdebug_log_hash
p3473
aVbootloader_mmap
p3474
atp3475
a(L2987447281L
L1832448559L
(lp3476
(lp3477
Vesp_log_early_timestamp
p3478
aVdebug_log_hash
p3479
aVbootloader_munmap
p3480
atp3481
a(L1362502076L
L3785322319L
(lp3482
(lp3483
Vbootloader_munmap
p3484
atp3485
a(L3360570486L
L0L
(lp3486
(lp3487
tp3488
atp3489
sI1074246352
(Vrtc_clk_32k_enable_common
p3490
(lp3491
(L726991519L
L0L
(lp3492
(lp3493
tp3494
atp3495
sI1074246876
(Vrtc_clk_8m_enabled
p3496
(lp3497
(L2999187501L
L0L
(lp3498
(lp3499
tp3500
atp3501
sI1074245084
(Vesp_rom_spiflash_read
p3502
(lp3503
(L150841546L
L0L
(lp3504
(lp3505
tp3506
a(L2728238197L
L0L
(lp3507
(lp3508
tp3509
a(L3017366L
L0L
(lp3510
(lp3511
tp3512
a(L106L
L0L
(lp3513
(lp3514
tp3515
a(L3373545446L
L0L
(lp3516
(lp3517
tp3518
a(L106L
L0L
(lp3519
(lp3520
tp3521
a(L903815341L
L0L
(lp3522
(lp3523
tp3524
a(L2572057115L
L0L
(lp3525
(lp3526
tp3527
a(L1596813127L
L0L
(lp3528
(lp3529
tp3530
a(L3016870L
L0L
(lp3531
(lp3532
tp3533
a(L3837418028L
L0L
(lp3534
(lp3535
tp3536
a(L3016870L
L0L
(lp3537
(lp3538
tp3539
a(L3546986264L
L0L
(lp3540
(lp3541
tp3542
a(L2222212110L
L0L
(lp3543
(lp3544
tp3545
a(L279704618L
L0L
(lp3546
(lp3547
tp3548
a(L2174432247L
L0L
(lp3549
(lp3550
tp3551
a(L3069035187L
L0L
(lp3552
(lp3553
tp3554
a(L3103435156L
L0L
(lp3555
(lp3556
tp3557
a(L862024006L
L0L
(lp3558
(lp3559
tp3560
a(L855996764L
L3785322319L
(lp3561
(lp3562
Vesp_rom_spiflash_read_data
p3563
atp3564
a(L1298875774L
L0L
(lp3565
(lp3566
tp3567
a(L735741265L
L0L
(lp3568
(lp3569
tp3570
atp3571
sI1074238428
(Vbootloader_random_enable
p3572
(lp3573
(L3776654958L
L0L
(lp3574
(lp3575
tp3576
atp3577
sI1074247900
(Vrtc_clk_apb_freq_update
p3578
(lp3579
(L910144951L
L0L
(lp3580
(lp3581
tp3582
atp3583
sI1074269396
(Vrtc_clk_xtal_freq_estimate
p3584
(lp3585
(L2516060585L
L1880226080L
(lp3586
(lp3587
Vrtc_clk_8m_enabled
p3588
aVrtc_clk_8md256_enabled
p3589
atp3590
a(L967485502L
L3785322319L
(lp3591
(lp3592
Vrtc_clk_8m_enable
p3593
atp3594
a(L59032741L
L3785322319L
(lp3595
(lp3596
Vrtc_clk_cal_ratio
p3597
atp3598
a(L1789153894L
L0L
(lp3599
(lp3600
tp3601
a(L3390943589L
L3785322319L
(lp3602
(lp3603
Vesp_log_early_timestamp
p3604
atp3605
a(L3360570486L
L0L
(lp3606
(lp3607
tp3608
atp3609
sI1074236120
(Vexecute_flash_command
p3610
(lp3611
(L2909450247L
L3785322319L
(lp3612
(lp3613
Vbootloader_flash_execute_command_common
p3614
atp3615
atp3616
sI1074240996
(Vindex_to_partition
p3617
(lp3618
(L4066096119L
L0L
(lp3619
(lp3620
tp3621
a(L937847257L
L0L
(lp3622
(lp3623
tp3624
a(L2808906342L
L0L
(lp3625
(lp3626
tp3627
a(L1765918994L
L0L
(lp3628
(lp3629
tp3630
a(L2808826781L
L0L
(lp3631
(lp3632
tp3633
a(L2911029954L
L0L
(lp3634
(lp3635
tp3636
a(L544791756L
L0L
(lp3637
(lp3638
tp3639
a(L1984670054L
L0L
(lp3640
(lp3641
tp3642
a(L3698927993L
L0L
(lp3643
(lp3644
tp3645
atp3646
sI1074267884
(Vwdt_reset_cpu0_info_enable
p3647
(lp3648
(L4219338206L
L0L
(lp3649
(lp3650
tp3651
atp3652
sI1074236384
(Vbootloader_flash_unlock
p3653
(lp3654
(L3746304696L
L3785322319L
(lp3655
(lp3656
Vesp_rom_spiflash_wait_idle
p3657
atp3658
a(L3827077634L
L3785322319L
(lp3659
(lp3660
Vexecute_flash_command
p3661
atp3662
a(L3162775668L
L0L
(lp3663
(lp3664
tp3665
a(L1225466760L
L0L
(lp3666
(lp3667
tp3668
a(L2151861662L
L0L
(lp3669
(lp3670
tp3671
a(L1299866312L
L0L
(lp3672
(lp3673
tp3674
a(L1299866312L
L0L
(lp3675
(lp3676
tp3677
a(L1299866312L
L0L
(lp3678
(lp3679
tp3680
a(L1182811811L
L0L
(lp3681
(lp3682
tp3683
a(L3020204L
L0L
(lp3684
(lp3685
tp3686
a(L2678961441L
L1880226080L
(lp3687
(lp3688
Vexecute_flash_command
p3689
aVexecute_flash_command
p3690
atp3691
a(L3220422812L
L1880226080L
(lp3692
(lp3693
Vexecute_flash_command
p3694
aVexecute_flash_command
p3695
atp3696
a(L97422L
L0L
(lp3697
(lp3698
tp3699
a(L2746578736L
L1157885199L
(lp3700
(lp3701
Vesp_rom_spiflash_wait_idle
p3702
aVexecute_flash_command
p3703
aVesp_rom_spiflash_wait_idle
p3704
aVexecute_flash_command
p3705
aVesp_rom_spiflash_wait_idle
p3706
atp3707
a(L97422L
L0L
(lp3708
(lp3709
tp3710
a(L779969632L
L1157885199L
(lp3711
(lp3712
Vesp_rom_spiflash_wait_idle
p3713
aVexecute_flash_command
p3714
aVesp_rom_spiflash_wait_idle
p3715
aVexecute_flash_command
p3716
aVesp_rom_spiflash_wait_idle
p3717
atp3718
a(L2531355236L
L1880226080L
(lp3719
(lp3720
Vexecute_flash_command
p3721
aVesp_rom_spiflash_wait_idle
p3722
atp3723
atp3724
sI1074244076
(Vesp_rom_spiflash_erase_sector_internal
p3725
(lp3726
(L3143713660L
L0L
(lp3727
(lp3728
tp3729
a(L2097632761L
L3785322319L
(lp3730
(lp3731
Vesp_rom_spiflash_wait_idle
p3732
atp3733
a(L4193650147L
L0L
(lp3734
(lp3735
tp3736
a(L175395183L
L3785322319L
(lp3737
(lp3738
Vesp_rom_spiflash_wait_idle
p3739
atp3740
a(L2258688483L
L0L
(lp3741
(lp3742
tp3743
a(L3360570486L
L0L
(lp3744
(lp3745
tp3746
atp3747
sI1074237932
(Vbootloader_munmap
p3748
(lp3749
(L980128336L
L0L
(lp3750
(lp3751
tp3752
a(L1938740746L
L0L
(lp3753
(lp3754
tp3755
a(L3360570486L
L0L
(lp3756
(lp3757
tp3758
atp3759
sI1074240744
(Vbootloader_utility_load_boot_image
p3760
(lp3761
(L3583044102L
L0L
(lp3762
(lp3763
tp3764
a(L534474525L
L3785322319L
(lp3765
(lp3766
Vtry_load_partition
p3767
atp3768
a(L1346171890L
L3785322319L
(lp3769
(lp3770
Vload_image
p3771
atp3772
a(L1974838981L
L1880226080L
(lp3773
(lp3774
Vesp_log_early_timestamp
p3775
aVbootloader_reset
p3776
atp3777
a(L471331349L
L3785322319L
(lp3778
(lp3779
Vindex_to_partition
p3780
atp3781
a(L889780906L
L3785322319L
(lp3782
(lp3783
Vcheck_anti_rollback
p3784
atp3785
a(L1255570883L
L3785322319L
(lp3786
(lp3787
Vtry_load_partition
p3788
atp3789
a(L170811925L
L1880226080L
(lp3790
(lp3791
Vset_actual_ota_seq
p3792
aVload_image
p3793
atp3794
a(L1391131227L
L3785322319L
(lp3795
(lp3796
Vlog_invalid_app_partition
p3797
atp3798
a(L11368960L
L0L
(lp3799
(lp3800
tp3801
a(L3802068281L
L0L
(lp3802
(lp3803
tp3804
a(L3021737L
L0L
(lp3805
(lp3806
tp3807
a(L4238347245L
L0L
(lp3808
(lp3809
tp3810
a(L3969617880L
L3785322319L
(lp3811
(lp3812
Vindex_to_partition
p3813
atp3814
a(L889780906L
L3785322319L
(lp3815
(lp3816
Vcheck_anti_rollback
p3817
atp3818
a(L1255570883L
L3785322319L
(lp3819
(lp3820
Vtry_load_partition
p3821
atp3822
a(L2740298324L
L1880226080L
(lp3823
(lp3824
Vset_actual_ota_seq
p3825
aVload_image
p3826
atp3827
a(L2162300612L
L3785322319L
(lp3828
(lp3829
Vlog_invalid_app_partition
p3830
atp3831
a(L3307283485L
L0L
(lp3832
(lp3833
tp3834
a(L1508906068L
L0L
(lp3835
(lp3836
tp3837
a(L2528911837L
L3785322319L
(lp3838
(lp3839
Vtry_load_partition
p3840
atp3841
a(L2988517596L
L1880226080L
(lp3842
(lp3843
Vesp_log_early_timestamp
p3844
aVload_image
p3845
atp3846
a(L113862283L
L1880226080L
(lp3847
(lp3848
Vesp_log_early_timestamp
p3849
aVbootloader_reset
p3850
atp3851
atp3852
sI1074268156
(Vprint_flash_info
p3853
(lp3854
(L2711731451L
L0L
(lp3855
(lp3856
tp3857
a(L608600031L
L0L
(lp3858
(lp3859
tp3860
a(L3020187L
L0L
(lp3861
(lp3862
tp3863
a(L225150647L
L0L
(lp3864
(lp3865
tp3866
a(L460429684L
L0L
(lp3867
(lp3868
tp3869
a(L460429560L
L0L
(lp3870
(lp3871
tp3872
a(L460430397L
L0L
(lp3873
(lp3874
tp3875
a(L460429684L
L0L
(lp3876
(lp3877
tp3878
a(L3201441249L
L0L
(lp3879
(lp3880
tp3881
a(L1848995258L
L3785322319L
(lp3882
(lp3883
Vesp_log_early_timestamp
p3884
atp3885
a(L3017366L
L0L
(lp3886
(lp3887
tp3888
a(L3017366L
L0L
(lp3889
(lp3890
tp3891
a(L3017366L
L0L
(lp3892
(lp3893
tp3894
a(L3016870L
L0L
(lp3895
(lp3896
tp3897
a(L460431606L
L0L
(lp3898
(lp3899
tp3900
a(L460430521L
L0L
(lp3901
(lp3902
tp3903
a(L460430645L
L0L
(lp3904
(lp3905
tp3906
a(L460431482L
L0L
(lp3907
(lp3908
tp3909
a(L460431358L
L0L
(lp3910
(lp3911
tp3912
a(L3201441280L
L0L
(lp3913
(lp3914
tp3915
a(L17431379L
L3785322319L
(lp3916
(lp3917
Vesp_log_early_timestamp
p3918
atp3919
a(L937550364L
L0L
(lp3920
(lp3921
tp3922
a(L703425374L
L0L
(lp3923
(lp3924
tp3925
a(L3185200879L
L3785322319L
(lp3926
(lp3927
Vesp_log_early_timestamp
p3928
atp3929
atp3930
sI1074239216
(Vlog_invalid_app_partition
p3931
(lp3932
(L3686132467L
L0L
(lp3933
(lp3934
tp3935
a(L3028464L
L0L
(lp3936
(lp3937
tp3938
a(L90812228L
L3785322319L
(lp3939
(lp3940
Vesp_log_early_timestamp
p3941
atp3942
a(L1504489145L
L3785322319L
(lp3943
(lp3944
Vesp_log_early_timestamp
p3945
atp3946
a(L444413052L
L3785322319L
(lp3947
(lp3948
Vesp_log_early_timestamp
p3949
atp3950
a(L3496950L
L0L
(lp3951
(lp3952
tp3953
atp3954
sI1074236144
(Vbootloader_read_flash_id
p3955
(lp3956
(L1815620575L
L3785322319L
(lp3957
(lp3958
Vexecute_flash_command
p3959
atp3960
atp3961
sI1074241776
(Vverify_checksum
p3962
(lp3963
(L2404488809L
L3785322319L
(lp3964
(lp3965
Vbootloader_flash_read
p3966
atp3967
a(L3891313045L
L3785322319L
(lp3968
(lp3969
Vesp_log_early_timestamp
p3970
atp3971
a(L3020204L
L0L
(lp3972
(lp3973
tp3974
a(L2547710365L
L3785322319L
(lp3975
(lp3976
Vbootloader_sha256_data
p3977
atp3978
a(L4124473353L
L0L
(lp3979
(lp3980
tp3981
a(L1223427414L
L0L
(lp3982
(lp3983
tp3984
a(L4270503677L
L0L
(lp3985
(lp3986
tp3987
a(L3360570486L
L0L
(lp3988
(lp3989
tp3990
atp3991
sI1074246128
(Vrtc_wdt_disable
p3992
(lp3993
(L1233433337L
L3785322319L
(lp3994
(lp3995
Vrtc_wdt_get_protect_status
p3996
atp3997
a(L3827921190L
L3785322319L
(lp3998
(lp3999
Vrtc_wdt_protect_off
p4000
atp4001
a(L3990916661L
L2485746240L
(lp4002
(lp4003
Vrtc_wdt_set_stage
p4004
aVrtc_wdt_set_stage
p4005
aVrtc_wdt_set_stage
p4006
aVrtc_wdt_set_stage
p4007
atp4008
a(L94425498L
L3785322319L
(lp4009
(lp4010
Vrtc_wdt_protect_on
p4011
atp4012
a(L3360570486L
L0L
(lp4013
(lp4014
tp4015
atp4016
sI1074268400
(Vuart_console_configure
p4017
(lp4018
(L3427826548L
L0L
(lp4019
(lp4020
tp4021
a(L2092736903L
L0L
(lp4022
(lp4023
tp4024
a(L4185365725L
L3785322319L
(lp4025
(lp4026
Vrtc_clk_apb_freq_get
p4027
atp4028
atp4029
sI1074246904
(Vrtc_clk_8md256_enabled
p4030
(lp4031
(L3607650857L
L0L
(lp4032
(lp4033
tp4034
atp4035
sI1074247928
(Vrtc_clk_cpu_freq_to_xtal
p4036
(lp4037
(L470737557L
L3785322319L
(lp4038
(lp4039
Vrtc_clk_apb_freq_update
p4040
atp4041
a(L2466001170L
L0L
(lp4042
(lp4043
tp4044
a(L3812109081L
L0L
(lp4045
(lp4046
tp4047
a(L3360570486L
L0L
(lp4048
(lp4049
tp4050
atp4051
ssS'functionsdups'
p4052
g11
((lp4053
tp4054
Rp4055
sS'immediatedups'
p4056
g11
((lp4057
tp4058
Rp4059
sS'functiondups'
p4060
g11
((lp4061
tp4062
Rp4063
sS'fuzzy'
p4064
(dp4065
L1536L
I1074240700
sL3718826409L
I1074236240
sL4061702297L
I1074244024
sL430153639L
I1074242368
sL1655084846L
I1074244668
sL4289748025L
I1074237748
sL45806640L
I1074241624
sL2479661889L
I1074246128
sL3538491111L
I1074247928
sL3669996080L
I1074237208
sL4155208228L
I1074239304
sL1370598945L
I1074240092
sL2661072904L
I1074240744
sL2281838360L
I1074240460
sL1845968921L
I1074237536
sL2834878951L
I1074237988
sL313524880L
I1074238132
sL1205197046L
I1074239488
sL3110146889L
I1074239876
sL3802805760L
I1074241080
sL4031437920L
I1074244076
sL1014503250L
I1074244368
sL3270437317L
I1074236384
sL4059437021L
I1074248312
sL1338770016L
I1074241228
sL1892234469L
I1074244428
sL2914853138L
I1074236992
sL3803452955L
I1074243600
sL4103879596L
I1074242444
sL3249905159L
I1074241776
sL2738222727L
I1074247696
sL4134193241L
I1074242256
sL275633497L
I1074269048
sL3697242601L
I1074244992
sL2819663145L
I1074247596
sL2874826336L
I1074235580
sL2662108055L
I1074237032
sL1634949710L
I1074244772
sL1383394121L
I1074270352
sL3948451046L
I1074241400
sL2935879234L
I1074236188
sL512571597L
I1074267828
sL3504571296L
I1074242920
sL578413630L
I1074241924
sL3210669721L
I1074246656
sL533883930L
I1074268456
sL2281126695L
I1074244140
sL4160102055L
I1074269016
sL1768086576L
I1074234828
sL545460565L
I1074267780
sL1107446613L
I1074239216
sL3476065511L
I1074269572
sL562412638L
I1074267924
sL2033964903L
I1074247020
sL3703834906L
I1074269396
sL1381401481L
I1074239432
sL3708199143L
I1074247124
sL530701251L
I1074242060
sL3380377753L
I1074245084
sL1179079586L
I1074248064
sL1178348887L
I1074236828
sL2020016265L
I1074241672
sL4065942187L
I1074268156
sL4155364446L
I1074237076
sL3883282432L
I1074236700
sL3271076352L
I1074245932
sL3897638057L
I1074268400
sL64292014L
I1074239600
sL2605918760L
I1074268720
ssb.