ccopy_reg
_reconstructor
p0
(crizzo
RizzoSignature
p1
c__builtin__
object
p2
Ntp3
Rp4
(dp5
S'formal'
p6
(dp7
L4253230215L
I1074234712
sL1741170115L
I1074238288
sL651494617L
I1074241772
sL564994493L
I1074244364
sL3327636805L
I1074267780
sL4272876733L
I1074236380
sL3543492902L
I1074245080
sL2543156614L
I1074267884
sL1433108606L
I1074242228
sL2425276312L
I1074236236
sL2051989078L
I1074241668
sL3395577470L
I1074267924
sL2245790663L
I1074237532
sL943470375L
I1074244664
sL1638059395L
I1074246716
sL2549823962L
I1074247612
sL1556689645L
I1074234824
sL1244297743L
I1074247944
sL3754618604L
I1074245768
sL3911498499L
I1074243920
sL1144063518L
I1074268400
sL964264523L
I1074242440
sL4039828222L
I1074270352
sL870892253L
I1074237384
sL1937763397L
I1074270852
sL3939356145L
I1074236988
sL2048143144L
I1074246124
sL221071471L
I1074240740
sL1584370986L
I1074238424
sL264225530L
I1074246652
sL2726854350L
I1074247120
sL604485967L
I1074241076
sL2281586612L
I1074243596
sL3754837380L
I1074244768
sL2520223867L
I1074242364
sL2806906626L
I1074239428
sL1069708435L
I1074270280
sL2374084562L
I1074237028
sL645864231L
I1074269048
sL1048494884L
I1074244424
sL595232544L
I1074237744
sL1456331926L
I1074236116
sL2662742250L
I1074237124
sL1823824616L
I1074238896
sL2446872711L
I1074248432
sL3757311638L
I1074240456
sL992237383L
I1074242252
sL3118159293L
I1074245828
sL514405571L
I1074240056
sL3253534592L
I1074239300
sL1707586218L
I1074236140
sL1052587987L
I1074245928
sL978028857L
I1074246484
sL1923947L
I1074268720
sL233631383L
I1074244988
sL252091513L
I1074237204
sL580185323L
I1074242056
sL1392851578L
I1074247872
sL2050076851L
I1074246872
sL1381886942L
I1074246900
sL3764424168L
I1074245752
sL2779950395L
I1074241224
sL4024787567L
I1074237348
sL3546902755L
I1074245784
sL1260279956L
I1074246548
sL2866214747L
I1074235400
sL3131778085L
I1074236824
sL1024457600L
I1074237496
sL3621118016L
I1074241396
sL4134720228L
I1074241920
sL3312859105L
I1074237928
sL1954253036L
I1074248252
sL1448049363L
I1074270064
sL1761045352L
I1074246232
sL891223743L
I1074245724
sL565127432L
I1074240992
sL1830483376L
I1074248340
sL3599684131L
I1074235576
sL662330837L
I1074246928
sL4238621974L
I1074268156
sL2782795882L
I1074236680
sL3909269172L
I1074237692
sL1868338154L
I1074267752
sL3868619310L
I1074247556
sL3199926275L
I1074268456
sL2622718953L
I1074238128
sL2221692368L
I1074236968
sL3295139034L
I1074239484
sL2548189023L
I1074242916
sL3697823959L
I1074269396
sL1177040105L
I1074247060
sL3761427958L
I1074240088
sL3228102574L
I1074247016
sL3993140164L
I1074247000
sL3035638838L
I1074236696
sL2432257846L
I1074243580
sL2038922327L
I1074240696
sL2979064644L
I1074237072
sL3815517881L
I1074236184
sL1979018272L
I1074241620
sL3584618110L
I1074237984
sL1038455858L
I1074247712
sL2655988888L
I1074269352
sL2263182908L
I1074238308
sL3617452615L
I1074246348
sL573391862L
I1074247916
sL2972008954L
I1074239872
sL4030023636L
I1074269016
sL489309134L
I1074241068
sL1570662522L
I1074244136
sL1318135924L
I1074239596
sL2643594359L
I1074239648
sL3046473586L
I1074238316
sL109878119L
I1074236788
sL2460777799L
I1074247104
sL3880901821L
I1074268620
sL1262975670L
I1074244020
sL4108636432L
I1074270820
sL2927255439L
I1074239212
sL757619933L
I1074244072
sL240369573L
I1074234692
sL3745020111L
I1074267828
sL1246346161L
I1074248080
sL3072815325L
I1074241204
sL2500922092L
I1074269572
ssS'immediates'
p8
(dp9
sS'formaldups'
p10
c__builtin__
set
p11
((lp12
tp13
Rp14
sS'stringdups'
p15
g11
((lp16
tp17
Rp18
sS'fuzzydups'
p19
g11
((lp20
tp21
Rp22
sS'strings'
p23
(dp24
sS'functions'
p25
(dp26
I1074243596
(Vesp_partition_table_verify
p27
(lp28
(L1363364359L
L0L
(lp29
(lp30
tp31
a(L1222487886L
L0L
(lp32
(lp33
tp34
a(L2937657136L
L0L
(lp35
(lp36
tp37
a(L2865039366L
L0L
(lp38
(lp39
tp40
a(L106L
L0L
(lp41
(lp42
tp43
a(L484089803L
L0L
(lp44
(lp45
tp46
a(L652372861L
L3785322319L
(lp47
(lp48
Vesp_log_early_timestamp
p49
atp50
a(L1235012963L
L0L
(lp51
(lp52
tp53
a(L3426029469L
L0L
(lp54
(lp55
tp56
a(L2902417580L
L0L
(lp57
(lp58
tp59
a(L2579271819L
L0L
(lp60
(lp61
tp62
a(L3812131991L
L3785322319L
(lp63
(lp64
Vesp_log_early_timestamp
p65
atp66
a(L1876049735L
L0L
(lp67
(lp68
tp69
a(L2579271819L
L0L
(lp70
(lp71
tp72
a(L3544104979L
L3785322319L
(lp73
(lp74
Vesp_log_early_timestamp
p75
atp76
a(L1610443436L
L0L
(lp77
(lp78
tp79
a(L1235012932L
L0L
(lp80
(lp81
tp82
a(L3720018517L
L0L
(lp83
(lp84
tp85
a(L1682246360L
L0L
(lp86
(lp87
tp88
a(L2579271819L
L0L
(lp89
(lp90
tp91
a(L4037113401L
L3785322319L
(lp92
(lp93
Vesp_log_early_timestamp
p94
atp95
a(L1235012932L
L0L
(lp96
(lp97
tp98
a(L1799288861L
L0L
(lp99
(lp100
tp101
a(L902240557L
L0L
(lp102
(lp103
tp104
a(L106L
L0L
(lp105
(lp106
tp107
a(L484089803L
L0L
(lp108
(lp109
tp110
a(L605163114L
L3785322319L
(lp111
(lp112
Vesp_log_early_timestamp
p113
atp114
a(L2810785766L
L0L
(lp115
(lp116
tp117
a(L3360570486L
L0L
(lp118
(lp119
tp120
atp121
sI1074244364
(Vesp_rom_spiflash_enable_write
p122
(lp123
(L2891642681L
L3785322319L
(lp124
(lp125
Vesp_rom_spiflash_wait_idle
p126
atp127
a(L2576859681L
L0L
(lp128
(lp129
tp130
a(L106L
L0L
(lp131
(lp132
tp133
a(L1337065440L
L3785322319L
(lp134
(lp135
Vesp_rom_spiflash_read_status
p136
atp137
a(L1253527241L
L0L
(lp138
(lp139
tp140
a(L2993202392L
L0L
(lp141
(lp142
tp143
atp144
sI1074242056
(Vprocess_segment_data
p145
(lp146
(L3236683529L
L3785322319L
(lp147
(lp148
Vbootloader_mmap
p149
atp150
a(L1026710243L
L3785322319L
(lp151
(lp152
Vesp_log_early_timestamp
p153
atp154
a(L3176013167L
L3785322319L
(lp155
(lp156
Vbootloader_fill_random
p157
atp158
a(L753682918L
L0L
(lp159
(lp160
tp161
a(L757377002L
L0L
(lp162
(lp163
tp164
a(L1299866312L
L0L
(lp165
(lp166
tp167
a(L2008416411L
L0L
(lp168
(lp169
tp170
a(L3016870L
L0L
(lp171
(lp172
tp173
a(L2901829634L
L0L
(lp174
(lp175
tp176
a(L512200428L
L0L
(lp177
(lp178
tp179
a(L731312119L
L0L
(lp180
(lp181
tp182
a(L2902417580L
L0L
(lp183
(lp184
tp185
a(L2505185480L
L0L
(lp186
(lp187
tp188
a(L3094078540L
L3785322319L
(lp189
(lp190
Vbootloader_sha256_data
p191
atp192
a(L1770629922L
L0L
(lp193
(lp194
tp195
a(L3896226538L
L0L
(lp196
(lp197
tp198
a(L74549926L
L3785322319L
(lp199
(lp200
Vbootloader_munmap
p201
atp202
a(L3360570486L
L0L
(lp203
(lp204
tp205
atp206
sI1074236680
(Vesp_cpu_in_ocd_debug_mode
p207
(lp208
(L881579880L
L0L
(lp209
(lp210
tp211
atp212
sI1074235400
(Vbootloader_flash_dummy_config
p213
(lp214
(L3640861900L
L0L
(lp215
(lp216
tp217
a(L3017366L
L0L
(lp218
(lp219
tp220
a(L3016870L
L0L
(lp221
(lp222
tp223
a(L2359764484L
L0L
(lp224
(lp225
tp226
a(L2568071894L
L0L
(lp227
(lp228
tp229
a(L1612290447L
L0L
(lp230
(lp231
tp232
a(L1612290447L
L0L
(lp233
(lp234
tp235
a(L1612290540L
L0L
(lp236
(lp237
tp238
a(L1298935362L
L0L
(lp239
(lp240
tp241
a(L2962820102L
L0L
(lp242
(lp243
tp244
a(L608600031L
L0L
(lp245
(lp246
tp247
a(L106L
L0L
(lp248
(lp249
tp250
a(L2336993863L
L0L
(lp251
(lp252
tp253
a(L4137832380L
L0L
(lp254
(lp255
tp256
a(L1880921373L
L0L
(lp257
(lp258
tp259
a(L1373344620L
L0L
(lp260
(lp261
tp262
a(L905084611L
L0L
(lp263
(lp264
tp265
atp266
sI1074247944
(Vrtc_clk_cpu_freq_to_xtal
p267
(lp268
(L2808663646L
L3785322319L
(lp269
(lp270
Vrtc_clk_apb_freq_update
p271
atp272
a(L226430330L
L0L
(lp273
(lp274
tp275
a(L137634225L
L0L
(lp276
(lp277
tp278
a(L3360570486L
L0L
(lp279
(lp280
tp281
atp282
sI1074237204
(Vbootloader_common_check_chip_validity
p283
(lp284
(L4112384119L
L0L
(lp285
(lp286
tp287
a(L286674125L
L3785322319L
(lp288
(lp289
Vesp_log_early_timestamp
p290
atp291
a(L1182901183L
L0L
(lp292
(lp293
tp294
a(L2344894839L
L3785322319L
(lp295
(lp296
Vbootloader_common_get_chip_revision
p297
atp298
a(L3030060795L
L3785322319L
(lp299
(lp300
Vesp_log_early_timestamp
p301
atp302
a(L97422L
L0L
(lp303
(lp304
tp305
a(L3287840219L
L3785322319L
(lp306
(lp307
Vesp_log_early_timestamp
p308
atp309
a(L4136876117L
L0L
(lp310
(lp311
tp312
a(L4151320241L
L0L
(lp313
(lp314
tp315
a(L1621868829L
L0L
(lp316
(lp317
tp318
a(L464010095L
L0L
(lp319
(lp320
tp321
atp322
sI1074246928
(Vrtc_clk_slow_freq_set
p323
(lp324
(L1497633467L
L0L
(lp325
(lp326
tp327
a(L1235012839L
L0L
(lp328
(lp329
tp330
a(L2258688482L
L0L
(lp331
(lp332
tp333
a(L4182824140L
L0L
(lp334
(lp335
tp336
atp337
sI1074267924
(Vwdt_reset_info_dump
p338
(lp339
(L1642351636L
L0L
(lp340
(lp341
tp342
a(L460425251L
L0L
(lp343
(lp344
tp345
a(L3201441020L
L0L
(lp346
(lp347
tp348
a(L3028481L
L0L
(lp349
(lp350
tp351
a(L3486670486L
L0L
(lp352
(lp353
tp354
a(L4041715166L
L0L
(lp355
(lp356
tp357
a(L2307613036L
L0L
(lp358
(lp359
tp360
a(L1550379252L
L0L
(lp361
(lp362
tp363
a(L1243497843L
L3785322319L
(lp364
(lp365
Vesp_log_early_timestamp
p366
atp367
a(L3007616451L
L3785322319L
(lp368
(lp369
Vesp_log_early_timestamp
p370
atp371
a(L3360570486L
L0L
(lp372
(lp373
tp374
atp375
sI1074236696
(Vis_xmc_chip_strict
p376
(lp377
(L3238746245L
L0L
(lp378
(lp379
tp380
a(L3028464L
L0L
(lp381
(lp382
tp383
a(L1879955864L
L0L
(lp384
(lp385
tp386
a(L1299866312L
L0L
(lp387
(lp388
tp389
a(L209024199L
L0L
(lp390
(lp391
tp392
a(L4093075049L
L0L
(lp393
(lp394
tp395
a(L1299866312L
L0L
(lp396
(lp397
tp398
a(L209917929L
L0L
(lp399
(lp400
tp401
a(L245016591L
L0L
(lp402
(lp403
tp404
a(L1299866312L
L0L
(lp405
(lp406
tp407
a(L1299866312L
L0L
(lp408
(lp409
tp410
a(L1299866343L
L0L
(lp411
(lp412
tp413
a(L1299866343L
L0L
(lp414
(lp415
tp416
a(L1299866312L
L0L
(lp417
(lp418
tp419
a(L2258688483L
L0L
(lp420
(lp421
tp422
a(L3360570486L
L0L
(lp423
(lp424
tp425
atp426
sI1074236184
(Vbootloader_flash_read_sfdp
p427
(lp428
(L1494883415L
L0L
(lp429
(lp430
tp431
a(L1071917914L
L3785322319L
(lp432
(lp433
V__assert_func
p434
atp435
a(L486614504L
L3785322319L
(lp436
(lp437
Vbootloader_flash_execute_command_common
p438
atp439
atp440
sI1074268456
(Vwdt_reset_check
p441
(lp442
(L1474067986L
L0L
(lp443
(lp444
tp445
a(L3020187L
L0L
(lp446
(lp447
tp448
a(L367582592L
L0L
(lp449
(lp450
tp451
a(L367642441L
L0L
(lp452
(lp453
tp454
a(L4264009122L
L3785322319L
(lp455
(lp456
Vesp_log_early_timestamp
p457
atp458
a(L1298905564L
L0L
(lp459
(lp460
tp461
a(L2986794716L
L0L
(lp462
(lp463
tp464
a(L3020187L
L0L
(lp465
(lp466
tp467
a(L225031483L
L0L
(lp468
(lp469
tp470
a(L225091332L
L0L
(lp471
(lp472
tp473
a(L3965368819L
L3785322319L
(lp474
(lp475
Vesp_log_early_timestamp
p476
atp477
a(L3020204L
L0L
(lp478
(lp479
tp480
a(L1944713791L
L1880226080L
(lp481
(lp482
Vwdt_reset_info_dump
p483
aVwdt_reset_info_dump
p484
atp485
a(L3738038928L
L3785322319L
(lp486
(lp487
Vwdt_reset_cpu0_info_enable
p488
atp489
atp490
sI1074237984
(Vbootloader_flash_read
p491
(lp492
(L1127605422L
L0L
(lp493
(lp494
tp495
a(L2085875711L
L3785322319L
(lp496
(lp497
Vesp_log_early_timestamp
p498
atp499
a(L899934477L
L0L
(lp500
(lp501
tp502
a(L1537381885L
L3785322319L
(lp503
(lp504
Vesp_log_early_timestamp
p505
atp506
a(L2696885836L
L0L
(lp507
(lp508
tp509
a(L628528440L
L3785322319L
(lp510
(lp511
Vesp_log_early_timestamp
p512
atp513
a(L3020204L
L0L
(lp514
(lp515
tp516
a(L3107770098L
L3785322319L
(lp517
(lp518
Vbootloader_flash_read_allow_decrypt
p519
atp520
a(L2175061880L
L3785322319L
(lp521
(lp522
Vbootloader_flash_read_no_decrypt
p523
atp524
a(L3360570486L
L0L
(lp525
(lp526
tp527
atp528
sI1074247712
(Vrtc_clk_cpu_freq_get_config
p529
(lp530
(L405242576L
L0L
(lp531
(lp532
tp533
a(L2902417580L
L0L
(lp534
(lp535
tp536
a(L3020187L
L0L
(lp537
(lp538
tp539
a(L106L
L0L
(lp540
(lp541
tp542
a(L1032874007L
L3785322319L
(lp543
(lp544
Vrtc_clk_xtal_freq_get
p545
atp546
a(L1031411839L
L0L
(lp547
(lp548
tp549
a(L3020187L
L0L
(lp550
(lp551
tp552
a(L3020187L
L0L
(lp553
(lp554
tp555
a(L1882579662L
L1880226080L
(lp556
(lp557
Vesp_log_early_timestamp
p558
aVabort
p559
atp560
a(L1882579662L
L1880226080L
(lp561
(lp562
Vesp_log_early_timestamp
p563
aVabort
p564
atp565
a(L2637615626L
L0L
(lp566
(lp567
tp568
a(L2816701179L
L0L
(lp569
(lp570
tp571
a(L883419018L
L0L
(lp572
(lp573
tp574
a(L791693831L
L0L
(lp575
(lp576
tp577
a(L2032620637L
L0L
(lp578
(lp579
tp580
atp581
sI1074241068
(Vcheck_anti_rollback
p582
(lp583
(L786711473L
L0L
(lp584
(lp585
tp586
atp587
sI1074236968
(Vbootloader_common_ota_select_crc
p588
(lp589
(L1467561936L
L0L
(lp590
(lp591
tp592
atp593
sI1074244136
(Vesp_rom_spiflash_read_data
p594
(lp595
(L4122033220L
L0L
(lp596
(lp597
tp598
a(L106L
L0L
(lp599
(lp600
tp601
a(L2070875117L
L3785322319L
(lp602
(lp603
Vesp_rom_spiflash_wait_idle
p604
atp605
a(L2761836345L
L0L
(lp606
(lp607
tp608
a(L1878898240L
L0L
(lp609
(lp610
tp611
a(L2576859681L
L0L
(lp612
(lp613
tp614
a(L106L
L0L
(lp615
(lp616
tp617
a(L2461641154L
L0L
(lp618
(lp619
tp620
a(L256664550L
L0L
(lp621
(lp622
tp623
a(L663200857L
L0L
(lp624
(lp625
tp626
a(L4205509696L
L0L
(lp627
(lp628
tp629
a(L2576859681L
L0L
(lp630
(lp631
tp632
a(L1263158627L
L0L
(lp633
(lp634
tp635
a(L131455463L
L0L
(lp636
(lp637
tp638
a(L3922957135L
L0L
(lp639
(lp640
tp641
a(L1305407438L
L0L
(lp642
(lp643
tp644
a(L2461641154L
L0L
(lp645
(lp646
tp647
a(L3027019L
L0L
(lp648
(lp649
tp650
a(L2258777855L
L0L
(lp651
(lp652
tp653
a(L3027007L
L0L
(lp654
(lp655
tp656
a(L106L
L0L
(lp657
(lp658
tp659
a(L1299866312L
L0L
(lp660
(lp661
tp662
a(L2258688483L
L0L
(lp663
(lp664
tp665
a(L3360570486L
L0L
(lp666
(lp667
tp668
atp669
sI1074245928
(Vrtc_wdt_set_stage
p670
(lp671
(L1890082815L
L0L
(lp672
(lp673
tp674
a(L1182990556L
L0L
(lp675
(lp676
tp677
a(L1158671683L
L0L
(lp678
(lp679
tp680
a(L1183020347L
L0L
(lp681
(lp682
tp683
a(L1745934199L
L0L
(lp684
(lp685
tp686
a(L2910371777L
L0L
(lp687
(lp688
tp689
a(L129786841L
L0L
(lp690
(lp691
tp692
a(L3028464L
L0L
(lp693
(lp694
tp695
a(L415323575L
L0L
(lp696
(lp697
tp698
a(L3028464L
L0L
(lp699
(lp700
tp701
a(L259703259L
L0L
(lp702
(lp703
tp704
a(L699418991L
L0L
(lp705
(lp706
tp707
a(L2810785765L
L0L
(lp708
(lp709
tp710
a(L3360570486L
L0L
(lp711
(lp712
tp713
atp714
sI1074241076
(Vbootloader_sha256_hex_to_str
p715
(lp716
(L801955396L
L0L
(lp717
(lp718
tp719
a(L97422L
L0L
(lp720
(lp721
tp722
a(L106L
L0L
(lp723
(lp724
tp725
a(L201281358L
L0L
(lp726
(lp727
tp728
a(L1611366926L
L0L
(lp729
(lp730
tp731
a(L1298905568L
L0L
(lp732
(lp733
tp734
a(L1295154486L
L0L
(lp735
(lp736
tp737
a(L435009006L
L0L
(lp738
(lp739
tp740
a(L3378846871L
L0L
(lp741
(lp742
tp743
a(L978975865L
L0L
(lp744
(lp745
tp746
a(L2258897019L
L0L
(lp747
(lp748
tp749
a(L3027007L
L0L
(lp750
(lp751
tp752
a(L4126803969L
L0L
(lp753
(lp754
tp755
a(L448827677L
L0L
(lp756
(lp757
tp758
a(L1299866312L
L0L
(lp759
(lp760
tp761
a(L1235012901L
L0L
(lp762
(lp763
tp764
a(L2810785765L
L0L
(lp765
(lp766
tp767
a(L3360570486L
L0L
(lp768
(lp769
tp770
atp771
sI1074237744
(Vbootloader_mmap
p772
(lp773
(L2594163932L
L0L
(lp774
(lp775
tp776
a(L3651522543L
L3785322319L
(lp777
(lp778
Vesp_log_early_timestamp
p779
atp780
a(L198936494L
L0L
(lp781
(lp782
tp783
a(L2359481093L
L3785322319L
(lp784
(lp785
Vesp_log_early_timestamp
p786
atp787
a(L1859133887L
L0L
(lp788
(lp789
tp790
a(L1749171692L
L3785322319L
(lp791
(lp792
Vesp_log_early_timestamp
p793
atp794
a(L2329745047L
L0L
(lp795
(lp796
tp797
a(L3360570486L
L0L
(lp798
(lp799
tp800
atp801
sI1074268720
(Vbootloader_main
p802
(lp803
(L3624327952L
L1832448559L
(lp804
(lp805
Vbootloader_common_vddsdio_configure
p806
aVbootloader_read_flash_id
p807
aVbootloader_flash_xmc_startup
p808
atp809
a(L3700165319L
L3785322319L
(lp810
(lp811
Vesp_log_early_timestamp
p812
atp813
a(L2463179889L
L3785322319L
(lp814
(lp815
Vbootloader_flash_read
p816
atp817
a(L1663730364L
L3785322319L
(lp818
(lp819
Vesp_log_early_timestamp
p820
atp821
a(L3191571389L
L1832448559L
(lp822
(lp823
Vbootloader_common_get_chip_revision
p824
aVesp_log_early_timestamp
p825
aVbootloader_common_check_chip_validity
p826
atp827
a(L3592265678L
L2794580271L
(lp828
(lp829
Vbootloader_init_flash_configure
p830
aVbootloader_clock_configure
p831
aVuart_console_configure
p832
aVwdt_reset_check
p833
aVesp_log_early_timestamp
p834
aVesp_log_early_timestamp
p835
aVrtc_wdt_protect_off
p836
aVrtc_wdt_disable
p837
aVrtc_wdt_set_length_of_reset_signal
p838
aVrtc_wdt_set_length_of_reset_signal
p839
aVrtc_wdt_set_stage
p840
aVrtc_wdt_set_time
p841
aVrtc_wdt_enable
p842
aVrtc_wdt_protect_on
p843
aVbootloader_flash_unlock
p844
aVesp_log_early_timestamp
p845
aVbootloader_random_enable
p846
aVprint_flash_info
p847
aVupdate_flash_config
p848
atp849
a(L1299867982L
L0L
(lp850
(lp851
tp852
a(L3360570486L
L0L
(lp853
(lp854
tp855
atp856
sI1074236988
(Vbootloader_common_ota_select_valid
p857
(lp858
(L1731214134L
L3785322319L
(lp859
(lp860
Vbootloader_common_ota_select_invalid
p861
atp862
a(L668323607L
L3785322319L
(lp863
(lp864
Vbootloader_common_ota_select_crc
p865
atp866
a(L1299866343L
L0L
(lp867
(lp868
tp869
a(L1299866312L
L0L
(lp870
(lp871
tp872
a(L2258688482L
L0L
(lp873
(lp874
tp875
a(L3360570486L
L0L
(lp876
(lp877
tp878
atp879
sI1074242364
(Vshould_load
p880
(lp881
(L370931439L
L3785322319L
(lp882
(lp883
Vshould_map
p884
atp885
a(L1121477954L
L0L
(lp886
(lp887
tp888
a(L3028464L
L0L
(lp889
(lp890
tp891
a(L4095578819L
L0L
(lp892
(lp893
tp894
a(L202508550L
L0L
(lp895
(lp896
tp897
a(L3882931814L
L0L
(lp898
(lp899
tp900
a(L1610443436L
L0L
(lp901
(lp902
tp903
a(L1610443405L
L0L
(lp904
(lp905
tp906
a(L1298875774L
L0L
(lp907
(lp908
tp909
a(L735741265L
L0L
(lp910
(lp911
tp912
atp913
sI1074246716
(Vrtc_clk_8m_enable
p914
(lp915
(L1474360438L
L0L
(lp916
(lp917
tp918
a(L477649986L
L0L
(lp919
(lp920
tp921
a(L3936664466L
L0L
(lp922
(lp923
tp924
a(L883777310L
L0L
(lp925
(lp926
tp927
a(L3227012120L
L0L
(lp928
(lp929
tp930
a(L3073463967L
L0L
(lp931
(lp932
tp933
a(L3360570486L
L0L
(lp934
(lp935
tp936
atp937
sI1074248252
(Vrtc_clk_cpu_freq_to_8m
p938
(lp939
(L3803185541L
L3785322319L
(lp940
(lp941
Vrtc_clk_apb_freq_update
p942
atp943
atp944
sI1074240056
(Vload_image
p945
(lp946
(L1261593556L
L1832448559L
(lp947
(lp948
Vesp_log_early_timestamp
p949
aVbootloader_random_disable
p950
aVunpack_load_app
p951
atp952
atp953
sI1074237496
(Vspi_to_esp_err
p954
(lp955
(L4037458691L
L0L
(lp956
(lp957
tp958
a(L2902417580L
L0L
(lp959
(lp960
tp961
a(L3020187L
L0L
(lp962
(lp963
tp964
a(L1641201884L
L0L
(lp965
(lp966
tp967
a(L310012176L
L0L
(lp968
(lp969
tp970
a(L1299866312L
L0L
(lp971
(lp972
tp973
a(L702737030L
L0L
(lp974
(lp975
tp976
a(L3360570486L
L0L
(lp977
(lp978
tp979
atp980
sI1074244664
(Vesp_rom_spiflash_erase_sector
p981
(lp982
(L680826645L
L0L
(lp983
(lp984
tp985
a(L3445605341L
L3785322319L
(lp986
(lp987
Vesp_rom_spiflash_enable_write
p988
atp989
a(L1397887656L
L3785322319L
(lp990
(lp991
Vesp_rom_spiflash_erase_sector_internal
p992
atp993
a(L106L
L0L
(lp994
(lp995
tp996
a(L1299866343L
L0L
(lp997
(lp998
tp999
a(L1299866343L
L0L
(lp1000
(lp1001
tp1002
a(L2258688483L
L0L
(lp1003
(lp1004
tp1005
a(L3360570486L
L0L
(lp1006
(lp1007
tp1008
atp1009
sI1074270280
(Vrtc_vddsdio_set_config
p1010
(lp1011
(L4165858497L
L0L
(lp1012
(lp1013
tp1014
atp1015
sI1074239300
(Vread_otadata
p1016
(lp1017
(L3233392553L
L0L
(lp1018
(lp1019
tp1020
a(L1425341776L
L0L
(lp1021
(lp1022
tp1023
a(L3366121590L
L3785322319L
(lp1024
(lp1025
Vesp_log_early_timestamp
p1026
atp1027
a(L566230772L
L3785322319L
(lp1028
(lp1029
Vbootloader_mmap
p1030
atp1031
a(L3641189915L
L3785322319L
(lp1032
(lp1033
Vesp_log_early_timestamp
p1034
atp1035
a(L3241021226L
L3785322319L
(lp1036
(lp1037
Vbootloader_munmap
p1038
atp1039
a(L2810785768L
L0L
(lp1040
(lp1041
tp1042
a(L3360570486L
L0L
(lp1043
(lp1044
tp1045
atp1046
sI1074234692
(Vbootloader_init_flash_configure
p1047
(lp1048
(L2326466312L
L1832448559L
(lp1049
(lp1050
Vbootloader_flash_gpio_config
p1051
aVbootloader_flash_dummy_config
p1052
aVbootloader_flash_cs_timing_config
p1053
atp1054
atp1055
sI1074236236
(Vbootloader_flash_xmc_startup
p1056
(lp1057
(L907480987L
L3785322319L
(lp1058
(lp1059
Vis_xmc_chip_strict
p1060
atp1061
a(L251913992L
L3785322319L
(lp1062
(lp1063
Vbootloader_flash_read_sfdp
p1064
atp1065
a(L2214543080L
L267944800L
(lp1066
(lp1067
Vexecute_flash_command
p1068
aVexecute_flash_command
p1069
aVexecute_flash_command
p1070
aVexecute_flash_command
p1071
aVbootloader_read_flash_id
p1072
aVis_xmc_chip_strict
p1073
atp1074
a(L1391924622L
L3785322319L
(lp1075
(lp1076
Vesp_log_early_timestamp
p1077
atp1078
a(L1299866312L
L0L
(lp1079
(lp1080
tp1081
a(L1299866312L
L0L
(lp1082
(lp1083
tp1084
a(L2258688482L
L0L
(lp1085
(lp1086
tp1087
a(L3360570486L
L0L
(lp1088
(lp1089
tp1090
atp1091
sI1074244424
(Vesp_rom_spiflash_program_page_internal
p1092
(lp1093
(L2773322937L
L0L
(lp1094
(lp1095
tp1096
a(L3904186990L
L0L
(lp1097
(lp1098
tp1099
a(L106L
L0L
(lp1100
(lp1101
tp1102
a(L2070875117L
L3785322319L
(lp1103
(lp1104
Vesp_rom_spiflash_wait_idle
p1105
atp1106
a(L530241438L
L3785322319L
(lp1107
(lp1108
Vesp_rom_spiflash_enable_write
p1109
atp1110
a(L1499276535L
L0L
(lp1111
(lp1112
tp1113
a(L16696543L
L0L
(lp1114
(lp1115
tp1116
a(L1639067348L
L0L
(lp1117
(lp1118
tp1119
a(L93837694L
L0L
(lp1120
(lp1121
tp1122
a(L1943062613L
L0L
(lp1123
(lp1124
tp1125
a(L2250057226L
L0L
(lp1126
(lp1127
tp1128
a(L131455463L
L0L
(lp1129
(lp1130
tp1131
a(L3922957135L
L0L
(lp1132
(lp1133
tp1134
a(L1305407438L
L0L
(lp1135
(lp1136
tp1137
a(L1639067348L
L0L
(lp1138
(lp1139
tp1140
a(L3027019L
L0L
(lp1141
(lp1142
tp1143
a(L1243408381L
L0L
(lp1144
(lp1145
tp1146
a(L3410520693L
L0L
(lp1147
(lp1148
tp1149
a(L3083573665L
L0L
(lp1150
(lp1151
tp1152
a(L1452275741L
L3785322319L
(lp1153
(lp1154
Vesp_rom_spiflash_wait_idle
p1155
atp1156
a(L3027007L
L0L
(lp1157
(lp1158
tp1159
a(L106L
L0L
(lp1160
(lp1161
tp1162
a(L2307427848L
L0L
(lp1163
(lp1164
tp1165
a(L1299866343L
L0L
(lp1166
(lp1167
tp1168
a(L1299866343L
L0L
(lp1169
(lp1170
tp1171
a(L2258688483L
L0L
(lp1172
(lp1173
tp1174
a(L3360570486L
L0L
(lp1175
(lp1176
tp1177
atp1178
sI1074269016
(V__assert_func
p1179
(lp1180
(L2419638455L
L3785322319L
(lp1181
(lp1182
Vesp_log_early_timestamp
p1183
atp1184
a(L106L
L0L
(lp1185
(lp1186
tp1187
atp1188
sI1074241620
(Vshould_map
p1189
(lp1190
(L3937304407L
L0L
(lp1191
(lp1192
tp1193
a(L1182990556L
L0L
(lp1194
(lp1195
tp1196
a(L997119244L
L0L
(lp1197
(lp1198
tp1199
a(L1182990556L
L0L
(lp1200
(lp1201
tp1202
a(L1296420068L
L0L
(lp1203
(lp1204
tp1205
atp1206
sI1074246484
(Vrtc_clk_bbpll_disable
p1207
(lp1208
(L1090240395L
L0L
(lp1209
(lp1210
tp1211
a(L1085782834L
L0L
(lp1212
(lp1213
tp1214
a(L3360570486L
L0L
(lp1215
(lp1216
tp1217
atp1218
sI1074243920
(Vesp_rom_spiflash_read_status
p1219
(lp1220
(L1642541540L
L0L
(lp1221
(lp1222
tp1223
a(L106L
L0L
(lp1224
(lp1225
tp1226
a(L229604015L
L0L
(lp1227
(lp1228
tp1229
a(L2576859681L
L0L
(lp1230
(lp1231
tp1232
a(L772230251L
L0L
(lp1233
(lp1234
tp1235
a(L4159619641L
L0L
(lp1236
(lp1237
tp1238
a(L106L
L0L
(lp1239
(lp1240
tp1241
a(L3036114809L
L0L
(lp1242
(lp1243
tp1244
a(L4159619641L
L0L
(lp1245
(lp1246
tp1247
a(L2392720019L
L0L
(lp1248
(lp1249
tp1250
atp1251
sI1074238288
(Vbootloader_flash_erase_sector
p1252
(lp1253
(L4129137686L
L1880226080L
(lp1254
(lp1255
Vesp_rom_spiflash_erase_sector
p1256
aVspi_to_esp_err
p1257
atp1258
atp1259
sI1074237532
(Vbootloader_flash_read_allow_decrypt
p1260
(lp1261
(L3384426294L
L0L
(lp1262
(lp1263
tp1264
a(L1406929297L
L0L
(lp1265
(lp1266
tp1267
a(L315414249L
L0L
(lp1268
(lp1269
tp1270
a(L2247663932L
L3785322319L
(lp1271
(lp1272
Vesp_log_early_timestamp
p1273
atp1274
a(L2557888127L
L0L
(lp1275
(lp1276
tp1277
a(L3087968042L
L0L
(lp1278
(lp1279
tp1280
a(L2538932552L
L0L
(lp1281
(lp1282
tp1283
a(L106L
L0L
(lp1284
(lp1285
tp1286
a(L2258688482L
L0L
(lp1287
(lp1288
tp1289
a(L3360570486L
L0L
(lp1290
(lp1291
tp1292
atp1293
sI1074245724
(Vrtc_wdt_get_protect_status
p1294
(lp1295
(L1851824600L
L0L
(lp1296
(lp1297
tp1298
atp1299
sI1074246232
(Vrtc_wdt_set_length_of_reset_signal
p1300
(lp1301
(L1890082815L
L0L
(lp1302
(lp1303
tp1304
a(L1182990556L
L0L
(lp1305
(lp1306
tp1307
a(L1158671683L
L0L
(lp1308
(lp1309
tp1310
a(L1183020347L
L0L
(lp1311
(lp1312
tp1313
a(L1745934199L
L0L
(lp1314
(lp1315
tp1316
a(L2910371777L
L0L
(lp1317
(lp1318
tp1319
a(L1476578517L
L0L
(lp1320
(lp1321
tp1322
a(L1752602062L
L0L
(lp1323
(lp1324
tp1325
a(L2810785765L
L0L
(lp1326
(lp1327
tp1328
a(L3360570486L
L0L
(lp1329
(lp1330
tp1331
atp1332
sI1074240088
(Vbootloader_utility_load_partition_table
p1333
(lp1334
(L2304595928L
L3785322319L
(lp1335
(lp1336
Vbootloader_mmap
p1337
atp1338
a(L440001179L
L3785322319L
(lp1339
(lp1340
Vesp_log_early_timestamp
p1341
atp1342
a(L2772313617L
L3785322319L
(lp1343
(lp1344
Vesp_partition_table_verify
p1345
atp1346
a(L3641489746L
L3785322319L
(lp1347
(lp1348
Vesp_log_early_timestamp
p1349
atp1350
a(L2379869612L
L1880226080L
(lp1351
(lp1352
Vesp_log_early_timestamp
p1353
aVesp_log_early_timestamp
p1354
atp1355
a(L1941612774L
L0L
(lp1356
(lp1357
tp1358
a(L3020187L
L0L
(lp1359
(lp1360
tp1361
a(L826379074L
L0L
(lp1362
(lp1363
tp1364
a(L3732412336L
L0L
(lp1365
(lp1366
tp1367
a(L3020187L
L0L
(lp1368
(lp1369
tp1370
a(L106L
L0L
(lp1371
(lp1372
tp1373
a(L58583904L
L0L
(lp1374
(lp1375
tp1376
a(L997275197L
L0L
(lp1377
(lp1378
tp1379
a(L2893469516L
L0L
(lp1380
(lp1381
tp1382
a(L976857509L
L0L
(lp1383
(lp1384
tp1385
a(L3999773648L
L0L
(lp1386
(lp1387
tp1388
a(L2051104840L
L0L
(lp1389
(lp1390
tp1391
a(L826379570L
L0L
(lp1392
(lp1393
tp1394
a(L826377276L
L0L
(lp1395
(lp1396
tp1397
a(L4082239981L
L3785322319L
(lp1398
(lp1399
Vesp_log_early_timestamp
p1400
atp1401
a(L846653465L
L0L
(lp1402
(lp1403
tp1404
a(L106L
L0L
(lp1405
(lp1406
tp1407
a(L111767836L
L1880226080L
(lp1408
(lp1409
Vbootloader_munmap
p1410
aVesp_log_early_timestamp
p1411
atp1412
a(L3360570486L
L0L
(lp1413
(lp1414
tp1415
atp1416
sI1074234712
(Vbootloader_flash_cs_timing_config
p1417
(lp1418
(L227725170L
L0L
(lp1419
(lp1420
tp1421
atp1422
sI1074247000
(Vrtc_clk_slow_freq_get
p1423
(lp1424
(L4240038829L
L0L
(lp1425
(lp1426
tp1427
atp1428
sI1074267752
(Vselected_boot_partition
p1429
(lp1430
(L2937841336L
L3785322319L
(lp1431
(lp1432
Vbootloader_utility_get_selected_boot_partition
p1433
atp1434
a(L2161672821L
L0L
(lp1435
(lp1436
tp1437
a(L3360570486L
L0L
(lp1438
(lp1439
tp1440
atp1441
sI1074238308
(Vbootloader_mmap_get_free_pages
p1442
(lp1443
(L1496516875L
L0L
(lp1444
(lp1445
tp1446
atp1447
sI1074237028
(Vbootloader_common_get_active_otadata
p1448
(lp1449
(L4066087859L
L0L
(lp1450
(lp1451
tp1452
a(L3619672798L
L1832448559L
(lp1453
(lp1454
Vbootloader_common_ota_select_valid
p1455
aVbootloader_common_ota_select_valid
p1456
aVbootloader_common_select_otadata
p1457
atp1458
a(L1299867982L
L0L
(lp1459
(lp1460
tp1461
a(L3360570486L
L0L
(lp1462
(lp1463
tp1464
atp1465
sI1074242916
(Vimage_load
p1466
(lp1467
(L915390607L
L0L
(lp1468
(lp1469
tp1470
a(L106L
L0L
(lp1471
(lp1472
tp1473
a(L820929425L
L0L
(lp1474
(lp1475
tp1476
a(L3020187L
L0L
(lp1477
(lp1478
tp1479
a(L4253456597L
L3785322319L
(lp1480
(lp1481
Vesp_log_early_timestamp
p1482
atp1483
a(L3896850786L
L0L
(lp1484
(lp1485
tp1486
a(L2136337617L
L3785322319L
(lp1487
(lp1488
Vbootloader_flash_read
p1489
atp1490
a(L4124473353L
L0L
(lp1491
(lp1492
tp1493
a(L2568992188L
L3785322319L
(lp1494
(lp1495
Vbootloader_sha256_start
p1496
atp1497
a(L623197325L
L3785322319L
(lp1498
(lp1499
Vbootloader_sha256_data
p1500
atp1501
a(L2258837437L
L0L
(lp1502
(lp1503
tp1504
a(L2658039957L
L3785322319L
(lp1505
(lp1506
Vverify_image_header
p1507
atp1508
a(L1980404654L
L0L
(lp1509
(lp1510
tp1511
a(L3028464L
L0L
(lp1512
(lp1513
tp1514
a(L106L
L0L
(lp1515
(lp1516
tp1517
a(L2100097797L
L3785322319L
(lp1518
(lp1519
Vesp_log_early_timestamp
p1520
atp1521
a(L2178537071L
L0L
(lp1522
(lp1523
tp1524
a(L1255687483L
L3785322319L
(lp1525
(lp1526
Vprocess_segment
p1527
atp1528
a(L1589625955L
L0L
(lp1529
(lp1530
tp1531
a(L2125973223L
L0L
(lp1532
(lp1533
tp1534
a(L2993473092L
L0L
(lp1535
(lp1536
tp1537
a(L3028464L
L0L
(lp1538
(lp1539
tp1540
a(L106L
L0L
(lp1541
(lp1542
tp1543
a(L2443216408L
L3785322319L
(lp1544
(lp1545
Vesp_log_early_timestamp
p1546
atp1547
a(L2638226786L
L3785322319L
(lp1548
(lp1549
Vesp_cpu_in_ocd_debug_mode
p1550
atp1551
a(L3100707227L
L3785322319L
(lp1552
(lp1553
Vverify_checksum
p1554
atp1555
a(L279608302L
L0L
(lp1556
(lp1557
tp1558
a(L3028464L
L0L
(lp1559
(lp1560
tp1561
a(L106L
L0L
(lp1562
(lp1563
tp1564
a(L3774139236L
L3785322319L
(lp1565
(lp1566
Vesp_log_early_timestamp
p1567
atp1568
a(L2074376433L
L0L
(lp1569
(lp1570
tp1571
a(L3020204L
L0L
(lp1572
(lp1573
tp1574
a(L3287840219L
L3785322319L
(lp1575
(lp1576
Vesp_cpu_in_ocd_debug_mode
p1577
atp1578
a(L3042111959L
L3785322319L
(lp1579
(lp1580
Vverify_simple_hash
p1581
atp1582
a(L3020204L
L0L
(lp1583
(lp1584
tp1585
a(L3688659868L
L3785322319L
(lp1586
(lp1587
Vbootloader_sha256_finish
p1588
atp1589
a(L3230798602L
L0L
(lp1590
(lp1591
tp1592
a(L84393073L
L3785322319L
(lp1593
(lp1594
Vbootloader_mmap
p1595
atp1596
a(L1461725474L
L3785322319L
(lp1597
(lp1598
Vbootloader_munmap
p1599
atp1600
a(L3028481L
L0L
(lp1601
(lp1602
tp1603
a(L3020187L
L0L
(lp1604
(lp1605
tp1606
a(L106L
L0L
(lp1607
(lp1608
tp1609
a(L106L
L0L
(lp1610
(lp1611
tp1612
a(L808845010L
L3785322319L
(lp1613
(lp1614
Vshould_load
p1615
atp1616
a(L3632402446L
L0L
(lp1617
(lp1618
tp1619
a(L4103406395L
L0L
(lp1620
(lp1621
tp1622
a(L4090611775L
L0L
(lp1623
(lp1624
tp1625
a(L4288375183L
L0L
(lp1626
(lp1627
tp1628
a(L3743228140L
L0L
(lp1629
(lp1630
tp1631
a(L1818239465L
L0L
(lp1632
(lp1633
tp1634
a(L1720234353L
L0L
(lp1635
(lp1636
tp1637
a(L3802069241L
L0L
(lp1638
(lp1639
tp1640
a(L2573310946L
L0L
(lp1641
(lp1642
tp1643
a(L106L
L0L
(lp1644
(lp1645
tp1646
a(L1304483917L
L0L
(lp1647
(lp1648
tp1649
a(L2258837437L
L0L
(lp1650
(lp1651
tp1652
a(L2902417580L
L0L
(lp1653
(lp1654
tp1655
a(L106L
L0L
(lp1656
(lp1657
tp1658
a(L1641201884L
L0L
(lp1659
(lp1660
tp1661
a(L702738956L
L0L
(lp1662
(lp1663
tp1664
a(L3020204L
L0L
(lp1665
(lp1666
tp1667
a(L3688659868L
L3785322319L
(lp1668
(lp1669
Vbootloader_sha256_finish
p1670
atp1671
a(L2075779526L
L0L
(lp1672
(lp1673
tp1674
a(L1235012901L
L0L
(lp1675
(lp1676
tp1677
a(L2810785764L
L0L
(lp1678
(lp1679
tp1680
a(L3360570486L
L0L
(lp1681
(lp1682
tp1683
atp1684
sI1074238316
(Vbootloader_fill_random
p1685
(lp1686
(L4037466985L
L0L
(lp1687
(lp1688
tp1689
a(L960226728L
L3785322319L
(lp1690
(lp1691
V__assert_func
p1692
atp1693
a(L3020204L
L0L
(lp1694
(lp1695
tp1696
a(L607245337L
L0L
(lp1697
(lp1698
tp1699
a(L789392429L
L0L
(lp1700
(lp1701
tp1702
a(L2889921384L
L0L
(lp1703
(lp1704
tp1705
a(L2435735273L
L0L
(lp1706
(lp1707
tp1708
a(L1298875773L
L0L
(lp1709
(lp1710
tp1711
a(L448827677L
L0L
(lp1712
(lp1713
tp1714
a(L3360570486L
L0L
(lp1715
(lp1716
tp1717
atp1718
sI1074239596
(Vtry_load_partition
p1719
(lp1720
(L3877261386L
L0L
(lp1721
(lp1722
tp1723
a(L2260359711L
L3785322319L
(lp1724
(lp1725
Vbootloader_load_image
p1726
atp1727
a(L4143673232L
L3785322319L
(lp1728
(lp1729
Vesp_log_early_timestamp
p1730
atp1731
a(L1299866312L
L0L
(lp1732
(lp1733
tp1734
a(L2258688482L
L0L
(lp1735
(lp1736
tp1737
a(L3360570486L
L0L
(lp1738
(lp1739
tp1740
atp1741
sI1074270820
(Vrtc_clk_cal_ratio
p1742
(lp1743
(L3583061729L
L3785322319L
(lp1744
(lp1745
Vrtc_clk_cal_internal
p1746
atp1747
atp1748
sI1074247016
(Vrtc_clk_slow_freq_get_hz
p1749
(lp1750
(L2601977293L
L3785322319L
(lp1751
(lp1752
Vrtc_clk_slow_freq_get
p1753
atp1754
a(L2902417580L
L0L
(lp1755
(lp1756
tp1757
a(L3020187L
L0L
(lp1758
(lp1759
tp1760
a(L1299866312L
L0L
(lp1761
(lp1762
tp1763
a(L310018283L
L0L
(lp1764
(lp1765
tp1766
a(L310151149L
L0L
(lp1767
(lp1768
tp1769
a(L702741529L
L0L
(lp1770
(lp1771
tp1772
a(L3360570486L
L0L
(lp1773
(lp1774
tp1775
atp1776
sI1074269048
(Vbootloader_init
p1777
(lp1778
(L2578592054L
L0L
(lp1779
(lp1780
tp1781
a(L581302695L
L0L
(lp1782
(lp1783
tp1784
a(L93837694L
L0L
(lp1785
(lp1786
tp1787
a(L2390524012L
L0L
(lp1788
(lp1789
tp1790
a(L156344622L
L3785322319L
(lp1791
(lp1792
V__assert_func
p1793
atp1794
a(L609682228L
L0L
(lp1795
(lp1796
tp1797
a(L830352338L
L3785322319L
(lp1798
(lp1799
V__assert_func
p1800
atp1801
a(L2579449770L
L0L
(lp1802
(lp1803
tp1804
a(L2312911895L
L3785322319L
(lp1805
(lp1806
V__assert_func
p1807
atp1808
a(L2647790324L
L0L
(lp1809
(lp1810
tp1811
a(L745264323L
L3785322319L
(lp1812
(lp1813
V__assert_func
p1814
atp1815
a(L2996985571L
L3785322319L
(lp1816
(lp1817
Vbootloader_main
p1818
atp1819
a(L1299867982L
L0L
(lp1820
(lp1821
tp1822
a(L3360570486L
L0L
(lp1823
(lp1824
tp1825
atp1826
sI1074241396
(Vbootloader_sha256_finish
p1827
(lp1828
(L4066096136L
L0L
(lp1829
(lp1830
tp1831
a(L2507192538L
L3785322319L
(lp1832
(lp1833
V__assert_func
p1834
atp1835
a(L3020204L
L0L
(lp1836
(lp1837
tp1838
a(L3125835977L
L0L
(lp1839
(lp1840
tp1841
a(L2534656226L
L0L
(lp1842
(lp1843
tp1844
a(L321015369L
L0L
(lp1845
(lp1846
tp1847
a(L2452280183L
L3785322319L
(lp1848
(lp1849
V__assert_func
p1850
atp1851
a(L4244598480L
L3785322319L
(lp1852
(lp1853
Vbootloader_sha256_data
p1854
atp1855
a(L698983516L
L3785322319L
(lp1856
(lp1857
V__assert_func
p1858
atp1859
a(L1242060575L
L3785322319L
(lp1860
(lp1861
Vbootloader_sha256_data
p1862
atp1863
a(L1250614581L
L3785322319L
(lp1864
(lp1865
V__assert_func
p1866
atp1867
a(L2007151782L
L0L
(lp1868
(lp1869
tp1870
a(L199233554L
L0L
(lp1871
(lp1872
tp1873
a(L2007151782L
L0L
(lp1874
(lp1875
tp1876
a(L1301713354L
L0L
(lp1877
(lp1878
tp1879
a(L3069700831L
L0L
(lp1880
(lp1881
tp1882
a(L93837694L
L0L
(lp1883
(lp1884
tp1885
a(L3347778L
L0L
(lp1886
(lp1887
tp1888
a(L3360570486L
L0L
(lp1889
(lp1890
tp1891
atp1892
sI1074236788
(Vesp_log_early_timestamp
p1893
(lp1894
(L2465094177L
L0L
(lp1895
(lp1896
tp1897
atp1898
sI1074270064
(Vrtc_vddsdio_get_config
p1899
(lp1900
(L388342366L
L0L
(lp1901
(lp1902
tp1903
a(L236607965L
L0L
(lp1904
(lp1905
tp1906
a(L3346847940L
L0L
(lp1907
(lp1908
tp1909
a(L2395535188L
L0L
(lp1910
(lp1911
tp1912
a(L1126075573L
L0L
(lp1913
(lp1914
tp1915
a(L3565178232L
L0L
(lp1916
(lp1917
tp1918
a(L3360570486L
L0L
(lp1919
(lp1920
tp1921
atp1922
sI1074244988
(Vesp_rom_spiflash_write_encrypted
p1923
(lp1924
(L2711657322L
L0L
(lp1925
(lp1926
tp1927
a(L2663131359L
L0L
(lp1928
(lp1929
tp1930
a(L865028862L
L0L
(lp1931
(lp1932
tp1933
a(L3321984142L
L0L
(lp1934
(lp1935
tp1936
a(L4068652995L
L3785322319L
(lp1937
(lp1938
Vesp_rom_spiflash_write
p1939
atp1940
a(L1856606745L
L0L
(lp1941
(lp1942
tp1943
a(L2924646260L
L0L
(lp1944
(lp1945
tp1946
a(L1589912661L
L0L
(lp1947
(lp1948
tp1949
a(L1299866343L
L0L
(lp1950
(lp1951
tp1952
a(L2258688483L
L0L
(lp1953
(lp1954
tp1955
a(L3360570486L
L0L
(lp1956
(lp1957
tp1958
atp1959
sI1074245752
(Vrtc_wdt_protect_off
p1960
(lp1961
(L3850346926L
L0L
(lp1962
(lp1963
tp1964
atp1965
sI1074241668
(Vverify_segment_header
p1966
(lp1967
(L3674778058L
L0L
(lp1968
(lp1969
tp1970
a(L3795436786L
L0L
(lp1971
(lp1972
tp1973
a(L3028481L
L0L
(lp1974
(lp1975
tp1976
a(L3977687288L
L3785322319L
(lp1977
(lp1978
Vesp_log_early_timestamp
p1979
atp1980
a(L310071262L
L0L
(lp1981
(lp1982
tp1983
a(L536784482L
L3785322319L
(lp1984
(lp1985
Vshould_map
p1986
atp1987
a(L3496178735L
L0L
(lp1988
(lp1989
tp1990
a(L2910371777L
L0L
(lp1991
(lp1992
tp1993
a(L990331827L
L3785322319L
(lp1994
(lp1995
Vesp_log_early_timestamp
p1996
atp1997
a(L310071262L
L0L
(lp1998
(lp1999
tp2000
a(L1299866312L
L0L
(lp2001
(lp2002
tp2003
a(L2258688482L
L0L
(lp2004
(lp2005
tp2006
a(L3360570486L
L0L
(lp2007
(lp2008
tp2009
atp2010
sI1074247556
(Vrtc_clk_xtal_freq_get
p2011
(lp2012
(L384131857L
L0L
(lp2013
(lp2014
tp2015
a(L4143442356L
L0L
(lp2016
(lp2017
tp2018
a(L1305407438L
L0L
(lp2019
(lp2020
tp2021
a(L1305407438L
L0L
(lp2022
(lp2023
tp2024
a(L2258867229L
L0L
(lp2025
(lp2026
tp2027
a(L2902417580L
L0L
(lp2028
(lp2029
tp2030
a(L997999888L
L0L
(lp2031
(lp2032
tp2033
a(L2258688482L
L0L
(lp2034
(lp2035
tp2036
a(L3360570486L
L0L
(lp2037
(lp2038
tp2039
atp2040
sI1074239872
(Vunpack_load_app
p2041
(lp2042
(L1842422795L
L0L
(lp2043
(lp2044
tp2045
a(L3082114560L
L0L
(lp2046
(lp2047
tp2048
a(L2902417580L
L0L
(lp2049
(lp2050
tp2051
a(L661733570L
L3785322319L
(lp2052
(lp2053
Vesp_log_early_timestamp
p2054
atp2055
a(L119201706L
L0L
(lp2056
(lp2057
tp2058
a(L780641376L
L0L
(lp2059
(lp2060
tp2061
a(L2902417580L
L0L
(lp2062
(lp2063
tp2064
a(L415420483L
L3785322319L
(lp2065
(lp2066
Vesp_log_early_timestamp
p2067
atp2068
a(L2669168141L
L0L
(lp2069
(lp2070
tp2071
a(L1799288861L
L0L
(lp2072
(lp2073
tp2074
a(L350965691L
L0L
(lp2075
(lp2076
tp2077
a(L106L
L0L
(lp2078
(lp2079
tp2080
a(L1717315991L
L3785322319L
(lp2081
(lp2082
Vset_cache_and_start_app
p2083
atp2084
atp2085
sI1074241920
(Vverify_image_header
p2086
(lp2087
(L171376062L
L0L
(lp2088
(lp2089
tp2090
a(L3028481L
L0L
(lp2091
(lp2092
tp2093
a(L2716102016L
L3785322319L
(lp2094
(lp2095
Vesp_log_early_timestamp
p2096
atp2097
a(L1299866312L
L0L
(lp2098
(lp2099
tp2100
a(L702738956L
L0L
(lp2101
(lp2102
tp2103
a(L3615160363L
L3785322319L
(lp2104
(lp2105
Vbootloader_common_check_chip_validity
p2106
atp2107
a(L702738956L
L0L
(lp2108
(lp2109
tp2110
a(L3028481L
L0L
(lp2111
(lp2112
tp2113
a(L3270243289L
L0L
(lp2114
(lp2115
tp2116
a(L2572607029L
L3785322319L
(lp2117
(lp2118
Vesp_log_early_timestamp
p2119
atp2120
a(L3355980489L
L0L
(lp2121
(lp2122
tp2123
a(L2682253109L
L3785322319L
(lp2124
(lp2125
Vesp_log_early_timestamp
p2126
atp2127
a(L3360570486L
L0L
(lp2128
(lp2129
tp2130
atp2131
sI1074267780
(Vselect_partition_number
p2132
(lp2133
(L1731214134L
L3785322319L
(lp2134
(lp2135
Vbootloader_utility_load_partition_table
p2136
atp2137
a(L1837697588L
L3785322319L
(lp2138
(lp2139
Vesp_log_early_timestamp
p2140
atp2141
a(L1750549816L
L3785322319L
(lp2142
(lp2143
Vselected_boot_partition
p2144
atp2145
a(L3496950L
L0L
(lp2146
(lp2147
tp2148
atp2149
sI1074269572
(Vrtc_clk_init
p2150
(lp2151
(L2066786339L
L0L
(lp2152
(lp2153
tp2154
a(L2549152574L
L3785322319L
(lp2155
(lp2156
Vrtc_clk_cpu_freq_to_xtal
p2157
atp2158
a(L820553223L
L0L
(lp2159
(lp2160
tp2161
a(L3136361094L
L0L
(lp2162
(lp2163
tp2164
a(L3224614952L
L0L
(lp2165
(lp2166
tp2167
a(L1299866312L
L0L
(lp2168
(lp2169
tp2170
a(L1299866312L
L0L
(lp2171
(lp2172
tp2173
a(L1182811811L
L0L
(lp2174
(lp2175
tp2176
a(L3020204L
L0L
(lp2177
(lp2178
tp2179
a(L1849746773L
L3785322319L
(lp2180
(lp2181
Vrtc_clk_xtal_freq_get
p2182
atp2183
a(L1375577398L
L3785322319L
(lp2184
(lp2185
Vrtc_clk_xtal_freq_estimate
p2186
atp2187
a(L4233814653L
L3785322319L
(lp2188
(lp2189
Vesp_log_early_timestamp
p2190
atp2191
a(L2489577179L
L0L
(lp2192
(lp2193
tp2194
a(L4233392623L
L0L
(lp2195
(lp2196
tp2197
a(L1300789833L
L0L
(lp2198
(lp2199
tp2200
a(L1300789833L
L0L
(lp2201
(lp2202
tp2203
a(L2258718274L
L0L
(lp2204
(lp2205
tp2206
a(L3028481L
L0L
(lp2207
(lp2208
tp2209
a(L3183127930L
L3785322319L
(lp2210
(lp2211
Vrtc_clk_xtal_freq_estimate
p2212
atp2213
a(L2705290648L
L3785322319L
(lp2214
(lp2215
Vesp_log_early_timestamp
p2216
atp2217
a(L2092736903L
L0L
(lp2218
(lp2219
tp2220
a(L2419184577L
L2485746240L
(lp2221
(lp2222
Vrtc_clk_xtal_freq_update
p2223
aVrtc_clk_apb_freq_update
p2224
aVrtc_clk_cpu_freq_get_config
p2225
aVrtc_clk_cpu_freq_mhz_to_config
p2226
atp2227
a(L42625808L
L1880226080L
(lp2228
(lp2229
Vesp_log_early_timestamp
p2230
aVabort
p2231
atp2232
a(L26164863L
L3785322319L
(lp2233
(lp2234
Vrtc_clk_cpu_freq_set_config
p2235
atp2236
a(L4168829660L
L3785322319L
(lp2237
(lp2238
Vrtc_clk_32k_enable
p2239
atp2240
a(L3016870L
L0L
(lp2241
(lp2242
tp2243
a(L2533479215L
L3785322319L
(lp2244
(lp2245
Vrtc_clk_8m_enable
p2246
atp2247
a(L530469956L
L1880226080L
(lp2248
(lp2249
Vrtc_clk_fast_freq_set
p2250
aVrtc_clk_slow_freq_set
p2251
atp2252
atp2253
sI1074270852
(Vrtc_clk_wait_for_slow_cycle
p2254
(lp2255
(L3644181782L
L0L
(lp2256
(lp2257
tp2258
a(L2228660230L
L0L
(lp2259
(lp2260
tp2261
a(L679753971L
L0L
(lp2262
(lp2263
tp2264
a(L3360570486L
L0L
(lp2265
(lp2266
tp2267
atp2268
sI1074242440
(Vprocess_segment
p2269
(lp2270
(L4023325822L
L3785322319L
(lp2271
(lp2272
Vbootloader_flash_read
p2273
atp2274
a(L4117411598L
L3785322319L
(lp2275
(lp2276
Vesp_log_early_timestamp
p2277
atp2278
a(L2378867762L
L0L
(lp2279
(lp2280
tp2281
a(L2241831349L
L3785322319L
(lp2282
(lp2283
Vbootloader_sha256_data
p2284
atp2285
a(L3662992855L
L3785322319L
(lp2286
(lp2287
Vverify_segment_header
p2288
atp2289
a(L3458480366L
L0L
(lp2290
(lp2291
tp2292
a(L3028481L
L0L
(lp2293
(lp2294
tp2295
a(L3265528973L
L3785322319L
(lp2296
(lp2297
Vesp_log_early_timestamp
p2298
atp2299
a(L310071262L
L0L
(lp2300
(lp2301
tp2302
a(L1396114142L
L3785322319L
(lp2303
(lp2304
Vshould_map
p2305
atp2306
a(L3872460357L
L3785322319L
(lp2307
(lp2308
Vshould_load
p2309
atp2310
a(L2440112036L
L0L
(lp2311
(lp2312
tp2313
a(L2893621607L
L0L
(lp2314
(lp2315
tp2316
a(L4267722531L
L0L
(lp2317
(lp2318
tp2319
a(L1477562579L
L0L
(lp2320
(lp2321
tp2322
a(L3287840219L
L3785322319L
(lp2323
(lp2324
Vesp_log_early_timestamp
p2325
atp2326
a(L2902417580L
L0L
(lp2327
(lp2328
tp2329
a(L568241505L
L0L
(lp2330
(lp2331
tp2332
a(L568242001L
L0L
(lp2333
(lp2334
tp2335
a(L1403803685L
L0L
(lp2336
(lp2337
tp2338
a(L621771438L
L0L
(lp2339
(lp2340
tp2341
a(L3020204L
L0L
(lp2342
(lp2343
tp2344
a(L1835996274L
L0L
(lp2345
(lp2346
tp2347
a(L4134747623L
L0L
(lp2348
(lp2349
tp2350
a(L106L
L0L
(lp2351
(lp2352
tp2353
a(L4052585061L
L3785322319L
(lp2354
(lp2355
Vesp_log_early_timestamp
p2356
atp2357
a(L307668797L
L0L
(lp2358
(lp2359
tp2360
a(L105765708L
L3785322319L
(lp2361
(lp2362
V__assert_func
p2363
atp2364
a(L97642L
L0L
(lp2365
(lp2366
tp2367
a(L1814764641L
L3785322319L
(lp2368
(lp2369
V__assert_func
p2370
atp2371
a(L366123053L
L0L
(lp2372
(lp2373
tp2374
a(L2258867228L
L0L
(lp2375
(lp2376
tp2377
a(L1052660505L
L0L
(lp2378
(lp2379
tp2380
a(L1182990556L
L0L
(lp2381
(lp2382
tp2383
a(L2816536719L
L0L
(lp2384
(lp2385
tp2386
a(L1543438240L
L3785322319L
(lp2387
(lp2388
Vesp_log_early_timestamp
p2389
atp2390
a(L1067290642L
L3785322319L
(lp2391
(lp2392
Vbootloader_mmap_get_free_pages
p2393
atp2394
a(L1429983462L
L3785322319L
(lp2395
(lp2396
Vprocess_segment_data
p2397
atp2398
a(L1624476643L
L0L
(lp2399
(lp2400
tp2401
a(L3021737L
L0L
(lp2402
(lp2403
tp2404
a(L930693660L
L0L
(lp2405
(lp2406
tp2407
a(L1899940123L
L0L
(lp2408
(lp2409
tp2410
a(L3360570486L
L0L
(lp2411
(lp2412
tp2413
atp2414
sI1074245768
(Vrtc_wdt_protect_on
p2415
(lp2416
(L612800151L
L0L
(lp2417
(lp2418
tp2419
atp2420
sI1074246548
(Vrtc_clk_bbpll_enable
p2421
(lp2422
(L2597905661L
L0L
(lp2423
(lp2424
tp2425
atp2426
sI1074247060
(Vrtc_clk_fast_freq_set
p2427
(lp2428
(L2699775747L
L0L
(lp2429
(lp2430
tp2431
atp2432
sI1074248340
(Vrtc_clk_cpu_freq_set_config
p2433
(lp2434
(L3979715351L
L3785322319L
(lp2435
(lp2436
Vrtc_clk_xtal_freq_get
p2437
atp2438
a(L1739379997L
L1880226080L
(lp2439
(lp2440
Vrtc_clk_cpu_freq_to_xtal
p2441
aVrtc_clk_wait_for_slow_cycle
p2442
atp2443
a(L3028464L
L0L
(lp2444
(lp2445
tp2446
a(L94425498L
L3785322319L
(lp2447
(lp2448
Vrtc_clk_bbpll_disable
p2449
atp2450
a(L3978916712L
L0L
(lp2451
(lp2452
tp2453
a(L2977209154L
L0L
(lp2454
(lp2455
tp2456
a(L3224389080L
L3785322319L
(lp2457
(lp2458
Vrtc_clk_cpu_freq_to_xtal
p2459
atp2460
a(L3028464L
L0L
(lp2461
(lp2462
tp2463
a(L2123040928L
L1157885199L
(lp2464
(lp2465
Vrtc_clk_bbpll_enable
p2466
aVrtc_clk_wait_for_slow_cycle
p2467
aVrtc_clk_xtal_freq_get
p2468
aVrtc_clk_bbpll_configure
p2469
aVrtc_clk_cpu_freq_to_pll_mhz
p2470
atp2471
a(L3028464L
L0L
(lp2472
(lp2473
tp2474
a(L94425498L
L3785322319L
(lp2475
(lp2476
Vrtc_clk_cpu_freq_to_8m
p2477
atp2478
a(L3360570486L
L0L
(lp2479
(lp2480
tp2481
atp2482
sI1074237072
(Vbootloader_common_vddsdio_configure
p2483
(lp2484
(L1829974089L
L3785322319L
(lp2485
(lp2486
Vrtc_vddsdio_get_config
p2487
atp2488
a(L2697960163L
L3785322319L
(lp2489
(lp2490
Vrtc_vddsdio_set_config
p2491
atp2492
a(L3360570486L
L0L
(lp2493
(lp2494
tp2495
atp2496
sI1074248080
(Vrtc_clk_cpu_freq_to_pll_mhz
p2497
(lp2498
(L3048415994L
L0L
(lp2499
(lp2500
tp2501
a(L3284807114L
L0L
(lp2502
(lp2503
tp2504
a(L1546614651L
L0L
(lp2505
(lp2506
tp2507
a(L2245131903L
L0L
(lp2508
(lp2509
tp2510
a(L3941059644L
L1880226080L
(lp2511
(lp2512
Vesp_log_early_timestamp
p2513
aVabort
p2514
atp2515
a(L2780079949L
L0L
(lp2516
(lp2517
tp2518
a(L2306437310L
L0L
(lp2519
(lp2520
tp2521
a(L2795660216L
L1880226080L
(lp2522
(lp2523
Vrtc_clk_apb_freq_update
p2524
aVrtc_clk_wait_for_slow_cycle
p2525
atp2526
atp2527
sI1074270352
(Vrtc_clk_cal_internal
p2528
(lp2529
(L2785543047L
L0L
(lp2530
(lp2531
tp2532
a(L2344137504L
L3785322319L
(lp2533
(lp2534
V__assert_func
p2535
atp2536
a(L209486870L
L0L
(lp2537
(lp2538
tp2539
a(L1979498901L
L0L
(lp2540
(lp2541
tp2542
a(L3028464L
L0L
(lp2543
(lp2544
tp2545
a(L763236212L
L0L
(lp2546
(lp2547
tp2548
a(L401232362L
L0L
(lp2549
(lp2550
tp2551
a(L1352009054L
L0L
(lp2552
(lp2553
tp2554
a(L97422L
L0L
(lp2555
(lp2556
tp2557
a(L2120918540L
L0L
(lp2558
(lp2559
tp2560
a(L3900101454L
L0L
(lp2561
(lp2562
tp2563
a(L3900101330L
L0L
(lp2564
(lp2565
tp2566
a(L3900101330L
L0L
(lp2567
(lp2568
tp2569
a(L3900101454L
L0L
(lp2570
(lp2571
tp2572
a(L3450945696L
L0L
(lp2573
(lp2574
tp2575
a(L1277380815L
L3785322319L
(lp2576
(lp2577
Vrtc_clk_xtal_freq_get
p2578
atp2579
a(L2780079961L
L0L
(lp2580
(lp2581
tp2582
a(L2007867703L
L0L
(lp2583
(lp2584
tp2585
a(L2257879593L
L3785322319L
(lp2586
(lp2587
Vesp_log_early_timestamp
p2588
atp2589
a(L2209925168L
L0L
(lp2590
(lp2591
tp2592
a(L2356680430L
L0L
(lp2593
(lp2594
tp2595
a(L679754467L
L0L
(lp2596
(lp2597
tp2598
a(L3021737L
L0L
(lp2599
(lp2600
tp2601
a(L3589052772L
L0L
(lp2602
(lp2603
tp2604
a(L524443757L
L0L
(lp2605
(lp2606
tp2607
a(L2902417580L
L0L
(lp2608
(lp2609
tp2610
a(L222622022L
L0L
(lp2611
(lp2612
tp2613
a(L2258688482L
L0L
(lp2614
(lp2615
tp2616
a(L3360570486L
L0L
(lp2617
(lp2618
tp2619
atp2620
sI1074236824
(Vbootloader_clock_configure
p2621
(lp2622
(L3493042567L
L0L
(lp2623
(lp2624
tp2625
a(L4281448847L
L0L
(lp2626
(lp2627
tp2628
a(L1229860772L
L0L
(lp2629
(lp2630
tp2631
a(L1518940034L
L0L
(lp2632
(lp2633
tp2634
a(L1812928027L
L0L
(lp2635
(lp2636
tp2637
a(L1812928027L
L0L
(lp2638
(lp2639
tp2640
a(L2312970590L
L0L
(lp2641
(lp2642
tp2643
a(L2314897641L
L1832448559L
(lp2644
(lp2645
Vrtc_clk_slow_freq_get
p2646
aVrtc_clk_fast_freq_get
p2647
aVrtc_clk_init
p2648
atp2649
atp2650
sI1074245784
(Vrtc_wdt_enable
p2651
(lp2652
(L18619439L
L0L
(lp2653
(lp2654
tp2655
atp2656
sI1074269352
(Vabort
p2657
(lp2658
(L1496783690L
L3785322319L
(lp2659
(lp2660
Vesp_cpu_in_ocd_debug_mode
p2661
atp2662
a(L409441471L
L0L
(lp2663
(lp2664
tp2665
a(L106L
L0L
(lp2666
(lp2667
tp2668
atp2669
sI1074237348
(Vbootloader_common_ota_select_invalid
p2670
(lp2671
(L2808438197L
L0L
(lp2672
(lp2673
tp2674
a(L473337258L
L0L
(lp2675
(lp2676
tp2677
a(L3028464L
L0L
(lp2678
(lp2679
tp2680
a(L1299866343L
L0L
(lp2681
(lp2682
tp2683
a(L1299866343L
L0L
(lp2684
(lp2685
tp2686
a(L1299866343L
L0L
(lp2687
(lp2688
tp2689
a(L2258688482L
L0L
(lp2690
(lp2691
tp2692
a(L3360570486L
L0L
(lp2693
(lp2694
tp2695
atp2696
sI1074239648
(Vset_cache_and_start_app
p2697
(lp2698
(L2286081353L
L0L
(lp2699
(lp2700
tp2701
a(L1268627280L
L0L
(lp2702
(lp2703
tp2704
a(L1548223148L
L0L
(lp2705
(lp2706
tp2707
a(L2687545080L
L0L
(lp2708
(lp2709
tp2710
atp2711
sI1074244768
(Vesp_rom_spiflash_write
p2712
(lp2713
(L2255951518L
L0L
(lp2714
(lp2715
tp2716
a(L106L
L0L
(lp2717
(lp2718
tp2719
a(L38049871L
L0L
(lp2720
(lp2721
tp2722
a(L271180483L
L3785322319L
(lp2723
(lp2724
Vesp_rom_spiflash_program_page_internal
p2725
atp2726
a(L106L
L0L
(lp2727
(lp2728
tp2729
a(L573580287L
L3785322319L
(lp2730
(lp2731
Vesp_rom_spiflash_program_page_internal
p2732
atp2733
a(L1672331730L
L0L
(lp2734
(lp2735
tp2736
a(L1047126152L
L3785322319L
(lp2737
(lp2738
Vesp_rom_spiflash_program_page_internal
p2739
atp2740
a(L850197805L
L0L
(lp2741
(lp2742
tp2743
a(L4159629294L
L0L
(lp2744
(lp2745
tp2746
a(L1032424328L
L3785322319L
(lp2747
(lp2748
Vesp_rom_spiflash_program_page_internal
p2749
atp2750
a(L106L
L0L
(lp2751
(lp2752
tp2753
a(L1299866343L
L0L
(lp2754
(lp2755
tp2756
a(L1299866343L
L0L
(lp2757
(lp2758
tp2759
a(L1299866343L
L0L
(lp2760
(lp2761
tp2762
a(L1299866343L
L0L
(lp2763
(lp2764
tp2765
a(L1182811811L
L0L
(lp2766
(lp2767
tp2768
a(L3360570486L
L0L
(lp2769
(lp2770
tp2771
atp2772
sI1074241204
(Vbootloader_sha256_start
p2773
(lp2774
(L1390653723L
L0L
(lp2775
(lp2776
tp2777
atp2778
sI1074242228
(Vdebug_log_hash
p2779
(lp2780
(L1348589273L
L3785322319L
(lp2781
(lp2782
Vbootloader_sha256_hex_to_str
p2783
atp2784
atp2785
sI1074244020
(Vesp_rom_spiflash_wait_idle
p2786
(lp2787
(L287326052L
L0L
(lp2788
(lp2789
tp2790
a(L2663764559L
L0L
(lp2791
(lp2792
tp2793
a(L3844999098L
L0L
(lp2794
(lp2795
tp2796
a(L855829385L
L3785322319L
(lp2797
(lp2798
Vesp_rom_spiflash_read_status
p2799
atp2800
a(L1298875774L
L0L
(lp2801
(lp2802
tp2803
a(L735741265L
L0L
(lp2804
(lp2805
tp2806
atp2807
sI1074238128
(Vbootloader_flash_write
p2808
(lp2809
(L1798169257L
L0L
(lp2810
(lp2811
tp2812
a(L1755666842L
L0L
(lp2813
(lp2814
tp2815
a(L1182930978L
L0L
(lp2816
(lp2817
tp2818
a(L1516326052L
L0L
(lp2819
(lp2820
tp2821
a(L20293602L
L3785322319L
(lp2822
(lp2823
Vesp_log_early_timestamp
p2824
atp2825
a(L3291333414L
L0L
(lp2826
(lp2827
tp2828
a(L1693862220L
L3785322319L
(lp2829
(lp2830
Vesp_log_early_timestamp
p2831
atp2832
a(L3283691850L
L0L
(lp2833
(lp2834
tp2835
a(L1664792438L
L3785322319L
(lp2836
(lp2837
Vesp_log_early_timestamp
p2838
atp2839
a(L3212356251L
L3785322319L
(lp2840
(lp2841
Vbootloader_flash_unlock
p2842
atp2843
a(L2902417580L
L0L
(lp2844
(lp2845
tp2846
a(L2913054701L
L1880226080L
(lp2847
(lp2848
Vesp_rom_spiflash_write_encrypted
p2849
aVspi_to_esp_err
p2850
atp2851
a(L4281627677L
L1880226080L
(lp2852
(lp2853
Vesp_rom_spiflash_write
p2854
aVspi_to_esp_err
p2855
atp2856
a(L735741265L
L0L
(lp2857
(lp2858
tp2859
atp2860
sI1074238896
(Vbootloader_random_disable
p2861
(lp2862
(L3386151447L
L0L
(lp2863
(lp2864
tp2865
atp2866
sI1074247612
(Vrtc_clk_cpu_freq_mhz_to_config
p2867
(lp2868
(L2601984125L
L3785322319L
(lp2869
(lp2870
Vrtc_clk_xtal_freq_get
p2871
atp2872
a(L2647093801L
L0L
(lp2873
(lp2874
tp2875
a(L3263839434L
L0L
(lp2876
(lp2877
tp2878
a(L2762074623L
L0L
(lp2879
(lp2880
tp2881
a(L1541996779L
L0L
(lp2882
(lp2883
tp2884
a(L1546614651L
L0L
(lp2885
(lp2886
tp2887
a(L1555485793L
L0L
(lp2888
(lp2889
tp2890
a(L1695987314L
L0L
(lp2891
(lp2892
tp2893
a(L3652406074L
L0L
(lp2894
(lp2895
tp2896
a(L1139084306L
L0L
(lp2897
(lp2898
tp2899
a(L1299866312L
L0L
(lp2900
(lp2901
tp2902
a(L2258688482L
L0L
(lp2903
(lp2904
tp2905
a(L3360570486L
L0L
(lp2906
(lp2907
tp2908
atp2909
sI1074267828
(Vcall_start_cpu0
p2910
(lp2911
(L2311976169L
L3785322319L
(lp2912
(lp2913
Vbootloader_init
p2914
atp2915
a(L3827921190L
L3785322319L
(lp2916
(lp2917
Vbootloader_reset
p2918
atp2919
a(L4083304126L
L3785322319L
(lp2920
(lp2921
Vselect_partition_number
p2922
atp2923
a(L94425498L
L3785322319L
(lp2924
(lp2925
Vbootloader_reset
p2926
atp2927
a(L1678595755L
L3785322319L
(lp2928
(lp2929
Vbootloader_utility_load_boot_image
p2930
atp2931
atp2932
sI1074240696
(Vbootloader_reset
p2933
(lp2934
(L3425357023L
L0L
(lp2935
(lp2936
tp2937
a(L106L
L0L
(lp2938
(lp2939
tp2940
atp2941
sI1074235576
(Vbootloader_flash_execute_command_common
p2942
(lp2943
(L3093683517L
L0L
(lp2944
(lp2945
tp2946
a(L3553389917L
L3785322319L
(lp2947
(lp2948
V__assert_func
p2949
atp2950
a(L3934048903L
L0L
(lp2951
(lp2952
tp2953
a(L200507376L
L3785322319L
(lp2954
(lp2955
V__assert_func
p2956
atp2957
a(L271654967L
L0L
(lp2958
(lp2959
tp2960
a(L3677736035L
L0L
(lp2961
(lp2962
tp2963
a(L2720116201L
L0L
(lp2964
(lp2965
tp2966
a(L1370372145L
L0L
(lp2967
(lp2968
tp2969
a(L2053727415L
L0L
(lp2970
(lp2971
tp2972
a(L3056583676L
L0L
(lp2973
(lp2974
tp2975
a(L2460931740L
L0L
(lp2976
(lp2977
tp2978
a(L2258807646L
L0L
(lp2979
(lp2980
tp2981
a(L363225620L
L0L
(lp2982
(lp2983
tp2984
a(L3513331551L
L0L
(lp2985
(lp2986
tp2987
a(L2258807646L
L0L
(lp2988
(lp2989
tp2990
a(L2509596774L
L0L
(lp2991
(lp2992
tp2993
a(L3541824727L
L0L
(lp2994
(lp2995
tp2996
a(L526118246L
L0L
(lp2997
(lp2998
tp2999
a(L377965372L
L0L
(lp3000
(lp3001
tp3002
a(L3360570486L
L0L
(lp3003
(lp3004
tp3005
atp3006
sI1074237124
(Vbootloader_common_get_chip_revision
p3007
(lp3008
(L713572164L
L0L
(lp3009
(lp3010
tp3011
a(L3020187L
L0L
(lp3012
(lp3013
tp3014
a(L3020187L
L0L
(lp3015
(lp3016
tp3017
a(L1299866312L
L0L
(lp3018
(lp3019
tp3020
a(L1299866374L
L0L
(lp3021
(lp3022
tp3023
a(L1299866405L
L0L
(lp3024
(lp3025
tp3026
a(L2258688483L
L0L
(lp3027
(lp3028
tp3029
a(L3360570486L
L0L
(lp3030
(lp3031
tp3032
atp3033
sI1074239428
(Vwrite_otadata
p3034
(lp3035
(L1129643552L
L3785322319L
(lp3036
(lp3037
Vbootloader_flash_erase_sector
p3038
atp3039
a(L2292404229L
L3785322319L
(lp3040
(lp3041
Vbootloader_flash_write
p3042
atp3043
a(L3020204L
L0L
(lp3044
(lp3045
tp3046
a(L205662936L
L3785322319L
(lp3047
(lp3048
Vesp_log_early_timestamp
p3049
atp3050
a(L3360570486L
L0L
(lp3051
(lp3052
tp3053
atp3054
sI1074245828
(Vrtc_wdt_set_time
p3055
(lp3056
(L607216364L
L0L
(lp3057
(lp3058
tp3059
a(L1079095605L
L3785322319L
(lp3060
(lp3061
Vrtc_clk_slow_freq_get_hz
p3062
atp3063
a(L870337636L
L0L
(lp3064
(lp3065
tp3066
a(L3028464L
L0L
(lp3067
(lp3068
tp3069
a(L3184002511L
L0L
(lp3070
(lp3071
tp3072
a(L3028464L
L0L
(lp3073
(lp3074
tp3075
a(L462971067L
L0L
(lp3076
(lp3077
tp3078
a(L1866170815L
L0L
(lp3079
(lp3080
tp3081
a(L2810785765L
L0L
(lp3082
(lp3083
tp3084
a(L3360570486L
L0L
(lp3085
(lp3086
tp3087
atp3088
sI1074268620
(Vupdate_flash_config
p3089
(lp3090
(L2363123660L
L0L
(lp3091
(lp3092
tp3093
a(L604335882L
L0L
(lp3094
(lp3095
tp3096
a(L2258688484L
L0L
(lp3097
(lp3098
tp3099
a(L1002360078L
L0L
(lp3100
(lp3101
tp3102
atp3103
sI1074247104
(Vrtc_clk_fast_freq_get
p3104
(lp3105
(L3549048653L
L0L
(lp3106
(lp3107
tp3108
atp3109
sI1074247872
(Vrtc_clk_xtal_freq_update
p3110
(lp3111
(L3023300274L
L0L
(lp3112
(lp3113
tp3114
a(L3509357017L
L0L
(lp3115
(lp3116
tp3117
a(L3040433054L
L0L
(lp3118
(lp3119
tp3120
atp3121
sI1074242252
(Vverify_simple_hash
p3122
(lp3123
(L2098074648L
L1832448559L
(lp3124
(lp3125
Vbootloader_sha256_finish
p3126
aVdebug_log_hash
p3127
aVbootloader_mmap
p3128
atp3129
a(L3906789258L
L1832448559L
(lp3130
(lp3131
Vesp_log_early_timestamp
p3132
aVdebug_log_hash
p3133
aVbootloader_munmap
p3134
atp3135
a(L1362502076L
L3785322319L
(lp3136
(lp3137
Vbootloader_munmap
p3138
atp3139
a(L3360570486L
L0L
(lp3140
(lp3141
tp3142
atp3143
sI1074246348
(Vrtc_clk_32k_enable_common
p3144
(lp3145
(L1846958802L
L0L
(lp3146
(lp3147
tp3148
atp3149
sI1074241224
(Vbootloader_sha256_data
p3150
(lp3151
(L4037466985L
L0L
(lp3152
(lp3153
tp3154
a(L812451094L
L3785322319L
(lp3155
(lp3156
V__assert_func
p3157
atp3158
a(L2660352519L
L0L
(lp3159
(lp3160
tp3161
a(L1607423730L
L3785322319L
(lp3162
(lp3163
V__assert_func
p3164
atp3165
a(L66409669L
L0L
(lp3166
(lp3167
tp3168
a(L1522849211L
L0L
(lp3169
(lp3170
tp3171
a(L2007160076L
L0L
(lp3172
(lp3173
tp3174
a(L1301713354L
L0L
(lp3175
(lp3176
tp3177
a(L2895000905L
L0L
(lp3178
(lp3179
tp3180
a(L3027019L
L0L
(lp3181
(lp3182
tp3183
a(L119955842L
L0L
(lp3184
(lp3185
tp3186
a(L3028464L
L0L
(lp3187
(lp3188
tp3189
a(L1179673110L
L0L
(lp3190
(lp3191
tp3192
a(L174464152L
L0L
(lp3193
(lp3194
tp3195
a(L3028481L
L0L
(lp3196
(lp3197
tp3198
a(L3360570486L
L0L
(lp3199
(lp3200
tp3201
atp3202
sI1074240456
(Vbootloader_utility_get_selected_boot_partition
p3203
(lp3204
(L493075905L
L0L
(lp3205
(lp3206
tp3207
a(L1053676827L
L3785322319L
(lp3208
(lp3209
Vread_otadata
p3210
atp3211
a(L2110620846L
L3785322319L
(lp3212
(lp3213
Vbootloader_common_ota_select_invalid
p3214
atp3215
a(L1836822349L
L3785322319L
(lp3216
(lp3217
Vbootloader_common_ota_select_invalid
p3218
atp3219
a(L1103582223L
L0L
(lp3220
(lp3221
tp3222
a(L1434139642L
L0L
(lp3223
(lp3224
tp3225
a(L356763204L
L3785322319L
(lp3226
(lp3227
Vesp_log_early_timestamp
p3228
atp3229
a(L2249798943L
L3785322319L
(lp3230
(lp3231
Vesp_log_early_timestamp
p3232
atp3233
a(L1231013322L
L3785322319L
(lp3234
(lp3235
Vbootloader_common_ota_select_crc
p3236
atp3237
a(L505081345L
L0L
(lp3238
(lp3239
tp3240
a(L919052234L
L3785322319L
(lp3241
(lp3242
Vbootloader_common_ota_select_crc
p3243
atp3244
a(L2184549057L
L0L
(lp3245
(lp3246
tp3247
a(L1876827316L
L3785322319L
(lp3248
(lp3249
Vbootloader_common_get_active_otadata
p3250
atp3251
a(L2624014019L
L0L
(lp3252
(lp3253
tp3254
a(L1434139642L
L0L
(lp3255
(lp3256
tp3257
a(L3957781474L
L3785322319L
(lp3258
(lp3259
Vesp_log_early_timestamp
p3260
atp3261
a(L2376675742L
L3785322319L
(lp3262
(lp3263
Vesp_log_early_timestamp
p3264
atp3265
a(L1641201884L
L0L
(lp3266
(lp3267
tp3268
a(L2805938668L
L0L
(lp3269
(lp3270
tp3271
a(L3360570486L
L0L
(lp3272
(lp3273
tp3274
atp3275
sI1074237384
(Vbootloader_common_select_otadata
p3276
(lp3277
(L3584189777L
L0L
(lp3278
(lp3279
tp3280
a(L1238320367L
L0L
(lp3281
(lp3282
tp3283
a(L1238350425L
L0L
(lp3284
(lp3285
tp3286
a(L3063569071L
L0L
(lp3287
(lp3288
tp3289
a(L1299866312L
L0L
(lp3290
(lp3291
tp3292
a(L2902417580L
L0L
(lp3293
(lp3294
tp3295
a(L2266899299L
L0L
(lp3296
(lp3297
tp3298
a(L1021104441L
L0L
(lp3299
(lp3300
tp3301
a(L3969214161L
L0L
(lp3302
(lp3303
tp3304
a(L1299866312L
L0L
(lp3305
(lp3306
tp3307
a(L1098457408L
L0L
(lp3308
(lp3309
tp3310
a(L1770629919L
L0L
(lp3311
(lp3312
tp3313
a(L3027007L
L0L
(lp3314
(lp3315
tp3316
a(L1641201884L
L0L
(lp3317
(lp3318
tp3319
a(L1641201884L
L0L
(lp3320
(lp3321
tp3322
a(L2258688483L
L0L
(lp3323
(lp3324
tp3325
a(L3360570486L
L0L
(lp3326
(lp3327
tp3328
atp3329
sI1074234824
(Vbootloader_flash_gpio_config
p3330
(lp3331
(L2421374338L
L0L
(lp3332
(lp3333
tp3334
a(L1299866374L
L0L
(lp3335
(lp3336
tp3337
a(L2258688485L
L0L
(lp3338
(lp3339
tp3340
a(L3994737887L
L0L
(lp3341
(lp3342
tp3343
a(L3374238576L
L0L
(lp3344
(lp3345
tp3346
a(L3028464L
L0L
(lp3347
(lp3348
tp3349
a(L3374238576L
L0L
(lp3350
(lp3351
tp3352
a(L3028464L
L0L
(lp3353
(lp3354
tp3355
a(L3374238576L
L0L
(lp3356
(lp3357
tp3358
a(L1620391664L
L0L
(lp3359
(lp3360
tp3361
a(L2823660977L
L0L
(lp3362
(lp3363
tp3364
a(L2854935024L
L0L
(lp3365
(lp3366
tp3367
a(L3360570486L
L0L
(lp3368
(lp3369
tp3370
atp3371
sI1074236116
(Vexecute_flash_command
p3372
(lp3373
(L2909450247L
L3785322319L
(lp3374
(lp3375
Vbootloader_flash_execute_command_common
p3376
atp3377
atp3378
sI1074247120
(Vrtc_clk_bbpll_configure
p3379
(lp3380
(L4270275352L
L0L
(lp3381
(lp3382
tp3383
a(L106L
L0L
(lp3384
(lp3385
tp3386
a(L413796604L
L0L
(lp3387
(lp3388
tp3389
a(L83268344L
L0L
(lp3390
(lp3391
tp3392
a(L82344823L
L0L
(lp3393
(lp3394
tp3395
a(L3716763792L
L0L
(lp3396
(lp3397
tp3398
a(L2946597619L
L0L
(lp3399
(lp3400
tp3401
a(L1853483621L
L0L
(lp3402
(lp3403
tp3404
a(L2588903510L
L0L
(lp3405
(lp3406
tp3407
a(L621817984L
L0L
(lp3408
(lp3409
tp3410
a(L1352771228L
L0L
(lp3411
(lp3412
tp3413
a(L83268344L
L0L
(lp3414
(lp3415
tp3416
a(L82344823L
L0L
(lp3417
(lp3418
tp3419
a(L3716763792L
L0L
(lp3420
(lp3421
tp3422
a(L3716340639L
L0L
(lp3423
(lp3424
tp3425
a(L274194809L
L0L
(lp3426
(lp3427
tp3428
a(L2613733930L
L0L
(lp3429
(lp3430
tp3431
a(L982971288L
L0L
(lp3432
(lp3433
tp3434
a(L3894176505L
L3785322319L
(lp3435
(lp3436
Vrtc_clk_slow_freq_get
p3437
atp3438
a(L2679108412L
L0L
(lp3439
(lp3440
tp3441
a(L2780081410L
L0L
(lp3442
(lp3443
tp3444
a(L2079956813L
L0L
(lp3445
(lp3446
tp3447
atp3448
sI1074236380
(Vbootloader_flash_unlock
p3449
(lp3450
(L3746304696L
L3785322319L
(lp3451
(lp3452
Vesp_rom_spiflash_wait_idle
p3453
atp3454
a(L3827077634L
L3785322319L
(lp3455
(lp3456
Vexecute_flash_command
p3457
atp3458
a(L3162775668L
L0L
(lp3459
(lp3460
tp3461
a(L1225466760L
L0L
(lp3462
(lp3463
tp3464
a(L2151861662L
L0L
(lp3465
(lp3466
tp3467
a(L1299866312L
L0L
(lp3468
(lp3469
tp3470
a(L1299866312L
L0L
(lp3471
(lp3472
tp3473
a(L1299866312L
L0L
(lp3474
(lp3475
tp3476
a(L1182811811L
L0L
(lp3477
(lp3478
tp3479
a(L3020204L
L0L
(lp3480
(lp3481
tp3482
a(L2678961441L
L1880226080L
(lp3483
(lp3484
Vexecute_flash_command
p3485
aVexecute_flash_command
p3486
atp3487
a(L3220422812L
L1880226080L
(lp3488
(lp3489
Vexecute_flash_command
p3490
aVexecute_flash_command
p3491
atp3492
a(L97422L
L0L
(lp3493
(lp3494
tp3495
a(L2746578736L
L1157885199L
(lp3496
(lp3497
Vesp_rom_spiflash_wait_idle
p3498
aVexecute_flash_command
p3499
aVesp_rom_spiflash_wait_idle
p3500
aVexecute_flash_command
p3501
aVesp_rom_spiflash_wait_idle
p3502
atp3503
a(L97422L
L0L
(lp3504
(lp3505
tp3506
a(L779969632L
L1157885199L
(lp3507
(lp3508
Vesp_rom_spiflash_wait_idle
p3509
aVexecute_flash_command
p3510
aVesp_rom_spiflash_wait_idle
p3511
aVexecute_flash_command
p3512
aVesp_rom_spiflash_wait_idle
p3513
atp3514
a(L2531355236L
L1880226080L
(lp3515
(lp3516
Vexecute_flash_command
p3517
aVesp_rom_spiflash_wait_idle
p3518
atp3519
atp3520
sI1074269396
(Vrtc_clk_xtal_freq_estimate
p3521
(lp3522
(L2516060585L
L1880226080L
(lp3523
(lp3524
Vrtc_clk_8m_enabled
p3525
aVrtc_clk_8md256_enabled
p3526
atp3527
a(L967485502L
L3785322319L
(lp3528
(lp3529
Vrtc_clk_8m_enable
p3530
atp3531
a(L59032741L
L3785322319L
(lp3532
(lp3533
Vrtc_clk_cal_ratio
p3534
atp3535
a(L1789153894L
L0L
(lp3536
(lp3537
tp3538
a(L3390943589L
L3785322319L
(lp3539
(lp3540
Vesp_log_early_timestamp
p3541
atp3542
a(L3360570486L
L0L
(lp3543
(lp3544
tp3545
atp3546
sI1074246872
(Vrtc_clk_8m_enabled
p3547
(lp3548
(L762781880L
L0L
(lp3549
(lp3550
tp3551
atp3552
sI1074245080
(Vesp_rom_spiflash_read
p3553
(lp3554
(L2937159522L
L0L
(lp3555
(lp3556
tp3557
a(L3259800734L
L0L
(lp3558
(lp3559
tp3560
a(L3017366L
L0L
(lp3561
(lp3562
tp3563
a(L106L
L0L
(lp3564
(lp3565
tp3566
a(L3566544746L
L0L
(lp3567
(lp3568
tp3569
a(L106L
L0L
(lp3570
(lp3571
tp3572
a(L903815341L
L0L
(lp3573
(lp3574
tp3575
a(L396410668L
L0L
(lp3576
(lp3577
tp3578
a(L554277212L
L0L
(lp3579
(lp3580
tp3581
a(L3016870L
L0L
(lp3582
(lp3583
tp3584
a(L313768278L
L0L
(lp3585
(lp3586
tp3587
a(L3016870L
L0L
(lp3588
(lp3589
tp3590
a(L2656183489L
L0L
(lp3591
(lp3592
tp3593
a(L769051229L
L0L
(lp3594
(lp3595
tp3596
a(L3116497201L
L0L
(lp3597
(lp3598
tp3599
a(L2174432247L
L0L
(lp3600
(lp3601
tp3602
a(L3069035187L
L0L
(lp3603
(lp3604
tp3605
a(L993738264L
L0L
(lp3606
(lp3607
tp3608
a(L467248536L
L0L
(lp3609
(lp3610
tp3611
a(L3437651144L
L3785322319L
(lp3612
(lp3613
Vesp_rom_spiflash_read_data
p3614
atp3615
a(L1298875774L
L0L
(lp3616
(lp3617
tp3618
a(L735741265L
L0L
(lp3619
(lp3620
tp3621
atp3622
sI1074238424
(Vbootloader_random_enable
p3623
(lp3624
(L3776654958L
L0L
(lp3625
(lp3626
tp3627
atp3628
sI1074240740
(Vbootloader_utility_load_boot_image
p3629
(lp3630
(L3583044102L
L0L
(lp3631
(lp3632
tp3633
a(L534474525L
L3785322319L
(lp3634
(lp3635
Vtry_load_partition
p3636
atp3637
a(L1346171890L
L3785322319L
(lp3638
(lp3639
Vload_image
p3640
atp3641
a(L3662849985L
L1880226080L
(lp3642
(lp3643
Vesp_log_early_timestamp
p3644
aVbootloader_reset
p3645
atp3646
a(L471331349L
L3785322319L
(lp3647
(lp3648
Vindex_to_partition
p3649
atp3650
a(L889780906L
L3785322319L
(lp3651
(lp3652
Vcheck_anti_rollback
p3653
atp3654
a(L1255570883L
L3785322319L
(lp3655
(lp3656
Vtry_load_partition
p3657
atp3658
a(L170811925L
L1880226080L
(lp3659
(lp3660
Vset_actual_ota_seq
p3661
aVload_image
p3662
atp3663
a(L1391131227L
L3785322319L
(lp3664
(lp3665
Vlog_invalid_app_partition
p3666
atp3667
a(L11368960L
L0L
(lp3668
(lp3669
tp3670
a(L3802068281L
L0L
(lp3671
(lp3672
tp3673
a(L3021737L
L0L
(lp3674
(lp3675
tp3676
a(L4238347245L
L0L
(lp3677
(lp3678
tp3679
a(L3969617880L
L3785322319L
(lp3680
(lp3681
Vindex_to_partition
p3682
atp3683
a(L889780906L
L3785322319L
(lp3684
(lp3685
Vcheck_anti_rollback
p3686
atp3687
a(L1255570883L
L3785322319L
(lp3688
(lp3689
Vtry_load_partition
p3690
atp3691
a(L2740298324L
L1880226080L
(lp3692
(lp3693
Vset_actual_ota_seq
p3694
aVload_image
p3695
atp3696
a(L2162300612L
L3785322319L
(lp3697
(lp3698
Vlog_invalid_app_partition
p3699
atp3700
a(L3307283485L
L0L
(lp3701
(lp3702
tp3703
a(L1508906068L
L0L
(lp3704
(lp3705
tp3706
a(L2528911837L
L3785322319L
(lp3707
(lp3708
Vtry_load_partition
p3709
atp3710
a(L1948335271L
L1880226080L
(lp3711
(lp3712
Vesp_log_early_timestamp
p3713
aVload_image
p3714
atp3715
a(L2002950903L
L1880226080L
(lp3716
(lp3717
Vesp_log_early_timestamp
p3718
aVbootloader_reset
p3719
atp3720
atp3721
sI1074267884
(Vwdt_reset_cpu0_info_enable
p3722
(lp3723
(L4219338206L
L0L
(lp3724
(lp3725
tp3726
atp3727
sI1074240992
(Vindex_to_partition
p3728
(lp3729
(L4066096119L
L0L
(lp3730
(lp3731
tp3732
a(L937847257L
L0L
(lp3733
(lp3734
tp3735
a(L2808906342L
L0L
(lp3736
(lp3737
tp3738
a(L1765918994L
L0L
(lp3739
(lp3740
tp3741
a(L2808826781L
L0L
(lp3742
(lp3743
tp3744
a(L2911029954L
L0L
(lp3745
(lp3746
tp3747
a(L544791756L
L0L
(lp3748
(lp3749
tp3750
a(L1984670054L
L0L
(lp3751
(lp3752
tp3753
a(L3698927993L
L0L
(lp3754
(lp3755
tp3756
atp3757
sI1074239212
(Vlog_invalid_app_partition
p3758
(lp3759
(L3686132467L
L0L
(lp3760
(lp3761
tp3762
a(L3028464L
L0L
(lp3763
(lp3764
tp3765
a(L90812228L
L3785322319L
(lp3766
(lp3767
Vesp_log_early_timestamp
p3768
atp3769
a(L1504489145L
L3785322319L
(lp3770
(lp3771
Vesp_log_early_timestamp
p3772
atp3773
a(L444413052L
L3785322319L
(lp3774
(lp3775
Vesp_log_early_timestamp
p3776
atp3777
a(L3496950L
L0L
(lp3778
(lp3779
tp3780
atp3781
sI1074236140
(Vbootloader_read_flash_id
p3782
(lp3783
(L1815620575L
L3785322319L
(lp3784
(lp3785
Vexecute_flash_command
p3786
atp3787
atp3788
sI1074241772
(Vverify_checksum
p3789
(lp3790
(L2404488809L
L3785322319L
(lp3791
(lp3792
Vbootloader_flash_read
p3793
atp3794
a(L1157599656L
L3785322319L
(lp3795
(lp3796
Vesp_log_early_timestamp
p3797
atp3798
a(L3020204L
L0L
(lp3799
(lp3800
tp3801
a(L2547710365L
L3785322319L
(lp3802
(lp3803
Vbootloader_sha256_data
p3804
atp3805
a(L4124473353L
L0L
(lp3806
(lp3807
tp3808
a(L1223427414L
L0L
(lp3809
(lp3810
tp3811
a(L4270503677L
L0L
(lp3812
(lp3813
tp3814
a(L3360570486L
L0L
(lp3815
(lp3816
tp3817
atp3818
sI1074246124
(Vrtc_wdt_disable
p3819
(lp3820
(L1233433337L
L3785322319L
(lp3821
(lp3822
Vrtc_wdt_get_protect_status
p3823
atp3824
a(L3827921190L
L3785322319L
(lp3825
(lp3826
Vrtc_wdt_protect_off
p3827
atp3828
a(L3181629913L
L2485746240L
(lp3829
(lp3830
Vrtc_wdt_set_stage
p3831
aVrtc_wdt_set_stage
p3832
aVrtc_wdt_set_stage
p3833
aVrtc_wdt_set_stage
p3834
atp3835
a(L94425498L
L3785322319L
(lp3836
(lp3837
Vrtc_wdt_protect_on
p3838
atp3839
a(L3360570486L
L0L
(lp3840
(lp3841
tp3842
atp3843
sI1074247916
(Vrtc_clk_apb_freq_update
p3844
(lp3845
(L3791435330L
L0L
(lp3846
(lp3847
tp3848
atp3849
sI1074244072
(Vesp_rom_spiflash_erase_sector_internal
p3850
(lp3851
(L3143713660L
L0L
(lp3852
(lp3853
tp3854
a(L1961361637L
L3785322319L
(lp3855
(lp3856
Vesp_rom_spiflash_wait_idle
p3857
atp3858
a(L3755940711L
L0L
(lp3859
(lp3860
tp3861
a(L175395183L
L3785322319L
(lp3862
(lp3863
Vesp_rom_spiflash_wait_idle
p3864
atp3865
a(L2258688483L
L0L
(lp3866
(lp3867
tp3868
a(L3360570486L
L0L
(lp3869
(lp3870
tp3871
atp3872
sI1074237928
(Vbootloader_munmap
p3873
(lp3874
(L980128336L
L0L
(lp3875
(lp3876
tp3877
a(L1938740746L
L0L
(lp3878
(lp3879
tp3880
a(L3360570486L
L0L
(lp3881
(lp3882
tp3883
atp3884
sI1074246900
(Vrtc_clk_8md256_enabled
p3885
(lp3886
(L619852148L
L0L
(lp3887
(lp3888
tp3889
atp3890
sI1074268156
(Vprint_flash_info
p3891
(lp3892
(L2711731451L
L0L
(lp3893
(lp3894
tp3895
a(L608600031L
L0L
(lp3896
(lp3897
tp3898
a(L3020187L
L0L
(lp3899
(lp3900
tp3901
a(L225150647L
L0L
(lp3902
(lp3903
tp3904
a(L460429684L
L0L
(lp3905
(lp3906
tp3907
a(L460429560L
L0L
(lp3908
(lp3909
tp3910
a(L460430397L
L0L
(lp3911
(lp3912
tp3913
a(L460429684L
L0L
(lp3914
(lp3915
tp3916
a(L3201441249L
L0L
(lp3917
(lp3918
tp3919
a(L1848995258L
L3785322319L
(lp3920
(lp3921
Vesp_log_early_timestamp
p3922
atp3923
a(L3017366L
L0L
(lp3924
(lp3925
tp3926
a(L3017366L
L0L
(lp3927
(lp3928
tp3929
a(L3017366L
L0L
(lp3930
(lp3931
tp3932
a(L3016870L
L0L
(lp3933
(lp3934
tp3935
a(L460431606L
L0L
(lp3936
(lp3937
tp3938
a(L460430521L
L0L
(lp3939
(lp3940
tp3941
a(L460430645L
L0L
(lp3942
(lp3943
tp3944
a(L460431482L
L0L
(lp3945
(lp3946
tp3947
a(L460431358L
L0L
(lp3948
(lp3949
tp3950
a(L3201441280L
L0L
(lp3951
(lp3952
tp3953
a(L17431379L
L3785322319L
(lp3954
(lp3955
Vesp_log_early_timestamp
p3956
atp3957
a(L937550364L
L0L
(lp3958
(lp3959
tp3960
a(L703425374L
L0L
(lp3961
(lp3962
tp3963
a(L3185200879L
L3785322319L
(lp3964
(lp3965
Vesp_log_early_timestamp
p3966
atp3967
atp3968
sI1074248432
(Vrtc_clk_apb_freq_get
p3969
(lp3970
(L3667312403L
L0L
(lp3971
(lp3972
tp3973
atp3974
sI1074268400
(Vuart_console_configure
p3975
(lp3976
(L3427826548L
L0L
(lp3977
(lp3978
tp3979
a(L2092736903L
L0L
(lp3980
(lp3981
tp3982
a(L4185365725L
L3785322319L
(lp3983
(lp3984
Vrtc_clk_apb_freq_get
p3985
atp3986
atp3987
sI1074243580
(Vbootloader_load_image
p3988
(lp3989
(L267004326L
L3785322319L
(lp3990
(lp3991
Vimage_load
p3992
atp3993
atp3994
sI1074239484
(Vset_actual_ota_seq
p3995
(lp3996
(L4094723830L
L0L
(lp3997
(lp3998
tp3999
a(L560452690L
L0L
(lp4000
(lp4001
tp4002
a(L2457209721L
L3785322319L
(lp4003
(lp4004
Vbootloader_common_ota_select_crc
p4005
atp4006
a(L3016870L
L0L
(lp4007
(lp4008
tp4009
a(L2175534482L
L0L
(lp4010
(lp4011
tp4012
a(L1139269215L
L0L
(lp4013
(lp4014
tp4015
a(L3028481L
L0L
(lp4016
(lp4017
tp4018
a(L2996572586L
L1880226080L
(lp4019
(lp4020
Vwrite_otadata
p4021
aVesp_log_early_timestamp
p4022
atp4023
a(L3360570486L
L0L
(lp4024
(lp4025
tp4026
atp4027
sI1074237692
(Vbootloader_flash_read_no_decrypt
p4028
(lp4029
(L581569905L
L1880226080L
(lp4030
(lp4031
Vesp_rom_spiflash_read
p4032
aVspi_to_esp_err
p4033
atp4034
atp4035
sI1074246652
(Vrtc_clk_32k_enable
p4036
(lp4037
(L753387299L
L0L
(lp4038
(lp4039
tp4040
a(L958782923L
L3785322319L
(lp4041
(lp4042
Vrtc_clk_32k_enable_common
p4043
atp4044
a(L3528263542L
L0L
(lp4045
(lp4046
tp4047
a(L3360570486L
L0L
(lp4048
(lp4049
tp4050
atp4051
ssS'functionsdups'
p4052
g11
((lp4053
tp4054
Rp4055
sS'immediatedups'
p4056
g11
((lp4057
tp4058
Rp4059
sS'functiondups'
p4060
g11
((lp4061
tp4062
Rp4063
sS'fuzzy'
p4064
(dp4065
L1536L
I1074240696
sL3718826409L
I1074236236
sL4061702297L
I1074244020
sL430153639L
I1074242364
sL1655084846L
I1074244664
sL4289748025L
I1074237744
sL45806640L
I1074241620
sL2479661889L
I1074246124
sL3538491111L
I1074247944
sL3669996080L
I1074237204
sL4155208228L
I1074239300
sL1370598945L
I1074240088
sL2661072904L
I1074240740
sL2281838360L
I1074240456
sL1845968921L
I1074237532
sL2834878951L
I1074237984
sL313524880L
I1074238128
sL1205197046L
I1074239484
sL3110146889L
I1074239872
sL3802805760L
I1074241076
sL4031437920L
I1074244072
sL1014503250L
I1074244364
sL3270437317L
I1074236380
sL4059437021L
I1074248340
sL1338770016L
I1074241224
sL1892234469L
I1074244424
sL2914853138L
I1074236988
sL3803452955L
I1074243596
sL4103879596L
I1074242440
sL3249905159L
I1074241772
sL2738222727L
I1074247712
sL4134193241L
I1074242252
sL275633497L
I1074269048
sL3697242601L
I1074244988
sL2819663145L
I1074247612
sL2874826336L
I1074235576
sL2662108055L
I1074237028
sL1634949710L
I1074244768
sL1383394121L
I1074270352
sL3948451046L
I1074241396
sL2935879234L
I1074236184
sL512571597L
I1074267828
sL3504571296L
I1074242916
sL578413630L
I1074241920
sL3210669721L
I1074246652
sL533883930L
I1074268456
sL2281126695L
I1074244136
sL4160102055L
I1074269016
sL1768086576L
I1074234824
sL545460565L
I1074267780
sL1107446613L
I1074239212
sL3476065511L
I1074269572
sL562412638L
I1074267924
sL2033964903L
I1074247016
sL3703834906L
I1074269396
sL1381401481L
I1074239428
sL3708199143L
I1074247120
sL530701251L
I1074242056
sL3380377753L
I1074245080
sL1179079586L
I1074248080
sL1178348887L
I1074236824
sL2020016265L
I1074241668
sL4065942187L
I1074268156
sL4155364446L
I1074237072
sL3883282432L
I1074236696
sL3271076352L
I1074245928
sL3897638057L
I1074268400
sL64292014L
I1074239596
sL2605918760L
I1074268720
ssb.