ccopy_reg
_reconstructor
p0
(crizzo
RizzoSignature
p1
c__builtin__
object
p2
Ntp3
Rp4
(dp5
S'formal'
p6
(dp7
sS'immediates'
p8
(dp9
sS'formaldups'
p10
c__builtin__
set
p11
((lp12
tp13
Rp14
sS'stringdups'
p15
g11
((lp16
tp17
Rp18
sS'fuzzydups'
p19
g11
((lp20
tp21
Rp22
sS'strings'
p23
(dp24
sS'functions'
p25
(dp26
sS'functionsdups'
p27
g11
((lp28
tp29
Rp30
sS'immediatedups'
p31
g11
((lp32
tp33
Rp34
sS'functiondups'
p35
g11
((lp36
tp37
Rp38
sS'fuzzy'
p39
(dp40
sb.