ccopy_reg
_reconstructor
p0
(crizzo
RizzoSignature
p1
c__builtin__
object
p2
Ntp3
Rp4
(dp5
S'formal'
p6
(dp7
L4253230215L
I1074234712
sL1741170115L
I1074238288
sL651494617L
I1074241772
sL564994493L
I1074244364
sL3327636805L
I1074267780
sL4272876733L
I1074236380
sL3543492902L
I1074245080
sL2543156614L
I1074267884
sL1433108606L
I1074242228
sL2425276312L
I1074236236
sL2051989078L
I1074241668
sL3395577470L
I1074267924
sL2245790663L
I1074237532
sL943470375L
I1074244664
sL1638059395L
I1074246716
sL2549823962L
I1074247592
sL1556689645L
I1074234824
sL1244297743L
I1074247924
sL3754618604L
I1074245768
sL3911498499L
I1074243920
sL1144063518L
I1074268400
sL964264523L
I1074242440
sL4039828222L
I1074270352
sL870892253L
I1074237384
sL1937763397L
I1074270852
sL3939356145L
I1074236988
sL2048143144L
I1074246124
sL221071471L
I1074240740
sL1584370986L
I1074238424
sL264225530L
I1074246652
sL604485967L
I1074241076
sL2281586612L
I1074243596
sL3754837380L
I1074244768
sL2520223867L
I1074242364
sL2806906626L
I1074239428
sL1069708435L
I1074270280
sL2374084562L
I1074237028
sL645864231L
I1074269048
sL1048494884L
I1074244424
sL595232544L
I1074237744
sL1456331926L
I1074236116
sL2662742250L
I1074237124
sL1823824616L
I1074238896
sL2446872711L
I1074248400
sL3757311638L
I1074240456
sL992237383L
I1074242252
sL3118159293L
I1074245828
sL514405571L
I1074240056
sL3253534592L
I1074239300
sL1707586218L
I1074236140
sL1052587987L
I1074245928
sL978028857L
I1074246484
sL1923947L
I1074268720
sL233631383L
I1074244988
sL252091513L
I1074237204
sL580185323L
I1074242056
sL1392851578L
I1074247852
sL2050076851L
I1074246872
sL1381886942L
I1074246900
sL3764424168L
I1074245752
sL2779950395L
I1074241224
sL4024787567L
I1074237348
sL3546902755L
I1074245784
sL1260279956L
I1074246548
sL2866214747L
I1074235400
sL3131778085L
I1074236824
sL1024457600L
I1074237496
sL3621118016L
I1074241396
sL4134720228L
I1074241920
sL3312859105L
I1074237928
sL1954253036L
I1074248220
sL1448049363L
I1074270064
sL1761045352L
I1074246232
sL891223743L
I1074245724
sL565127432L
I1074240992
sL1830483376L
I1074248308
sL3599684131L
I1074235576
sL662330837L
I1074246928
sL4238621974L
I1074268156
sL2782795882L
I1074236680
sL3909269172L
I1074237692
sL1868338154L
I1074267752
sL3868619310L
I1074247536
sL3199926275L
I1074268456
sL2622718953L
I1074238128
sL2221692368L
I1074236968
sL3295139034L
I1074239484
sL2548189023L
I1074242916
sL3697823959L
I1074269396
sL1177040105L
I1074247060
sL1177456623L
I1074247120
sL3761427958L
I1074240088
sL3035638838L
I1074236696
sL3993140164L
I1074247000
sL3228102574L
I1074247016
sL2432257846L
I1074243580
sL2038922327L
I1074240696
sL2979064644L
I1074237072
sL3815517881L
I1074236184
sL1979018272L
I1074241620
sL3584618110L
I1074237984
sL1038455858L
I1074247692
sL2655988888L
I1074269352
sL2263182908L
I1074238308
sL3617452615L
I1074246348
sL573391862L
I1074247896
sL2972008954L
I1074239872
sL4030023636L
I1074269016
sL489309134L
I1074241068
sL1570662522L
I1074244136
sL1318135924L
I1074239596
sL2643594359L
I1074239648
sL3046473586L
I1074238316
sL109878119L
I1074236788
sL2460777799L
I1074247104
sL3880901821L
I1074268620
sL1262975670L
I1074244020
sL2184682692L
I1074248060
sL4108636432L
I1074270820
sL2927255439L
I1074239212
sL757619933L
I1074244072
sL240369573L
I1074234692
sL3745020111L
I1074267828
sL3072815325L
I1074241204
sL2500922092L
I1074269572
ssS'immediates'
p8
(dp9
sS'formaldups'
p10
c__builtin__
set
p11
((lp12
tp13
Rp14
sS'stringdups'
p15
g11
((lp16
tp17
Rp18
sS'fuzzydups'
p19
g11
((lp20
tp21
Rp22
sS'strings'
p23
(dp24
sS'functions'
p25
(dp26
I1074243596
(Vesp_partition_table_verify
p27
(lp28
(L1363364359L
L0L
(lp29
(lp30
tp31
a(L1222487886L
L0L
(lp32
(lp33
tp34
a(L2937657136L
L0L
(lp35
(lp36
tp37
a(L2865039366L
L0L
(lp38
(lp39
tp40
a(L106L
L0L
(lp41
(lp42
tp43
a(L484089803L
L0L
(lp44
(lp45
tp46
a(L652372861L
L3785322319L
(lp47
(lp48
Vesp_log_early_timestamp
p49
atp50
a(L1235012963L
L0L
(lp51
(lp52
tp53
a(L3426029469L
L0L
(lp54
(lp55
tp56
a(L2902417580L
L0L
(lp57
(lp58
tp59
a(L2579271819L
L0L
(lp60
(lp61
tp62
a(L3812131991L
L3785322319L
(lp63
(lp64
Vesp_log_early_timestamp
p65
atp66
a(L1876049735L
L0L
(lp67
(lp68
tp69
a(L2579271819L
L0L
(lp70
(lp71
tp72
a(L3544104979L
L3785322319L
(lp73
(lp74
Vesp_log_early_timestamp
p75
atp76
a(L1610443436L
L0L
(lp77
(lp78
tp79
a(L1235012932L
L0L
(lp80
(lp81
tp82
a(L3720018517L
L0L
(lp83
(lp84
tp85
a(L1682246360L
L0L
(lp86
(lp87
tp88
a(L2579271819L
L0L
(lp89
(lp90
tp91
a(L4037113401L
L3785322319L
(lp92
(lp93
Vesp_log_early_timestamp
p94
atp95
a(L1235012932L
L0L
(lp96
(lp97
tp98
a(L1799288861L
L0L
(lp99
(lp100
tp101
a(L902240557L
L0L
(lp102
(lp103
tp104
a(L106L
L0L
(lp105
(lp106
tp107
a(L484089803L
L0L
(lp108
(lp109
tp110
a(L605163114L
L3785322319L
(lp111
(lp112
Vesp_log_early_timestamp
p113
atp114
a(L2810785766L
L0L
(lp115
(lp116
tp117
a(L3360570486L
L0L
(lp118
(lp119
tp120
atp121
sI1074244364
(Vesp_rom_spiflash_enable_write
p122
(lp123
(L2891642681L
L3785322319L
(lp124
(lp125
Vesp_rom_spiflash_wait_idle
p126
atp127
a(L2576859681L
L0L
(lp128
(lp129
tp130
a(L106L
L0L
(lp131
(lp132
tp133
a(L1337065440L
L3785322319L
(lp134
(lp135
Vesp_rom_spiflash_read_status
p136
atp137
a(L1253527241L
L0L
(lp138
(lp139
tp140
a(L2993202392L
L0L
(lp141
(lp142
tp143
atp144
sI1074247692
(Vrtc_clk_cpu_freq_get_config
p145
(lp146
(L405242576L
L0L
(lp147
(lp148
tp149
a(L2902417580L
L0L
(lp150
(lp151
tp152
a(L3020187L
L0L
(lp153
(lp154
tp155
a(L106L
L0L
(lp156
(lp157
tp158
a(L1032874007L
L3785322319L
(lp159
(lp160
Vrtc_clk_xtal_freq_get
p161
atp162
a(L1031411839L
L0L
(lp163
(lp164
tp165
a(L3020187L
L0L
(lp166
(lp167
tp168
a(L3020187L
L0L
(lp169
(lp170
tp171
a(L1882579662L
L1880226080L
(lp172
(lp173
Vesp_log_early_timestamp
p174
aVabort
p175
atp176
a(L1882579662L
L1880226080L
(lp177
(lp178
Vesp_log_early_timestamp
p179
aVabort
p180
atp181
a(L2637615626L
L0L
(lp182
(lp183
tp184
a(L2816701179L
L0L
(lp185
(lp186
tp187
a(L883419018L
L0L
(lp188
(lp189
tp190
a(L791693831L
L0L
(lp191
(lp192
tp193
a(L2032620637L
L0L
(lp194
(lp195
tp196
atp197
sI1074242056
(Vprocess_segment_data
p198
(lp199
(L3236683529L
L3785322319L
(lp200
(lp201
Vbootloader_mmap
p202
atp203
a(L1026710243L
L3785322319L
(lp204
(lp205
Vesp_log_early_timestamp
p206
atp207
a(L3176013167L
L3785322319L
(lp208
(lp209
Vbootloader_fill_random
p210
atp211
a(L753682918L
L0L
(lp212
(lp213
tp214
a(L757377002L
L0L
(lp215
(lp216
tp217
a(L1299866312L
L0L
(lp218
(lp219
tp220
a(L2008416411L
L0L
(lp221
(lp222
tp223
a(L3016870L
L0L
(lp224
(lp225
tp226
a(L2901829634L
L0L
(lp227
(lp228
tp229
a(L512200428L
L0L
(lp230
(lp231
tp232
a(L731312119L
L0L
(lp233
(lp234
tp235
a(L2902417580L
L0L
(lp236
(lp237
tp238
a(L2505185480L
L0L
(lp239
(lp240
tp241
a(L3094078540L
L3785322319L
(lp242
(lp243
Vbootloader_sha256_data
p244
atp245
a(L1770629922L
L0L
(lp246
(lp247
tp248
a(L3896226538L
L0L
(lp249
(lp250
tp251
a(L74549926L
L3785322319L
(lp252
(lp253
Vbootloader_munmap
p254
atp255
a(L3360570486L
L0L
(lp256
(lp257
tp258
atp259
sI1074236680
(Vesp_cpu_in_ocd_debug_mode
p260
(lp261
(L881579880L
L0L
(lp262
(lp263
tp264
atp265
sI1074235400
(Vbootloader_flash_dummy_config
p266
(lp267
(L3640861900L
L0L
(lp268
(lp269
tp270
a(L3017366L
L0L
(lp271
(lp272
tp273
a(L3016870L
L0L
(lp274
(lp275
tp276
a(L2359764484L
L0L
(lp277
(lp278
tp279
a(L2568071894L
L0L
(lp280
(lp281
tp282
a(L1612290447L
L0L
(lp283
(lp284
tp285
a(L1612290447L
L0L
(lp286
(lp287
tp288
a(L1612290540L
L0L
(lp289
(lp290
tp291
a(L1298935362L
L0L
(lp292
(lp293
tp294
a(L2962820102L
L0L
(lp295
(lp296
tp297
a(L608600031L
L0L
(lp298
(lp299
tp300
a(L106L
L0L
(lp301
(lp302
tp303
a(L2336993863L
L0L
(lp304
(lp305
tp306
a(L4137832380L
L0L
(lp307
(lp308
tp309
a(L1880921373L
L0L
(lp310
(lp311
tp312
a(L1373344620L
L0L
(lp313
(lp314
tp315
a(L905084611L
L0L
(lp316
(lp317
tp318
atp319
sI1074237204
(Vbootloader_common_check_chip_validity
p320
(lp321
(L4112384119L
L0L
(lp322
(lp323
tp324
a(L286674125L
L3785322319L
(lp325
(lp326
Vesp_log_early_timestamp
p327
atp328
a(L1182901183L
L0L
(lp329
(lp330
tp331
a(L2344894839L
L3785322319L
(lp332
(lp333
Vbootloader_common_get_chip_revision
p334
atp335
a(L3030060795L
L3785322319L
(lp336
(lp337
Vesp_log_early_timestamp
p338
atp339
a(L97422L
L0L
(lp340
(lp341
tp342
a(L3287840219L
L3785322319L
(lp343
(lp344
Vesp_log_early_timestamp
p345
atp346
a(L4136876117L
L0L
(lp347
(lp348
tp349
a(L4151320241L
L0L
(lp350
(lp351
tp352
a(L1621868829L
L0L
(lp353
(lp354
tp355
a(L464010095L
L0L
(lp356
(lp357
tp358
atp359
sI1074246928
(Vrtc_clk_slow_freq_set
p360
(lp361
(L1497633467L
L0L
(lp362
(lp363
tp364
a(L1235012839L
L0L
(lp365
(lp366
tp367
a(L2258688482L
L0L
(lp368
(lp369
tp370
a(L4182824140L
L0L
(lp371
(lp372
tp373
atp374
sI1074248220
(Vrtc_clk_cpu_freq_to_8m
p375
(lp376
(L3803185541L
L3785322319L
(lp377
(lp378
Vrtc_clk_apb_freq_update
p379
atp380
atp381
sI1074267924
(Vwdt_reset_info_dump
p382
(lp383
(L1642351636L
L0L
(lp384
(lp385
tp386
a(L460425251L
L0L
(lp387
(lp388
tp389
a(L3201441020L
L0L
(lp390
(lp391
tp392
a(L3028481L
L0L
(lp393
(lp394
tp395
a(L3486670486L
L0L
(lp396
(lp397
tp398
a(L4041715166L
L0L
(lp399
(lp400
tp401
a(L2307613036L
L0L
(lp402
(lp403
tp404
a(L1550379252L
L0L
(lp405
(lp406
tp407
a(L1243497843L
L3785322319L
(lp408
(lp409
Vesp_log_early_timestamp
p410
atp411
a(L3007616451L
L3785322319L
(lp412
(lp413
Vesp_log_early_timestamp
p414
atp415
a(L3360570486L
L0L
(lp416
(lp417
tp418
atp419
sI1074236696
(Vis_xmc_chip_strict
p420
(lp421
(L3238746245L
L0L
(lp422
(lp423
tp424
a(L3028464L
L0L
(lp425
(lp426
tp427
a(L1879955864L
L0L
(lp428
(lp429
tp430
a(L1299866312L
L0L
(lp431
(lp432
tp433
a(L209024199L
L0L
(lp434
(lp435
tp436
a(L4093075049L
L0L
(lp437
(lp438
tp439
a(L1299866312L
L0L
(lp440
(lp441
tp442
a(L209917929L
L0L
(lp443
(lp444
tp445
a(L245016591L
L0L
(lp446
(lp447
tp448
a(L1299866312L
L0L
(lp449
(lp450
tp451
a(L1299866312L
L0L
(lp452
(lp453
tp454
a(L1299866343L
L0L
(lp455
(lp456
tp457
a(L1299866343L
L0L
(lp458
(lp459
tp460
a(L1299866312L
L0L
(lp461
(lp462
tp463
a(L2258688483L
L0L
(lp464
(lp465
tp466
a(L3360570486L
L0L
(lp467
(lp468
tp469
atp470
sI1074236184
(Vbootloader_flash_read_sfdp
p471
(lp472
(L1494883415L
L0L
(lp473
(lp474
tp475
a(L1071917914L
L3785322319L
(lp476
(lp477
V__assert_func
p478
atp479
a(L486614504L
L3785322319L
(lp480
(lp481
Vbootloader_flash_execute_command_common
p482
atp483
atp484
sI1074268456
(Vwdt_reset_check
p485
(lp486
(L1474067986L
L0L
(lp487
(lp488
tp489
a(L3020187L
L0L
(lp490
(lp491
tp492
a(L367582592L
L0L
(lp493
(lp494
tp495
a(L367642441L
L0L
(lp496
(lp497
tp498
a(L4264009122L
L3785322319L
(lp499
(lp500
Vesp_log_early_timestamp
p501
atp502
a(L1298905564L
L0L
(lp503
(lp504
tp505
a(L2986794716L
L0L
(lp506
(lp507
tp508
a(L3020187L
L0L
(lp509
(lp510
tp511
a(L225031483L
L0L
(lp512
(lp513
tp514
a(L225091332L
L0L
(lp515
(lp516
tp517
a(L3965368819L
L3785322319L
(lp518
(lp519
Vesp_log_early_timestamp
p520
atp521
a(L3020204L
L0L
(lp522
(lp523
tp524
a(L1944713791L
L1880226080L
(lp525
(lp526
Vwdt_reset_info_dump
p527
aVwdt_reset_info_dump
p528
atp529
a(L3738038928L
L3785322319L
(lp530
(lp531
Vwdt_reset_cpu0_info_enable
p532
atp533
atp534
sI1074237984
(Vbootloader_flash_read
p535
(lp536
(L1127605422L
L0L
(lp537
(lp538
tp539
a(L2085875711L
L3785322319L
(lp540
(lp541
Vesp_log_early_timestamp
p542
atp543
a(L899934477L
L0L
(lp544
(lp545
tp546
a(L1537381885L
L3785322319L
(lp547
(lp548
Vesp_log_early_timestamp
p549
atp550
a(L2696885836L
L0L
(lp551
(lp552
tp553
a(L628528440L
L3785322319L
(lp554
(lp555
Vesp_log_early_timestamp
p556
atp557
a(L3020204L
L0L
(lp558
(lp559
tp560
a(L3107770098L
L3785322319L
(lp561
(lp562
Vbootloader_flash_read_allow_decrypt
p563
atp564
a(L2175061880L
L3785322319L
(lp565
(lp566
Vbootloader_flash_read_no_decrypt
p567
atp568
a(L3360570486L
L0L
(lp569
(lp570
tp571
atp572
sI1074241068
(Vcheck_anti_rollback
p573
(lp574
(L786711473L
L0L
(lp575
(lp576
tp577
atp578
sI1074236968
(Vbootloader_common_ota_select_crc
p579
(lp580
(L1467561936L
L0L
(lp581
(lp582
tp583
atp584
sI1074244136
(Vesp_rom_spiflash_read_data
p585
(lp586
(L4122033220L
L0L
(lp587
(lp588
tp589
a(L106L
L0L
(lp590
(lp591
tp592
a(L2070875117L
L3785322319L
(lp593
(lp594
Vesp_rom_spiflash_wait_idle
p595
atp596
a(L2761836345L
L0L
(lp597
(lp598
tp599
a(L1878898240L
L0L
(lp600
(lp601
tp602
a(L2576859681L
L0L
(lp603
(lp604
tp605
a(L106L
L0L
(lp606
(lp607
tp608
a(L2461641154L
L0L
(lp609
(lp610
tp611
a(L256664550L
L0L
(lp612
(lp613
tp614
a(L663200857L
L0L
(lp615
(lp616
tp617
a(L4205509696L
L0L
(lp618
(lp619
tp620
a(L2576859681L
L0L
(lp621
(lp622
tp623
a(L1263158627L
L0L
(lp624
(lp625
tp626
a(L131455463L
L0L
(lp627
(lp628
tp629
a(L3922957135L
L0L
(lp630
(lp631
tp632
a(L1305407438L
L0L
(lp633
(lp634
tp635
a(L2461641154L
L0L
(lp636
(lp637
tp638
a(L3027019L
L0L
(lp639
(lp640
tp641
a(L2258777855L
L0L
(lp642
(lp643
tp644
a(L3027007L
L0L
(lp645
(lp646
tp647
a(L106L
L0L
(lp648
(lp649
tp650
a(L1299866312L
L0L
(lp651
(lp652
tp653
a(L2258688483L
L0L
(lp654
(lp655
tp656
a(L3360570486L
L0L
(lp657
(lp658
tp659
atp660
sI1074245928
(Vrtc_wdt_set_stage
p661
(lp662
(L1890082815L
L0L
(lp663
(lp664
tp665
a(L1182990556L
L0L
(lp666
(lp667
tp668
a(L1158671683L
L0L
(lp669
(lp670
tp671
a(L1183020347L
L0L
(lp672
(lp673
tp674
a(L1745934199L
L0L
(lp675
(lp676
tp677
a(L2910371777L
L0L
(lp678
(lp679
tp680
a(L129786841L
L0L
(lp681
(lp682
tp683
a(L3028464L
L0L
(lp684
(lp685
tp686
a(L415323575L
L0L
(lp687
(lp688
tp689
a(L3028464L
L0L
(lp690
(lp691
tp692
a(L259703259L
L0L
(lp693
(lp694
tp695
a(L699418991L
L0L
(lp696
(lp697
tp698
a(L2810785765L
L0L
(lp699
(lp700
tp701
a(L3360570486L
L0L
(lp702
(lp703
tp704
atp705
sI1074241076
(Vbootloader_sha256_hex_to_str
p706
(lp707
(L801955396L
L0L
(lp708
(lp709
tp710
a(L97422L
L0L
(lp711
(lp712
tp713
a(L106L
L0L
(lp714
(lp715
tp716
a(L201281358L
L0L
(lp717
(lp718
tp719
a(L1611366926L
L0L
(lp720
(lp721
tp722
a(L1298905568L
L0L
(lp723
(lp724
tp725
a(L1295154486L
L0L
(lp726
(lp727
tp728
a(L435009006L
L0L
(lp729
(lp730
tp731
a(L3378846871L
L0L
(lp732
(lp733
tp734
a(L978975865L
L0L
(lp735
(lp736
tp737
a(L2258897019L
L0L
(lp738
(lp739
tp740
a(L3027007L
L0L
(lp741
(lp742
tp743
a(L4126803969L
L0L
(lp744
(lp745
tp746
a(L448827677L
L0L
(lp747
(lp748
tp749
a(L1299866312L
L0L
(lp750
(lp751
tp752
a(L1235012901L
L0L
(lp753
(lp754
tp755
a(L2810785765L
L0L
(lp756
(lp757
tp758
a(L3360570486L
L0L
(lp759
(lp760
tp761
atp762
sI1074237744
(Vbootloader_mmap
p763
(lp764
(L2594163932L
L0L
(lp765
(lp766
tp767
a(L3651522543L
L3785322319L
(lp768
(lp769
Vesp_log_early_timestamp
p770
atp771
a(L198936494L
L0L
(lp772
(lp773
tp774
a(L2359481093L
L3785322319L
(lp775
(lp776
Vesp_log_early_timestamp
p777
atp778
a(L1859133887L
L0L
(lp779
(lp780
tp781
a(L1749171692L
L3785322319L
(lp782
(lp783
Vesp_log_early_timestamp
p784
atp785
a(L2329745047L
L0L
(lp786
(lp787
tp788
a(L3360570486L
L0L
(lp789
(lp790
tp791
atp792
sI1074268720
(Vbootloader_main
p793
(lp794
(L3624327952L
L1832448559L
(lp795
(lp796
Vbootloader_common_vddsdio_configure
p797
aVbootloader_read_flash_id
p798
aVbootloader_flash_xmc_startup
p799
atp800
a(L3700165319L
L3785322319L
(lp801
(lp802
Vesp_log_early_timestamp
p803
atp804
a(L2463179889L
L3785322319L
(lp805
(lp806
Vbootloader_flash_read
p807
atp808
a(L1663730364L
L3785322319L
(lp809
(lp810
Vesp_log_early_timestamp
p811
atp812
a(L3191571389L
L1832448559L
(lp813
(lp814
Vbootloader_common_get_chip_revision
p815
aVesp_log_early_timestamp
p816
aVbootloader_common_check_chip_validity
p817
atp818
a(L3592265678L
L2794580271L
(lp819
(lp820
Vbootloader_init_flash_configure
p821
aVbootloader_clock_configure
p822
aVuart_console_configure
p823
aVwdt_reset_check
p824
aVesp_log_early_timestamp
p825
aVesp_log_early_timestamp
p826
aVrtc_wdt_protect_off
p827
aVrtc_wdt_disable
p828
aVrtc_wdt_set_length_of_reset_signal
p829
aVrtc_wdt_set_length_of_reset_signal
p830
aVrtc_wdt_set_stage
p831
aVrtc_wdt_set_time
p832
aVrtc_wdt_enable
p833
aVrtc_wdt_protect_on
p834
aVbootloader_flash_unlock
p835
aVesp_log_early_timestamp
p836
aVbootloader_random_enable
p837
aVprint_flash_info
p838
aVupdate_flash_config
p839
atp840
a(L1299867982L
L0L
(lp841
(lp842
tp843
a(L3360570486L
L0L
(lp844
(lp845
tp846
atp847
sI1074236988
(Vbootloader_common_ota_select_valid
p848
(lp849
(L1731214134L
L3785322319L
(lp850
(lp851
Vbootloader_common_ota_select_invalid
p852
atp853
a(L668323607L
L3785322319L
(lp854
(lp855
Vbootloader_common_ota_select_crc
p856
atp857
a(L1299866343L
L0L
(lp858
(lp859
tp860
a(L1299866312L
L0L
(lp861
(lp862
tp863
a(L2258688482L
L0L
(lp864
(lp865
tp866
a(L3360570486L
L0L
(lp867
(lp868
tp869
atp870
sI1074242364
(Vshould_load
p871
(lp872
(L370931439L
L3785322319L
(lp873
(lp874
Vshould_map
p875
atp876
a(L1121477954L
L0L
(lp877
(lp878
tp879
a(L3028464L
L0L
(lp880
(lp881
tp882
a(L4095578819L
L0L
(lp883
(lp884
tp885
a(L202508550L
L0L
(lp886
(lp887
tp888
a(L3882931814L
L0L
(lp889
(lp890
tp891
a(L1610443436L
L0L
(lp892
(lp893
tp894
a(L1610443405L
L0L
(lp895
(lp896
tp897
a(L1298875774L
L0L
(lp898
(lp899
tp900
a(L735741265L
L0L
(lp901
(lp902
tp903
atp904
sI1074246716
(Vrtc_clk_8m_enable
p905
(lp906
(L1474360438L
L0L
(lp907
(lp908
tp909
a(L477649986L
L0L
(lp910
(lp911
tp912
a(L3936664466L
L0L
(lp913
(lp914
tp915
a(L883777310L
L0L
(lp916
(lp917
tp918
a(L3227012120L
L0L
(lp919
(lp920
tp921
a(L3073463967L
L0L
(lp922
(lp923
tp924
a(L3360570486L
L0L
(lp925
(lp926
tp927
atp928
sI1074240056
(Vload_image
p929
(lp930
(L1261593556L
L1832448559L
(lp931
(lp932
Vesp_log_early_timestamp
p933
aVbootloader_random_disable
p934
aVunpack_load_app
p935
atp936
atp937
sI1074237496
(Vspi_to_esp_err
p938
(lp939
(L4037458691L
L0L
(lp940
(lp941
tp942
a(L2902417580L
L0L
(lp943
(lp944
tp945
a(L3020187L
L0L
(lp946
(lp947
tp948
a(L1641201884L
L0L
(lp949
(lp950
tp951
a(L310012176L
L0L
(lp952
(lp953
tp954
a(L1299866312L
L0L
(lp955
(lp956
tp957
a(L702737030L
L0L
(lp958
(lp959
tp960
a(L3360570486L
L0L
(lp961
(lp962
tp963
atp964
sI1074244664
(Vesp_rom_spiflash_erase_sector
p965
(lp966
(L680826645L
L0L
(lp967
(lp968
tp969
a(L3445605341L
L3785322319L
(lp970
(lp971
Vesp_rom_spiflash_enable_write
p972
atp973
a(L1397887656L
L3785322319L
(lp974
(lp975
Vesp_rom_spiflash_erase_sector_internal
p976
atp977
a(L106L
L0L
(lp978
(lp979
tp980
a(L1299866343L
L0L
(lp981
(lp982
tp983
a(L1299866343L
L0L
(lp984
(lp985
tp986
a(L2258688483L
L0L
(lp987
(lp988
tp989
a(L3360570486L
L0L
(lp990
(lp991
tp992
atp993
sI1074270280
(Vrtc_vddsdio_set_config
p994
(lp995
(L4165858497L
L0L
(lp996
(lp997
tp998
atp999
sI1074239300
(Vread_otadata
p1000
(lp1001
(L3233392553L
L0L
(lp1002
(lp1003
tp1004
a(L1425341776L
L0L
(lp1005
(lp1006
tp1007
a(L3366121590L
L3785322319L
(lp1008
(lp1009
Vesp_log_early_timestamp
p1010
atp1011
a(L566230772L
L3785322319L
(lp1012
(lp1013
Vbootloader_mmap
p1014
atp1015
a(L3641189915L
L3785322319L
(lp1016
(lp1017
Vesp_log_early_timestamp
p1018
atp1019
a(L3241021226L
L3785322319L
(lp1020
(lp1021
Vbootloader_munmap
p1022
atp1023
a(L2810785768L
L0L
(lp1024
(lp1025
tp1026
a(L3360570486L
L0L
(lp1027
(lp1028
tp1029
atp1030
sI1074234692
(Vbootloader_init_flash_configure
p1031
(lp1032
(L2326466312L
L1832448559L
(lp1033
(lp1034
Vbootloader_flash_gpio_config
p1035
aVbootloader_flash_dummy_config
p1036
aVbootloader_flash_cs_timing_config
p1037
atp1038
atp1039
sI1074236236
(Vbootloader_flash_xmc_startup
p1040
(lp1041
(L907480987L
L3785322319L
(lp1042
(lp1043
Vis_xmc_chip_strict
p1044
atp1045
a(L251913992L
L3785322319L
(lp1046
(lp1047
Vbootloader_flash_read_sfdp
p1048
atp1049
a(L2214543080L
L267944800L
(lp1050
(lp1051
Vexecute_flash_command
p1052
aVexecute_flash_command
p1053
aVexecute_flash_command
p1054
aVexecute_flash_command
p1055
aVbootloader_read_flash_id
p1056
aVis_xmc_chip_strict
p1057
atp1058
a(L1391924622L
L3785322319L
(lp1059
(lp1060
Vesp_log_early_timestamp
p1061
atp1062
a(L1299866312L
L0L
(lp1063
(lp1064
tp1065
a(L1299866312L
L0L
(lp1066
(lp1067
tp1068
a(L2258688482L
L0L
(lp1069
(lp1070
tp1071
a(L3360570486L
L0L
(lp1072
(lp1073
tp1074
atp1075
sI1074244424
(Vesp_rom_spiflash_program_page_internal
p1076
(lp1077
(L2773322937L
L0L
(lp1078
(lp1079
tp1080
a(L3904186990L
L0L
(lp1081
(lp1082
tp1083
a(L106L
L0L
(lp1084
(lp1085
tp1086
a(L2070875117L
L3785322319L
(lp1087
(lp1088
Vesp_rom_spiflash_wait_idle
p1089
atp1090
a(L530241438L
L3785322319L
(lp1091
(lp1092
Vesp_rom_spiflash_enable_write
p1093
atp1094
a(L1499276535L
L0L
(lp1095
(lp1096
tp1097
a(L16696543L
L0L
(lp1098
(lp1099
tp1100
a(L1639067348L
L0L
(lp1101
(lp1102
tp1103
a(L93837694L
L0L
(lp1104
(lp1105
tp1106
a(L1943062613L
L0L
(lp1107
(lp1108
tp1109
a(L2250057226L
L0L
(lp1110
(lp1111
tp1112
a(L131455463L
L0L
(lp1113
(lp1114
tp1115
a(L3922957135L
L0L
(lp1116
(lp1117
tp1118
a(L1305407438L
L0L
(lp1119
(lp1120
tp1121
a(L1639067348L
L0L
(lp1122
(lp1123
tp1124
a(L3027019L
L0L
(lp1125
(lp1126
tp1127
a(L1243408381L
L0L
(lp1128
(lp1129
tp1130
a(L3410520693L
L0L
(lp1131
(lp1132
tp1133
a(L3083573665L
L0L
(lp1134
(lp1135
tp1136
a(L1452275741L
L3785322319L
(lp1137
(lp1138
Vesp_rom_spiflash_wait_idle
p1139
atp1140
a(L3027007L
L0L
(lp1141
(lp1142
tp1143
a(L106L
L0L
(lp1144
(lp1145
tp1146
a(L2307427848L
L0L
(lp1147
(lp1148
tp1149
a(L1299866343L
L0L
(lp1150
(lp1151
tp1152
a(L1299866343L
L0L
(lp1153
(lp1154
tp1155
a(L2258688483L
L0L
(lp1156
(lp1157
tp1158
a(L3360570486L
L0L
(lp1159
(lp1160
tp1161
atp1162
sI1074269016
(V__assert_func
p1163
(lp1164
(L2419638455L
L3785322319L
(lp1165
(lp1166
Vesp_log_early_timestamp
p1167
atp1168
a(L106L
L0L
(lp1169
(lp1170
tp1171
atp1172
sI1074241620
(Vshould_map
p1173
(lp1174
(L3937304407L
L0L
(lp1175
(lp1176
tp1177
a(L1182990556L
L0L
(lp1178
(lp1179
tp1180
a(L997119244L
L0L
(lp1181
(lp1182
tp1183
a(L1182990556L
L0L
(lp1184
(lp1185
tp1186
a(L1296420068L
L0L
(lp1187
(lp1188
tp1189
atp1190
sI1074246484
(Vrtc_clk_bbpll_disable
p1191
(lp1192
(L1090240395L
L0L
(lp1193
(lp1194
tp1195
a(L1085782834L
L0L
(lp1196
(lp1197
tp1198
a(L3360570486L
L0L
(lp1199
(lp1200
tp1201
atp1202
sI1074243920
(Vesp_rom_spiflash_read_status
p1203
(lp1204
(L1642541540L
L0L
(lp1205
(lp1206
tp1207
a(L106L
L0L
(lp1208
(lp1209
tp1210
a(L229604015L
L0L
(lp1211
(lp1212
tp1213
a(L2576859681L
L0L
(lp1214
(lp1215
tp1216
a(L772230251L
L0L
(lp1217
(lp1218
tp1219
a(L4159619641L
L0L
(lp1220
(lp1221
tp1222
a(L106L
L0L
(lp1223
(lp1224
tp1225
a(L3036114809L
L0L
(lp1226
(lp1227
tp1228
a(L4159619641L
L0L
(lp1229
(lp1230
tp1231
a(L2392720019L
L0L
(lp1232
(lp1233
tp1234
atp1235
sI1074238288
(Vbootloader_flash_erase_sector
p1236
(lp1237
(L4129137686L
L1880226080L
(lp1238
(lp1239
Vesp_rom_spiflash_erase_sector
p1240
aVspi_to_esp_err
p1241
atp1242
atp1243
sI1074237532
(Vbootloader_flash_read_allow_decrypt
p1244
(lp1245
(L3384426294L
L0L
(lp1246
(lp1247
tp1248
a(L1406929297L
L0L
(lp1249
(lp1250
tp1251
a(L315414249L
L0L
(lp1252
(lp1253
tp1254
a(L2247663932L
L3785322319L
(lp1255
(lp1256
Vesp_log_early_timestamp
p1257
atp1258
a(L2557888127L
L0L
(lp1259
(lp1260
tp1261
a(L3087968042L
L0L
(lp1262
(lp1263
tp1264
a(L2538932552L
L0L
(lp1265
(lp1266
tp1267
a(L106L
L0L
(lp1268
(lp1269
tp1270
a(L2258688482L
L0L
(lp1271
(lp1272
tp1273
a(L3360570486L
L0L
(lp1274
(lp1275
tp1276
atp1277
sI1074245724
(Vrtc_wdt_get_protect_status
p1278
(lp1279
(L1851824600L
L0L
(lp1280
(lp1281
tp1282
atp1283
sI1074246232
(Vrtc_wdt_set_length_of_reset_signal
p1284
(lp1285
(L1890082815L
L0L
(lp1286
(lp1287
tp1288
a(L1182990556L
L0L
(lp1289
(lp1290
tp1291
a(L1158671683L
L0L
(lp1292
(lp1293
tp1294
a(L1183020347L
L0L
(lp1295
(lp1296
tp1297
a(L1745934199L
L0L
(lp1298
(lp1299
tp1300
a(L2910371777L
L0L
(lp1301
(lp1302
tp1303
a(L1476578517L
L0L
(lp1304
(lp1305
tp1306
a(L1752602062L
L0L
(lp1307
(lp1308
tp1309
a(L2810785765L
L0L
(lp1310
(lp1311
tp1312
a(L3360570486L
L0L
(lp1313
(lp1314
tp1315
atp1316
sI1074240088
(Vbootloader_utility_load_partition_table
p1317
(lp1318
(L2304595928L
L3785322319L
(lp1319
(lp1320
Vbootloader_mmap
p1321
atp1322
a(L440001179L
L3785322319L
(lp1323
(lp1324
Vesp_log_early_timestamp
p1325
atp1326
a(L2772313617L
L3785322319L
(lp1327
(lp1328
Vesp_partition_table_verify
p1329
atp1330
a(L3641489746L
L3785322319L
(lp1331
(lp1332
Vesp_log_early_timestamp
p1333
atp1334
a(L2379869612L
L1880226080L
(lp1335
(lp1336
Vesp_log_early_timestamp
p1337
aVesp_log_early_timestamp
p1338
atp1339
a(L1941612774L
L0L
(lp1340
(lp1341
tp1342
a(L3020187L
L0L
(lp1343
(lp1344
tp1345
a(L826379074L
L0L
(lp1346
(lp1347
tp1348
a(L3732412336L
L0L
(lp1349
(lp1350
tp1351
a(L3020187L
L0L
(lp1352
(lp1353
tp1354
a(L106L
L0L
(lp1355
(lp1356
tp1357
a(L58583904L
L0L
(lp1358
(lp1359
tp1360
a(L997275197L
L0L
(lp1361
(lp1362
tp1363
a(L2893469516L
L0L
(lp1364
(lp1365
tp1366
a(L976857509L
L0L
(lp1367
(lp1368
tp1369
a(L3999773648L
L0L
(lp1370
(lp1371
tp1372
a(L2051104840L
L0L
(lp1373
(lp1374
tp1375
a(L826379570L
L0L
(lp1376
(lp1377
tp1378
a(L826377276L
L0L
(lp1379
(lp1380
tp1381
a(L4082239981L
L3785322319L
(lp1382
(lp1383
Vesp_log_early_timestamp
p1384
atp1385
a(L846653465L
L0L
(lp1386
(lp1387
tp1388
a(L106L
L0L
(lp1389
(lp1390
tp1391
a(L111767836L
L1880226080L
(lp1392
(lp1393
Vbootloader_munmap
p1394
aVesp_log_early_timestamp
p1395
atp1396
a(L3360570486L
L0L
(lp1397
(lp1398
tp1399
atp1400
sI1074234712
(Vbootloader_flash_cs_timing_config
p1401
(lp1402
(L227725170L
L0L
(lp1403
(lp1404
tp1405
atp1406
sI1074247000
(Vrtc_clk_slow_freq_get
p1407
(lp1408
(L4240038829L
L0L
(lp1409
(lp1410
tp1411
atp1412
sI1074267752
(Vselected_boot_partition
p1413
(lp1414
(L2937841336L
L3785322319L
(lp1415
(lp1416
Vbootloader_utility_get_selected_boot_partition
p1417
atp1418
a(L2161672821L
L0L
(lp1419
(lp1420
tp1421
a(L3360570486L
L0L
(lp1422
(lp1423
tp1424
atp1425
sI1074238308
(Vbootloader_mmap_get_free_pages
p1426
(lp1427
(L1496516875L
L0L
(lp1428
(lp1429
tp1430
atp1431
sI1074237028
(Vbootloader_common_get_active_otadata
p1432
(lp1433
(L4066087859L
L0L
(lp1434
(lp1435
tp1436
a(L3619672798L
L1832448559L
(lp1437
(lp1438
Vbootloader_common_ota_select_valid
p1439
aVbootloader_common_ota_select_valid
p1440
aVbootloader_common_select_otadata
p1441
atp1442
a(L1299867982L
L0L
(lp1443
(lp1444
tp1445
a(L3360570486L
L0L
(lp1446
(lp1447
tp1448
atp1449
sI1074242916
(Vimage_load
p1450
(lp1451
(L915390607L
L0L
(lp1452
(lp1453
tp1454
a(L106L
L0L
(lp1455
(lp1456
tp1457
a(L820929425L
L0L
(lp1458
(lp1459
tp1460
a(L3020187L
L0L
(lp1461
(lp1462
tp1463
a(L4253456597L
L3785322319L
(lp1464
(lp1465
Vesp_log_early_timestamp
p1466
atp1467
a(L3896850786L
L0L
(lp1468
(lp1469
tp1470
a(L2136337617L
L3785322319L
(lp1471
(lp1472
Vbootloader_flash_read
p1473
atp1474
a(L4124473353L
L0L
(lp1475
(lp1476
tp1477
a(L2568992188L
L3785322319L
(lp1478
(lp1479
Vbootloader_sha256_start
p1480
atp1481
a(L623197325L
L3785322319L
(lp1482
(lp1483
Vbootloader_sha256_data
p1484
atp1485
a(L2258837437L
L0L
(lp1486
(lp1487
tp1488
a(L2658039957L
L3785322319L
(lp1489
(lp1490
Vverify_image_header
p1491
atp1492
a(L1980404654L
L0L
(lp1493
(lp1494
tp1495
a(L3028464L
L0L
(lp1496
(lp1497
tp1498
a(L106L
L0L
(lp1499
(lp1500
tp1501
a(L2100097797L
L3785322319L
(lp1502
(lp1503
Vesp_log_early_timestamp
p1504
atp1505
a(L2178537071L
L0L
(lp1506
(lp1507
tp1508
a(L1255687483L
L3785322319L
(lp1509
(lp1510
Vprocess_segment
p1511
atp1512
a(L1589625955L
L0L
(lp1513
(lp1514
tp1515
a(L2125973223L
L0L
(lp1516
(lp1517
tp1518
a(L2993473092L
L0L
(lp1519
(lp1520
tp1521
a(L3028464L
L0L
(lp1522
(lp1523
tp1524
a(L106L
L0L
(lp1525
(lp1526
tp1527
a(L2443216408L
L3785322319L
(lp1528
(lp1529
Vesp_log_early_timestamp
p1530
atp1531
a(L2638226786L
L3785322319L
(lp1532
(lp1533
Vesp_cpu_in_ocd_debug_mode
p1534
atp1535
a(L3100707227L
L3785322319L
(lp1536
(lp1537
Vverify_checksum
p1538
atp1539
a(L279608302L
L0L
(lp1540
(lp1541
tp1542
a(L3028464L
L0L
(lp1543
(lp1544
tp1545
a(L106L
L0L
(lp1546
(lp1547
tp1548
a(L3774139236L
L3785322319L
(lp1549
(lp1550
Vesp_log_early_timestamp
p1551
atp1552
a(L2074376433L
L0L
(lp1553
(lp1554
tp1555
a(L3020204L
L0L
(lp1556
(lp1557
tp1558
a(L3287840219L
L3785322319L
(lp1559
(lp1560
Vesp_cpu_in_ocd_debug_mode
p1561
atp1562
a(L3042111959L
L3785322319L
(lp1563
(lp1564
Vverify_simple_hash
p1565
atp1566
a(L3020204L
L0L
(lp1567
(lp1568
tp1569
a(L3688659868L
L3785322319L
(lp1570
(lp1571
Vbootloader_sha256_finish
p1572
atp1573
a(L3230798602L
L0L
(lp1574
(lp1575
tp1576
a(L84393073L
L3785322319L
(lp1577
(lp1578
Vbootloader_mmap
p1579
atp1580
a(L1461725474L
L3785322319L
(lp1581
(lp1582
Vbootloader_munmap
p1583
atp1584
a(L3028481L
L0L
(lp1585
(lp1586
tp1587
a(L3020187L
L0L
(lp1588
(lp1589
tp1590
a(L106L
L0L
(lp1591
(lp1592
tp1593
a(L106L
L0L
(lp1594
(lp1595
tp1596
a(L808845010L
L3785322319L
(lp1597
(lp1598
Vshould_load
p1599
atp1600
a(L3632402446L
L0L
(lp1601
(lp1602
tp1603
a(L4103406395L
L0L
(lp1604
(lp1605
tp1606
a(L4090611775L
L0L
(lp1607
(lp1608
tp1609
a(L4288375183L
L0L
(lp1610
(lp1611
tp1612
a(L3743228140L
L0L
(lp1613
(lp1614
tp1615
a(L1818239465L
L0L
(lp1616
(lp1617
tp1618
a(L1720234353L
L0L
(lp1619
(lp1620
tp1621
a(L3802069241L
L0L
(lp1622
(lp1623
tp1624
a(L2573310946L
L0L
(lp1625
(lp1626
tp1627
a(L106L
L0L
(lp1628
(lp1629
tp1630
a(L1304483917L
L0L
(lp1631
(lp1632
tp1633
a(L2258837437L
L0L
(lp1634
(lp1635
tp1636
a(L2902417580L
L0L
(lp1637
(lp1638
tp1639
a(L106L
L0L
(lp1640
(lp1641
tp1642
a(L1641201884L
L0L
(lp1643
(lp1644
tp1645
a(L702738956L
L0L
(lp1646
(lp1647
tp1648
a(L3020204L
L0L
(lp1649
(lp1650
tp1651
a(L3688659868L
L3785322319L
(lp1652
(lp1653
Vbootloader_sha256_finish
p1654
atp1655
a(L2075779526L
L0L
(lp1656
(lp1657
tp1658
a(L1235012901L
L0L
(lp1659
(lp1660
tp1661
a(L2810785764L
L0L
(lp1662
(lp1663
tp1664
a(L3360570486L
L0L
(lp1665
(lp1666
tp1667
atp1668
sI1074238316
(Vbootloader_fill_random
p1669
(lp1670
(L4037466985L
L0L
(lp1671
(lp1672
tp1673
a(L960226728L
L3785322319L
(lp1674
(lp1675
V__assert_func
p1676
atp1677
a(L3020204L
L0L
(lp1678
(lp1679
tp1680
a(L607245337L
L0L
(lp1681
(lp1682
tp1683
a(L789392429L
L0L
(lp1684
(lp1685
tp1686
a(L2889921384L
L0L
(lp1687
(lp1688
tp1689
a(L2435735273L
L0L
(lp1690
(lp1691
tp1692
a(L1298875773L
L0L
(lp1693
(lp1694
tp1695
a(L448827677L
L0L
(lp1696
(lp1697
tp1698
a(L3360570486L
L0L
(lp1699
(lp1700
tp1701
atp1702
sI1074239596
(Vtry_load_partition
p1703
(lp1704
(L3877261386L
L0L
(lp1705
(lp1706
tp1707
a(L2260359711L
L3785322319L
(lp1708
(lp1709
Vbootloader_load_image
p1710
atp1711
a(L4143673232L
L3785322319L
(lp1712
(lp1713
Vesp_log_early_timestamp
p1714
atp1715
a(L1299866312L
L0L
(lp1716
(lp1717
tp1718
a(L2258688482L
L0L
(lp1719
(lp1720
tp1721
a(L3360570486L
L0L
(lp1722
(lp1723
tp1724
atp1725
sI1074270820
(Vrtc_clk_cal_ratio
p1726
(lp1727
(L3583061729L
L3785322319L
(lp1728
(lp1729
Vrtc_clk_cal_internal
p1730
atp1731
atp1732
sI1074247016
(Vrtc_clk_slow_freq_get_hz
p1733
(lp1734
(L2601977293L
L3785322319L
(lp1735
(lp1736
Vrtc_clk_slow_freq_get
p1737
atp1738
a(L2902417580L
L0L
(lp1739
(lp1740
tp1741
a(L3020187L
L0L
(lp1742
(lp1743
tp1744
a(L1299866312L
L0L
(lp1745
(lp1746
tp1747
a(L310018283L
L0L
(lp1748
(lp1749
tp1750
a(L310151149L
L0L
(lp1751
(lp1752
tp1753
a(L702741529L
L0L
(lp1754
(lp1755
tp1756
a(L3360570486L
L0L
(lp1757
(lp1758
tp1759
atp1760
sI1074269048
(Vbootloader_init
p1761
(lp1762
(L2578592054L
L0L
(lp1763
(lp1764
tp1765
a(L581302695L
L0L
(lp1766
(lp1767
tp1768
a(L93837694L
L0L
(lp1769
(lp1770
tp1771
a(L2390524012L
L0L
(lp1772
(lp1773
tp1774
a(L156344622L
L3785322319L
(lp1775
(lp1776
V__assert_func
p1777
atp1778
a(L609682228L
L0L
(lp1779
(lp1780
tp1781
a(L830352338L
L3785322319L
(lp1782
(lp1783
V__assert_func
p1784
atp1785
a(L2579449770L
L0L
(lp1786
(lp1787
tp1788
a(L2312911895L
L3785322319L
(lp1789
(lp1790
V__assert_func
p1791
atp1792
a(L2647790324L
L0L
(lp1793
(lp1794
tp1795
a(L745264323L
L3785322319L
(lp1796
(lp1797
V__assert_func
p1798
atp1799
a(L2996985571L
L3785322319L
(lp1800
(lp1801
Vbootloader_main
p1802
atp1803
a(L1299867982L
L0L
(lp1804
(lp1805
tp1806
a(L3360570486L
L0L
(lp1807
(lp1808
tp1809
atp1810
sI1074241396
(Vbootloader_sha256_finish
p1811
(lp1812
(L4066096136L
L0L
(lp1813
(lp1814
tp1815
a(L2507192538L
L3785322319L
(lp1816
(lp1817
V__assert_func
p1818
atp1819
a(L3020204L
L0L
(lp1820
(lp1821
tp1822
a(L3125835977L
L0L
(lp1823
(lp1824
tp1825
a(L2534656226L
L0L
(lp1826
(lp1827
tp1828
a(L321015369L
L0L
(lp1829
(lp1830
tp1831
a(L2452280183L
L3785322319L
(lp1832
(lp1833
V__assert_func
p1834
atp1835
a(L4244598480L
L3785322319L
(lp1836
(lp1837
Vbootloader_sha256_data
p1838
atp1839
a(L698983516L
L3785322319L
(lp1840
(lp1841
V__assert_func
p1842
atp1843
a(L1242060575L
L3785322319L
(lp1844
(lp1845
Vbootloader_sha256_data
p1846
atp1847
a(L1250614581L
L3785322319L
(lp1848
(lp1849
V__assert_func
p1850
atp1851
a(L2007151782L
L0L
(lp1852
(lp1853
tp1854
a(L199233554L
L0L
(lp1855
(lp1856
tp1857
a(L2007151782L
L0L
(lp1858
(lp1859
tp1860
a(L1301713354L
L0L
(lp1861
(lp1862
tp1863
a(L3069700831L
L0L
(lp1864
(lp1865
tp1866
a(L93837694L
L0L
(lp1867
(lp1868
tp1869
a(L3347778L
L0L
(lp1870
(lp1871
tp1872
a(L3360570486L
L0L
(lp1873
(lp1874
tp1875
atp1876
sI1074236788
(Vesp_log_early_timestamp
p1877
(lp1878
(L2465094177L
L0L
(lp1879
(lp1880
tp1881
atp1882
sI1074248308
(Vrtc_clk_cpu_freq_set_config
p1883
(lp1884
(L3979715351L
L3785322319L
(lp1885
(lp1886
Vrtc_clk_xtal_freq_get
p1887
atp1888
a(L1739379997L
L1880226080L
(lp1889
(lp1890
Vrtc_clk_cpu_freq_to_xtal
p1891
aVrtc_clk_wait_for_slow_cycle
p1892
atp1893
a(L3028464L
L0L
(lp1894
(lp1895
tp1896
a(L94425498L
L3785322319L
(lp1897
(lp1898
Vrtc_clk_bbpll_disable
p1899
atp1900
a(L3978916712L
L0L
(lp1901
(lp1902
tp1903
a(L2977209154L
L0L
(lp1904
(lp1905
tp1906
a(L3224389080L
L3785322319L
(lp1907
(lp1908
Vrtc_clk_cpu_freq_to_xtal
p1909
atp1910
a(L3028464L
L0L
(lp1911
(lp1912
tp1913
a(L2123040928L
L1157885199L
(lp1914
(lp1915
Vrtc_clk_bbpll_enable
p1916
aVrtc_clk_wait_for_slow_cycle
p1917
aVrtc_clk_xtal_freq_get
p1918
aVrtc_clk_bbpll_configure
p1919
aVrtc_clk_cpu_freq_to_pll_mhz
p1920
atp1921
a(L3028464L
L0L
(lp1922
(lp1923
tp1924
a(L94425498L
L3785322319L
(lp1925
(lp1926
Vrtc_clk_cpu_freq_to_8m
p1927
atp1928
a(L3360570486L
L0L
(lp1929
(lp1930
tp1931
atp1932
sI1074247536
(Vrtc_clk_xtal_freq_get
p1933
(lp1934
(L384131857L
L0L
(lp1935
(lp1936
tp1937
a(L4143442356L
L0L
(lp1938
(lp1939
tp1940
a(L1305407438L
L0L
(lp1941
(lp1942
tp1943
a(L1305407438L
L0L
(lp1944
(lp1945
tp1946
a(L2258867229L
L0L
(lp1947
(lp1948
tp1949
a(L2902417580L
L0L
(lp1950
(lp1951
tp1952
a(L997999888L
L0L
(lp1953
(lp1954
tp1955
a(L2258688482L
L0L
(lp1956
(lp1957
tp1958
a(L3360570486L
L0L
(lp1959
(lp1960
tp1961
atp1962
sI1074270064
(Vrtc_vddsdio_get_config
p1963
(lp1964
(L388342366L
L0L
(lp1965
(lp1966
tp1967
a(L236607965L
L0L
(lp1968
(lp1969
tp1970
a(L3346847940L
L0L
(lp1971
(lp1972
tp1973
a(L2395535188L
L0L
(lp1974
(lp1975
tp1976
a(L1126075573L
L0L
(lp1977
(lp1978
tp1979
a(L3565178232L
L0L
(lp1980
(lp1981
tp1982
a(L3360570486L
L0L
(lp1983
(lp1984
tp1985
atp1986
sI1074244988
(Vesp_rom_spiflash_write_encrypted
p1987
(lp1988
(L2711657322L
L0L
(lp1989
(lp1990
tp1991
a(L2663131359L
L0L
(lp1992
(lp1993
tp1994
a(L865028862L
L0L
(lp1995
(lp1996
tp1997
a(L3321984142L
L0L
(lp1998
(lp1999
tp2000
a(L4068652995L
L3785322319L
(lp2001
(lp2002
Vesp_rom_spiflash_write
p2003
atp2004
a(L1856606745L
L0L
(lp2005
(lp2006
tp2007
a(L2924646260L
L0L
(lp2008
(lp2009
tp2010
a(L1589912661L
L0L
(lp2011
(lp2012
tp2013
a(L1299866343L
L0L
(lp2014
(lp2015
tp2016
a(L2258688483L
L0L
(lp2017
(lp2018
tp2019
a(L3360570486L
L0L
(lp2020
(lp2021
tp2022
atp2023
sI1074248060
(Vrtc_clk_cpu_freq_to_pll_mhz
p2024
(lp2025
(L3639301015L
L0L
(lp2026
(lp2027
tp2028
a(L1541996779L
L0L
(lp2029
(lp2030
tp2031
a(L1546614651L
L0L
(lp2032
(lp2033
tp2034
a(L2245131903L
L0L
(lp2035
(lp2036
tp2037
a(L3941059644L
L1880226080L
(lp2038
(lp2039
Vesp_log_early_timestamp
p2040
aVabort
p2041
atp2042
a(L3546033543L
L0L
(lp2043
(lp2044
tp2045
a(L3307832802L
L0L
(lp2046
(lp2047
tp2048
a(L2564394808L
L1880226080L
(lp2049
(lp2050
Vrtc_clk_apb_freq_update
p2051
aVrtc_clk_wait_for_slow_cycle
p2052
atp2053
atp2054
sI1074245752
(Vrtc_wdt_protect_off
p2055
(lp2056
(L3850346926L
L0L
(lp2057
(lp2058
tp2059
atp2060
sI1074241668
(Vverify_segment_header
p2061
(lp2062
(L3674778058L
L0L
(lp2063
(lp2064
tp2065
a(L3795436786L
L0L
(lp2066
(lp2067
tp2068
a(L3028481L
L0L
(lp2069
(lp2070
tp2071
a(L3977687288L
L3785322319L
(lp2072
(lp2073
Vesp_log_early_timestamp
p2074
atp2075
a(L310071262L
L0L
(lp2076
(lp2077
tp2078
a(L536784482L
L3785322319L
(lp2079
(lp2080
Vshould_map
p2081
atp2082
a(L3496178735L
L0L
(lp2083
(lp2084
tp2085
a(L2910371777L
L0L
(lp2086
(lp2087
tp2088
a(L990331827L
L3785322319L
(lp2089
(lp2090
Vesp_log_early_timestamp
p2091
atp2092
a(L310071262L
L0L
(lp2093
(lp2094
tp2095
a(L1299866312L
L0L
(lp2096
(lp2097
tp2098
a(L2258688482L
L0L
(lp2099
(lp2100
tp2101
a(L3360570486L
L0L
(lp2102
(lp2103
tp2104
atp2105
sI1074239872
(Vunpack_load_app
p2106
(lp2107
(L1842422795L
L0L
(lp2108
(lp2109
tp2110
a(L3082114560L
L0L
(lp2111
(lp2112
tp2113
a(L2902417580L
L0L
(lp2114
(lp2115
tp2116
a(L661733570L
L3785322319L
(lp2117
(lp2118
Vesp_log_early_timestamp
p2119
atp2120
a(L119201706L
L0L
(lp2121
(lp2122
tp2123
a(L780641376L
L0L
(lp2124
(lp2125
tp2126
a(L2902417580L
L0L
(lp2127
(lp2128
tp2129
a(L415420483L
L3785322319L
(lp2130
(lp2131
Vesp_log_early_timestamp
p2132
atp2133
a(L2669168141L
L0L
(lp2134
(lp2135
tp2136
a(L1799288861L
L0L
(lp2137
(lp2138
tp2139
a(L350965691L
L0L
(lp2140
(lp2141
tp2142
a(L106L
L0L
(lp2143
(lp2144
tp2145
a(L1717315991L
L3785322319L
(lp2146
(lp2147
Vset_cache_and_start_app
p2148
atp2149
atp2150
sI1074241920
(Vverify_image_header
p2151
(lp2152
(L171376062L
L0L
(lp2153
(lp2154
tp2155
a(L3028481L
L0L
(lp2156
(lp2157
tp2158
a(L2716102016L
L3785322319L
(lp2159
(lp2160
Vesp_log_early_timestamp
p2161
atp2162
a(L1299866312L
L0L
(lp2163
(lp2164
tp2165
a(L702738956L
L0L
(lp2166
(lp2167
tp2168
a(L3615160363L
L3785322319L
(lp2169
(lp2170
Vbootloader_common_check_chip_validity
p2171
atp2172
a(L702738956L
L0L
(lp2173
(lp2174
tp2175
a(L3028481L
L0L
(lp2176
(lp2177
tp2178
a(L3270243289L
L0L
(lp2179
(lp2180
tp2181
a(L2572607029L
L3785322319L
(lp2182
(lp2183
Vesp_log_early_timestamp
p2184
atp2185
a(L3355980489L
L0L
(lp2186
(lp2187
tp2188
a(L2682253109L
L3785322319L
(lp2189
(lp2190
Vesp_log_early_timestamp
p2191
atp2192
a(L3360570486L
L0L
(lp2193
(lp2194
tp2195
atp2196
sI1074267780
(Vselect_partition_number
p2197
(lp2198
(L1731214134L
L3785322319L
(lp2199
(lp2200
Vbootloader_utility_load_partition_table
p2201
atp2202
a(L1837697588L
L3785322319L
(lp2203
(lp2204
Vesp_log_early_timestamp
p2205
atp2206
a(L1750549816L
L3785322319L
(lp2207
(lp2208
Vselected_boot_partition
p2209
atp2210
a(L3496950L
L0L
(lp2211
(lp2212
tp2213
atp2214
sI1074269572
(Vrtc_clk_init
p2215
(lp2216
(L2066786339L
L0L
(lp2217
(lp2218
tp2219
a(L2549152574L
L3785322319L
(lp2220
(lp2221
Vrtc_clk_cpu_freq_to_xtal
p2222
atp2223
a(L820553223L
L0L
(lp2224
(lp2225
tp2226
a(L3136361094L
L0L
(lp2227
(lp2228
tp2229
a(L3224614952L
L0L
(lp2230
(lp2231
tp2232
a(L1299866312L
L0L
(lp2233
(lp2234
tp2235
a(L1299866312L
L0L
(lp2236
(lp2237
tp2238
a(L1182811811L
L0L
(lp2239
(lp2240
tp2241
a(L3020204L
L0L
(lp2242
(lp2243
tp2244
a(L1849746773L
L3785322319L
(lp2245
(lp2246
Vrtc_clk_xtal_freq_get
p2247
atp2248
a(L1375577398L
L3785322319L
(lp2249
(lp2250
Vrtc_clk_xtal_freq_estimate
p2251
atp2252
a(L4233814653L
L3785322319L
(lp2253
(lp2254
Vesp_log_early_timestamp
p2255
atp2256
a(L2489577179L
L0L
(lp2257
(lp2258
tp2259
a(L4233392623L
L0L
(lp2260
(lp2261
tp2262
a(L1300789833L
L0L
(lp2263
(lp2264
tp2265
a(L1300789833L
L0L
(lp2266
(lp2267
tp2268
a(L2258718274L
L0L
(lp2269
(lp2270
tp2271
a(L3028481L
L0L
(lp2272
(lp2273
tp2274
a(L3183127930L
L3785322319L
(lp2275
(lp2276
Vrtc_clk_xtal_freq_estimate
p2277
atp2278
a(L2705290648L
L3785322319L
(lp2279
(lp2280
Vesp_log_early_timestamp
p2281
atp2282
a(L2092736903L
L0L
(lp2283
(lp2284
tp2285
a(L2419184577L
L2485746240L
(lp2286
(lp2287
Vrtc_clk_xtal_freq_update
p2288
aVrtc_clk_apb_freq_update
p2289
aVrtc_clk_cpu_freq_get_config
p2290
aVrtc_clk_cpu_freq_mhz_to_config
p2291
atp2292
a(L42625808L
L1880226080L
(lp2293
(lp2294
Vesp_log_early_timestamp
p2295
aVabort
p2296
atp2297
a(L26164863L
L3785322319L
(lp2298
(lp2299
Vrtc_clk_cpu_freq_set_config
p2300
atp2301
a(L4168829660L
L3785322319L
(lp2302
(lp2303
Vrtc_clk_32k_enable
p2304
atp2305
a(L3016870L
L0L
(lp2306
(lp2307
tp2308
a(L2533479215L
L3785322319L
(lp2309
(lp2310
Vrtc_clk_8m_enable
p2311
atp2312
a(L530469956L
L1880226080L
(lp2313
(lp2314
Vrtc_clk_fast_freq_set
p2315
aVrtc_clk_slow_freq_set
p2316
atp2317
atp2318
sI1074270852
(Vrtc_clk_wait_for_slow_cycle
p2319
(lp2320
(L3644181782L
L0L
(lp2321
(lp2322
tp2323
a(L2228660230L
L0L
(lp2324
(lp2325
tp2326
a(L679753971L
L0L
(lp2327
(lp2328
tp2329
a(L3360570486L
L0L
(lp2330
(lp2331
tp2332
atp2333
sI1074242440
(Vprocess_segment
p2334
(lp2335
(L4023325822L
L3785322319L
(lp2336
(lp2337
Vbootloader_flash_read
p2338
atp2339
a(L4117411598L
L3785322319L
(lp2340
(lp2341
Vesp_log_early_timestamp
p2342
atp2343
a(L2378867762L
L0L
(lp2344
(lp2345
tp2346
a(L2241831349L
L3785322319L
(lp2347
(lp2348
Vbootloader_sha256_data
p2349
atp2350
a(L3662992855L
L3785322319L
(lp2351
(lp2352
Vverify_segment_header
p2353
atp2354
a(L3458480366L
L0L
(lp2355
(lp2356
tp2357
a(L3028481L
L0L
(lp2358
(lp2359
tp2360
a(L3265528973L
L3785322319L
(lp2361
(lp2362
Vesp_log_early_timestamp
p2363
atp2364
a(L310071262L
L0L
(lp2365
(lp2366
tp2367
a(L1396114142L
L3785322319L
(lp2368
(lp2369
Vshould_map
p2370
atp2371
a(L3872460357L
L3785322319L
(lp2372
(lp2373
Vshould_load
p2374
atp2375
a(L2440112036L
L0L
(lp2376
(lp2377
tp2378
a(L2893621607L
L0L
(lp2379
(lp2380
tp2381
a(L4267722531L
L0L
(lp2382
(lp2383
tp2384
a(L1477562579L
L0L
(lp2385
(lp2386
tp2387
a(L3287840219L
L3785322319L
(lp2388
(lp2389
Vesp_log_early_timestamp
p2390
atp2391
a(L2902417580L
L0L
(lp2392
(lp2393
tp2394
a(L568241505L
L0L
(lp2395
(lp2396
tp2397
a(L568242001L
L0L
(lp2398
(lp2399
tp2400
a(L1403803685L
L0L
(lp2401
(lp2402
tp2403
a(L621771438L
L0L
(lp2404
(lp2405
tp2406
a(L3020204L
L0L
(lp2407
(lp2408
tp2409
a(L1835996274L
L0L
(lp2410
(lp2411
tp2412
a(L4134747623L
L0L
(lp2413
(lp2414
tp2415
a(L106L
L0L
(lp2416
(lp2417
tp2418
a(L4052585061L
L3785322319L
(lp2419
(lp2420
Vesp_log_early_timestamp
p2421
atp2422
a(L307668797L
L0L
(lp2423
(lp2424
tp2425
a(L105765708L
L3785322319L
(lp2426
(lp2427
V__assert_func
p2428
atp2429
a(L97642L
L0L
(lp2430
(lp2431
tp2432
a(L1814764641L
L3785322319L
(lp2433
(lp2434
V__assert_func
p2435
atp2436
a(L366123053L
L0L
(lp2437
(lp2438
tp2439
a(L2258867228L
L0L
(lp2440
(lp2441
tp2442
a(L1052660505L
L0L
(lp2443
(lp2444
tp2445
a(L1182990556L
L0L
(lp2446
(lp2447
tp2448
a(L2816536719L
L0L
(lp2449
(lp2450
tp2451
a(L1543438240L
L3785322319L
(lp2452
(lp2453
Vesp_log_early_timestamp
p2454
atp2455
a(L1067290642L
L3785322319L
(lp2456
(lp2457
Vbootloader_mmap_get_free_pages
p2458
atp2459
a(L1429983462L
L3785322319L
(lp2460
(lp2461
Vprocess_segment_data
p2462
atp2463
a(L1624476643L
L0L
(lp2464
(lp2465
tp2466
a(L3021737L
L0L
(lp2467
(lp2468
tp2469
a(L930693660L
L0L
(lp2470
(lp2471
tp2472
a(L1899940123L
L0L
(lp2473
(lp2474
tp2475
a(L3360570486L
L0L
(lp2476
(lp2477
tp2478
atp2479
sI1074245768
(Vrtc_wdt_protect_on
p2480
(lp2481
(L612800151L
L0L
(lp2482
(lp2483
tp2484
atp2485
sI1074246548
(Vrtc_clk_bbpll_enable
p2486
(lp2487
(L2597905661L
L0L
(lp2488
(lp2489
tp2490
atp2491
sI1074247060
(Vrtc_clk_fast_freq_set
p2492
(lp2493
(L2699775747L
L0L
(lp2494
(lp2495
tp2496
atp2497
sI1074237072
(Vbootloader_common_vddsdio_configure
p2498
(lp2499
(L1829974089L
L3785322319L
(lp2500
(lp2501
Vrtc_vddsdio_get_config
p2502
atp2503
a(L2697960163L
L3785322319L
(lp2504
(lp2505
Vrtc_vddsdio_set_config
p2506
atp2507
a(L3360570486L
L0L
(lp2508
(lp2509
tp2510
atp2511
sI1074270352
(Vrtc_clk_cal_internal
p2512
(lp2513
(L2785543047L
L0L
(lp2514
(lp2515
tp2516
a(L2344137504L
L3785322319L
(lp2517
(lp2518
V__assert_func
p2519
atp2520
a(L209486870L
L0L
(lp2521
(lp2522
tp2523
a(L1979498901L
L0L
(lp2524
(lp2525
tp2526
a(L3028464L
L0L
(lp2527
(lp2528
tp2529
a(L763236212L
L0L
(lp2530
(lp2531
tp2532
a(L401232362L
L0L
(lp2533
(lp2534
tp2535
a(L1352009054L
L0L
(lp2536
(lp2537
tp2538
a(L97422L
L0L
(lp2539
(lp2540
tp2541
a(L2120918540L
L0L
(lp2542
(lp2543
tp2544
a(L3900101454L
L0L
(lp2545
(lp2546
tp2547
a(L3900101330L
L0L
(lp2548
(lp2549
tp2550
a(L3900101330L
L0L
(lp2551
(lp2552
tp2553
a(L3900101454L
L0L
(lp2554
(lp2555
tp2556
a(L3450945696L
L0L
(lp2557
(lp2558
tp2559
a(L1277380815L
L3785322319L
(lp2560
(lp2561
Vrtc_clk_xtal_freq_get
p2562
atp2563
a(L2780079961L
L0L
(lp2564
(lp2565
tp2566
a(L2007867703L
L0L
(lp2567
(lp2568
tp2569
a(L2257879593L
L3785322319L
(lp2570
(lp2571
Vesp_log_early_timestamp
p2572
atp2573
a(L2209925168L
L0L
(lp2574
(lp2575
tp2576
a(L2356680430L
L0L
(lp2577
(lp2578
tp2579
a(L679754467L
L0L
(lp2580
(lp2581
tp2582
a(L3021737L
L0L
(lp2583
(lp2584
tp2585
a(L3589052772L
L0L
(lp2586
(lp2587
tp2588
a(L524443757L
L0L
(lp2589
(lp2590
tp2591
a(L2902417580L
L0L
(lp2592
(lp2593
tp2594
a(L222622022L
L0L
(lp2595
(lp2596
tp2597
a(L2258688482L
L0L
(lp2598
(lp2599
tp2600
a(L3360570486L
L0L
(lp2601
(lp2602
tp2603
atp2604
sI1074236824
(Vbootloader_clock_configure
p2605
(lp2606
(L3493042567L
L0L
(lp2607
(lp2608
tp2609
a(L4281448847L
L0L
(lp2610
(lp2611
tp2612
a(L1229860772L
L0L
(lp2613
(lp2614
tp2615
a(L1518940034L
L0L
(lp2616
(lp2617
tp2618
a(L1812928027L
L0L
(lp2619
(lp2620
tp2621
a(L1812928027L
L0L
(lp2622
(lp2623
tp2624
a(L2312970590L
L0L
(lp2625
(lp2626
tp2627
a(L2314897641L
L1832448559L
(lp2628
(lp2629
Vrtc_clk_slow_freq_get
p2630
aVrtc_clk_fast_freq_get
p2631
aVrtc_clk_init
p2632
atp2633
atp2634
sI1074245784
(Vrtc_wdt_enable
p2635
(lp2636
(L18619439L
L0L
(lp2637
(lp2638
tp2639
atp2640
sI1074269352
(Vabort
p2641
(lp2642
(L1496783690L
L3785322319L
(lp2643
(lp2644
Vesp_cpu_in_ocd_debug_mode
p2645
atp2646
a(L409441471L
L0L
(lp2647
(lp2648
tp2649
a(L106L
L0L
(lp2650
(lp2651
tp2652
atp2653
sI1074237348
(Vbootloader_common_ota_select_invalid
p2654
(lp2655
(L2808438197L
L0L
(lp2656
(lp2657
tp2658
a(L473337258L
L0L
(lp2659
(lp2660
tp2661
a(L3028464L
L0L
(lp2662
(lp2663
tp2664
a(L1299866343L
L0L
(lp2665
(lp2666
tp2667
a(L1299866343L
L0L
(lp2668
(lp2669
tp2670
a(L1299866343L
L0L
(lp2671
(lp2672
tp2673
a(L2258688482L
L0L
(lp2674
(lp2675
tp2676
a(L3360570486L
L0L
(lp2677
(lp2678
tp2679
atp2680
sI1074239648
(Vset_cache_and_start_app
p2681
(lp2682
(L2286081353L
L0L
(lp2683
(lp2684
tp2685
a(L1268627280L
L0L
(lp2686
(lp2687
tp2688
a(L1548223148L
L0L
(lp2689
(lp2690
tp2691
a(L2687545080L
L0L
(lp2692
(lp2693
tp2694
atp2695
sI1074244768
(Vesp_rom_spiflash_write
p2696
(lp2697
(L2255951518L
L0L
(lp2698
(lp2699
tp2700
a(L106L
L0L
(lp2701
(lp2702
tp2703
a(L38049871L
L0L
(lp2704
(lp2705
tp2706
a(L271180483L
L3785322319L
(lp2707
(lp2708
Vesp_rom_spiflash_program_page_internal
p2709
atp2710
a(L106L
L0L
(lp2711
(lp2712
tp2713
a(L573580287L
L3785322319L
(lp2714
(lp2715
Vesp_rom_spiflash_program_page_internal
p2716
atp2717
a(L1672331730L
L0L
(lp2718
(lp2719
tp2720
a(L1047126152L
L3785322319L
(lp2721
(lp2722
Vesp_rom_spiflash_program_page_internal
p2723
atp2724
a(L850197805L
L0L
(lp2725
(lp2726
tp2727
a(L4159629294L
L0L
(lp2728
(lp2729
tp2730
a(L1032424328L
L3785322319L
(lp2731
(lp2732
Vesp_rom_spiflash_program_page_internal
p2733
atp2734
a(L106L
L0L
(lp2735
(lp2736
tp2737
a(L1299866343L
L0L
(lp2738
(lp2739
tp2740
a(L1299866343L
L0L
(lp2741
(lp2742
tp2743
a(L1299866343L
L0L
(lp2744
(lp2745
tp2746
a(L1299866343L
L0L
(lp2747
(lp2748
tp2749
a(L1182811811L
L0L
(lp2750
(lp2751
tp2752
a(L3360570486L
L0L
(lp2753
(lp2754
tp2755
atp2756
sI1074247852
(Vrtc_clk_xtal_freq_update
p2757
(lp2758
(L3023300274L
L0L
(lp2759
(lp2760
tp2761
a(L3509357017L
L0L
(lp2762
(lp2763
tp2764
a(L3040433054L
L0L
(lp2765
(lp2766
tp2767
atp2768
sI1074247592
(Vrtc_clk_cpu_freq_mhz_to_config
p2769
(lp2770
(L2601984125L
L3785322319L
(lp2771
(lp2772
Vrtc_clk_xtal_freq_get
p2773
atp2774
a(L2647093801L
L0L
(lp2775
(lp2776
tp2777
a(L3263839434L
L0L
(lp2778
(lp2779
tp2780
a(L2762074623L
L0L
(lp2781
(lp2782
tp2783
a(L1541996779L
L0L
(lp2784
(lp2785
tp2786
a(L1546614651L
L0L
(lp2787
(lp2788
tp2789
a(L1555485793L
L0L
(lp2790
(lp2791
tp2792
a(L1695987314L
L0L
(lp2793
(lp2794
tp2795
a(L3652406074L
L0L
(lp2796
(lp2797
tp2798
a(L1139084306L
L0L
(lp2799
(lp2800
tp2801
a(L1299866312L
L0L
(lp2802
(lp2803
tp2804
a(L2258688482L
L0L
(lp2805
(lp2806
tp2807
a(L3360570486L
L0L
(lp2808
(lp2809
tp2810
atp2811
sI1074241204
(Vbootloader_sha256_start
p2812
(lp2813
(L1390653723L
L0L
(lp2814
(lp2815
tp2816
atp2817
sI1074242228
(Vdebug_log_hash
p2818
(lp2819
(L1348589273L
L3785322319L
(lp2820
(lp2821
Vbootloader_sha256_hex_to_str
p2822
atp2823
atp2824
sI1074244020
(Vesp_rom_spiflash_wait_idle
p2825
(lp2826
(L287326052L
L0L
(lp2827
(lp2828
tp2829
a(L2663764559L
L0L
(lp2830
(lp2831
tp2832
a(L3844999098L
L0L
(lp2833
(lp2834
tp2835
a(L855829385L
L3785322319L
(lp2836
(lp2837
Vesp_rom_spiflash_read_status
p2838
atp2839
a(L1298875774L
L0L
(lp2840
(lp2841
tp2842
a(L735741265L
L0L
(lp2843
(lp2844
tp2845
atp2846
sI1074238128
(Vbootloader_flash_write
p2847
(lp2848
(L1798169257L
L0L
(lp2849
(lp2850
tp2851
a(L1755666842L
L0L
(lp2852
(lp2853
tp2854
a(L1182930978L
L0L
(lp2855
(lp2856
tp2857
a(L1516326052L
L0L
(lp2858
(lp2859
tp2860
a(L20293602L
L3785322319L
(lp2861
(lp2862
Vesp_log_early_timestamp
p2863
atp2864
a(L3291333414L
L0L
(lp2865
(lp2866
tp2867
a(L1693862220L
L3785322319L
(lp2868
(lp2869
Vesp_log_early_timestamp
p2870
atp2871
a(L3283691850L
L0L
(lp2872
(lp2873
tp2874
a(L1664792438L
L3785322319L
(lp2875
(lp2876
Vesp_log_early_timestamp
p2877
atp2878
a(L3212356251L
L3785322319L
(lp2879
(lp2880
Vbootloader_flash_unlock
p2881
atp2882
a(L2902417580L
L0L
(lp2883
(lp2884
tp2885
a(L2913054701L
L1880226080L
(lp2886
(lp2887
Vesp_rom_spiflash_write_encrypted
p2888
aVspi_to_esp_err
p2889
atp2890
a(L4281627677L
L1880226080L
(lp2891
(lp2892
Vesp_rom_spiflash_write
p2893
aVspi_to_esp_err
p2894
atp2895
a(L735741265L
L0L
(lp2896
(lp2897
tp2898
atp2899
sI1074238896
(Vbootloader_random_disable
p2900
(lp2901
(L3386151447L
L0L
(lp2902
(lp2903
tp2904
atp2905
sI1074267828
(Vcall_start_cpu0
p2906
(lp2907
(L2311976169L
L3785322319L
(lp2908
(lp2909
Vbootloader_init
p2910
atp2911
a(L3827921190L
L3785322319L
(lp2912
(lp2913
Vbootloader_reset
p2914
atp2915
a(L4083304126L
L3785322319L
(lp2916
(lp2917
Vselect_partition_number
p2918
atp2919
a(L94425498L
L3785322319L
(lp2920
(lp2921
Vbootloader_reset
p2922
atp2923
a(L1678595755L
L3785322319L
(lp2924
(lp2925
Vbootloader_utility_load_boot_image
p2926
atp2927
atp2928
sI1074240696
(Vbootloader_reset
p2929
(lp2930
(L3425357023L
L0L
(lp2931
(lp2932
tp2933
a(L106L
L0L
(lp2934
(lp2935
tp2936
atp2937
sI1074235576
(Vbootloader_flash_execute_command_common
p2938
(lp2939
(L3093683517L
L0L
(lp2940
(lp2941
tp2942
a(L3553389917L
L3785322319L
(lp2943
(lp2944
V__assert_func
p2945
atp2946
a(L3934048903L
L0L
(lp2947
(lp2948
tp2949
a(L200507376L
L3785322319L
(lp2950
(lp2951
V__assert_func
p2952
atp2953
a(L271654967L
L0L
(lp2954
(lp2955
tp2956
a(L3677736035L
L0L
(lp2957
(lp2958
tp2959
a(L2720116201L
L0L
(lp2960
(lp2961
tp2962
a(L1370372145L
L0L
(lp2963
(lp2964
tp2965
a(L2053727415L
L0L
(lp2966
(lp2967
tp2968
a(L3056583676L
L0L
(lp2969
(lp2970
tp2971
a(L2460931740L
L0L
(lp2972
(lp2973
tp2974
a(L2258807646L
L0L
(lp2975
(lp2976
tp2977
a(L363225620L
L0L
(lp2978
(lp2979
tp2980
a(L3513331551L
L0L
(lp2981
(lp2982
tp2983
a(L2258807646L
L0L
(lp2984
(lp2985
tp2986
a(L2509596774L
L0L
(lp2987
(lp2988
tp2989
a(L3541824727L
L0L
(lp2990
(lp2991
tp2992
a(L526118246L
L0L
(lp2993
(lp2994
tp2995
a(L377965372L
L0L
(lp2996
(lp2997
tp2998
a(L3360570486L
L0L
(lp2999
(lp3000
tp3001
atp3002
sI1074237124
(Vbootloader_common_get_chip_revision
p3003
(lp3004
(L713572164L
L0L
(lp3005
(lp3006
tp3007
a(L3020187L
L0L
(lp3008
(lp3009
tp3010
a(L3020187L
L0L
(lp3011
(lp3012
tp3013
a(L1299866312L
L0L
(lp3014
(lp3015
tp3016
a(L1299866374L
L0L
(lp3017
(lp3018
tp3019
a(L1299866405L
L0L
(lp3020
(lp3021
tp3022
a(L2258688483L
L0L
(lp3023
(lp3024
tp3025
a(L3360570486L
L0L
(lp3026
(lp3027
tp3028
atp3029
sI1074239428
(Vwrite_otadata
p3030
(lp3031
(L1129643552L
L3785322319L
(lp3032
(lp3033
Vbootloader_flash_erase_sector
p3034
atp3035
a(L2292404229L
L3785322319L
(lp3036
(lp3037
Vbootloader_flash_write
p3038
atp3039
a(L3020204L
L0L
(lp3040
(lp3041
tp3042
a(L205662936L
L3785322319L
(lp3043
(lp3044
Vesp_log_early_timestamp
p3045
atp3046
a(L3360570486L
L0L
(lp3047
(lp3048
tp3049
atp3050
sI1074245828
(Vrtc_wdt_set_time
p3051
(lp3052
(L607216364L
L0L
(lp3053
(lp3054
tp3055
a(L1079095605L
L3785322319L
(lp3056
(lp3057
Vrtc_clk_slow_freq_get_hz
p3058
atp3059
a(L870337636L
L0L
(lp3060
(lp3061
tp3062
a(L3028464L
L0L
(lp3063
(lp3064
tp3065
a(L3184002511L
L0L
(lp3066
(lp3067
tp3068
a(L3028464L
L0L
(lp3069
(lp3070
tp3071
a(L462971067L
L0L
(lp3072
(lp3073
tp3074
a(L1866170815L
L0L
(lp3075
(lp3076
tp3077
a(L2810785765L
L0L
(lp3078
(lp3079
tp3080
a(L3360570486L
L0L
(lp3081
(lp3082
tp3083
atp3084
sI1074268620
(Vupdate_flash_config
p3085
(lp3086
(L2363123660L
L0L
(lp3087
(lp3088
tp3089
a(L604335882L
L0L
(lp3090
(lp3091
tp3092
a(L2258688484L
L0L
(lp3093
(lp3094
tp3095
a(L1002360078L
L0L
(lp3096
(lp3097
tp3098
atp3099
sI1074247104
(Vrtc_clk_fast_freq_get
p3100
(lp3101
(L3549048653L
L0L
(lp3102
(lp3103
tp3104
atp3105
sI1074242252
(Vverify_simple_hash
p3106
(lp3107
(L2098074648L
L1832448559L
(lp3108
(lp3109
Vbootloader_sha256_finish
p3110
aVdebug_log_hash
p3111
aVbootloader_mmap
p3112
atp3113
a(L3906789258L
L1832448559L
(lp3114
(lp3115
Vesp_log_early_timestamp
p3116
aVdebug_log_hash
p3117
aVbootloader_munmap
p3118
atp3119
a(L1362502076L
L3785322319L
(lp3120
(lp3121
Vbootloader_munmap
p3122
atp3123
a(L3360570486L
L0L
(lp3124
(lp3125
tp3126
atp3127
sI1074246348
(Vrtc_clk_32k_enable_common
p3128
(lp3129
(L1846958802L
L0L
(lp3130
(lp3131
tp3132
atp3133
sI1074241224
(Vbootloader_sha256_data
p3134
(lp3135
(L4037466985L
L0L
(lp3136
(lp3137
tp3138
a(L812451094L
L3785322319L
(lp3139
(lp3140
V__assert_func
p3141
atp3142
a(L2660352519L
L0L
(lp3143
(lp3144
tp3145
a(L1607423730L
L3785322319L
(lp3146
(lp3147
V__assert_func
p3148
atp3149
a(L66409669L
L0L
(lp3150
(lp3151
tp3152
a(L1522849211L
L0L
(lp3153
(lp3154
tp3155
a(L2007160076L
L0L
(lp3156
(lp3157
tp3158
a(L1301713354L
L0L
(lp3159
(lp3160
tp3161
a(L2895000905L
L0L
(lp3162
(lp3163
tp3164
a(L3027019L
L0L
(lp3165
(lp3166
tp3167
a(L119955842L
L0L
(lp3168
(lp3169
tp3170
a(L3028464L
L0L
(lp3171
(lp3172
tp3173
a(L1179673110L
L0L
(lp3174
(lp3175
tp3176
a(L174464152L
L0L
(lp3177
(lp3178
tp3179
a(L3028481L
L0L
(lp3180
(lp3181
tp3182
a(L3360570486L
L0L
(lp3183
(lp3184
tp3185
atp3186
sI1074240456
(Vbootloader_utility_get_selected_boot_partition
p3187
(lp3188
(L493075905L
L0L
(lp3189
(lp3190
tp3191
a(L1053676827L
L3785322319L
(lp3192
(lp3193
Vread_otadata
p3194
atp3195
a(L2110620846L
L3785322319L
(lp3196
(lp3197
Vbootloader_common_ota_select_invalid
p3198
atp3199
a(L1836822349L
L3785322319L
(lp3200
(lp3201
Vbootloader_common_ota_select_invalid
p3202
atp3203
a(L1103582223L
L0L
(lp3204
(lp3205
tp3206
a(L1434139642L
L0L
(lp3207
(lp3208
tp3209
a(L356763204L
L3785322319L
(lp3210
(lp3211
Vesp_log_early_timestamp
p3212
atp3213
a(L2249798943L
L3785322319L
(lp3214
(lp3215
Vesp_log_early_timestamp
p3216
atp3217
a(L1231013322L
L3785322319L
(lp3218
(lp3219
Vbootloader_common_ota_select_crc
p3220
atp3221
a(L505081345L
L0L
(lp3222
(lp3223
tp3224
a(L919052234L
L3785322319L
(lp3225
(lp3226
Vbootloader_common_ota_select_crc
p3227
atp3228
a(L2184549057L
L0L
(lp3229
(lp3230
tp3231
a(L1876827316L
L3785322319L
(lp3232
(lp3233
Vbootloader_common_get_active_otadata
p3234
atp3235
a(L2624014019L
L0L
(lp3236
(lp3237
tp3238
a(L1434139642L
L0L
(lp3239
(lp3240
tp3241
a(L3957781474L
L3785322319L
(lp3242
(lp3243
Vesp_log_early_timestamp
p3244
atp3245
a(L2376675742L
L3785322319L
(lp3246
(lp3247
Vesp_log_early_timestamp
p3248
atp3249
a(L1641201884L
L0L
(lp3250
(lp3251
tp3252
a(L2805938668L
L0L
(lp3253
(lp3254
tp3255
a(L3360570486L
L0L
(lp3256
(lp3257
tp3258
atp3259
sI1074237384
(Vbootloader_common_select_otadata
p3260
(lp3261
(L3584189777L
L0L
(lp3262
(lp3263
tp3264
a(L1238320367L
L0L
(lp3265
(lp3266
tp3267
a(L1238350425L
L0L
(lp3268
(lp3269
tp3270
a(L3063569071L
L0L
(lp3271
(lp3272
tp3273
a(L1299866312L
L0L
(lp3274
(lp3275
tp3276
a(L2902417580L
L0L
(lp3277
(lp3278
tp3279
a(L2266899299L
L0L
(lp3280
(lp3281
tp3282
a(L1021104441L
L0L
(lp3283
(lp3284
tp3285
a(L3969214161L
L0L
(lp3286
(lp3287
tp3288
a(L1299866312L
L0L
(lp3289
(lp3290
tp3291
a(L1098457408L
L0L
(lp3292
(lp3293
tp3294
a(L1770629919L
L0L
(lp3295
(lp3296
tp3297
a(L3027007L
L0L
(lp3298
(lp3299
tp3300
a(L1641201884L
L0L
(lp3301
(lp3302
tp3303
a(L1641201884L
L0L
(lp3304
(lp3305
tp3306
a(L2258688483L
L0L
(lp3307
(lp3308
tp3309
a(L3360570486L
L0L
(lp3310
(lp3311
tp3312
atp3313
sI1074234824
(Vbootloader_flash_gpio_config
p3314
(lp3315
(L2421374338L
L0L
(lp3316
(lp3317
tp3318
a(L1299866374L
L0L
(lp3319
(lp3320
tp3321
a(L2258688485L
L0L
(lp3322
(lp3323
tp3324
a(L3994737887L
L0L
(lp3325
(lp3326
tp3327
a(L3374238576L
L0L
(lp3328
(lp3329
tp3330
a(L3028464L
L0L
(lp3331
(lp3332
tp3333
a(L3374238576L
L0L
(lp3334
(lp3335
tp3336
a(L3028464L
L0L
(lp3337
(lp3338
tp3339
a(L3374238576L
L0L
(lp3340
(lp3341
tp3342
a(L1620391664L
L0L
(lp3343
(lp3344
tp3345
a(L2823660977L
L0L
(lp3346
(lp3347
tp3348
a(L2854935024L
L0L
(lp3349
(lp3350
tp3351
a(L3360570486L
L0L
(lp3352
(lp3353
tp3354
atp3355
sI1074236116
(Vexecute_flash_command
p3356
(lp3357
(L2909450247L
L3785322319L
(lp3358
(lp3359
Vbootloader_flash_execute_command_common
p3360
atp3361
atp3362
sI1074247120
(Vrtc_clk_bbpll_configure
p3363
(lp3364
(L4270275352L
L0L
(lp3365
(lp3366
tp3367
a(L106L
L0L
(lp3368
(lp3369
tp3370
a(L3464316587L
L0L
(lp3371
(lp3372
tp3373
a(L83268344L
L0L
(lp3374
(lp3375
tp3376
a(L82344823L
L0L
(lp3377
(lp3378
tp3379
a(L3716763792L
L0L
(lp3380
(lp3381
tp3382
a(L2946597619L
L0L
(lp3383
(lp3384
tp3385
a(L1853483621L
L0L
(lp3386
(lp3387
tp3388
a(L2588903510L
L0L
(lp3389
(lp3390
tp3391
a(L621817984L
L0L
(lp3392
(lp3393
tp3394
a(L1352771228L
L0L
(lp3395
(lp3396
tp3397
a(L83268344L
L0L
(lp3398
(lp3399
tp3400
a(L82344823L
L0L
(lp3401
(lp3402
tp3403
a(L3716763792L
L0L
(lp3404
(lp3405
tp3406
a(L3716340639L
L0L
(lp3407
(lp3408
tp3409
a(L274194809L
L0L
(lp3410
(lp3411
tp3412
a(L2613733930L
L0L
(lp3413
(lp3414
tp3415
a(L982971288L
L0L
(lp3416
(lp3417
tp3418
a(L3894176505L
L3785322319L
(lp3419
(lp3420
Vrtc_clk_slow_freq_get
p3421
atp3422
a(L2679108412L
L0L
(lp3423
(lp3424
tp3425
a(L2780081410L
L0L
(lp3426
(lp3427
tp3428
a(L2079956813L
L0L
(lp3429
(lp3430
tp3431
atp3432
sI1074248400
(Vrtc_clk_apb_freq_get
p3433
(lp3434
(L3667312403L
L0L
(lp3435
(lp3436
tp3437
atp3438
sI1074236380
(Vbootloader_flash_unlock
p3439
(lp3440
(L3746304696L
L3785322319L
(lp3441
(lp3442
Vesp_rom_spiflash_wait_idle
p3443
atp3444
a(L3827077634L
L3785322319L
(lp3445
(lp3446
Vexecute_flash_command
p3447
atp3448
a(L3162775668L
L0L
(lp3449
(lp3450
tp3451
a(L1225466760L
L0L
(lp3452
(lp3453
tp3454
a(L2151861662L
L0L
(lp3455
(lp3456
tp3457
a(L1299866312L
L0L
(lp3458
(lp3459
tp3460
a(L1299866312L
L0L
(lp3461
(lp3462
tp3463
a(L1299866312L
L0L
(lp3464
(lp3465
tp3466
a(L1182811811L
L0L
(lp3467
(lp3468
tp3469
a(L3020204L
L0L
(lp3470
(lp3471
tp3472
a(L2678961441L
L1880226080L
(lp3473
(lp3474
Vexecute_flash_command
p3475
aVexecute_flash_command
p3476
atp3477
a(L3220422812L
L1880226080L
(lp3478
(lp3479
Vexecute_flash_command
p3480
aVexecute_flash_command
p3481
atp3482
a(L97422L
L0L
(lp3483
(lp3484
tp3485
a(L2746578736L
L1157885199L
(lp3486
(lp3487
Vesp_rom_spiflash_wait_idle
p3488
aVexecute_flash_command
p3489
aVesp_rom_spiflash_wait_idle
p3490
aVexecute_flash_command
p3491
aVesp_rom_spiflash_wait_idle
p3492
atp3493
a(L97422L
L0L
(lp3494
(lp3495
tp3496
a(L779969632L
L1157885199L
(lp3497
(lp3498
Vesp_rom_spiflash_wait_idle
p3499
aVexecute_flash_command
p3500
aVesp_rom_spiflash_wait_idle
p3501
aVexecute_flash_command
p3502
aVesp_rom_spiflash_wait_idle
p3503
atp3504
a(L2531355236L
L1880226080L
(lp3505
(lp3506
Vexecute_flash_command
p3507
aVesp_rom_spiflash_wait_idle
p3508
atp3509
atp3510
sI1074269396
(Vrtc_clk_xtal_freq_estimate
p3511
(lp3512
(L2516060585L
L1880226080L
(lp3513
(lp3514
Vrtc_clk_8m_enabled
p3515
aVrtc_clk_8md256_enabled
p3516
atp3517
a(L967485502L
L3785322319L
(lp3518
(lp3519
Vrtc_clk_8m_enable
p3520
atp3521
a(L59032741L
L3785322319L
(lp3522
(lp3523
Vrtc_clk_cal_ratio
p3524
atp3525
a(L1789153894L
L0L
(lp3526
(lp3527
tp3528
a(L3390943589L
L3785322319L
(lp3529
(lp3530
Vesp_log_early_timestamp
p3531
atp3532
a(L3360570486L
L0L
(lp3533
(lp3534
tp3535
atp3536
sI1074246872
(Vrtc_clk_8m_enabled
p3537
(lp3538
(L762781880L
L0L
(lp3539
(lp3540
tp3541
atp3542
sI1074245080
(Vesp_rom_spiflash_read
p3543
(lp3544
(L2937159522L
L0L
(lp3545
(lp3546
tp3547
a(L3259800734L
L0L
(lp3548
(lp3549
tp3550
a(L3017366L
L0L
(lp3551
(lp3552
tp3553
a(L106L
L0L
(lp3554
(lp3555
tp3556
a(L3566544746L
L0L
(lp3557
(lp3558
tp3559
a(L106L
L0L
(lp3560
(lp3561
tp3562
a(L903815341L
L0L
(lp3563
(lp3564
tp3565
a(L396410668L
L0L
(lp3566
(lp3567
tp3568
a(L554277212L
L0L
(lp3569
(lp3570
tp3571
a(L3016870L
L0L
(lp3572
(lp3573
tp3574
a(L313768278L
L0L
(lp3575
(lp3576
tp3577
a(L3016870L
L0L
(lp3578
(lp3579
tp3580
a(L2656183489L
L0L
(lp3581
(lp3582
tp3583
a(L769051229L
L0L
(lp3584
(lp3585
tp3586
a(L3116497201L
L0L
(lp3587
(lp3588
tp3589
a(L2174432247L
L0L
(lp3590
(lp3591
tp3592
a(L3069035187L
L0L
(lp3593
(lp3594
tp3595
a(L993738264L
L0L
(lp3596
(lp3597
tp3598
a(L467248536L
L0L
(lp3599
(lp3600
tp3601
a(L3437651144L
L3785322319L
(lp3602
(lp3603
Vesp_rom_spiflash_read_data
p3604
atp3605
a(L1298875774L
L0L
(lp3606
(lp3607
tp3608
a(L735741265L
L0L
(lp3609
(lp3610
tp3611
atp3612
sI1074238424
(Vbootloader_random_enable
p3613
(lp3614
(L3776654958L
L0L
(lp3615
(lp3616
tp3617
atp3618
sI1074247896
(Vrtc_clk_apb_freq_update
p3619
(lp3620
(L3791435330L
L0L
(lp3621
(lp3622
tp3623
atp3624
sI1074240740
(Vbootloader_utility_load_boot_image
p3625
(lp3626
(L3583044102L
L0L
(lp3627
(lp3628
tp3629
a(L534474525L
L3785322319L
(lp3630
(lp3631
Vtry_load_partition
p3632
atp3633
a(L1346171890L
L3785322319L
(lp3634
(lp3635
Vload_image
p3636
atp3637
a(L3662849985L
L1880226080L
(lp3638
(lp3639
Vesp_log_early_timestamp
p3640
aVbootloader_reset
p3641
atp3642
a(L471331349L
L3785322319L
(lp3643
(lp3644
Vindex_to_partition
p3645
atp3646
a(L889780906L
L3785322319L
(lp3647
(lp3648
Vcheck_anti_rollback
p3649
atp3650
a(L1255570883L
L3785322319L
(lp3651
(lp3652
Vtry_load_partition
p3653
atp3654
a(L170811925L
L1880226080L
(lp3655
(lp3656
Vset_actual_ota_seq
p3657
aVload_image
p3658
atp3659
a(L1391131227L
L3785322319L
(lp3660
(lp3661
Vlog_invalid_app_partition
p3662
atp3663
a(L11368960L
L0L
(lp3664
(lp3665
tp3666
a(L3802068281L
L0L
(lp3667
(lp3668
tp3669
a(L3021737L
L0L
(lp3670
(lp3671
tp3672
a(L4238347245L
L0L
(lp3673
(lp3674
tp3675
a(L3969617880L
L3785322319L
(lp3676
(lp3677
Vindex_to_partition
p3678
atp3679
a(L889780906L
L3785322319L
(lp3680
(lp3681
Vcheck_anti_rollback
p3682
atp3683
a(L1255570883L
L3785322319L
(lp3684
(lp3685
Vtry_load_partition
p3686
atp3687
a(L2740298324L
L1880226080L
(lp3688
(lp3689
Vset_actual_ota_seq
p3690
aVload_image
p3691
atp3692
a(L2162300612L
L3785322319L
(lp3693
(lp3694
Vlog_invalid_app_partition
p3695
atp3696
a(L3307283485L
L0L
(lp3697
(lp3698
tp3699
a(L1508906068L
L0L
(lp3700
(lp3701
tp3702
a(L2528911837L
L3785322319L
(lp3703
(lp3704
Vtry_load_partition
p3705
atp3706
a(L1948335271L
L1880226080L
(lp3707
(lp3708
Vesp_log_early_timestamp
p3709
aVload_image
p3710
atp3711
a(L2002950903L
L1880226080L
(lp3712
(lp3713
Vesp_log_early_timestamp
p3714
aVbootloader_reset
p3715
atp3716
atp3717
sI1074267884
(Vwdt_reset_cpu0_info_enable
p3718
(lp3719
(L4219338206L
L0L
(lp3720
(lp3721
tp3722
atp3723
sI1074240992
(Vindex_to_partition
p3724
(lp3725
(L4066096119L
L0L
(lp3726
(lp3727
tp3728
a(L937847257L
L0L
(lp3729
(lp3730
tp3731
a(L2808906342L
L0L
(lp3732
(lp3733
tp3734
a(L1765918994L
L0L
(lp3735
(lp3736
tp3737
a(L2808826781L
L0L
(lp3738
(lp3739
tp3740
a(L2911029954L
L0L
(lp3741
(lp3742
tp3743
a(L544791756L
L0L
(lp3744
(lp3745
tp3746
a(L1984670054L
L0L
(lp3747
(lp3748
tp3749
a(L3698927993L
L0L
(lp3750
(lp3751
tp3752
atp3753
sI1074239212
(Vlog_invalid_app_partition
p3754
(lp3755
(L3686132467L
L0L
(lp3756
(lp3757
tp3758
a(L3028464L
L0L
(lp3759
(lp3760
tp3761
a(L90812228L
L3785322319L
(lp3762
(lp3763
Vesp_log_early_timestamp
p3764
atp3765
a(L1504489145L
L3785322319L
(lp3766
(lp3767
Vesp_log_early_timestamp
p3768
atp3769
a(L444413052L
L3785322319L
(lp3770
(lp3771
Vesp_log_early_timestamp
p3772
atp3773
a(L3496950L
L0L
(lp3774
(lp3775
tp3776
atp3777
sI1074236140
(Vbootloader_read_flash_id
p3778
(lp3779
(L1815620575L
L3785322319L
(lp3780
(lp3781
Vexecute_flash_command
p3782
atp3783
atp3784
sI1074241772
(Vverify_checksum
p3785
(lp3786
(L2404488809L
L3785322319L
(lp3787
(lp3788
Vbootloader_flash_read
p3789
atp3790
a(L1157599656L
L3785322319L
(lp3791
(lp3792
Vesp_log_early_timestamp
p3793
atp3794
a(L3020204L
L0L
(lp3795
(lp3796
tp3797
a(L2547710365L
L3785322319L
(lp3798
(lp3799
Vbootloader_sha256_data
p3800
atp3801
a(L4124473353L
L0L
(lp3802
(lp3803
tp3804
a(L1223427414L
L0L
(lp3805
(lp3806
tp3807
a(L4270503677L
L0L
(lp3808
(lp3809
tp3810
a(L3360570486L
L0L
(lp3811
(lp3812
tp3813
atp3814
sI1074246124
(Vrtc_wdt_disable
p3815
(lp3816
(L1233433337L
L3785322319L
(lp3817
(lp3818
Vrtc_wdt_get_protect_status
p3819
atp3820
a(L3827921190L
L3785322319L
(lp3821
(lp3822
Vrtc_wdt_protect_off
p3823
atp3824
a(L3181629913L
L2485746240L
(lp3825
(lp3826
Vrtc_wdt_set_stage
p3827
aVrtc_wdt_set_stage
p3828
aVrtc_wdt_set_stage
p3829
aVrtc_wdt_set_stage
p3830
atp3831
a(L94425498L
L3785322319L
(lp3832
(lp3833
Vrtc_wdt_protect_on
p3834
atp3835
a(L3360570486L
L0L
(lp3836
(lp3837
tp3838
atp3839
sI1074244072
(Vesp_rom_spiflash_erase_sector_internal
p3840
(lp3841
(L3143713660L
L0L
(lp3842
(lp3843
tp3844
a(L1961361637L
L3785322319L
(lp3845
(lp3846
Vesp_rom_spiflash_wait_idle
p3847
atp3848
a(L3755940711L
L0L
(lp3849
(lp3850
tp3851
a(L175395183L
L3785322319L
(lp3852
(lp3853
Vesp_rom_spiflash_wait_idle
p3854
atp3855
a(L2258688483L
L0L
(lp3856
(lp3857
tp3858
a(L3360570486L
L0L
(lp3859
(lp3860
tp3861
atp3862
sI1074237928
(Vbootloader_munmap
p3863
(lp3864
(L980128336L
L0L
(lp3865
(lp3866
tp3867
a(L1938740746L
L0L
(lp3868
(lp3869
tp3870
a(L3360570486L
L0L
(lp3871
(lp3872
tp3873
atp3874
sI1074246900
(Vrtc_clk_8md256_enabled
p3875
(lp3876
(L619852148L
L0L
(lp3877
(lp3878
tp3879
atp3880
sI1074247924
(Vrtc_clk_cpu_freq_to_xtal
p3881
(lp3882
(L2808663646L
L3785322319L
(lp3883
(lp3884
Vrtc_clk_apb_freq_update
p3885
atp3886
a(L226430330L
L0L
(lp3887
(lp3888
tp3889
a(L137634225L
L0L
(lp3890
(lp3891
tp3892
a(L3360570486L
L0L
(lp3893
(lp3894
tp3895
atp3896
sI1074268156
(Vprint_flash_info
p3897
(lp3898
(L2711731451L
L0L
(lp3899
(lp3900
tp3901
a(L608600031L
L0L
(lp3902
(lp3903
tp3904
a(L3020187L
L0L
(lp3905
(lp3906
tp3907
a(L225150647L
L0L
(lp3908
(lp3909
tp3910
a(L460429684L
L0L
(lp3911
(lp3912
tp3913
a(L460429560L
L0L
(lp3914
(lp3915
tp3916
a(L460430397L
L0L
(lp3917
(lp3918
tp3919
a(L460429684L
L0L
(lp3920
(lp3921
tp3922
a(L3201441249L
L0L
(lp3923
(lp3924
tp3925
a(L1848995258L
L3785322319L
(lp3926
(lp3927
Vesp_log_early_timestamp
p3928
atp3929
a(L3017366L
L0L
(lp3930
(lp3931
tp3932
a(L3017366L
L0L
(lp3933
(lp3934
tp3935
a(L3017366L
L0L
(lp3936
(lp3937
tp3938
a(L3016870L
L0L
(lp3939
(lp3940
tp3941
a(L460431606L
L0L
(lp3942
(lp3943
tp3944
a(L460430521L
L0L
(lp3945
(lp3946
tp3947
a(L460430645L
L0L
(lp3948
(lp3949
tp3950
a(L460431482L
L0L
(lp3951
(lp3952
tp3953
a(L460431358L
L0L
(lp3954
(lp3955
tp3956
a(L3201441280L
L0L
(lp3957
(lp3958
tp3959
a(L17431379L
L3785322319L
(lp3960
(lp3961
Vesp_log_early_timestamp
p3962
atp3963
a(L937550364L
L0L
(lp3964
(lp3965
tp3966
a(L703425374L
L0L
(lp3967
(lp3968
tp3969
a(L3185200879L
L3785322319L
(lp3970
(lp3971
Vesp_log_early_timestamp
p3972
atp3973
atp3974
sI1074268400
(Vuart_console_configure
p3975
(lp3976
(L3427826548L
L0L
(lp3977
(lp3978
tp3979
a(L2092736903L
L0L
(lp3980
(lp3981
tp3982
a(L4185365725L
L3785322319L
(lp3983
(lp3984
Vrtc_clk_apb_freq_get
p3985
atp3986
atp3987
sI1074243580
(Vbootloader_load_image
p3988
(lp3989
(L267004326L
L3785322319L
(lp3990
(lp3991
Vimage_load
p3992
atp3993
atp3994
sI1074239484
(Vset_actual_ota_seq
p3995
(lp3996
(L4094723830L
L0L
(lp3997
(lp3998
tp3999
a(L560452690L
L0L
(lp4000
(lp4001
tp4002
a(L2457209721L
L3785322319L
(lp4003
(lp4004
Vbootloader_common_ota_select_crc
p4005
atp4006
a(L3016870L
L0L
(lp4007
(lp4008
tp4009
a(L2175534482L
L0L
(lp4010
(lp4011
tp4012
a(L1139269215L
L0L
(lp4013
(lp4014
tp4015
a(L3028481L
L0L
(lp4016
(lp4017
tp4018
a(L2996572586L
L1880226080L
(lp4019
(lp4020
Vwrite_otadata
p4021
aVesp_log_early_timestamp
p4022
atp4023
a(L3360570486L
L0L
(lp4024
(lp4025
tp4026
atp4027
sI1074237692
(Vbootloader_flash_read_no_decrypt
p4028
(lp4029
(L581569905L
L1880226080L
(lp4030
(lp4031
Vesp_rom_spiflash_read
p4032
aVspi_to_esp_err
p4033
atp4034
atp4035
sI1074246652
(Vrtc_clk_32k_enable
p4036
(lp4037
(L753387299L
L0L
(lp4038
(lp4039
tp4040
a(L958782923L
L3785322319L
(lp4041
(lp4042
Vrtc_clk_32k_enable_common
p4043
atp4044
a(L3528263542L
L0L
(lp4045
(lp4046
tp4047
a(L3360570486L
L0L
(lp4048
(lp4049
tp4050
atp4051
ssS'functionsdups'
p4052
g11
((lp4053
tp4054
Rp4055
sS'immediatedups'
p4056
g11
((lp4057
tp4058
Rp4059
sS'functiondups'
p4060
g11
((lp4061
tp4062
Rp4063
sS'fuzzy'
p4064
(dp4065
L1536L
I1074240696
sL3718826409L
I1074236236
sL4061702297L
I1074244020
sL430153639L
I1074242364
sL1655084846L
I1074244664
sL4289748025L
I1074237744
sL45806640L
I1074241620
sL2479661889L
I1074246124
sL3538491111L
I1074247924
sL3669996080L
I1074237204
sL4155208228L
I1074239300
sL1370598945L
I1074240088
sL2661072904L
I1074240740
sL2281838360L
I1074240456
sL1845968921L
I1074237532
sL2834878951L
I1074237984
sL313524880L
I1074238128
sL1205197046L
I1074239484
sL3110146889L
I1074239872
sL3802805760L
I1074241076
sL4031437920L
I1074244072
sL1014503250L
I1074244364
sL3270437317L
I1074236380
sL4059437021L
I1074248308
sL1338770016L
I1074241224
sL1892234469L
I1074244424
sL2914853138L
I1074236988
sL3803452955L
I1074243596
sL4103879596L
I1074242440
sL3249905159L
I1074241772
sL2738222727L
I1074247692
sL4134193241L
I1074242252
sL275633497L
I1074269048
sL3697242601L
I1074244988
sL2819663145L
I1074247592
sL2874826336L
I1074235576
sL2662108055L
I1074237028
sL1634949710L
I1074244768
sL1383394121L
I1074270352
sL3948451046L
I1074241396
sL2935879234L
I1074236184
sL512571597L
I1074267828
sL3504571296L
I1074242916
sL578413630L
I1074241920
sL3210669721L
I1074246652
sL533883930L
I1074268456
sL2281126695L
I1074244136
sL4160102055L
I1074269016
sL1768086576L
I1074234824
sL545460565L
I1074267780
sL1107446613L
I1074239212
sL3476065511L
I1074269572
sL562412638L
I1074267924
sL2033964903L
I1074247016
sL3703834906L
I1074269396
sL1381401481L
I1074239428
sL3708199143L
I1074247120
sL530701251L
I1074242056
sL3380377753L
I1074245080
sL1179079586L
I1074248060
sL1178348887L
I1074236824
sL2020016265L
I1074241668
sL4065942187L
I1074268156
sL4155364446L
I1074237072
sL3883282432L
I1074236696
sL3271076352L
I1074245928
sL3897638057L
I1074268400
sL64292014L
I1074239596
sL2605918760L
I1074268720
ssb.