ccopy_reg
_reconstructor
p0
(crizzo
RizzoSignature
p1
c__builtin__
object
p2
Ntp3
Rp4
(dp5
S'formal'
p6
(dp7
L842800702L
I1074245864
sL871500273L
I1074245536
sL2382735105L
I1074245296
sL2504164679L
I1074245676
sL1958505659L
I1074240516
sL4120251793L
I1074241624
sL879513446L
I1074239680
sL1741170115L
I1074237932
sL4057657041L
I1074243080
sL1725217240L
I1074237680
sL1073223159L
I1074239316
sL899508882L
I1074245164
sL1065111407L
I1074241172
sL1412552226L
I1074247028
sL475533132L
I1074238712
sL3325222694L
I1074268916
sL3657255400L
I1074245404
sL1127322148L
I1074269556
sL4160769560L
I1074269420
sL4154259590L
I1074245116
sL4213015302L
I1074243064
sL3687935950L
I1074247416
sL1457770435L
I1074268620
sL2207125935L
I1074247608
sL3183029151L
I1074236700
sL818480367L
I1074236596
sL3860623157L
I1074247356
sL2702580795L
I1074237296
sL2294953444L
I1074240980
sL2269406580L
I1074267788
sL847002958L
I1074244868
sL2396805871L
I1074239196
sL2896295319L
I1074236836
sL1716532329L
I1074244480
sL672637994L
I1074269488
sL4081321594L
I1074245324
sL1674148343L
I1074245444
sL1032419019L
I1074241716
sL2582030756L
I1074244988
sL2485902447L
I1074236676
sL3447792584L
I1074240360
sL4263947382L
I1074236500
sL1430212718L
I1074236996
sL2641606176L
I1074240808
sL13079699L
I1074270480
sL2166402678L
I1074235772
sL3791484843L
I1074267139
sL1585823442L
I1074244380
sL1037898884L
I1074241844
sL1622896354L
I1074244408
sL609840896L
I1074269776
sL2771128688L
I1074247060
sL3350648555L
I1074237404
sL3138286928L
I1074244548
sL3539619493L
I1074269860
sL878917889L
I1074238120
sL3241217362L
I1074240024
sL747962360L
I1074236740
sL560179469L
I1074243368
sL3906855341L
I1074244928
sL3169546899L
I1074236352
sL2128774811L
I1074236532
sL3321477504L
I1074238660
sL4130617930L
I1074240752
sL602601834L
I1074269684
sL1712221327L
I1074247908
sL426984944L
I1074236908
sL676927194L
I1074268908
sL2277098556L
I1074236808
sL2013050233L
I1074247308
sL3307282855L
I1074238092
sL911764690L
I1074237628
sL2880449850L
I1074244712
sL1288093517L
I1074242564
sL2563964767L
I1074235884
sL1043339424L
I1074240264
sL3697962481L
I1074247996
sL1687894276L
I1074244280
sL4038945309L
I1074235568
sL2626436395L
I1074236940
sL3634983438L
I1074245748
sL678848990L
I1074240728
sL1458403909L
I1074269712
sL2997001746L
I1074237228
sL4080382853L
I1074247744
sL3298106919L
I1074238836
sL4803579L
I1074270640
sL3600274720L
I1074269404
sL2819127986L
I1074236960
sL1312784261L
I1074270044
sL3073265555L
I1074237952
sL3275213961L
I1074238200
sL3744494321L
I1074238612
sL1877634603L
I1074270712
sL1541017880L
I1074269444
sL1317093701L
I1074238528
sL3379108269L
I1074243964
sL3020283585L
I1074244576
sL3459889393L
I1074244312
sL1333097661L
I1074268676
sL1906585453L
I1074241228
sL404293581L
I1074237372
sL2263182908L
I1074238112
sL1592037182L
I1074247220
sL1267159130L
I1074235224
sL3630163135L
I1074236824
sL2955219653L
I1074245140
sL188664287L
I1074235192
sL1587014771L
I1074239992
sL1499807873L
I1074244508
sL692536993L
I1074237268
sL729611412L
I1074245720
sL3795520467L
I1074246548
sL1963047656L
I1074234712
sL3004414718L
I1074240340
sL3855719998L
I1074245388
sL3149616203L
I1074240712
sL1636616062L
I1074235516
sL3049985855L
I1074235616
sL1419559785L
I1074246592
sL4242416936L
I1074269812
sL3018942732L
I1074267680
ssS'immediates'
p8
(dp9
sS'formaldups'
p10
c__builtin__
set
p11
((lp12
tp13
Rp14
sS'stringdups'
p15
g11
((lp16
tp17
Rp18
sS'fuzzydups'
p19
g11
((lp20
tp21
Rp22
sS'strings'
p23
(dp24
sS'functions'
p25
(dp26
I1074236676
(Vefuse_hal_chip_revision
p27
(lp28
(L2719302832L
L1880226080L
(lp29
(lp30
Vefuse_hal_get_major_chip_version
p31
aVefuse_hal_get_minor_chip_version
p32
atp33
atp34
sI1074240516
(Vbootloader_sha256_finish
p35
(lp36
(L4066096136L
L0L
(lp37
(lp38
tp39
a(L3700221434L
L0L
(lp40
(lp41
tp42
a(L3769576247L
L3785322319L
(lp43
(lp44
V__assert_func
p45
atp46
a(L3020204L
L0L
(lp47
(lp48
tp49
a(L4203940480L
L0L
(lp50
(lp51
tp52
a(L2534656226L
L0L
(lp53
(lp54
tp55
a(L2983921586L
L3785322319L
(lp56
(lp57
Vbootloader_sha256_data
p58
atp59
a(L1663378153L
L0L
(lp60
(lp61
tp62
a(L4057907435L
L3785322319L
(lp63
(lp64
Vbootloader_sha256_data
p65
atp66
a(L1708642847L
L0L
(lp67
(lp68
tp69
a(L657425439L
L0L
(lp70
(lp71
tp72
a(L4126561661L
L0L
(lp73
(lp74
tp75
a(L657425439L
L0L
(lp76
(lp77
tp78
a(L1118122324L
L0L
(lp79
(lp80
tp81
a(L1411254304L
L0L
(lp82
(lp83
tp84
a(L3347778L
L0L
(lp85
(lp86
tp87
a(L3360570486L
L0L
(lp88
(lp89
tp90
atp91
sI1074242564
(Vimage_load
p92
(lp93
(L3559420668L
L0L
(lp94
(lp95
tp96
a(L1899869541L
L0L
(lp97
(lp98
tp99
a(L979631281L
L0L
(lp100
(lp101
tp102
a(L1525480527L
L0L
(lp103
(lp104
tp105
a(L1043148059L
L0L
(lp106
(lp107
tp108
a(L2796536461L
L0L
(lp109
(lp110
tp111
a(L2167622269L
L3785322319L
(lp112
(lp113
Vesp_log_early_timestamp
p114
atp115
a(L2068384292L
L0L
(lp116
(lp117
tp118
a(L1968553470L
L3785322319L
(lp119
(lp120
Vbootloader_sha256_finish
p121
atp122
a(L2282644308L
L0L
(lp123
(lp124
tp125
a(L3225218531L
L0L
(lp126
(lp127
tp128
a(L3802071166L
L0L
(lp129
(lp130
tp131
a(L1301867039L
L3785322319L
(lp132
(lp133
Vprocess_image_header
p134
atp135
a(L560228796L
L0L
(lp136
(lp137
tp138
a(L4185758499L
L0L
(lp139
(lp140
tp141
a(L1530940255L
L3785322319L
(lp142
(lp143
Vprocess_segments
p144
atp145
a(L1233227930L
L0L
(lp146
(lp147
tp148
a(L4139426811L
L0L
(lp149
(lp150
tp151
a(L2570888687L
L3785322319L
(lp152
(lp153
Vprocess_checksum
p154
atp155
a(L425503098L
L3785322319L
(lp156
(lp157
Vprocess_appended_hash_and_sig
p158
atp159
a(L780930979L
L0L
(lp160
(lp161
tp162
a(L2334355956L
L0L
(lp163
(lp164
tp165
a(L2215150936L
L0L
(lp166
(lp167
tp168
a(L1128119477L
L1880226080L
(lp169
(lp170
Vbootloader_sha256_finish
p171
aVbootloader_debug_buffer
p172
atp173
a(L1470712864L
L1880226080L
(lp174
(lp175
Vesp_log_early_timestamp
p176
aVbootloader_debug_buffer
p177
atp178
a(L1087646176L
L0L
(lp179
(lp180
tp181
a(L2068384292L
L0L
(lp182
(lp183
tp184
a(L3021148818L
L3785322319L
(lp185
(lp186
Vbootloader_sha256_finish
p187
atp188
a(L3028481L
L0L
(lp189
(lp190
tp191
a(L139701033L
L0L
(lp192
(lp193
tp194
a(L2510919588L
L0L
(lp195
(lp196
tp197
a(L772115669L
L0L
(lp198
(lp199
tp200
a(L2787789065L
L0L
(lp201
(lp202
tp203
a(L85798113L
L0L
(lp204
(lp205
tp206
a(L1351513776L
L0L
(lp207
(lp208
tp209
a(L159346313L
L3785322319L
(lp210
(lp211
Vshould_load
p212
atp213
a(L4218574503L
L0L
(lp214
(lp215
tp216
a(L3338774213L
L0L
(lp217
(lp218
tp219
a(L3464541874L
L0L
(lp220
(lp221
tp222
a(L3349572949L
L0L
(lp223
(lp224
tp225
a(L2192292519L
L0L
(lp226
(lp227
tp228
a(L106L
L0L
(lp229
(lp230
tp231
a(L26615924L
L0L
(lp232
(lp233
tp234
a(L1299866312L
L0L
(lp235
(lp236
tp237
a(L490060329L
L0L
(lp238
(lp239
tp240
atp241
sI1074244868
(Vrtc_clk_bbpll_disable
p242
(lp243
(L545288955L
L0L
(lp244
(lp245
tp246
a(L2472207241L
L0L
(lp247
(lp248
tp249
a(L3360570486L
L0L
(lp250
(lp251
tp252
atp253
sI1074237952
(Vbootloader_flash_write
p254
(lp255
(L3770380603L
L0L
(lp256
(lp257
tp258
a(L379117946L
L3785322319L
(lp259
(lp260
Vesp_log_early_timestamp
p261
atp262
a(L283255622L
L0L
(lp263
(lp264
tp265
a(L1610445075L
L0L
(lp266
(lp267
tp268
a(L735741265L
L0L
(lp269
(lp270
tp271
a(L3291333414L
L0L
(lp272
(lp273
tp274
a(L553944362L
L3785322319L
(lp275
(lp276
Vesp_log_early_timestamp
p277
atp278
a(L3283691850L
L0L
(lp279
(lp280
tp281
a(L3791206662L
L3785322319L
(lp282
(lp283
Vesp_log_early_timestamp
p284
atp285
a(L3212356251L
L3785322319L
(lp286
(lp287
Vbootloader_flash_unlock
p288
atp289
a(L1799218633L
L0L
(lp290
(lp291
tp292
a(L94425498L
L3785322319L
(lp293
(lp294
Vesp_rom_spiflash_write_encrypted
p295
atp296
a(L2927190544L
L3785322319L
(lp297
(lp298
Vspi_to_esp_err
p299
atp300
a(L2927190544L
L3785322319L
(lp301
(lp302
Vesp_rom_spiflash_write
p303
atp304
atp305
sI1074267136
(V_init
p306
(lp307
(L3493042598L
L0L
(lp308
(lp309
tp310
atp311
sI1074236940
(Vbootloader_common_ota_select_crc
p312
(lp313
(L3214440559L
L0L
(lp314
(lp315
tp316
atp317
sI1074245388
(Vrtc_clk_fast_src_get
p318
(lp319
(L3842566286L
L0L
(lp320
(lp321
tp322
atp323
sI1074267139
(V_text_start
p324
(lp325
(L1817914933L
L0L
(lp326
(lp327
tp328
a(L536106224L
L0L
(lp329
(lp330
tp331
atp332
sI1074268676
(Vbootloader_clock_configure
p333
(lp334
(L2559598596L
L1880226080L
(lp335
(lp336
Vesp_rom_uart_tx_wait_idle
p337
aVefuse_hal_chip_revision
p338
atp339
a(L2957267460L
L0L
(lp340
(lp341
tp342
a(L883406775L
L0L
(lp343
(lp344
tp345
a(L106L
L0L
(lp346
(lp347
tp348
a(L1418262256L
L1832448559L
(lp349
(lp350
Vrtc_clk_slow_src_get
p351
aVrtc_clk_fast_src_get
p352
aVrtc_clk_init
p353
atp354
a(L3184814094L
L0L
(lp355
(lp356
tp357
a(L1022947098L
L3785322319L
(lp358
(lp359
Vrtc_clk_apb_freq_get
p360
atp361
a(L106L
L0L
(lp362
(lp363
tp364
a(L106L
L0L
(lp365
(lp366
tp367
atp368
sI1074269444
(Vbootloader_read_bootloader_header
p369
(lp370
(L820832178L
L3785322319L
(lp371
(lp372
Vbootloader_flash_read
p373
atp374
a(L3109664945L
L3785322319L
(lp375
(lp376
Vesp_log_early_timestamp
p377
atp378
a(L735741265L
L0L
(lp379
(lp380
tp381
atp382
sI1074240264
(Vindex_to_partition
p383
(lp384
(L4066096119L
L0L
(lp385
(lp386
tp387
a(L1739185955L
L0L
(lp388
(lp389
tp390
a(L2171552758L
L0L
(lp391
(lp392
tp393
a(L2808906342L
L0L
(lp394
(lp395
tp396
a(L2101481936L
L0L
(lp397
(lp398
tp399
a(L3698927993L
L0L
(lp400
(lp401
tp402
a(L2808826781L
L0L
(lp403
(lp404
tp405
a(L3003398163L
L0L
(lp406
(lp407
tp408
a(L2880709161L
L0L
(lp409
(lp410
tp411
a(L1087646172L
L0L
(lp412
(lp413
tp414
atp415
sI1074243080
(Vesp_partition_table_verify
p416
(lp417
(L1927580282L
L0L
(lp418
(lp419
tp420
a(L3688263406L
L0L
(lp421
(lp422
tp423
a(L4090921686L
L0L
(lp424
(lp425
tp426
a(L2910371777L
L0L
(lp427
(lp428
tp429
a(L2810785767L
L0L
(lp430
(lp431
tp432
a(L3360570486L
L0L
(lp433
(lp434
tp435
a(L3190337587L
L0L
(lp436
(lp437
tp438
a(L2069928857L
L0L
(lp439
(lp440
tp441
a(L3020204L
L0L
(lp442
(lp443
tp444
a(L4240560509L
L3785322319L
(lp445
(lp446
Vesp_log_early_timestamp
p447
atp448
a(L4145115729L
L3785322319L
(lp449
(lp450
Vesp_log_early_timestamp
p451
atp452
a(L510839312L
L0L
(lp453
(lp454
tp455
a(L2902417580L
L0L
(lp456
(lp457
tp458
a(L3020204L
L0L
(lp459
(lp460
tp461
a(L2215002226L
L3785322319L
(lp462
(lp463
Vesp_log_early_timestamp
p464
atp465
a(L190989796L
L0L
(lp466
(lp467
tp468
a(L3655331517L
L0L
(lp469
(lp470
tp471
a(L2902417580L
L0L
(lp472
(lp473
tp474
a(L4240559796L
L3785322319L
(lp475
(lp476
Vesp_log_early_timestamp
p477
atp478
a(L1305407469L
L0L
(lp479
(lp480
tp481
a(L1167861556L
L0L
(lp482
(lp483
tp484
a(L3914073261L
L0L
(lp485
(lp486
tp487
a(L2910371777L
L0L
(lp488
(lp489
tp490
a(L1235012932L
L0L
(lp491
(lp492
tp493
a(L1466029950L
L3785322319L
(lp494
(lp495
Vesp_log_early_timestamp
p496
atp497
atp498
sI1074245140
(Vrtc_clk_8md256_enabled
p499
(lp500
(L3269698613L
L0L
(lp501
(lp502
tp503
atp504
sI1074269712
(Vbootloader_print_banner
p505
(lp506
(L3551273434L
L1832448559L
(lp507
(lp508
Vesp_log_early_timestamp
p509
aVesp_log_early_timestamp
p510
aVesp_log_early_timestamp
p511
atp512
atp513
sI1074270480
(Vrtc_vddsdio_get_config
p514
(lp515
(L1158496952L
L0L
(lp516
(lp517
tp518
a(L3421108135L
L0L
(lp519
(lp520
tp521
a(L3002774692L
L0L
(lp522
(lp523
tp524
a(L875820931L
L0L
(lp525
(lp526
tp527
a(L3960235376L
L0L
(lp528
(lp529
tp530
a(L339089969L
L0L
(lp531
(lp532
tp533
a(L1306330959L
L0L
(lp534
(lp535
tp536
a(L864600520L
L0L
(lp537
(lp538
tp539
atp540
sI1074244380
(Vwdt_hal_write_protect_enable
p541
(lp542
(L387778158L
L0L
(lp543
(lp544
tp545
a(L4195472003L
L0L
(lp546
(lp547
tp548
a(L3360570486L
L0L
(lp549
(lp550
tp551
a(L802523425L
L0L
(lp552
(lp553
tp554
atp555
sI1074236700
(Vefuse_hal_flash_encryption_enabled
p556
(lp557
(L176925918L
L0L
(lp558
(lp559
tp560
a(L2910371777L
L0L
(lp561
(lp562
tp563
a(L3360570486L
L0L
(lp564
(lp565
tp566
a(L3016870L
L0L
(lp567
(lp568
tp569
a(L3745038218L
L0L
(lp570
(lp571
tp572
a(L957607403L
L0L
(lp573
(lp574
tp575
atp576
sI1074245404
(Vrtc_clk_xtal_freq_get
p577
(lp578
(L1141112989L
L0L
(lp579
(lp580
tp581
a(L2847936993L
L0L
(lp582
(lp583
tp584
a(L210824888L
L0L
(lp585
(lp586
tp587
a(L3360570486L
L0L
(lp588
(lp589
tp590
atp591
sI1074240024
(Vbootloader_utility_load_boot_image
p592
(lp593
(L3470766666L
L0L
(lp594
(lp595
tp596
a(L2177418995L
L3785322319L
(lp597
(lp598
Vtry_load_partition
p599
atp600
a(L1305243774L
L3785322319L
(lp601
(lp602
Vload_image
p603
atp604
a(L1542755226L
L3785322319L
(lp605
(lp606
Vesp_log_early_timestamp
p607
atp608
a(L3827921190L
L3785322319L
(lp609
(lp610
Vbootloader_reset
p611
atp612
a(L1953693036L
L3785322319L
(lp613
(lp614
Vindex_to_partition
p615
atp616
a(L1204373741L
L3785322319L
(lp617
(lp618
Vtry_load_partition
p619
atp620
a(L1899865696L
L0L
(lp621
(lp622
tp623
a(L2695355117L
L3785322319L
(lp624
(lp625
Vset_actual_ota_seq
p626
atp627
a(L1868897605L
L3785322319L
(lp628
(lp629
Vlog_invalid_app_partition
p630
atp631
a(L831650730L
L0L
(lp632
(lp633
tp634
a(L3021737L
L0L
(lp635
(lp636
tp637
a(L695456438L
L0L
(lp638
(lp639
tp640
a(L1129532116L
L3785322319L
(lp641
(lp642
Vtry_load_partition
p643
atp644
a(L1880966832L
L3785322319L
(lp645
(lp646
Vesp_log_early_timestamp
p647
atp648
a(L2347390157L
L3785322319L
(lp649
(lp650
Vindex_to_partition
p651
atp652
a(L1204373741L
L3785322319L
(lp653
(lp654
Vtry_load_partition
p655
atp656
a(L3061261803L
L0L
(lp657
(lp658
tp659
a(L3582858798L
L3785322319L
(lp660
(lp661
Vlog_invalid_app_partition
p662
atp663
a(L938772144L
L3785322319L
(lp664
(lp665
Vesp_log_early_timestamp
p666
atp667
atp668
sI1074240800
(Vbootloader_ana_clock_glitch_reset_config
p669
(lp670
(L2100504542L
L0L
(lp671
(lp672
tp673
atp674
sI1074236960
(Vbootloader_common_ota_select_valid
p675
(lp676
(L1563399710L
L3785322319L
(lp677
(lp678
Vbootloader_common_ota_select_invalid
p679
atp680
a(L3814720849L
L3785322319L
(lp681
(lp682
Vbootloader_common_ota_select_crc
p683
atp684
a(L3360570486L
L0L
(lp685
(lp686
tp687
atp688
sI1074267680
(Vcall_start_cpu0
p689
(lp690
(L1137852827L
L0L
(lp691
(lp692
tp693
a(L549459388L
L0L
(lp694
(lp695
tp696
a(L3212347974L
L3785322319L
(lp697
(lp698
Vbootloader_init
p699
atp700
a(L94425498L
L3785322319L
(lp701
(lp702
Vbootloader_reset
p703
atp704
a(L1122046408L
L0L
(lp705
(lp706
tp707
a(L4099474112L
L0L
(lp708
(lp709
tp710
a(L3015046664L
L3785322319L
(lp711
(lp712
Vbootloader_utility_load_partition_table
p713
atp714
a(L2761094216L
L3785322319L
(lp715
(lp716
Vesp_log_early_timestamp
p717
atp718
a(L405422123L
L3785322319L
(lp719
(lp720
Vbootloader_utility_get_selected_boot_partition
p721
atp722
a(L2055385849L
L3785322319L
(lp723
(lp724
Vbootloader_utility_load_boot_image
p725
atp726
atp727
sI1074237228
(Vbootloader_common_get_active_otadata
p728
(lp729
(L3317503532L
L0L
(lp730
(lp731
tp732
a(L2503049265L
L1832448559L
(lp733
(lp734
Vbootloader_common_ota_select_valid
p735
aVbootloader_common_ota_select_valid
p736
aVbootloader_common_select_otadata
p737
atp738
a(L735741265L
L0L
(lp739
(lp740
tp741
atp742
sI1074245164
(Vrtc_clk_slow_src_set
p743
(lp744
(L3908197081L
L0L
(lp745
(lp746
tp747
a(L3020187L
L0L
(lp748
(lp749
tp750
a(L3028481L
L0L
(lp751
(lp752
tp753
a(L487821223L
L0L
(lp754
(lp755
tp756
a(L3646845957L
L0L
(lp757
(lp758
tp759
a(L1851908495L
L0L
(lp760
(lp761
tp762
a(L1555782902L
L0L
(lp763
(lp764
tp765
a(L3138544334L
L0L
(lp766
(lp767
tp768
a(L94425498L
L3785322319L
(lp769
(lp770
Vabort
p771
atp772
atp773
sI1074245676
(Vrtc_clk_xtal_freq_update
p774
(lp775
(L1106391585L
L0L
(lp776
(lp777
tp778
a(L3509357017L
L0L
(lp779
(lp780
tp781
a(L2266180931L
L0L
(lp782
(lp783
tp784
atp785
sI1074248748
(V_fini
p786
(lp787
(L3493042598L
L0L
(lp788
(lp789
tp790
atp791
sI1074240808
(Vprocess_checksum
p792
(lp793
(L1375822962L
L0L
(lp794
(lp795
tp796
a(L2910371777L
L0L
(lp797
(lp798
tp799
a(L186886970L
L0L
(lp800
(lp801
tp802
a(L2910371777L
L0L
(lp803
(lp804
tp805
a(L3020204L
L0L
(lp806
(lp807
tp808
a(L2480703612L
L3785322319L
(lp809
(lp810
Vbootloader_sha256_data
p811
atp812
a(L4179073442L
L0L
(lp813
(lp814
tp815
a(L1811888222L
L3785322319L
(lp816
(lp817
Vbootloader_flash_read
p818
atp819
a(L3126521138L
L0L
(lp820
(lp821
tp822
a(L4138627793L
L0L
(lp823
(lp824
tp825
a(L2335318056L
L3785322319L
(lp826
(lp827
Vesp_log_early_timestamp
p828
atp829
atp830
sI1074243368
(Vwdt_hal_init
p831
(lp832
(L3764531458L
L0L
(lp833
(lp834
tp835
a(L745008699L
L0L
(lp836
(lp837
tp838
a(L2805934244L
L0L
(lp839
(lp840
tp841
a(L3115097993L
L0L
(lp842
(lp843
tp844
a(L1129008730L
L0L
(lp845
(lp846
tp847
a(L3360570486L
L0L
(lp848
(lp849
tp850
a(L3022237171L
L0L
(lp851
(lp852
tp853
atp854
sI1074238516
(Vbootloader_clock_get_rated_freq_mhz
p855
(lp856
(L376617603L
L3785322319L
(lp857
(lp858
Vefuse_hal_get_rated_freq_mhz
p859
atp860
atp861
sI1074241844
(Vprocess_segments
p862
(lp863
(L1018786970L
L0L
(lp864
(lp865
tp866
a(L3285816417L
L0L
(lp867
(lp868
tp869
a(L3782401745L
L0L
(lp870
(lp871
tp872
a(L106L
L0L
(lp873
(lp874
tp875
a(L2411199274L
L0L
(lp876
(lp877
tp878
a(L1441390958L
L3785322319L
(lp879
(lp880
Vesp_log_early_timestamp
p881
atp882
a(L3085209925L
L3785322319L
(lp883
(lp884
Vbootloader_flash_read
p885
atp886
a(L1832532431L
L3785322319L
(lp887
(lp888
Vesp_log_early_timestamp
p889
atp890
a(L3871473710L
L0L
(lp891
(lp892
tp893
a(L234193771L
L0L
(lp894
(lp895
tp896
a(L1635713494L
L3785322319L
(lp897
(lp898
Vbootloader_sha256_data
p899
atp900
a(L165187679L
L0L
(lp901
(lp902
tp903
a(L3712371969L
L0L
(lp904
(lp905
tp906
a(L82090599L
L0L
(lp907
(lp908
tp909
a(L3802067325L
L0L
(lp910
(lp911
tp912
a(L3592389343L
L0L
(lp913
(lp914
tp915
a(L2258867228L
L0L
(lp916
(lp917
tp918
a(L1255782415L
L0L
(lp919
(lp920
tp921
a(L1756760227L
L0L
(lp922
(lp923
tp924
a(L1849436849L
L0L
(lp925
(lp926
tp927
a(L2445032785L
L3785322319L
(lp928
(lp929
Vesp_log_early_timestamp
p930
atp931
a(L3601900694L
L0L
(lp932
(lp933
tp934
a(L568254494L
L0L
(lp935
(lp936
tp937
a(L3953828517L
L3785322319L
(lp938
(lp939
Vesp_log_early_timestamp
p940
atp941
a(L1973629750L
L3785322319L
(lp942
(lp943
Vverify_load_addresses
p944
atp945
a(L106L
L0L
(lp946
(lp947
tp948
a(L914132342L
L0L
(lp949
(lp950
tp951
a(L291460350L
L0L
(lp952
(lp953
tp954
a(L4151532718L
L3785322319L
(lp955
(lp956
Vbootloader_mmap
p957
atp958
a(L456932038L
L3785322319L
(lp959
(lp960
Vesp_log_early_timestamp
p961
atp962
a(L2994776696L
L0L
(lp963
(lp964
tp965
a(L599962516L
L0L
(lp966
(lp967
tp968
a(L1652679798L
L3785322319L
(lp969
(lp970
Vbootloader_munmap
p971
atp972
a(L2993622008L
L0L
(lp973
(lp974
tp975
a(L1216016797L
L3785322319L
(lp976
(lp977
Vbootloader_fill_random
p978
atp979
a(L3570641403L
L0L
(lp980
(lp981
tp982
a(L3574335487L
L0L
(lp983
(lp984
tp985
a(L3450268858L
L0L
(lp986
(lp987
tp988
a(L3021749L
L0L
(lp989
(lp990
tp991
a(L1609678444L
L0L
(lp992
(lp993
tp994
a(L1777728568L
L0L
(lp995
(lp996
tp997
a(L3020204L
L0L
(lp998
(lp999
tp1000
a(L1312354573L
L0L
(lp1001
(lp1002
tp1003
a(L2076461546L
L0L
(lp1004
(lp1005
tp1006
a(L3844184503L
L0L
(lp1007
(lp1008
tp1009
a(L1749969336L
L0L
(lp1010
(lp1011
tp1012
a(L670934548L
L0L
(lp1013
(lp1014
tp1015
a(L781506066L
L3785322319L
(lp1016
(lp1017
Vbootloader_sha256_data
p1018
atp1019
a(L90548756L
L0L
(lp1020
(lp1021
tp1022
a(L4195963580L
L0L
(lp1023
(lp1024
tp1025
a(L2422333549L
L0L
(lp1026
(lp1027
tp1028
a(L3132743422L
L0L
(lp1029
(lp1030
tp1031
a(L249537906L
L3785322319L
(lp1032
(lp1033
Vshould_load
p1034
atp1035
a(L2378267508L
L0L
(lp1036
(lp1037
tp1038
a(L3098292588L
L3785322319L
(lp1039
(lp1040
Vesp_log_early_timestamp
p1041
atp1042
a(L1263395604L
L0L
(lp1043
(lp1044
tp1045
a(L307916924L
L0L
(lp1046
(lp1047
tp1048
a(L2104685467L
L0L
(lp1049
(lp1050
tp1051
a(L81630008L
L0L
(lp1052
(lp1053
tp1054
a(L2742376716L
L0L
(lp1055
(lp1056
tp1057
a(L3786494677L
L3785322319L
(lp1058
(lp1059
Vbootloader_mmap_get_free_pages
p1060
atp1061
a(L2685118414L
L0L
(lp1062
(lp1063
tp1064
a(L2091285670L
L0L
(lp1065
(lp1066
tp1067
atp1068
sI1074247220
(Vesp_rom_spiflash_read_status
p1069
(lp1070
(L2021440545L
L0L
(lp1071
(lp1072
tp1073
a(L1182811815L
L0L
(lp1074
(lp1075
tp1076
a(L487786002L
L0L
(lp1077
(lp1078
tp1079
a(L106L
L0L
(lp1080
(lp1081
tp1082
a(L2000875779L
L0L
(lp1083
(lp1084
tp1085
a(L3274807848L
L0L
(lp1086
(lp1087
tp1088
a(L2123059967L
L0L
(lp1089
(lp1090
tp1091
a(L3146966332L
L0L
(lp1092
(lp1093
tp1094
a(L2392720019L
L0L
(lp1095
(lp1096
tp1097
atp1098
sI1074269488
(Vbootloader_check_bootloader_validity
p1099
(lp1100
(L2851797904L
L1832448559L
(lp1101
(lp1102
Vefuse_hal_chip_revision
p1103
aVesp_log_early_timestamp
p1104
aVbootloader_common_check_chip_validity
p1105
atp1106
atp1107
sI1074247996
(Vesp_rom_spiflash_read
p1108
(lp1109
(L1700247635L
L0L
(lp1110
(lp1111
tp1112
a(L1032961025L
L0L
(lp1113
(lp1114
tp1115
a(L340311750L
L0L
(lp1116
(lp1117
tp1118
a(L2373999345L
L0L
(lp1119
(lp1120
tp1121
a(L106L
L0L
(lp1122
(lp1123
tp1124
a(L633884026L
L0L
(lp1125
(lp1126
tp1127
a(L106L
L0L
(lp1128
(lp1129
tp1130
a(L582979172L
L0L
(lp1131
(lp1132
tp1133
a(L1115217357L
L0L
(lp1134
(lp1135
tp1136
a(L2085251239L
L0L
(lp1137
(lp1138
tp1139
a(L336550648L
L0L
(lp1140
(lp1141
tp1142
a(L2122946069L
L0L
(lp1143
(lp1144
tp1145
a(L106L
L0L
(lp1146
(lp1147
tp1148
a(L807430825L
L3785322319L
(lp1149
(lp1150
Vesp_rom_spiflash_wait_idle
p1151
atp1152
a(L3021737L
L0L
(lp1153
(lp1154
tp1155
a(L106L
L0L
(lp1156
(lp1157
tp1158
a(L1868280504L
L0L
(lp1159
(lp1160
tp1161
a(L106L
L0L
(lp1162
(lp1163
tp1164
a(L3347303182L
L0L
(lp1165
(lp1166
tp1167
a(L1221163038L
L0L
(lp1168
(lp1169
tp1170
a(L4122060822L
L0L
(lp1171
(lp1172
tp1173
a(L3793304644L
L0L
(lp1174
(lp1175
tp1176
a(L2989032L
L0L
(lp1177
(lp1178
tp1179
a(L3819849625L
L0L
(lp1180
(lp1181
tp1182
a(L224514718L
L0L
(lp1183
(lp1184
tp1185
a(L893190794L
L0L
(lp1186
(lp1187
tp1188
a(L3901821471L
L0L
(lp1189
(lp1190
tp1191
a(L815352737L
L0L
(lp1192
(lp1193
tp1194
a(L2921907736L
L0L
(lp1195
(lp1196
tp1197
a(L1328428270L
L0L
(lp1198
(lp1199
tp1200
a(L3294005235L
L0L
(lp1201
(lp1202
tp1203
a(L3207784758L
L0L
(lp1204
(lp1205
tp1206
a(L219350779L
L0L
(lp1207
(lp1208
tp1209
a(L781550816L
L0L
(lp1210
(lp1211
tp1212
a(L2687789892L
L0L
(lp1213
(lp1214
tp1215
a(L1405253496L
L0L
(lp1216
(lp1217
tp1218
a(L910618439L
L0L
(lp1219
(lp1220
tp1221
a(L97689L
L0L
(lp1222
(lp1223
tp1224
a(L1183020347L
L0L
(lp1225
(lp1226
tp1227
a(L4014024819L
L0L
(lp1228
(lp1229
tp1230
a(L3621567083L
L0L
(lp1231
(lp1232
tp1233
atp1234
sI1074235192
(Vbootloader_execute_flash_command
p1235
(lp1236
(L2481595632L
L3785322319L
(lp1237
(lp1238
Vbootloader_flash_execute_command_common
p1239
atp1240
atp1241
sI1074244408
(Vwdt_hal_enable
p1242
(lp1243
(L2299130915L
L0L
(lp1244
(lp1245
tp1246
a(L165794138L
L0L
(lp1247
(lp1248
tp1249
a(L3360570486L
L0L
(lp1250
(lp1251
tp1252
a(L2847657174L
L0L
(lp1253
(lp1254
tp1255
atp1256
sI1074236996
(Vbootloader_common_check_chip_validity
p1257
(lp1258
(L392423210L
L0L
(lp1259
(lp1260
tp1261
a(L1681335572L
L3785322319L
(lp1262
(lp1263
Vesp_log_early_timestamp
p1264
atp1265
a(L522103407L
L3785322319L
(lp1266
(lp1267
Vefuse_hal_chip_revision
p1268
atp1269
a(L106L
L0L
(lp1270
(lp1271
tp1272
a(L1989150608L
L0L
(lp1273
(lp1274
tp1275
a(L865579151L
L3785322319L
(lp1276
(lp1277
Vesp_log_early_timestamp
p1278
atp1279
a(L3028464L
L0L
(lp1280
(lp1281
tp1282
a(L1397322129L
L0L
(lp1283
(lp1284
tp1285
a(L3021749L
L0L
(lp1286
(lp1287
tp1288
a(L240495317L
L3785322319L
(lp1289
(lp1290
Vesp_log_early_timestamp
p1291
atp1292
a(L1299867982L
L0L
(lp1293
(lp1294
tp1295
a(L3360570486L
L0L
(lp1296
(lp1297
tp1298
atp1299
sI1074236740
(Vefuse_hal_get_major_chip_version
p1300
(lp1301
(L2489568354L
L0L
(lp1302
(lp1303
tp1304
a(L894792960L
L0L
(lp1305
(lp1306
tp1307
a(L3783348505L
L0L
(lp1308
(lp1309
tp1310
a(L3360570486L
L0L
(lp1311
(lp1312
tp1313
atp1314
sI1074245444
(Vrtc_clk_cpu_freq_mhz_to_config
p1315
(lp1316
(L908718885L
L3785322319L
(lp1317
(lp1318
Vrtc_clk_xtal_freq_get
p1319
atp1320
a(L60460069L
L0L
(lp1321
(lp1322
tp1323
a(L3802072124L
L0L
(lp1324
(lp1325
tp1326
a(L3159006042L
L0L
(lp1327
(lp1328
tp1329
a(L3360570486L
L0L
(lp1330
(lp1331
tp1332
a(L895147205L
L0L
(lp1333
(lp1334
tp1335
a(L3970036657L
L0L
(lp1336
(lp1337
tp1338
a(L2731353429L
L0L
(lp1339
(lp1340
tp1341
a(L1555485793L
L0L
(lp1342
(lp1343
tp1344
a(L2258897023L
L0L
(lp1345
(lp1346
tp1347
a(L1947499251L
L0L
(lp1348
(lp1349
tp1350
a(L1306331021L
L0L
(lp1351
(lp1352
tp1353
atp1354
sI1074244928
(Vrtc_clk_32k_enable
p1355
(lp1356
(L753387299L
L0L
(lp1357
(lp1358
tp1359
a(L3776007933L
L3785322319L
(lp1360
(lp1361
Vrtc_clk_32k_enable_common
p1362
atp1363
a(L3496950L
L0L
(lp1364
(lp1365
tp1366
a(L2119050555L
L0L
(lp1367
(lp1368
tp1369
atp1370
sI1074238528
(Vlog_invalid_app_partition
p1371
(lp1372
(L3121159614L
L0L
(lp1373
(lp1374
tp1375
a(L3028464L
L0L
(lp1376
(lp1377
tp1378
a(L1381405837L
L3785322319L
(lp1379
(lp1380
Vesp_log_early_timestamp
p1381
atp1382
a(L283255622L
L0L
(lp1383
(lp1384
tp1385
a(L3360570486L
L0L
(lp1386
(lp1387
tp1388
a(L3430459325L
L3785322319L
(lp1389
(lp1390
Vesp_log_early_timestamp
p1391
atp1392
a(L632945191L
L3785322319L
(lp1393
(lp1394
Vesp_log_early_timestamp
p1395
atp1396
atp1397
sI1074247744
(Vesp_rom_spiflash_write
p1398
(lp1399
(L2792725273L
L0L
(lp1400
(lp1401
tp1402
a(L2258688483L
L0L
(lp1403
(lp1404
tp1405
a(L3360570486L
L0L
(lp1406
(lp1407
tp1408
a(L3368132847L
L0L
(lp1409
(lp1410
tp1411
a(L3106685981L
L0L
(lp1412
(lp1413
tp1414
a(L3488660639L
L3785322319L
(lp1415
(lp1416
Vesp_rom_spiflash_program_page_internal
p1417
atp1418
a(L3543402353L
L3785322319L
(lp1419
(lp1420
Vesp_rom_spiflash_program_page_internal
p1421
atp1422
a(L4222526342L
L0L
(lp1423
(lp1424
tp1425
a(L2004208511L
L0L
(lp1426
(lp1427
tp1428
a(L564470656L
L0L
(lp1429
(lp1430
tp1431
a(L2988842384L
L3785322319L
(lp1432
(lp1433
Vesp_rom_spiflash_program_page_internal
p1434
atp1435
a(L2302069176L
L0L
(lp1436
(lp1437
tp1438
atp1439
sI1074240332
(Vbootloader_debug_buffer
p1440
(lp1441
(L2100504542L
L0L
(lp1442
(lp1443
tp1444
atp1445
sI1074234700
(Vesp_flash_encryption_enabled
p1446
(lp1447
(L376617603L
L3785322319L
(lp1448
(lp1449
Vefuse_hal_flash_encryption_enabled
p1450
atp1451
atp1452
sI1074240340
(Vbootloader_sha256_start
p1453
(lp1454
(L2264643577L
L0L
(lp1455
(lp1456
tp1457
atp1458
sI1074239316
(Vbootloader_utility_load_partition_table
p1459
(lp1460
(L973068460L
L3785322319L
(lp1461
(lp1462
Vbootloader_mmap
p1463
atp1464
a(L3833229829L
L3785322319L
(lp1465
(lp1466
Vesp_log_early_timestamp
p1467
atp1468
a(L2258688482L
L0L
(lp1469
(lp1470
tp1471
a(L3360570486L
L0L
(lp1472
(lp1473
tp1474
a(L2182773102L
L3785322319L
(lp1475
(lp1476
Vesp_partition_table_verify
p1477
atp1478
a(L1289600446L
L3785322319L
(lp1479
(lp1480
Vesp_log_early_timestamp
p1481
atp1482
a(L2970295030L
L1880226080L
(lp1483
(lp1484
Vesp_log_early_timestamp
p1485
aVesp_log_early_timestamp
p1486
atp1487
a(L650140130L
L0L
(lp1488
(lp1489
tp1490
a(L2628153144L
L1880226080L
(lp1491
(lp1492
Vbootloader_munmap
p1493
aVesp_log_early_timestamp
p1494
atp1495
a(L521126897L
L0L
(lp1496
(lp1497
tp1498
a(L3028464L
L0L
(lp1499
(lp1500
tp1501
a(L106L
L0L
(lp1502
(lp1503
tp1504
a(L1403802542L
L0L
(lp1505
(lp1506
tp1507
a(L754352289L
L3785322319L
(lp1508
(lp1509
Vesp_log_early_timestamp
p1510
atp1511
a(L3990577774L
L0L
(lp1512
(lp1513
tp1514
a(L3020187L
L0L
(lp1515
(lp1516
tp1517
a(L2278500994L
L0L
(lp1518
(lp1519
tp1520
a(L4208505160L
L0L
(lp1521
(lp1522
tp1523
a(L1859217719L
L0L
(lp1524
(lp1525
tp1526
a(L2546691122L
L0L
(lp1527
(lp1528
tp1529
a(L3794036362L
L0L
(lp1530
(lp1531
tp1532
a(L106L
L0L
(lp1533
(lp1534
tp1535
a(L93674324L
L0L
(lp1536
(lp1537
tp1538
a(L1601771625L
L0L
(lp1539
(lp1540
tp1541
a(L1938133259L
L0L
(lp1542
(lp1543
tp1544
a(L1590689356L
L0L
(lp1545
(lp1546
tp1547
a(L106L
L0L
(lp1548
(lp1549
tp1550
a(L924822438L
L0L
(lp1551
(lp1552
tp1553
a(L106L
L0L
(lp1554
(lp1555
tp1556
a(L568228547L
L0L
(lp1557
(lp1558
tp1559
atp1560
sI1074236500
(Vbootloader_common_get_chip_ver_pkg
p1561
(lp1562
(L183333409L
L0L
(lp1563
(lp1564
tp1565
atp1566
sI1074237268
(Vbootloader_common_ota_select_invalid
p1567
(lp1568
(L4027567199L
L0L
(lp1569
(lp1570
tp1571
a(L3397985842L
L0L
(lp1572
(lp1573
tp1574
a(L2258867228L
L0L
(lp1575
(lp1576
tp1577
a(L3785235668L
L0L
(lp1578
(lp1579
tp1580
atp1581
sI1074270044
(Vrtc_clk_init
p1582
(lp1583
(L1987506511L
L0L
(lp1584
(lp1585
tp1586
a(L42671777L
L3785322319L
(lp1587
(lp1588
Vrtc_clk_cpu_freq_to_xtal
p1589
atp1590
a(L2449174990L
L3785322319L
(lp1591
(lp1592
Vrtc_clk_xtal_freq_get
p1593
atp1594
a(L89029051L
L0L
(lp1595
(lp1596
tp1597
a(L4187693717L
L3785322319L
(lp1598
(lp1599
Vrtc_clk_xtal_freq_estimate
p1600
atp1601
a(L805273234L
L3785322319L
(lp1602
(lp1603
Vesp_log_early_timestamp
p1604
atp1605
a(L2265375L
L1157885199L
(lp1606
(lp1607
Vesp_rom_uart_tx_wait_idle
p1608
aVrtc_clk_xtal_freq_update
p1609
aVrtc_clk_apb_freq_update
p1610
aVrtc_clk_cpu_freq_get_config
p1611
aVrtc_clk_cpu_freq_mhz_to_config
p1612
atp1613
a(L2681910772L
L1880226080L
(lp1614
(lp1615
Vesp_log_early_timestamp
p1616
aVabort
p1617
atp1618
a(L3028481L
L0L
(lp1619
(lp1620
tp1621
a(L4070631611L
L3785322319L
(lp1622
(lp1623
Vrtc_clk_xtal_freq_estimate
p1624
atp1625
a(L4201747407L
L3785322319L
(lp1626
(lp1627
Vesp_log_early_timestamp
p1628
atp1629
a(L26565468L
L3785322319L
(lp1630
(lp1631
Vrtc_clk_cpu_freq_set_config
p1632
atp1633
a(L912310138L
L3785322319L
(lp1634
(lp1635
Vrtc_clk_32k_enable
p1636
atp1637
a(L3191820416L
L1832448559L
(lp1638
(lp1639
Vrtc_clk_8m_enable
p1640
aVrtc_clk_fast_src_set
p1641
aVrtc_clk_slow_src_set
p1642
atp1643
a(L1232958848L
L0L
(lp1644
(lp1645
tp1646
atp1647
sI1074269776
(Vbootloader_console_init
p1648
(lp1649
(L3521561098L
L1832448559L
(lp1650
(lp1651
Vesp_rom_uart_tx_wait_idle
p1652
aVrtc_clk_apb_freq_get
p1653
aVesp_rom_uart_set_clock_baudrate
p1654
atp1655
atp1656
sI1074241624
(Vprocess_appended_hash_and_sig
p1657
(lp1658
(L1668084157L
L0L
(lp1659
(lp1660
tp1661
a(L2910371777L
L0L
(lp1662
(lp1663
tp1664
a(L1591589631L
L0L
(lp1665
(lp1666
tp1667
a(L2551256078L
L0L
(lp1668
(lp1669
tp1670
a(L3258290317L
L0L
(lp1671
(lp1672
tp1673
a(L1095464509L
L3785322319L
(lp1674
(lp1675
Vesp_log_early_timestamp
p1676
atp1677
a(L2268304300L
L3785322319L
(lp1678
(lp1679
Vbootloader_flash_read
p1680
atp1681
a(L3871473710L
L0L
(lp1682
(lp1683
tp1684
atp1685
sI1074234712
(Vbootloader_flash_execute_command_common
p1686
(lp1687
(L3865052895L
L0L
(lp1688
(lp1689
tp1690
a(L120556223L
L0L
(lp1691
(lp1692
tp1693
a(L2890397610L
L3785322319L
(lp1694
(lp1695
V__assert_func
p1696
atp1697
a(L3021749L
L0L
(lp1698
(lp1699
tp1700
a(L153203357L
L0L
(lp1701
(lp1702
tp1703
a(L3967919202L
L0L
(lp1704
(lp1705
tp1706
a(L2091933878L
L0L
(lp1707
(lp1708
tp1709
a(L1702379862L
L0L
(lp1710
(lp1711
tp1712
a(L2587060668L
L0L
(lp1713
(lp1714
tp1715
a(L817326211L
L0L
(lp1716
(lp1717
tp1718
a(L3244449450L
L0L
(lp1719
(lp1720
tp1721
a(L3855586684L
L0L
(lp1722
(lp1723
tp1724
a(L2990329343L
L0L
(lp1725
(lp1726
tp1727
a(L2557390060L
L0L
(lp1728
(lp1729
tp1730
a(L3333696662L
L0L
(lp1731
(lp1732
tp1733
a(L963425213L
L0L
(lp1734
(lp1735
tp1736
a(L339491738L
L0L
(lp1737
(lp1738
tp1739
a(L3360570486L
L0L
(lp1740
(lp1741
tp1742
atp1743
sI1074235224
(Vbootloader_flash_unlock
p1744
(lp1745
(L2851757134L
L3785322319L
(lp1746
(lp1747
Vesp_rom_spiflash_wait_idle
p1748
atp1749
a(L4212373562L
L0L
(lp1750
(lp1751
tp1752
a(L4292483033L
L3785322319L
(lp1753
(lp1754
Vbootloader_execute_flash_command
p1755
atp1756
a(L106L
L0L
(lp1757
(lp1758
tp1759
a(L1303560644L
L0L
(lp1760
(lp1761
tp1762
a(L610618440L
L0L
(lp1763
(lp1764
tp1765
a(L106L
L0L
(lp1766
(lp1767
tp1768
a(L345249462L
L0L
(lp1769
(lp1770
tp1771
a(L106L
L0L
(lp1772
(lp1773
tp1774
a(L1024465569L
L0L
(lp1775
(lp1776
tp1777
a(L106L
L0L
(lp1778
(lp1779
tp1780
a(L1481761147L
L1880226080L
(lp1781
(lp1782
Vbootloader_execute_flash_command
p1783
aVbootloader_execute_flash_command
p1784
atp1785
a(L2258807654L
L0L
(lp1786
(lp1787
tp1788
a(L489806350L
L1832448559L
(lp1789
(lp1790
Vesp_rom_spiflash_wait_idle
p1791
aVbootloader_execute_flash_command
p1792
aVbootloader_execute_flash_command
p1793
atp1794
a(L879744646L
L1832448559L
(lp1795
(lp1796
Vesp_rom_spiflash_wait_idle
p1797
aVbootloader_execute_flash_command
p1798
aVbootloader_execute_flash_command
p1799
atp1800
a(L1840772931L
L1880226080L
(lp1801
(lp1802
Vesp_rom_spiflash_wait_idle
p1803
aVbootloader_execute_flash_command
p1804
atp1805
a(L2993202392L
L0L
(lp1806
(lp1807
tp1808
a(L508800419L
L1880226080L
(lp1809
(lp1810
Vbootloader_execute_flash_command
p1811
aVbootloader_execute_flash_command
p1812
atp1813
a(L1303560369L
L0L
(lp1814
(lp1815
tp1816
a(L1596544945L
L0L
(lp1817
(lp1818
tp1819
a(L97689L
L0L
(lp1820
(lp1821
tp1822
a(L106L
L0L
(lp1823
(lp1824
tp1825
atp1826
sI1074245720
(Vrtc_clk_apb_freq_update
p1827
(lp1828
(L3678163707L
L0L
(lp1829
(lp1830
tp1831
atp1832
sI1074244712
(Vrtc_clk_cpu_freq_to_pll_mhz
p1833
(lp1834
(L1393544349L
L0L
(lp1835
(lp1836
tp1837
a(L405771233L
L0L
(lp1838
(lp1839
tp1840
a(L2930829064L
L0L
(lp1841
(lp1842
tp1843
a(L3298441904L
L0L
(lp1844
(lp1845
tp1846
a(L3680579786L
L0L
(lp1847
(lp1848
tp1849
a(L1298905564L
L0L
(lp1850
(lp1851
tp1852
a(L68193075L
L3785322319L
(lp1853
(lp1854
Vrtc_clk_wait_for_slow_cycle
p1855
atp1856
a(L1611366957L
L0L
(lp1857
(lp1858
tp1859
a(L1611366988L
L0L
(lp1860
(lp1861
tp1862
a(L94425498L
L3785322319L
(lp1863
(lp1864
Vabort
p1865
atp1866
atp1867
sI1074240360
(Vbootloader_sha256_data
p1868
(lp1869
(L4066096136L
L0L
(lp1870
(lp1871
tp1872
a(L685117705L
L0L
(lp1873
(lp1874
tp1875
a(L3769576247L
L3785322319L
(lp1876
(lp1877
V__assert_func
p1878
atp1879
a(L498498478L
L0L
(lp1880
(lp1881
tp1882
a(L602312388L
L0L
(lp1883
(lp1884
tp1885
a(L2910371777L
L0L
(lp1886
(lp1887
tp1888
a(L3360570486L
L0L
(lp1889
(lp1890
tp1891
a(L1325583653L
L0L
(lp1892
(lp1893
tp1894
a(L541898147L
L0L
(lp1895
(lp1896
tp1897
a(L618796780L
L0L
(lp1898
(lp1899
tp1900
a(L1414169690L
L0L
(lp1901
(lp1902
tp1903
a(L1684964552L
L0L
(lp1904
(lp1905
tp1906
a(L2032890799L
L0L
(lp1907
(lp1908
tp1909
a(L3028464L
L0L
(lp1910
(lp1911
tp1912
a(L4085763523L
L0L
(lp1913
(lp1914
tp1915
a(L2133453165L
L0L
(lp1916
(lp1917
tp1918
atp1919
sI1074236532
(Vesp_rom_uart_tx_wait_idle
p1920
(lp1921
(L2733747073L
L0L
(lp1922
(lp1923
tp1924
a(L1301079727L
L0L
(lp1925
(lp1926
tp1927
a(L3597746521L
L0L
(lp1928
(lp1929
tp1930
a(L3694491048L
L0L
(lp1931
(lp1932
tp1933
a(L3055926844L
L0L
(lp1934
(lp1935
tp1936
a(L3360570486L
L0L
(lp1937
(lp1938
tp1939
atp1940
sI1074238836
(Vload_image
p1941
(lp1942
(L1699453889L
L1832448559L
(lp1943
(lp1944
Vesp_log_early_timestamp
p1945
aVbootloader_random_disable
p1946
aVbootloader_ana_clock_glitch_reset_config
p1947
atp1948
a(L2118498116L
L0L
(lp1949
(lp1950
tp1951
a(L106L
L0L
(lp1952
(lp1953
tp1954
a(L3832824599L
L267944800L
(lp1955
(lp1956
Vmmu_hal_init
p1957
aVcache_ll_l1_get_bus
p1958
aVcache_ll_l1_enable_bus
p1959
aVcache_ll_l1_get_bus
p1960
aVcache_ll_l1_enable_bus
p1961
aVbootloader_console_deinit
p1962
atp1963
a(L746432701L
L0L
(lp1964
(lp1965
tp1966
a(L2902417580L
L0L
(lp1967
(lp1968
tp1969
a(L642338965L
L3785322319L
(lp1970
(lp1971
Vesp_log_early_timestamp
p1972
atp1973
a(L123149282L
L0L
(lp1974
(lp1975
tp1976
a(L1797968990L
L0L
(lp1977
(lp1978
tp1979
a(L3020204L
L0L
(lp1980
(lp1981
tp1982
a(L4106644539L
L3785322319L
(lp1983
(lp1984
Vesp_log_early_timestamp
p1985
atp1986
a(L2799711271L
L0L
(lp1987
(lp1988
tp1989
a(L1272997171L
L0L
(lp1990
(lp1991
tp1992
atp1993
sI1074245748
(Vrtc_clk_cpu_freq_to_xtal
p1994
(lp1995
(L3556237429L
L0L
(lp1996
(lp1997
tp1998
a(L94425498L
L3785322319L
(lp1999
(lp2000
Vabort
p2001
atp2002
a(L1625957017L
L3785322319L
(lp2003
(lp2004
Vrtc_clk_apb_freq_update
p2005
atp2006
a(L2258867232L
L0L
(lp2007
(lp2008
tp2009
a(L1889460029L
L0L
(lp2010
(lp2011
tp2012
atp2013
sI1074247028
(Vrtc_clk_cal_ratio
p2014
(lp2015
(L517834709L
L3785322319L
(lp2016
(lp2017
Vrtc_clk_cal_internal
p2018
atp2019
atp2020
sI1074237296
(Vbootloader_common_select_otadata
p2021
(lp2022
(L4071767857L
L0L
(lp2023
(lp2024
tp2025
a(L1999329187L
L0L
(lp2026
(lp2027
tp2028
a(L3846398843L
L0L
(lp2029
(lp2030
tp2031
a(L2501968171L
L0L
(lp2032
(lp2033
tp2034
a(L3360570486L
L0L
(lp2035
(lp2036
tp2037
a(L2045232488L
L0L
(lp2038
(lp2039
tp2040
a(L1243525916L
L0L
(lp2041
(lp2042
tp2043
a(L3094144427L
L0L
(lp2044
(lp2045
tp2046
a(L2399509845L
L0L
(lp2047
(lp2048
tp2049
a(L1641201884L
L0L
(lp2050
(lp2051
tp2052
atp2053
sI1074244988
(Vrtc_clk_8m_enable
p2054
(lp2055
(L1611379971L
L0L
(lp2056
(lp2057
tp2058
a(L1216742732L
L0L
(lp2059
(lp2060
tp2061
a(L2151320156L
L0L
(lp2062
(lp2063
tp2064
a(L1456128412L
L0L
(lp2065
(lp2066
tp2067
a(L3360570486L
L0L
(lp2068
(lp2069
tp2070
a(L1318267208L
L0L
(lp2071
(lp2072
tp2073
a(L2724162565L
L0L
(lp2074
(lp2075
tp2076
atp2077
sI1074243964
(Vwdt_hal_config_stage
p2078
(lp2079
(L331558507L
L0L
(lp2080
(lp2081
tp2082
a(L4279082939L
L0L
(lp2083
(lp2084
tp2085
a(L93674324L
L0L
(lp2086
(lp2087
tp2088
a(L2902417580L
L0L
(lp2089
(lp2090
tp2091
a(L1485495983L
L0L
(lp2092
(lp2093
tp2094
a(L3020187L
L0L
(lp2095
(lp2096
tp2097
a(L94425498L
L3785322319L
(lp2098
(lp2099
Vabort
p2100
atp2101
a(L2718517169L
L0L
(lp2102
(lp2103
tp2104
a(L3360570486L
L0L
(lp2105
(lp2106
tp2107
a(L1996799187L
L0L
(lp2108
(lp2109
tp2110
a(L2771194801L
L0L
(lp2111
(lp2112
tp2113
a(L4278159418L
L0L
(lp2114
(lp2115
tp2116
a(L93674324L
L0L
(lp2117
(lp2118
tp2119
a(L3020204L
L0L
(lp2120
(lp2121
tp2122
a(L3391750594L
L0L
(lp2123
(lp2124
tp2125
a(L3020187L
L0L
(lp2126
(lp2127
tp2128
a(L106L
L0L
(lp2129
(lp2130
tp2131
a(L239610384L
L0L
(lp2132
(lp2133
tp2134
a(L831450820L
L0L
(lp2135
(lp2136
tp2137
a(L3340783449L
L0L
(lp2138
(lp2139
tp2140
atp2141
sI1074235772
(Vbootloader_flash_cs_timing_config
p2142
(lp2143
(L6299057L
L0L
(lp2144
(lp2145
tp2146
atp2147
sI1074235516
(Vbootloader_flash_read_sfdp
p2148
(lp2149
(L711701400L
L0L
(lp2150
(lp2151
tp2152
a(L3178612724L
L3785322319L
(lp2153
(lp2154
V__assert_func
p2155
atp2156
a(L3704332455L
L3785322319L
(lp2157
(lp2158
Vbootloader_flash_execute_command_common
p2159
atp2160
atp2161
sI1074269556
(Vbootloader_config_wdt
p2162
(lp2163
(L2487236811L
L505859776L
(lp2164
(lp2165
Vwdt_hal_write_protect_disable
p2166
aVwdt_hal_set_flashboot_en
p2167
aVwdt_hal_write_protect_enable
p2168
aVwdt_hal_init
p2169
aVrtc_clk_slow_freq_get_hz
p2170
aVwdt_hal_write_protect_disable
p2171
aVwdt_hal_config_stage
p2172
aVwdt_hal_enable
p2173
aVwdt_hal_write_protect_enable
p2174
aVwdt_hal_write_protect_disable
p2175
aVwdt_hal_set_flashboot_en
p2176
aVwdt_hal_write_protect_enable
p2177
atp2178
atp2179
sI1074269812
(Vesp_cpu_configure_region_protection
p2180
(lp2181
(L3119165882L
L0L
(lp2182
(lp2183
tp2184
a(L180431425L
L3785322319L
(lp2185
(lp2186
Vmpu_hal_set_region_access
p2187
atp2188
a(L2537388152L
L3785322319L
(lp2189
(lp2190
Vmpu_hal_set_region_access
p2191
atp2192
atp2193
sI1074267788
(Vbootloader_init
p2194
(lp2195
(L979987266L
L3785322319L
(lp2196
(lp2197
Vbootloader_init_mem
p2198
atp2199
a(L2806068302L
L0L
(lp2200
(lp2201
tp2202
a(L3038495368L
L3785322319L
(lp2203
(lp2204
V__assert_func
p2205
atp2206
a(L132773206L
L0L
(lp2207
(lp2208
tp2209
a(L481867486L
L0L
(lp2210
(lp2211
tp2212
a(L3813782018L
L0L
(lp2213
(lp2214
tp2215
a(L2681362207L
L0L
(lp2216
(lp2217
tp2218
a(L3027019L
L0L
(lp2219
(lp2220
tp2221
a(L4255298090L
L0L
(lp2222
(lp2223
tp2224
a(L1419541897L
L1832448559L
(lp2225
(lp2226
Vbootloader_clear_bss_section
p2227
aVbootloader_common_vddsdio_configure
p2228
aVbootloader_clock_get_rated_freq_mhz
p2229
atp2230
a(L3987130017L
L1157885199L
(lp2231
(lp2232
Vbootloader_clock_configure
p2233
aVbootloader_console_init
p2234
aVbootloader_print_banner
p2235
aVbootloader_flash_update_id
p2236
aVbootloader_flash_xmc_startup
p2237
atp2238
a(L1649921053L
L3785322319L
(lp2239
(lp2240
Vesp_log_early_timestamp
p2241
atp2242
a(L644408352L
L3785322319L
(lp2243
(lp2244
Vesp_log_early_timestamp
p2245
atp2246
a(L3360570486L
L0L
(lp2247
(lp2248
tp2249
a(L2444883382L
L3785322319L
(lp2250
(lp2251
Vbootloader_read_bootloader_header
p2252
atp2253
a(L2444883382L
L3785322319L
(lp2254
(lp2255
Vbootloader_check_bootloader_validity
p2256
atp2257
a(L1599107887L
L2485746240L
(lp2258
(lp2259
Vbootloader_flash_gpio_config
p2260
aVbootloader_flash_dummy_config
p2261
aVbootloader_flash_cs_timing_config
p2262
aVbootloader_flash_unlock
p2263
atp2264
a(L46769618L
L0L
(lp2265
(lp2266
tp2267
a(L2155035293L
L0L
(lp2268
(lp2269
tp2270
a(L1404489684L
L0L
(lp2271
(lp2272
tp2273
a(L2565660313L
L3785322319L
(lp2274
(lp2275
Vesp_log_early_timestamp
p2276
atp2277
a(L4219340557L
L0L
(lp2278
(lp2279
tp2280
a(L4223034641L
L0L
(lp2281
(lp2282
tp2283
a(L4262746044L
L0L
(lp2284
(lp2285
tp2286
a(L4244275624L
L0L
(lp2287
(lp2288
tp2289
a(L1404489750L
L0L
(lp2290
(lp2291
tp2292
a(L3229250057L
L3785322319L
(lp2293
(lp2294
Vesp_log_early_timestamp
p2295
atp2296
a(L93837694L
L0L
(lp2297
(lp2298
tp2299
a(L106L
L0L
(lp2300
(lp2301
tp2302
a(L2691044167L
L0L
(lp2303
(lp2304
tp2305
a(L1503970806L
L0L
(lp2306
(lp2307
tp2308
a(L3902505714L
L0L
(lp2309
(lp2310
tp2311
a(L1410183748L
L3785322319L
(lp2312
(lp2313
Vesp_log_early_timestamp
p2314
atp2315
a(L93837694L
L0L
(lp2316
(lp2317
tp2318
a(L106L
L0L
(lp2319
(lp2320
tp2321
a(L3029526157L
L0L
(lp2322
(lp2323
tp2324
a(L2772639124L
L0L
(lp2325
(lp2326
tp2327
a(L2807278488L
L0L
(lp2328
(lp2329
tp2330
a(L35894901L
L3785322319L
(lp2331
(lp2332
Vbootloader_enable_wp
p2333
atp2334
a(L4208056626L
L0L
(lp2335
(lp2336
tp2337
a(L1895147922L
L0L
(lp2338
(lp2339
tp2340
a(L2282749240L
L3785322319L
(lp2341
(lp2342
Vesp_log_early_timestamp
p2343
atp2344
a(L3835578646L
L0L
(lp2345
(lp2346
tp2347
a(L3616321095L
L0L
(lp2348
(lp2349
tp2350
a(L106L
L0L
(lp2351
(lp2352
tp2353
a(L2693598428L
L0L
(lp2354
(lp2355
tp2356
a(L106L
L0L
(lp2357
(lp2358
tp2359
a(L2848225485L
L3785322319L
(lp2360
(lp2361
Vesp_log_early_timestamp
p2362
atp2363
a(L462441895L
L0L
(lp2364
(lp2365
tp2366
a(L2552296161L
L0L
(lp2367
(lp2368
tp2369
a(L3945228369L
L3785322319L
(lp2370
(lp2371
Vesp_log_early_timestamp
p2372
atp2373
a(L722191531L
L0L
(lp2374
(lp2375
tp2376
a(L1503962529L
L0L
(lp2377
(lp2378
tp2379
a(L106L
L0L
(lp2380
(lp2381
tp2382
a(L718593200L
L0L
(lp2383
(lp2384
tp2385
a(L1767021965L
L0L
(lp2386
(lp2387
tp2388
a(L3028481L
L0L
(lp2389
(lp2390
tp2391
a(L932857825L
L1880226080L
(lp2392
(lp2393
Vbootloader_config_wdt
p2394
aVbootloader_enable_random
p2395
atp2396
a(L2321903297L
L3785322319L
(lp2397
(lp2398
Vesp_log_early_timestamp
p2399
atp2400
atp2401
sI1074244480
(Vmmu_hal_init
p2402
(lp2403
(L1381828061L
L0L
(lp2404
(lp2405
tp2406
a(L2010554219L
L0L
(lp2407
(lp2408
tp2409
a(L3360570486L
L0L
(lp2410
(lp2411
tp2412
atp2413
sI1074238092
(Vbootloader_enable_wp
p2414
(lp2415
(L1117825804L
L3785322319L
(lp2416
(lp2417
Vbootloader_execute_flash_command
p2418
atp2419
atp2420
sI1074247308
(Vesp_rom_spiflash_wait_idle
p2421
(lp2422
(L3233077282L
L0L
(lp2423
(lp2424
tp2425
a(L2023766174L
L0L
(lp2426
(lp2427
tp2428
a(L2805935263L
L0L
(lp2429
(lp2430
tp2431
a(L3086959262L
L0L
(lp2432
(lp2433
tp2434
a(L4161019926L
L3785322319L
(lp2435
(lp2436
Vesp_rom_spiflash_read_status
p2437
atp2438
atp2439
sI1074236808
(Vefuse_hal_get_minor_chip_version
p2440
(lp2441
(L1213965243L
L0L
(lp2442
(lp2443
tp2444
atp2445
sI1074241172
(Vbootloader_util_regions_overlap
p2446
(lp2447
(L2762640130L
L0L
(lp2448
(lp2449
tp2450
a(L2817547429L
L0L
(lp2451
(lp2452
tp2453
a(L986602140L
L3785322319L
(lp2454
(lp2455
V__assert_func
p2456
atp2457
a(L97642L
L0L
(lp2458
(lp2459
tp2460
a(L2008543729L
L0L
(lp2461
(lp2462
tp2463
a(L366123053L
L0L
(lp2464
(lp2465
tp2466
a(L2258867228L
L0L
(lp2467
(lp2468
tp2469
a(L1253626734L
L0L
(lp2470
(lp2471
tp2472
a(L2258897019L
L0L
(lp2473
(lp2474
tp2475
a(L3109269495L
L0L
(lp2476
(lp2477
tp2478
atp2479
sI1074238612
(Vtry_load_partition
p2480
(lp2481
(L1263750142L
L0L
(lp2482
(lp2483
tp2484
a(L2258688482L
L0L
(lp2485
(lp2486
tp2487
a(L3360570486L
L0L
(lp2488
(lp2489
tp2490
a(L530241438L
L3785322319L
(lp2491
(lp2492
Vbootloader_load_image
p2493
atp2494
a(L578262430L
L3785322319L
(lp2495
(lp2496
Vesp_log_early_timestamp
p2497
atp2498
atp2499
sI1074246548
(Vrtc_clk_apb_freq_get
p2500
(lp2501
(L756535420L
L0L
(lp2502
(lp2503
tp2504
atp2505
sI1074247060
(Vrtc_clk_wait_for_slow_cycle
p2506
(lp2507
(L556656129L
L0L
(lp2508
(lp2509
tp2510
a(L287687718L
L0L
(lp2511
(lp2512
tp2513
a(L3360570486L
L0L
(lp2514
(lp2515
tp2516
a(L835269876L
L0L
(lp2517
(lp2518
tp2519
a(L2994547433L
L0L
(lp2520
(lp2521
tp2522
a(L100177629L
L0L
(lp2523
(lp2524
tp2525
a(L219413055L
L3785322319L
(lp2526
(lp2527
Vesp_log_early_timestamp
p2528
atp2529
atp2530
sI1074244508
(Vefuse_hal_get_rated_freq_mhz
p2531
(lp2532
(L3387138627L
L0L
(lp2533
(lp2534
tp2535
a(L3671388797L
L0L
(lp2536
(lp2537
tp2538
a(L3360570486L
L0L
(lp2539
(lp2540
tp2541
atp2542
sI1074236824
(Vesp_dport_access_reg_read
p2543
(lp2544
(L1099794772L
L0L
(lp2545
(lp2546
tp2547
atp2548
sI1074236836
(Vis_xmc_chip_strict
p2549
(lp2550
(L1286841609L
L0L
(lp2551
(lp2552
tp2553
a(L2234016759L
L0L
(lp2554
(lp2555
tp2556
a(L1069027148L
L0L
(lp2557
(lp2558
tp2559
a(L3021749L
L0L
(lp2560
(lp2561
tp2562
a(L1900148749L
L0L
(lp2563
(lp2564
tp2565
a(L1936875721L
L0L
(lp2566
(lp2567
tp2568
a(L3356166509L
L0L
(lp2569
(lp2570
tp2571
a(L1937769451L
L0L
(lp2572
(lp2573
tp2574
a(L2137658907L
L0L
(lp2575
(lp2576
tp2577
a(L4265949734L
L0L
(lp2578
(lp2579
tp2580
a(L3360570486L
L0L
(lp2581
(lp2582
tp2583
atp2584
sI1074245284
(Vrtc_clk_slow_src_get
p2585
(lp2586
(L376617603L
L3785322319L
(lp2587
(lp2588
Vclk_ll_rtc_slow_get_src
p2589
atp2590
atp2591
sI1074238112
(Vbootloader_mmap_get_free_pages
p2592
(lp2593
(L1496516875L
L0L
(lp2594
(lp2595
tp2596
atp2597
sI1074245536
(Vrtc_clk_cpu_freq_get_config
p2598
(lp2599
(L4203396962L
L0L
(lp2600
(lp2601
tp2602
a(L3020187L
L0L
(lp2603
(lp2604
tp2605
a(L3020187L
L0L
(lp2606
(lp2607
tp2608
a(L2325136122L
L3785322319L
(lp2609
(lp2610
Vrtc_clk_xtal_freq_get
p2611
atp2612
a(L3789795478L
L0L
(lp2613
(lp2614
tp2615
a(L1937205625L
L1880226080L
(lp2616
(lp2617
Vesp_log_early_timestamp
p2618
aVabort
p2619
atp2620
a(L3185329647L
L0L
(lp2621
(lp2622
tp2623
a(L3020187L
L0L
(lp2624
(lp2625
tp2626
a(L3028481L
L0L
(lp2627
(lp2628
tp2629
a(L38508693L
L0L
(lp2630
(lp2631
tp2632
a(L187152368L
L0L
(lp2633
(lp2634
tp2635
a(L1161083655L
L0L
(lp2636
(lp2637
tp2638
a(L1395485899L
L0L
(lp2639
(lp2640
tp2641
a(L2070600034L
L0L
(lp2642
(lp2643
tp2644
atp2645
sI1074269860
(Vrtc_clk_xtal_freq_estimate
p2646
(lp2647
(L3845076426L
L1880226080L
(lp2648
(lp2649
Vrtc_clk_8m_enabled
p2650
aVrtc_clk_8md256_enabled
p2651
atp2652
a(L2449794434L
L3785322319L
(lp2653
(lp2654
Vrtc_clk_8m_enable
p2655
atp2656
a(L1770394742L
L3785322319L
(lp2657
(lp2658
Vrtc_clk_cal_ratio
p2659
atp2660
a(L1894802584L
L0L
(lp2661
(lp2662
tp2663
a(L1915120046L
L0L
(lp2664
(lp2665
tp2666
a(L2740879690L
L0L
(lp2667
(lp2668
tp2669
a(L1059750288L
L3785322319L
(lp2670
(lp2671
Vrtc_clk_8m_enable
p2672
atp2673
a(L863676849L
L3785322319L
(lp2674
(lp2675
Vesp_log_early_timestamp
p2676
atp2677
a(L2894376164L
L0L
(lp2678
(lp2679
tp2680
a(L1641150486L
L0L
(lp2681
(lp2682
tp2683
a(L2821810955L
L3785322319L
(lp2684
(lp2685
Vesp_log_early_timestamp
p2686
atp2687
a(L215971570L
L3785322319L
(lp2688
(lp2689
Vesp_log_early_timestamp
p2690
atp2691
atp2692
sI1074238120
(Vbootloader_fill_random
p2693
(lp2694
(L1233865241L
L0L
(lp2695
(lp2696
tp2697
a(L2195342884L
L3785322319L
(lp2698
(lp2699
V__assert_func
p2700
atp2701
a(L1882547218L
L0L
(lp2702
(lp2703
tp2704
a(L2910371777L
L0L
(lp2705
(lp2706
tp2707
a(L95634693L
L0L
(lp2708
(lp2709
tp2710
a(L3630908706L
L0L
(lp2711
(lp2712
tp2713
a(L160162640L
L0L
(lp2714
(lp2715
tp2716
a(L97689L
L0L
(lp2717
(lp2718
tp2719
a(L3360570486L
L0L
(lp2720
(lp2721
tp2722
atp2723
sI1074241716
(Vshould_load
p2724
(lp2725
(L602112478L
L0L
(lp2726
(lp2727
tp2728
a(L1182990556L
L0L
(lp2729
(lp2730
tp2731
a(L1188500889L
L0L
(lp2732
(lp2733
tp2734
a(L2306467100L
L0L
(lp2735
(lp2736
tp2737
a(L1002638193L
L0L
(lp2738
(lp2739
tp2740
a(L2258897019L
L0L
(lp2741
(lp2742
tp2743
a(L3781799363L
L0L
(lp2744
(lp2745
tp2746
a(L3028464L
L0L
(lp2747
(lp2748
tp2749
a(L4261461776L
L0L
(lp2750
(lp2751
tp2752
a(L4277114872L
L0L
(lp2753
(lp2754
tp2755
a(L2824381917L
L0L
(lp2756
(lp2757
tp2758
a(L1243412227L
L0L
(lp2759
(lp2760
tp2761
a(L2011157548L
L0L
(lp2762
(lp2763
tp2764
a(L3126521138L
L0L
(lp2765
(lp2766
tp2767
a(L1305407438L
L0L
(lp2768
(lp2769
tp2770
a(L1305407469L
L0L
(lp2771
(lp2772
tp2773
atp2774
sI1074236596
(Vesp_rom_uart_set_clock_baudrate
p2775
(lp2776
(L3381693543L
L0L
(lp2777
(lp2778
tp2779
a(L2334982986L
L0L
(lp2780
(lp2781
tp2782
a(L2805931264L
L0L
(lp2783
(lp2784
tp2785
a(L3887231631L
L0L
(lp2786
(lp2787
tp2788
atp2789
sI1074235568
(Vbootloader_read_flash_id
p2790
(lp2791
(L549578328L
L3785322319L
(lp2792
(lp2793
Vbootloader_execute_flash_command
p2794
atp2795
atp2796
sI1074245296
(Vrtc_clk_slow_freq_get_hz
p2797
(lp2798
(L1826267122L
L3785322319L
(lp2799
(lp2800
Vclk_ll_rtc_slow_get_src
p2801
atp2802
a(L4155162468L
L0L
(lp2803
(lp2804
tp2805
a(L3631005815L
L0L
(lp2806
(lp2807
tp2808
a(L702740037L
L0L
(lp2809
(lp2810
tp2811
a(L3360570486L
L0L
(lp2812
(lp2813
tp2814
atp2815
sI1074270640
(Vrtc_vddsdio_set_config
p2816
(lp2817
(L4274475684L
L0L
(lp2818
(lp2819
tp2820
atp2821
sI1074237372
(Vspi_to_esp_err
p2822
(lp2823
(L3520881295L
L0L
(lp2824
(lp2825
tp2826
a(L2402400019L
L0L
(lp2827
(lp2828
tp2829
a(L3952441574L
L0L
(lp2830
(lp2831
tp2832
a(L3126521138L
L0L
(lp2833
(lp2834
tp2835
atp2836
sI1074237628
(Vbootloader_munmap
p2837
(lp2838
(L1697403118L
L0L
(lp2839
(lp2840
tp2841
a(L3761142808L
L0L
(lp2842
(lp2843
tp2844
a(L3360570486L
L0L
(lp2845
(lp2846
tp2847
atp2848
sI1074247356
(Vesp_rom_spiflash_enable_write
p2849
(lp2850
(L1913384498L
L3785322319L
(lp2851
(lp2852
Vesp_rom_spiflash_wait_idle
p2853
atp2854
a(L3137194272L
L0L
(lp2855
(lp2856
tp2857
a(L2258718275L
L0L
(lp2858
(lp2859
tp2860
a(L99543895L
L0L
(lp2861
(lp2862
tp2863
a(L2993202392L
L0L
(lp2864
(lp2865
tp2866
a(L1804543818L
L3785322319L
(lp2867
(lp2868
Vesp_rom_spiflash_read_status
p2869
atp2870
atp2871
sI1074244280
(Vwdt_hal_write_protect_disable
p2872
(lp2873
(L3345031483L
L0L
(lp2874
(lp2875
tp2876
a(L4195472003L
L0L
(lp2877
(lp2878
tp2879
a(L3360570486L
L0L
(lp2880
(lp2881
tp2882
a(L1210571996L
L0L
(lp2883
(lp2884
tp2885
atp2886
sI1074247608
(Vesp_rom_spiflash_erase_sector
p2887
(lp2888
(L2418986534L
L0L
(lp2889
(lp2890
tp2891
a(L2258688483L
L0L
(lp2892
(lp2893
tp2894
a(L3360570486L
L0L
(lp2895
(lp2896
tp2897
a(L3212356251L
L3785322319L
(lp2898
(lp2899
Vesp_rom_spiflash_enable_write
p2900
atp2901
a(L184152988L
L0L
(lp2902
(lp2903
tp2904
a(L3366930801L
L3785322319L
(lp2905
(lp2906
Vesp_rom_spiflash_wait_idle
p2907
atp2908
a(L3333707777L
L0L
(lp2909
(lp2910
tp2911
a(L3582858798L
L3785322319L
(lp2912
(lp2913
Vesp_rom_spiflash_wait_idle
p2914
atp2915
atp2916
sI1074244548
(Vclk_ll_rtc_slow_get_src
p2917
(lp2918
(L3007589395L
L0L
(lp2919
(lp2920
tp2921
a(L3020187L
L0L
(lp2922
(lp2923
tp2924
a(L2902417580L
L0L
(lp2925
(lp2926
tp2927
a(L2258688485L
L0L
(lp2928
(lp2929
tp2930
a(L3360570486L
L0L
(lp2931
(lp2932
tp2933
atp2934
sI1074238660
(Vcache_ll_l1_enable_bus
p2935
(lp2936
(L2715656691L
L0L
(lp2937
(lp2938
tp2939
atp2940
sI1074268620
(Vbootloader_common_vddsdio_configure
p2941
(lp2942
(L1829974089L
L3785322319L
(lp2943
(lp2944
Vrtc_vddsdio_get_config
p2945
atp2946
a(L555786086L
L3785322319L
(lp2947
(lp2948
Vrtc_vddsdio_set_config
p2949
atp2950
a(L3360570486L
L0L
(lp2951
(lp2952
tp2953
atp2954
sI1074239680
(Vbootloader_utility_get_selected_boot_partition
p2955
(lp2956
(L2184143128L
L0L
(lp2957
(lp2958
tp2959
a(L3559256264L
L0L
(lp2960
(lp2961
tp2962
a(L32932585L
L3785322319L
(lp2963
(lp2964
Vesp_log_early_timestamp
p2965
atp2966
a(L4182535910L
L0L
(lp2967
(lp2968
tp2969
a(L3360570486L
L0L
(lp2970
(lp2971
tp2972
a(L1375577398L
L3785322319L
(lp2973
(lp2974
Vbootloader_mmap
p2975
atp2976
a(L4068126365L
L3785322319L
(lp2977
(lp2978
Vesp_log_early_timestamp
p2979
atp2980
a(L2427574825L
L1880226080L
(lp2981
(lp2982
Vbootloader_munmap
p2983
aVbootloader_common_ota_select_invalid
p2984
atp2985
a(L1103573946L
L0L
(lp2986
(lp2987
tp2988
a(L1876835593L
L3785322319L
(lp2989
(lp2990
Vbootloader_common_get_active_otadata
p2991
atp2992
a(L106L
L0L
(lp2993
(lp2994
tp2995
a(L569346373L
L0L
(lp2996
(lp2997
tp2998
a(L788494392L
L3785322319L
(lp2999
(lp3000
Vbootloader_common_ota_select_invalid
p3001
atp3002
a(L1444904757L
L0L
(lp3003
(lp3004
tp3005
a(L3149719584L
L3785322319L
(lp3006
(lp3007
Vesp_log_early_timestamp
p3008
atp3009
a(L4290358961L
L3785322319L
(lp3010
(lp3011
Vesp_log_early_timestamp
p3012
atp3013
a(L505081345L
L0L
(lp3014
(lp3015
tp3016
a(L919052234L
L3785322319L
(lp3017
(lp3018
Vbootloader_common_ota_select_crc
p3019
atp3020
a(L2287680455L
L0L
(lp3021
(lp3022
tp3023
a(L3542558037L
L3785322319L
(lp3024
(lp3025
Vbootloader_common_ota_select_crc
p3026
atp3027
a(L1299866312L
L0L
(lp3028
(lp3029
tp3030
a(L1279036405L
L0L
(lp3031
(lp3032
tp3033
a(L4436813L
L3785322319L
(lp3034
(lp3035
Vesp_log_early_timestamp
p3036
atp3037
a(L190989796L
L0L
(lp3038
(lp3039
tp3040
a(L4142614521L
L3785322319L
(lp3041
(lp3042
Vesp_log_early_timestamp
p3043
atp3044
atp3045
sI1074236352
(Vbootloader_flash_dummy_config
p3046
(lp3047
(L379397211L
L0L
(lp3048
(lp3049
tp3050
a(L2761717557L
L0L
(lp3051
(lp3052
tp3053
a(L1849044936L
L0L
(lp3054
(lp3055
tp3056
a(L1396570841L
L0L
(lp3057
(lp3058
tp3059
a(L326359429L
L0L
(lp3060
(lp3061
tp3062
a(L3020204L
L0L
(lp3063
(lp3064
tp3065
a(L1610443405L
L0L
(lp3066
(lp3067
tp3068
a(L4032120524L
L0L
(lp3069
(lp3070
tp3071
a(L2336993863L
L0L
(lp3072
(lp3073
tp3074
a(L1298875775L
L0L
(lp3075
(lp3076
tp3077
a(L3880393601L
L0L
(lp3078
(lp3079
tp3080
a(L3433671740L
L0L
(lp3081
(lp3082
tp3083
a(L1610443436L
L0L
(lp3084
(lp3085
tp3086
atp3087
sI1074246592
(Vrtc_clk_cal_internal
p3088
(lp3089
(L3164614328L
L0L
(lp3090
(lp3091
tp3092
a(L1035880206L
L3785322319L
(lp3093
(lp3094
V__assert_func
p3095
atp3096
a(L437537178L
L0L
(lp3097
(lp3098
tp3099
a(L54826884L
L0L
(lp3100
(lp3101
tp3102
a(L234746575L
L0L
(lp3103
(lp3104
tp3105
a(L861896856L
L3785322319L
(lp3106
(lp3107
Vrtc_clk_8m_enable
p3108
atp3109
a(L1572704853L
L3785322319L
(lp3110
(lp3111
Vrtc_clk_slow_src_get
p3112
atp3113
a(L1211065969L
L0L
(lp3114
(lp3115
tp3116
a(L97689L
L0L
(lp3117
(lp3118
tp3119
a(L1700160711L
L0L
(lp3120
(lp3121
tp3122
a(L3028464L
L0L
(lp3123
(lp3124
tp3125
a(L3028481L
L0L
(lp3126
(lp3127
tp3128
a(L3450258728L
L0L
(lp3129
(lp3130
tp3131
a(L1279529158L
L3785322319L
(lp3132
(lp3133
Vrtc_clk_xtal_freq_get
p3134
atp3135
a(L2780079961L
L0L
(lp3136
(lp3137
tp3138
a(L1595895352L
L0L
(lp3139
(lp3140
tp3141
a(L3530626381L
L3785322319L
(lp3142
(lp3143
Vesp_log_early_timestamp
p3144
atp3145
a(L3360570486L
L0L
(lp3146
(lp3147
tp3148
a(L4254052586L
L0L
(lp3149
(lp3150
tp3151
a(L3121398759L
L0L
(lp3152
(lp3153
tp3154
a(L2910371777L
L0L
(lp3155
(lp3156
tp3157
a(L2902417580L
L0L
(lp3158
(lp3159
tp3160
a(L265500957L
L0L
(lp3161
(lp3162
tp3163
a(L3631005548L
L0L
(lp3164
(lp3165
tp3166
a(L2371312852L
L0L
(lp3167
(lp3168
tp3169
a(L3352263364L
L0L
(lp3170
(lp3171
tp3172
a(L3028464L
L0L
(lp3173
(lp3174
tp3175
a(L1136882496L
L3785322319L
(lp3176
(lp3177
Vrtc_clk_8m_enable
p3178
atp3179
atp3180
sI1074241228
(Vverify_load_addresses
p3181
(lp3182
(L2764487219L
L0L
(lp3183
(lp3184
tp3185
a(L106L
L0L
(lp3186
(lp3187
tp3188
a(L97642L
L0L
(lp3189
(lp3190
tp3191
a(L1224098526L
L3785322319L
(lp3192
(lp3193
V__assert_func
p3194
atp3195
a(L98637545L
L0L
(lp3196
(lp3197
tp3198
a(L106L
L0L
(lp3199
(lp3200
tp3201
a(L3668043123L
L0L
(lp3202
(lp3203
tp3204
a(L106L
L0L
(lp3205
(lp3206
tp3207
a(L3257608699L
L3785322319L
(lp3208
(lp3209
Vbootloader_util_regions_overlap
p3210
atp3211
a(L3860847446L
L3785322319L
(lp3212
(lp3213
Vbootloader_util_regions_overlap
p3214
atp3215
a(L3028481L
L0L
(lp3216
(lp3217
tp3218
a(L4017883982L
L3785322319L
(lp3219
(lp3220
Vbootloader_util_regions_overlap
p3221
atp3222
a(L2068270194L
L0L
(lp3223
(lp3224
tp3225
a(L3651031838L
L0L
(lp3226
(lp3227
tp3228
a(L2508839873L
L0L
(lp3229
(lp3230
tp3231
a(L2661576437L
L0L
(lp3232
(lp3233
tp3234
a(L2503437888L
L0L
(lp3235
(lp3236
tp3237
a(L677569396L
L3785322319L
(lp3238
(lp3239
Vverify_load_addresses
p3240
atp3241
a(L1351513776L
L0L
(lp3242
(lp3243
tp3244
a(L3061261803L
L0L
(lp3245
(lp3246
tp3247
a(L2743341656L
L0L
(lp3248
(lp3249
tp3250
a(L2313851956L
L0L
(lp3251
(lp3252
tp3253
a(L729859039L
L0L
(lp3254
(lp3255
tp3256
a(L4026856790L
L3785322319L
(lp3257
(lp3258
Vbootloader_util_regions_overlap
p3259
atp3260
a(L3028481L
L0L
(lp3261
(lp3262
tp3263
a(L1567678174L
L3785322319L
(lp3264
(lp3265
Vbootloader_util_regions_overlap
p3266
atp3267
a(L2782864159L
L0L
(lp3268
(lp3269
tp3270
a(L430813523L
L0L
(lp3271
(lp3272
tp3273
a(L1256222942L
L0L
(lp3274
(lp3275
tp3276
a(L3569512628L
L0L
(lp3277
(lp3278
tp3279
a(L307916850L
L0L
(lp3280
(lp3281
tp3282
a(L697239146L
L0L
(lp3283
(lp3284
tp3285
a(L106L
L0L
(lp3286
(lp3287
tp3288
a(L955505038L
L0L
(lp3289
(lp3290
tp3291
a(L307917420L
L0L
(lp3292
(lp3293
tp3294
a(L490080443L
L0L
(lp3295
(lp3296
tp3297
a(L106L
L0L
(lp3298
(lp3299
tp3300
a(L2911734060L
L3785322319L
(lp3301
(lp3302
Vesp_log_early_timestamp
p3303
atp3304
a(L955504914L
L0L
(lp3305
(lp3306
tp3307
a(L1303560427L
L0L
(lp3308
(lp3309
tp3310
atp3311
sI1074245324
(Vrtc_clk_fast_src_set
p3312
(lp3313
(L1803815991L
L0L
(lp3314
(lp3315
tp3316
a(L3020187L
L0L
(lp3317
(lp3318
tp3319
a(L3827921190L
L3785322319L
(lp3320
(lp3321
Vabort
p3322
atp3323
a(L209959690L
L0L
(lp3324
(lp3325
tp3326
a(L1379824320L
L0L
(lp3327
(lp3328
tp3329
a(L300459962L
L0L
(lp3330
(lp3331
tp3332
atp3333
sI1074240712
(Vbootloader_console_deinit
p3334
(lp3335
(L3736498623L
L0L
(lp3336
(lp3337
tp3338
atp3339
sI1074240980
(Vprocess_image_header
p3340
(lp3341
(L1298623440L
L3785322319L
(lp3342
(lp3343
Vbootloader_flash_read
p3344
atp3345
a(L3020204L
L0L
(lp3346
(lp3347
tp3348
a(L4130667142L
L0L
(lp3349
(lp3350
tp3351
a(L3131381282L
L0L
(lp3352
(lp3353
tp3354
a(L1161397362L
L3785322319L
(lp3355
(lp3356
Vbootloader_sha256_start
p3357
atp3358
a(L1948257695L
L3785322319L
(lp3359
(lp3360
Vbootloader_sha256_data
p3361
atp3362
a(L1095449651L
L0L
(lp3363
(lp3364
tp3365
a(L3020204L
L0L
(lp3366
(lp3367
tp3368
a(L702739530L
L0L
(lp3369
(lp3370
tp3371
a(L3360570486L
L0L
(lp3372
(lp3373
tp3374
a(L1670339747L
L3785322319L
(lp3375
(lp3376
Vesp_log_early_timestamp
p3377
atp3378
a(L3718883008L
L3785322319L
(lp3379
(lp3380
Vbootloader_common_check_chip_validity
p3381
atp3382
a(L3677035427L
L0L
(lp3383
(lp3384
tp3385
a(L3028481L
L0L
(lp3386
(lp3387
tp3388
a(L2926114146L
L3785322319L
(lp3389
(lp3390
Vesp_log_early_timestamp
p3391
atp3392
a(L2250109166L
L0L
(lp3393
(lp3394
tp3395
a(L1235012870L
L0L
(lp3396
(lp3397
tp3398
a(L3063569071L
L0L
(lp3399
(lp3400
tp3401
atp3402
sI1074269404
(Vbootloader_flash_update_id
p3403
(lp3404
(L824600716L
L3785322319L
(lp3405
(lp3406
Vbootloader_read_flash_id
p3407
atp3408
atp3409
sI1074237404
(Vbootloader_mmap
p3410
(lp3411
(L3624397292L
L0L
(lp3412
(lp3413
tp3414
a(L243940828L
L3785322319L
(lp3415
(lp3416
Vesp_log_early_timestamp
p3417
atp3418
a(L3871473710L
L0L
(lp3419
(lp3420
tp3421
a(L3729184599L
L0L
(lp3422
(lp3423
tp3424
a(L420931470L
L3785322319L
(lp3425
(lp3426
Vesp_log_early_timestamp
p3427
atp3428
a(L1864365708L
L0L
(lp3429
(lp3430
tp3431
a(L3643511071L
L3785322319L
(lp3432
(lp3433
Vesp_log_early_timestamp
p3434
atp3435
a(L258722864L
L0L
(lp3436
(lp3437
tp3438
a(L3840066862L
L3785322319L
(lp3439
(lp3440
Vesp_log_early_timestamp
p3441
atp3442
a(L2535155408L
L0L
(lp3443
(lp3444
tp3445
atp3446
sI1074239196
(Vset_actual_ota_seq
p3447
(lp3448
(L4094723830L
L0L
(lp3449
(lp3450
tp3451
a(L952758373L
L0L
(lp3452
(lp3453
tp3454
a(L1862038888L
L1832448559L
(lp3455
(lp3456
Vbootloader_common_ota_select_crc
p3457
aVesp_flash_encryption_enabled
p3458
aVbootloader_flash_erase_sector
p3459
atp3460
a(L3292941333L
L3785322319L
(lp3461
(lp3462
Vbootloader_flash_write
p3463
atp3464
a(L9642273L
L3785322319L
(lp3465
(lp3466
Vesp_log_early_timestamp
p3467
atp3468
a(L3829560850L
L3785322319L
(lp3469
(lp3470
Vesp_log_early_timestamp
p3471
atp3472
a(L3360570486L
L0L
(lp3473
(lp3474
tp3475
atp3476
sI1074244312
(Vwdt_hal_set_flashboot_en
p3477
(lp3478
(L2375320464L
L0L
(lp3479
(lp3480
tp3481
a(L3915867581L
L0L
(lp3482
(lp3483
tp3484
a(L3360570486L
L0L
(lp3485
(lp3486
tp3487
a(L1643092119L
L0L
(lp3488
(lp3489
tp3490
atp3491
sI1074240728
(V__assert_func
p3492
(lp3493
(L2563536430L
L0L
(lp3494
(lp3495
tp3496
a(L106L
L0L
(lp3497
(lp3498
tp3499
atp3500
sI1074247908
(Vesp_rom_spiflash_write_encrypted
p3501
(lp3502
(L1944247967L
L0L
(lp3503
(lp3504
tp3505
a(L1384352641L
L0L
(lp3506
(lp3507
tp3508
a(L97689L
L0L
(lp3509
(lp3510
tp3511
a(L3061232074L
L0L
(lp3512
(lp3513
tp3514
a(L1637565147L
L0L
(lp3515
(lp3516
tp3517
a(L1309309703L
L3785322319L
(lp3518
(lp3519
Vesp_rom_spiflash_write
p3520
atp3521
a(L3782958983L
L0L
(lp3522
(lp3523
tp3524
a(L735741265L
L0L
(lp3525
(lp3526
tp3527
atp3528
sI1074268908
(Vbootloader_init_mem
p3529
(lp3530
(L1287383080L
L3785322319L
(lp3531
(lp3532
Vesp_cpu_configure_region_protection
p3533
atp3534
atp3535
sI1074269420
(Vbootloader_clear_bss_section
p3536
(lp3537
(L1126806563L
L0L
(lp3538
(lp3539
tp3540
atp3541
sI1074235616
(Vbootloader_flash_xmc_startup
p3542
(lp3543
(L3193865048L
L3785322319L
(lp3544
(lp3545
Vis_xmc_chip_strict
p3546
atp3547
a(L2258688482L
L0L
(lp3548
(lp3549
tp3550
a(L3360570486L
L0L
(lp3551
(lp3552
tp3553
a(L2860324232L
L3785322319L
(lp3554
(lp3555
Vbootloader_flash_read_sfdp
p3556
atp3557
a(L1435030724L
L2567856111L
(lp3558
(lp3559
Vesp_log_early_timestamp
p3560
aVbootloader_execute_flash_command
p3561
aVbootloader_execute_flash_command
p3562
aVbootloader_execute_flash_command
p3563
aVbootloader_execute_flash_command
p3564
aVbootloader_read_flash_id
p3565
aVis_xmc_chip_strict
p3566
atp3567
a(L3505255384L
L3785322319L
(lp3568
(lp3569
Vesp_log_early_timestamp
p3570
atp3571
atp3572
sI1074244576
(Vrtc_clk_32k_enable_common
p3573
(lp3574
(L524789055L
L0L
(lp3575
(lp3576
tp3577
a(L97689L
L0L
(lp3578
(lp3579
tp3580
a(L2218417250L
L0L
(lp3581
(lp3582
tp3583
a(L3772650524L
L0L
(lp3584
(lp3585
tp3586
a(L51458058L
L0L
(lp3587
(lp3588
tp3589
atp3590
sI1074235884
(Vbootloader_flash_gpio_config
p3591
(lp3592
(L3448878117L
L3785322319L
(lp3593
(lp3594
Vbootloader_common_get_chip_ver_pkg
p3595
atp3596
a(L106L
L0L
(lp3597
(lp3598
tp3599
a(L1998579353L
L0L
(lp3600
(lp3601
tp3602
a(L106L
L0L
(lp3603
(lp3604
tp3605
a(L961479410L
L0L
(lp3606
(lp3607
tp3608
a(L3118453758L
L0L
(lp3609
(lp3610
tp3611
a(L106L
L0L
(lp3612
(lp3613
tp3614
a(L4003626558L
L0L
(lp3615
(lp3616
tp3617
a(L2656511625L
L0L
(lp3618
(lp3619
tp3620
a(L3360570486L
L0L
(lp3621
(lp3622
tp3623
atp3624
sI1074236908
(Vesp_log_early_timestamp
p3625
(lp3626
(L3733265409L
L0L
(lp3627
(lp3628
tp3629
atp3630
sI1074237932
(Vbootloader_flash_erase_sector
p3631
(lp3632
(L4129137686L
L1880226080L
(lp3633
(lp3634
Vesp_rom_spiflash_erase_sector
p3635
aVspi_to_esp_err
p3636
atp3637
atp3638
sI1074245864
(Vrtc_clk_cpu_freq_set_config
p3639
(lp3640
(L2689297958L
L3785322319L
(lp3641
(lp3642
Vrtc_clk_xtal_freq_get
p3643
atp3644
a(L3020187L
L0L
(lp3645
(lp3646
tp3647
a(L3028464L
L0L
(lp3648
(lp3649
tp3650
a(L264223053L
L1880226080L
(lp3651
(lp3652
Vrtc_clk_cpu_freq_to_xtal
p3653
aVrtc_clk_wait_for_slow_cycle
p3654
atp3655
a(L94425498L
L3785322319L
(lp3656
(lp3657
Vrtc_clk_bbpll_disable
p3658
atp3659
a(L3978916712L
L0L
(lp3660
(lp3661
tp3662
a(L2977209154L
L0L
(lp3663
(lp3664
tp3665
a(L2736411858L
L3785322319L
(lp3666
(lp3667
Vrtc_clk_cpu_freq_to_xtal
p3668
atp3669
a(L3360570486L
L0L
(lp3670
(lp3671
tp3672
a(L3020187L
L0L
(lp3673
(lp3674
tp3675
a(L106L
L0L
(lp3676
(lp3677
tp3678
a(L2090763015L
L1880226080L
(lp3679
(lp3680
Vrtc_clk_wait_for_slow_cycle
p3681
aVrtc_clk_xtal_freq_get
p3682
atp3683
a(L106L
L0L
(lp3684
(lp3685
tp3686
a(L1760301549L
L0L
(lp3687
(lp3688
tp3689
a(L106L
L0L
(lp3690
(lp3691
tp3692
a(L83268611L
L0L
(lp3693
(lp3694
tp3695
a(L106L
L0L
(lp3696
(lp3697
tp3698
a(L82344823L
L0L
(lp3699
(lp3700
tp3701
a(L106L
L0L
(lp3702
(lp3703
tp3704
a(L1274797871L
L0L
(lp3705
(lp3706
tp3707
a(L2653998096L
L0L
(lp3708
(lp3709
tp3710
a(L3962028983L
L1880226080L
(lp3711
(lp3712
Vclk_ll_rtc_slow_get_src
p3713
aVrtc_clk_cpu_freq_to_pll_mhz
p3714
atp3715
a(L2476117392L
L0L
(lp3716
(lp3717
tp3718
a(L83268344L
L0L
(lp3719
(lp3720
tp3721
a(L82345090L
L0L
(lp3722
(lp3723
tp3724
a(L1299628291L
L0L
(lp3725
(lp3726
tp3727
a(L1465084682L
L0L
(lp3728
(lp3729
tp3730
a(L2258807646L
L0L
(lp3731
(lp3732
tp3733
a(L878473564L
L0L
(lp3734
(lp3735
tp3736
a(L2389426015L
L0L
(lp3737
(lp3738
tp3739
a(L1596574736L
L0L
(lp3740
(lp3741
tp3742
a(L2086626670L
L0L
(lp3743
(lp3744
tp3745
a(L1302638456L
L0L
(lp3746
(lp3747
tp3748
a(L810137203L
L0L
(lp3749
(lp3750
tp3751
a(L87353900L
L0L
(lp3752
(lp3753
tp3754
a(L3020187L
L0L
(lp3755
(lp3756
tp3757
a(L106L
L0L
(lp3758
(lp3759
tp3760
a(L2372492134L
L0L
(lp3761
(lp3762
tp3763
atp3764
sI1074270712
(Vmpu_hal_set_region_access
p3765
(lp3766
(L3538356822L
L0L
(lp3767
(lp3768
tp3769
a(L93674324L
L0L
(lp3770
(lp3771
tp3772
a(L2910371777L
L0L
(lp3773
(lp3774
tp3775
a(L3472092938L
L0L
(lp3776
(lp3777
tp3778
a(L3020187L
L0L
(lp3779
(lp3780
tp3781
a(L3360570486L
L0L
(lp3782
(lp3783
tp3784
a(L2258718273L
L0L
(lp3785
(lp3786
tp3787
a(L3446648619L
L0L
(lp3788
(lp3789
tp3790
a(L3739532189L
L0L
(lp3791
(lp3792
tp3793
a(L1300789895L
L0L
(lp3794
(lp3795
tp3796
atp3797
sI1074237680
(Vbootloader_flash_read
p3798
(lp3799
(L728393898L
L0L
(lp3800
(lp3801
tp3802
a(L2508346275L
L3785322319L
(lp3803
(lp3804
Vesp_log_early_timestamp
p3805
atp3806
a(L1024709524L
L0L
(lp3807
(lp3808
tp3809
a(L3360570486L
L0L
(lp3810
(lp3811
tp3812
a(L2660352519L
L0L
(lp3813
(lp3814
tp3815
a(L1628083166L
L3785322319L
(lp3816
(lp3817
Vesp_log_early_timestamp
p3818
atp3819
a(L162336582L
L0L
(lp3820
(lp3821
tp3822
a(L1263385939L
L3785322319L
(lp3823
(lp3824
Vesp_log_early_timestamp
p3825
atp3826
a(L3020204L
L0L
(lp3827
(lp3828
tp3829
a(L3893043951L
L0L
(lp3830
(lp3831
tp3832
a(L97422L
L0L
(lp3833
(lp3834
tp3835
a(L1190291857L
L0L
(lp3836
(lp3837
tp3838
a(L2961856275L
L0L
(lp3839
(lp3840
tp3841
a(L3929038665L
L3785322319L
(lp3842
(lp3843
V__assert_func
p3844
atp3845
a(L1539897528L
L0L
(lp3846
(lp3847
tp3848
a(L1915165223L
L0L
(lp3849
(lp3850
tp3851
a(L1336007148L
L1880226080L
(lp3852
(lp3853
Vesp_rom_spiflash_read
p3854
aVspi_to_esp_err
p3855
atp3856
atp3857
sI1074240752
(Vabort
p3858
(lp3859
(L2721556590L
L0L
(lp3860
(lp3861
tp3862
a(L409471316L
L0L
(lp3863
(lp3864
tp3865
a(L106L
L0L
(lp3866
(lp3867
tp3868
atp3869
sI1074245116
(Vrtc_clk_8m_enabled
p3870
(lp3871
(L4114170484L
L0L
(lp3872
(lp3873
tp3874
atp3875
sI1074268916
(Vbootloader_random_enable
p3876
(lp3877
(L1057236879L
L0L
(lp3878
(lp3879
tp3880
atp3881
sI1074269684
(Vbootloader_enable_random
p3882
(lp3883
(L3877406719L
L1880226080L
(lp3884
(lp3885
Vesp_log_early_timestamp
p3886
aVbootloader_random_enable
p3887
atp3888
atp3889
sI1074238200
(Vbootloader_random_disable
p3890
(lp3891
(L3778370451L
L0L
(lp3892
(lp3893
tp3894
atp3895
sI1074238712
(Vcache_ll_l1_get_bus
p3896
(lp3897
(L4282787682L
L0L
(lp3898
(lp3899
tp3900
a(L94425498L
L3785322319L
(lp3901
(lp3902
Vabort
p3903
atp3904
a(L435078012L
L0L
(lp3905
(lp3906
tp3907
a(L1355180903L
L0L
(lp3908
(lp3909
tp3910
a(L892952750L
L0L
(lp3911
(lp3912
tp3913
a(L1182811810L
L0L
(lp3914
(lp3915
tp3916
a(L1101742417L
L0L
(lp3917
(lp3918
tp3919
a(L1100767927L
L0L
(lp3920
(lp3921
tp3922
a(L3360570486L
L0L
(lp3923
(lp3924
tp3925
a(L420296406L
L0L
(lp3926
(lp3927
tp3928
a(L892952750L
L0L
(lp3929
(lp3930
tp3931
a(L1182811810L
L0L
(lp3932
(lp3933
tp3934
a(L2053750565L
L0L
(lp3935
(lp3936
tp3937
a(L2258867228L
L0L
(lp3938
(lp3939
tp3940
a(L4202138570L
L0L
(lp3941
(lp3942
tp3943
a(L3211405977L
L0L
(lp3944
(lp3945
tp3946
a(L2795746388L
L0L
(lp3947
(lp3948
tp3949
a(L1641149277L
L0L
(lp3950
(lp3951
tp3952
a(L445231473L
L0L
(lp3953
(lp3954
tp3955
a(L899412127L
L0L
(lp3956
(lp3957
tp3958
a(L106L
L0L
(lp3959
(lp3960
tp3961
a(L1299866436L
L0L
(lp3962
(lp3963
tp3964
atp3965
sI1074239992
(Vbootloader_reset
p3966
(lp3967
(L2770363336L
L3785322319L
(lp3968
(lp3969
Vbootloader_console_deinit
p3970
atp3971
a(L106L
L0L
(lp3972
(lp3973
tp3974
atp3975
sI1074243064
(Vbootloader_load_image
p3976
(lp3977
(L1155870502L
L3785322319L
(lp3978
(lp3979
Vimage_load
p3980
atp3981
atp3982
sI1074247416
(Vesp_rom_spiflash_program_page_internal
p3983
(lp3984
(L2569069283L
L0L
(lp3985
(lp3986
tp3987
a(L2258688483L
L0L
(lp3988
(lp3989
tp3990
a(L3360570486L
L0L
(lp3991
(lp3992
tp3993
a(L2829044961L
L0L
(lp3994
(lp3995
tp3996
a(L4235661475L
L3785322319L
(lp3997
(lp3998
Vesp_rom_spiflash_wait_idle
p3999
atp4000
a(L1299866312L
L0L
(lp4001
(lp4002
tp4003
a(L3212356251L
L3785322319L
(lp4004
(lp4005
Vesp_rom_spiflash_enable_write
p4006
atp4007
a(L1147926754L
L0L
(lp4008
(lp4009
tp4010
a(L1660321380L
L0L
(lp4011
(lp4012
tp4013
a(L2953702749L
L0L
(lp4014
(lp4015
tp4016
a(L2989032L
L0L
(lp4017
(lp4018
tp4019
a(L1965622133L
L0L
(lp4020
(lp4021
tp4022
a(L1468673061L
L0L
(lp4023
(lp4024
tp4025
a(L1958113242L
L0L
(lp4026
(lp4027
tp4028
a(L106L
L0L
(lp4029
(lp4030
tp4031
a(L3112950080L
L0L
(lp4032
(lp4033
tp4034
a(L1868606439L
L0L
(lp4035
(lp4036
tp4037
a(L1008983191L
L0L
(lp4038
(lp4039
tp4040
a(L1933954923L
L0L
(lp4041
(lp4042
tp4043
a(L1147866918L
L0L
(lp4044
(lp4045
tp4046
a(L3871602522L
L0L
(lp4047
(lp4048
tp4049
atp4050
ssS'functionsdups'
p4051
g11
((lp4052
tp4053
Rp4054
sS'immediatedups'
p4055
g11
((lp4056
tp4057
Rp4058
sS'functiondups'
p4059
g11
((lp4060
tp4061
Rp4062
sS'fuzzy'
p4063
(dp4064
L438947497L
I1074245164
sL2170867428L
I1074270044
sL617583950L
I1074236996
sL430153639L
I1074235884
sL3121027072L
I1074270480
sL2082889262L
I1074241624
sL291131346L
I1074244712
sL835568324L
I1074246592
sL2919016435L
I1074235224
sL16208487L
I1074234712
sL2319042089L
I1074245296
sL3881399234L
I1074245748
sL151789201L
I1074269860
sL2680783959L
I1074235616
sL3512578114L
I1074238612
sL1419132215L
I1074238120
sL2469233929L
I1074240516
sL701833459L
I1074268676
sL3897252859L
I1074238528
sL1065525808L
I1074236836
sL2327783177L
I1074240808
sL1604071461L
I1074238836
sL1164839255L
I1074241844
sL2272466760L
I1074245536
sL2117292686L
I1074241228
sL2329673444L
I1074267788
sL2044047637L
I1074239316
sL1188065553L
I1074237680
sL94556391L
I1074245324
sL3210669721L
I1074244928
sL1332800441L
I1074237228
sL1345429244L
I1074240980
sL3190020590L
I1074242564
sL2828970830L
I1074239196
sL4160102055L
I1074239992
sL4202185385L
I1074247308
sL1768086576L
I1074236352
sL4171975289L
I1074247608
sL1565254297L
I1074247908
sL1205407754L
I1074240024
sL2191698036L
I1074269556
sL1513350244L
I1074239680
sL1635528231L
I1074243964
sL519424169L
I1074247060
sL1060788199L
I1074245444
sL406720601L
I1074238712
sL737694352L
I1074247416
sL503029138L
I1074247356
sL1616763831L
I1074247996
sL2262558768L
I1074247220
sL424867129L
I1074247744
sL3834155367L
I1074241172
sL2405032630L
I1074267680
sL3338518926L
I1074237404
sL2123938668L
I1074245864
sL3883282432L
I1074241716
sL4173399607L
I1074243080
sL1667054119L
I1074240360
sL206902443L
I1074237952
ssb.