ccopy_reg
_reconstructor
p0
(crizzo
RizzoSignature
p1
c__builtin__
object
p2
Ntp3
Rp4
(dp5
S'formal'
p6
(dp7
L1958505659L
I1074240532
sL4120251793L
I1074241640
sL879513446L
I1074239696
sL1741170115L
I1074237948
sL4057657041L
I1074243096
sL3616908446L
I1074245820
sL1725217240L
I1074237696
sL1073223159L
I1074239332
sL899508882L
I1074245688
sL1065111407L
I1074241188
sL475533132L
I1074238728
sL3325222694L
I1074268924
sL1127322148L
I1074269564
sL4160769560L
I1074269428
sL4154259590L
I1074245640
sL4213015302L
I1074243080
sL1457770435L
I1074268620
sL3183029151L
I1074236716
sL818480367L
I1074236612
sL412555707L
I1074248432
sL2702580795L
I1074237312
sL4173281938L
I1074248268
sL2294953444L
I1074240996
sL847002958L
I1074244884
sL2396805871L
I1074239212
sL2896295319L
I1074236852
sL1716532329L
I1074244496
sL3990041832L
I1074245496
sL2906330375L
I1074247072
sL672637994L
I1074269496
sL4081321594L
I1074245848
sL1674148343L
I1074245968
sL1032419019L
I1074241732
sL2485902447L
I1074236692
sL1568461625L
I1074247584
sL1689124072L
I1074247832
sL3447792584L
I1074240376
sL1685012004L
I1074268676
sL4263947382L
I1074236516
sL1430212718L
I1074237012
sL2641606176L
I1074240824
sL1602493399L
I1074245004
sL13079699L
I1074270488
sL2166402678L
I1074235788
sL3791484843L
I1074267139
sL1585823442L
I1074244396
sL1037898884L
I1074241860
sL1622896354L
I1074244424
sL609840896L
I1074269784
sL3350648555L
I1074237420
sL3138286928L
I1074244564
sL3539619493L
I1074269868
sL878917889L
I1074238136
sL3241217362L
I1074240040
sL3447586836L
I1074246200
sL747962360L
I1074236756
sL560179469L
I1074243384
sL3906855341L
I1074244944
sL3169546899L
I1074236368
sL2128774811L
I1074236548
sL3321477504L
I1074238676
sL4130617930L
I1074240768
sL602601834L
I1074269692
sL426984944L
I1074236924
sL676927194L
I1074268916
sL2277098556L
I1074236824
sL3307282855L
I1074238108
sL911764690L
I1074237644
sL2880449850L
I1074244728
sL1288093517L
I1074242580
sL2563964767L
I1074235900
sL3318570306L
I1074247880
sL1043339424L
I1074240280
sL748887095L
I1074248132
sL3977890188L
I1074247552
sL338289329L
I1074247744
sL1687894276L
I1074244296
sL4038945309L
I1074235584
sL2529718379L
I1074246388
sL2626436395L
I1074236956
sL678848990L
I1074240744
sL861799670L
I1074246060
sL1458403909L
I1074269720
sL2997001746L
I1074237244
sL3298106919L
I1074238852
sL4803579L
I1074270648
sL3600274720L
I1074269412
sL1724215933L
I1074247940
sL2819127986L
I1074236976
sL1312784261L
I1074270052
sL3073265555L
I1074237968
sL3275213961L
I1074238216
sL3744494321L
I1074238628
sL1877634603L
I1074270720
sL1541017880L
I1074269452
sL1317093701L
I1074238544
sL3379108269L
I1074243980
sL3020283585L
I1074244592
sL494581436L
I1074245512
sL3459889393L
I1074244328
sL1906585453L
I1074241244
sL4031693703L
I1074247116
sL404293581L
I1074237388
sL1177322488L
I1074267788
sL3449242177L
I1074246272
sL2263182908L
I1074238128
sL1267159130L
I1074235240
sL3630163135L
I1074236840
sL2955219653L
I1074245664
sL188664287L
I1074235208
sL1587014771L
I1074240008
sL1499807873L
I1074244524
sL692536993L
I1074237284
sL729611412L
I1074246244
sL1963047656L
I1074234728
sL2979852151L
I1074248520
sL3004414718L
I1074240356
sL3855719998L
I1074245912
sL3149616203L
I1074240728
sL1636616062L
I1074235532
sL3049985855L
I1074235632
sL4242416936L
I1074269820
sL1096138921L
I1074245928
sL3018942732L
I1074267680
ssS'immediates'
p8
(dp9
sS'formaldups'
p10
c__builtin__
set
p11
((lp12
tp13
Rp14
sS'stringdups'
p15
g11
((lp16
tp17
Rp18
sS'fuzzydups'
p19
g11
((lp20
tp21
Rp22
sS'strings'
p23
(dp24
sS'functions'
p25
(dp26
I1074247940
(Vesp_rom_spiflash_program_page_internal
p27
(lp28
(L2569069283L
L0L
(lp29
(lp30
tp31
a(L2258688483L
L0L
(lp32
(lp33
tp34
a(L3360570486L
L0L
(lp35
(lp36
tp37
a(L3834367050L
L0L
(lp38
(lp39
tp40
a(L4235661475L
L3785322319L
(lp41
(lp42
Vesp_rom_spiflash_wait_idle
p43
atp44
a(L1299866312L
L0L
(lp45
(lp46
tp47
a(L3212356251L
L3785322319L
(lp48
(lp49
Vesp_rom_spiflash_enable_write
p50
atp51
a(L1080920001L
L0L
(lp52
(lp53
tp54
a(L3771611749L
L0L
(lp55
(lp56
tp57
a(L2953702749L
L0L
(lp58
(lp59
tp60
a(L2989032L
L0L
(lp61
(lp62
tp63
a(L1965622133L
L0L
(lp64
(lp65
tp66
a(L2349682087L
L0L
(lp67
(lp68
tp69
a(L1958113242L
L0L
(lp70
(lp71
tp72
a(L106L
L0L
(lp73
(lp74
tp75
a(L3112950080L
L0L
(lp76
(lp77
tp78
a(L1868606439L
L0L
(lp79
(lp80
tp81
a(L1008983222L
L0L
(lp82
(lp83
tp84
a(L1933954923L
L0L
(lp85
(lp86
tp87
a(L1147866918L
L0L
(lp88
(lp89
tp90
a(L3871602522L
L0L
(lp91
(lp92
tp93
atp94
sI1074269452
(Vbootloader_read_bootloader_header
p95
(lp96
(L820832178L
L3785322319L
(lp97
(lp98
Vbootloader_flash_read
p99
atp100
a(L3109664945L
L3785322319L
(lp101
(lp102
Vesp_log_early_timestamp
p103
atp104
a(L735741265L
L0L
(lp105
(lp106
tp107
atp108
sI1074240768
(Vabort
p109
(lp110
(L2721556590L
L0L
(lp111
(lp112
tp113
a(L409471316L
L0L
(lp114
(lp115
tp116
a(L106L
L0L
(lp117
(lp118
tp119
atp120
sI1074237696
(Vbootloader_flash_read
p121
(lp122
(L728393898L
L0L
(lp123
(lp124
tp125
a(L2508346275L
L3785322319L
(lp126
(lp127
Vesp_log_early_timestamp
p128
atp129
a(L1024709524L
L0L
(lp130
(lp131
tp132
a(L3360570486L
L0L
(lp133
(lp134
tp135
a(L2660352519L
L0L
(lp136
(lp137
tp138
a(L1628083166L
L3785322319L
(lp139
(lp140
Vesp_log_early_timestamp
p141
atp142
a(L162336582L
L0L
(lp143
(lp144
tp145
a(L1263385939L
L3785322319L
(lp146
(lp147
Vesp_log_early_timestamp
p148
atp149
a(L3020204L
L0L
(lp150
(lp151
tp152
a(L3893043951L
L0L
(lp153
(lp154
tp155
a(L97422L
L0L
(lp156
(lp157
tp158
a(L1190291857L
L0L
(lp159
(lp160
tp161
a(L2961856275L
L0L
(lp162
(lp163
tp164
a(L3929038665L
L3785322319L
(lp165
(lp166
V__assert_func
p167
atp168
a(L1539897528L
L0L
(lp169
(lp170
tp171
a(L1915165223L
L0L
(lp172
(lp173
tp174
a(L1336007148L
L1880226080L
(lp175
(lp176
Vesp_rom_spiflash_read
p177
aVspi_to_esp_err
p178
atp179
atp180
sI1074267136
(V_init
p181
(lp182
(L3493042598L
L0L
(lp183
(lp184
tp185
atp186
sI1074270720
(Vmpu_hal_set_region_access
p187
(lp188
(L3538356822L
L0L
(lp189
(lp190
tp191
a(L93674324L
L0L
(lp192
(lp193
tp194
a(L2910371777L
L0L
(lp195
(lp196
tp197
a(L3472092938L
L0L
(lp198
(lp199
tp200
a(L3020187L
L0L
(lp201
(lp202
tp203
a(L3360570486L
L0L
(lp204
(lp205
tp206
a(L2258718273L
L0L
(lp207
(lp208
tp209
a(L3446648619L
L0L
(lp210
(lp211
tp212
a(L3739532189L
L0L
(lp213
(lp214
tp215
a(L1300789895L
L0L
(lp216
(lp217
tp218
atp219
sI1074267139
(V_text_start
p220
(lp221
(L1817914933L
L0L
(lp222
(lp223
tp224
a(L536106224L
L0L
(lp225
(lp226
tp227
atp228
sI1074268676
(Vbootloader_clock_configure
p229
(lp230
(L2559598596L
L1880226080L
(lp231
(lp232
Vesp_rom_uart_tx_wait_idle
p233
aVefuse_hal_chip_revision
p234
atp235
a(L2957267460L
L0L
(lp236
(lp237
tp238
a(L883406775L
L0L
(lp239
(lp240
tp241
a(L106L
L0L
(lp242
(lp243
tp244
a(L3732868720L
L1832448559L
(lp245
(lp246
Vrtc_clk_slow_src_get
p247
aVrtc_clk_fast_src_get
p248
aVrtc_clk_init
p249
atp250
a(L3287840219L
L3785322319L
(lp251
(lp252
Vrtc_clk_32k_enabled
p253
atp254
a(L4283346264L
L3785322319L
(lp255
(lp256
Vrtc_clk_32k_bootstrap
p257
atp258
a(L3184814094L
L0L
(lp259
(lp260
tp261
a(L1022947098L
L3785322319L
(lp262
(lp263
Vrtc_clk_apb_freq_get
p264
atp265
a(L106L
L0L
(lp266
(lp267
tp268
a(L106L
L0L
(lp269
(lp270
tp271
atp272
sI1074243080
(Vbootloader_load_image
p273
(lp274
(L1155870502L
L3785322319L
(lp275
(lp276
Vimage_load
p277
atp278
atp279
sI1074240008
(Vbootloader_reset
p280
(lp281
(L2770363336L
L3785322319L
(lp282
(lp283
Vbootloader_console_deinit
p284
atp285
a(L106L
L0L
(lp286
(lp287
tp288
atp289
sI1074238728
(Vcache_ll_l1_get_bus
p290
(lp291
(L4282787682L
L0L
(lp292
(lp293
tp294
a(L94425498L
L3785322319L
(lp295
(lp296
Vabort
p297
atp298
a(L435078012L
L0L
(lp299
(lp300
tp301
a(L1355180903L
L0L
(lp302
(lp303
tp304
a(L892952750L
L0L
(lp305
(lp306
tp307
a(L1182811810L
L0L
(lp308
(lp309
tp310
a(L1101742417L
L0L
(lp311
(lp312
tp313
a(L1100767927L
L0L
(lp314
(lp315
tp316
a(L3360570486L
L0L
(lp317
(lp318
tp319
a(L420296406L
L0L
(lp320
(lp321
tp322
a(L892952750L
L0L
(lp323
(lp324
tp325
a(L1182811810L
L0L
(lp326
(lp327
tp328
a(L2053750565L
L0L
(lp329
(lp330
tp331
a(L2258867228L
L0L
(lp332
(lp333
tp334
a(L4202138570L
L0L
(lp335
(lp336
tp337
a(L3211405977L
L0L
(lp338
(lp339
tp340
a(L2795746388L
L0L
(lp341
(lp342
tp343
a(L1641149277L
L0L
(lp344
(lp345
tp346
a(L445231473L
L0L
(lp347
(lp348
tp349
a(L899412127L
L0L
(lp350
(lp351
tp352
a(L106L
L0L
(lp353
(lp354
tp355
a(L1299866436L
L0L
(lp356
(lp357
tp358
atp359
sI1074238216
(Vbootloader_random_disable
p360
(lp361
(L3778370451L
L0L
(lp362
(lp363
tp364
atp365
sI1074245640
(Vrtc_clk_8m_enabled
p366
(lp367
(L4114170484L
L0L
(lp368
(lp369
tp370
atp371
sI1074269720
(Vbootloader_print_banner
p372
(lp373
(L3551273434L
L1832448559L
(lp374
(lp375
Vesp_log_early_timestamp
p376
aVesp_log_early_timestamp
p377
aVesp_log_early_timestamp
p378
atp379
atp380
sI1074270488
(Vrtc_vddsdio_get_config
p381
(lp382
(L1158496952L
L0L
(lp383
(lp384
tp385
a(L3421108135L
L0L
(lp386
(lp387
tp388
a(L3002774692L
L0L
(lp389
(lp390
tp391
a(L875820931L
L0L
(lp392
(lp393
tp394
a(L3960235376L
L0L
(lp395
(lp396
tp397
a(L339089969L
L0L
(lp398
(lp399
tp400
a(L1306330959L
L0L
(lp401
(lp402
tp403
a(L864600520L
L0L
(lp404
(lp405
tp406
atp407
sI1074236692
(Vefuse_hal_chip_revision
p408
(lp409
(L2719302832L
L1880226080L
(lp410
(lp411
Vefuse_hal_get_major_chip_version
p412
aVefuse_hal_get_minor_chip_version
p413
atp414
atp415
sI1074240532
(Vbootloader_sha256_finish
p416
(lp417
(L4066096136L
L0L
(lp418
(lp419
tp420
a(L3700221434L
L0L
(lp421
(lp422
tp423
a(L3769576247L
L3785322319L
(lp424
(lp425
V__assert_func
p426
atp427
a(L3020204L
L0L
(lp428
(lp429
tp430
a(L4203940480L
L0L
(lp431
(lp432
tp433
a(L2534656226L
L0L
(lp434
(lp435
tp436
a(L2983921586L
L3785322319L
(lp437
(lp438
Vbootloader_sha256_data
p439
atp440
a(L1663378153L
L0L
(lp441
(lp442
tp443
a(L4057907435L
L3785322319L
(lp444
(lp445
Vbootloader_sha256_data
p446
atp447
a(L1708642847L
L0L
(lp448
(lp449
tp450
a(L657425439L
L0L
(lp451
(lp452
tp453
a(L4126561661L
L0L
(lp454
(lp455
tp456
a(L657425439L
L0L
(lp457
(lp458
tp459
a(L1118122324L
L0L
(lp460
(lp461
tp462
a(L1411254304L
L0L
(lp463
(lp464
tp465
a(L3347778L
L0L
(lp466
(lp467
tp468
a(L3360570486L
L0L
(lp469
(lp470
tp471
atp472
sI1074242580
(Vimage_load
p473
(lp474
(L3559420668L
L0L
(lp475
(lp476
tp477
a(L1899869541L
L0L
(lp478
(lp479
tp480
a(L979631281L
L0L
(lp481
(lp482
tp483
a(L1525480527L
L0L
(lp484
(lp485
tp486
a(L1043148059L
L0L
(lp487
(lp488
tp489
a(L2796536461L
L0L
(lp490
(lp491
tp492
a(L2167622269L
L3785322319L
(lp493
(lp494
Vesp_log_early_timestamp
p495
atp496
a(L2068384292L
L0L
(lp497
(lp498
tp499
a(L1968553470L
L3785322319L
(lp500
(lp501
Vbootloader_sha256_finish
p502
atp503
a(L2282644308L
L0L
(lp504
(lp505
tp506
a(L3225218531L
L0L
(lp507
(lp508
tp509
a(L3802071166L
L0L
(lp510
(lp511
tp512
a(L1301867039L
L3785322319L
(lp513
(lp514
Vprocess_image_header
p515
atp516
a(L560228796L
L0L
(lp517
(lp518
tp519
a(L4185758499L
L0L
(lp520
(lp521
tp522
a(L1530940255L
L3785322319L
(lp523
(lp524
Vprocess_segments
p525
atp526
a(L1233227930L
L0L
(lp527
(lp528
tp529
a(L4139426811L
L0L
(lp530
(lp531
tp532
a(L2570888687L
L3785322319L
(lp533
(lp534
Vprocess_checksum
p535
atp536
a(L425503098L
L3785322319L
(lp537
(lp538
Vprocess_appended_hash_and_sig
p539
atp540
a(L780930979L
L0L
(lp541
(lp542
tp543
a(L2334355956L
L0L
(lp544
(lp545
tp546
a(L2215150936L
L0L
(lp547
(lp548
tp549
a(L1128119477L
L1880226080L
(lp550
(lp551
Vbootloader_sha256_finish
p552
aVbootloader_debug_buffer
p553
atp554
a(L1470712864L
L1880226080L
(lp555
(lp556
Vesp_log_early_timestamp
p557
aVbootloader_debug_buffer
p558
atp559
a(L1087646176L
L0L
(lp560
(lp561
tp562
a(L2068384292L
L0L
(lp563
(lp564
tp565
a(L3021148818L
L3785322319L
(lp566
(lp567
Vbootloader_sha256_finish
p568
atp569
a(L3028481L
L0L
(lp570
(lp571
tp572
a(L139701033L
L0L
(lp573
(lp574
tp575
a(L2510919588L
L0L
(lp576
(lp577
tp578
a(L772115669L
L0L
(lp579
(lp580
tp581
a(L2787789065L
L0L
(lp582
(lp583
tp584
a(L85798113L
L0L
(lp585
(lp586
tp587
a(L1351513776L
L0L
(lp588
(lp589
tp590
a(L159346313L
L3785322319L
(lp591
(lp592
Vshould_load
p593
atp594
a(L4218574503L
L0L
(lp595
(lp596
tp597
a(L3338774213L
L0L
(lp598
(lp599
tp600
a(L3464541874L
L0L
(lp601
(lp602
tp603
a(L3349572949L
L0L
(lp604
(lp605
tp606
a(L2192292519L
L0L
(lp607
(lp608
tp609
a(L106L
L0L
(lp610
(lp611
tp612
a(L26615924L
L0L
(lp613
(lp614
tp615
a(L1299866312L
L0L
(lp616
(lp617
tp618
a(L490060329L
L0L
(lp619
(lp620
tp621
atp622
sI1074244884
(Vrtc_clk_bbpll_disable
p623
(lp624
(L545288955L
L0L
(lp625
(lp626
tp627
a(L2472207241L
L0L
(lp628
(lp629
tp630
a(L3360570486L
L0L
(lp631
(lp632
tp633
atp634
sI1074237968
(Vbootloader_flash_write
p635
(lp636
(L3770380603L
L0L
(lp637
(lp638
tp639
a(L379117946L
L3785322319L
(lp640
(lp641
Vesp_log_early_timestamp
p642
atp643
a(L283255622L
L0L
(lp644
(lp645
tp646
a(L1610445075L
L0L
(lp647
(lp648
tp649
a(L735741265L
L0L
(lp650
(lp651
tp652
a(L3291333414L
L0L
(lp653
(lp654
tp655
a(L553944362L
L3785322319L
(lp656
(lp657
Vesp_log_early_timestamp
p658
atp659
a(L3283691850L
L0L
(lp660
(lp661
tp662
a(L3791206662L
L3785322319L
(lp663
(lp664
Vesp_log_early_timestamp
p665
atp666
a(L3212356251L
L3785322319L
(lp667
(lp668
Vbootloader_flash_unlock
p669
atp670
a(L1799218633L
L0L
(lp671
(lp672
tp673
a(L94425498L
L3785322319L
(lp674
(lp675
Vesp_rom_spiflash_write_encrypted
p676
atp677
a(L2927190544L
L3785322319L
(lp678
(lp679
Vspi_to_esp_err
p680
atp681
a(L2927190544L
L3785322319L
(lp682
(lp683
Vesp_rom_spiflash_write
p684
atp685
atp686
sI1074236956
(Vbootloader_common_ota_select_crc
p687
(lp688
(L3214440559L
L0L
(lp689
(lp690
tp691
atp692
sI1074240280
(Vindex_to_partition
p693
(lp694
(L4066096119L
L0L
(lp695
(lp696
tp697
a(L1739185955L
L0L
(lp698
(lp699
tp700
a(L2171552758L
L0L
(lp701
(lp702
tp703
a(L2808906342L
L0L
(lp704
(lp705
tp706
a(L2101481936L
L0L
(lp707
(lp708
tp709
a(L3698927993L
L0L
(lp710
(lp711
tp712
a(L2808826781L
L0L
(lp713
(lp714
tp715
a(L3003398163L
L0L
(lp716
(lp717
tp718
a(L2880709161L
L0L
(lp719
(lp720
tp721
a(L1087646172L
L0L
(lp722
(lp723
tp724
atp725
sI1074243096
(Vesp_partition_table_verify
p726
(lp727
(L1927580282L
L0L
(lp728
(lp729
tp730
a(L3688263406L
L0L
(lp731
(lp732
tp733
a(L4090921686L
L0L
(lp734
(lp735
tp736
a(L2910371777L
L0L
(lp737
(lp738
tp739
a(L2810785767L
L0L
(lp740
(lp741
tp742
a(L3360570486L
L0L
(lp743
(lp744
tp745
a(L3190337587L
L0L
(lp746
(lp747
tp748
a(L2069928857L
L0L
(lp749
(lp750
tp751
a(L3020204L
L0L
(lp752
(lp753
tp754
a(L4240560509L
L3785322319L
(lp755
(lp756
Vesp_log_early_timestamp
p757
atp758
a(L4145115729L
L3785322319L
(lp759
(lp760
Vesp_log_early_timestamp
p761
atp762
a(L510839312L
L0L
(lp763
(lp764
tp765
a(L2902417580L
L0L
(lp766
(lp767
tp768
a(L3020204L
L0L
(lp769
(lp770
tp771
a(L2215002226L
L3785322319L
(lp772
(lp773
Vesp_log_early_timestamp
p774
atp775
a(L190989796L
L0L
(lp776
(lp777
tp778
a(L3655331517L
L0L
(lp779
(lp780
tp781
a(L2902417580L
L0L
(lp782
(lp783
tp784
a(L4240559796L
L3785322319L
(lp785
(lp786
Vesp_log_early_timestamp
p787
atp788
a(L1305407469L
L0L
(lp789
(lp790
tp791
a(L1167861556L
L0L
(lp792
(lp793
tp794
a(L3914073261L
L0L
(lp795
(lp796
tp797
a(L2910371777L
L0L
(lp798
(lp799
tp800
a(L1235012932L
L0L
(lp801
(lp802
tp803
a(L1466029950L
L3785322319L
(lp804
(lp805
Vesp_log_early_timestamp
p806
atp807
atp808
sI1074245912
(Vrtc_clk_fast_src_get
p809
(lp810
(L3842566286L
L0L
(lp811
(lp812
tp813
atp814
sI1074245664
(Vrtc_clk_8md256_enabled
p815
(lp816
(L3269698613L
L0L
(lp817
(lp818
tp819
atp820
sI1074267680
(Vcall_start_cpu0
p821
(lp822
(L1137852827L
L0L
(lp823
(lp824
tp825
a(L549459388L
L0L
(lp826
(lp827
tp828
a(L3212347974L
L3785322319L
(lp829
(lp830
Vbootloader_init
p831
atp832
a(L94425498L
L3785322319L
(lp833
(lp834
Vbootloader_reset
p835
atp836
a(L1122046408L
L0L
(lp837
(lp838
tp839
a(L4099474112L
L0L
(lp840
(lp841
tp842
a(L3015046664L
L3785322319L
(lp843
(lp844
Vbootloader_utility_load_partition_table
p845
atp846
a(L2761094216L
L3785322319L
(lp847
(lp848
Vesp_log_early_timestamp
p849
atp850
a(L405422123L
L3785322319L
(lp851
(lp852
Vbootloader_utility_get_selected_boot_partition
p853
atp854
a(L2055385849L
L3785322319L
(lp855
(lp856
Vbootloader_utility_load_boot_image
p857
atp858
atp859
sI1074244396
(Vwdt_hal_write_protect_enable
p860
(lp861
(L387778158L
L0L
(lp862
(lp863
tp864
a(L4195472003L
L0L
(lp865
(lp866
tp867
a(L3360570486L
L0L
(lp868
(lp869
tp870
a(L802523425L
L0L
(lp871
(lp872
tp873
atp874
sI1074236716
(Vefuse_hal_flash_encryption_enabled
p875
(lp876
(L176925918L
L0L
(lp877
(lp878
tp879
a(L2910371777L
L0L
(lp880
(lp881
tp882
a(L3360570486L
L0L
(lp883
(lp884
tp885
a(L3016870L
L0L
(lp886
(lp887
tp888
a(L3745038218L
L0L
(lp889
(lp890
tp891
a(L957607403L
L0L
(lp892
(lp893
tp894
atp895
sI1074240040
(Vbootloader_utility_load_boot_image
p896
(lp897
(L3470766666L
L0L
(lp898
(lp899
tp900
a(L2177418995L
L3785322319L
(lp901
(lp902
Vtry_load_partition
p903
atp904
a(L1305243774L
L3785322319L
(lp905
(lp906
Vload_image
p907
atp908
a(L1542755226L
L3785322319L
(lp909
(lp910
Vesp_log_early_timestamp
p911
atp912
a(L3827921190L
L3785322319L
(lp913
(lp914
Vbootloader_reset
p915
atp916
a(L1953693036L
L3785322319L
(lp917
(lp918
Vindex_to_partition
p919
atp920
a(L1204373741L
L3785322319L
(lp921
(lp922
Vtry_load_partition
p923
atp924
a(L1899865696L
L0L
(lp925
(lp926
tp927
a(L2695355117L
L3785322319L
(lp928
(lp929
Vset_actual_ota_seq
p930
atp931
a(L1868897605L
L3785322319L
(lp932
(lp933
Vlog_invalid_app_partition
p934
atp935
a(L831650730L
L0L
(lp936
(lp937
tp938
a(L3021737L
L0L
(lp939
(lp940
tp941
a(L695456438L
L0L
(lp942
(lp943
tp944
a(L1129532116L
L3785322319L
(lp945
(lp946
Vtry_load_partition
p947
atp948
a(L1880966832L
L3785322319L
(lp949
(lp950
Vesp_log_early_timestamp
p951
atp952
a(L2347390157L
L3785322319L
(lp953
(lp954
Vindex_to_partition
p955
atp956
a(L1204373741L
L3785322319L
(lp957
(lp958
Vtry_load_partition
p959
atp960
a(L3061261803L
L0L
(lp961
(lp962
tp963
a(L3582858798L
L3785322319L
(lp964
(lp965
Vlog_invalid_app_partition
p966
atp967
a(L938772144L
L3785322319L
(lp968
(lp969
Vesp_log_early_timestamp
p970
atp971
atp972
sI1074245928
(Vrtc_clk_xtal_freq_get
p973
(lp974
(L533036126L
L0L
(lp975
(lp976
tp977
a(L2847936993L
L0L
(lp978
(lp979
tp980
a(L2708840825L
L0L
(lp981
(lp982
tp983
a(L3360570486L
L0L
(lp984
(lp985
tp986
atp987
sI1074269496
(Vbootloader_check_bootloader_validity
p988
(lp989
(L2851797904L
L1832448559L
(lp990
(lp991
Vefuse_hal_chip_revision
p992
aVesp_log_early_timestamp
p993
aVbootloader_common_check_chip_validity
p994
atp995
atp996
sI1074240816
(Vbootloader_ana_clock_glitch_reset_config
p997
(lp998
(L2100504542L
L0L
(lp999
(lp1000
tp1001
atp1002
sI1074236976
(Vbootloader_common_ota_select_valid
p1003
(lp1004
(L1563399710L
L3785322319L
(lp1005
(lp1006
Vbootloader_common_ota_select_invalid
p1007
atp1008
a(L3814720849L
L3785322319L
(lp1009
(lp1010
Vbootloader_common_ota_select_crc
p1011
atp1012
a(L3360570486L
L0L
(lp1013
(lp1014
tp1015
atp1016
sI1074237244
(Vbootloader_common_get_active_otadata
p1017
(lp1018
(L3317503532L
L0L
(lp1019
(lp1020
tp1021
a(L2503049265L
L1832448559L
(lp1022
(lp1023
Vbootloader_common_ota_select_valid
p1024
aVbootloader_common_ota_select_valid
p1025
aVbootloader_common_select_otadata
p1026
atp1027
a(L735741265L
L0L
(lp1028
(lp1029
tp1030
atp1031
sI1074240824
(Vprocess_checksum
p1032
(lp1033
(L1375822962L
L0L
(lp1034
(lp1035
tp1036
a(L2910371777L
L0L
(lp1037
(lp1038
tp1039
a(L186886970L
L0L
(lp1040
(lp1041
tp1042
a(L2910371777L
L0L
(lp1043
(lp1044
tp1045
a(L3020204L
L0L
(lp1046
(lp1047
tp1048
a(L2480703612L
L3785322319L
(lp1049
(lp1050
Vbootloader_sha256_data
p1051
atp1052
a(L4179073442L
L0L
(lp1053
(lp1054
tp1055
a(L1811888222L
L3785322319L
(lp1056
(lp1057
Vbootloader_flash_read
p1058
atp1059
a(L3126521138L
L0L
(lp1060
(lp1061
tp1062
a(L4138627793L
L0L
(lp1063
(lp1064
tp1065
a(L2335318056L
L3785322319L
(lp1066
(lp1067
Vesp_log_early_timestamp
p1068
atp1069
atp1070
sI1074243384
(Vwdt_hal_init
p1071
(lp1072
(L3764531458L
L0L
(lp1073
(lp1074
tp1075
a(L745008699L
L0L
(lp1076
(lp1077
tp1078
a(L2805934244L
L0L
(lp1079
(lp1080
tp1081
a(L3115097993L
L0L
(lp1082
(lp1083
tp1084
a(L1129008730L
L0L
(lp1085
(lp1086
tp1087
a(L3360570486L
L0L
(lp1088
(lp1089
tp1090
a(L3022237171L
L0L
(lp1091
(lp1092
tp1093
atp1094
sI1074245688
(Vrtc_clk_slow_src_set
p1095
(lp1096
(L3908197081L
L0L
(lp1097
(lp1098
tp1099
a(L3020187L
L0L
(lp1100
(lp1101
tp1102
a(L3028481L
L0L
(lp1103
(lp1104
tp1105
a(L487821223L
L0L
(lp1106
(lp1107
tp1108
a(L3646845957L
L0L
(lp1109
(lp1110
tp1111
a(L1851908495L
L0L
(lp1112
(lp1113
tp1114
a(L1555782902L
L0L
(lp1115
(lp1116
tp1117
a(L3138544334L
L0L
(lp1118
(lp1119
tp1120
a(L94425498L
L3785322319L
(lp1121
(lp1122
Vabort
p1123
atp1124
atp1125
sI1074246200
(Vrtc_clk_xtal_freq_update
p1126
(lp1127
(L3383495681L
L0L
(lp1128
(lp1129
tp1130
a(L3509357017L
L0L
(lp1131
(lp1132
tp1133
a(L2266180931L
L0L
(lp1134
(lp1135
tp1136
atp1137
sI1074249272
(V_fini
p1138
(lp1139
(L3493042598L
L0L
(lp1140
(lp1141
tp1142
atp1143
sI1074238532
(Vbootloader_clock_get_rated_freq_mhz
p1144
(lp1145
(L376617603L
L3785322319L
(lp1146
(lp1147
Vefuse_hal_get_rated_freq_mhz
p1148
atp1149
atp1150
sI1074241860
(Vprocess_segments
p1151
(lp1152
(L1018786970L
L0L
(lp1153
(lp1154
tp1155
a(L3285816417L
L0L
(lp1156
(lp1157
tp1158
a(L3782401745L
L0L
(lp1159
(lp1160
tp1161
a(L106L
L0L
(lp1162
(lp1163
tp1164
a(L2411199274L
L0L
(lp1165
(lp1166
tp1167
a(L1441390958L
L3785322319L
(lp1168
(lp1169
Vesp_log_early_timestamp
p1170
atp1171
a(L3085209925L
L3785322319L
(lp1172
(lp1173
Vbootloader_flash_read
p1174
atp1175
a(L1832532431L
L3785322319L
(lp1176
(lp1177
Vesp_log_early_timestamp
p1178
atp1179
a(L3871473710L
L0L
(lp1180
(lp1181
tp1182
a(L234193771L
L0L
(lp1183
(lp1184
tp1185
a(L1635713494L
L3785322319L
(lp1186
(lp1187
Vbootloader_sha256_data
p1188
atp1189
a(L165187679L
L0L
(lp1190
(lp1191
tp1192
a(L3712371969L
L0L
(lp1193
(lp1194
tp1195
a(L82090599L
L0L
(lp1196
(lp1197
tp1198
a(L3802067325L
L0L
(lp1199
(lp1200
tp1201
a(L3592389343L
L0L
(lp1202
(lp1203
tp1204
a(L2258867228L
L0L
(lp1205
(lp1206
tp1207
a(L1255782415L
L0L
(lp1208
(lp1209
tp1210
a(L1756760227L
L0L
(lp1211
(lp1212
tp1213
a(L1849436849L
L0L
(lp1214
(lp1215
tp1216
a(L2445032785L
L3785322319L
(lp1217
(lp1218
Vesp_log_early_timestamp
p1219
atp1220
a(L3601900694L
L0L
(lp1221
(lp1222
tp1223
a(L568254494L
L0L
(lp1224
(lp1225
tp1226
a(L3953828517L
L3785322319L
(lp1227
(lp1228
Vesp_log_early_timestamp
p1229
atp1230
a(L1973629750L
L3785322319L
(lp1231
(lp1232
Vverify_load_addresses
p1233
atp1234
a(L106L
L0L
(lp1235
(lp1236
tp1237
a(L914132342L
L0L
(lp1238
(lp1239
tp1240
a(L291460350L
L0L
(lp1241
(lp1242
tp1243
a(L4151532718L
L3785322319L
(lp1244
(lp1245
Vbootloader_mmap
p1246
atp1247
a(L456932038L
L3785322319L
(lp1248
(lp1249
Vesp_log_early_timestamp
p1250
atp1251
a(L2994776696L
L0L
(lp1252
(lp1253
tp1254
a(L599962516L
L0L
(lp1255
(lp1256
tp1257
a(L1652679798L
L3785322319L
(lp1258
(lp1259
Vbootloader_munmap
p1260
atp1261
a(L2993622008L
L0L
(lp1262
(lp1263
tp1264
a(L1216016797L
L3785322319L
(lp1265
(lp1266
Vbootloader_fill_random
p1267
atp1268
a(L3570641403L
L0L
(lp1269
(lp1270
tp1271
a(L3574335487L
L0L
(lp1272
(lp1273
tp1274
a(L3450268858L
L0L
(lp1275
(lp1276
tp1277
a(L3021749L
L0L
(lp1278
(lp1279
tp1280
a(L1609678444L
L0L
(lp1281
(lp1282
tp1283
a(L1777728568L
L0L
(lp1284
(lp1285
tp1286
a(L3020204L
L0L
(lp1287
(lp1288
tp1289
a(L1312354573L
L0L
(lp1290
(lp1291
tp1292
a(L2076461546L
L0L
(lp1293
(lp1294
tp1295
a(L3844184503L
L0L
(lp1296
(lp1297
tp1298
a(L1749969336L
L0L
(lp1299
(lp1300
tp1301
a(L670934548L
L0L
(lp1302
(lp1303
tp1304
a(L781506066L
L3785322319L
(lp1305
(lp1306
Vbootloader_sha256_data
p1307
atp1308
a(L90548756L
L0L
(lp1309
(lp1310
tp1311
a(L4195963580L
L0L
(lp1312
(lp1313
tp1314
a(L2422333549L
L0L
(lp1315
(lp1316
tp1317
a(L3132743422L
L0L
(lp1318
(lp1319
tp1320
a(L249537906L
L3785322319L
(lp1321
(lp1322
Vshould_load
p1323
atp1324
a(L2378267508L
L0L
(lp1325
(lp1326
tp1327
a(L3098292588L
L3785322319L
(lp1328
(lp1329
Vesp_log_early_timestamp
p1330
atp1331
a(L1263395604L
L0L
(lp1332
(lp1333
tp1334
a(L307916924L
L0L
(lp1335
(lp1336
tp1337
a(L2104685467L
L0L
(lp1338
(lp1339
tp1340
a(L81630008L
L0L
(lp1341
(lp1342
tp1343
a(L2742376716L
L0L
(lp1344
(lp1345
tp1346
a(L3786494677L
L3785322319L
(lp1347
(lp1348
Vbootloader_mmap_get_free_pages
p1349
atp1350
a(L2685118414L
L0L
(lp1351
(lp1352
tp1353
a(L2091285670L
L0L
(lp1354
(lp1355
tp1356
atp1357
sI1074247744
(Vesp_rom_spiflash_read_status
p1358
(lp1359
(L2021440545L
L0L
(lp1360
(lp1361
tp1362
a(L1182811815L
L0L
(lp1363
(lp1364
tp1365
a(L2705543955L
L0L
(lp1366
(lp1367
tp1368
a(L106L
L0L
(lp1369
(lp1370
tp1371
a(L3106704194L
L0L
(lp1372
(lp1373
tp1374
a(L3274807848L
L0L
(lp1375
(lp1376
tp1377
a(L2123059967L
L0L
(lp1378
(lp1379
tp1380
a(L3146966332L
L0L
(lp1381
(lp1382
tp1383
a(L2392720019L
L0L
(lp1384
(lp1385
tp1386
atp1387
sI1074248268
(Vesp_rom_spiflash_write
p1388
(lp1389
(L1008898159L
L0L
(lp1390
(lp1391
tp1392
a(L2258688483L
L0L
(lp1393
(lp1394
tp1395
a(L3360570486L
L0L
(lp1396
(lp1397
tp1398
a(L3368132847L
L0L
(lp1399
(lp1400
tp1401
a(L3106685981L
L0L
(lp1402
(lp1403
tp1404
a(L3488660639L
L3785322319L
(lp1405
(lp1406
Vesp_rom_spiflash_program_page_internal
p1407
atp1408
a(L3543402353L
L3785322319L
(lp1409
(lp1410
Vesp_rom_spiflash_program_page_internal
p1411
atp1412
a(L4222526342L
L0L
(lp1413
(lp1414
tp1415
a(L2004208511L
L0L
(lp1416
(lp1417
tp1418
a(L564470656L
L0L
(lp1419
(lp1420
tp1421
a(L2988842384L
L3785322319L
(lp1422
(lp1423
Vesp_rom_spiflash_program_page_internal
p1424
atp1425
a(L2302069176L
L0L
(lp1426
(lp1427
tp1428
atp1429
sI1074235208
(Vbootloader_execute_flash_command
p1430
(lp1431
(L2481595632L
L3785322319L
(lp1432
(lp1433
Vbootloader_flash_execute_command_common
p1434
atp1435
atp1436
sI1074244424
(Vwdt_hal_enable
p1437
(lp1438
(L2299130915L
L0L
(lp1439
(lp1440
tp1441
a(L165794138L
L0L
(lp1442
(lp1443
tp1444
a(L3360570486L
L0L
(lp1445
(lp1446
tp1447
a(L2847657174L
L0L
(lp1448
(lp1449
tp1450
atp1451
sI1074248520
(Vesp_rom_spiflash_read
p1452
(lp1453
(L1996692019L
L0L
(lp1454
(lp1455
tp1456
a(L684116160L
L0L
(lp1457
(lp1458
tp1459
a(L340311750L
L0L
(lp1460
(lp1461
tp1462
a(L2373999345L
L0L
(lp1463
(lp1464
tp1465
a(L106L
L0L
(lp1466
(lp1467
tp1468
a(L633884026L
L0L
(lp1469
(lp1470
tp1471
a(L106L
L0L
(lp1472
(lp1473
tp1474
a(L2325789507L
L0L
(lp1475
(lp1476
tp1477
a(L270746447L
L0L
(lp1478
(lp1479
tp1480
a(L1601575912L
L0L
(lp1481
(lp1482
tp1483
a(L336550648L
L0L
(lp1484
(lp1485
tp1486
a(L3564228684L
L0L
(lp1487
(lp1488
tp1489
a(L106L
L0L
(lp1490
(lp1491
tp1492
a(L1421260170L
L3785322319L
(lp1493
(lp1494
Vesp_rom_spiflash_wait_idle
p1495
atp1496
a(L3021737L
L0L
(lp1497
(lp1498
tp1499
a(L106L
L0L
(lp1500
(lp1501
tp1502
a(L1868280504L
L0L
(lp1503
(lp1504
tp1505
a(L106L
L0L
(lp1506
(lp1507
tp1508
a(L1238269964L
L0L
(lp1509
(lp1510
tp1511
a(L1221163038L
L0L
(lp1512
(lp1513
tp1514
a(L4122060822L
L0L
(lp1515
(lp1516
tp1517
a(L3546991557L
L0L
(lp1518
(lp1519
tp1520
a(L2989032L
L0L
(lp1521
(lp1522
tp1523
a(L3819849625L
L0L
(lp1524
(lp1525
tp1526
a(L2510054876L
L0L
(lp1527
(lp1528
tp1529
a(L921819945L
L0L
(lp1530
(lp1531
tp1532
a(L3901821502L
L0L
(lp1533
(lp1534
tp1535
a(L388083008L
L0L
(lp1536
(lp1537
tp1538
a(L2921907736L
L0L
(lp1539
(lp1540
tp1541
a(L1328428270L
L0L
(lp1542
(lp1543
tp1544
a(L2157148500L
L0L
(lp1545
(lp1546
tp1547
a(L4289593045L
L0L
(lp1548
(lp1549
tp1550
a(L2169651034L
L0L
(lp1551
(lp1552
tp1553
a(L781550816L
L0L
(lp1554
(lp1555
tp1556
a(L2687789892L
L0L
(lp1557
(lp1558
tp1559
a(L1405253496L
L0L
(lp1560
(lp1561
tp1562
a(L3167529446L
L0L
(lp1563
(lp1564
tp1565
a(L97689L
L0L
(lp1566
(lp1567
tp1568
a(L1183020347L
L0L
(lp1569
(lp1570
tp1571
a(L4014024819L
L0L
(lp1572
(lp1573
tp1574
a(L3621567083L
L0L
(lp1575
(lp1576
tp1577
atp1578
sI1074269784
(Vbootloader_console_init
p1579
(lp1580
(L3521561098L
L1832448559L
(lp1581
(lp1582
Vesp_rom_uart_tx_wait_idle
p1583
aVrtc_clk_apb_freq_get
p1584
aVesp_rom_uart_set_clock_baudrate
p1585
atp1586
atp1587
sI1074237012
(Vbootloader_common_check_chip_validity
p1588
(lp1589
(L392423210L
L0L
(lp1590
(lp1591
tp1592
a(L1681335572L
L3785322319L
(lp1593
(lp1594
Vesp_log_early_timestamp
p1595
atp1596
a(L522103407L
L3785322319L
(lp1597
(lp1598
Vefuse_hal_chip_revision
p1599
atp1600
a(L106L
L0L
(lp1601
(lp1602
tp1603
a(L1989150608L
L0L
(lp1604
(lp1605
tp1606
a(L865579151L
L3785322319L
(lp1607
(lp1608
Vesp_log_early_timestamp
p1609
atp1610
a(L3028464L
L0L
(lp1611
(lp1612
tp1613
a(L1397322129L
L0L
(lp1614
(lp1615
tp1616
a(L3021749L
L0L
(lp1617
(lp1618
tp1619
a(L240495317L
L3785322319L
(lp1620
(lp1621
Vesp_log_early_timestamp
p1622
atp1623
a(L1299867982L
L0L
(lp1624
(lp1625
tp1626
a(L3360570486L
L0L
(lp1627
(lp1628
tp1629
atp1630
sI1074236756
(Vefuse_hal_get_major_chip_version
p1631
(lp1632
(L2489568354L
L0L
(lp1633
(lp1634
tp1635
a(L894792960L
L0L
(lp1636
(lp1637
tp1638
a(L3783348505L
L0L
(lp1639
(lp1640
tp1641
a(L3360570486L
L0L
(lp1642
(lp1643
tp1644
atp1645
sI1074238544
(Vlog_invalid_app_partition
p1646
(lp1647
(L3121159614L
L0L
(lp1648
(lp1649
tp1650
a(L3028464L
L0L
(lp1651
(lp1652
tp1653
a(L1381405837L
L3785322319L
(lp1654
(lp1655
Vesp_log_early_timestamp
p1656
atp1657
a(L283255622L
L0L
(lp1658
(lp1659
tp1660
a(L3360570486L
L0L
(lp1661
(lp1662
tp1663
a(L3430459325L
L3785322319L
(lp1664
(lp1665
Vesp_log_early_timestamp
p1666
atp1667
a(L632945191L
L3785322319L
(lp1668
(lp1669
Vesp_log_early_timestamp
p1670
atp1671
atp1672
sI1074244944
(Vrtc_clk_32k_enable
p1673
(lp1674
(L753387299L
L0L
(lp1675
(lp1676
tp1677
a(L3776007933L
L3785322319L
(lp1678
(lp1679
Vrtc_clk_32k_enable_common
p1680
atp1681
a(L3496950L
L0L
(lp1682
(lp1683
tp1684
a(L2119050555L
L0L
(lp1685
(lp1686
tp1687
atp1688
sI1074245968
(Vrtc_clk_cpu_freq_mhz_to_config
p1689
(lp1690
(L908718885L
L3785322319L
(lp1691
(lp1692
Vrtc_clk_xtal_freq_get
p1693
atp1694
a(L60460069L
L0L
(lp1695
(lp1696
tp1697
a(L3802072124L
L0L
(lp1698
(lp1699
tp1700
a(L3159006042L
L0L
(lp1701
(lp1702
tp1703
a(L3360570486L
L0L
(lp1704
(lp1705
tp1706
a(L895147205L
L0L
(lp1707
(lp1708
tp1709
a(L3970036657L
L0L
(lp1710
(lp1711
tp1712
a(L2731353429L
L0L
(lp1713
(lp1714
tp1715
a(L1555485793L
L0L
(lp1716
(lp1717
tp1718
a(L2258897023L
L0L
(lp1719
(lp1720
tp1721
a(L1947499251L
L0L
(lp1722
(lp1723
tp1724
a(L1306331021L
L0L
(lp1725
(lp1726
tp1727
atp1728
sI1074240348
(Vbootloader_debug_buffer
p1729
(lp1730
(L2100504542L
L0L
(lp1731
(lp1732
tp1733
atp1734
sI1074234716
(Vesp_flash_encryption_enabled
p1735
(lp1736
(L376617603L
L3785322319L
(lp1737
(lp1738
Vefuse_hal_flash_encryption_enabled
p1739
atp1740
atp1741
sI1074240356
(Vbootloader_sha256_start
p1742
(lp1743
(L2264643577L
L0L
(lp1744
(lp1745
tp1746
atp1747
sI1074239332
(Vbootloader_utility_load_partition_table
p1748
(lp1749
(L973068460L
L3785322319L
(lp1750
(lp1751
Vbootloader_mmap
p1752
atp1753
a(L3833229829L
L3785322319L
(lp1754
(lp1755
Vesp_log_early_timestamp
p1756
atp1757
a(L2258688482L
L0L
(lp1758
(lp1759
tp1760
a(L3360570486L
L0L
(lp1761
(lp1762
tp1763
a(L2182773102L
L3785322319L
(lp1764
(lp1765
Vesp_partition_table_verify
p1766
atp1767
a(L1289600446L
L3785322319L
(lp1768
(lp1769
Vesp_log_early_timestamp
p1770
atp1771
a(L2970295030L
L1880226080L
(lp1772
(lp1773
Vesp_log_early_timestamp
p1774
aVesp_log_early_timestamp
p1775
atp1776
a(L650140130L
L0L
(lp1777
(lp1778
tp1779
a(L2628153144L
L1880226080L
(lp1780
(lp1781
Vbootloader_munmap
p1782
aVesp_log_early_timestamp
p1783
atp1784
a(L521126897L
L0L
(lp1785
(lp1786
tp1787
a(L3028464L
L0L
(lp1788
(lp1789
tp1790
a(L106L
L0L
(lp1791
(lp1792
tp1793
a(L1403802542L
L0L
(lp1794
(lp1795
tp1796
a(L754352289L
L3785322319L
(lp1797
(lp1798
Vesp_log_early_timestamp
p1799
atp1800
a(L3990577774L
L0L
(lp1801
(lp1802
tp1803
a(L3020187L
L0L
(lp1804
(lp1805
tp1806
a(L2278500994L
L0L
(lp1807
(lp1808
tp1809
a(L4208505160L
L0L
(lp1810
(lp1811
tp1812
a(L1859217719L
L0L
(lp1813
(lp1814
tp1815
a(L2546691122L
L0L
(lp1816
(lp1817
tp1818
a(L3794036362L
L0L
(lp1819
(lp1820
tp1821
a(L106L
L0L
(lp1822
(lp1823
tp1824
a(L93674324L
L0L
(lp1825
(lp1826
tp1827
a(L1601771625L
L0L
(lp1828
(lp1829
tp1830
a(L1938133259L
L0L
(lp1831
(lp1832
tp1833
a(L1590689356L
L0L
(lp1834
(lp1835
tp1836
a(L106L
L0L
(lp1837
(lp1838
tp1839
a(L924822438L
L0L
(lp1840
(lp1841
tp1842
a(L106L
L0L
(lp1843
(lp1844
tp1845
a(L568228547L
L0L
(lp1846
(lp1847
tp1848
atp1849
sI1074236516
(Vbootloader_common_get_chip_ver_pkg
p1850
(lp1851
(L183333409L
L0L
(lp1852
(lp1853
tp1854
atp1855
sI1074237284
(Vbootloader_common_ota_select_invalid
p1856
(lp1857
(L4027567199L
L0L
(lp1858
(lp1859
tp1860
a(L3397985842L
L0L
(lp1861
(lp1862
tp1863
a(L2258867228L
L0L
(lp1864
(lp1865
tp1866
a(L3785235668L
L0L
(lp1867
(lp1868
tp1869
atp1870
sI1074246244
(Vrtc_clk_apb_freq_update
p1871
(lp1872
(L3678163707L
L0L
(lp1873
(lp1874
tp1875
atp1876
sI1074270052
(Vrtc_clk_init
p1877
(lp1878
(L1987506511L
L0L
(lp1879
(lp1880
tp1881
a(L42671777L
L3785322319L
(lp1882
(lp1883
Vrtc_clk_cpu_freq_to_xtal
p1884
atp1885
a(L2449174990L
L3785322319L
(lp1886
(lp1887
Vrtc_clk_xtal_freq_get
p1888
atp1889
a(L89029051L
L0L
(lp1890
(lp1891
tp1892
a(L4187693717L
L3785322319L
(lp1893
(lp1894
Vrtc_clk_xtal_freq_estimate
p1895
atp1896
a(L805273234L
L3785322319L
(lp1897
(lp1898
Vesp_log_early_timestamp
p1899
atp1900
a(L2265375L
L1157885199L
(lp1901
(lp1902
Vesp_rom_uart_tx_wait_idle
p1903
aVrtc_clk_xtal_freq_update
p1904
aVrtc_clk_apb_freq_update
p1905
aVrtc_clk_cpu_freq_get_config
p1906
aVrtc_clk_cpu_freq_mhz_to_config
p1907
atp1908
a(L2681910772L
L1880226080L
(lp1909
(lp1910
Vesp_log_early_timestamp
p1911
aVabort
p1912
atp1913
a(L3028481L
L0L
(lp1914
(lp1915
tp1916
a(L4070631611L
L3785322319L
(lp1917
(lp1918
Vrtc_clk_xtal_freq_estimate
p1919
atp1920
a(L4201747407L
L3785322319L
(lp1921
(lp1922
Vesp_log_early_timestamp
p1923
atp1924
a(L26565468L
L3785322319L
(lp1925
(lp1926
Vrtc_clk_cpu_freq_set_config
p1927
atp1928
a(L912310138L
L3785322319L
(lp1929
(lp1930
Vrtc_clk_32k_enable
p1931
atp1932
a(L3191820416L
L1832448559L
(lp1933
(lp1934
Vrtc_clk_8m_enable
p1935
aVrtc_clk_fast_src_set
p1936
aVrtc_clk_slow_src_set
p1937
atp1938
a(L1232958848L
L0L
(lp1939
(lp1940
tp1941
atp1942
sI1074241640
(Vprocess_appended_hash_and_sig
p1943
(lp1944
(L1668084157L
L0L
(lp1945
(lp1946
tp1947
a(L2910371777L
L0L
(lp1948
(lp1949
tp1950
a(L1591589631L
L0L
(lp1951
(lp1952
tp1953
a(L2551256078L
L0L
(lp1954
(lp1955
tp1956
a(L3258290317L
L0L
(lp1957
(lp1958
tp1959
a(L1095464509L
L3785322319L
(lp1960
(lp1961
Vesp_log_early_timestamp
p1962
atp1963
a(L2268304300L
L3785322319L
(lp1964
(lp1965
Vbootloader_flash_read
p1966
atp1967
a(L3871473710L
L0L
(lp1968
(lp1969
tp1970
atp1971
sI1074234728
(Vbootloader_flash_execute_command_common
p1972
(lp1973
(L3865052895L
L0L
(lp1974
(lp1975
tp1976
a(L120556223L
L0L
(lp1977
(lp1978
tp1979
a(L2890397610L
L3785322319L
(lp1980
(lp1981
V__assert_func
p1982
atp1983
a(L3021749L
L0L
(lp1984
(lp1985
tp1986
a(L153203357L
L0L
(lp1987
(lp1988
tp1989
a(L3967919202L
L0L
(lp1990
(lp1991
tp1992
a(L2091933878L
L0L
(lp1993
(lp1994
tp1995
a(L1702379862L
L0L
(lp1996
(lp1997
tp1998
a(L2587060668L
L0L
(lp1999
(lp2000
tp2001
a(L817326211L
L0L
(lp2002
(lp2003
tp2004
a(L3244449450L
L0L
(lp2005
(lp2006
tp2007
a(L3855586684L
L0L
(lp2008
(lp2009
tp2010
a(L2990329343L
L0L
(lp2011
(lp2012
tp2013
a(L2557390060L
L0L
(lp2014
(lp2015
tp2016
a(L3333696662L
L0L
(lp2017
(lp2018
tp2019
a(L963425213L
L0L
(lp2020
(lp2021
tp2022
a(L339491738L
L0L
(lp2023
(lp2024
tp2025
a(L3360570486L
L0L
(lp2026
(lp2027
tp2028
atp2029
sI1074235240
(Vbootloader_flash_unlock
p2030
(lp2031
(L2851757134L
L3785322319L
(lp2032
(lp2033
Vesp_rom_spiflash_wait_idle
p2034
atp2035
a(L4212373562L
L0L
(lp2036
(lp2037
tp2038
a(L4292483033L
L3785322319L
(lp2039
(lp2040
Vbootloader_execute_flash_command
p2041
atp2042
a(L106L
L0L
(lp2043
(lp2044
tp2045
a(L1303560644L
L0L
(lp2046
(lp2047
tp2048
a(L610618440L
L0L
(lp2049
(lp2050
tp2051
a(L106L
L0L
(lp2052
(lp2053
tp2054
a(L345249462L
L0L
(lp2055
(lp2056
tp2057
a(L106L
L0L
(lp2058
(lp2059
tp2060
a(L1024465569L
L0L
(lp2061
(lp2062
tp2063
a(L106L
L0L
(lp2064
(lp2065
tp2066
a(L1481761147L
L1880226080L
(lp2067
(lp2068
Vbootloader_execute_flash_command
p2069
aVbootloader_execute_flash_command
p2070
atp2071
a(L2258807654L
L0L
(lp2072
(lp2073
tp2074
a(L489806350L
L1832448559L
(lp2075
(lp2076
Vesp_rom_spiflash_wait_idle
p2077
aVbootloader_execute_flash_command
p2078
aVbootloader_execute_flash_command
p2079
atp2080
a(L879744646L
L1832448559L
(lp2081
(lp2082
Vesp_rom_spiflash_wait_idle
p2083
aVbootloader_execute_flash_command
p2084
aVbootloader_execute_flash_command
p2085
atp2086
a(L1840772931L
L1880226080L
(lp2087
(lp2088
Vesp_rom_spiflash_wait_idle
p2089
aVbootloader_execute_flash_command
p2090
atp2091
a(L2993202392L
L0L
(lp2092
(lp2093
tp2094
a(L508800419L
L1880226080L
(lp2095
(lp2096
Vbootloader_execute_flash_command
p2097
aVbootloader_execute_flash_command
p2098
atp2099
a(L1303560369L
L0L
(lp2100
(lp2101
tp2102
a(L1596544945L
L0L
(lp2103
(lp2104
tp2105
a(L97689L
L0L
(lp2106
(lp2107
tp2108
a(L106L
L0L
(lp2109
(lp2110
tp2111
atp2112
sI1074269564
(Vbootloader_config_wdt
p2113
(lp2114
(L2487236811L
L505859776L
(lp2115
(lp2116
Vwdt_hal_write_protect_disable
p2117
aVwdt_hal_set_flashboot_en
p2118
aVwdt_hal_write_protect_enable
p2119
aVwdt_hal_init
p2120
aVrtc_clk_slow_freq_get_hz
p2121
aVwdt_hal_write_protect_disable
p2122
aVwdt_hal_config_stage
p2123
aVwdt_hal_enable
p2124
aVwdt_hal_write_protect_enable
p2125
aVwdt_hal_write_protect_disable
p2126
aVwdt_hal_set_flashboot_en
p2127
aVwdt_hal_write_protect_enable
p2128
atp2129
atp2130
sI1074269820
(Vesp_cpu_configure_region_protection
p2131
(lp2132
(L3119165882L
L0L
(lp2133
(lp2134
tp2135
a(L180431425L
L3785322319L
(lp2136
(lp2137
Vmpu_hal_set_region_access
p2138
atp2139
a(L2537388152L
L3785322319L
(lp2140
(lp2141
Vmpu_hal_set_region_access
p2142
atp2143
atp2144
sI1074240376
(Vbootloader_sha256_data
p2145
(lp2146
(L4066096136L
L0L
(lp2147
(lp2148
tp2149
a(L685117705L
L0L
(lp2150
(lp2151
tp2152
a(L3769576247L
L3785322319L
(lp2153
(lp2154
V__assert_func
p2155
atp2156
a(L498498478L
L0L
(lp2157
(lp2158
tp2159
a(L602312388L
L0L
(lp2160
(lp2161
tp2162
a(L2910371777L
L0L
(lp2163
(lp2164
tp2165
a(L3360570486L
L0L
(lp2166
(lp2167
tp2168
a(L1325583653L
L0L
(lp2169
(lp2170
tp2171
a(L541898147L
L0L
(lp2172
(lp2173
tp2174
a(L618796780L
L0L
(lp2175
(lp2176
tp2177
a(L1414169690L
L0L
(lp2178
(lp2179
tp2180
a(L1684964552L
L0L
(lp2181
(lp2182
tp2183
a(L2032890799L
L0L
(lp2184
(lp2185
tp2186
a(L3028464L
L0L
(lp2187
(lp2188
tp2189
a(L4085763523L
L0L
(lp2190
(lp2191
tp2192
a(L2133453165L
L0L
(lp2193
(lp2194
tp2195
atp2196
sI1074244728
(Vrtc_clk_cpu_freq_to_pll_mhz
p2197
(lp2198
(L1393544349L
L0L
(lp2199
(lp2200
tp2201
a(L405771233L
L0L
(lp2202
(lp2203
tp2204
a(L2930829064L
L0L
(lp2205
(lp2206
tp2207
a(L3298441904L
L0L
(lp2208
(lp2209
tp2210
a(L3680579786L
L0L
(lp2211
(lp2212
tp2213
a(L1298905564L
L0L
(lp2214
(lp2215
tp2216
a(L68193075L
L3785322319L
(lp2217
(lp2218
Vrtc_clk_wait_for_slow_cycle
p2219
atp2220
a(L1611366957L
L0L
(lp2221
(lp2222
tp2223
a(L1611366988L
L0L
(lp2224
(lp2225
tp2226
a(L94425498L
L3785322319L
(lp2227
(lp2228
Vabort
p2229
atp2230
atp2231
sI1074245496
(Vrtc_clk_32k_enabled
p2232
(lp2233
(L1419997235L
L0L
(lp2234
(lp2235
tp2236
atp2237
sI1074236548
(Vesp_rom_uart_tx_wait_idle
p2238
(lp2239
(L2733747073L
L0L
(lp2240
(lp2241
tp2242
a(L1301079727L
L0L
(lp2243
(lp2244
tp2245
a(L3597746521L
L0L
(lp2246
(lp2247
tp2248
a(L3694491048L
L0L
(lp2249
(lp2250
tp2251
a(L3055926844L
L0L
(lp2252
(lp2253
tp2254
a(L3360570486L
L0L
(lp2255
(lp2256
tp2257
atp2258
sI1074238852
(Vload_image
p2259
(lp2260
(L1699453889L
L1832448559L
(lp2261
(lp2262
Vesp_log_early_timestamp
p2263
aVbootloader_random_disable
p2264
aVbootloader_ana_clock_glitch_reset_config
p2265
atp2266
a(L2118498116L
L0L
(lp2267
(lp2268
tp2269
a(L106L
L0L
(lp2270
(lp2271
tp2272
a(L3832824599L
L267944800L
(lp2273
(lp2274
Vmmu_hal_init
p2275
aVcache_ll_l1_get_bus
p2276
aVcache_ll_l1_enable_bus
p2277
aVcache_ll_l1_get_bus
p2278
aVcache_ll_l1_enable_bus
p2279
aVbootloader_console_deinit
p2280
atp2281
a(L746432701L
L0L
(lp2282
(lp2283
tp2284
a(L2902417580L
L0L
(lp2285
(lp2286
tp2287
a(L642338965L
L3785322319L
(lp2288
(lp2289
Vesp_log_early_timestamp
p2290
atp2291
a(L123149282L
L0L
(lp2292
(lp2293
tp2294
a(L1797968990L
L0L
(lp2295
(lp2296
tp2297
a(L3020204L
L0L
(lp2298
(lp2299
tp2300
a(L4106644539L
L3785322319L
(lp2301
(lp2302
Vesp_log_early_timestamp
p2303
atp2304
a(L2799711271L
L0L
(lp2305
(lp2306
tp2307
a(L1272997171L
L0L
(lp2308
(lp2309
tp2310
atp2311
sI1074267788
(Vbootloader_init
p2312
(lp2313
(L979987266L
L3785322319L
(lp2314
(lp2315
Vbootloader_init_mem
p2316
atp2317
a(L2806068302L
L0L
(lp2318
(lp2319
tp2320
a(L3038495368L
L3785322319L
(lp2321
(lp2322
V__assert_func
p2323
atp2324
a(L132773206L
L0L
(lp2325
(lp2326
tp2327
a(L481867486L
L0L
(lp2328
(lp2329
tp2330
a(L3813782018L
L0L
(lp2331
(lp2332
tp2333
a(L2681362207L
L0L
(lp2334
(lp2335
tp2336
a(L3027019L
L0L
(lp2337
(lp2338
tp2339
a(L4255298090L
L0L
(lp2340
(lp2341
tp2342
a(L3806739037L
L1832448559L
(lp2343
(lp2344
Vbootloader_clear_bss_section
p2345
aVbootloader_common_vddsdio_configure
p2346
aVbootloader_clock_get_rated_freq_mhz
p2347
atp2348
a(L3987130017L
L1157885199L
(lp2349
(lp2350
Vbootloader_clock_configure
p2351
aVbootloader_console_init
p2352
aVbootloader_print_banner
p2353
aVbootloader_flash_update_id
p2354
aVbootloader_flash_xmc_startup
p2355
atp2356
a(L1649921053L
L3785322319L
(lp2357
(lp2358
Vesp_log_early_timestamp
p2359
atp2360
a(L4106882949L
L3785322319L
(lp2361
(lp2362
Vesp_log_early_timestamp
p2363
atp2364
a(L3360570486L
L0L
(lp2365
(lp2366
tp2367
a(L2444883382L
L3785322319L
(lp2368
(lp2369
Vbootloader_read_bootloader_header
p2370
atp2371
a(L2444883382L
L3785322319L
(lp2372
(lp2373
Vbootloader_check_bootloader_validity
p2374
atp2375
a(L1599107887L
L2485746240L
(lp2376
(lp2377
Vbootloader_flash_gpio_config
p2378
aVbootloader_flash_dummy_config
p2379
aVbootloader_flash_cs_timing_config
p2380
aVbootloader_flash_unlock
p2381
atp2382
a(L46769618L
L0L
(lp2383
(lp2384
tp2385
a(L2155035293L
L0L
(lp2386
(lp2387
tp2388
a(L1404489684L
L0L
(lp2389
(lp2390
tp2391
a(L2565660313L
L3785322319L
(lp2392
(lp2393
Vesp_log_early_timestamp
p2394
atp2395
a(L4219340557L
L0L
(lp2396
(lp2397
tp2398
a(L4223034641L
L0L
(lp2399
(lp2400
tp2401
a(L4262746044L
L0L
(lp2402
(lp2403
tp2404
a(L4244275624L
L0L
(lp2405
(lp2406
tp2407
a(L1404489750L
L0L
(lp2408
(lp2409
tp2410
a(L3229250057L
L3785322319L
(lp2411
(lp2412
Vesp_log_early_timestamp
p2413
atp2414
a(L93837694L
L0L
(lp2415
(lp2416
tp2417
a(L106L
L0L
(lp2418
(lp2419
tp2420
a(L2691044167L
L0L
(lp2421
(lp2422
tp2423
a(L1503970806L
L0L
(lp2424
(lp2425
tp2426
a(L3902505714L
L0L
(lp2427
(lp2428
tp2429
a(L1410183748L
L3785322319L
(lp2430
(lp2431
Vesp_log_early_timestamp
p2432
atp2433
a(L93837694L
L0L
(lp2434
(lp2435
tp2436
a(L106L
L0L
(lp2437
(lp2438
tp2439
a(L3029526157L
L0L
(lp2440
(lp2441
tp2442
a(L2772639124L
L0L
(lp2443
(lp2444
tp2445
a(L2807278488L
L0L
(lp2446
(lp2447
tp2448
a(L35894901L
L3785322319L
(lp2449
(lp2450
Vbootloader_enable_wp
p2451
atp2452
a(L4208056626L
L0L
(lp2453
(lp2454
tp2455
a(L1895147922L
L0L
(lp2456
(lp2457
tp2458
a(L2282749240L
L3785322319L
(lp2459
(lp2460
Vesp_log_early_timestamp
p2461
atp2462
a(L3835578646L
L0L
(lp2463
(lp2464
tp2465
a(L3616321095L
L0L
(lp2466
(lp2467
tp2468
a(L106L
L0L
(lp2469
(lp2470
tp2471
a(L2693598428L
L0L
(lp2472
(lp2473
tp2474
a(L106L
L0L
(lp2475
(lp2476
tp2477
a(L2848225485L
L3785322319L
(lp2478
(lp2479
Vesp_log_early_timestamp
p2480
atp2481
a(L462441895L
L0L
(lp2482
(lp2483
tp2484
a(L2552296161L
L0L
(lp2485
(lp2486
tp2487
a(L3945228369L
L3785322319L
(lp2488
(lp2489
Vesp_log_early_timestamp
p2490
atp2491
a(L722191531L
L0L
(lp2492
(lp2493
tp2494
a(L1503962529L
L0L
(lp2495
(lp2496
tp2497
a(L106L
L0L
(lp2498
(lp2499
tp2500
a(L718593200L
L0L
(lp2501
(lp2502
tp2503
a(L1767021965L
L0L
(lp2504
(lp2505
tp2506
a(L3028481L
L0L
(lp2507
(lp2508
tp2509
a(L932857825L
L1880226080L
(lp2510
(lp2511
Vbootloader_config_wdt
p2512
aVbootloader_enable_random
p2513
atp2514
a(L2321903297L
L3785322319L
(lp2515
(lp2516
Vesp_log_early_timestamp
p2517
atp2518
atp2519
sI1074237312
(Vbootloader_common_select_otadata
p2520
(lp2521
(L4071767857L
L0L
(lp2522
(lp2523
tp2524
a(L1999329187L
L0L
(lp2525
(lp2526
tp2527
a(L3846398843L
L0L
(lp2528
(lp2529
tp2530
a(L2501968171L
L0L
(lp2531
(lp2532
tp2533
a(L3360570486L
L0L
(lp2534
(lp2535
tp2536
a(L2045232488L
L0L
(lp2537
(lp2538
tp2539
a(L1243525916L
L0L
(lp2540
(lp2541
tp2542
a(L3094144427L
L0L
(lp2543
(lp2544
tp2545
a(L2399509845L
L0L
(lp2546
(lp2547
tp2548
a(L1641201884L
L0L
(lp2549
(lp2550
tp2551
atp2552
sI1074246272
(Vrtc_clk_cpu_freq_to_xtal
p2553
(lp2554
(L3556237429L
L0L
(lp2555
(lp2556
tp2557
a(L94425498L
L3785322319L
(lp2558
(lp2559
Vabort
p2560
atp2561
a(L1388270906L
L3785322319L
(lp2562
(lp2563
Vrtc_clk_apb_freq_update
p2564
atp2565
a(L2258867232L
L0L
(lp2566
(lp2567
tp2568
a(L1889460029L
L0L
(lp2569
(lp2570
tp2571
atp2572
sI1074247552
(Vrtc_clk_cal_ratio
p2573
(lp2574
(L450827956L
L3785322319L
(lp2575
(lp2576
Vrtc_clk_cal_internal
p2577
atp2578
atp2579
sI1074235532
(Vbootloader_flash_read_sfdp
p2580
(lp2581
(L711701400L
L0L
(lp2582
(lp2583
tp2584
a(L3178612724L
L3785322319L
(lp2585
(lp2586
V__assert_func
p2587
atp2588
a(L3704332455L
L3785322319L
(lp2589
(lp2590
Vbootloader_flash_execute_command_common
p2591
atp2592
atp2593
sI1074235788
(Vbootloader_flash_cs_timing_config
p2594
(lp2595
(L6299057L
L0L
(lp2596
(lp2597
tp2598
atp2599
sI1074243980
(Vwdt_hal_config_stage
p2600
(lp2601
(L331558507L
L0L
(lp2602
(lp2603
tp2604
a(L4279082939L
L0L
(lp2605
(lp2606
tp2607
a(L93674324L
L0L
(lp2608
(lp2609
tp2610
a(L2902417580L
L0L
(lp2611
(lp2612
tp2613
a(L1485495983L
L0L
(lp2614
(lp2615
tp2616
a(L3020187L
L0L
(lp2617
(lp2618
tp2619
a(L94425498L
L3785322319L
(lp2620
(lp2621
Vabort
p2622
atp2623
a(L2718517169L
L0L
(lp2624
(lp2625
tp2626
a(L3360570486L
L0L
(lp2627
(lp2628
tp2629
a(L1996799187L
L0L
(lp2630
(lp2631
tp2632
a(L2771194801L
L0L
(lp2633
(lp2634
tp2635
a(L4278159418L
L0L
(lp2636
(lp2637
tp2638
a(L93674324L
L0L
(lp2639
(lp2640
tp2641
a(L3020204L
L0L
(lp2642
(lp2643
tp2644
a(L3391750594L
L0L
(lp2645
(lp2646
tp2647
a(L3020187L
L0L
(lp2648
(lp2649
tp2650
a(L106L
L0L
(lp2651
(lp2652
tp2653
a(L239610384L
L0L
(lp2654
(lp2655
tp2656
a(L831450820L
L0L
(lp2657
(lp2658
tp2659
a(L3340783449L
L0L
(lp2660
(lp2661
tp2662
atp2663
sI1074245004
(Vrtc_clk_32k_bootstrap
p2664
(lp2665
(L4123346161L
L0L
(lp2666
(lp2667
tp2668
a(L3674455069L
L0L
(lp2669
(lp2670
tp2671
a(L3144628347L
L0L
(lp2672
(lp2673
tp2674
a(L1533160738L
L0L
(lp2675
(lp2676
tp2677
a(L5651962L
L3785322319L
(lp2678
(lp2679
Vrtc_clk_32k_enable_common
p2680
atp2681
atp2682
sI1074245512
(Vrtc_clk_8m_enable
p2683
(lp2684
(L1822730884L
L0L
(lp2685
(lp2686
tp2687
a(L1660354155L
L0L
(lp2688
(lp2689
tp2690
a(L2151320156L
L0L
(lp2691
(lp2692
tp2693
a(L1456128412L
L0L
(lp2694
(lp2695
tp2696
a(L3360570486L
L0L
(lp2697
(lp2698
tp2699
a(L1318267208L
L0L
(lp2700
(lp2701
tp2702
a(L2716403206L
L0L
(lp2703
(lp2704
tp2705
atp2706
sI1074244496
(Vmmu_hal_init
p2707
(lp2708
(L1381828061L
L0L
(lp2709
(lp2710
tp2711
a(L2010554219L
L0L
(lp2712
(lp2713
tp2714
a(L3360570486L
L0L
(lp2715
(lp2716
tp2717
atp2718
sI1074238108
(Vbootloader_enable_wp
p2719
(lp2720
(L1117825804L
L3785322319L
(lp2721
(lp2722
Vbootloader_execute_flash_command
p2723
atp2724
atp2725
sI1074236824
(Vefuse_hal_get_minor_chip_version
p2726
(lp2727
(L1213965243L
L0L
(lp2728
(lp2729
tp2730
atp2731
sI1074247832
(Vesp_rom_spiflash_wait_idle
p2732
(lp2733
(L3233076569L
L0L
(lp2734
(lp2735
tp2736
a(L2023766174L
L0L
(lp2737
(lp2738
tp2739
a(L2805934550L
L0L
(lp2740
(lp2741
tp2742
a(L3086959262L
L0L
(lp2743
(lp2744
tp2745
a(L4161019926L
L3785322319L
(lp2746
(lp2747
Vesp_rom_spiflash_read_status
p2748
atp2749
atp2750
sI1074238628
(Vtry_load_partition
p2751
(lp2752
(L1263750142L
L0L
(lp2753
(lp2754
tp2755
a(L2258688482L
L0L
(lp2756
(lp2757
tp2758
a(L3360570486L
L0L
(lp2759
(lp2760
tp2761
a(L530241438L
L3785322319L
(lp2762
(lp2763
Vbootloader_load_image
p2764
atp2765
a(L578262430L
L3785322319L
(lp2766
(lp2767
Vesp_log_early_timestamp
p2768
atp2769
atp2770
sI1074241188
(Vbootloader_util_regions_overlap
p2771
(lp2772
(L2762640130L
L0L
(lp2773
(lp2774
tp2775
a(L2817547429L
L0L
(lp2776
(lp2777
tp2778
a(L986602140L
L3785322319L
(lp2779
(lp2780
V__assert_func
p2781
atp2782
a(L97642L
L0L
(lp2783
(lp2784
tp2785
a(L2008543729L
L0L
(lp2786
(lp2787
tp2788
a(L366123053L
L0L
(lp2789
(lp2790
tp2791
a(L2258867228L
L0L
(lp2792
(lp2793
tp2794
a(L1253626734L
L0L
(lp2795
(lp2796
tp2797
a(L2258897019L
L0L
(lp2798
(lp2799
tp2800
a(L3109269495L
L0L
(lp2801
(lp2802
tp2803
atp2804
sI1074269868
(Vrtc_clk_xtal_freq_estimate
p2805
(lp2806
(L3845076426L
L1880226080L
(lp2807
(lp2808
Vrtc_clk_8m_enabled
p2809
aVrtc_clk_8md256_enabled
p2810
atp2811
a(L2449794434L
L3785322319L
(lp2812
(lp2813
Vrtc_clk_8m_enable
p2814
atp2815
a(L1770394742L
L3785322319L
(lp2816
(lp2817
Vrtc_clk_cal_ratio
p2818
atp2819
a(L1894802584L
L0L
(lp2820
(lp2821
tp2822
a(L1915120046L
L0L
(lp2823
(lp2824
tp2825
a(L2740879690L
L0L
(lp2826
(lp2827
tp2828
a(L1059750288L
L3785322319L
(lp2829
(lp2830
Vrtc_clk_8m_enable
p2831
atp2832
a(L863676849L
L3785322319L
(lp2833
(lp2834
Vesp_log_early_timestamp
p2835
atp2836
a(L2894376164L
L0L
(lp2837
(lp2838
tp2839
a(L1641150486L
L0L
(lp2840
(lp2841
tp2842
a(L2821810955L
L3785322319L
(lp2843
(lp2844
Vesp_log_early_timestamp
p2845
atp2846
a(L215971570L
L3785322319L
(lp2847
(lp2848
Vesp_log_early_timestamp
p2849
atp2850
atp2851
sI1074247072
(Vrtc_clk_apb_freq_get
p2852
(lp2853
(L1405698675L
L0L
(lp2854
(lp2855
tp2856
atp2857
sI1074247584
(Vrtc_clk_wait_for_slow_cycle
p2858
(lp2859
(L2500614820L
L0L
(lp2860
(lp2861
tp2862
a(L287687718L
L0L
(lp2863
(lp2864
tp2865
a(L3360570486L
L0L
(lp2866
(lp2867
tp2868
a(L835269876L
L0L
(lp2869
(lp2870
tp2871
a(L2994547433L
L0L
(lp2872
(lp2873
tp2874
a(L100177629L
L0L
(lp2875
(lp2876
tp2877
a(L2561244255L
L3785322319L
(lp2878
(lp2879
Vesp_log_early_timestamp
p2880
atp2881
atp2882
sI1074244524
(Vefuse_hal_get_rated_freq_mhz
p2883
(lp2884
(L3387138627L
L0L
(lp2885
(lp2886
tp2887
a(L3671388797L
L0L
(lp2888
(lp2889
tp2890
a(L3360570486L
L0L
(lp2891
(lp2892
tp2893
atp2894
sI1074246060
(Vrtc_clk_cpu_freq_get_config
p2895
(lp2896
(L4203396962L
L0L
(lp2897
(lp2898
tp2899
a(L3020187L
L0L
(lp2900
(lp2901
tp2902
a(L3020187L
L0L
(lp2903
(lp2904
tp2905
a(L3279365017L
L3785322319L
(lp2906
(lp2907
Vrtc_clk_xtal_freq_get
p2908
atp2909
a(L3789795478L
L0L
(lp2910
(lp2911
tp2912
a(L1446960025L
L1880226080L
(lp2913
(lp2914
Vesp_log_early_timestamp
p2915
aVabort
p2916
atp2917
a(L3185329647L
L0L
(lp2918
(lp2919
tp2920
a(L3020187L
L0L
(lp2921
(lp2922
tp2923
a(L3028481L
L0L
(lp2924
(lp2925
tp2926
a(L38508693L
L0L
(lp2927
(lp2928
tp2929
a(L187152368L
L0L
(lp2930
(lp2931
tp2932
a(L1161083655L
L0L
(lp2933
(lp2934
tp2935
a(L1395485899L
L0L
(lp2936
(lp2937
tp2938
a(L2070600034L
L0L
(lp2939
(lp2940
tp2941
atp2942
sI1074236840
(Vesp_dport_access_reg_read
p2943
(lp2944
(L1099794772L
L0L
(lp2945
(lp2946
tp2947
atp2948
sI1074270648
(Vrtc_vddsdio_set_config
p2949
(lp2950
(L4274475684L
L0L
(lp2951
(lp2952
tp2953
atp2954
sI1074236852
(Vis_xmc_chip_strict
p2955
(lp2956
(L1286841609L
L0L
(lp2957
(lp2958
tp2959
a(L2234016759L
L0L
(lp2960
(lp2961
tp2962
a(L1069027148L
L0L
(lp2963
(lp2964
tp2965
a(L3021749L
L0L
(lp2966
(lp2967
tp2968
a(L1900148749L
L0L
(lp2969
(lp2970
tp2971
a(L1936875721L
L0L
(lp2972
(lp2973
tp2974
a(L3356166509L
L0L
(lp2975
(lp2976
tp2977
a(L1937769451L
L0L
(lp2978
(lp2979
tp2980
a(L2137658907L
L0L
(lp2981
(lp2982
tp2983
a(L4265949734L
L0L
(lp2984
(lp2985
tp2986
a(L3360570486L
L0L
(lp2987
(lp2988
tp2989
atp2990
sI1074238128
(Vbootloader_mmap_get_free_pages
p2991
(lp2992
(L1496516875L
L0L
(lp2993
(lp2994
tp2995
atp2996
sI1074245808
(Vrtc_clk_slow_src_get
p2997
(lp2998
(L376617603L
L3785322319L
(lp2999
(lp3000
Vclk_ll_rtc_slow_get_src
p3001
atp3002
atp3003
sI1074245820
(Vrtc_clk_slow_freq_get_hz
p3004
(lp3005
(L1826267122L
L3785322319L
(lp3006
(lp3007
Vclk_ll_rtc_slow_get_src
p3008
atp3009
a(L4183791619L
L0L
(lp3010
(lp3011
tp3012
a(L3631005815L
L0L
(lp3013
(lp3014
tp3015
a(L702740068L
L0L
(lp3016
(lp3017
tp3018
a(L3360570486L
L0L
(lp3019
(lp3020
tp3021
atp3022
sI1074238136
(Vbootloader_fill_random
p3023
(lp3024
(L1233865241L
L0L
(lp3025
(lp3026
tp3027
a(L2195342884L
L3785322319L
(lp3028
(lp3029
V__assert_func
p3030
atp3031
a(L1882547218L
L0L
(lp3032
(lp3033
tp3034
a(L2910371777L
L0L
(lp3035
(lp3036
tp3037
a(L95634693L
L0L
(lp3038
(lp3039
tp3040
a(L3630908706L
L0L
(lp3041
(lp3042
tp3043
a(L160162640L
L0L
(lp3044
(lp3045
tp3046
a(L97689L
L0L
(lp3047
(lp3048
tp3049
a(L3360570486L
L0L
(lp3050
(lp3051
tp3052
atp3053
sI1074241732
(Vshould_load
p3054
(lp3055
(L602112478L
L0L
(lp3056
(lp3057
tp3058
a(L1182990556L
L0L
(lp3059
(lp3060
tp3061
a(L1188500889L
L0L
(lp3062
(lp3063
tp3064
a(L2306467100L
L0L
(lp3065
(lp3066
tp3067
a(L1002638193L
L0L
(lp3068
(lp3069
tp3070
a(L2258897019L
L0L
(lp3071
(lp3072
tp3073
a(L3781799363L
L0L
(lp3074
(lp3075
tp3076
a(L3028464L
L0L
(lp3077
(lp3078
tp3079
a(L4261461776L
L0L
(lp3080
(lp3081
tp3082
a(L4277114872L
L0L
(lp3083
(lp3084
tp3085
a(L2824381917L
L0L
(lp3086
(lp3087
tp3088
a(L1243412227L
L0L
(lp3089
(lp3090
tp3091
a(L2011157548L
L0L
(lp3092
(lp3093
tp3094
a(L3126521138L
L0L
(lp3095
(lp3096
tp3097
a(L1305407438L
L0L
(lp3098
(lp3099
tp3100
a(L1305407469L
L0L
(lp3101
(lp3102
tp3103
atp3104
sI1074236612
(Vesp_rom_uart_set_clock_baudrate
p3105
(lp3106
(L3381693543L
L0L
(lp3107
(lp3108
tp3109
a(L2334982986L
L0L
(lp3110
(lp3111
tp3112
a(L2805931264L
L0L
(lp3113
(lp3114
tp3115
a(L3887231631L
L0L
(lp3116
(lp3117
tp3118
atp3119
sI1074248132
(Vesp_rom_spiflash_erase_sector
p3120
(lp3121
(L4114658556L
L0L
(lp3122
(lp3123
tp3124
a(L2258688483L
L0L
(lp3125
(lp3126
tp3127
a(L3360570486L
L0L
(lp3128
(lp3129
tp3130
a(L3212356251L
L3785322319L
(lp3131
(lp3132
Vesp_rom_spiflash_enable_write
p3133
atp3134
a(L184152988L
L0L
(lp3135
(lp3136
tp3137
a(L2577426258L
L3785322319L
(lp3138
(lp3139
Vesp_rom_spiflash_wait_idle
p3140
atp3141
a(L3333707777L
L0L
(lp3142
(lp3143
tp3144
a(L3582858798L
L3785322319L
(lp3145
(lp3146
Vesp_rom_spiflash_wait_idle
p3147
atp3148
atp3149
sI1074268620
(Vbootloader_common_vddsdio_configure
p3150
(lp3151
(L1829974089L
L3785322319L
(lp3152
(lp3153
Vrtc_vddsdio_get_config
p3154
atp3155
a(L555786086L
L3785322319L
(lp3156
(lp3157
Vrtc_vddsdio_set_config
p3158
atp3159
a(L3360570486L
L0L
(lp3160
(lp3161
tp3162
atp3163
sI1074235584
(Vbootloader_read_flash_id
p3164
(lp3165
(L549578328L
L3785322319L
(lp3166
(lp3167
Vbootloader_execute_flash_command
p3168
atp3169
atp3170
sI1074237388
(Vspi_to_esp_err
p3171
(lp3172
(L3520881295L
L0L
(lp3173
(lp3174
tp3175
a(L2402400019L
L0L
(lp3176
(lp3177
tp3178
a(L3952441574L
L0L
(lp3179
(lp3180
tp3181
a(L3126521138L
L0L
(lp3182
(lp3183
tp3184
atp3185
sI1074237644
(Vbootloader_munmap
p3186
(lp3187
(L1697403118L
L0L
(lp3188
(lp3189
tp3190
a(L3761142808L
L0L
(lp3191
(lp3192
tp3193
a(L3360570486L
L0L
(lp3194
(lp3195
tp3196
atp3197
sI1074247116
(Vrtc_clk_cal_internal
p3198
(lp3199
(L3193243479L
L0L
(lp3200
(lp3201
tp3202
a(L1394831245L
L3785322319L
(lp3203
(lp3204
V__assert_func
p3205
atp3206
a(L437537178L
L0L
(lp3207
(lp3208
tp3209
a(L54826884L
L0L
(lp3210
(lp3211
tp3212
a(L234746575L
L0L
(lp3213
(lp3214
tp3215
a(L861896856L
L3785322319L
(lp3216
(lp3217
Vrtc_clk_8m_enable
p3218
atp3219
a(L3811931639L
L3785322319L
(lp3220
(lp3221
Vrtc_clk_slow_src_get
p3222
atp3223
a(L1211065969L
L0L
(lp3224
(lp3225
tp3226
a(L97689L
L0L
(lp3227
(lp3228
tp3229
a(L1728789862L
L0L
(lp3230
(lp3231
tp3232
a(L3028464L
L0L
(lp3233
(lp3234
tp3235
a(L3028481L
L0L
(lp3236
(lp3237
tp3238
a(L3450258759L
L0L
(lp3239
(lp3240
tp3241
a(L2107919910L
L3785322319L
(lp3242
(lp3243
Vrtc_clk_xtal_freq_get
p3244
atp3245
a(L2780079961L
L0L
(lp3246
(lp3247
tp3248
a(L2949205049L
L0L
(lp3249
(lp3250
tp3251
a(L1730309997L
L3785322319L
(lp3252
(lp3253
Vesp_log_early_timestamp
p3254
atp3255
a(L3360570486L
L0L
(lp3256
(lp3257
tp3258
a(L4288876523L
L0L
(lp3259
(lp3260
tp3261
a(L3121398759L
L0L
(lp3262
(lp3263
tp3264
a(L2910371777L
L0L
(lp3265
(lp3266
tp3267
a(L2902417580L
L0L
(lp3268
(lp3269
tp3270
a(L265500957L
L0L
(lp3271
(lp3272
tp3273
a(L3631005548L
L0L
(lp3274
(lp3275
tp3276
a(L2722112789L
L0L
(lp3277
(lp3278
tp3279
a(L3352263364L
L0L
(lp3280
(lp3281
tp3282
a(L3028464L
L0L
(lp3283
(lp3284
tp3285
a(L1136882496L
L3785322319L
(lp3286
(lp3287
Vrtc_clk_8m_enable
p3288
atp3289
atp3290
sI1074244296
(Vwdt_hal_write_protect_disable
p3291
(lp3292
(L3345031483L
L0L
(lp3293
(lp3294
tp3295
a(L4195472003L
L0L
(lp3296
(lp3297
tp3298
a(L3360570486L
L0L
(lp3299
(lp3300
tp3301
a(L1210571996L
L0L
(lp3302
(lp3303
tp3304
atp3305
sI1074247880
(Vesp_rom_spiflash_enable_write
p3306
(lp3307
(L64916627L
L3785322319L
(lp3308
(lp3309
Vesp_rom_spiflash_wait_idle
p3310
atp3311
a(L3137194272L
L0L
(lp3312
(lp3313
tp3314
a(L2258718275L
L0L
(lp3315
(lp3316
tp3317
a(L99543895L
L0L
(lp3318
(lp3319
tp3320
a(L2993202392L
L0L
(lp3321
(lp3322
tp3323
a(L1804543818L
L3785322319L
(lp3324
(lp3325
Vesp_rom_spiflash_read_status
p3326
atp3327
atp3328
sI1074238676
(Vcache_ll_l1_enable_bus
p3329
(lp3330
(L2715656691L
L0L
(lp3331
(lp3332
tp3333
atp3334
sI1074244564
(Vclk_ll_rtc_slow_get_src
p3335
(lp3336
(L3007589395L
L0L
(lp3337
(lp3338
tp3339
a(L3020187L
L0L
(lp3340
(lp3341
tp3342
a(L2902417580L
L0L
(lp3343
(lp3344
tp3345
a(L2258688485L
L0L
(lp3346
(lp3347
tp3348
a(L3360570486L
L0L
(lp3349
(lp3350
tp3351
atp3352
sI1074239696
(Vbootloader_utility_get_selected_boot_partition
p3353
(lp3354
(L2184143128L
L0L
(lp3355
(lp3356
tp3357
a(L3559256264L
L0L
(lp3358
(lp3359
tp3360
a(L32932585L
L3785322319L
(lp3361
(lp3362
Vesp_log_early_timestamp
p3363
atp3364
a(L4182535910L
L0L
(lp3365
(lp3366
tp3367
a(L3360570486L
L0L
(lp3368
(lp3369
tp3370
a(L1375577398L
L3785322319L
(lp3371
(lp3372
Vbootloader_mmap
p3373
atp3374
a(L4068126365L
L3785322319L
(lp3375
(lp3376
Vesp_log_early_timestamp
p3377
atp3378
a(L2427574825L
L1880226080L
(lp3379
(lp3380
Vbootloader_munmap
p3381
aVbootloader_common_ota_select_invalid
p3382
atp3383
a(L1103573946L
L0L
(lp3384
(lp3385
tp3386
a(L1876835593L
L3785322319L
(lp3387
(lp3388
Vbootloader_common_get_active_otadata
p3389
atp3390
a(L106L
L0L
(lp3391
(lp3392
tp3393
a(L569346373L
L0L
(lp3394
(lp3395
tp3396
a(L788494392L
L3785322319L
(lp3397
(lp3398
Vbootloader_common_ota_select_invalid
p3399
atp3400
a(L1444904757L
L0L
(lp3401
(lp3402
tp3403
a(L3149719584L
L3785322319L
(lp3404
(lp3405
Vesp_log_early_timestamp
p3406
atp3407
a(L4290358961L
L3785322319L
(lp3408
(lp3409
Vesp_log_early_timestamp
p3410
atp3411
a(L505081345L
L0L
(lp3412
(lp3413
tp3414
a(L919052234L
L3785322319L
(lp3415
(lp3416
Vbootloader_common_ota_select_crc
p3417
atp3418
a(L2287680455L
L0L
(lp3419
(lp3420
tp3421
a(L3542558037L
L3785322319L
(lp3422
(lp3423
Vbootloader_common_ota_select_crc
p3424
atp3425
a(L1299866312L
L0L
(lp3426
(lp3427
tp3428
a(L1279036405L
L0L
(lp3429
(lp3430
tp3431
a(L4436813L
L3785322319L
(lp3432
(lp3433
Vesp_log_early_timestamp
p3434
atp3435
a(L190989796L
L0L
(lp3436
(lp3437
tp3438
a(L4142614521L
L3785322319L
(lp3439
(lp3440
Vesp_log_early_timestamp
p3441
atp3442
atp3443
sI1074236368
(Vbootloader_flash_dummy_config
p3444
(lp3445
(L379397211L
L0L
(lp3446
(lp3447
tp3448
a(L2761717557L
L0L
(lp3449
(lp3450
tp3451
a(L1849044936L
L0L
(lp3452
(lp3453
tp3454
a(L1396570841L
L0L
(lp3455
(lp3456
tp3457
a(L326359429L
L0L
(lp3458
(lp3459
tp3460
a(L3020204L
L0L
(lp3461
(lp3462
tp3463
a(L1610443405L
L0L
(lp3464
(lp3465
tp3466
a(L4032120524L
L0L
(lp3467
(lp3468
tp3469
a(L2336993863L
L0L
(lp3470
(lp3471
tp3472
a(L1298875775L
L0L
(lp3473
(lp3474
tp3475
a(L3880393601L
L0L
(lp3476
(lp3477
tp3478
a(L3433671740L
L0L
(lp3479
(lp3480
tp3481
a(L1610443436L
L0L
(lp3482
(lp3483
tp3484
atp3485
sI1074241244
(Vverify_load_addresses
p3486
(lp3487
(L2764487219L
L0L
(lp3488
(lp3489
tp3490
a(L106L
L0L
(lp3491
(lp3492
tp3493
a(L97642L
L0L
(lp3494
(lp3495
tp3496
a(L1224098526L
L3785322319L
(lp3497
(lp3498
V__assert_func
p3499
atp3500
a(L98637545L
L0L
(lp3501
(lp3502
tp3503
a(L106L
L0L
(lp3504
(lp3505
tp3506
a(L3668043123L
L0L
(lp3507
(lp3508
tp3509
a(L106L
L0L
(lp3510
(lp3511
tp3512
a(L3257608699L
L3785322319L
(lp3513
(lp3514
Vbootloader_util_regions_overlap
p3515
atp3516
a(L3860847446L
L3785322319L
(lp3517
(lp3518
Vbootloader_util_regions_overlap
p3519
atp3520
a(L3028481L
L0L
(lp3521
(lp3522
tp3523
a(L4017883982L
L3785322319L
(lp3524
(lp3525
Vbootloader_util_regions_overlap
p3526
atp3527
a(L2068270194L
L0L
(lp3528
(lp3529
tp3530
a(L3651031838L
L0L
(lp3531
(lp3532
tp3533
a(L2508839873L
L0L
(lp3534
(lp3535
tp3536
a(L2661576437L
L0L
(lp3537
(lp3538
tp3539
a(L2503437888L
L0L
(lp3540
(lp3541
tp3542
a(L677569396L
L3785322319L
(lp3543
(lp3544
Vverify_load_addresses
p3545
atp3546
a(L1351513776L
L0L
(lp3547
(lp3548
tp3549
a(L3061261803L
L0L
(lp3550
(lp3551
tp3552
a(L2743341656L
L0L
(lp3553
(lp3554
tp3555
a(L2313851956L
L0L
(lp3556
(lp3557
tp3558
a(L729859039L
L0L
(lp3559
(lp3560
tp3561
a(L4026856790L
L3785322319L
(lp3562
(lp3563
Vbootloader_util_regions_overlap
p3564
atp3565
a(L3028481L
L0L
(lp3566
(lp3567
tp3568
a(L1567678174L
L3785322319L
(lp3569
(lp3570
Vbootloader_util_regions_overlap
p3571
atp3572
a(L2782864159L
L0L
(lp3573
(lp3574
tp3575
a(L430813523L
L0L
(lp3576
(lp3577
tp3578
a(L1256222942L
L0L
(lp3579
(lp3580
tp3581
a(L3569512628L
L0L
(lp3582
(lp3583
tp3584
a(L307916850L
L0L
(lp3585
(lp3586
tp3587
a(L697239146L
L0L
(lp3588
(lp3589
tp3590
a(L106L
L0L
(lp3591
(lp3592
tp3593
a(L955505038L
L0L
(lp3594
(lp3595
tp3596
a(L307917420L
L0L
(lp3597
(lp3598
tp3599
a(L490080443L
L0L
(lp3600
(lp3601
tp3602
a(L106L
L0L
(lp3603
(lp3604
tp3605
a(L2911734060L
L3785322319L
(lp3606
(lp3607
Vesp_log_early_timestamp
p3608
atp3609
a(L955504914L
L0L
(lp3610
(lp3611
tp3612
a(L1303560427L
L0L
(lp3613
(lp3614
tp3615
atp3616
sI1074240728
(Vbootloader_console_deinit
p3617
(lp3618
(L3736498623L
L0L
(lp3619
(lp3620
tp3621
atp3622
sI1074245848
(Vrtc_clk_fast_src_set
p3623
(lp3624
(L1803815991L
L0L
(lp3625
(lp3626
tp3627
a(L3020187L
L0L
(lp3628
(lp3629
tp3630
a(L3827921190L
L3785322319L
(lp3631
(lp3632
Vabort
p3633
atp3634
a(L209959690L
L0L
(lp3635
(lp3636
tp3637
a(L1379824320L
L0L
(lp3638
(lp3639
tp3640
a(L300459962L
L0L
(lp3641
(lp3642
tp3643
atp3644
sI1074240996
(Vprocess_image_header
p3645
(lp3646
(L1298623440L
L3785322319L
(lp3647
(lp3648
Vbootloader_flash_read
p3649
atp3650
a(L3020204L
L0L
(lp3651
(lp3652
tp3653
a(L4130667142L
L0L
(lp3654
(lp3655
tp3656
a(L3131381282L
L0L
(lp3657
(lp3658
tp3659
a(L1161397362L
L3785322319L
(lp3660
(lp3661
Vbootloader_sha256_start
p3662
atp3663
a(L1948257695L
L3785322319L
(lp3664
(lp3665
Vbootloader_sha256_data
p3666
atp3667
a(L1095449651L
L0L
(lp3668
(lp3669
tp3670
a(L3020204L
L0L
(lp3671
(lp3672
tp3673
a(L702739530L
L0L
(lp3674
(lp3675
tp3676
a(L3360570486L
L0L
(lp3677
(lp3678
tp3679
a(L1670339747L
L3785322319L
(lp3680
(lp3681
Vesp_log_early_timestamp
p3682
atp3683
a(L3718883008L
L3785322319L
(lp3684
(lp3685
Vbootloader_common_check_chip_validity
p3686
atp3687
a(L3677035427L
L0L
(lp3688
(lp3689
tp3690
a(L3028481L
L0L
(lp3691
(lp3692
tp3693
a(L2926114146L
L3785322319L
(lp3694
(lp3695
Vesp_log_early_timestamp
p3696
atp3697
a(L2250109166L
L0L
(lp3698
(lp3699
tp3700
a(L1235012870L
L0L
(lp3701
(lp3702
tp3703
a(L3063569071L
L0L
(lp3704
(lp3705
tp3706
atp3707
sI1074237420
(Vbootloader_mmap
p3708
(lp3709
(L3624397292L
L0L
(lp3710
(lp3711
tp3712
a(L243940828L
L3785322319L
(lp3713
(lp3714
Vesp_log_early_timestamp
p3715
atp3716
a(L3871473710L
L0L
(lp3717
(lp3718
tp3719
a(L3729184599L
L0L
(lp3720
(lp3721
tp3722
a(L420931470L
L3785322319L
(lp3723
(lp3724
Vesp_log_early_timestamp
p3725
atp3726
a(L1864365708L
L0L
(lp3727
(lp3728
tp3729
a(L3643511071L
L3785322319L
(lp3730
(lp3731
Vesp_log_early_timestamp
p3732
atp3733
a(L258722864L
L0L
(lp3734
(lp3735
tp3736
a(L3840066862L
L3785322319L
(lp3737
(lp3738
Vesp_log_early_timestamp
p3739
atp3740
a(L2535155408L
L0L
(lp3741
(lp3742
tp3743
atp3744
sI1074239212
(Vset_actual_ota_seq
p3745
(lp3746
(L4094723830L
L0L
(lp3747
(lp3748
tp3749
a(L952758373L
L0L
(lp3750
(lp3751
tp3752
a(L1862038888L
L1832448559L
(lp3753
(lp3754
Vbootloader_common_ota_select_crc
p3755
aVesp_flash_encryption_enabled
p3756
aVbootloader_flash_erase_sector
p3757
atp3758
a(L3292941333L
L3785322319L
(lp3759
(lp3760
Vbootloader_flash_write
p3761
atp3762
a(L9642273L
L3785322319L
(lp3763
(lp3764
Vesp_log_early_timestamp
p3765
atp3766
a(L3829560850L
L3785322319L
(lp3767
(lp3768
Vesp_log_early_timestamp
p3769
atp3770
a(L3360570486L
L0L
(lp3771
(lp3772
tp3773
atp3774
sI1074269412
(Vbootloader_flash_update_id
p3775
(lp3776
(L824600716L
L3785322319L
(lp3777
(lp3778
Vbootloader_read_flash_id
p3779
atp3780
atp3781
sI1074240744
(V__assert_func
p3782
(lp3783
(L2563536430L
L0L
(lp3784
(lp3785
tp3786
a(L106L
L0L
(lp3787
(lp3788
tp3789
atp3790
sI1074244328
(Vwdt_hal_set_flashboot_en
p3791
(lp3792
(L2375320464L
L0L
(lp3793
(lp3794
tp3795
a(L3915867581L
L0L
(lp3796
(lp3797
tp3798
a(L3360570486L
L0L
(lp3799
(lp3800
tp3801
a(L1643092119L
L0L
(lp3802
(lp3803
tp3804
atp3805
sI1074246388
(Vrtc_clk_cpu_freq_set_config
p3806
(lp3807
(L2689297958L
L3785322319L
(lp3808
(lp3809
Vrtc_clk_xtal_freq_get
p3810
atp3811
a(L3020187L
L0L
(lp3812
(lp3813
tp3814
a(L3028464L
L0L
(lp3815
(lp3816
tp3817
a(L264223053L
L1880226080L
(lp3818
(lp3819
Vrtc_clk_cpu_freq_to_xtal
p3820
aVrtc_clk_wait_for_slow_cycle
p3821
atp3822
a(L94425498L
L3785322319L
(lp3823
(lp3824
Vrtc_clk_bbpll_disable
p3825
atp3826
a(L3978916712L
L0L
(lp3827
(lp3828
tp3829
a(L2977209154L
L0L
(lp3830
(lp3831
tp3832
a(L2736411858L
L3785322319L
(lp3833
(lp3834
Vrtc_clk_cpu_freq_to_xtal
p3835
atp3836
a(L3360570486L
L0L
(lp3837
(lp3838
tp3839
a(L3020187L
L0L
(lp3840
(lp3841
tp3842
a(L106L
L0L
(lp3843
(lp3844
tp3845
a(L1819443167L
L1880226080L
(lp3846
(lp3847
Vrtc_clk_wait_for_slow_cycle
p3848
aVrtc_clk_xtal_freq_get
p3849
atp3850
a(L106L
L0L
(lp3851
(lp3852
tp3853
a(L1760301549L
L0L
(lp3854
(lp3855
tp3856
a(L106L
L0L
(lp3857
(lp3858
tp3859
a(L83268611L
L0L
(lp3860
(lp3861
tp3862
a(L106L
L0L
(lp3863
(lp3864
tp3865
a(L82344823L
L0L
(lp3866
(lp3867
tp3868
a(L106L
L0L
(lp3869
(lp3870
tp3871
a(L1274797871L
L0L
(lp3872
(lp3873
tp3874
a(L3234861624L
L0L
(lp3875
(lp3876
tp3877
a(L3202204087L
L1880226080L
(lp3878
(lp3879
Vclk_ll_rtc_slow_get_src
p3880
aVrtc_clk_cpu_freq_to_pll_mhz
p3881
atp3882
a(L2476117392L
L0L
(lp3883
(lp3884
tp3885
a(L83268344L
L0L
(lp3886
(lp3887
tp3888
a(L82345090L
L0L
(lp3889
(lp3890
tp3891
a(L1299628291L
L0L
(lp3892
(lp3893
tp3894
a(L2291984866L
L0L
(lp3895
(lp3896
tp3897
a(L2258807646L
L0L
(lp3898
(lp3899
tp3900
a(L878473564L
L0L
(lp3901
(lp3902
tp3903
a(L2389426015L
L0L
(lp3904
(lp3905
tp3906
a(L1596574736L
L0L
(lp3907
(lp3908
tp3909
a(L2086626670L
L0L
(lp3910
(lp3911
tp3912
a(L1302638456L
L0L
(lp3913
(lp3914
tp3915
a(L810137203L
L0L
(lp3916
(lp3917
tp3918
a(L87353900L
L0L
(lp3919
(lp3920
tp3921
a(L3020187L
L0L
(lp3922
(lp3923
tp3924
a(L106L
L0L
(lp3925
(lp3926
tp3927
a(L1708440835L
L0L
(lp3928
(lp3929
tp3930
atp3931
sI1074268924
(Vbootloader_random_enable
p3932
(lp3933
(L1057236879L
L0L
(lp3934
(lp3935
tp3936
atp3937
sI1074269692
(Vbootloader_enable_random
p3938
(lp3939
(L3877406719L
L1880226080L
(lp3940
(lp3941
Vesp_log_early_timestamp
p3942
aVbootloader_random_enable
p3943
atp3944
atp3945
sI1074235632
(Vbootloader_flash_xmc_startup
p3946
(lp3947
(L3193865048L
L3785322319L
(lp3948
(lp3949
Vis_xmc_chip_strict
p3950
atp3951
a(L2258688482L
L0L
(lp3952
(lp3953
tp3954
a(L3360570486L
L0L
(lp3955
(lp3956
tp3957
a(L2860324232L
L3785322319L
(lp3958
(lp3959
Vbootloader_flash_read_sfdp
p3960
atp3961
a(L1435030724L
L2567856111L
(lp3962
(lp3963
Vesp_log_early_timestamp
p3964
aVbootloader_execute_flash_command
p3965
aVbootloader_execute_flash_command
p3966
aVbootloader_execute_flash_command
p3967
aVbootloader_execute_flash_command
p3968
aVbootloader_read_flash_id
p3969
aVis_xmc_chip_strict
p3970
atp3971
a(L3505255384L
L3785322319L
(lp3972
(lp3973
Vesp_log_early_timestamp
p3974
atp3975
atp3976
sI1074244592
(Vrtc_clk_32k_enable_common
p3977
(lp3978
(L524789055L
L0L
(lp3979
(lp3980
tp3981
a(L97689L
L0L
(lp3982
(lp3983
tp3984
a(L2218417250L
L0L
(lp3985
(lp3986
tp3987
a(L3772650524L
L0L
(lp3988
(lp3989
tp3990
a(L51458058L
L0L
(lp3991
(lp3992
tp3993
atp3994
sI1074248432
(Vesp_rom_spiflash_write_encrypted
p3995
(lp3996
(L1944247967L
L0L
(lp3997
(lp3998
tp3999
a(L2737662338L
L0L
(lp4000
(lp4001
tp4002
a(L97689L
L0L
(lp4003
(lp4004
tp4005
a(L3061232074L
L0L
(lp4006
(lp4007
tp4008
a(L1766647866L
L0L
(lp4009
(lp4010
tp4011
a(L1309309703L
L3785322319L
(lp4012
(lp4013
Vesp_rom_spiflash_write
p4014
atp4015
a(L1744902694L
L0L
(lp4016
(lp4017
tp4018
a(L735741265L
L0L
(lp4019
(lp4020
tp4021
atp4022
sI1074235900
(Vbootloader_flash_gpio_config
p4023
(lp4024
(L3448878117L
L3785322319L
(lp4025
(lp4026
Vbootloader_common_get_chip_ver_pkg
p4027
atp4028
a(L106L
L0L
(lp4029
(lp4030
tp4031
a(L1998579353L
L0L
(lp4032
(lp4033
tp4034
a(L106L
L0L
(lp4035
(lp4036
tp4037
a(L961479410L
L0L
(lp4038
(lp4039
tp4040
a(L3118453758L
L0L
(lp4041
(lp4042
tp4043
a(L106L
L0L
(lp4044
(lp4045
tp4046
a(L4003626558L
L0L
(lp4047
(lp4048
tp4049
a(L2656511625L
L0L
(lp4050
(lp4051
tp4052
a(L3360570486L
L0L
(lp4053
(lp4054
tp4055
atp4056
sI1074236924
(Vesp_log_early_timestamp
p4057
(lp4058
(L3733265409L
L0L
(lp4059
(lp4060
tp4061
atp4062
sI1074237948
(Vbootloader_flash_erase_sector
p4063
(lp4064
(L4129137686L
L1880226080L
(lp4065
(lp4066
Vesp_rom_spiflash_erase_sector
p4067
aVspi_to_esp_err
p4068
atp4069
atp4070
sI1074268916
(Vbootloader_init_mem
p4071
(lp4072
(L1287383080L
L3785322319L
(lp4073
(lp4074
Vesp_cpu_configure_region_protection
p4075
atp4076
atp4077
sI1074269428
(Vbootloader_clear_bss_section
p4078
(lp4079
(L1126806563L
L0L
(lp4080
(lp4081
tp4082
atp4083
ssS'functionsdups'
p4084
g11
((lp4085
tp4086
Rp4087
sS'immediatedups'
p4088
g11
((lp4089
tp4090
Rp4091
sS'functiondups'
p4092
g11
((lp4093
tp4094
Rp4095
sS'fuzzy'
p4096
(dp4097
L438947497L
I1074245688
sL2170867428L
I1074270052
sL617583950L
I1074237012
sL430153639L
I1074235900
sL3121027072L
I1074270488
sL2082889262L
I1074241640
sL291131346L
I1074244728
sL3651759905L
I1074268676
sL835568324L
I1074247116
sL2919016435L
I1074235240
sL16208487L
I1074234728
sL2319042089L
I1074245820
sL3881399234L
I1074246272
sL151789201L
I1074269868
sL2680783959L
I1074235632
sL3512578114L
I1074238628
sL1419132215L
I1074238136
sL2469233929L
I1074240532
sL3897252859L
I1074238544
sL1065525808L
I1074236852
sL2327783177L
I1074240824
sL1604071461L
I1074238852
sL1164839255L
I1074241860
sL2272466760L
I1074246060
sL2117292686L
I1074241244
sL2329673444L
I1074267788
sL2044047637L
I1074239332
sL1188065553L
I1074237696
sL94556391L
I1074245848
sL3210669721L
I1074244944
sL1332800441L
I1074237244
sL1345429244L
I1074240996
sL3190020590L
I1074242580
sL2828970830L
I1074239212
sL4160102055L
I1074240008
sL1768086576L
I1074236368
sL4171975289L
I1074248132
sL1565254297L
I1074248432
sL1205407754L
I1074240040
sL2191698036L
I1074269564
sL1513350244L
I1074239696
sL1635528231L
I1074243980
sL519424169L
I1074247584
sL1060788199L
I1074245968
sL406720601L
I1074238728
sL737694352L
I1074247940
sL503029138L
I1074247880
sL1616763831L
I1074248520
sL2262558768L
I1074247744
sL424867129L
I1074248268
sL3834155367L
I1074241188
sL2405032630L
I1074267680
sL3338518926L
I1074237420
sL2123938668L
I1074246388
sL3883282432L
I1074241732
sL4173399607L
I1074243096
sL1667054119L
I1074240376
sL206902443L
I1074237968
ssb.