ccopy_reg
_reconstructor
p0
(crizzo
RizzoSignature
p1
c__builtin__
object
p2
Ntp3
Rp4
(dp5
S'formal'
p6
(dp7
L3466312602L
I1074239752
sL1741170115L
I1074237816
sL3137685769L
I1074243912
sL268856855L
I1074268864
sL2210513363L
I1074246712
sL3475801402L
I1074239720
sL1181169265L
I1074243000
sL3976128745L
I1074270464
sL4213015302L
I1074242696
sL2548947184L
I1074237836
sL3783234402L
I1074247008
sL3545118830L
I1074267736
sL1564580706L
I1074245056
sL4273451667L
I1074236880
sL2991275884L
I1074236624
sL2420455533L
I1074269368
sL2863282304L
I1074267139
sL4103874998L
I1074270304
sL2702580795L
I1074237180
sL4215361900L
I1074241444
sL2568602422L
I1074237512
sL4222010007L
I1074239232
sL612233294L
I1074238652
sL1437660804L
I1074244160
sL2896295319L
I1074236720
sL1112306294L
I1074240536
sL194538146L
I1074247260
sL1073188812L
I1074235656
sL1674148343L
I1074245096
sL3876120887L
I1074239132
sL1803061063L
I1074244816
sL2682232989L
I1074269636
sL2485902447L
I1074236560
sL2058439413L
I1074235520
sL935715980L
I1074236384
sL2694490583L
I1074240900
sL3691354453L
I1074240088
sL48951736L
I1074238004
sL1585823442L
I1074244012
sL1622896354L
I1074244040
sL2884652713L
I1074269684
sL1825928331L
I1074237564
sL2000651361L
I1074269464
sL351311763L
I1074246960
sL2021586966L
I1074245400
sL3171431521L
I1074236236
sL3934645487L
I1074236692
sL2936866151L
I1074269392
sL326396954L
I1074242712
sL619527299L
I1074247648
sL3007247178L
I1074238620
sL3092480211L
I1074244520
sL3476605883L
I1074245516
sL2968369001L
I1074242196
sL1685548274L
I1074245040
sL3307282855L
I1074237976
sL3951815938L
I1074243944
sL3939485250L
I1074269600
sL1043339424L
I1074239992
sL165672270L
I1074236584
sL7243517L
I1074244948
sL122587354L
I1074240956
sL1888032017L
I1074240068
sL2355917552L
I1074238756
sL3790692972L
I1074244200
sL4134277361L
I1074245328
sL3371457387L
I1074269436
sL4038945309L
I1074235472
sL4034710493L
I1074244580
sL1341808985L
I1074240440
sL3876253865L
I1074238704
sL3635157259L
I1074235768
sL21429742L
I1074236792
sL361204269L
I1074238496
sL1696087219L
I1074267956
sL2140198974L
I1074246200
sL771111768L
I1074269868
sL2997001746L
I1074237112
sL4010584764L
I1074246680
sL152949160L
I1074268624
sL1602802495L
I1074236824
sL36521114L
I1074241572
sL4033219551L
I1074269352
sL2819127986L
I1074236844
sL209135561L
I1074240244
sL3417544973L
I1074246872
sL1346776454L
I1074244976
sL1877634603L
I1074270544
sL3016363266L
I1074244228
sL1212444302L
I1074240708
sL1225633219L
I1074245372
sL1920715700L
I1074244792
sL675086575L
I1074237288
sL1938522969L
I1074247560
sL298949637L
I1074238412
sL1714903023L
I1074241352
sL2263182908L
I1074237996
sL3249738345L
I1074236416
sL3586920208L
I1074236480
sL1267159130L
I1074235128
sL4251326136L
I1074245188
sL2768539098L
I1074247068
sL2925091974L
I1074243596
sL3630163135L
I1074236708
sL188664287L
I1074235096
sL3670064932L
I1074268568
sL149874699L
I1074238084
sL692536993L
I1074237152
sL1166396770L
I1074246244
sL1105782272L
I1074247396
sL1963047656L
I1074234616
sL3180973683L
I1074240456
sL35658698L
I1074244364
sL995413944L
I1074240480
sL217496090L
I1074244768
sL4183040676L
I1074239444
sL1636616062L
I1074235420
sL2518607080L
I1074237256
sL586403589L
I1074244112
sL925615580L
I1074244640
sL3018942732L
I1074267628
ssS'immediates'
p8
(dp9
sS'formaldups'
p10
c__builtin__
set
p11
((lp12
tp13
Rp14
sS'stringdups'
p15
g11
((lp16
tp17
Rp18
sS'fuzzydups'
p19
g11
((lp20
tp21
Rp22
sS'strings'
p23
(dp24
sS'functions'
p25
(dp26
I1074236416
(Vesp_rom_uart_tx_wait_idle
p27
(lp28
(L851904350L
L0L
(lp29
(lp30
tp31
a(L1301079727L
L0L
(lp32
(lp33
tp34
a(L3597746521L
L0L
(lp35
(lp36
tp37
a(L3694491048L
L0L
(lp38
(lp39
tp40
a(L3055926844L
L0L
(lp41
(lp42
tp43
a(L3360570486L
L0L
(lp44
(lp45
tp46
atp47
sI1074239232
(Vbootloader_utility_load_partition_table
p48
(lp49
(L3128219304L
L3785322319L
(lp50
(lp51
Vbootloader_mmap
p52
atp53
a(L1515102307L
L3785322319L
(lp54
(lp55
Vesp_log_early_timestamp
p56
atp57
a(L2258688482L
L0L
(lp58
(lp59
tp60
a(L3360570486L
L0L
(lp61
(lp62
tp63
a(L255479872L
L3785322319L
(lp64
(lp65
Vesp_partition_table_verify
p66
atp67
a(L1224062835L
L0L
(lp68
(lp69
tp70
a(L3761768803L
L0L
(lp71
(lp72
tp73
a(L2311047843L
L3785322319L
(lp74
(lp75
Vbootloader_munmap
p76
atp77
a(L722649001L
L3785322319L
(lp78
(lp79
Vesp_log_early_timestamp
p80
atp81
a(L3927622121L
L0L
(lp82
(lp83
tp84
a(L3020187L
L0L
(lp85
(lp86
tp87
a(L1532853611L
L0L
(lp88
(lp89
tp90
a(L1036489382L
L0L
(lp91
(lp92
tp93
a(L3020187L
L0L
(lp94
(lp95
tp96
a(L475586725L
L0L
(lp97
(lp98
tp99
a(L529263765L
L0L
(lp100
(lp101
tp102
a(L775434204L
L0L
(lp103
(lp104
tp105
a(L3579705151L
L0L
(lp106
(lp107
tp108
a(L2387139071L
L0L
(lp109
(lp110
tp111
a(L1599920163L
L0L
(lp112
(lp113
tp114
atp115
sI1074267136
(V_init
p116
(lp117
(L3493042598L
L0L
(lp118
(lp119
tp120
atp121
sI1074270464
(Vrtc_vddsdio_set_config
p122
(lp123
(L2189075524L
L0L
(lp124
(lp125
tp126
atp127
sI1074244364
(Vrtc_clk_cpu_freq_to_pll_mhz
p128
(lp129
(L1393544349L
L0L
(lp130
(lp131
tp132
a(L2948700517L
L0L
(lp133
(lp134
tp135
a(L2947452442L
L0L
(lp136
(lp137
tp138
a(L3298441904L
L0L
(lp139
(lp140
tp141
a(L3680579786L
L0L
(lp142
(lp143
tp144
a(L1298905564L
L0L
(lp145
(lp146
tp147
a(L1841883306L
L3785322319L
(lp148
(lp149
Vrtc_clk_wait_for_slow_cycle
p150
atp151
a(L1611366957L
L0L
(lp152
(lp153
tp154
a(L1611366988L
L0L
(lp155
(lp156
tp157
a(L94425498L
L3785322319L
(lp158
(lp159
Vabort
p160
atp161
atp162
sI1074243596
(Vwdt_hal_config_stage
p163
(lp164
(L331558507L
L0L
(lp165
(lp166
tp167
a(L4279082939L
L0L
(lp168
(lp169
tp170
a(L93674324L
L0L
(lp171
(lp172
tp173
a(L2902417580L
L0L
(lp174
(lp175
tp176
a(L1396645752L
L0L
(lp177
(lp178
tp179
a(L3020187L
L0L
(lp180
(lp181
tp182
a(L94425498L
L3785322319L
(lp183
(lp184
Vabort
p185
atp186
a(L2161461704L
L0L
(lp187
(lp188
tp189
a(L3360570486L
L0L
(lp190
(lp191
tp192
a(L1457248181L
L0L
(lp193
(lp194
tp195
a(L1968552594L
L0L
(lp196
(lp197
tp198
a(L4278159418L
L0L
(lp199
(lp200
tp201
a(L93674324L
L0L
(lp202
(lp203
tp204
a(L3020204L
L0L
(lp205
(lp206
tp207
a(L1936393611L
L0L
(lp208
(lp209
tp210
a(L3020187L
L0L
(lp211
(lp212
tp213
a(L106L
L0L
(lp214
(lp215
tp216
a(L584867514L
L0L
(lp217
(lp218
tp219
a(L291899814L
L0L
(lp220
(lp221
tp222
a(L3686040579L
L0L
(lp223
(lp224
tp225
atp226
sI1074267139
(V_text_start
p227
(lp228
(L1817914933L
L0L
(lp229
(lp230
tp231
a(L93892250L
L0L
(lp232
(lp233
tp234
atp235
sI1074239752
(Vbootloader_utility_load_boot_image
p236
(lp237
(L3385398614L
L0L
(lp238
(lp239
tp240
a(L2177418995L
L3785322319L
(lp241
(lp242
Vtry_load_partition
p243
atp244
a(L1305243774L
L3785322319L
(lp245
(lp246
Vload_image
p247
atp248
a(L1044617899L
L3785322319L
(lp249
(lp250
Vesp_log_early_timestamp
p251
atp252
a(L3827921190L
L3785322319L
(lp253
(lp254
Vbootloader_reset
p255
atp256
a(L1953693036L
L3785322319L
(lp257
(lp258
Vindex_to_partition
p259
atp260
a(L1204373741L
L3785322319L
(lp261
(lp262
Vtry_load_partition
p263
atp264
a(L1899865696L
L0L
(lp265
(lp266
tp267
a(L2695355117L
L3785322319L
(lp268
(lp269
Vset_actual_ota_seq
p270
atp271
a(L1868897605L
L3785322319L
(lp272
(lp273
Vlog_invalid_app_partition
p274
atp275
a(L831650730L
L0L
(lp276
(lp277
tp278
a(L3021737L
L0L
(lp279
(lp280
tp281
a(L695456438L
L0L
(lp282
(lp283
tp284
a(L1148002536L
L3785322319L
(lp285
(lp286
Vtry_load_partition
p287
atp288
a(L4209416875L
L3785322319L
(lp289
(lp290
Vesp_log_early_timestamp
p291
atp292
a(L2347390157L
L3785322319L
(lp293
(lp294
Vindex_to_partition
p295
atp296
a(L1204373741L
L3785322319L
(lp297
(lp298
Vtry_load_partition
p299
atp300
a(L3061261803L
L0L
(lp301
(lp302
tp303
a(L3582858798L
L3785322319L
(lp304
(lp305
Vlog_invalid_app_partition
p306
atp307
a(L2304493599L
L3785322319L
(lp308
(lp309
Vesp_log_early_timestamp
p310
atp311
atp312
sI1074235656
(Vbootloader_flash_cs_timing_config
p313
(lp314
(L3246590744L
L0L
(lp315
(lp316
tp317
atp318
sI1074269464
(Vbootloader_config_wdt
p319
(lp320
(L4027912329L
L505859776L
(lp321
(lp322
Vwdt_hal_write_protect_disable
p323
aVwdt_hal_set_flashboot_en
p324
aVwdt_hal_write_protect_enable
p325
aVwdt_hal_init
p326
aVrtc_clk_slow_freq_get_hz
p327
aVwdt_hal_write_protect_disable
p328
aVwdt_hal_config_stage
p329
aVwdt_hal_enable
p330
aVwdt_hal_write_protect_enable
p331
aVwdt_hal_write_protect_disable
p332
aVwdt_hal_set_flashboot_en
p333
aVwdt_hal_write_protect_enable
p334
atp335
atp336
sI1074236692
(Vefuse_hal_get_minor_chip_version
p337
(lp338
(L3957579839L
L0L
(lp339
(lp340
tp341
atp342
sI1074240528
(Vbootloader_ana_clock_glitch_reset_config
p343
(lp344
(L2100504542L
L0L
(lp345
(lp346
tp347
atp348
sI1074244112
(Vmmu_hal_init
p349
(lp350
(L2805587975L
L0L
(lp351
(lp352
tp353
a(L2010554219L
L0L
(lp354
(lp355
tp356
a(L3268103L
L0L
(lp357
(lp358
tp359
a(L3212334523L
L0L
(lp360
(lp361
tp362
a(L2010554219L
L0L
(lp363
(lp364
tp365
a(L3360570486L
L0L
(lp366
(lp367
tp368
atp369
sI1074235420
(Vbootloader_flash_read_sfdp
p370
(lp371
(L711701400L
L0L
(lp372
(lp373
tp374
a(L3178612724L
L3785322319L
(lp375
(lp376
V__assert_func
p377
atp378
a(L3704332455L
L3785322319L
(lp379
(lp380
Vbootloader_flash_execute_command_common
p381
atp382
atp383
sI1074240536
(Vprocess_checksum
p384
(lp385
(L3552259966L
L0L
(lp386
(lp387
tp388
a(L2910371777L
L0L
(lp389
(lp390
tp391
a(L186886970L
L0L
(lp392
(lp393
tp394
a(L2910371777L
L0L
(lp395
(lp396
tp397
a(L3020204L
L0L
(lp398
(lp399
tp400
a(L2480703612L
L3785322319L
(lp401
(lp402
Vbootloader_sha256_data
p403
atp404
a(L4179073442L
L0L
(lp405
(lp406
tp407
a(L1811888222L
L3785322319L
(lp408
(lp409
Vbootloader_flash_read
p410
atp411
a(L3126521138L
L0L
(lp412
(lp413
tp414
a(L2878945149L
L0L
(lp415
(lp416
tp417
a(L1600144040L
L3785322319L
(lp418
(lp419
Vesp_log_early_timestamp
p420
atp421
atp422
sI1074237976
(Vbootloader_enable_wp
p423
(lp424
(L1117825804L
L3785322319L
(lp425
(lp426
Vbootloader_execute_flash_command
p427
atp428
atp429
sI1074245400
(Vrtc_clk_cpu_freq_to_xtal
p430
(lp431
(L3046116771L
L0L
(lp432
(lp433
tp434
a(L94425498L
L3785322319L
(lp435
(lp436
Vabort
p437
atp438
a(L623998474L
L3785322319L
(lp439
(lp440
Vrtc_clk_apb_freq_update
p441
atp442
a(L2258867232L
L0L
(lp443
(lp444
tp445
a(L1438407065L
L0L
(lp446
(lp447
tp448
atp449
sI1074246680
(Vrtc_clk_cal_ratio
p450
(lp451
(L3533138594L
L3785322319L
(lp452
(lp453
Vrtc_clk_cal_internal
p454
atp455
atp456
sI1074238756
(Vload_image
p457
(lp458
(L4278320029L
L1880226080L
(lp459
(lp460
Vbootloader_random_disable
p461
aVbootloader_ana_clock_glitch_reset_config
p462
atp463
a(L3893505478L
L0L
(lp464
(lp465
tp466
a(L106L
L0L
(lp467
(lp468
tp469
a(L134254403L
L3758435744L
(lp470
(lp471
Vmmu_hal_init
p472
aVcache_ll_l1_get_bus
p473
aVcache_ll_l1_enable_bus
p474
aVcache_ll_l1_get_bus
p475
aVcache_ll_l1_enable_bus
p476
aVcache_ll_l1_get_bus
p477
aVcache_ll_l1_enable_bus
p478
aVcache_ll_l1_get_bus
p479
aVcache_ll_l1_enable_bus
p480
aVbootloader_console_deinit
p481
atp482
a(L2366773478L
L0L
(lp483
(lp484
tp485
a(L2902417580L
L0L
(lp486
(lp487
tp488
a(L3875934016L
L3785322319L
(lp489
(lp490
Vesp_log_early_timestamp
p491
atp492
a(L3455620645L
L0L
(lp493
(lp494
tp495
a(L3193235534L
L0L
(lp496
(lp497
tp498
a(L3020204L
L0L
(lp499
(lp500
tp501
a(L1435312257L
L3785322319L
(lp502
(lp503
Vesp_log_early_timestamp
p504
atp505
a(L3093629574L
L0L
(lp506
(lp507
tp508
a(L4254185231L
L0L
(lp509
(lp510
tp511
atp512
sI1074236708
(Vesp_dport_access_reg_read
p513
(lp514
(L1099794772L
L0L
(lp515
(lp516
tp517
atp518
sI1074241572
(Vprocess_segments
p519
(lp520
(L933567253L
L0L
(lp521
(lp522
tp523
a(L3285816417L
L0L
(lp524
(lp525
tp526
a(L2393526353L
L0L
(lp527
(lp528
tp529
a(L106L
L0L
(lp530
(lp531
tp532
a(L1184913234L
L0L
(lp533
(lp534
tp535
a(L2736779935L
L3785322319L
(lp536
(lp537
Vesp_log_early_timestamp
p538
atp539
a(L3491764960L
L3785322319L
(lp540
(lp541
Vbootloader_flash_read
p542
atp543
a(L1653769193L
L3785322319L
(lp544
(lp545
Vesp_log_early_timestamp
p546
atp547
a(L3871473710L
L0L
(lp548
(lp549
tp550
a(L1300630146L
L0L
(lp551
(lp552
tp553
a(L738857969L
L3785322319L
(lp554
(lp555
Vbootloader_sha256_data
p556
atp557
a(L3124001501L
L0L
(lp558
(lp559
tp560
a(L970949301L
L0L
(lp561
(lp562
tp563
a(L1810082356L
L0L
(lp564
(lp565
tp566
a(L4129104017L
L0L
(lp567
(lp568
tp569
a(L106L
L0L
(lp570
(lp571
tp572
a(L141486068L
L0L
(lp573
(lp574
tp575
a(L2587042390L
L0L
(lp576
(lp577
tp578
a(L3300823766L
L3785322319L
(lp579
(lp580
Vesp_log_early_timestamp
p581
atp582
a(L1114137787L
L0L
(lp583
(lp584
tp585
a(L568212210L
L0L
(lp586
(lp587
tp588
a(L2367927115L
L3785322319L
(lp589
(lp590
Vesp_log_early_timestamp
p591
atp592
a(L2347770645L
L3785322319L
(lp593
(lp594
Vverify_load_addresses
p595
atp596
a(L106L
L0L
(lp597
(lp598
tp599
a(L299546812L
L0L
(lp600
(lp601
tp602
a(L262831199L
L0L
(lp603
(lp604
tp605
a(L3735077394L
L3785322319L
(lp606
(lp607
Vbootloader_mmap
p608
atp609
a(L1810465914L
L3785322319L
(lp610
(lp611
Vesp_log_early_timestamp
p612
atp613
a(L1911351716L
L0L
(lp614
(lp615
tp616
a(L4205828899L
L0L
(lp617
(lp618
tp619
a(L1652679798L
L3785322319L
(lp620
(lp621
Vbootloader_munmap
p622
atp623
a(L3425676091L
L0L
(lp624
(lp625
tp626
a(L1782223905L
L3785322319L
(lp627
(lp628
Vbootloader_fill_random
p629
atp630
a(L3570641403L
L0L
(lp631
(lp632
tp633
a(L3574335487L
L0L
(lp634
(lp635
tp636
a(L3450268858L
L0L
(lp637
(lp638
tp639
a(L3021749L
L0L
(lp640
(lp641
tp642
a(L4179164843L
L0L
(lp643
(lp644
tp645
a(L1084626871L
L0L
(lp646
(lp647
tp648
a(L2902417580L
L0L
(lp649
(lp650
tp651
a(L167783179L
L0L
(lp652
(lp653
tp654
a(L1797921642L
L0L
(lp655
(lp656
tp657
a(L3437071223L
L0L
(lp658
(lp659
tp660
a(L3396129621L
L0L
(lp661
(lp662
tp663
a(L670934548L
L0L
(lp664
(lp665
tp666
a(L363643669L
L3785322319L
(lp667
(lp668
Vbootloader_sha256_data
p669
atp670
a(L90548756L
L0L
(lp671
(lp672
tp673
a(L4195963580L
L0L
(lp674
(lp675
tp676
a(L2394204398L
L0L
(lp677
(lp678
tp679
a(L617933722L
L0L
(lp680
(lp681
tp682
a(L308896050L
L3785322319L
(lp683
(lp684
Vshould_load
p685
atp686
a(L630320211L
L0L
(lp687
(lp688
tp689
a(L3028481L
L0L
(lp690
(lp691
tp692
a(L2176699418L
L3785322319L
(lp693
(lp694
Vbootloader_mmap_get_free_pages
p695
atp696
a(L847230985L
L0L
(lp697
(lp698
tp699
a(L3103552037L
L0L
(lp700
(lp701
tp702
atp703
sI1074244640
(Vrtc_clk_8m_enable
p704
(lp705
(L1116980035L
L0L
(lp706
(lp707
tp708
a(L611813754L
L0L
(lp709
(lp710
tp711
a(L2151320156L
L0L
(lp712
(lp713
tp714
a(L2771285420L
L0L
(lp715
(lp716
tp717
a(L3360570486L
L0L
(lp718
(lp719
tp720
a(L1318267208L
L0L
(lp721
(lp722
tp723
a(L2584494103L
L0L
(lp724
(lp725
tp726
atp727
sI1074238496
(Vcache_ll_l1_get_bus
p728
(lp729
(L2721956783L
L0L
(lp730
(lp731
tp732
a(L94425498L
L3785322319L
(lp733
(lp734
Vabort
p735
atp736
a(L3175393928L
L0L
(lp737
(lp738
tp739
a(L1799159593L
L0L
(lp740
(lp741
tp742
a(L892952750L
L0L
(lp743
(lp744
tp745
a(L1182811810L
L0L
(lp746
(lp747
tp748
a(L1101742417L
L0L
(lp749
(lp750
tp751
a(L1100767927L
L0L
(lp752
(lp753
tp754
a(L3360570486L
L0L
(lp755
(lp756
tp757
a(L2727400564L
L0L
(lp758
(lp759
tp760
a(L892952750L
L0L
(lp761
(lp762
tp763
a(L2258688482L
L0L
(lp764
(lp765
tp766
a(L1802308380L
L0L
(lp767
(lp768
tp769
a(L2258718273L
L0L
(lp770
(lp771
tp772
a(L2938197270L
L0L
(lp773
(lp774
tp775
a(L2767111967L
L0L
(lp776
(lp777
tp778
a(L2748646817L
L0L
(lp779
(lp780
tp781
a(L1641149277L
L0L
(lp782
(lp783
tp784
a(L3207711893L
L0L
(lp785
(lp786
tp787
a(L3027019L
L0L
(lp788
(lp789
tp790
a(L1299866560L
L0L
(lp791
(lp792
tp793
a(L1299866436L
L0L
(lp794
(lp795
tp796
atp797
sI1074237996
(Vbootloader_mmap_get_free_pages
p798
(lp799
(L1496516875L
L0L
(lp800
(lp801
tp802
atp803
sI1074238004
(Vbootloader_fill_random
p804
(lp805
(L387180576L
L0L
(lp806
(lp807
tp808
a(L2924486945L
L3785322319L
(lp809
(lp810
V__assert_func
p811
atp812
a(L1882547218L
L0L
(lp813
(lp814
tp815
a(L2910371777L
L0L
(lp816
(lp817
tp818
a(L95634693L
L0L
(lp819
(lp820
tp821
a(L3630908706L
L0L
(lp822
(lp823
tp824
a(L160162640L
L0L
(lp825
(lp826
tp827
a(L97689L
L0L
(lp828
(lp829
tp830
a(L3360570486L
L0L
(lp831
(lp832
tp833
atp834
sI1074236720
(Vis_xmc_chip_strict
p835
(lp836
(L1286841609L
L0L
(lp837
(lp838
tp839
a(L2234016759L
L0L
(lp840
(lp841
tp842
a(L1069027148L
L0L
(lp843
(lp844
tp845
a(L3021749L
L0L
(lp846
(lp847
tp848
a(L1900148749L
L0L
(lp849
(lp850
tp851
a(L1936875721L
L0L
(lp852
(lp853
tp854
a(L3356166509L
L0L
(lp855
(lp856
tp857
a(L1937769451L
L0L
(lp858
(lp859
tp860
a(L2137658907L
L0L
(lp861
(lp862
tp863
a(L4265949734L
L0L
(lp864
(lp865
tp866
a(L3360570486L
L0L
(lp867
(lp868
tp869
atp870
sI1074246960
(Vesp_rom_spiflash_wait_idle
p871
(lp872
(L3233075887L
L0L
(lp873
(lp874
tp875
a(L2023766174L
L0L
(lp876
(lp877
tp878
a(L2805933868L
L0L
(lp879
(lp880
tp881
a(L3086959262L
L0L
(lp882
(lp883
tp884
a(L4161019926L
L3785322319L
(lp885
(lp886
Vesp_rom_spiflash_read_status
p887
atp888
atp889
sI1074240060
(Vbootloader_debug_buffer
p890
(lp891
(L2100504542L
L0L
(lp892
(lp893
tp894
atp895
sI1074267956
(Vbootloader_init
p896
(lp897
(L1256100286L
L3785322319L
(lp898
(lp899
Vbootloader_init_mem
p900
atp901
a(L2496550926L
L0L
(lp902
(lp903
tp904
a(L2027378118L
L3785322319L
(lp905
(lp906
V__assert_func
p907
atp908
a(L408886226L
L0L
(lp909
(lp910
tp911
a(L3771730718L
L0L
(lp912
(lp913
tp914
a(L3813782018L
L0L
(lp915
(lp916
tp917
a(L1676258143L
L0L
(lp918
(lp919
tp920
a(L3027019L
L0L
(lp921
(lp922
tp923
a(L2165555555L
L0L
(lp924
(lp925
tp926
a(L1797062121L
L1832448559L
(lp927
(lp928
Vbootloader_clear_bss_section
p929
aVbootloader_common_vddsdio_configure
p930
aVbootloader_clock_get_rated_freq_mhz
p931
atp932
a(L3987130017L
L1157885199L
(lp933
(lp934
Vbootloader_clock_configure
p935
aVbootloader_console_init
p936
aVbootloader_print_banner
p937
aVbootloader_flash_update_id
p938
aVbootloader_flash_xmc_startup
p939
atp940
a(L1371217416L
L3785322319L
(lp941
(lp942
Vesp_log_early_timestamp
p943
atp944
a(L2835491336L
L3785322319L
(lp945
(lp946
Vesp_log_early_timestamp
p947
atp948
a(L3360570486L
L0L
(lp949
(lp950
tp951
a(L1375577398L
L3785322319L
(lp952
(lp953
Vbootloader_read_bootloader_header
p954
atp955
a(L2444883382L
L3785322319L
(lp956
(lp957
Vbootloader_check_bootloader_validity
p958
atp959
a(L1153606775L
L2485746240L
(lp960
(lp961
Vbootloader_flash_gpio_config
p962
aVbootloader_flash_dummy_config
p963
aVbootloader_flash_cs_timing_config
p964
aVbootloader_flash_unlock
p965
atp966
a(L93837694L
L0L
(lp967
(lp968
tp969
a(L106L
L0L
(lp970
(lp971
tp972
a(L3226039662L
L0L
(lp973
(lp974
tp975
a(L1265057524L
L0L
(lp976
(lp977
tp978
a(L2806354006L
L0L
(lp979
(lp980
tp981
a(L1944969037L
L3785322319L
(lp982
(lp983
Vbootloader_enable_wp
p984
atp985
a(L378895346L
L0L
(lp986
(lp987
tp988
a(L1895147922L
L0L
(lp989
(lp990
tp991
a(L3457636795L
L3785322319L
(lp992
(lp993
Vesp_log_early_timestamp
p994
atp995
a(L1837681143L
L0L
(lp996
(lp997
tp998
a(L1873516030L
L0L
(lp999
(lp1000
tp1001
a(L1895147922L
L0L
(lp1002
(lp1003
tp1004
a(L14182512L
L3785322319L
(lp1005
(lp1006
Vesp_log_early_timestamp
p1007
atp1008
a(L4263191691L
L1880226080L
(lp1009
(lp1010
Vwdt_reset_info_dump
p1011
aVwdt_reset_info_dump
p1012
atp1013
a(L385083117L
L0L
(lp1014
(lp1015
tp1016
a(L3028481L
L0L
(lp1017
(lp1018
tp1019
a(L2920982674L
L1880226080L
(lp1020
(lp1021
Vbootloader_config_wdt
p1022
aVbootloader_enable_random
p1023
atp1024
atp1025
sI1074246200
(Vrtc_clk_apb_freq_get
p1026
(lp1027
(L555214938L
L0L
(lp1028
(lp1029
tp1030
atp1031
sI1074246712
(Vrtc_clk_wait_for_slow_cycle
p1032
(lp1033
(L204572490L
L0L
(lp1034
(lp1035
tp1036
a(L287687718L
L0L
(lp1037
(lp1038
tp1039
a(L3360570486L
L0L
(lp1040
(lp1041
tp1042
a(L2148819204L
L0L
(lp1043
(lp1044
tp1045
a(L2994547433L
L0L
(lp1046
(lp1047
tp1048
a(L1031101807L
L0L
(lp1049
(lp1050
tp1051
a(L2211191455L
L3785322319L
(lp1052
(lp1053
Vesp_log_early_timestamp
p1054
atp1055
atp1056
sI1074270536
(Vbootloader_print_banner
p1057
(lp1058
(L2100504542L
L0L
(lp1059
(lp1060
tp1061
atp1062
sI1074240068
(Vbootloader_sha256_start
p1063
(lp1064
(L1535180675L
L0L
(lp1065
(lp1066
tp1067
atp1068
sI1074245188
(Vrtc_clk_cpu_freq_get_config
p1069
(lp1070
(L1549246068L
L0L
(lp1071
(lp1072
tp1073
a(L3020187L
L0L
(lp1074
(lp1075
tp1076
a(L3020187L
L0L
(lp1077
(lp1078
tp1079
a(L894730048L
L3785322319L
(lp1080
(lp1081
Vrtc_clk_xtal_freq_get
p1082
atp1083
a(L3789795478L
L0L
(lp1084
(lp1085
tp1086
a(L583711929L
L1880226080L
(lp1087
(lp1088
Vesp_log_early_timestamp
p1089
aVabort
p1090
atp1091
a(L3930995869L
L0L
(lp1092
(lp1093
tp1094
a(L3020187L
L0L
(lp1095
(lp1096
tp1097
a(L3028481L
L0L
(lp1098
(lp1099
tp1100
a(L38508693L
L0L
(lp1101
(lp1102
tp1103
a(L187152368L
L0L
(lp1104
(lp1105
tp1106
a(L1161083655L
L0L
(lp1107
(lp1108
tp1109
a(L1395485899L
L0L
(lp1110
(lp1111
tp1112
a(L2070600034L
L0L
(lp1113
(lp1114
tp1115
atp1116
sI1074244160
(Vefuse_hal_get_rated_freq_mhz
p1117
(lp1118
(L1103821704L
L0L
(lp1119
(lp1120
tp1121
a(L3671388797L
L0L
(lp1122
(lp1123
tp1124
a(L3360570486L
L0L
(lp1125
(lp1126
tp1127
atp1128
sI1074236480
(Vesp_rom_uart_set_clock_baudrate
p1129
(lp1130
(L4126646115L
L0L
(lp1131
(lp1132
tp1133
a(L2295271583L
L0L
(lp1134
(lp1135
tp1136
a(L2805931260L
L0L
(lp1137
(lp1138
tp1139
a(L3255937187L
L0L
(lp1140
(lp1141
tp1142
atp1143
sI1074236236
(Vbootloader_flash_dummy_config
p1144
(lp1145
(L2887391831L
L0L
(lp1146
(lp1147
tp1148
a(L2761717557L
L0L
(lp1149
(lp1150
tp1151
a(L1849044936L
L0L
(lp1152
(lp1153
tp1154
a(L1591520612L
L0L
(lp1155
(lp1156
tp1157
a(L326359429L
L0L
(lp1158
(lp1159
tp1160
a(L3020204L
L0L
(lp1161
(lp1162
tp1163
a(L1610443405L
L0L
(lp1164
(lp1165
tp1166
a(L4032120524L
L0L
(lp1167
(lp1168
tp1169
a(L2336993863L
L0L
(lp1170
(lp1171
tp1172
a(L1298875775L
L0L
(lp1173
(lp1174
tp1175
a(L3880393601L
L0L
(lp1176
(lp1177
tp1178
a(L197269329L
L0L
(lp1179
(lp1180
tp1181
a(L1610443436L
L0L
(lp1182
(lp1183
tp1184
atp1185
sI1074243912
(Vwdt_hal_write_protect_disable
p1186
(lp1187
(L2720025117L
L0L
(lp1188
(lp1189
tp1190
a(L4195472003L
L0L
(lp1191
(lp1192
tp1193
a(L3360570486L
L0L
(lp1194
(lp1195
tp1196
a(L1210571996L
L0L
(lp1197
(lp1198
tp1199
atp1200
sI1074241352
(Vprocess_appended_hash_and_sig
p1201
(lp1202
(L1668084157L
L0L
(lp1203
(lp1204
tp1205
a(L2910371777L
L0L
(lp1206
(lp1207
tp1208
a(L1591589631L
L0L
(lp1209
(lp1210
tp1211
a(L2551256078L
L0L
(lp1212
(lp1213
tp1214
a(L3884046905L
L0L
(lp1215
(lp1216
tp1217
a(L4226069968L
L3785322319L
(lp1218
(lp1219
Vesp_log_early_timestamp
p1220
atp1221
a(L2268304300L
L3785322319L
(lp1222
(lp1223
Vbootloader_flash_read
p1224
atp1225
a(L3871473710L
L0L
(lp1226
(lp1227
tp1228
atp1229
sI1074237256
(Vspi_to_esp_err
p1230
(lp1231
(L3481169892L
L0L
(lp1232
(lp1233
tp1234
a(L2420870439L
L0L
(lp1235
(lp1236
tp1237
a(L3952441574L
L0L
(lp1238
(lp1239
tp1240
a(L3126521138L
L0L
(lp1241
(lp1242
tp1243
atp1244
sI1074237512
(Vbootloader_munmap
p1245
(lp1246
(L1390725234L
L0L
(lp1247
(lp1248
tp1249
a(L1679328888L
L0L
(lp1250
(lp1251
tp1252
a(L3360570486L
L0L
(lp1253
(lp1254
tp1255
atp1256
sI1074244936
(Vrtc_clk_slow_src_get
p1257
(lp1258
(L376617603L
L3785322319L
(lp1259
(lp1260
Vclk_ll_rtc_slow_get_src
p1261
atp1262
atp1263
sI1074267736
(Vwdt_reset_info_dump
p1264
(lp1265
(L4037466985L
L0L
(lp1266
(lp1267
tp1268
a(L826419141L
L0L
(lp1269
(lp1270
tp1271
a(L527117834L
L0L
(lp1272
(lp1273
tp1274
a(L1103285333L
L0L
(lp1275
(lp1276
tp1277
a(L897464656L
L3785322319L
(lp1278
(lp1279
Vesp_log_early_timestamp
p1280
atp1281
a(L2967992533L
L0L
(lp1282
(lp1283
tp1284
a(L144195250L
L3785322319L
(lp1285
(lp1286
Vesp_log_early_timestamp
p1287
atp1288
a(L2899013701L
L0L
(lp1289
(lp1290
tp1291
atp1292
sI1074244948
(Vrtc_clk_slow_freq_get_hz
p1293
(lp1294
(L1826267122L
L3785322319L
(lp1295
(lp1296
Vclk_ll_rtc_slow_get_src
p1297
atp1298
a(L3983387562L
L0L
(lp1299
(lp1300
tp1301
a(L3631005815L
L0L
(lp1302
(lp1303
tp1304
a(L702739851L
L0L
(lp1305
(lp1306
tp1307
a(L3360570486L
L0L
(lp1308
(lp1309
tp1310
atp1311
sI1074235472
(Vbootloader_read_flash_id
p1312
(lp1313
(L549578328L
L3785322319L
(lp1314
(lp1315
Vbootloader_execute_flash_command
p1316
atp1317
atp1318
sI1074270544
(Vmpu_hal_set_region_access
p1319
(lp1320
(L3538356822L
L0L
(lp1321
(lp1322
tp1323
a(L93674324L
L0L
(lp1324
(lp1325
tp1326
a(L2910371777L
L0L
(lp1327
(lp1328
tp1329
a(L3472092938L
L0L
(lp1330
(lp1331
tp1332
a(L3020187L
L0L
(lp1333
(lp1334
tp1335
a(L3360570486L
L0L
(lp1336
(lp1337
tp1338
a(L2258718273L
L0L
(lp1339
(lp1340
tp1341
a(L3446648619L
L0L
(lp1342
(lp1343
tp1344
a(L3739532189L
L0L
(lp1345
(lp1346
tp1347
a(L1300789895L
L0L
(lp1348
(lp1349
tp1350
atp1351
sI1074247260
(Vesp_rom_spiflash_erase_sector
p1352
(lp1353
(L795500533L
L0L
(lp1354
(lp1355
tp1356
a(L2258688483L
L0L
(lp1357
(lp1358
tp1359
a(L3360570486L
L0L
(lp1360
(lp1361
tp1362
a(L3212356251L
L3785322319L
(lp1363
(lp1364
Vesp_rom_spiflash_enable_write
p1365
atp1366
a(L184152988L
L0L
(lp1367
(lp1368
tp1369
a(L709636804L
L3785322319L
(lp1370
(lp1371
Vesp_rom_spiflash_wait_idle
p1372
atp1373
a(L3333707777L
L0L
(lp1374
(lp1375
tp1376
a(L3582858798L
L3785322319L
(lp1377
(lp1378
Vesp_rom_spiflash_wait_idle
p1379
atp1380
atp1381
sI1074240088
(Vbootloader_sha256_data
p1382
(lp1383
(L4066096136L
L0L
(lp1384
(lp1385
tp1386
a(L3197877865L
L0L
(lp1387
(lp1388
tp1389
a(L3627025138L
L3785322319L
(lp1390
(lp1391
V__assert_func
p1392
atp1393
a(L498498478L
L0L
(lp1394
(lp1395
tp1396
a(L2968424575L
L0L
(lp1397
(lp1398
tp1399
a(L2910371777L
L0L
(lp1400
(lp1401
tp1402
a(L3360570486L
L0L
(lp1403
(lp1404
tp1405
a(L1911737285L
L0L
(lp1406
(lp1407
tp1408
a(L541898147L
L0L
(lp1409
(lp1410
tp1411
a(L953830545L
L0L
(lp1412
(lp1413
tp1414
a(L1259070655L
L0L
(lp1415
(lp1416
tp1417
a(L2241452291L
L0L
(lp1418
(lp1419
tp1420
a(L2032890799L
L0L
(lp1421
(lp1422
tp1423
a(L3028464L
L0L
(lp1424
(lp1425
tp1426
a(L1834917352L
L0L
(lp1427
(lp1428
tp1429
a(L1076698600L
L0L
(lp1430
(lp1431
tp1432
atp1433
sI1074246244
(Vrtc_clk_cal_internal
p1434
(lp1435
(L1876302533L
L0L
(lp1436
(lp1437
tp1438
a(L2062952635L
L3785322319L
(lp1439
(lp1440
V__assert_func
p1441
atp1442
a(L384777032L
L0L
(lp1443
(lp1444
tp1445
a(L54826884L
L0L
(lp1446
(lp1447
tp1448
a(L234746575L
L0L
(lp1449
(lp1450
tp1451
a(L861896856L
L3785322319L
(lp1452
(lp1453
Vrtc_clk_8m_enable
p1454
atp1455
a(L3886714587L
L3785322319L
(lp1456
(lp1457
Vrtc_clk_slow_src_get
p1458
atp1459
a(L1211065969L
L0L
(lp1460
(lp1461
tp1462
a(L97689L
L0L
(lp1463
(lp1464
tp1465
a(L1528385805L
L0L
(lp1466
(lp1467
tp1468
a(L3028464L
L0L
(lp1469
(lp1470
tp1471
a(L3028481L
L0L
(lp1472
(lp1473
tp1474
a(L3450258542L
L0L
(lp1475
(lp1476
tp1477
a(L671292429L
L3785322319L
(lp1478
(lp1479
Vrtc_clk_xtal_freq_get
p1480
atp1481
a(L2780079961L
L0L
(lp1482
(lp1483
tp1484
a(L826501131L
L0L
(lp1485
(lp1486
tp1487
a(L2940485037L
L3785322319L
(lp1488
(lp1489
Vesp_log_early_timestamp
p1490
atp1491
a(L3360570486L
L0L
(lp1492
(lp1493
tp1494
a(L106916348L
L0L
(lp1495
(lp1496
tp1497
a(L3617715671L
L0L
(lp1498
(lp1499
tp1500
a(L2910371777L
L0L
(lp1501
(lp1502
tp1503
a(L2902417580L
L0L
(lp1504
(lp1505
tp1506
a(L3023821615L
L0L
(lp1507
(lp1508
tp1509
a(L3631005548L
L0L
(lp1510
(lp1511
tp1512
a(L3765184871L
L0L
(lp1513
(lp1514
tp1515
a(L3352263364L
L0L
(lp1516
(lp1517
tp1518
a(L3028464L
L0L
(lp1519
(lp1520
tp1521
a(L4028024914L
L3785322319L
(lp1522
(lp1523
Vrtc_clk_8m_enable
p1524
atp1525
atp1526
sI1074247008
(Vesp_rom_spiflash_enable_write
p1527
(lp1528
(L4294007845L
L3785322319L
(lp1529
(lp1530
Vesp_rom_spiflash_wait_idle
p1531
atp1532
a(L3137194272L
L0L
(lp1533
(lp1534
tp1535
a(L2258718275L
L0L
(lp1536
(lp1537
tp1538
a(L99543895L
L0L
(lp1539
(lp1540
tp1541
a(L2993202392L
L0L
(lp1542
(lp1543
tp1544
a(L1804543818L
L3785322319L
(lp1545
(lp1546
Vesp_rom_spiflash_read_status
p1547
atp1548
atp1549
sI1074270304
(Vrtc_vddsdio_get_config
p1550
(lp1551
(L1133339736L
L0L
(lp1552
(lp1553
tp1554
a(L3421108135L
L0L
(lp1555
(lp1556
tp1557
a(L3002774692L
L0L
(lp1558
(lp1559
tp1560
a(L526269410L
L0L
(lp1561
(lp1562
tp1563
a(L3892776265L
L0L
(lp1564
(lp1565
tp1566
a(L1813596024L
L0L
(lp1567
(lp1568
tp1569
a(L1306330959L
L0L
(lp1570
(lp1571
tp1572
a(L3813608488L
L0L
(lp1573
(lp1574
tp1575
atp1576
sI1074244200
(Vclk_ll_rtc_slow_get_src
p1577
(lp1578
(L3579154085L
L0L
(lp1579
(lp1580
tp1581
a(L3020187L
L0L
(lp1582
(lp1583
tp1584
a(L2902417580L
L0L
(lp1585
(lp1586
tp1587
a(L2258688485L
L0L
(lp1588
(lp1589
tp1590
a(L3360570486L
L0L
(lp1591
(lp1592
tp1593
atp1594
sI1074243944
(Vwdt_hal_set_flashboot_en
p1595
(lp1596
(L2375320464L
L0L
(lp1597
(lp1598
tp1599
a(L3915867581L
L0L
(lp1600
(lp1601
tp1602
a(L3360570486L
L0L
(lp1603
(lp1604
tp1605
a(L3198685869L
L0L
(lp1606
(lp1607
tp1608
atp1609
sI1074237288
(Vbootloader_mmap
p1610
(lp1611
(L1371566704L
L0L
(lp1612
(lp1613
tp1614
a(L3989388896L
L3785322319L
(lp1615
(lp1616
Vesp_log_early_timestamp
p1617
atp1618
a(L3871473710L
L0L
(lp1619
(lp1620
tp1621
a(L3729184599L
L0L
(lp1622
(lp1623
tp1624
a(L956050713L
L3785322319L
(lp1625
(lp1626
Vesp_log_early_timestamp
p1627
atp1628
a(L343127800L
L0L
(lp1629
(lp1630
tp1631
a(L3911538083L
L3785322319L
(lp1632
(lp1633
Vesp_log_early_timestamp
p1634
atp1635
a(L2700202424L
L0L
(lp1636
(lp1637
tp1638
a(L2618580612L
L3785322319L
(lp1639
(lp1640
Vesp_log_early_timestamp
p1641
atp1642
a(L2796553509L
L0L
(lp1643
(lp1644
tp1645
atp1646
sI1074244976
(Vrtc_clk_fast_src_set
p1647
(lp1648
(L3109630949L
L0L
(lp1649
(lp1650
tp1651
a(L3020187L
L0L
(lp1652
(lp1653
tp1654
a(L3827921190L
L3785322319L
(lp1655
(lp1656
Vabort
p1657
atp1658
a(L209959690L
L0L
(lp1659
(lp1660
tp1661
a(L980343504L
L0L
(lp1662
(lp1663
tp1664
a(L300459962L
L0L
(lp1665
(lp1666
tp1667
atp1668
sI1074237564
(Vbootloader_flash_read
p1669
(lp1670
(L728393898L
L0L
(lp1671
(lp1672
tp1673
a(L1106217119L
L3785322319L
(lp1674
(lp1675
Vesp_log_early_timestamp
p1676
atp1677
a(L1024709524L
L0L
(lp1678
(lp1679
tp1680
a(L3360570486L
L0L
(lp1681
(lp1682
tp1683
a(L2660352519L
L0L
(lp1684
(lp1685
tp1686
a(L1488229289L
L3785322319L
(lp1687
(lp1688
Vesp_log_early_timestamp
p1689
atp1690
a(L162336582L
L0L
(lp1691
(lp1692
tp1693
a(L1628083135L
L3785322319L
(lp1694
(lp1695
Vesp_log_early_timestamp
p1696
atp1697
a(L3020204L
L0L
(lp1698
(lp1699
tp1700
a(L3893043951L
L0L
(lp1701
(lp1702
tp1703
a(L97422L
L0L
(lp1704
(lp1705
tp1706
a(L674456573L
L0L
(lp1707
(lp1708
tp1709
a(L1253319443L
L0L
(lp1710
(lp1711
tp1712
a(L3966091362L
L3785322319L
(lp1713
(lp1714
V__assert_func
p1715
atp1716
a(L2383244345L
L0L
(lp1717
(lp1718
tp1719
a(L4030841379L
L0L
(lp1720
(lp1721
tp1722
a(L2946905801L
L1880226080L
(lp1723
(lp1724
Vesp_rom_spiflash_read
p1725
aVspi_to_esp_err
p1726
atp1727
atp1728
sI1074237816
(Vbootloader_flash_erase_sector
p1729
(lp1730
(L4129137686L
L1880226080L
(lp1731
(lp1732
Vesp_rom_spiflash_erase_sector
p1733
aVspi_to_esp_err
p1734
atp1735
atp1736
sI1074236792
(Vesp_log_early_timestamp
p1737
(lp1738
(L387765101L
L0L
(lp1739
(lp1740
tp1741
atp1742
sI1074235768
(Vbootloader_flash_gpio_config
p1743
(lp1744
(L3448878117L
L3785322319L
(lp1745
(lp1746
Vbootloader_common_get_chip_ver_pkg
p1747
atp1748
a(L106L
L0L
(lp1749
(lp1750
tp1751
a(L1998579353L
L0L
(lp1752
(lp1753
tp1754
a(L106L
L0L
(lp1755
(lp1756
tp1757
a(L463324743L
L0L
(lp1758
(lp1759
tp1760
a(L2054608940L
L0L
(lp1761
(lp1762
tp1763
a(L106L
L0L
(lp1764
(lp1765
tp1766
a(L4003626558L
L0L
(lp1767
(lp1768
tp1769
a(L2112581292L
L0L
(lp1770
(lp1771
tp1772
a(L3360570486L
L0L
(lp1773
(lp1774
tp1775
atp1776
sI1074238084
(Vbootloader_random_disable
p1777
(lp1778
(L2509613898L
L0L
(lp1779
(lp1780
tp1781
atp1782
sI1074240900
(Vbootloader_util_regions_overlap
p1783
(lp1784
(L2762640130L
L0L
(lp1785
(lp1786
tp1787
a(L3455000357L
L0L
(lp1788
(lp1789
tp1790
a(L591145840L
L3785322319L
(lp1791
(lp1792
V__assert_func
p1793
atp1794
a(L97642L
L0L
(lp1795
(lp1796
tp1797
a(L294748017L
L0L
(lp1798
(lp1799
tp1800
a(L366123053L
L0L
(lp1801
(lp1802
tp1803
a(L2258867228L
L0L
(lp1804
(lp1805
tp1806
a(L1253626734L
L0L
(lp1807
(lp1808
tp1809
a(L2258897019L
L0L
(lp1810
(lp1811
tp1812
a(L3109269495L
L0L
(lp1813
(lp1814
tp1815
atp1816
sI1074244228
(Vrtc_clk_32k_enable_common
p1817
(lp1818
(L1829043071L
L0L
(lp1819
(lp1820
tp1821
a(L97689L
L0L
(lp1822
(lp1823
tp1824
a(L2218417250L
L0L
(lp1825
(lp1826
tp1827
a(L2196549806L
L0L
(lp1828
(lp1829
tp1830
a(L51458058L
L0L
(lp1831
(lp1832
tp1833
atp1834
sI1074235520
(Vbootloader_flash_xmc_startup
p1835
(lp1836
(L1520934136L
L3785322319L
(lp1837
(lp1838
Vis_xmc_chip_strict
p1839
atp1840
a(L2258688482L
L0L
(lp1841
(lp1842
tp1843
a(L3360570486L
L0L
(lp1844
(lp1845
tp1846
a(L251913992L
L3785322319L
(lp1847
(lp1848
Vbootloader_flash_read_sfdp
p1849
atp1850
a(L4211599108L
L267944800L
(lp1851
(lp1852
Vbootloader_execute_flash_command
p1853
aVbootloader_execute_flash_command
p1854
aVbootloader_execute_flash_command
p1855
aVbootloader_execute_flash_command
p1856
aVbootloader_read_flash_id
p1857
aVis_xmc_chip_strict
p1858
atp1859
a(L4229369543L
L3785322319L
(lp1860
(lp1861
Vesp_log_early_timestamp
p1862
atp1863
atp1864
sI1074237836
(Vbootloader_flash_write
p1865
(lp1866
(L3770380603L
L0L
(lp1867
(lp1868
tp1869
a(L311168910L
L3785322319L
(lp1870
(lp1871
Vesp_log_early_timestamp
p1872
atp1873
a(L283255622L
L0L
(lp1874
(lp1875
tp1876
a(L1610445075L
L0L
(lp1877
(lp1878
tp1879
a(L735741265L
L0L
(lp1880
(lp1881
tp1882
a(L3291333414L
L0L
(lp1883
(lp1884
tp1885
a(L2189241262L
L3785322319L
(lp1886
(lp1887
Vesp_log_early_timestamp
p1888
atp1889
a(L3283691850L
L0L
(lp1890
(lp1891
tp1892
a(L3241687434L
L3785322319L
(lp1893
(lp1894
Vesp_log_early_timestamp
p1895
atp1896
a(L3212356251L
L3785322319L
(lp1897
(lp1898
Vbootloader_flash_unlock
p1899
atp1900
a(L1799218633L
L0L
(lp1901
(lp1902
tp1903
a(L94425498L
L3785322319L
(lp1904
(lp1905
Vesp_rom_spiflash_write_encrypted
p1906
atp1907
a(L2927190544L
L3785322319L
(lp1908
(lp1909
Vspi_to_esp_err
p1910
atp1911
a(L2927190544L
L3785322319L
(lp1912
(lp1913
Vesp_rom_spiflash_write
p1914
atp1915
atp1916
sI1074245516
(Vrtc_clk_cpu_freq_set_config
p1917
(lp1918
(L3260862648L
L3785322319L
(lp1919
(lp1920
Vrtc_clk_xtal_freq_get
p1921
atp1922
a(L3020187L
L0L
(lp1923
(lp1924
tp1925
a(L3028464L
L0L
(lp1926
(lp1927
tp1928
a(L264223053L
L1880226080L
(lp1929
(lp1930
Vrtc_clk_cpu_freq_to_xtal
p1931
aVrtc_clk_wait_for_slow_cycle
p1932
atp1933
a(L94425498L
L3785322319L
(lp1934
(lp1935
Vrtc_clk_bbpll_disable
p1936
atp1937
a(L3978916712L
L0L
(lp1938
(lp1939
tp1940
a(L2977209154L
L0L
(lp1941
(lp1942
tp1943
a(L2736411858L
L3785322319L
(lp1944
(lp1945
Vrtc_clk_cpu_freq_to_xtal
p1946
atp1947
a(L3360570486L
L0L
(lp1948
(lp1949
tp1950
a(L3020187L
L0L
(lp1951
(lp1952
tp1953
a(L106L
L0L
(lp1954
(lp1955
tp1956
a(L1643816017L
L1880226080L
(lp1957
(lp1958
Vrtc_clk_wait_for_slow_cycle
p1959
aVrtc_clk_xtal_freq_get
p1960
atp1961
a(L106L
L0L
(lp1962
(lp1963
tp1964
a(L3578784539L
L0L
(lp1965
(lp1966
tp1967
a(L106L
L0L
(lp1968
(lp1969
tp1970
a(L83268611L
L0L
(lp1971
(lp1972
tp1973
a(L106L
L0L
(lp1974
(lp1975
tp1976
a(L82344823L
L0L
(lp1977
(lp1978
tp1979
a(L106L
L0L
(lp1980
(lp1981
tp1982
a(L1274797871L
L0L
(lp1983
(lp1984
tp1985
a(L3425862026L
L0L
(lp1986
(lp1987
tp1988
a(L769735029L
L1880226080L
(lp1989
(lp1990
Vclk_ll_rtc_slow_get_src
p1991
aVrtc_clk_cpu_freq_to_pll_mhz
p1992
atp1993
a(L3485935402L
L0L
(lp1994
(lp1995
tp1996
a(L83268344L
L0L
(lp1997
(lp1998
tp1999
a(L82345090L
L0L
(lp2000
(lp2001
tp2002
a(L1299628291L
L0L
(lp2003
(lp2004
tp2005
a(L3918030032L
L0L
(lp2006
(lp2007
tp2008
a(L2258807646L
L0L
(lp2009
(lp2010
tp2011
a(L878473564L
L0L
(lp2012
(lp2013
tp2014
a(L2389426015L
L0L
(lp2015
(lp2016
tp2017
a(L1596574736L
L0L
(lp2018
(lp2019
tp2020
a(L2086626670L
L0L
(lp2021
(lp2022
tp2023
a(L1302638456L
L0L
(lp2024
(lp2025
tp2026
a(L810137203L
L0L
(lp2027
(lp2028
tp2029
a(L87353900L
L0L
(lp2030
(lp2031
tp2032
a(L3020187L
L0L
(lp2033
(lp2034
tp2035
a(L106L
L0L
(lp2036
(lp2037
tp2038
a(L2791725429L
L0L
(lp2039
(lp2040
tp2041
atp2042
sI1074242696
(Vbootloader_load_image
p2043
(lp2044
(L1155870502L
L3785322319L
(lp2045
(lp2046
Vimage_load
p2047
atp2048
atp2049
sI1074247560
(Vesp_rom_spiflash_write_encrypted
p2050
(lp2051
(L1944247967L
L0L
(lp2052
(lp2053
tp2054
a(L4269090707L
L0L
(lp2055
(lp2056
tp2057
a(L97689L
L0L
(lp2058
(lp2059
tp2060
a(L3061232074L
L0L
(lp2061
(lp2062
tp2063
a(L3961054089L
L0L
(lp2064
(lp2065
tp2066
a(L1309309703L
L3785322319L
(lp2067
(lp2068
Vesp_rom_spiflash_write
p2069
atp2070
a(L1457684149L
L0L
(lp2071
(lp2072
tp2073
a(L735741265L
L0L
(lp2074
(lp2075
tp2076
atp2077
sI1074268568
(Vbootloader_common_vddsdio_configure
p2078
(lp2079
(L1829974089L
L3785322319L
(lp2080
(lp2081
Vrtc_vddsdio_get_config
p2082
atp2083
a(L3047969944L
L3785322319L
(lp2084
(lp2085
Vrtc_vddsdio_set_config
p2086
atp2087
a(L3360570486L
L0L
(lp2088
(lp2089
tp2090
atp2091
sI1074269592
(Vbootloader_enable_random
p2092
(lp2093
(L1287383080L
L3785322319L
(lp2094
(lp2095
Vbootloader_random_enable
p2096
atp2097
atp2098
sI1074242196
(Vimage_load
p2099
(lp2100
(L3559420668L
L0L
(lp2101
(lp2102
tp2103
a(L1899869541L
L0L
(lp2104
(lp2105
tp2106
a(L979631281L
L0L
(lp2107
(lp2108
tp2109
a(L1525480527L
L0L
(lp2110
(lp2111
tp2112
a(L1043148059L
L0L
(lp2113
(lp2114
tp2115
a(L2796536461L
L0L
(lp2116
(lp2117
tp2118
a(L964855339L
L3785322319L
(lp2119
(lp2120
Vesp_log_early_timestamp
p2121
atp2122
a(L2068384292L
L0L
(lp2123
(lp2124
tp2125
a(L1968553470L
L3785322319L
(lp2126
(lp2127
Vbootloader_sha256_finish
p2128
atp2129
a(L1721531848L
L0L
(lp2130
(lp2131
tp2132
a(L3225218531L
L0L
(lp2133
(lp2134
tp2135
a(L3802071166L
L0L
(lp2136
(lp2137
tp2138
a(L1301867039L
L3785322319L
(lp2139
(lp2140
Vprocess_image_header
p2141
atp2142
a(L560228796L
L0L
(lp2143
(lp2144
tp2145
a(L4185758499L
L0L
(lp2146
(lp2147
tp2148
a(L1530940255L
L3785322319L
(lp2149
(lp2150
Vprocess_segments
p2151
atp2152
a(L1233227930L
L0L
(lp2153
(lp2154
tp2155
a(L2462932903L
L0L
(lp2156
(lp2157
tp2158
a(L2570888687L
L3785322319L
(lp2159
(lp2160
Vprocess_checksum
p2161
atp2162
a(L425503098L
L3785322319L
(lp2163
(lp2164
Vprocess_appended_hash_and_sig
p2165
atp2166
a(L780930979L
L0L
(lp2167
(lp2168
tp2169
a(L2334355956L
L0L
(lp2170
(lp2171
tp2172
a(L2239981356L
L0L
(lp2173
(lp2174
tp2175
a(L700839140L
L1880226080L
(lp2176
(lp2177
Vbootloader_sha256_finish
p2178
aVbootloader_debug_buffer
p2179
atp2180
a(L639955857L
L1880226080L
(lp2181
(lp2182
Vesp_log_early_timestamp
p2183
aVbootloader_debug_buffer
p2184
atp2185
a(L1087646176L
L0L
(lp2186
(lp2187
tp2188
a(L2068384292L
L0L
(lp2189
(lp2190
tp2191
a(L3021148818L
L3785322319L
(lp2192
(lp2193
Vbootloader_sha256_finish
p2194
atp2195
a(L3028481L
L0L
(lp2196
(lp2197
tp2198
a(L139701033L
L0L
(lp2199
(lp2200
tp2201
a(L2878111010L
L0L
(lp2202
(lp2203
tp2204
a(L772115669L
L0L
(lp2205
(lp2206
tp2207
a(L2787789065L
L0L
(lp2208
(lp2209
tp2210
a(L85798113L
L0L
(lp2211
(lp2212
tp2213
a(L1351513776L
L0L
(lp2214
(lp2215
tp2216
a(L159346313L
L3785322319L
(lp2217
(lp2218
Vshould_load
p2219
atp2220
a(L4218574503L
L0L
(lp2221
(lp2222
tp2223
a(L3338774213L
L0L
(lp2224
(lp2225
tp2226
a(L3464541874L
L0L
(lp2227
(lp2228
tp2229
a(L3349572949L
L0L
(lp2230
(lp2231
tp2232
a(L2192292519L
L0L
(lp2233
(lp2234
tp2235
a(L106L
L0L
(lp2236
(lp2237
tp2238
a(L26615924L
L0L
(lp2239
(lp2240
tp2241
a(L1299866312L
L0L
(lp2242
(lp2243
tp2244
a(L490060329L
L0L
(lp2245
(lp2246
tp2247
atp2248
sI1074236560
(Vefuse_hal_chip_revision
p2249
(lp2250
(L2719302832L
L1880226080L
(lp2251
(lp2252
Vefuse_hal_get_major_chip_version
p2253
aVefuse_hal_get_minor_chip_version
p2254
atp2255
atp2256
sI1074238620
(Vtry_load_partition
p2257
(lp2258
(L1898493800L
L0L
(lp2259
(lp2260
tp2261
a(L2454209732L
L3785322319L
(lp2262
(lp2263
Vbootloader_load_image
p2264
atp2265
a(L3360570486L
L0L
(lp2266
(lp2267
tp2268
atp2269
sI1074239132
(Vset_actual_ota_seq
p2270
(lp2271
(L4094723830L
L0L
(lp2272
(lp2273
tp2274
a(L3473028212L
L0L
(lp2275
(lp2276
tp2277
a(L3553024017L
L1832448559L
(lp2278
(lp2279
Vbootloader_common_ota_select_crc
p2280
aVesp_flash_encryption_enabled
p2281
aVbootloader_flash_erase_sector
p2282
atp2283
a(L3383023989L
L3785322319L
(lp2284
(lp2285
Vbootloader_flash_write
p2286
atp2287
a(L4009601638L
L3785322319L
(lp2288
(lp2289
Vesp_log_early_timestamp
p2290
atp2291
a(L3496950L
L0L
(lp2292
(lp2293
tp2294
atp2295
sI1074247068
(Vesp_rom_spiflash_program_page_internal
p2296
(lp2297
(L2569069283L
L0L
(lp2298
(lp2299
tp2300
a(L2258688483L
L0L
(lp2301
(lp2302
tp2303
a(L3360570486L
L0L
(lp2304
(lp2305
tp2306
a(L874487604L
L0L
(lp2307
(lp2308
tp2309
a(L4235661475L
L3785322319L
(lp2310
(lp2311
Vesp_rom_spiflash_wait_idle
p2312
atp2313
a(L1299866312L
L0L
(lp2314
(lp2315
tp2316
a(L3212356251L
L3785322319L
(lp2317
(lp2318
Vesp_rom_spiflash_enable_write
p2319
atp2320
a(L4236772496L
L0L
(lp2321
(lp2322
tp2323
a(L1008842358L
L0L
(lp2324
(lp2325
tp2326
a(L2953702749L
L0L
(lp2327
(lp2328
tp2329
a(L2989032L
L0L
(lp2330
(lp2331
tp2332
a(L1965622133L
L0L
(lp2333
(lp2334
tp2335
a(L3110819530L
L0L
(lp2336
(lp2337
tp2338
a(L1958113242L
L0L
(lp2339
(lp2340
tp2341
a(L106L
L0L
(lp2342
(lp2343
tp2344
a(L3112950080L
L0L
(lp2345
(lp2346
tp2347
a(L1868606439L
L0L
(lp2348
(lp2349
tp2350
a(L1008983749L
L0L
(lp2351
(lp2352
tp2353
a(L1933954923L
L0L
(lp2354
(lp2355
tp2356
a(L1147866918L
L0L
(lp2357
(lp2358
tp2359
a(L3871602522L
L0L
(lp2360
(lp2361
tp2362
atp2363
sI1074242712
(Vesp_partition_table_verify
p2364
(lp2365
(L1927580282L
L0L
(lp2366
(lp2367
tp2368
a(L3612311543L
L0L
(lp2369
(lp2370
tp2371
a(L4090921686L
L0L
(lp2372
(lp2373
tp2374
a(L2910371777L
L0L
(lp2375
(lp2376
tp2377
a(L2810785767L
L0L
(lp2378
(lp2379
tp2380
a(L3360570486L
L0L
(lp2381
(lp2382
tp2383
a(L3190337587L
L0L
(lp2384
(lp2385
tp2386
a(L2069928857L
L0L
(lp2387
(lp2388
tp2389
a(L3020204L
L0L
(lp2390
(lp2391
tp2392
a(L245691717L
L3785322319L
(lp2393
(lp2394
Vesp_log_early_timestamp
p2395
atp2396
a(L2170696312L
L3785322319L
(lp2397
(lp2398
Vesp_log_early_timestamp
p2399
atp2400
a(L3432911L
L0L
(lp2401
(lp2402
tp2403
a(L2902417580L
L0L
(lp2404
(lp2405
tp2406
a(L3020204L
L0L
(lp2407
(lp2408
tp2409
a(L1254851474L
L3785322319L
(lp2410
(lp2411
Vesp_log_early_timestamp
p2412
atp2413
a(L190989796L
L0L
(lp2414
(lp2415
tp2416
a(L2365302570L
L0L
(lp2417
(lp2418
tp2419
a(L2902417580L
L0L
(lp2420
(lp2421
tp2422
a(L245690260L
L3785322319L
(lp2423
(lp2424
Vesp_log_early_timestamp
p2425
atp2426
a(L1305407469L
L0L
(lp2427
(lp2428
tp2429
a(L1167861556L
L0L
(lp2430
(lp2431
tp2432
a(L3914073261L
L0L
(lp2433
(lp2434
tp2435
a(L2910371777L
L0L
(lp2436
(lp2437
tp2438
a(L1235012932L
L0L
(lp2439
(lp2440
tp2441
a(L3786577829L
L3785322319L
(lp2442
(lp2443
Vesp_log_early_timestamp
p2444
atp2445
atp2446
sI1074236824
(Vbootloader_common_ota_select_crc
p2447
(lp2448
(L2530349931L
L0L
(lp2449
(lp2450
tp2451
atp2452
sI1074269352
(Vbootloader_flash_update_id
p2453
(lp2454
(L3994864411L
L3785322319L
(lp2455
(lp2456
Vbootloader_read_flash_id
p2457
atp2458
atp2459
sI1074241444
(Vshould_load
p2460
(lp2461
(L1049568420L
L0L
(lp2462
(lp2463
tp2464
a(L1182990556L
L0L
(lp2465
(lp2466
tp2467
a(L388737285L
L0L
(lp2468
(lp2469
tp2470
a(L2306467100L
L0L
(lp2471
(lp2472
tp2473
a(L1002638193L
L0L
(lp2474
(lp2475
tp2476
a(L2258897019L
L0L
(lp2477
(lp2478
tp2479
a(L3781799363L
L0L
(lp2480
(lp2481
tp2482
a(L3028464L
L0L
(lp2483
(lp2484
tp2485
a(L1833574973L
L0L
(lp2486
(lp2487
tp2488
a(L4277114872L
L0L
(lp2489
(lp2490
tp2491
a(L2824381917L
L0L
(lp2492
(lp2493
tp2494
a(L1243412227L
L0L
(lp2495
(lp2496
tp2497
a(L2011157548L
L0L
(lp2498
(lp2499
tp2500
a(L3126521138L
L0L
(lp2501
(lp2502
tp2503
a(L1305407438L
L0L
(lp2504
(lp2505
tp2506
a(L1305407469L
L0L
(lp2507
(lp2508
tp2509
atp2510
sI1074269868
(Vrtc_clk_init
p2511
(lp2512
(L3027191313L
L0L
(lp2513
(lp2514
tp2515
a(L42671777L
L3785322319L
(lp2516
(lp2517
Vrtc_clk_cpu_freq_to_xtal
p2518
atp2519
a(L1050335063L
L3785322319L
(lp2520
(lp2521
Vrtc_clk_xtal_freq_get
p2522
atp2523
a(L89029051L
L0L
(lp2524
(lp2525
tp2526
a(L4187693717L
L3785322319L
(lp2527
(lp2528
Vrtc_clk_xtal_freq_estimate
p2529
atp2530
a(L1165738187L
L3785322319L
(lp2531
(lp2532
Vesp_log_early_timestamp
p2533
atp2534
a(L1235539582L
L1157885199L
(lp2535
(lp2536
Vesp_rom_uart_tx_wait_idle
p2537
aVrtc_clk_xtal_freq_update
p2538
aVrtc_clk_apb_freq_update
p2539
aVrtc_clk_cpu_freq_get_config
p2540
aVrtc_clk_cpu_freq_mhz_to_config
p2541
atp2542
a(L1472250234L
L1880226080L
(lp2543
(lp2544
Vesp_log_early_timestamp
p2545
aVabort
p2546
atp2547
a(L3028481L
L0L
(lp2548
(lp2549
tp2550
a(L4070631611L
L3785322319L
(lp2551
(lp2552
Vrtc_clk_xtal_freq_estimate
p2553
atp2554
a(L3368302670L
L3785322319L
(lp2555
(lp2556
Vesp_log_early_timestamp
p2557
atp2558
a(L2242669021L
L3785322319L
(lp2559
(lp2560
Vrtc_clk_cpu_freq_set_config
p2561
atp2562
a(L912310138L
L3785322319L
(lp2563
(lp2564
Vrtc_clk_32k_enable
p2565
atp2566
a(L3191820416L
L1832448559L
(lp2567
(lp2568
Vrtc_clk_8m_enable
p2569
aVrtc_clk_fast_src_set
p2570
aVrtc_clk_slow_src_set
p2571
atp2572
a(L1232958848L
L0L
(lp2573
(lp2574
tp2575
atp2576
sI1074244768
(Vrtc_clk_8m_enabled
p2577
(lp2578
(L1635618594L
L0L
(lp2579
(lp2580
tp2581
atp2582
sI1074269600
(Vbootloader_console_init
p2583
(lp2584
(L3761484553L
L1832448559L
(lp2585
(lp2586
Vesp_rom_uart_tx_wait_idle
p2587
aVrtc_clk_apb_freq_get
p2588
aVesp_rom_uart_set_clock_baudrate
p2589
atp2590
atp2591
sI1074236844
(Vbootloader_common_ota_select_valid
p2592
(lp2593
(L1563399710L
L3785322319L
(lp2594
(lp2595
Vbootloader_common_ota_select_invalid
p2596
atp2597
a(L3814720849L
L3785322319L
(lp2598
(lp2599
Vbootloader_common_ota_select_crc
p2600
atp2601
a(L3360570486L
L0L
(lp2602
(lp2603
tp2604
atp2605
sI1074244012
(Vwdt_hal_write_protect_enable
p2606
(lp2607
(L387778158L
L0L
(lp2608
(lp2609
tp2610
a(L4195472003L
L0L
(lp2611
(lp2612
tp2613
a(L3360570486L
L0L
(lp2614
(lp2615
tp2616
a(L802523425L
L0L
(lp2617
(lp2618
tp2619
atp2620
sI1074236584
(Vefuse_hal_flash_encryption_enabled
p2621
(lp2622
(L95576418L
L0L
(lp2623
(lp2624
tp2625
a(L2910371777L
L0L
(lp2626
(lp2627
tp2628
a(L3360570486L
L0L
(lp2629
(lp2630
tp2631
a(L3016870L
L0L
(lp2632
(lp2633
tp2634
a(L3745038218L
L0L
(lp2635
(lp2636
tp2637
a(L957607403L
L0L
(lp2638
(lp2639
tp2640
atp2641
sI1074244520
(Vrtc_clk_bbpll_disable
p2642
(lp2643
(L1007955500L
L0L
(lp2644
(lp2645
tp2646
a(L2472207241L
L0L
(lp2647
(lp2648
tp2649
a(L3360570486L
L0L
(lp2650
(lp2651
tp2652
atp2653
sI1074268856
(Vbootloader_init_mem
p2654
(lp2655
(L1287383080L
L3785322319L
(lp2656
(lp2657
Vesp_cpu_configure_region_protection
p2658
atp2659
atp2660
sI1074269368
(Vbootloader_clear_bss_section
p2661
(lp2662
(L1035474915L
L0L
(lp2663
(lp2664
tp2665
atp2666
sI1074245040
(Vrtc_clk_fast_src_get
p2667
(lp2668
(L3360419488L
L0L
(lp2669
(lp2670
tp2671
atp2672
sI1074238652
(Vcache_ll_l1_enable_bus
p2673
(lp2674
(L3709595376L
L0L
(lp2675
(lp2676
tp2677
atp2678
sI1074240956
(Vverify_load_addresses
p2679
(lp2680
(L2764487219L
L0L
(lp2681
(lp2682
tp2683
a(L106L
L0L
(lp2684
(lp2685
tp2686
a(L97642L
L0L
(lp2687
(lp2688
tp2689
a(L2235167441L
L3785322319L
(lp2690
(lp2691
V__assert_func
p2692
atp2693
a(L1501529359L
L0L
(lp2694
(lp2695
tp2696
a(L106L
L0L
(lp2697
(lp2698
tp2699
a(L3611123590L
L0L
(lp2700
(lp2701
tp2702
a(L106L
L0L
(lp2703
(lp2704
tp2705
a(L1011603130L
L3785322319L
(lp2706
(lp2707
Vbootloader_util_regions_overlap
p2708
atp2709
a(L3136115638L
L3785322319L
(lp2710
(lp2711
Vbootloader_util_regions_overlap
p2712
atp2713
a(L3028481L
L0L
(lp2714
(lp2715
tp2716
a(L3015387297L
L3785322319L
(lp2717
(lp2718
Vbootloader_util_regions_overlap
p2719
atp2720
a(L3178819057L
L0L
(lp2721
(lp2722
tp2723
a(L164461258L
L0L
(lp2724
(lp2725
tp2726
a(L257599400L
L0L
(lp2727
(lp2728
tp2729
a(L2661576437L
L0L
(lp2730
(lp2731
tp2732
a(L2503437888L
L0L
(lp2733
(lp2734
tp2735
a(L677569396L
L3785322319L
(lp2736
(lp2737
Vverify_load_addresses
p2738
atp2739
a(L1351513776L
L0L
(lp2740
(lp2741
tp2742
a(L3061261803L
L0L
(lp2743
(lp2744
tp2745
a(L2743341656L
L0L
(lp2746
(lp2747
tp2748
a(L3276482861L
L0L
(lp2749
(lp2750
tp2751
a(L2082301726L
L0L
(lp2752
(lp2753
tp2754
a(L4005203510L
L3785322319L
(lp2755
(lp2756
Vbootloader_util_regions_overlap
p2757
atp2758
a(L3028481L
L0L
(lp2759
(lp2760
tp2761
a(L2015525981L
L3785322319L
(lp2762
(lp2763
Vbootloader_util_regions_overlap
p2764
atp2765
a(L1621859327L
L0L
(lp2766
(lp2767
tp2768
a(L1591468573L
L0L
(lp2769
(lp2770
tp2771
a(L3570143626L
L0L
(lp2772
(lp2773
tp2774
a(L3723286975L
L0L
(lp2775
(lp2776
tp2777
a(L307916691L
L0L
(lp2778
(lp2779
tp2780
a(L697239146L
L0L
(lp2781
(lp2782
tp2783
a(L106L
L0L
(lp2784
(lp2785
tp2786
a(L955500233L
L0L
(lp2787
(lp2788
tp2789
a(L307916056L
L0L
(lp2790
(lp2791
tp2792
a(L490080443L
L0L
(lp2793
(lp2794
tp2795
a(L106L
L0L
(lp2796
(lp2797
tp2798
a(L3257748282L
L3785322319L
(lp2799
(lp2800
Vesp_log_early_timestamp
p2801
atp2802
a(L955500109L
L0L
(lp2803
(lp2804
tp2805
a(L1303560427L
L0L
(lp2806
(lp2807
tp2808
atp2809
sI1074244792
(Vrtc_clk_8md256_enabled
p2810
(lp2811
(L791146723L
L0L
(lp2812
(lp2813
tp2814
atp2815
sI1074243000
(Vwdt_hal_init
p2816
(lp2817
(L451036725L
L0L
(lp2818
(lp2819
tp2820
a(L3747970116L
L0L
(lp2821
(lp2822
tp2823
a(L2805932845L
L0L
(lp2824
(lp2825
tp2826
a(L990556070L
L0L
(lp2827
(lp2828
tp2829
a(L3661820987L
L0L
(lp2830
(lp2831
tp2832
a(L3360570486L
L0L
(lp2833
(lp2834
tp2835
a(L3003609849L
L0L
(lp2836
(lp2837
tp2838
atp2839
sI1074240440
(Vbootloader_console_deinit
p2840
(lp2841
(L211274347L
L0L
(lp2842
(lp2843
tp2844
atp2845
sI1074237112
(Vbootloader_common_get_active_otadata
p2846
(lp2847
(L3317503532L
L0L
(lp2848
(lp2849
tp2850
a(L2503049265L
L1832448559L
(lp2851
(lp2852
Vbootloader_common_ota_select_valid
p2853
aVbootloader_common_ota_select_valid
p2854
aVbootloader_common_select_otadata
p2855
atp2856
a(L735741265L
L0L
(lp2857
(lp2858
tp2859
atp2860
sI1074240708
(Vprocess_image_header
p2861
(lp2862
(L2432076612L
L3785322319L
(lp2863
(lp2864
Vbootloader_flash_read
p2865
atp2866
a(L3020204L
L0L
(lp2867
(lp2868
tp2869
a(L4130667142L
L0L
(lp2870
(lp2871
tp2872
a(L3131381282L
L0L
(lp2873
(lp2874
tp2875
a(L1161397362L
L3785322319L
(lp2876
(lp2877
Vbootloader_sha256_start
p2878
atp2879
a(L1948257695L
L3785322319L
(lp2880
(lp2881
Vbootloader_sha256_data
p2882
atp2883
a(L1095449651L
L0L
(lp2884
(lp2885
tp2886
a(L3020204L
L0L
(lp2887
(lp2888
tp2889
a(L702738166L
L0L
(lp2890
(lp2891
tp2892
a(L3360570486L
L0L
(lp2893
(lp2894
tp2895
a(L3574849315L
L3785322319L
(lp2896
(lp2897
Vesp_log_early_timestamp
p2898
atp2899
a(L3718883008L
L3785322319L
(lp2900
(lp2901
Vbootloader_common_check_chip_validity
p2902
atp2903
a(L3677035427L
L0L
(lp2904
(lp2905
tp2906
a(L3028481L
L0L
(lp2907
(lp2908
tp2909
a(L2685163490L
L3785322319L
(lp2910
(lp2911
Vesp_log_early_timestamp
p2912
atp2913
a(L2250109166L
L0L
(lp2914
(lp2915
tp2916
a(L1235012870L
L0L
(lp2917
(lp2918
tp2919
a(L3063569071L
L0L
(lp2920
(lp2921
tp2922
atp2923
sI1074238400
(Vbootloader_clock_get_rated_freq_mhz
p2924
(lp2925
(L376617603L
L3785322319L
(lp2926
(lp2927
Vefuse_hal_get_rated_freq_mhz
p2928
atp2929
atp2930
sI1074245056
(Vrtc_clk_xtal_freq_get
p2931
(lp2932
(L494606871L
L0L
(lp2933
(lp2934
tp2935
a(L2847936993L
L0L
(lp2936
(lp2937
tp2938
a(L2402598450L
L0L
(lp2939
(lp2940
tp2941
a(L3360570486L
L0L
(lp2942
(lp2943
tp2944
atp2945
sI1074268864
(Vbootloader_random_enable
p2946
(lp2947
(L2481830133L
L0L
(lp2948
(lp2949
tp2950
atp2951
sI1074238412
(Vlog_invalid_app_partition
p2952
(lp2953
(L3521327925L
L0L
(lp2954
(lp2955
tp2956
a(L3028464L
L0L
(lp2957
(lp2958
tp2959
a(L464326025L
L3785322319L
(lp2960
(lp2961
Vesp_log_early_timestamp
p2962
atp2963
a(L283255622L
L0L
(lp2964
(lp2965
tp2966
a(L3360570486L
L0L
(lp2967
(lp2968
tp2969
a(L4216513345L
L3785322319L
(lp2970
(lp2971
Vesp_log_early_timestamp
p2972
atp2973
a(L3273373042L
L3785322319L
(lp2974
(lp2975
Vesp_log_early_timestamp
p2976
atp2977
atp2978
sI1074269636
(Vesp_cpu_configure_region_protection
p2979
(lp2980
(L2370813982L
L0L
(lp2981
(lp2982
tp2983
a(L180431425L
L3785322319L
(lp2984
(lp2985
Vmpu_hal_set_region_access
p2986
atp2987
a(L2537388152L
L3785322319L
(lp2988
(lp2989
Vmpu_hal_set_region_access
p2990
atp2991
atp2992
sI1074244040
(Vwdt_hal_enable
p2993
(lp2994
(L2299130915L
L0L
(lp2995
(lp2996
tp2997
a(L165794138L
L0L
(lp2998
(lp2999
tp3000
a(L3360570486L
L0L
(lp3001
(lp3002
tp3003
a(L2847657174L
L0L
(lp3004
(lp3005
tp3006
atp3007
sI1074240456
(V__assert_func
p3008
(lp3009
(L3760180186L
L0L
(lp3010
(lp3011
tp3012
a(L106L
L0L
(lp3013
(lp3014
tp3015
atp3016
sI1074239444
(Vbootloader_utility_get_selected_boot_partition
p3017
(lp3018
(L2803238495L
L0L
(lp3019
(lp3020
tp3021
a(L1299867982L
L0L
(lp3022
(lp3023
tp3024
a(L3360570486L
L0L
(lp3025
(lp3026
tp3027
a(L3281482558L
L0L
(lp3028
(lp3029
tp3030
a(L3121032705L
L3785322319L
(lp3031
(lp3032
Vesp_log_early_timestamp
p3033
atp3034
a(L809594436L
L0L
(lp3035
(lp3036
tp3037
a(L1375577398L
L3785322319L
(lp3038
(lp3039
Vbootloader_mmap
p3040
atp3041
a(L63610766L
L3785322319L
(lp3042
(lp3043
Vesp_log_early_timestamp
p3044
atp3045
a(L3101389472L
L1880226080L
(lp3046
(lp3047
Vbootloader_munmap
p3048
aVbootloader_common_ota_select_invalid
p3049
atp3050
a(L1103573946L
L0L
(lp3051
(lp3052
tp3053
a(L1876827316L
L3785322319L
(lp3054
(lp3055
Vbootloader_common_get_active_otadata
p3056
atp3057
a(L569346373L
L0L
(lp3058
(lp3059
tp3060
a(L3111084448L
L3785322319L
(lp3061
(lp3062
Vbootloader_common_ota_select_invalid
p3063
atp3064
a(L45272527L
L0L
(lp3065
(lp3066
tp3067
a(L847230968L
L0L
(lp3068
(lp3069
tp3070
a(L505081345L
L0L
(lp3071
(lp3072
tp3073
a(L919052234L
L3785322319L
(lp3074
(lp3075
Vbootloader_common_ota_select_crc
p3076
atp3077
a(L2287680455L
L0L
(lp3078
(lp3079
tp3080
a(L3542558037L
L3785322319L
(lp3081
(lp3082
Vbootloader_common_ota_select_crc
p3083
atp3084
a(L1299866312L
L0L
(lp3085
(lp3086
tp3087
a(L1849240841L
L0L
(lp3088
(lp3089
tp3090
a(L2152820954L
L3785322319L
(lp3091
(lp3092
Vesp_log_early_timestamp
p3093
atp3094
a(L190989796L
L0L
(lp3095
(lp3096
tp3097
a(L4142632780L
L3785322319L
(lp3098
(lp3099
Vesp_log_early_timestamp
p3100
atp3101
atp3102
sI1074236624
(Vefuse_hal_get_major_chip_version
p3103
(lp3104
(L1999356974L
L0L
(lp3105
(lp3106
tp3107
a(L894792960L
L0L
(lp3108
(lp3109
tp3110
a(L3783348505L
L0L
(lp3111
(lp3112
tp3113
a(L3360570486L
L0L
(lp3114
(lp3115
tp3116
atp3117
sI1074236880
(Vbootloader_common_check_chip_validity
p3118
(lp3119
(L392423210L
L0L
(lp3120
(lp3121
tp3122
a(L1860455003L
L3785322319L
(lp3123
(lp3124
Vesp_log_early_timestamp
p3125
atp3126
a(L522103407L
L3785322319L
(lp3127
(lp3128
Vefuse_hal_chip_revision
p3129
atp3130
a(L106L
L0L
(lp3131
(lp3132
tp3133
a(L4098603684L
L0L
(lp3134
(lp3135
tp3136
a(L3465733891L
L3785322319L
(lp3137
(lp3138
Vesp_log_early_timestamp
p3139
atp3140
a(L3028464L
L0L
(lp3141
(lp3142
tp3143
a(L1397322129L
L0L
(lp3144
(lp3145
tp3146
a(L3021749L
L0L
(lp3147
(lp3148
tp3149
a(L4207974593L
L3785322319L
(lp3150
(lp3151
Vesp_log_early_timestamp
p3152
atp3153
a(L1299867982L
L0L
(lp3154
(lp3155
tp3156
a(L3360570486L
L0L
(lp3157
(lp3158
tp3159
atp3160
sI1074244816
(Vrtc_clk_slow_src_set
p3161
(lp3162
(L540459879L
L0L
(lp3163
(lp3164
tp3165
a(L3020187L
L0L
(lp3166
(lp3167
tp3168
a(L3028481L
L0L
(lp3169
(lp3170
tp3171
a(L487821223L
L0L
(lp3172
(lp3173
tp3174
a(L3164699159L
L0L
(lp3175
(lp3176
tp3177
a(L1851908495L
L0L
(lp3178
(lp3179
tp3180
a(L1156302086L
L0L
(lp3181
(lp3182
tp3183
a(L3138544334L
L0L
(lp3184
(lp3185
tp3186
a(L94425498L
L3785322319L
(lp3187
(lp3188
Vabort
p3189
atp3190
atp3191
sI1074245328
(Vrtc_clk_xtal_freq_update
p3192
(lp3193
(L328668897L
L0L
(lp3194
(lp3195
tp3196
a(L3509357017L
L0L
(lp3197
(lp3198
tp3199
a(L2266180931L
L0L
(lp3200
(lp3201
tp3202
atp3203
sI1074248400
(V_fini
p3204
(lp3205
(L3493042598L
L0L
(lp3206
(lp3207
tp3208
atp3209
sI1074268624
(Vbootloader_clock_configure
p3210
(lp3211
(L2559598596L
L1880226080L
(lp3212
(lp3213
Vesp_rom_uart_tx_wait_idle
p3214
aVefuse_hal_chip_revision
p3215
atp3216
a(L377556189L
L0L
(lp3217
(lp3218
tp3219
a(L883406775L
L0L
(lp3220
(lp3221
tp3222
a(L106L
L0L
(lp3223
(lp3224
tp3225
a(L4055587691L
L1832448559L
(lp3226
(lp3227
Vrtc_clk_slow_src_get
p3228
aVrtc_clk_fast_src_get
p3229
aVrtc_clk_init
p3230
atp3231
a(L2555738642L
L0L
(lp3232
(lp3233
tp3234
a(L1660176588L
L3785322319L
(lp3235
(lp3236
Vrtc_clk_apb_freq_get
p3237
atp3238
a(L106L
L0L
(lp3239
(lp3240
tp3241
a(L106L
L0L
(lp3242
(lp3243
tp3244
atp3245
sI1074269392
(Vbootloader_read_bootloader_header
p3246
(lp3247
(L2653072919L
L3785322319L
(lp3248
(lp3249
Vbootloader_flash_read
p3250
atp3251
a(L740409177L
L3785322319L
(lp3252
(lp3253
Vesp_log_early_timestamp
p3254
atp3255
a(L735741265L
L0L
(lp3256
(lp3257
tp3258
atp3259
sI1074235096
(Vbootloader_execute_flash_command
p3260
(lp3261
(L2481595632L
L3785322319L
(lp3262
(lp3263
Vbootloader_flash_execute_command_common
p3264
atp3265
atp3266
sI1074246872
(Vesp_rom_spiflash_read_status
p3267
(lp3268
(L2021440545L
L0L
(lp3269
(lp3270
tp3271
a(L1182811815L
L0L
(lp3272
(lp3273
tp3274
a(L3767893221L
L0L
(lp3275
(lp3276
tp3277
a(L106L
L0L
(lp3278
(lp3279
tp3280
a(L3778204656L
L0L
(lp3281
(lp3282
tp3283
a(L3274807848L
L0L
(lp3284
(lp3285
tp3286
a(L2123059967L
L0L
(lp3287
(lp3288
tp3289
a(L3146966332L
L0L
(lp3290
(lp3291
tp3292
a(L2392720019L
L0L
(lp3293
(lp3294
tp3295
atp3296
sI1074244580
(Vrtc_clk_32k_enable
p3297
(lp3298
(L753387299L
L0L
(lp3299
(lp3300
tp3301
a(L3776007933L
L3785322319L
(lp3302
(lp3303
Vrtc_clk_32k_enable_common
p3304
atp3305
a(L3496950L
L0L
(lp3306
(lp3307
tp3308
a(L3974686761L
L0L
(lp3309
(lp3310
tp3311
atp3312
sI1074247396
(Vesp_rom_spiflash_write
p3313
(lp3314
(L986706728L
L0L
(lp3315
(lp3316
tp3317
a(L2258688483L
L0L
(lp3318
(lp3319
tp3320
a(L3360570486L
L0L
(lp3321
(lp3322
tp3323
a(L3368132847L
L0L
(lp3324
(lp3325
tp3326
a(L3106685981L
L0L
(lp3327
(lp3328
tp3329
a(L3488660639L
L3785322319L
(lp3330
(lp3331
Vesp_rom_spiflash_program_page_internal
p3332
atp3333
a(L3543402353L
L3785322319L
(lp3334
(lp3335
Vesp_rom_spiflash_program_page_internal
p3336
atp3337
a(L4222526342L
L0L
(lp3338
(lp3339
tp3340
a(L2004208511L
L0L
(lp3341
(lp3342
tp3343
a(L564470656L
L0L
(lp3344
(lp3345
tp3346
a(L2988842384L
L3785322319L
(lp3347
(lp3348
Vesp_rom_spiflash_program_page_internal
p3349
atp3350
a(L2302069176L
L0L
(lp3351
(lp3352
tp3353
atp3354
sI1074267628
(Vcall_start_cpu0
p3355
(lp3356
(L1137852827L
L0L
(lp3357
(lp3358
tp3359
a(L549459388L
L0L
(lp3360
(lp3361
tp3362
a(L3212347974L
L3785322319L
(lp3363
(lp3364
Vbootloader_init
p3365
atp3366
a(L94425498L
L3785322319L
(lp3367
(lp3368
Vbootloader_reset
p3369
atp3370
a(L1122046408L
L0L
(lp3371
(lp3372
tp3373
a(L4099474112L
L0L
(lp3374
(lp3375
tp3376
a(L3015046664L
L3785322319L
(lp3377
(lp3378
Vbootloader_utility_load_partition_table
p3379
atp3380
a(L2761094216L
L3785322319L
(lp3381
(lp3382
Vesp_log_early_timestamp
p3383
atp3384
a(L405422123L
L3785322319L
(lp3385
(lp3386
Vbootloader_utility_get_selected_boot_partition
p3387
atp3388
a(L2055385849L
L3785322319L
(lp3389
(lp3390
Vbootloader_utility_load_boot_image
p3391
atp3392
atp3393
sI1074237152
(Vbootloader_common_ota_select_invalid
p3394
(lp3395
(L4027567199L
L0L
(lp3396
(lp3397
tp3398
a(L3397985842L
L0L
(lp3399
(lp3400
tp3401
a(L2258867228L
L0L
(lp3402
(lp3403
tp3404
a(L3785235668L
L0L
(lp3405
(lp3406
tp3407
atp3408
sI1074236384
(Vbootloader_common_get_chip_ver_pkg
p3409
(lp3410
(L4238672956L
L0L
(lp3411
(lp3412
tp3413
atp3414
sI1074240480
(Vabort
p3415
(lp3416
(L2403762666L
L0L
(lp3417
(lp3418
tp3419
a(L409471316L
L0L
(lp3420
(lp3421
tp3422
a(L106L
L0L
(lp3423
(lp3424
tp3425
atp3426
sI1074247648
(Vesp_rom_spiflash_read
p3427
(lp3428
(L1167343399L
L0L
(lp3429
(lp3430
tp3431
a(L3343688047L
L0L
(lp3432
(lp3433
tp3434
a(L340311750L
L0L
(lp3435
(lp3436
tp3437
a(L2373999345L
L0L
(lp3438
(lp3439
tp3440
a(L106L
L0L
(lp3441
(lp3442
tp3443
a(L633884026L
L0L
(lp3444
(lp3445
tp3446
a(L106L
L0L
(lp3447
(lp3448
tp3449
a(L1888794130L
L0L
(lp3450
(lp3451
tp3452
a(L3094610161L
L0L
(lp3453
(lp3454
tp3455
a(L1969029945L
L0L
(lp3456
(lp3457
tp3458
a(L336550648L
L0L
(lp3459
(lp3460
tp3461
a(L834617250L
L0L
(lp3462
(lp3463
tp3464
a(L106L
L0L
(lp3465
(lp3466
tp3467
a(L2814283516L
L3785322319L
(lp3468
(lp3469
Vesp_rom_spiflash_wait_idle
p3470
atp3471
a(L3021737L
L0L
(lp3472
(lp3473
tp3474
a(L106L
L0L
(lp3475
(lp3476
tp3477
a(L1868280504L
L0L
(lp3478
(lp3479
tp3480
a(L106L
L0L
(lp3481
(lp3482
tp3483
a(L4039408969L
L0L
(lp3484
(lp3485
tp3486
a(L1221163038L
L0L
(lp3487
(lp3488
tp3489
a(L4122060822L
L0L
(lp3490
(lp3491
tp3492
a(L3654636374L
L0L
(lp3493
(lp3494
tp3495
a(L2989032L
L0L
(lp3496
(lp3497
tp3498
a(L3819849625L
L0L
(lp3499
(lp3500
tp3501
a(L2709531898L
L0L
(lp3502
(lp3503
tp3504
a(L1408515512L
L0L
(lp3505
(lp3506
tp3507
a(L3901822029L
L0L
(lp3508
(lp3509
tp3510
a(L895160379L
L0L
(lp3511
(lp3512
tp3513
a(L2921907736L
L0L
(lp3514
(lp3515
tp3516
a(L1328428270L
L0L
(lp3517
(lp3518
tp3519
a(L1309098969L
L0L
(lp3520
(lp3521
tp3522
a(L1205497444L
L0L
(lp3523
(lp3524
tp3525
a(L965017001L
L0L
(lp3526
(lp3527
tp3528
a(L781550816L
L0L
(lp3529
(lp3530
tp3531
a(L2687789892L
L0L
(lp3532
(lp3533
tp3534
a(L1405253496L
L0L
(lp3535
(lp3536
tp3537
a(L2880310901L
L0L
(lp3538
(lp3539
tp3540
a(L97689L
L0L
(lp3541
(lp3542
tp3543
a(L1183020347L
L0L
(lp3544
(lp3545
tp3546
a(L4014024819L
L0L
(lp3547
(lp3548
tp3549
a(L3621567083L
L0L
(lp3550
(lp3551
tp3552
atp3553
sI1074234604
(Vesp_flash_encryption_enabled
p3554
(lp3555
(L376617603L
L3785322319L
(lp3556
(lp3557
Vefuse_hal_flash_encryption_enabled
p3558
atp3559
atp3560
sI1074239720
(Vbootloader_reset
p3561
(lp3562
(L1447552070L
L3785322319L
(lp3563
(lp3564
Vbootloader_console_deinit
p3565
atp3566
a(L106L
L0L
(lp3567
(lp3568
tp3569
atp3570
sI1074245096
(Vrtc_clk_cpu_freq_mhz_to_config
p3571
(lp3572
(L908718885L
L3785322319L
(lp3573
(lp3574
Vrtc_clk_xtal_freq_get
p3575
atp3576
a(L60460069L
L0L
(lp3577
(lp3578
tp3579
a(L3802072124L
L0L
(lp3580
(lp3581
tp3582
a(L3159006042L
L0L
(lp3583
(lp3584
tp3585
a(L3360570486L
L0L
(lp3586
(lp3587
tp3588
a(L895147205L
L0L
(lp3589
(lp3590
tp3591
a(L3970036657L
L0L
(lp3592
(lp3593
tp3594
a(L2731353429L
L0L
(lp3595
(lp3596
tp3597
a(L1555485793L
L0L
(lp3598
(lp3599
tp3600
a(L2258897023L
L0L
(lp3601
(lp3602
tp3603
a(L1947499251L
L0L
(lp3604
(lp3605
tp3606
a(L1306331021L
L0L
(lp3607
(lp3608
tp3609
atp3610
sI1074240244
(Vbootloader_sha256_finish
p3611
(lp3612
(L4066096136L
L0L
(lp3613
(lp3614
tp3615
a(L1918014298L
L0L
(lp3616
(lp3617
tp3618
a(L3627025138L
L3785322319L
(lp3619
(lp3620
V__assert_func
p3621
atp3622
a(L3020204L
L0L
(lp3623
(lp3624
tp3625
a(L1140538619L
L0L
(lp3626
(lp3627
tp3628
a(L2534656226L
L0L
(lp3629
(lp3630
tp3631
a(L2746554839L
L3785322319L
(lp3632
(lp3633
Vbootloader_sha256_data
p3634
atp3635
a(L2437171593L
L0L
(lp3636
(lp3637
tp3638
a(L770086497L
L3785322319L
(lp3639
(lp3640
Vbootloader_sha256_data
p3641
atp3642
a(L2482436287L
L0L
(lp3643
(lp3644
tp3645
a(L657425439L
L0L
(lp3646
(lp3647
tp3648
a(L3971462626L
L0L
(lp3649
(lp3650
tp3651
a(L657425439L
L0L
(lp3652
(lp3653
tp3654
a(L1808515429L
L0L
(lp3655
(lp3656
tp3657
a(L4004422193L
L0L
(lp3658
(lp3659
tp3660
a(L3347778L
L0L
(lp3661
(lp3662
tp3663
a(L3360570486L
L0L
(lp3664
(lp3665
tp3666
atp3667
sI1074269436
(Vbootloader_check_bootloader_validity
p3668
(lp3669
(L1977038998L
L1880226080L
(lp3670
(lp3671
Vefuse_hal_chip_revision
p3672
aVbootloader_common_check_chip_validity
p3673
atp3674
atp3675
sI1074238704
(Vcache_ll_l1_enable_bus
p3676
(lp3677
(L3703586533L
L0L
(lp3678
(lp3679
tp3680
atp3681
sI1074237180
(Vbootloader_common_select_otadata
p3682
(lp3683
(L4071767857L
L0L
(lp3684
(lp3685
tp3686
a(L1999329187L
L0L
(lp3687
(lp3688
tp3689
a(L3846398843L
L0L
(lp3690
(lp3691
tp3692
a(L2501968171L
L0L
(lp3693
(lp3694
tp3695
a(L3360570486L
L0L
(lp3696
(lp3697
tp3698
a(L2045232488L
L0L
(lp3699
(lp3700
tp3701
a(L1243525916L
L0L
(lp3702
(lp3703
tp3704
a(L3094144427L
L0L
(lp3705
(lp3706
tp3707
a(L2399509845L
L0L
(lp3708
(lp3709
tp3710
a(L1641201884L
L0L
(lp3711
(lp3712
tp3713
atp3714
sI1074245372
(Vrtc_clk_apb_freq_update
p3715
(lp3716
(L648133901L
L0L
(lp3717
(lp3718
tp3719
atp3720
sI1074269684
(Vrtc_clk_xtal_freq_estimate
p3721
(lp3722
(L3845076426L
L1880226080L
(lp3723
(lp3724
Vrtc_clk_8m_enabled
p3725
aVrtc_clk_8md256_enabled
p3726
atp3727
a(L2449794434L
L3785322319L
(lp3728
(lp3729
Vrtc_clk_8m_enable
p3730
atp3731
a(L293008461L
L3785322319L
(lp3732
(lp3733
Vrtc_clk_cal_ratio
p3734
atp3735
a(L1894802584L
L0L
(lp3736
(lp3737
tp3738
a(L1915120046L
L0L
(lp3739
(lp3740
tp3741
a(L2740879690L
L0L
(lp3742
(lp3743
tp3744
a(L1059750288L
L3785322319L
(lp3745
(lp3746
Vrtc_clk_8m_enable
p3747
atp3748
a(L3401468681L
L3785322319L
(lp3749
(lp3750
Vesp_log_early_timestamp
p3751
atp3752
a(L2894376164L
L0L
(lp3753
(lp3754
tp3755
a(L1641150486L
L0L
(lp3756
(lp3757
tp3758
a(L2507662435L
L3785322319L
(lp3759
(lp3760
Vesp_log_early_timestamp
p3761
atp3762
a(L2081406323L
L3785322319L
(lp3763
(lp3764
Vesp_log_early_timestamp
p3765
atp3766
atp3767
sI1074235128
(Vbootloader_flash_unlock
p3768
(lp3769
(L2851757134L
L3785322319L
(lp3770
(lp3771
Vesp_rom_spiflash_wait_idle
p3772
atp3773
a(L4212373562L
L0L
(lp3774
(lp3775
tp3776
a(L4292483033L
L3785322319L
(lp3777
(lp3778
Vbootloader_execute_flash_command
p3779
atp3780
a(L106L
L0L
(lp3781
(lp3782
tp3783
a(L1303560644L
L0L
(lp3784
(lp3785
tp3786
a(L610618440L
L0L
(lp3787
(lp3788
tp3789
a(L106L
L0L
(lp3790
(lp3791
tp3792
a(L345249462L
L0L
(lp3793
(lp3794
tp3795
a(L106L
L0L
(lp3796
(lp3797
tp3798
a(L1024465569L
L0L
(lp3799
(lp3800
tp3801
a(L106L
L0L
(lp3802
(lp3803
tp3804
a(L1481761147L
L1880226080L
(lp3805
(lp3806
Vbootloader_execute_flash_command
p3807
aVbootloader_execute_flash_command
p3808
atp3809
a(L2258807654L
L0L
(lp3810
(lp3811
tp3812
a(L489806350L
L1832448559L
(lp3813
(lp3814
Vesp_rom_spiflash_wait_idle
p3815
aVbootloader_execute_flash_command
p3816
aVbootloader_execute_flash_command
p3817
atp3818
a(L879744646L
L1832448559L
(lp3819
(lp3820
Vesp_rom_spiflash_wait_idle
p3821
aVbootloader_execute_flash_command
p3822
aVbootloader_execute_flash_command
p3823
atp3824
a(L1840772931L
L1880226080L
(lp3825
(lp3826
Vesp_rom_spiflash_wait_idle
p3827
aVbootloader_execute_flash_command
p3828
atp3829
a(L2993202392L
L0L
(lp3830
(lp3831
tp3832
a(L508800419L
L1880226080L
(lp3833
(lp3834
Vbootloader_execute_flash_command
p3835
aVbootloader_execute_flash_command
p3836
atp3837
a(L1303560369L
L0L
(lp3838
(lp3839
tp3840
a(L1596544945L
L0L
(lp3841
(lp3842
tp3843
a(L97689L
L0L
(lp3844
(lp3845
tp3846
a(L106L
L0L
(lp3847
(lp3848
tp3849
atp3850
sI1074234616
(Vbootloader_flash_execute_command_common
p3851
(lp3852
(L3865052895L
L0L
(lp3853
(lp3854
tp3855
a(L120556223L
L0L
(lp3856
(lp3857
tp3858
a(L2890397610L
L3785322319L
(lp3859
(lp3860
V__assert_func
p3861
atp3862
a(L3021749L
L0L
(lp3863
(lp3864
tp3865
a(L153203357L
L0L
(lp3866
(lp3867
tp3868
a(L3967919202L
L0L
(lp3869
(lp3870
tp3871
a(L2091933878L
L0L
(lp3872
(lp3873
tp3874
a(L1702379862L
L0L
(lp3875
(lp3876
tp3877
a(L2587060668L
L0L
(lp3878
(lp3879
tp3880
a(L817326211L
L0L
(lp3881
(lp3882
tp3883
a(L3244449450L
L0L
(lp3884
(lp3885
tp3886
a(L3855586684L
L0L
(lp3887
(lp3888
tp3889
a(L2990329343L
L0L
(lp3890
(lp3891
tp3892
a(L2557390060L
L0L
(lp3893
(lp3894
tp3895
a(L3333696662L
L0L
(lp3896
(lp3897
tp3898
a(L963425213L
L0L
(lp3899
(lp3900
tp3901
a(L339491738L
L0L
(lp3902
(lp3903
tp3904
a(L3360570486L
L0L
(lp3905
(lp3906
tp3907
atp3908
sI1074239992
(Vindex_to_partition
p3909
(lp3910
(L4066096119L
L0L
(lp3911
(lp3912
tp3913
a(L1739185955L
L0L
(lp3914
(lp3915
tp3916
a(L2171552758L
L0L
(lp3917
(lp3918
tp3919
a(L2808906342L
L0L
(lp3920
(lp3921
tp3922
a(L2101481936L
L0L
(lp3923
(lp3924
tp3925
a(L3698927993L
L0L
(lp3926
(lp3927
tp3928
a(L2808826781L
L0L
(lp3929
(lp3930
tp3931
a(L3003398163L
L0L
(lp3932
(lp3933
tp3934
a(L2880709161L
L0L
(lp3935
(lp3936
tp3937
a(L1087646172L
L0L
(lp3938
(lp3939
tp3940
atp3941
ssS'functionsdups'
p3942
g11
((lp3943
tp3944
Rp3945
sS'immediatedups'
p3946
g11
((lp3947
tp3948
Rp3949
sS'functiondups'
p3950
g11
((lp3951
tp3952
Rp3953
sS'fuzzy'
p3954
(dp3955
L438947497L
I1074244816
sL2170867428L
I1074269868
sL617583950L
I1074236880
sL430153639L
I1074235768
sL3121027072L
I1074270304
sL2082889262L
I1074241352
sL291131346L
I1074244364
sL835568324L
I1074246244
sL1340445289L
I1074235520
sL2919016435L
I1074235128
sL16208487L
I1074234616
sL2319042089L
I1074244948
sL1907123383L
I1074238756
sL3881399234L
I1074245400
sL151789201L
I1074269684
sL1419132215L
I1074238004
sL2469233929L
I1074240244
sL701833459L
I1074268624
sL2475522855L
I1074269600
sL3897252859L
I1074238412
sL1065525808L
I1074236720
sL1766137975L
I1074238620
sL2327783177L
I1074240536
sL2272466760L
I1074245188
sL2117292686L
I1074240956
sL1188065553L
I1074237564
sL1415908896L
I1074241572
sL94556391L
I1074244976
sL3210669721L
I1074244580
sL1332800441L
I1074237112
sL2884218272L
I1074267736
sL1345429244L
I1074240708
sL3190020590L
I1074242196
sL477634984L
I1074267956
sL4160102055L
I1074239720
sL4202185385L
I1074246960
sL1768086576L
I1074236236
sL4171975289L
I1074247260
sL1565254297L
I1074247560
sL1205407754L
I1074239752
sL2191698036L
I1074269464
sL1635528231L
I1074243596
sL519424169L
I1074246712
sL1060788199L
I1074245096
sL4006207895L
I1074239132
sL406720601L
I1074238496
sL737694352L
I1074247068
sL503029138L
I1074247008
sL1616763831L
I1074247648
sL2262558768L
I1074246872
sL424867129L
I1074247396
sL3834155367L
I1074240900
sL2405032630L
I1074267628
sL3338518926L
I1074237288
sL1299206787L
I1074239232
sL2123938668L
I1074245516
sL3883282432L
I1074241444
sL4173399607L
I1074242712
sL4278077574L
I1074239444
sL1667054119L
I1074240088
sL206902443L
I1074237836
ssb.