ccopy_reg
_reconstructor
p0
(crizzo
RizzoSignature
p1
c__builtin__
object
p2
Ntp3
Rp4
(dp5
S'formal'
p6
(dp7
L2399612421L
I1074245492
sL1207862518L
I1074240600
sL250925565L
I1074238616
sL1741170115L
I1074237936
sL4057657041L
I1074243164
sL1725217240L
I1074237684
sL3383128245L
I1074239400
sL3960991490L
I1074269988
sL389767469L
I1074238740
sL1237733855L
I1074238840
sL4213015302L
I1074243148
sL2940696155L
I1074245852
sL1057008413L
I1074239764
sL3545118830L
I1074267836
sL2572469622L
I1074247164
sL3183029151L
I1074236704
sL818480367L
I1074236600
sL693028457L
I1074240424
sL3232221579L
I1074244652
sL142168405L
I1074245824
sL1246203243L
I1074248100
sL2702580795L
I1074237300
sL3646029665L
I1074244816
sL1600148817L
I1074270024
sL2896295319L
I1074236840
sL944494460L
I1074245032
sL1674148343L
I1074245548
sL2030740789L
I1074246652
sL3372451650L
I1074240812
sL4171974888L
I1074269896
sL2485902447L
I1074236680
sL2460396001L
I1074248012
sL1194582906L
I1074245268
sL3622470307L
I1074247324
sL3333913339L
I1074243452
sL4263947382L
I1074236504
sL1430212718L
I1074237000
sL2914590188L
I1074269924
sL2166402678L
I1074235776
sL3791484843L
I1074267139
sL1585823442L
I1074244464
sL2980528895L
I1074270852
sL434079622L
I1074240836
sL1622896354L
I1074244492
sL3213302492L
I1074269632
sL3350648555L
I1074237408
sL3705747329L
I1074247412
sL4114369372L
I1074247712
sL2205902618L
I1074239280
sL878917889L
I1074238124
sL2715653561L
I1074245428
sL1016500464L
I1074244972
sL3322600544L
I1074240892
sL2951847322L
I1074244680
sL4105206235L
I1074247520
sL747962360L
I1074236744
sL361883644L
I1074240076
sL2657237012L
I1074245092
sL3169546899L
I1074236356
sL2128774811L
I1074236536
sL1259414891L
I1074245220
sL3914567465L
I1074268056
sL3010229777L
I1074246696
sL768348750L
I1074238788
sL426984944L
I1074236912
sL4117027047L
I1074268832
sL676927194L
I1074269120
sL2277098556L
I1074236812
sL3307282855L
I1074238096
sL1853923591L
I1074245400
sL911764690L
I1074237632
sL2563964767L
I1074235888
sL1043339424L
I1074240348
sL3837755948L
I1074240444
sL60374282L
I1074245244
sL314554666L
I1074245640
sL1141372050L
I1074270692
sL2472605942L
I1074245780
sL1109026444L
I1074269768
sL2923973333L
I1074245968
sL1687894276L
I1074244364
sL4038945309L
I1074235572
sL3167898227L
I1074270072
sL4100494285L
I1074247848
sL2626436395L
I1074236944
sL1275163307L
I1074244564
sL17106344L
I1074269700
sL3050555005L
I1074247132
sL2997001746L
I1074237232
sL952722552L
I1074247460
sL3308751493L
I1074241064
sL1332374493L
I1074269616
sL2819127986L
I1074236964
sL1565966572L
I1074240108
sL3073265555L
I1074237956
sL3275213961L
I1074238204
sL1781962889L
I1074241800
sL1877634603L
I1074270924
sL1317093701L
I1074238532
sL3379108269L
I1074244048
sL2987381963L
I1074269128
sL4058363426L
I1074241708
sL3459889393L
I1074244396
sL4081919617L
I1074238892
sL3172818640L
I1074270256
sL2443786874L
I1074241312
sL404293581L
I1074237376
sL2263182908L
I1074238116
sL1267159130L
I1074235228
sL4081730711L
I1074242648
sL3630163135L
I1074236828
sL188664287L
I1074235196
sL782838600L
I1074240796
sL1499807873L
I1074244612
sL3075360168L
I1074241256
sL692536993L
I1074237272
sL1963047656L
I1074234716
sL3300000600L
I1074268888
sL2569070799L
I1074241928
sL1636616062L
I1074235520
sL3049985855L
I1074235620
sL3018942732L
I1074267728
sL366071084L
I1074269656
sL2398800133L
I1074245508
ssS'immediates'
p8
(dp9
sS'formaldups'
p10
c__builtin__
set
p11
((lp12
tp13
Rp14
sS'stringdups'
p15
g11
((lp16
tp17
Rp18
sS'fuzzydups'
p19
g11
((lp20
tp21
Rp22
sS'strings'
p23
(dp24
sS'functions'
p25
(dp26
I1074244612
(Vefuse_hal_get_rated_freq_mhz
p27
(lp28
(L3387138627L
L0L
(lp29
(lp30
tp31
a(L3671388797L
L0L
(lp32
(lp33
tp34
a(L3360570486L
L0L
(lp35
(lp36
tp37
atp38
sI1074237956
(Vbootloader_flash_write
p39
(lp40
(L3770380603L
L0L
(lp41
(lp42
tp43
a(L379117946L
L3785322319L
(lp44
(lp45
Vesp_log_early_timestamp
p46
atp47
a(L283255622L
L0L
(lp48
(lp49
tp50
a(L1610445075L
L0L
(lp51
(lp52
tp53
a(L735741265L
L0L
(lp54
(lp55
tp56
a(L3291333414L
L0L
(lp57
(lp58
tp59
a(L553944362L
L3785322319L
(lp60
(lp61
Vesp_log_early_timestamp
p62
atp63
a(L3283691850L
L0L
(lp64
(lp65
tp66
a(L3791206662L
L3785322319L
(lp67
(lp68
Vesp_log_early_timestamp
p69
atp70
a(L3212356251L
L3785322319L
(lp71
(lp72
Vbootloader_flash_unlock
p73
atp74
a(L1799218633L
L0L
(lp75
(lp76
tp77
a(L94425498L
L3785322319L
(lp78
(lp79
Vesp_rom_spiflash_write_encrypted
p80
atp81
a(L2927190544L
L3785322319L
(lp82
(lp83
Vspi_to_esp_err
p84
atp85
a(L2927190544L
L3785322319L
(lp86
(lp87
Vesp_rom_spiflash_write
p88
atp89
atp90
sI1074267136
(V_init
p91
(lp92
(L3493042598L
L0L
(lp93
(lp94
tp95
atp96
sI1074244364
(Vwdt_hal_write_protect_disable
p97
(lp98
(L3345031483L
L0L
(lp99
(lp100
tp101
a(L4195472003L
L0L
(lp102
(lp103
tp104
a(L3360570486L
L0L
(lp105
(lp106
tp107
a(L1210571996L
L0L
(lp108
(lp109
tp110
atp111
sI1074245388
(Vrtc_clk_slow_src_get
p112
(lp113
(L376617603L
L3785322319L
(lp114
(lp115
Vclk_ll_rtc_slow_get_src
p116
atp117
atp118
sI1074267139
(V_text_start
p119
(lp120
(L1817914933L
L0L
(lp121
(lp122
tp123
a(L536106224L
L0L
(lp124
(lp125
tp126
atp127
sI1074269700
(Vbootloader_check_bootloader_validity
p128
(lp129
(L3216107859L
L1832448559L
(lp130
(lp131
Vefuse_hal_chip_revision
p132
aVesp_log_early_timestamp
p133
aVbootloader_common_check_chip_validity
p134
atp135
atp136
sI1074241800
(Vshould_load
p137
(lp138
(L1379502686L
L0L
(lp139
(lp140
tp141
a(L1182990556L
L0L
(lp142
(lp143
tp144
a(L1188500889L
L0L
(lp145
(lp146
tp147
a(L2306467100L
L0L
(lp148
(lp149
tp150
a(L1002638193L
L0L
(lp151
(lp152
tp153
a(L2258897019L
L0L
(lp154
(lp155
tp156
a(L3781799363L
L0L
(lp157
(lp158
tp159
a(L3028464L
L0L
(lp160
(lp161
tp162
a(L2219325068L
L0L
(lp163
(lp164
tp165
a(L4277114872L
L0L
(lp166
(lp167
tp168
a(L2824381917L
L0L
(lp169
(lp170
tp171
a(L1243412227L
L0L
(lp172
(lp173
tp174
a(L2011157548L
L0L
(lp175
(lp176
tp177
a(L3126521138L
L0L
(lp178
(lp179
tp180
a(L1305407438L
L0L
(lp181
(lp182
tp183
a(L1305407469L
L0L
(lp184
(lp185
tp186
atp187
sI1074236680
(Vefuse_hal_chip_revision
p188
(lp189
(L2719302832L
L1880226080L
(lp190
(lp191
Vefuse_hal_get_major_chip_version
p192
aVefuse_hal_get_minor_chip_version
p193
atp194
atp195
sI1074245640
(Vrtc_clk_cpu_freq_get_config
p196
(lp197
(L3852097526L
L0L
(lp198
(lp199
tp200
a(L3020187L
L0L
(lp201
(lp202
tp203
a(L3020187L
L0L
(lp204
(lp205
tp206
a(L1339883774L
L3785322319L
(lp207
(lp208
Vrtc_clk_xtal_freq_get
p209
atp210
a(L3789795478L
L0L
(lp211
(lp212
tp213
a(L1360441458L
L1880226080L
(lp214
(lp215
Vesp_log_early_timestamp
p216
aVabort
p217
atp218
a(L3035450075L
L0L
(lp219
(lp220
tp221
a(L3020187L
L0L
(lp222
(lp223
tp224
a(L3028481L
L0L
(lp225
(lp226
tp227
a(L38508693L
L0L
(lp228
(lp229
tp230
a(L187152368L
L0L
(lp231
(lp232
tp233
a(L1161083655L
L0L
(lp234
(lp235
tp236
a(L1395485899L
L0L
(lp237
(lp238
tp239
a(L2070600034L
L0L
(lp240
(lp241
tp242
atp243
sI1074239764
(Vbootloader_utility_get_selected_boot_partition
p244
(lp245
(L2184143128L
L0L
(lp246
(lp247
tp248
a(L3562950348L
L0L
(lp249
(lp250
tp251
a(L2305665381L
L3785322319L
(lp252
(lp253
Vesp_log_early_timestamp
p254
atp255
a(L4182535910L
L0L
(lp256
(lp257
tp258
a(L3360570486L
L0L
(lp259
(lp260
tp261
a(L1375577398L
L3785322319L
(lp262
(lp263
Vbootloader_mmap
p264
atp265
a(L4068127698L
L3785322319L
(lp266
(lp267
Vesp_log_early_timestamp
p268
atp269
a(L2463613311L
L1880226080L
(lp270
(lp271
Vbootloader_munmap
p272
aVbootloader_common_ota_select_invalid
p273
atp274
a(L1103573946L
L0L
(lp275
(lp276
tp277
a(L1876835593L
L3785322319L
(lp278
(lp279
Vbootloader_common_get_active_otadata
p280
atp281
a(L106L
L0L
(lp282
(lp283
tp284
a(L569346373L
L0L
(lp285
(lp286
tp287
a(L788494392L
L3785322319L
(lp288
(lp289
Vbootloader_common_ota_select_invalid
p290
atp291
a(L2801470901L
L0L
(lp292
(lp293
tp294
a(L3473477973L
L3785322319L
(lp295
(lp296
Vesp_log_early_timestamp
p297
atp298
a(L2708875653L
L3785322319L
(lp299
(lp300
Vesp_log_early_timestamp
p301
atp302
a(L505081345L
L0L
(lp303
(lp304
tp305
a(L919052234L
L3785322319L
(lp306
(lp307
Vbootloader_common_ota_select_crc
p308
atp309
a(L2287680455L
L0L
(lp310
(lp311
tp312
a(L3542558037L
L3785322319L
(lp313
(lp314
Vbootloader_common_ota_select_crc
p315
atp316
a(L1299866312L
L0L
(lp317
(lp318
tp319
a(L1279036405L
L0L
(lp320
(lp321
tp322
a(L1406565969L
L3785322319L
(lp323
(lp324
Vesp_log_early_timestamp
p325
atp326
a(L190989796L
L0L
(lp327
(lp328
tp329
a(L4142614645L
L3785322319L
(lp330
(lp331
Vesp_log_early_timestamp
p332
atp333
atp334
sI1074238740
(Vtry_load_partition
p335
(lp336
(L1263750142L
L0L
(lp337
(lp338
tp339
a(L2258688482L
L0L
(lp340
(lp341
tp342
a(L3360570486L
L0L
(lp343
(lp344
tp345
a(L530241438L
L3785322319L
(lp346
(lp347
Vbootloader_load_image
p348
atp349
a(L333775216L
L3785322319L
(lp350
(lp351
Vesp_log_early_timestamp
p352
atp353
atp354
sI1074236944
(Vbootloader_common_ota_select_crc
p355
(lp356
(L3214440559L
L0L
(lp357
(lp358
tp359
atp360
sI1074240796
(Vbootloader_console_deinit
p361
(lp362
(L4005071210L
L0L
(lp363
(lp364
tp365
atp366
sI1074245400
(Vrtc_clk_slow_freq_get_hz
p367
(lp368
(L1826267122L
L3785322319L
(lp369
(lp370
Vclk_ll_rtc_slow_get_src
p371
atp372
a(L4158856552L
L0L
(lp373
(lp374
tp375
a(L3631005815L
L0L
(lp376
(lp377
tp378
a(L702740041L
L0L
(lp379
(lp380
tp381
a(L3360570486L
L0L
(lp382
(lp383
tp384
atp385
sI1074236964
(Vbootloader_common_ota_select_valid
p386
(lp387
(L1563399710L
L3785322319L
(lp388
(lp389
Vbootloader_common_ota_select_invalid
p390
atp391
a(L3814720849L
L3785322319L
(lp392
(lp393
Vbootloader_common_ota_select_crc
p394
atp395
a(L3360570486L
L0L
(lp396
(lp397
tp398
atp399
sI1074247460
(Vesp_rom_spiflash_enable_write
p400
(lp401
(L2890359061L
L3785322319L
(lp402
(lp403
Vesp_rom_spiflash_wait_idle
p404
atp405
a(L3137194272L
L0L
(lp406
(lp407
tp408
a(L2258718275L
L0L
(lp409
(lp410
tp411
a(L99543895L
L0L
(lp412
(lp413
tp414
a(L2993202392L
L0L
(lp415
(lp416
tp417
a(L1804543818L
L3785322319L
(lp418
(lp419
Vesp_rom_spiflash_read_status
p420
atp421
atp422
sI1074236704
(Vefuse_hal_flash_encryption_enabled
p423
(lp424
(L176925918L
L0L
(lp425
(lp426
tp427
a(L2910371777L
L0L
(lp428
(lp429
tp430
a(L3360570486L
L0L
(lp431
(lp432
tp433
a(L3016870L
L0L
(lp434
(lp435
tp436
a(L3745038218L
L0L
(lp437
(lp438
tp439
a(L957607403L
L0L
(lp440
(lp441
tp442
atp443
sI1074241312
(Vverify_load_addresses
p444
(lp445
(L2764487219L
L0L
(lp446
(lp447
tp448
a(L106L
L0L
(lp449
(lp450
tp451
a(L97642L
L0L
(lp452
(lp453
tp454
a(L532903251L
L3785322319L
(lp455
(lp456
V__assert_func
p457
atp458
a(L170023642L
L0L
(lp459
(lp460
tp461
a(L106L
L0L
(lp462
(lp463
tp464
a(L993824775L
L0L
(lp465
(lp466
tp467
a(L106L
L0L
(lp468
(lp469
tp470
a(L3188534306L
L3785322319L
(lp471
(lp472
Vbootloader_util_regions_overlap
p473
atp474
a(L3284083279L
L3785322319L
(lp475
(lp476
Vbootloader_util_regions_overlap
p477
atp478
a(L3028481L
L0L
(lp479
(lp480
tp481
a(L1178890466L
L3785322319L
(lp482
(lp483
Vbootloader_util_regions_overlap
p484
atp485
a(L2117228786L
L0L
(lp486
(lp487
tp488
a(L273144354L
L0L
(lp489
(lp490
tp491
a(L1016222393L
L0L
(lp492
(lp493
tp494
a(L2661576437L
L0L
(lp495
(lp496
tp497
a(L2503437888L
L0L
(lp498
(lp499
tp500
a(L677569396L
L3785322319L
(lp501
(lp502
Vverify_load_addresses
p503
atp504
a(L1351513776L
L0L
(lp505
(lp506
tp507
a(L3061261803L
L0L
(lp508
(lp509
tp510
a(L2743341656L
L0L
(lp511
(lp512
tp513
a(L791897016L
L0L
(lp514
(lp515
tp516
a(L729859039L
L0L
(lp517
(lp518
tp519
a(L4026856790L
L3785322319L
(lp520
(lp521
Vbootloader_util_regions_overlap
p522
atp523
a(L3028481L
L0L
(lp524
(lp525
tp526
a(L1567678174L
L3785322319L
(lp527
(lp528
Vbootloader_util_regions_overlap
p529
atp530
a(L2782864159L
L0L
(lp531
(lp532
tp533
a(L476078031L
L0L
(lp534
(lp535
tp536
a(L1301487450L
L0L
(lp537
(lp538
tp539
a(L1527375920L
L0L
(lp540
(lp541
tp542
a(L307916850L
L0L
(lp543
(lp544
tp545
a(L697239146L
L0L
(lp546
(lp547
tp548
a(L106L
L0L
(lp549
(lp550
tp551
a(L955505162L
L0L
(lp552
(lp553
tp554
a(L307917400L
L0L
(lp555
(lp556
tp557
a(L490080443L
L0L
(lp558
(lp559
tp560
a(L106L
L0L
(lp561
(lp562
tp563
a(L1750282664L
L3785322319L
(lp564
(lp565
Vesp_log_early_timestamp
p566
atp567
a(L955505038L
L0L
(lp568
(lp569
tp570
a(L1303560427L
L0L
(lp571
(lp572
tp573
atp574
sI1074247712
(Vesp_rom_spiflash_erase_sector
p575
(lp576
(L2842607933L
L0L
(lp577
(lp578
tp579
a(L2258688483L
L0L
(lp580
(lp581
tp582
a(L3360570486L
L0L
(lp583
(lp584
tp585
a(L3212356251L
L3785322319L
(lp586
(lp587
Vesp_rom_spiflash_enable_write
p588
atp589
a(L184152988L
L0L
(lp590
(lp591
tp592
a(L1048301933L
L3785322319L
(lp593
(lp594
Vesp_rom_spiflash_wait_idle
p595
atp596
a(L3333707777L
L0L
(lp597
(lp598
tp599
a(L3582858798L
L3785322319L
(lp600
(lp601
Vesp_rom_spiflash_wait_idle
p602
atp603
atp604
sI1074244652
(Vclk_ll_rtc_slow_get_src
p605
(lp606
(L416280487L
L0L
(lp607
(lp608
tp609
a(L3020187L
L0L
(lp610
(lp611
tp612
a(L2902417580L
L0L
(lp613
(lp614
tp615
a(L2258688485L
L0L
(lp616
(lp617
tp618
a(L3360570486L
L0L
(lp619
(lp620
tp621
atp622
sI1074244396
(Vwdt_hal_set_flashboot_en
p623
(lp624
(L2375320464L
L0L
(lp625
(lp626
tp627
a(L3915867581L
L0L
(lp628
(lp629
tp630
a(L3360570486L
L0L
(lp631
(lp632
tp633
a(L1643092119L
L0L
(lp634
(lp635
tp636
atp637
sI1074240812
(V__assert_func
p638
(lp639
(L2442535194L
L0L
(lp640
(lp641
tp642
a(L106L
L0L
(lp643
(lp644
tp645
atp646
sI1074269988
(Vbootloader_console_init
p647
(lp648
(L2850348327L
L1832448559L
(lp649
(lp650
Vesp_rom_uart_tx_wait_idle
p651
aVrtc_clk_apb_freq_get
p652
aVesp_rom_uart_set_clock_baudrate
p653
atp654
atp655
sI1074241064
(Vprocess_image_header
p656
(lp657
(L4286422149L
L3785322319L
(lp658
(lp659
Vbootloader_flash_read
p660
atp661
a(L3020204L
L0L
(lp662
(lp663
tp664
a(L4130667142L
L0L
(lp665
(lp666
tp667
a(L3131381282L
L0L
(lp668
(lp669
tp670
a(L1161397362L
L3785322319L
(lp671
(lp672
Vbootloader_sha256_start
p673
atp674
a(L1948257695L
L3785322319L
(lp675
(lp676
Vbootloader_sha256_data
p677
atp678
a(L1095449651L
L0L
(lp679
(lp680
tp681
a(L3020204L
L0L
(lp682
(lp683
tp684
a(L702739510L
L0L
(lp685
(lp686
tp687
a(L3360570486L
L0L
(lp688
(lp689
tp690
a(L3054617820L
L3785322319L
(lp691
(lp692
Vesp_log_early_timestamp
p693
atp694
a(L3718883008L
L3785322319L
(lp695
(lp696
Vbootloader_common_check_chip_validity
p697
atp698
a(L3677035427L
L0L
(lp699
(lp700
tp701
a(L3028481L
L0L
(lp702
(lp703
tp704
a(L1573338106L
L3785322319L
(lp705
(lp706
Vesp_log_early_timestamp
p707
atp708
a(L2250109166L
L0L
(lp709
(lp710
tp711
a(L1235012870L
L0L
(lp712
(lp713
tp714
a(L3063569071L
L0L
(lp715
(lp716
tp717
atp718
sI1074246696
(Vrtc_clk_cal_internal
p719
(lp720
(L3168308412L
L0L
(lp721
(lp722
tp723
a(L3891782131L
L3785322319L
(lp724
(lp725
V__assert_func
p726
atp727
a(L4026264710L
L0L
(lp728
(lp729
tp730
a(L54826884L
L0L
(lp731
(lp732
tp733
a(L234746575L
L0L
(lp734
(lp735
tp736
a(L861896856L
L3785322319L
(lp737
(lp738
Vrtc_clk_8m_enable
p739
atp740
a(L2689039534L
L3785322319L
(lp741
(lp742
Vrtc_clk_slow_src_get
p743
atp744
a(L1211065969L
L0L
(lp745
(lp746
tp747
a(L97689L
L0L
(lp748
(lp749
tp750
a(L1703854795L
L0L
(lp751
(lp752
tp753
a(L3028464L
L0L
(lp754
(lp755
tp756
a(L3028481L
L0L
(lp757
(lp758
tp759
a(L3450258732L
L0L
(lp760
(lp761
tp762
a(L944966L
L3785322319L
(lp763
(lp764
Vrtc_clk_xtal_freq_get
p765
atp766
a(L2780079961L
L0L
(lp767
(lp768
tp769
a(L3848725940L
L0L
(lp770
(lp771
tp772
a(L619937158L
L3785322319L
(lp773
(lp774
Vesp_log_early_timestamp
p775
atp776
a(L3360570486L
L0L
(lp777
(lp778
tp779
a(L794862694L
L0L
(lp780
(lp781
tp782
a(L3121398759L
L0L
(lp783
(lp784
tp785
a(L2910371777L
L0L
(lp786
(lp787
tp788
a(L2902417580L
L0L
(lp789
(lp790
tp791
a(L4153720753L
L0L
(lp792
(lp793
tp794
a(L3631005548L
L0L
(lp795
(lp796
tp797
a(L2144990312L
L0L
(lp798
(lp799
tp800
a(L3352263364L
L0L
(lp801
(lp802
tp803
a(L3028464L
L0L
(lp804
(lp805
tp806
a(L1325746132L
L3785322319L
(lp807
(lp808
Vrtc_clk_8m_enable
p809
atp810
atp811
sI1074245428
(Vrtc_clk_fast_src_set
p812
(lp813
(L1233611555L
L0L
(lp814
(lp815
tp816
a(L3020187L
L0L
(lp817
(lp818
tp819
a(L3827921190L
L3785322319L
(lp820
(lp821
Vabort
p822
atp823
a(L209959690L
L0L
(lp824
(lp825
tp826
a(L1379824320L
L0L
(lp827
(lp828
tp829
a(L300459962L
L0L
(lp830
(lp831
tp832
atp833
sI1074237232
(Vbootloader_common_get_active_otadata
p834
(lp835
(L3317503532L
L0L
(lp836
(lp837
tp838
a(L2503049265L
L1832448559L
(lp839
(lp840
Vbootloader_common_ota_select_valid
p841
aVbootloader_common_ota_select_valid
p842
aVbootloader_common_select_otadata
p843
atp844
a(L735741265L
L0L
(lp845
(lp846
tp847
atp848
sI1074239280
(Vset_actual_ota_seq
p849
(lp850
(L4094723830L
L0L
(lp851
(lp852
tp853
a(L2573507321L
L0L
(lp854
(lp855
tp856
a(L3461827603L
L1832448559L
(lp857
(lp858
Vbootloader_common_ota_select_crc
p859
aVesp_flash_encryption_enabled
p860
aVbootloader_flash_erase_sector
p861
atp862
a(L3292941333L
L3785322319L
(lp863
(lp864
Vbootloader_flash_write
p865
atp866
a(L2509823013L
L3785322319L
(lp867
(lp868
Vesp_log_early_timestamp
p869
atp870
a(L3684787734L
L3785322319L
(lp871
(lp872
Vesp_log_early_timestamp
p873
atp874
a(L3360570486L
L0L
(lp875
(lp876
tp877
atp878
sI1074270256
(Vrtc_clk_init
p879
(lp880
(L1872218746L
L0L
(lp881
(lp882
tp883
a(L42671777L
L3785322319L
(lp884
(lp885
Vrtc_clk_cpu_freq_to_xtal
p886
atp887
a(L1588890820L
L3785322319L
(lp888
(lp889
Vrtc_clk_xtal_freq_get
p890
atp891
a(L89029051L
L0L
(lp892
(lp893
tp894
a(L4187693717L
L3785322319L
(lp895
(lp896
Vrtc_clk_xtal_freq_estimate
p897
atp898
a(L1317008202L
L3785322319L
(lp899
(lp900
Vesp_log_early_timestamp
p901
atp902
a(L3408606676L
L1157885199L
(lp903
(lp904
Vesp_rom_uart_tx_wait_idle
p905
aVrtc_clk_xtal_freq_update
p906
aVrtc_clk_apb_freq_update
p907
aVrtc_clk_cpu_freq_get_config
p908
aVrtc_clk_cpu_freq_mhz_to_config
p909
atp910
a(L1756602428L
L1880226080L
(lp911
(lp912
Vesp_log_early_timestamp
p913
aVabort
p914
atp915
a(L3028481L
L0L
(lp916
(lp917
tp918
a(L4070631611L
L3785322319L
(lp919
(lp920
Vrtc_clk_xtal_freq_estimate
p921
atp922
a(L404050455L
L3785322319L
(lp923
(lp924
Vesp_log_early_timestamp
p925
atp926
a(L2517778479L
L3785322319L
(lp927
(lp928
Vrtc_clk_cpu_freq_set_config
p929
atp930
a(L912310138L
L3785322319L
(lp931
(lp932
Vrtc_clk_32k_enable
p933
atp934
a(L3191820416L
L1832448559L
(lp935
(lp936
Vrtc_clk_8m_enable
p937
aVrtc_clk_fast_src_set
p938
aVrtc_clk_slow_src_set
p939
atp940
a(L1232958848L
L0L
(lp941
(lp942
tp943
atp944
sI1074235196
(Vbootloader_execute_flash_command
p945
(lp946
(L2481595632L
L3785322319L
(lp947
(lp948
Vbootloader_flash_execute_command_common
p949
atp950
atp951
sI1074238520
(Vbootloader_clock_get_rated_freq_mhz
p952
(lp953
(L376617603L
L3785322319L
(lp954
(lp955
Vefuse_hal_get_rated_freq_mhz
p956
atp957
atp958
sI1074269768
(Vbootloader_config_wdt
p959
(lp960
(L197822005L
L505859776L
(lp961
(lp962
Vwdt_hal_write_protect_disable
p963
aVwdt_hal_set_flashboot_en
p964
aVwdt_hal_write_protect_enable
p965
aVwdt_hal_init
p966
aVrtc_clk_slow_freq_get_hz
p967
aVwdt_hal_write_protect_disable
p968
aVwdt_hal_config_stage
p969
aVwdt_hal_enable
p970
aVwdt_hal_write_protect_enable
p971
aVwdt_hal_write_protect_disable
p972
aVwdt_hal_set_flashboot_en
p973
aVwdt_hal_write_protect_enable
p974
atp975
atp976
sI1074270024
(Vesp_cpu_configure_region_protection
p977
(lp978
(L2243703604L
L0L
(lp979
(lp980
tp981
a(L180431425L
L3785322319L
(lp982
(lp983
Vmpu_hal_set_region_access
p984
atp985
a(L2537388152L
L3785322319L
(lp986
(lp987
Vmpu_hal_set_region_access
p988
atp989
atp990
sI1074238532
(Vlog_invalid_app_partition
p991
(lp992
(L3121159614L
L0L
(lp993
(lp994
tp995
a(L3028464L
L0L
(lp996
(lp997
tp998
a(L1381405837L
L3785322319L
(lp999
(lp1000
Vesp_log_early_timestamp
p1001
atp1002
a(L283255622L
L0L
(lp1003
(lp1004
tp1005
a(L3360570486L
L0L
(lp1006
(lp1007
tp1008
a(L3430459325L
L3785322319L
(lp1009
(lp1010
Vesp_log_early_timestamp
p1011
atp1012
a(L632945191L
L3785322319L
(lp1013
(lp1014
Vesp_log_early_timestamp
p1015
atp1016
atp1017
sI1074238788
(Vcache_ll_l1_enable_bus
p1018
(lp1019
(L1908488057L
L0L
(lp1020
(lp1021
tp1022
atp1023
sI1074240836
(Vabort
p1024
(lp1025
(L249968219L
L0L
(lp1026
(lp1027
tp1028
a(L409471316L
L0L
(lp1029
(lp1030
tp1031
a(L106L
L0L
(lp1032
(lp1033
tp1034
atp1035
sI1074240076
(Vbootloader_reset
p1036
(lp1037
(L4042037720L
L3785322319L
(lp1038
(lp1039
Vbootloader_console_deinit
p1040
atp1041
a(L106L
L0L
(lp1042
(lp1043
tp1044
atp1045
sI1074243148
(Vbootloader_load_image
p1046
(lp1047
(L1155870502L
L3785322319L
(lp1048
(lp1049
Vimage_load
p1050
atp1051
atp1052
sI1074248012
(Vesp_rom_spiflash_write_encrypted
p1053
(lp1054
(L1944247967L
L0L
(lp1055
(lp1056
tp1057
a(L3637183229L
L0L
(lp1058
(lp1059
tp1060
a(L97689L
L0L
(lp1061
(lp1062
tp1063
a(L3061232074L
L0L
(lp1064
(lp1065
tp1066
a(L1678068038L
L0L
(lp1067
(lp1068
tp1069
a(L1309309703L
L3785322319L
(lp1070
(lp1071
Vesp_rom_spiflash_write
p1072
atp1073
a(L3850908019L
L0L
(lp1074
(lp1075
tp1076
a(L735741265L
L0L
(lp1077
(lp1078
tp1079
atp1080
sI1074236744
(Vefuse_hal_get_major_chip_version
p1081
(lp1082
(L2489568354L
L0L
(lp1083
(lp1084
tp1085
a(L894792960L
L0L
(lp1086
(lp1087
tp1088
a(L3783348505L
L0L
(lp1089
(lp1090
tp1091
a(L3360570486L
L0L
(lp1092
(lp1093
tp1094
atp1095
sI1074237000
(Vbootloader_common_check_chip_validity
p1096
(lp1097
(L392423210L
L0L
(lp1098
(lp1099
tp1100
a(L1681335572L
L3785322319L
(lp1101
(lp1102
Vesp_log_early_timestamp
p1103
atp1104
a(L522103407L
L3785322319L
(lp1105
(lp1106
Vefuse_hal_chip_revision
p1107
atp1108
a(L106L
L0L
(lp1109
(lp1110
tp1111
a(L1989150608L
L0L
(lp1112
(lp1113
tp1114
a(L865579151L
L3785322319L
(lp1115
(lp1116
Vesp_log_early_timestamp
p1117
atp1118
a(L3028464L
L0L
(lp1119
(lp1120
tp1121
a(L1397322129L
L0L
(lp1122
(lp1123
tp1124
a(L3021749L
L0L
(lp1125
(lp1126
tp1127
a(L240495317L
L3785322319L
(lp1128
(lp1129
Vesp_log_early_timestamp
p1130
atp1131
a(L1299867982L
L0L
(lp1132
(lp1133
tp1134
a(L3360570486L
L0L
(lp1135
(lp1136
tp1137
atp1138
sI1074244680
(Vrtc_clk_32k_enable_common
p1139
(lp1140
(L1442393279L
L0L
(lp1141
(lp1142
tp1143
a(L97689L
L0L
(lp1144
(lp1145
tp1146
a(L2218417250L
L0L
(lp1147
(lp1148
tp1149
a(L533879761L
L0L
(lp1150
(lp1151
tp1152
a(L51458058L
L0L
(lp1153
(lp1154
tp1155
atp1156
sI1074234704
(Vesp_flash_encryption_enabled
p1157
(lp1158
(L376617603L
L3785322319L
(lp1159
(lp1160
Vefuse_hal_flash_encryption_enabled
p1161
atp1162
atp1163
sI1074245968
(Vrtc_clk_cpu_freq_set_config
p1164
(lp1165
(L97989050L
L3785322319L
(lp1166
(lp1167
Vrtc_clk_xtal_freq_get
p1168
atp1169
a(L3020187L
L0L
(lp1170
(lp1171
tp1172
a(L3028464L
L0L
(lp1173
(lp1174
tp1175
a(L264223053L
L1880226080L
(lp1176
(lp1177
Vrtc_clk_cpu_freq_to_xtal
p1178
aVrtc_clk_wait_for_slow_cycle
p1179
atp1180
a(L94425498L
L3785322319L
(lp1181
(lp1182
Vrtc_clk_bbpll_disable
p1183
atp1184
a(L3978916712L
L0L
(lp1185
(lp1186
tp1187
a(L2977209154L
L0L
(lp1188
(lp1189
tp1190
a(L2736411858L
L3785322319L
(lp1191
(lp1192
Vrtc_clk_cpu_freq_to_xtal
p1193
atp1194
a(L3360570486L
L0L
(lp1195
(lp1196
tp1197
a(L3020187L
L0L
(lp1198
(lp1199
tp1200
a(L106L
L0L
(lp1201
(lp1202
tp1203
a(L4139299579L
L1880226080L
(lp1204
(lp1205
Vrtc_clk_wait_for_slow_cycle
p1206
aVrtc_clk_xtal_freq_get
p1207
atp1208
a(L106L
L0L
(lp1209
(lp1210
tp1211
a(L1388483569L
L0L
(lp1212
(lp1213
tp1214
a(L106L
L0L
(lp1215
(lp1216
tp1217
a(L83268611L
L0L
(lp1218
(lp1219
tp1220
a(L106L
L0L
(lp1221
(lp1222
tp1223
a(L82344823L
L0L
(lp1224
(lp1225
tp1226
a(L106L
L0L
(lp1227
(lp1228
tp1229
a(L1274797871L
L0L
(lp1230
(lp1231
tp1232
a(L2960675980L
L0L
(lp1233
(lp1234
tp1235
a(L3317679330L
L1880226080L
(lp1236
(lp1237
Vclk_ll_rtc_slow_get_src
p1238
aVrtc_clk_cpu_freq_to_pll_mhz
p1239
atp1240
a(L883920532L
L0L
(lp1241
(lp1242
tp1243
a(L83268344L
L0L
(lp1244
(lp1245
tp1246
a(L82345090L
L0L
(lp1247
(lp1248
tp1249
a(L1299628291L
L0L
(lp1250
(lp1251
tp1252
a(L2382164494L
L0L
(lp1253
(lp1254
tp1255
a(L2258807646L
L0L
(lp1256
(lp1257
tp1258
a(L878473564L
L0L
(lp1259
(lp1260
tp1261
a(L2389426015L
L0L
(lp1262
(lp1263
tp1264
a(L1596574736L
L0L
(lp1265
(lp1266
tp1267
a(L2086626670L
L0L
(lp1268
(lp1269
tp1270
a(L1302638456L
L0L
(lp1271
(lp1272
tp1273
a(L810137203L
L0L
(lp1274
(lp1275
tp1276
a(L87353900L
L0L
(lp1277
(lp1278
tp1279
a(L3020187L
L0L
(lp1280
(lp1281
tp1282
a(L106L
L0L
(lp1283
(lp1284
tp1285
a(L1226014053L
L0L
(lp1286
(lp1287
tp1288
atp1289
sI1074267728
(Vcall_start_cpu0
p1290
(lp1291
(L1137852827L
L0L
(lp1292
(lp1293
tp1294
a(L549459388L
L0L
(lp1295
(lp1296
tp1297
a(L3212347974L
L3785322319L
(lp1298
(lp1299
Vbootloader_init
p1300
atp1301
a(L94425498L
L3785322319L
(lp1302
(lp1303
Vbootloader_reset
p1304
atp1305
a(L1122046408L
L0L
(lp1306
(lp1307
tp1308
a(L4099474112L
L0L
(lp1309
(lp1310
tp1311
a(L3015046664L
L3785322319L
(lp1312
(lp1313
Vbootloader_utility_load_partition_table
p1314
atp1315
a(L2761094216L
L3785322319L
(lp1316
(lp1317
Vesp_log_early_timestamp
p1318
atp1319
a(L405422123L
L3785322319L
(lp1320
(lp1321
Vbootloader_utility_get_selected_boot_partition
p1322
atp1323
a(L2055385849L
L3785322319L
(lp1324
(lp1325
Vbootloader_utility_load_boot_image
p1326
atp1327
atp1328
sI1074243164
(Vesp_partition_table_verify
p1329
(lp1330
(L1927580282L
L0L
(lp1331
(lp1332
tp1333
a(L3688263406L
L0L
(lp1334
(lp1335
tp1336
a(L4090921686L
L0L
(lp1337
(lp1338
tp1339
a(L2910371777L
L0L
(lp1340
(lp1341
tp1342
a(L2810785767L
L0L
(lp1343
(lp1344
tp1345
a(L3360570486L
L0L
(lp1346
(lp1347
tp1348
a(L3190337587L
L0L
(lp1349
(lp1350
tp1351
a(L2069928857L
L0L
(lp1352
(lp1353
tp1354
a(L3020204L
L0L
(lp1355
(lp1356
tp1357
a(L4240560509L
L3785322319L
(lp1358
(lp1359
Vesp_log_early_timestamp
p1360
atp1361
a(L4145115729L
L3785322319L
(lp1362
(lp1363
Vesp_log_early_timestamp
p1364
atp1365
a(L510839312L
L0L
(lp1366
(lp1367
tp1368
a(L2902417580L
L0L
(lp1369
(lp1370
tp1371
a(L3020204L
L0L
(lp1372
(lp1373
tp1374
a(L2215002226L
L3785322319L
(lp1375
(lp1376
Vesp_log_early_timestamp
p1377
atp1378
a(L190989796L
L0L
(lp1379
(lp1380
tp1381
a(L3655331517L
L0L
(lp1382
(lp1383
tp1384
a(L2902417580L
L0L
(lp1385
(lp1386
tp1387
a(L4240559796L
L3785322319L
(lp1388
(lp1389
Vesp_log_early_timestamp
p1390
atp1391
a(L1305407469L
L0L
(lp1392
(lp1393
tp1394
a(L1167861556L
L0L
(lp1395
(lp1396
tp1397
a(L3914073261L
L0L
(lp1398
(lp1399
tp1400
a(L2910371777L
L0L
(lp1401
(lp1402
tp1403
a(L1235012932L
L0L
(lp1404
(lp1405
tp1406
a(L1466029950L
L3785322319L
(lp1407
(lp1408
Vesp_log_early_timestamp
p1409
atp1410
atp1411
sI1074240348
(Vindex_to_partition
p1412
(lp1413
(L4066096119L
L0L
(lp1414
(lp1415
tp1416
a(L1739185955L
L0L
(lp1417
(lp1418
tp1419
a(L2171552758L
L0L
(lp1420
(lp1421
tp1422
a(L2808906342L
L0L
(lp1423
(lp1424
tp1425
a(L2101481936L
L0L
(lp1426
(lp1427
tp1428
a(L3698927993L
L0L
(lp1429
(lp1430
tp1431
a(L2808826781L
L0L
(lp1432
(lp1433
tp1434
a(L3003398163L
L0L
(lp1435
(lp1436
tp1437
a(L2880709161L
L0L
(lp1438
(lp1439
tp1440
a(L1087646172L
L0L
(lp1441
(lp1442
tp1443
atp1444
sI1074234716
(Vbootloader_flash_execute_command_common
p1445
(lp1446
(L3865052895L
L0L
(lp1447
(lp1448
tp1449
a(L120556223L
L0L
(lp1450
(lp1451
tp1452
a(L2890397610L
L3785322319L
(lp1453
(lp1454
V__assert_func
p1455
atp1456
a(L3021749L
L0L
(lp1457
(lp1458
tp1459
a(L153203357L
L0L
(lp1460
(lp1461
tp1462
a(L3967919202L
L0L
(lp1463
(lp1464
tp1465
a(L2091933878L
L0L
(lp1466
(lp1467
tp1468
a(L1702379862L
L0L
(lp1469
(lp1470
tp1471
a(L2587060668L
L0L
(lp1472
(lp1473
tp1474
a(L817326211L
L0L
(lp1475
(lp1476
tp1477
a(L3244449450L
L0L
(lp1478
(lp1479
tp1480
a(L3855586684L
L0L
(lp1481
(lp1482
tp1483
a(L2990329343L
L0L
(lp1484
(lp1485
tp1486
a(L2557390060L
L0L
(lp1487
(lp1488
tp1489
a(L3333696662L
L0L
(lp1490
(lp1491
tp1492
a(L963425213L
L0L
(lp1493
(lp1494
tp1495
a(L339491738L
L0L
(lp1496
(lp1497
tp1498
a(L3360570486L
L0L
(lp1499
(lp1500
tp1501
atp1502
sI1074235228
(Vbootloader_flash_unlock
p1503
(lp1504
(L2851757134L
L3785322319L
(lp1505
(lp1506
Vesp_rom_spiflash_wait_idle
p1507
atp1508
a(L4212373562L
L0L
(lp1509
(lp1510
tp1511
a(L4292483033L
L3785322319L
(lp1512
(lp1513
Vbootloader_execute_flash_command
p1514
atp1515
a(L106L
L0L
(lp1516
(lp1517
tp1518
a(L1303560644L
L0L
(lp1519
(lp1520
tp1521
a(L610618440L
L0L
(lp1522
(lp1523
tp1524
a(L106L
L0L
(lp1525
(lp1526
tp1527
a(L345249462L
L0L
(lp1528
(lp1529
tp1530
a(L106L
L0L
(lp1531
(lp1532
tp1533
a(L1024465569L
L0L
(lp1534
(lp1535
tp1536
a(L106L
L0L
(lp1537
(lp1538
tp1539
a(L1481761147L
L1880226080L
(lp1540
(lp1541
Vbootloader_execute_flash_command
p1542
aVbootloader_execute_flash_command
p1543
atp1544
a(L2258807654L
L0L
(lp1545
(lp1546
tp1547
a(L489806350L
L1832448559L
(lp1548
(lp1549
Vesp_rom_spiflash_wait_idle
p1550
aVbootloader_execute_flash_command
p1551
aVbootloader_execute_flash_command
p1552
atp1553
a(L879744646L
L1832448559L
(lp1554
(lp1555
Vesp_rom_spiflash_wait_idle
p1556
aVbootloader_execute_flash_command
p1557
aVbootloader_execute_flash_command
p1558
atp1559
a(L1840772931L
L1880226080L
(lp1560
(lp1561
Vesp_rom_spiflash_wait_idle
p1562
aVbootloader_execute_flash_command
p1563
atp1564
a(L2993202392L
L0L
(lp1565
(lp1566
tp1567
a(L508800419L
L1880226080L
(lp1568
(lp1569
Vbootloader_execute_flash_command
p1570
aVbootloader_execute_flash_command
p1571
atp1572
a(L1303560369L
L0L
(lp1573
(lp1574
tp1575
a(L1596544945L
L0L
(lp1576
(lp1577
tp1578
a(L97689L
L0L
(lp1579
(lp1580
tp1581
a(L106L
L0L
(lp1582
(lp1583
tp1584
atp1585
sI1074237272
(Vbootloader_common_ota_select_invalid
p1586
(lp1587
(L4027567199L
L0L
(lp1588
(lp1589
tp1590
a(L3397985842L
L0L
(lp1591
(lp1592
tp1593
a(L2258867228L
L0L
(lp1594
(lp1595
tp1596
a(L3785235668L
L0L
(lp1597
(lp1598
tp1599
atp1600
sI1074236504
(Vbootloader_common_get_chip_ver_pkg
p1601
(lp1602
(L183333409L
L0L
(lp1603
(lp1604
tp1605
atp1606
sI1074240600
(Vbootloader_sha256_finish
p1607
(lp1608
(L4066096136L
L0L
(lp1609
(lp1610
tp1611
a(L3125987449L
L0L
(lp1612
(lp1613
tp1614
a(L3884092851L
L3785322319L
(lp1615
(lp1616
V__assert_func
p1617
atp1618
a(L3020204L
L0L
(lp1619
(lp1620
tp1621
a(L1816853500L
L0L
(lp1622
(lp1623
tp1624
a(L2534656226L
L0L
(lp1625
(lp1626
tp1627
a(L551614134L
L3785322319L
(lp1628
(lp1629
Vbootloader_sha256_data
p1630
atp1631
a(L3281735505L
L0L
(lp1632
(lp1633
tp1634
a(L841302101L
L3785322319L
(lp1635
(lp1636
Vbootloader_sha256_data
p1637
atp1638
a(L3768329152L
L0L
(lp1639
(lp1640
tp1641
a(L657425439L
L0L
(lp1642
(lp1643
tp1644
a(L3930848034L
L0L
(lp1645
(lp1646
tp1647
a(L657425439L
L0L
(lp1648
(lp1649
tp1650
a(L4116699460L
L0L
(lp1651
(lp1652
tp1653
a(L3511307343L
L0L
(lp1654
(lp1655
tp1656
a(L3347778L
L0L
(lp1657
(lp1658
tp1659
a(L3360570486L
L0L
(lp1660
(lp1661
tp1662
atp1663
sI1074242648
(Vimage_load
p1664
(lp1665
(L3559420668L
L0L
(lp1666
(lp1667
tp1668
a(L1899869541L
L0L
(lp1669
(lp1670
tp1671
a(L979631281L
L0L
(lp1672
(lp1673
tp1674
a(L1525480527L
L0L
(lp1675
(lp1676
tp1677
a(L1043148059L
L0L
(lp1678
(lp1679
tp1680
a(L2796536461L
L0L
(lp1681
(lp1682
tp1683
a(L3718974969L
L3785322319L
(lp1684
(lp1685
Vesp_log_early_timestamp
p1686
atp1687
a(L2068384292L
L0L
(lp1688
(lp1689
tp1690
a(L1968553470L
L3785322319L
(lp1691
(lp1692
Vbootloader_sha256_finish
p1693
atp1694
a(L4209044681L
L0L
(lp1695
(lp1696
tp1697
a(L3225218531L
L0L
(lp1698
(lp1699
tp1700
a(L3802071166L
L0L
(lp1701
(lp1702
tp1703
a(L1301867039L
L3785322319L
(lp1704
(lp1705
Vprocess_image_header
p1706
atp1707
a(L560228796L
L0L
(lp1708
(lp1709
tp1710
a(L4185758499L
L0L
(lp1711
(lp1712
tp1713
a(L1530940255L
L3785322319L
(lp1714
(lp1715
Vprocess_segments
p1716
atp1717
a(L1233227930L
L0L
(lp1718
(lp1719
tp1720
a(L2539156582L
L0L
(lp1721
(lp1722
tp1723
a(L2570888687L
L3785322319L
(lp1724
(lp1725
Vprocess_checksum
p1726
atp1727
a(L425503098L
L3785322319L
(lp1728
(lp1729
Vprocess_appended_hash_and_sig
p1730
atp1731
a(L780930979L
L0L
(lp1732
(lp1733
tp1734
a(L2334355956L
L0L
(lp1735
(lp1736
tp1737
a(L3470740557L
L0L
(lp1738
(lp1739
tp1740
a(L2727908192L
L1880226080L
(lp1741
(lp1742
Vbootloader_sha256_finish
p1743
aVbootloader_debug_buffer
p1744
atp1745
a(L3151395344L
L1880226080L
(lp1746
(lp1747
Vesp_log_early_timestamp
p1748
aVbootloader_debug_buffer
p1749
atp1750
a(L1087646176L
L0L
(lp1751
(lp1752
tp1753
a(L2068384292L
L0L
(lp1754
(lp1755
tp1756
a(L3021148818L
L3785322319L
(lp1757
(lp1758
Vbootloader_sha256_finish
p1759
atp1760
a(L3028481L
L0L
(lp1761
(lp1762
tp1763
a(L139701033L
L0L
(lp1764
(lp1765
tp1766
a(L2510919588L
L0L
(lp1767
(lp1768
tp1769
a(L772115669L
L0L
(lp1770
(lp1771
tp1772
a(L2787789065L
L0L
(lp1773
(lp1774
tp1775
a(L85798113L
L0L
(lp1776
(lp1777
tp1778
a(L1351513776L
L0L
(lp1779
(lp1780
tp1781
a(L159346313L
L3785322319L
(lp1782
(lp1783
Vshould_load
p1784
atp1785
a(L4218574503L
L0L
(lp1786
(lp1787
tp1788
a(L3338774213L
L0L
(lp1789
(lp1790
tp1791
a(L3464541874L
L0L
(lp1792
(lp1793
tp1794
a(L3349572949L
L0L
(lp1795
(lp1796
tp1797
a(L2192292519L
L0L
(lp1798
(lp1799
tp1800
a(L106L
L0L
(lp1801
(lp1802
tp1803
a(L26615924L
L0L
(lp1804
(lp1805
tp1806
a(L1299866312L
L0L
(lp1807
(lp1808
tp1809
a(L490060329L
L0L
(lp1810
(lp1811
tp1812
atp1813
sI1074245220
(Vrtc_clk_8m_enabled
p1814
(lp1815
(L2802140000L
L0L
(lp1816
(lp1817
tp1818
atp1819
sI1074247520
(Vesp_rom_spiflash_program_page_internal
p1820
(lp1821
(L2569069283L
L0L
(lp1822
(lp1823
tp1824
a(L2258688483L
L0L
(lp1825
(lp1826
tp1827
a(L3360570486L
L0L
(lp1828
(lp1829
tp1830
a(L792610006L
L0L
(lp1831
(lp1832
tp1833
a(L4235661475L
L3785322319L
(lp1834
(lp1835
Vesp_rom_spiflash_wait_idle
p1836
atp1837
a(L1299866312L
L0L
(lp1838
(lp1839
tp1840
a(L3212356251L
L3785322319L
(lp1841
(lp1842
Vesp_rom_spiflash_enable_write
p1843
atp1844
a(L1832017382L
L0L
(lp1845
(lp1846
tp1847
a(L2209840608L
L0L
(lp1848
(lp1849
tp1850
a(L2953702749L
L0L
(lp1851
(lp1852
tp1853
a(L2989032L
L0L
(lp1854
(lp1855
tp1856
a(L1965622133L
L0L
(lp1857
(lp1858
tp1859
a(L1351235542L
L0L
(lp1860
(lp1861
tp1862
a(L1958113242L
L0L
(lp1863
(lp1864
tp1865
a(L106L
L0L
(lp1866
(lp1867
tp1868
a(L3112950080L
L0L
(lp1869
(lp1870
tp1871
a(L1868606439L
L0L
(lp1872
(lp1873
tp1874
a(L1008983195L
L0L
(lp1875
(lp1876
tp1877
a(L1933954923L
L0L
(lp1878
(lp1879
tp1880
a(L1147866918L
L0L
(lp1881
(lp1882
tp1883
a(L3871602522L
L0L
(lp1884
(lp1885
tp1886
atp1887
sI1074240108
(Vbootloader_utility_load_boot_image
p1888
(lp1889
(L1375294773L
L0L
(lp1890
(lp1891
tp1892
a(L2177418995L
L3785322319L
(lp1893
(lp1894
Vtry_load_partition
p1895
atp1896
a(L1305243774L
L3785322319L
(lp1897
(lp1898
Vload_image
p1899
atp1900
a(L2226845854L
L3785322319L
(lp1901
(lp1902
Vesp_log_early_timestamp
p1903
atp1904
a(L3827921190L
L3785322319L
(lp1905
(lp1906
Vbootloader_reset
p1907
atp1908
a(L1953693036L
L3785322319L
(lp1909
(lp1910
Vindex_to_partition
p1911
atp1912
a(L1204373741L
L3785322319L
(lp1913
(lp1914
Vtry_load_partition
p1915
atp1916
a(L1899865696L
L0L
(lp1917
(lp1918
tp1919
a(L2695355117L
L3785322319L
(lp1920
(lp1921
Vset_actual_ota_seq
p1922
atp1923
a(L1868897605L
L3785322319L
(lp1924
(lp1925
Vlog_invalid_app_partition
p1926
atp1927
a(L831650730L
L0L
(lp1928
(lp1929
tp1930
a(L3021737L
L0L
(lp1931
(lp1932
tp1933
a(L695456438L
L0L
(lp1934
(lp1935
tp1936
a(L1129532116L
L3785322319L
(lp1937
(lp1938
Vtry_load_partition
p1939
atp1940
a(L1345847589L
L3785322319L
(lp1941
(lp1942
Vesp_log_early_timestamp
p1943
atp1944
a(L2347390157L
L3785322319L
(lp1945
(lp1946
Vindex_to_partition
p1947
atp1948
a(L1204373741L
L3785322319L
(lp1949
(lp1950
Vtry_load_partition
p1951
atp1952
a(L3061261803L
L0L
(lp1953
(lp1954
tp1955
a(L3582858798L
L3785322319L
(lp1956
(lp1957
Vlog_invalid_app_partition
p1958
atp1959
a(L4222174905L
L3785322319L
(lp1960
(lp1961
Vesp_log_early_timestamp
p1962
atp1963
atp1964
sI1074244972
(Vrtc_clk_bbpll_disable
p1965
(lp1966
(L2525111280L
L0L
(lp1967
(lp1968
tp1969
a(L2472207241L
L0L
(lp1970
(lp1971
tp1972
a(L3360570486L
L0L
(lp1973
(lp1974
tp1975
atp1976
sI1074270072
(Vrtc_clk_xtal_freq_estimate
p1977
(lp1978
(L3845076426L
L1880226080L
(lp1979
(lp1980
Vrtc_clk_8m_enabled
p1981
aVrtc_clk_8md256_enabled
p1982
atp1983
a(L2449794434L
L3785322319L
(lp1984
(lp1985
Vrtc_clk_8m_enable
p1986
atp1987
a(L3788719296L
L3785322319L
(lp1988
(lp1989
Vrtc_clk_cal_ratio
p1990
atp1991
a(L1894802584L
L0L
(lp1992
(lp1993
tp1994
a(L1915120046L
L0L
(lp1995
(lp1996
tp1997
a(L2740879690L
L0L
(lp1998
(lp1999
tp2000
a(L1059750288L
L3785322319L
(lp2001
(lp2002
Vrtc_clk_8m_enable
p2003
atp2004
a(L4115290129L
L3785322319L
(lp2005
(lp2006
Vesp_log_early_timestamp
p2007
atp2008
a(L2894376164L
L0L
(lp2009
(lp2010
tp2011
a(L1641150486L
L0L
(lp2012
(lp2013
tp2014
a(L1715829099L
L3785322319L
(lp2015
(lp2016
Vesp_log_early_timestamp
p2017
atp2018
a(L1429240978L
L3785322319L
(lp2019
(lp2020
Vesp_log_early_timestamp
p2021
atp2022
atp2023
sI1074237300
(Vbootloader_common_select_otadata
p2024
(lp2025
(L4071767857L
L0L
(lp2026
(lp2027
tp2028
a(L1999329187L
L0L
(lp2029
(lp2030
tp2031
a(L3846398843L
L0L
(lp2032
(lp2033
tp2034
a(L2501968171L
L0L
(lp2035
(lp2036
tp2037
a(L3360570486L
L0L
(lp2038
(lp2039
tp2040
a(L2045232488L
L0L
(lp2041
(lp2042
tp2043
a(L1243525916L
L0L
(lp2044
(lp2045
tp2046
a(L3094144427L
L0L
(lp2047
(lp2048
tp2049
a(L2399509845L
L0L
(lp2050
(lp2051
tp2052
a(L1641201884L
L0L
(lp2053
(lp2054
tp2055
atp2056
sI1074240884
(Vbootloader_ana_clock_glitch_reset_config
p2057
(lp2058
(L2100504542L
L0L
(lp2059
(lp2060
tp2061
atp2062
sI1074245492
(Vrtc_clk_fast_src_get
p2063
(lp2064
(L380770082L
L0L
(lp2065
(lp2066
tp2067
atp2068
sI1074244464
(Vwdt_hal_write_protect_enable
p2069
(lp2070
(L387778158L
L0L
(lp2071
(lp2072
tp2073
a(L4195472003L
L0L
(lp2074
(lp2075
tp2076
a(L3360570486L
L0L
(lp2077
(lp2078
tp2079
a(L802523425L
L0L
(lp2080
(lp2081
tp2082
atp2083
sI1074245244
(Vrtc_clk_8md256_enabled
p2084
(lp2085
(L1957668129L
L0L
(lp2086
(lp2087
tp2088
atp2089
sI1074243452
(Vwdt_hal_init
p2090
(lp2091
(L509746487L
L0L
(lp2092
(lp2093
tp2094
a(L745008699L
L0L
(lp2095
(lp2096
tp2097
a(L2805934244L
L0L
(lp2098
(lp2099
tp2100
a(L3115097993L
L0L
(lp2101
(lp2102
tp2103
a(L1129008730L
L0L
(lp2104
(lp2105
tp2106
a(L3360570486L
L0L
(lp2107
(lp2108
tp2109
a(L3022237171L
L0L
(lp2110
(lp2111
tp2112
atp2113
sI1074240892
(Vprocess_checksum
p2114
(lp2115
(L226873693L
L0L
(lp2116
(lp2117
tp2118
a(L2910371777L
L0L
(lp2119
(lp2120
tp2121
a(L186886970L
L0L
(lp2122
(lp2123
tp2124
a(L2910371777L
L0L
(lp2125
(lp2126
tp2127
a(L3020204L
L0L
(lp2128
(lp2129
tp2130
a(L2480703612L
L3785322319L
(lp2131
(lp2132
Vbootloader_sha256_data
p2133
atp2134
a(L4179073442L
L0L
(lp2135
(lp2136
tp2137
a(L1811888222L
L3785322319L
(lp2138
(lp2139
Vbootloader_flash_read
p2140
atp2141
a(L3126521138L
L0L
(lp2142
(lp2143
tp2144
a(L4120157373L
L0L
(lp2145
(lp2146
tp2147
a(L2841282472L
L3785322319L
(lp2148
(lp2149
Vesp_log_early_timestamp
p2150
atp2151
atp2152
sI1074236536
(Vesp_rom_uart_tx_wait_idle
p2153
(lp2154
(L2733747073L
L0L
(lp2155
(lp2156
tp2157
a(L1301079727L
L0L
(lp2158
(lp2159
tp2160
a(L3597746521L
L0L
(lp2161
(lp2162
tp2163
a(L3694491048L
L0L
(lp2164
(lp2165
tp2166
a(L3055926844L
L0L
(lp2167
(lp2168
tp2169
a(L3360570486L
L0L
(lp2170
(lp2171
tp2172
atp2173
sI1074238840
(Vcache_ll_l1_enable_bus
p2174
(lp2175
(L1408514293L
L0L
(lp2176
(lp2177
tp2178
atp2179
sI1074245508
(Vrtc_clk_xtal_freq_get
p2180
(lp2181
(L436198866L
L0L
(lp2182
(lp2183
tp2184
a(L2847936993L
L0L
(lp2185
(lp2186
tp2187
a(L4141094988L
L0L
(lp2188
(lp2189
tp2190
a(L3360570486L
L0L
(lp2191
(lp2192
tp2193
atp2194
sI1074235520
(Vbootloader_flash_read_sfdp
p2195
(lp2196
(L711701400L
L0L
(lp2197
(lp2198
tp2199
a(L3178612724L
L3785322319L
(lp2200
(lp2201
V__assert_func
p2202
atp2203
a(L3704332455L
L3785322319L
(lp2204
(lp2205
Vbootloader_flash_execute_command_common
p2206
atp2207
atp2208
sI1074235776
(Vbootloader_flash_cs_timing_config
p2209
(lp2210
(L6299057L
L0L
(lp2211
(lp2212
tp2213
atp2214
sI1074244492
(Vwdt_hal_enable
p2215
(lp2216
(L2299130915L
L0L
(lp2217
(lp2218
tp2219
a(L165794138L
L0L
(lp2220
(lp2221
tp2222
a(L3360570486L
L0L
(lp2223
(lp2224
tp2225
a(L2847657174L
L0L
(lp2226
(lp2227
tp2228
atp2229
sI1074236812
(Vefuse_hal_get_minor_chip_version
p2230
(lp2231
(L1213965243L
L0L
(lp2232
(lp2233
tp2234
atp2235
sI1074270852
(Vrtc_vddsdio_set_config
p2236
(lp2237
(L2337814951L
L0L
(lp2238
(lp2239
tp2240
atp2241
sI1074241928
(Vprocess_segments
p2242
(lp2243
(L1018786970L
L0L
(lp2244
(lp2245
tp2246
a(L3285816417L
L0L
(lp2247
(lp2248
tp2249
a(L3782401745L
L0L
(lp2250
(lp2251
tp2252
a(L106L
L0L
(lp2253
(lp2254
tp2255
a(L2411199274L
L0L
(lp2256
(lp2257
tp2258
a(L2288684402L
L3785322319L
(lp2259
(lp2260
Vesp_log_early_timestamp
p2261
atp2262
a(L3085209925L
L3785322319L
(lp2263
(lp2264
Vbootloader_flash_read
p2265
atp2266
a(L870371915L
L3785322319L
(lp2267
(lp2268
Vesp_log_early_timestamp
p2269
atp2270
a(L3871473710L
L0L
(lp2271
(lp2272
tp2273
a(L234193771L
L0L
(lp2274
(lp2275
tp2276
a(L1635713494L
L3785322319L
(lp2277
(lp2278
Vbootloader_sha256_data
p2279
atp2280
a(L165187679L
L0L
(lp2281
(lp2282
tp2283
a(L3712371969L
L0L
(lp2284
(lp2285
tp2286
a(L451332327L
L0L
(lp2287
(lp2288
tp2289
a(L3802067325L
L0L
(lp2290
(lp2291
tp2292
a(L3592389343L
L0L
(lp2293
(lp2294
tp2295
a(L2258867228L
L0L
(lp2296
(lp2297
tp2298
a(L1255782415L
L0L
(lp2299
(lp2300
tp2301
a(L1756760227L
L0L
(lp2302
(lp2303
tp2304
a(L1849436849L
L0L
(lp2305
(lp2306
tp2307
a(L3566432341L
L3785322319L
(lp2308
(lp2309
Vesp_log_early_timestamp
p2310
atp2311
a(L3601900694L
L0L
(lp2312
(lp2313
tp2314
a(L568253874L
L0L
(lp2315
(lp2316
tp2317
a(L506154665L
L3785322319L
(lp2318
(lp2319
Vesp_log_early_timestamp
p2320
atp2321
a(L1973629750L
L3785322319L
(lp2322
(lp2323
Vverify_load_addresses
p2324
atp2325
a(L106L
L0L
(lp2326
(lp2327
tp2328
a(L914132342L
L0L
(lp2329
(lp2330
tp2331
a(L291460350L
L0L
(lp2332
(lp2333
tp2334
a(L4151532718L
L3785322319L
(lp2335
(lp2336
Vbootloader_mmap
p2337
atp2338
a(L929814218L
L3785322319L
(lp2339
(lp2340
Vesp_log_early_timestamp
p2341
atp2342
a(L2994776696L
L0L
(lp2343
(lp2344
tp2345
a(L2942377727L
L0L
(lp2346
(lp2347
tp2348
a(L1652679798L
L3785322319L
(lp2349
(lp2350
Vbootloader_munmap
p2351
atp2352
a(L2993622008L
L0L
(lp2353
(lp2354
tp2355
a(L1216016797L
L3785322319L
(lp2356
(lp2357
Vbootloader_fill_random
p2358
atp2359
a(L3570641403L
L0L
(lp2360
(lp2361
tp2362
a(L3574335487L
L0L
(lp2363
(lp2364
tp2365
a(L3450268858L
L0L
(lp2366
(lp2367
tp2368
a(L3021749L
L0L
(lp2369
(lp2370
tp2371
a(L1609678444L
L0L
(lp2372
(lp2373
tp2374
a(L1777728568L
L0L
(lp2375
(lp2376
tp2377
a(L3020204L
L0L
(lp2378
(lp2379
tp2380
a(L1312354573L
L0L
(lp2381
(lp2382
tp2383
a(L2076461546L
L0L
(lp2384
(lp2385
tp2386
a(L3844184503L
L0L
(lp2387
(lp2388
tp2389
a(L1749969336L
L0L
(lp2390
(lp2391
tp2392
a(L670934548L
L0L
(lp2393
(lp2394
tp2395
a(L781506066L
L3785322319L
(lp2396
(lp2397
Vbootloader_sha256_data
p2398
atp2399
a(L90548756L
L0L
(lp2400
(lp2401
tp2402
a(L4195963580L
L0L
(lp2403
(lp2404
tp2405
a(L2422333549L
L0L
(lp2406
(lp2407
tp2408
a(L3132743422L
L0L
(lp2409
(lp2410
tp2411
a(L249537906L
L3785322319L
(lp2412
(lp2413
Vshould_load
p2414
atp2415
a(L2378267508L
L0L
(lp2416
(lp2417
tp2418
a(L3098292588L
L3785322319L
(lp2419
(lp2420
Vesp_log_early_timestamp
p2421
atp2422
a(L1263395604L
L0L
(lp2423
(lp2424
tp2425
a(L307916924L
L0L
(lp2426
(lp2427
tp2428
a(L4166767263L
L0L
(lp2429
(lp2430
tp2431
a(L81630008L
L0L
(lp2432
(lp2433
tp2434
a(L2742376716L
L0L
(lp2435
(lp2436
tp2437
a(L3786494677L
L3785322319L
(lp2438
(lp2439
Vbootloader_mmap_get_free_pages
p2440
atp2441
a(L2685118414L
L0L
(lp2442
(lp2443
tp2444
a(L2091285670L
L0L
(lp2445
(lp2446
tp2447
atp2448
sI1074268056
(Vbootloader_init
p2449
(lp2450
(L270395025L
L3785322319L
(lp2451
(lp2452
Vbootloader_init_mem
p2453
atp2454
a(L1265242158L
L0L
(lp2455
(lp2456
tp2457
a(L1494621136L
L3785322319L
(lp2458
(lp2459
V__assert_func
p2460
atp2461
a(L4126189388L
L0L
(lp2462
(lp2463
tp2464
a(L4255864574L
L0L
(lp2465
(lp2466
tp2467
a(L3813782018L
L0L
(lp2468
(lp2469
tp2470
a(L1364096344L
L0L
(lp2471
(lp2472
tp2473
a(L3027019L
L0L
(lp2474
(lp2475
tp2476
a(L3563591778L
L0L
(lp2477
(lp2478
tp2479
a(L375612950L
L1832448559L
(lp2480
(lp2481
Vbootloader_clear_bss_section
p2482
aVbootloader_common_vddsdio_configure
p2483
aVbootloader_clock_get_rated_freq_mhz
p2484
atp2485
a(L3987130017L
L1157885199L
(lp2486
(lp2487
Vbootloader_clock_configure
p2488
aVbootloader_console_init
p2489
aVbootloader_print_banner
p2490
aVbootloader_flash_update_id
p2491
aVbootloader_flash_xmc_startup
p2492
atp2493
a(L1920341648L
L3785322319L
(lp2494
(lp2495
Vesp_log_early_timestamp
p2496
atp2497
a(L1926823800L
L3785322319L
(lp2498
(lp2499
Vesp_log_early_timestamp
p2500
atp2501
a(L3360570486L
L0L
(lp2502
(lp2503
tp2504
a(L2444883382L
L3785322319L
(lp2505
(lp2506
Vbootloader_read_bootloader_header
p2507
atp2508
a(L2444883382L
L3785322319L
(lp2509
(lp2510
Vbootloader_check_bootloader_validity
p2511
atp2512
a(L1449254892L
L2485746240L
(lp2513
(lp2514
Vbootloader_flash_gpio_config
p2515
aVbootloader_flash_dummy_config
p2516
aVbootloader_flash_cs_timing_config
p2517
aVbootloader_flash_unlock
p2518
atp2519
a(L51029731L
L0L
(lp2520
(lp2521
tp2522
a(L471947987L
L0L
(lp2523
(lp2524
tp2525
a(L1404489890L
L0L
(lp2526
(lp2527
tp2528
a(L3674001403L
L3785322319L
(lp2529
(lp2530
Vesp_log_early_timestamp
p2531
atp2532
a(L92454083L
L0L
(lp2533
(lp2534
tp2535
a(L96148167L
L0L
(lp2536
(lp2537
tp2538
a(L99842251L
L0L
(lp2539
(lp2540
tp2541
a(L139553654L
L0L
(lp2542
(lp2543
tp2544
a(L1404491141L
L0L
(lp2545
(lp2546
tp2547
a(L1852744844L
L3785322319L
(lp2548
(lp2549
Vesp_log_early_timestamp
p2550
atp2551
a(L93837694L
L0L
(lp2552
(lp2553
tp2554
a(L106L
L0L
(lp2555
(lp2556
tp2557
a(L258083190L
L0L
(lp2558
(lp2559
tp2560
a(L2752571198L
L0L
(lp2561
(lp2562
tp2563
a(L3902507129L
L0L
(lp2564
(lp2565
tp2566
a(L1701707570L
L3785322319L
(lp2567
(lp2568
Vesp_log_early_timestamp
p2569
atp2570
a(L93837694L
L0L
(lp2571
(lp2572
tp2573
a(L106L
L0L
(lp2574
(lp2575
tp2576
a(L3029526157L
L0L
(lp2577
(lp2578
tp2579
a(L2772639124L
L0L
(lp2580
(lp2581
tp2582
a(L2807278488L
L0L
(lp2583
(lp2584
tp2585
a(L3379747486L
L3785322319L
(lp2586
(lp2587
Vbootloader_enable_wp
p2588
atp2589
a(L1266399027L
L0L
(lp2590
(lp2591
tp2592
a(L1895147922L
L0L
(lp2593
(lp2594
tp2595
a(L2166009126L
L3785322319L
(lp2596
(lp2597
Vesp_log_early_timestamp
p2598
atp2599
a(L3639065141L
L0L
(lp2600
(lp2601
tp2602
a(L3616326365L
L0L
(lp2603
(lp2604
tp2605
a(L1129025932L
L0L
(lp2606
(lp2607
tp2608
a(L1569238687L
L3785322319L
(lp2609
(lp2610
Vesp_log_early_timestamp
p2611
atp2612
a(L4263191691L
L1880226080L
(lp2613
(lp2614
Vwdt_reset_info_dump
p2615
aVwdt_reset_info_dump
p2616
atp2617
a(L2752562921L
L0L
(lp2618
(lp2619
tp2620
a(L106L
L0L
(lp2621
(lp2622
tp2623
a(L718636321L
L0L
(lp2624
(lp2625
tp2626
a(L1767021965L
L0L
(lp2627
(lp2628
tp2629
a(L3028481L
L0L
(lp2630
(lp2631
tp2632
a(L3981500492L
L1880226080L
(lp2633
(lp2634
Vbootloader_config_wdt
p2635
aVbootloader_enable_random
p2636
atp2637
atp2638
sI1074245268
(Vrtc_clk_slow_src_set
p2639
(lp2640
(L1719649901L
L0L
(lp2641
(lp2642
tp2643
a(L3020187L
L0L
(lp2644
(lp2645
tp2646
a(L3028481L
L0L
(lp2647
(lp2648
tp2649
a(L487821223L
L0L
(lp2650
(lp2651
tp2652
a(L185049753L
L0L
(lp2653
(lp2654
tp2655
a(L1851908495L
L0L
(lp2656
(lp2657
tp2658
a(L1555782902L
L0L
(lp2659
(lp2660
tp2661
a(L3138544334L
L0L
(lp2662
(lp2663
tp2664
a(L94425498L
L3785322319L
(lp2665
(lp2666
Vabort
p2667
atp2668
atp2669
sI1074245780
(Vrtc_clk_xtal_freq_update
p2670
(lp2671
(L1422638466L
L0L
(lp2672
(lp2673
tp2674
a(L3509357017L
L0L
(lp2675
(lp2676
tp2677
a(L2266180931L
L0L
(lp2678
(lp2679
tp2680
atp2681
sI1074248852
(V_fini
p2682
(lp2683
(L3493042598L
L0L
(lp2684
(lp2685
tp2686
atp2687
sI1074238096
(Vbootloader_enable_wp
p2688
(lp2689
(L1117825804L
L3785322319L
(lp2690
(lp2691
Vbootloader_execute_flash_command
p2692
atp2693
atp2694
sI1074236828
(Vesp_dport_access_reg_read
p2695
(lp2696
(L1099794772L
L0L
(lp2697
(lp2698
tp2699
atp2700
sI1074247324
(Vesp_rom_spiflash_read_status
p2701
(lp2702
(L2021440545L
L0L
(lp2703
(lp2704
tp2705
a(L1182811815L
L0L
(lp2706
(lp2707
tp2708
a(L1827921062L
L0L
(lp2709
(lp2710
tp2711
a(L106L
L0L
(lp2712
(lp2713
tp2714
a(L619542702L
L0L
(lp2715
(lp2716
tp2717
a(L3274807848L
L0L
(lp2718
(lp2719
tp2720
a(L2123059967L
L0L
(lp2721
(lp2722
tp2723
a(L3146966332L
L0L
(lp2724
(lp2725
tp2726
a(L2392720019L
L0L
(lp2727
(lp2728
tp2729
atp2730
sI1074238616
(Vcache_ll_l1_get_bus
p2731
(lp2732
(L3820023252L
L0L
(lp2733
(lp2734
tp2735
a(L94425498L
L3785322319L
(lp2736
(lp2737
Vabort
p2738
atp2739
a(L3179088012L
L0L
(lp2740
(lp2741
tp2742
a(L1844424101L
L0L
(lp2743
(lp2744
tp2745
a(L892952750L
L0L
(lp2746
(lp2747
tp2748
a(L1182811810L
L0L
(lp2749
(lp2750
tp2751
a(L1101742417L
L0L
(lp2752
(lp2753
tp2754
a(L1100767927L
L0L
(lp2755
(lp2756
tp2757
a(L3360570486L
L0L
(lp2758
(lp2759
tp2760
a(L2767111967L
L0L
(lp2761
(lp2762
tp2763
a(L892952750L
L0L
(lp2764
(lp2765
tp2766
a(L2258688482L
L0L
(lp2767
(lp2768
tp2769
a(L1353797152L
L0L
(lp2770
(lp2771
tp2772
a(L2258718273L
L0L
(lp2773
(lp2774
tp2775
a(L2938197270L
L0L
(lp2776
(lp2777
tp2778
a(L2748641547L
L0L
(lp2779
(lp2780
tp2781
a(L2752340901L
L0L
(lp2782
(lp2783
tp2784
a(L1641149277L
L0L
(lp2785
(lp2786
tp2787
a(L3211405977L
L0L
(lp2788
(lp2789
tp2790
a(L3027019L
L0L
(lp2791
(lp2792
tp2793
a(L1299866560L
L0L
(lp2794
(lp2795
tp2796
a(L1299866436L
L0L
(lp2797
(lp2798
tp2799
atp2800
sI1074238116
(Vbootloader_mmap_get_free_pages
p2801
(lp2802
(L1496516875L
L0L
(lp2803
(lp2804
tp2805
atp2806
sI1074248100
(Vesp_rom_spiflash_read
p2807
(lp2808
(L1461403859L
L0L
(lp2809
(lp2810
tp2811
a(L1448471212L
L0L
(lp2812
(lp2813
tp2814
a(L340311750L
L0L
(lp2815
(lp2816
tp2817
a(L2373999345L
L0L
(lp2818
(lp2819
tp2820
a(L106L
L0L
(lp2821
(lp2822
tp2823
a(L633884026L
L0L
(lp2824
(lp2825
tp2826
a(L106L
L0L
(lp2827
(lp2828
tp2829
a(L12774736L
L0L
(lp2830
(lp2831
tp2832
a(L1190779262L
L0L
(lp2833
(lp2834
tp2835
a(L167420764L
L0L
(lp2836
(lp2837
tp2838
a(L336550648L
L0L
(lp2839
(lp2840
tp2841
a(L493932352L
L0L
(lp2842
(lp2843
tp2844
a(L106L
L0L
(lp2845
(lp2846
tp2847
a(L2549202597L
L3785322319L
(lp2848
(lp2849
Vesp_rom_spiflash_wait_idle
p2850
atp2851
a(L3021737L
L0L
(lp2852
(lp2853
tp2854
a(L106L
L0L
(lp2855
(lp2856
tp2857
a(L1868280504L
L0L
(lp2858
(lp2859
tp2860
a(L106L
L0L
(lp2861
(lp2862
tp2863
a(L4024100605L
L0L
(lp2864
(lp2865
tp2866
a(L1221163038L
L0L
(lp2867
(lp2868
tp2869
a(L4122060822L
L0L
(lp2870
(lp2871
tp2872
a(L1406217664L
L0L
(lp2873
(lp2874
tp2875
a(L2989032L
L0L
(lp2876
(lp2877
tp2878
a(L3819849625L
L0L
(lp2879
(lp2880
tp2881
a(L726363469L
L0L
(lp2882
(lp2883
tp2884
a(L932902197L
L0L
(lp2885
(lp2886
tp2887
a(L3901821451L
L0L
(lp2888
(lp2889
tp2890
a(L3584862605L
L0L
(lp2891
(lp2892
tp2893
a(L2921907736L
L0L
(lp2894
(lp2895
tp2896
a(L1328428270L
L0L
(lp2897
(lp2898
tp2899
a(L3419655824L
L0L
(lp2900
(lp2901
tp2902
a(L708728610L
L0L
(lp2903
(lp2904
tp2905
a(L1400585318L
L0L
(lp2906
(lp2907
tp2908
a(L781550816L
L0L
(lp2909
(lp2910
tp2911
a(L2687789892L
L0L
(lp2912
(lp2913
tp2914
a(L1405253496L
L0L
(lp2915
(lp2916
tp2917
a(L1756022091L
L0L
(lp2918
(lp2919
tp2920
a(L97689L
L0L
(lp2921
(lp2922
tp2923
a(L1183020347L
L0L
(lp2924
(lp2925
tp2926
a(L4014024819L
L0L
(lp2927
(lp2928
tp2929
a(L3621567083L
L0L
(lp2930
(lp2931
tp2932
atp2933
sI1074240416
(Vbootloader_debug_buffer
p2934
(lp2935
(L2100504542L
L0L
(lp2936
(lp2937
tp2938
atp2939
sI1074268832
(Vbootloader_common_vddsdio_configure
p2940
(lp2941
(L1829974089L
L3785322319L
(lp2942
(lp2943
Vrtc_vddsdio_get_config
p2944
atp2945
a(L1489249795L
L3785322319L
(lp2946
(lp2947
Vrtc_vddsdio_set_config
p2948
atp2949
a(L3360570486L
L0L
(lp2950
(lp2951
tp2952
atp2953
sI1074241708
(Vprocess_appended_hash_and_sig
p2954
(lp2955
(L1668084157L
L0L
(lp2956
(lp2957
tp2958
a(L2910371777L
L0L
(lp2959
(lp2960
tp2961
a(L1591589631L
L0L
(lp2962
(lp2963
tp2964
a(L2551256078L
L0L
(lp2965
(lp2966
tp2967
a(L2688085881L
L0L
(lp2968
(lp2969
tp2970
a(L723646529L
L3785322319L
(lp2971
(lp2972
Vesp_log_early_timestamp
p2973
atp2974
a(L2268304300L
L3785322319L
(lp2975
(lp2976
Vbootloader_flash_read
p2977
atp2978
a(L3871473710L
L0L
(lp2979
(lp2980
tp2981
atp2982
sI1074238124
(Vbootloader_fill_random
p2983
(lp2984
(L1233865241L
L0L
(lp2985
(lp2986
tp2987
a(L2195342884L
L3785322319L
(lp2988
(lp2989
V__assert_func
p2990
atp2991
a(L1882547218L
L0L
(lp2992
(lp2993
tp2994
a(L2910371777L
L0L
(lp2995
(lp2996
tp2997
a(L95634693L
L0L
(lp2998
(lp2999
tp3000
a(L3630908706L
L0L
(lp3001
(lp3002
tp3003
a(L160162640L
L0L
(lp3004
(lp3005
tp3006
a(L97689L
L0L
(lp3007
(lp3008
tp3009
a(L3360570486L
L0L
(lp3010
(lp3011
tp3012
atp3013
sI1074238892
(Vload_image
p3014
(lp3015
(L1031501979L
L1832448559L
(lp3016
(lp3017
Vesp_log_early_timestamp
p3018
aVbootloader_random_disable
p3019
aVbootloader_ana_clock_glitch_reset_config
p3020
atp3021
a(L2118498116L
L0L
(lp3022
(lp3023
tp3024
a(L106L
L0L
(lp3025
(lp3026
tp3027
a(L1789307221L
L3758435744L
(lp3028
(lp3029
Vmmu_hal_init
p3030
aVcache_ll_l1_get_bus
p3031
aVcache_ll_l1_enable_bus
p3032
aVcache_ll_l1_get_bus
p3033
aVcache_ll_l1_enable_bus
p3034
aVcache_ll_l1_get_bus
p3035
aVcache_ll_l1_enable_bus
p3036
aVcache_ll_l1_get_bus
p3037
aVcache_ll_l1_enable_bus
p3038
aVbootloader_console_deinit
p3039
atp3040
a(L746432701L
L0L
(lp3041
(lp3042
tp3043
a(L2902417580L
L0L
(lp3044
(lp3045
tp3046
a(L1559048222L
L3785322319L
(lp3047
(lp3048
Vesp_log_early_timestamp
p3049
atp3050
a(L3064806881L
L0L
(lp3051
(lp3052
tp3053
a(L839502558L
L0L
(lp3054
(lp3055
tp3056
a(L3020204L
L0L
(lp3057
(lp3058
tp3059
a(L2483094034L
L3785322319L
(lp3060
(lp3061
Vesp_log_early_timestamp
p3062
atp3063
a(L3644183142L
L0L
(lp3064
(lp3065
tp3066
a(L356605111L
L0L
(lp3067
(lp3068
tp3069
atp3070
sI1074245548
(Vrtc_clk_cpu_freq_mhz_to_config
p3071
(lp3072
(L908718885L
L3785322319L
(lp3073
(lp3074
Vrtc_clk_xtal_freq_get
p3075
atp3076
a(L60460069L
L0L
(lp3077
(lp3078
tp3079
a(L3802072124L
L0L
(lp3080
(lp3081
tp3082
a(L3159006042L
L0L
(lp3083
(lp3084
tp3085
a(L3360570486L
L0L
(lp3086
(lp3087
tp3088
a(L895147205L
L0L
(lp3089
(lp3090
tp3091
a(L3970036657L
L0L
(lp3092
(lp3093
tp3094
a(L2731353429L
L0L
(lp3095
(lp3096
tp3097
a(L1555485793L
L0L
(lp3098
(lp3099
tp3100
a(L2258897023L
L0L
(lp3101
(lp3102
tp3103
a(L1947499251L
L0L
(lp3104
(lp3105
tp3106
a(L1306331021L
L0L
(lp3107
(lp3108
tp3109
atp3110
sI1074240424
(Vbootloader_sha256_start
p3111
(lp3112
(L260677377L
L0L
(lp3113
(lp3114
tp3115
atp3116
sI1074239400
(Vbootloader_utility_load_partition_table
p3117
(lp3118
(L4268190983L
L3785322319L
(lp3119
(lp3120
Vbootloader_mmap
p3121
atp3122
a(L2639676080L
L3785322319L
(lp3123
(lp3124
Vesp_log_early_timestamp
p3125
atp3126
a(L2258688482L
L0L
(lp3127
(lp3128
tp3129
a(L3360570486L
L0L
(lp3130
(lp3131
tp3132
a(L3881596654L
L3785322319L
(lp3133
(lp3134
Vesp_partition_table_verify
p3135
atp3136
a(L2037405970L
L3785322319L
(lp3137
(lp3138
Vesp_log_early_timestamp
p3139
atp3140
a(L598005878L
L1880226080L
(lp3141
(lp3142
Vesp_log_early_timestamp
p3143
aVesp_log_early_timestamp
p3144
atp3145
a(L650140130L
L0L
(lp3146
(lp3147
tp3148
a(L3012151332L
L1880226080L
(lp3149
(lp3150
Vbootloader_munmap
p3151
aVesp_log_early_timestamp
p3152
atp3153
a(L521126897L
L0L
(lp3154
(lp3155
tp3156
a(L3028464L
L0L
(lp3157
(lp3158
tp3159
a(L106L
L0L
(lp3160
(lp3161
tp3162
a(L1403802546L
L0L
(lp3163
(lp3164
tp3165
a(L496969430L
L3785322319L
(lp3166
(lp3167
Vesp_log_early_timestamp
p3168
atp3169
a(L3990577774L
L0L
(lp3170
(lp3171
tp3172
a(L3020187L
L0L
(lp3173
(lp3174
tp3175
a(L2318212397L
L0L
(lp3176
(lp3177
tp3178
a(L4208504540L
L0L
(lp3179
(lp3180
tp3181
a(L1859217843L
L0L
(lp3182
(lp3183
tp3184
a(L2546691246L
L0L
(lp3185
(lp3186
tp3187
a(L3797730446L
L0L
(lp3188
(lp3189
tp3190
a(L106L
L0L
(lp3191
(lp3192
tp3193
a(L93674324L
L0L
(lp3194
(lp3195
tp3196
a(L1583301205L
L0L
(lp3197
(lp3198
tp3199
a(L1938133383L
L0L
(lp3200
(lp3201
tp3202
a(L1630400759L
L0L
(lp3203
(lp3204
tp3205
a(L106L
L0L
(lp3206
(lp3207
tp3208
a(L928516522L
L0L
(lp3209
(lp3210
tp3211
a(L106L
L0L
(lp3212
(lp3213
tp3214
a(L568204863L
L0L
(lp3215
(lp3216
tp3217
atp3218
sI1074236840
(Vis_xmc_chip_strict
p3219
(lp3220
(L1286841609L
L0L
(lp3221
(lp3222
tp3223
a(L2234016759L
L0L
(lp3224
(lp3225
tp3226
a(L1069027148L
L0L
(lp3227
(lp3228
tp3229
a(L3021749L
L0L
(lp3230
(lp3231
tp3232
a(L1900148749L
L0L
(lp3233
(lp3234
tp3235
a(L1936875721L
L0L
(lp3236
(lp3237
tp3238
a(L3356166509L
L0L
(lp3239
(lp3240
tp3241
a(L1937769451L
L0L
(lp3242
(lp3243
tp3244
a(L2137658907L
L0L
(lp3245
(lp3246
tp3247
a(L4265949734L
L0L
(lp3248
(lp3249
tp3250
a(L3360570486L
L0L
(lp3251
(lp3252
tp3253
atp3254
sI1074245032
(Vrtc_clk_32k_enable
p3255
(lp3256
(L753387299L
L0L
(lp3257
(lp3258
tp3259
a(L3776007933L
L3785322319L
(lp3260
(lp3261
Vrtc_clk_32k_enable_common
p3262
atp3263
a(L3496950L
L0L
(lp3264
(lp3265
tp3266
a(L2501812159L
L0L
(lp3267
(lp3268
tp3269
atp3270
sI1074247848
(Vesp_rom_spiflash_write
p3271
(lp3272
(L3906515568L
L0L
(lp3273
(lp3274
tp3275
a(L2258688483L
L0L
(lp3276
(lp3277
tp3278
a(L3360570486L
L0L
(lp3279
(lp3280
tp3281
a(L3368132847L
L0L
(lp3282
(lp3283
tp3284
a(L3106685981L
L0L
(lp3285
(lp3286
tp3287
a(L3488660639L
L3785322319L
(lp3288
(lp3289
Vesp_rom_spiflash_program_page_internal
p3290
atp3291
a(L3543402353L
L3785322319L
(lp3292
(lp3293
Vesp_rom_spiflash_program_page_internal
p3294
atp3295
a(L4222526342L
L0L
(lp3296
(lp3297
tp3298
a(L2004208511L
L0L
(lp3299
(lp3300
tp3301
a(L564470656L
L0L
(lp3302
(lp3303
tp3304
a(L2988842384L
L3785322319L
(lp3305
(lp3306
Vesp_rom_spiflash_program_page_internal
p3307
atp3308
a(L2302069176L
L0L
(lp3309
(lp3310
tp3311
atp3312
sI1074235572
(Vbootloader_read_flash_id
p3313
(lp3314
(L549578328L
L3785322319L
(lp3315
(lp3316
Vbootloader_execute_flash_command
p3317
atp3318
atp3319
sI1074267836
(Vwdt_reset_info_dump
p3320
(lp3321
(L4037466985L
L0L
(lp3322
(lp3323
tp3324
a(L826419141L
L0L
(lp3325
(lp3326
tp3327
a(L527117834L
L0L
(lp3328
(lp3329
tp3330
a(L1103285333L
L0L
(lp3331
(lp3332
tp3333
a(L897464656L
L3785322319L
(lp3334
(lp3335
Vesp_log_early_timestamp
p3336
atp3337
a(L2967992533L
L0L
(lp3338
(lp3339
tp3340
a(L144195250L
L3785322319L
(lp3341
(lp3342
Vesp_log_early_timestamp
p3343
atp3344
a(L2899013701L
L0L
(lp3345
(lp3346
tp3347
atp3348
sI1074269616
(Vbootloader_flash_update_id
p3349
(lp3350
(L3149875550L
L3785322319L
(lp3351
(lp3352
Vbootloader_read_flash_id
p3353
atp3354
atp3355
sI1074240444
(Vbootloader_sha256_data
p3356
(lp3357
(L4066096136L
L0L
(lp3358
(lp3359
tp3360
a(L110883720L
L0L
(lp3361
(lp3362
tp3363
a(L3884092851L
L3785322319L
(lp3364
(lp3365
V__assert_func
p3366
atp3367
a(L498498478L
L0L
(lp3368
(lp3369
tp3370
a(L1040021824L
L0L
(lp3371
(lp3372
tp3373
a(L2910371777L
L0L
(lp3374
(lp3375
tp3376
a(L3360570486L
L0L
(lp3377
(lp3378
tp3379
a(L1788837773L
L0L
(lp3380
(lp3381
tp3382
a(L541898147L
L0L
(lp3383
(lp3384
tp3385
a(L2604061911L
L0L
(lp3386
(lp3387
tp3388
a(L8683590L
L0L
(lp3389
(lp3390
tp3391
a(L3387118333L
L0L
(lp3392
(lp3393
tp3394
a(L2032890799L
L0L
(lp3395
(lp3396
tp3397
a(L3028464L
L0L
(lp3398
(lp3399
tp3400
a(L707876039L
L0L
(lp3401
(lp3402
tp3403
a(L498156265L
L0L
(lp3404
(lp3405
tp3406
atp3407
sI1074236600
(Vesp_rom_uart_set_clock_baudrate
p3408
(lp3409
(L3381693543L
L0L
(lp3410
(lp3411
tp3412
a(L2334982986L
L0L
(lp3413
(lp3414
tp3415
a(L2805931264L
L0L
(lp3416
(lp3417
tp3418
a(L3887231631L
L0L
(lp3419
(lp3420
tp3421
atp3422
sI1074269128
(Vbootloader_random_enable
p3423
(lp3424
(L1578364810L
L0L
(lp3425
(lp3426
tp3427
atp3428
sI1074269896
(Vbootloader_enable_random
p3429
(lp3430
(L1278562623L
L1880226080L
(lp3431
(lp3432
Vesp_log_early_timestamp
p3433
aVbootloader_random_enable
p3434
atp3435
atp3436
sI1074236356
(Vbootloader_flash_dummy_config
p3437
(lp3438
(L379397211L
L0L
(lp3439
(lp3440
tp3441
a(L2761717557L
L0L
(lp3442
(lp3443
tp3444
a(L1849044936L
L0L
(lp3445
(lp3446
tp3447
a(L1396570841L
L0L
(lp3448
(lp3449
tp3450
a(L326359429L
L0L
(lp3451
(lp3452
tp3453
a(L3020204L
L0L
(lp3454
(lp3455
tp3456
a(L1610443405L
L0L
(lp3457
(lp3458
tp3459
a(L4032120524L
L0L
(lp3460
(lp3461
tp3462
a(L2336993863L
L0L
(lp3463
(lp3464
tp3465
a(L1298875775L
L0L
(lp3466
(lp3467
tp3468
a(L3880393601L
L0L
(lp3469
(lp3470
tp3471
a(L3433671740L
L0L
(lp3472
(lp3473
tp3474
a(L1610443436L
L0L
(lp3475
(lp3476
tp3477
atp3478
sI1074270924
(Vmpu_hal_set_region_access
p3479
(lp3480
(L3538356822L
L0L
(lp3481
(lp3482
tp3483
a(L93674324L
L0L
(lp3484
(lp3485
tp3486
a(L2910371777L
L0L
(lp3487
(lp3488
tp3489
a(L3472092938L
L0L
(lp3490
(lp3491
tp3492
a(L3020187L
L0L
(lp3493
(lp3494
tp3495
a(L3360570486L
L0L
(lp3496
(lp3497
tp3498
a(L2258718273L
L0L
(lp3499
(lp3500
tp3501
a(L3446648619L
L0L
(lp3502
(lp3503
tp3504
a(L3739532189L
L0L
(lp3505
(lp3506
tp3507
a(L1300789895L
L0L
(lp3508
(lp3509
tp3510
atp3511
sI1074237376
(Vspi_to_esp_err
p3512
(lp3513
(L3520881295L
L0L
(lp3514
(lp3515
tp3516
a(L2402400019L
L0L
(lp3517
(lp3518
tp3519
a(L3952441574L
L0L
(lp3520
(lp3521
tp3522
a(L3126521138L
L0L
(lp3523
(lp3524
tp3525
atp3526
sI1074237632
(Vbootloader_munmap
p3527
(lp3528
(L1697403118L
L0L
(lp3529
(lp3530
tp3531
a(L3761142808L
L0L
(lp3532
(lp3533
tp3534
a(L3360570486L
L0L
(lp3535
(lp3536
tp3537
atp3538
sI1074245824
(Vrtc_clk_apb_freq_update
p3539
(lp3540
(L723331471L
L0L
(lp3541
(lp3542
tp3543
atp3544
sI1074269120
(Vbootloader_init_mem
p3545
(lp3546
(L1287383080L
L3785322319L
(lp3547
(lp3548
Vesp_cpu_configure_region_protection
p3549
atp3550
atp3551
sI1074269632
(Vbootloader_clear_bss_section
p3552
(lp3553
(L1133714402L
L0L
(lp3554
(lp3555
tp3556
atp3557
sI1074268888
(Vbootloader_clock_configure
p3558
(lp3559
(L2559598596L
L1880226080L
(lp3560
(lp3561
Vesp_rom_uart_tx_wait_idle
p3562
aVefuse_hal_chip_revision
p3563
atp3564
a(L4006799969L
L0L
(lp3565
(lp3566
tp3567
a(L883406775L
L0L
(lp3568
(lp3569
tp3570
a(L106L
L0L
(lp3571
(lp3572
tp3573
a(L4161070602L
L1832448559L
(lp3574
(lp3575
Vrtc_clk_slow_src_get
p3576
aVrtc_clk_fast_src_get
p3577
aVrtc_clk_init
p3578
atp3579
a(L2587354260L
L0L
(lp3580
(lp3581
tp3582
a(L1108834551L
L3785322319L
(lp3583
(lp3584
Vrtc_clk_apb_freq_get
p3585
atp3586
a(L106L
L0L
(lp3587
(lp3588
tp3589
a(L106L
L0L
(lp3590
(lp3591
tp3592
atp3593
sI1074269656
(Vbootloader_read_bootloader_header
p3594
(lp3595
(L1158061215L
L3785322319L
(lp3596
(lp3597
Vbootloader_flash_read
p3598
atp3599
a(L996487665L
L3785322319L
(lp3600
(lp3601
Vesp_log_early_timestamp
p3602
atp3603
a(L735741265L
L0L
(lp3604
(lp3605
tp3606
atp3607
sI1074244564
(Vmmu_hal_init
p3608
(lp3609
(L1381828061L
L0L
(lp3610
(lp3611
tp3612
a(L2010554219L
L0L
(lp3613
(lp3614
tp3615
a(L3268103L
L0L
(lp3616
(lp3617
tp3618
a(L3212334523L
L0L
(lp3619
(lp3620
tp3621
a(L2010554219L
L0L
(lp3622
(lp3623
tp3624
a(L3360570486L
L0L
(lp3625
(lp3626
tp3627
atp3628
sI1074244816
(Vrtc_clk_cpu_freq_to_pll_mhz
p3629
(lp3630
(L1393544349L
L0L
(lp3631
(lp3632
tp3633
a(L405771233L
L0L
(lp3634
(lp3635
tp3636
a(L2930233244L
L0L
(lp3637
(lp3638
tp3639
a(L3298441904L
L0L
(lp3640
(lp3641
tp3642
a(L3680579786L
L0L
(lp3643
(lp3644
tp3645
a(L1298905564L
L0L
(lp3646
(lp3647
tp3648
a(L46269790L
L3785322319L
(lp3649
(lp3650
Vrtc_clk_wait_for_slow_cycle
p3651
atp3652
a(L1611366957L
L0L
(lp3653
(lp3654
tp3655
a(L1611366988L
L0L
(lp3656
(lp3657
tp3658
a(L94425498L
L3785322319L
(lp3659
(lp3660
Vabort
p3661
atp3662
atp3663
sI1074244048
(Vwdt_hal_config_stage
p3664
(lp3665
(L331558507L
L0L
(lp3666
(lp3667
tp3668
a(L4279082939L
L0L
(lp3669
(lp3670
tp3671
a(L93674324L
L0L
(lp3672
(lp3673
tp3674
a(L2902417580L
L0L
(lp3675
(lp3676
tp3677
a(L1485495983L
L0L
(lp3678
(lp3679
tp3680
a(L3020187L
L0L
(lp3681
(lp3682
tp3683
a(L94425498L
L3785322319L
(lp3684
(lp3685
Vabort
p3686
atp3687
a(L2718517169L
L0L
(lp3688
(lp3689
tp3690
a(L3360570486L
L0L
(lp3691
(lp3692
tp3693
a(L1996799187L
L0L
(lp3694
(lp3695
tp3696
a(L2771194801L
L0L
(lp3697
(lp3698
tp3699
a(L4278159418L
L0L
(lp3700
(lp3701
tp3702
a(L93674324L
L0L
(lp3703
(lp3704
tp3705
a(L3020204L
L0L
(lp3706
(lp3707
tp3708
a(L3391750594L
L0L
(lp3709
(lp3710
tp3711
a(L3020187L
L0L
(lp3712
(lp3713
tp3714
a(L106L
L0L
(lp3715
(lp3716
tp3717
a(L239610384L
L0L
(lp3718
(lp3719
tp3720
a(L831450820L
L0L
(lp3721
(lp3722
tp3723
a(L3340783449L
L0L
(lp3724
(lp3725
tp3726
atp3727
sI1074245852
(Vrtc_clk_cpu_freq_to_xtal
p3728
(lp3729
(L2382625401L
L0L
(lp3730
(lp3731
tp3732
a(L94425498L
L3785322319L
(lp3733
(lp3734
Vabort
p3735
atp3736
a(L2975556993L
L3785322319L
(lp3737
(lp3738
Vrtc_clk_apb_freq_update
p3739
atp3740
a(L2258867232L
L0L
(lp3741
(lp3742
tp3743
a(L362206021L
L0L
(lp3744
(lp3745
tp3746
atp3747
sI1074247132
(Vrtc_clk_cal_ratio
p3748
(lp3749
(L1201925337L
L3785322319L
(lp3750
(lp3751
Vrtc_clk_cal_internal
p3752
atp3753
atp3754
sI1074245092
(Vrtc_clk_8m_enable
p3755
(lp3756
(L1843101924L
L0L
(lp3757
(lp3758
tp3759
a(L3147299128L
L0L
(lp3760
(lp3761
tp3762
a(L2151320156L
L0L
(lp3763
(lp3764
tp3765
a(L1456128412L
L0L
(lp3766
(lp3767
tp3768
a(L3360570486L
L0L
(lp3769
(lp3770
tp3771
a(L1318267208L
L0L
(lp3772
(lp3773
tp3774
a(L512411289L
L0L
(lp3775
(lp3776
tp3777
atp3778
sI1074235620
(Vbootloader_flash_xmc_startup
p3779
(lp3780
(L3193865048L
L3785322319L
(lp3781
(lp3782
Vis_xmc_chip_strict
p3783
atp3784
a(L2258688482L
L0L
(lp3785
(lp3786
tp3787
a(L3360570486L
L0L
(lp3788
(lp3789
tp3790
a(L2860324232L
L3785322319L
(lp3791
(lp3792
Vbootloader_flash_read_sfdp
p3793
atp3794
a(L1435030724L
L2567856111L
(lp3795
(lp3796
Vesp_log_early_timestamp
p3797
aVbootloader_execute_flash_command
p3798
aVbootloader_execute_flash_command
p3799
aVbootloader_execute_flash_command
p3800
aVbootloader_execute_flash_command
p3801
aVbootloader_read_flash_id
p3802
aVis_xmc_chip_strict
p3803
atp3804
a(L3505255384L
L3785322319L
(lp3805
(lp3806
Vesp_log_early_timestamp
p3807
atp3808
atp3809
sI1074237408
(Vbootloader_mmap
p3810
(lp3811
(L3624397292L
L0L
(lp3812
(lp3813
tp3814
a(L243940828L
L3785322319L
(lp3815
(lp3816
Vesp_log_early_timestamp
p3817
atp3818
a(L3871473710L
L0L
(lp3819
(lp3820
tp3821
a(L3729184599L
L0L
(lp3822
(lp3823
tp3824
a(L420931470L
L3785322319L
(lp3825
(lp3826
Vesp_log_early_timestamp
p3827
atp3828
a(L1864365708L
L0L
(lp3829
(lp3830
tp3831
a(L3643511071L
L3785322319L
(lp3832
(lp3833
Vesp_log_early_timestamp
p3834
atp3835
a(L258722864L
L0L
(lp3836
(lp3837
tp3838
a(L3840066862L
L3785322319L
(lp3839
(lp3840
Vesp_log_early_timestamp
p3841
atp3842
a(L2535155408L
L0L
(lp3843
(lp3844
tp3845
atp3846
sI1074269924
(Vbootloader_print_banner
p3847
(lp3848
(L3833268759L
L1832448559L
(lp3849
(lp3850
Vesp_log_early_timestamp
p3851
aVesp_log_early_timestamp
p3852
aVesp_log_early_timestamp
p3853
atp3854
atp3855
sI1074270692
(Vrtc_vddsdio_get_config
p3856
(lp3857
(L1825737531L
L0L
(lp3858
(lp3859
tp3860
a(L3421108135L
L0L
(lp3861
(lp3862
tp3863
a(L3002774692L
L0L
(lp3864
(lp3865
tp3866
a(L3784564000L
L0L
(lp3867
(lp3868
tp3869
a(L3399561523L
L0L
(lp3870
(lp3871
tp3872
a(L2423030990L
L0L
(lp3873
(lp3874
tp3875
a(L1306330959L
L0L
(lp3876
(lp3877
tp3878
a(L1167336421L
L0L
(lp3879
(lp3880
tp3881
atp3882
sI1074241256
(Vbootloader_util_regions_overlap
p3883
(lp3884
(L2762640130L
L0L
(lp3885
(lp3886
tp3887
a(L2198512677L
L0L
(lp3888
(lp3889
tp3890
a(L2217655633L
L3785322319L
(lp3891
(lp3892
V__assert_func
p3893
atp3894
a(L97642L
L0L
(lp3895
(lp3896
tp3897
a(L996187529L
L0L
(lp3898
(lp3899
tp3900
a(L366123053L
L0L
(lp3901
(lp3902
tp3903
a(L2258867228L
L0L
(lp3904
(lp3905
tp3906
a(L1253626734L
L0L
(lp3907
(lp3908
tp3909
a(L2258897019L
L0L
(lp3910
(lp3911
tp3912
a(L3109269495L
L0L
(lp3913
(lp3914
tp3915
atp3916
sI1074237684
(Vbootloader_flash_read
p3917
(lp3918
(L728393898L
L0L
(lp3919
(lp3920
tp3921
a(L2508346275L
L3785322319L
(lp3922
(lp3923
Vesp_log_early_timestamp
p3924
atp3925
a(L1024709524L
L0L
(lp3926
(lp3927
tp3928
a(L3360570486L
L0L
(lp3929
(lp3930
tp3931
a(L2660352519L
L0L
(lp3932
(lp3933
tp3934
a(L1628083166L
L3785322319L
(lp3935
(lp3936
Vesp_log_early_timestamp
p3937
atp3938
a(L162336582L
L0L
(lp3939
(lp3940
tp3941
a(L1263385939L
L3785322319L
(lp3942
(lp3943
Vesp_log_early_timestamp
p3944
atp3945
a(L3020204L
L0L
(lp3946
(lp3947
tp3948
a(L3893043951L
L0L
(lp3949
(lp3950
tp3951
a(L97422L
L0L
(lp3952
(lp3953
tp3954
a(L1190291857L
L0L
(lp3955
(lp3956
tp3957
a(L2961856275L
L0L
(lp3958
(lp3959
tp3960
a(L3929038665L
L3785322319L
(lp3961
(lp3962
V__assert_func
p3963
atp3964
a(L1539897528L
L0L
(lp3965
(lp3966
tp3967
a(L1915165223L
L0L
(lp3968
(lp3969
tp3970
a(L1336007148L
L1880226080L
(lp3971
(lp3972
Vesp_rom_spiflash_read
p3973
aVspi_to_esp_err
p3974
atp3975
atp3976
sI1074247412
(Vesp_rom_spiflash_wait_idle
p3977
(lp3978
(L3233077286L
L0L
(lp3979
(lp3980
tp3981
a(L2023766174L
L0L
(lp3982
(lp3983
tp3984
a(L2805935267L
L0L
(lp3985
(lp3986
tp3987
a(L3086959262L
L0L
(lp3988
(lp3989
tp3990
a(L4161019926L
L3785322319L
(lp3991
(lp3992
Vesp_rom_spiflash_read_status
p3993
atp3994
atp3995
sI1074236912
(Vesp_log_early_timestamp
p3996
(lp3997
(L3733265409L
L0L
(lp3998
(lp3999
tp4000
atp4001
sI1074235888
(Vbootloader_flash_gpio_config
p4002
(lp4003
(L3448878117L
L3785322319L
(lp4004
(lp4005
Vbootloader_common_get_chip_ver_pkg
p4006
atp4007
a(L106L
L0L
(lp4008
(lp4009
tp4010
a(L1998579353L
L0L
(lp4011
(lp4012
tp4013
a(L106L
L0L
(lp4014
(lp4015
tp4016
a(L961479410L
L0L
(lp4017
(lp4018
tp4019
a(L3118453758L
L0L
(lp4020
(lp4021
tp4022
a(L106L
L0L
(lp4023
(lp4024
tp4025
a(L4003626558L
L0L
(lp4026
(lp4027
tp4028
a(L2656511625L
L0L
(lp4029
(lp4030
tp4031
a(L3360570486L
L0L
(lp4032
(lp4033
tp4034
atp4035
sI1074237936
(Vbootloader_flash_erase_sector
p4036
(lp4037
(L4129137686L
L1880226080L
(lp4038
(lp4039
Vesp_rom_spiflash_erase_sector
p4040
aVspi_to_esp_err
p4041
atp4042
atp4043
sI1074238204
(Vbootloader_random_disable
p4044
(lp4045
(L3778370451L
L0L
(lp4046
(lp4047
tp4048
atp4049
sI1074246652
(Vrtc_clk_apb_freq_get
p4050
(lp4051
(L3268507198L
L0L
(lp4052
(lp4053
tp4054
atp4055
sI1074247164
(Vrtc_clk_wait_for_slow_cycle
p4056
(lp4057
(L4046141382L
L0L
(lp4058
(lp4059
tp4060
a(L287687718L
L0L
(lp4061
(lp4062
tp4063
a(L3360570486L
L0L
(lp4064
(lp4065
tp4066
a(L835269876L
L0L
(lp4067
(lp4068
tp4069
a(L2994547433L
L0L
(lp4070
(lp4071
tp4072
a(L2206597745L
L0L
(lp4073
(lp4074
tp4075
a(L2406841559L
L3785322319L
(lp4076
(lp4077
Vesp_log_early_timestamp
p4078
atp4079
atp4080
ssS'functionsdups'
p4081
g11
((lp4082
tp4083
Rp4084
sS'immediatedups'
p4085
g11
((lp4086
tp4087
Rp4088
sS'functiondups'
p4089
g11
((lp4090
tp4091
Rp4092
sS'fuzzy'
p4093
(dp4094
L438947497L
I1074245268
sL2170867428L
I1074270256
sL617583950L
I1074237000
sL430153639L
I1074235888
sL3121027072L
I1074270692
sL2082889262L
I1074241708
sL291131346L
I1074244816
sL835568324L
I1074246696
sL2919016435L
I1074235228
sL16208487L
I1074234716
sL2319042089L
I1074245400
sL3881399234L
I1074245852
sL2919036513L
I1074238892
sL151789201L
I1074270072
sL2680783959L
I1074235620
sL3512578114L
I1074238740
sL1419132215L
I1074238124
sL2469233929L
I1074240600
sL701833459L
I1074268888
sL3897252859L
I1074238532
sL1065525808L
I1074236840
sL2327783177L
I1074240892
sL1164839255L
I1074241928
sL2272466760L
I1074245640
sL2117292686L
I1074241312
sL2044047637L
I1074239400
sL1188065553L
I1074237684
sL94556391L
I1074245428
sL3210669721L
I1074245032
sL1332800441L
I1074237232
sL2884218272L
I1074267836
sL1168466927L
I1074268056
sL1345429244L
I1074241064
sL3190020590L
I1074242648
sL2828970830L
I1074239280
sL4160102055L
I1074240076
sL4202185385L
I1074247412
sL1768086576L
I1074236356
sL4171975289L
I1074247712
sL1565254297L
I1074248012
sL1205407754L
I1074240108
sL2191698036L
I1074269768
sL1513350244L
I1074239764
sL1635528231L
I1074244048
sL519424169L
I1074247164
sL1060788199L
I1074245548
sL406720601L
I1074238616
sL737694352L
I1074247520
sL503029138L
I1074247460
sL1616763831L
I1074248100
sL2262558768L
I1074247324
sL424867129L
I1074247848
sL3834155367L
I1074241256
sL2405032630L
I1074267728
sL3338518926L
I1074237408
sL2123938668L
I1074245968
sL3883282432L
I1074241800
sL4173399607L
I1074243164
sL1667054119L
I1074240444
sL206902443L
I1074237956
ssb.