ccopy_reg
_reconstructor
p0
(crizzo
RizzoSignature
p1
c__builtin__
object
p2
Ntp3
Rp4
(dp5
S'formal'
p6
(dp7
L2399612421L
I1074245492
sL1207862518L
I1074240600
sL250925565L
I1074238616
sL1741170115L
I1074237936
sL4057657041L
I1074243164
sL1725217240L
I1074237684
sL2547468762L
I1074239400
sL3474818576L
I1074267139
sL389767469L
I1074238740
sL1237733855L
I1074238840
sL4213015302L
I1074243148
sL2940696155L
I1074245852
sL1057008413L
I1074239764
sL2572469622L
I1074247164
sL2680057242L
I1074268940
sL3183029151L
I1074236704
sL818480367L
I1074236600
sL693028457L
I1074240424
sL3232221579L
I1074244652
sL142168405L
I1074245824
sL1246203243L
I1074248100
sL2702580795L
I1074237300
sL3646029665L
I1074244816
sL957766179L
I1074269684
sL2896295319L
I1074236840
sL944494460L
I1074245032
sL1374233296L
I1074270744
sL1988665523L
I1074269948
sL1674148343L
I1074245548
sL2030740789L
I1074246652
sL3372451650L
I1074240812
sL2485902447L
I1074236680
sL2460396001L
I1074248012
sL1194582906L
I1074245268
sL3622470307L
I1074247324
sL714831826L
I1074268108
sL2196319906L
I1074267888
sL3333913339L
I1074243452
sL4263947382L
I1074236504
sL1430212718L
I1074237000
sL2166402678L
I1074235776
sL1585823442L
I1074244464
sL434079622L
I1074240836
sL1622896354L
I1074244492
sL3350648555L
I1074237408
sL2860345888L
I1074267840
sL2738962974L
I1074267740
sL3705747329L
I1074247412
sL4114369372L
I1074247712
sL2205902618L
I1074239280
sL878917889L
I1074238124
sL2715653561L
I1074245428
sL1016500464L
I1074244972
sL3690902937L
I1074269976
sL295560948L
I1074269668
sL1079402047L
I1074269752
sL3322600544L
I1074240892
sL2951847322L
I1074244680
sL4105206235L
I1074247520
sL2824130623L
I1074270904
sL747962360L
I1074236744
sL361883644L
I1074240076
sL2657237012L
I1074245092
sL3169546899L
I1074236356
sL2128774811L
I1074236536
sL1259414891L
I1074245220
sL3010229777L
I1074246696
sL768348750L
I1074238788
sL426984944L
I1074236912
sL676927194L
I1074269172
sL2277098556L
I1074236812
sL3307282855L
I1074238096
sL1853923591L
I1074245400
sL911764690L
I1074237632
sL2563964767L
I1074235888
sL1043339424L
I1074240348
sL1615827934L
I1074270040
sL3837755948L
I1074240444
sL60374282L
I1074245244
sL314554666L
I1074245640
sL2472605942L
I1074245780
sL3890636657L
I1074270124
sL2923973333L
I1074245968
sL2437830867L
I1074269180
sL1687894276L
I1074244364
sL4038945309L
I1074235572
sL4100494285L
I1074247848
sL2626436395L
I1074236944
sL1275163307L
I1074244564
sL3050555005L
I1074247132
sL2997001746L
I1074237232
sL570329166L
I1074270308
sL952722552L
I1074247460
sL3308751493L
I1074241064
sL2819127986L
I1074236964
sL1565966572L
I1074240108
sL3073265555L
I1074237956
sL3275213961L
I1074238204
sL1781962889L
I1074241800
sL1877634603L
I1074270984
sL1317093701L
I1074238532
sL3379108269L
I1074244048
sL2305512365L
I1074267864
sL4058363426L
I1074241708
sL3459889393L
I1074244396
sL4081919617L
I1074238892
sL2443786874L
I1074241312
sL2810302546L
I1074270076
sL404293581L
I1074237376
sL2263182908L
I1074238116
sL1267159130L
I1074235228
sL4081730711L
I1074242648
sL3630163135L
I1074236828
sL188664287L
I1074235196
sL782838600L
I1074240796
sL1499807873L
I1074244612
sL3075360168L
I1074241256
sL692536993L
I1074237272
sL1963047656L
I1074234716
sL2569070799L
I1074241928
sL68553959L
I1074269820
sL1636616062L
I1074235520
sL3049985855L
I1074235620
sL2370405299L
I1074268884
sL617266487L
I1074269708
sL2398800133L
I1074245508
ssS'immediates'
p8
(dp9
sS'formaldups'
p10
c__builtin__
set
p11
((lp12
tp13
Rp14
sS'stringdups'
p15
g11
((lp16
tp17
Rp18
sS'fuzzydups'
p19
g11
((lp20
tp21
Rp22
sS'strings'
p23
(dp24
sS'functions'
p25
(dp26
I1074270984
(Vmpu_hal_set_region_access
p27
(lp28
(L3538356822L
L0L
(lp29
(lp30
tp31
a(L93674324L
L0L
(lp32
(lp33
tp34
a(L2910371777L
L0L
(lp35
(lp36
tp37
a(L3472092938L
L0L
(lp38
(lp39
tp40
a(L3020187L
L0L
(lp41
(lp42
tp43
a(L3360570486L
L0L
(lp44
(lp45
tp46
a(L2258718273L
L0L
(lp47
(lp48
tp49
a(L3446648619L
L0L
(lp50
(lp51
tp52
a(L3739532189L
L0L
(lp53
(lp54
tp55
a(L1300789895L
L0L
(lp56
(lp57
tp58
atp59
sI1074244612
(Vefuse_hal_get_rated_freq_mhz
p60
(lp61
(L3387138627L
L0L
(lp62
(lp63
tp64
a(L3671388797L
L0L
(lp65
(lp66
tp67
a(L3360570486L
L0L
(lp68
(lp69
tp70
atp71
sI1074237956
(Vbootloader_flash_write
p72
(lp73
(L3770380603L
L0L
(lp74
(lp75
tp76
a(L379117946L
L3785322319L
(lp77
(lp78
Vesp_log_early_timestamp
p79
atp80
a(L283255622L
L0L
(lp81
(lp82
tp83
a(L1610445075L
L0L
(lp84
(lp85
tp86
a(L735741265L
L0L
(lp87
(lp88
tp89
a(L3291333414L
L0L
(lp90
(lp91
tp92
a(L553944362L
L3785322319L
(lp93
(lp94
Vesp_log_early_timestamp
p95
atp96
a(L3283691850L
L0L
(lp97
(lp98
tp99
a(L3791206662L
L3785322319L
(lp100
(lp101
Vesp_log_early_timestamp
p102
atp103
a(L3212356251L
L3785322319L
(lp104
(lp105
Vbootloader_flash_unlock
p106
atp107
a(L1799218633L
L0L
(lp108
(lp109
tp110
a(L94425498L
L3785322319L
(lp111
(lp112
Vesp_rom_spiflash_write_encrypted
p113
atp114
a(L2927190544L
L3785322319L
(lp115
(lp116
Vspi_to_esp_err
p117
atp118
a(L2927190544L
L3785322319L
(lp119
(lp120
Vesp_rom_spiflash_write
p121
atp122
atp123
sI1074268940
(Vbootloader_clock_configure
p124
(lp125
(L2559598596L
L1880226080L
(lp126
(lp127
Vesp_rom_uart_tx_wait_idle
p128
aVefuse_hal_chip_revision
p129
atp130
a(L570724988L
L0L
(lp131
(lp132
tp133
a(L883406775L
L0L
(lp134
(lp135
tp136
a(L106L
L0L
(lp137
(lp138
tp139
a(L2989782009L
L1832448559L
(lp140
(lp141
Vrtc_clk_slow_src_get
p142
aVrtc_clk_fast_src_get
p143
aVrtc_clk_init
p144
atp145
a(L1533499661L
L0L
(lp146
(lp147
tp148
a(L1155934122L
L3785322319L
(lp149
(lp150
Vrtc_clk_apb_freq_get
p151
atp152
a(L106L
L0L
(lp153
(lp154
tp155
a(L106L
L0L
(lp156
(lp157
tp158
atp159
sI1074269708
(Vbootloader_read_bootloader_header
p160
(lp161
(L319705548L
L3785322319L
(lp162
(lp163
Vbootloader_flash_read
p164
atp165
a(L3309116114L
L3785322319L
(lp166
(lp167
Vesp_log_early_timestamp
p168
atp169
a(L735741265L
L0L
(lp170
(lp171
tp172
atp173
sI1074267136
(V_init
p174
(lp175
(L3493042598L
L0L
(lp176
(lp177
tp178
atp179
sI1074270976
(Vbootloader_hooks_include
p180
(lp181
(L2100504542L
L0L
(lp182
(lp183
tp184
atp185
sI1074244364
(Vwdt_hal_write_protect_disable
p186
(lp187
(L3345031483L
L0L
(lp188
(lp189
tp190
a(L4195472003L
L0L
(lp191
(lp192
tp193
a(L3360570486L
L0L
(lp194
(lp195
tp196
a(L1210571996L
L0L
(lp197
(lp198
tp199
atp200
sI1074245388
(Vrtc_clk_slow_src_get
p201
(lp202
(L376617603L
L3785322319L
(lp203
(lp204
Vclk_ll_rtc_slow_get_src
p205
atp206
atp207
sI1074267139
(V_text_start
p208
(lp209
(L861148101L
L0L
(lp210
(lp211
tp212
atp213
sI1074241800
(Vshould_load
p214
(lp215
(L1379502686L
L0L
(lp216
(lp217
tp218
a(L1182990556L
L0L
(lp219
(lp220
tp221
a(L1188500889L
L0L
(lp222
(lp223
tp224
a(L2306467100L
L0L
(lp225
(lp226
tp227
a(L1002638193L
L0L
(lp228
(lp229
tp230
a(L2258897019L
L0L
(lp231
(lp232
tp233
a(L3781799363L
L0L
(lp234
(lp235
tp236
a(L3028464L
L0L
(lp237
(lp238
tp239
a(L2219325068L
L0L
(lp240
(lp241
tp242
a(L4277114872L
L0L
(lp243
(lp244
tp245
a(L2824381917L
L0L
(lp246
(lp247
tp248
a(L1243412227L
L0L
(lp249
(lp250
tp251
a(L2011157548L
L0L
(lp252
(lp253
tp254
a(L3126521138L
L0L
(lp255
(lp256
tp257
a(L1305407438L
L0L
(lp258
(lp259
tp260
a(L1305407469L
L0L
(lp261
(lp262
tp263
atp264
sI1074236680
(Vefuse_hal_chip_revision
p265
(lp266
(L2719302832L
L1880226080L
(lp267
(lp268
Vefuse_hal_get_major_chip_version
p269
aVefuse_hal_get_minor_chip_version
p270
atp271
atp272
sI1074245640
(Vrtc_clk_cpu_freq_get_config
p273
(lp274
(L3852097526L
L0L
(lp275
(lp276
tp277
a(L3020187L
L0L
(lp278
(lp279
tp280
a(L3020187L
L0L
(lp281
(lp282
tp283
a(L1339883774L
L3785322319L
(lp284
(lp285
Vrtc_clk_xtal_freq_get
p286
atp287
a(L3789795478L
L0L
(lp288
(lp289
tp290
a(L1360441458L
L1880226080L
(lp291
(lp292
Vesp_log_early_timestamp
p293
aVabort
p294
atp295
a(L3035450075L
L0L
(lp296
(lp297
tp298
a(L3020187L
L0L
(lp299
(lp300
tp301
a(L3028481L
L0L
(lp302
(lp303
tp304
a(L38508693L
L0L
(lp305
(lp306
tp307
a(L187152368L
L0L
(lp308
(lp309
tp310
a(L1161083655L
L0L
(lp311
(lp312
tp313
a(L1395485899L
L0L
(lp314
(lp315
tp316
a(L2070600034L
L0L
(lp317
(lp318
tp319
atp320
sI1074269976
(Vbootloader_print_banner
p321
(lp322
(L1692544682L
L1832448559L
(lp323
(lp324
Vesp_log_early_timestamp
p325
aVesp_log_early_timestamp
p326
aVesp_log_early_timestamp
p327
atp328
atp329
sI1074270744
(Vrtc_vddsdio_get_config
p330
(lp331
(L215621319L
L0L
(lp332
(lp333
tp334
a(L3421108135L
L0L
(lp335
(lp336
tp337
a(L3002774692L
L0L
(lp338
(lp339
tp340
a(L1223261203L
L0L
(lp341
(lp342
tp343
a(L4206616568L
L0L
(lp344
(lp345
tp346
a(L2889498793L
L0L
(lp347
(lp348
tp349
a(L1306330959L
L0L
(lp350
(lp351
tp352
a(L2098105049L
L0L
(lp353
(lp354
tp355
atp356
sI1074239764
(Vbootloader_utility_get_selected_boot_partition
p357
(lp358
(L2184143128L
L0L
(lp359
(lp360
tp361
a(L3562950348L
L0L
(lp362
(lp363
tp364
a(L2305665381L
L3785322319L
(lp365
(lp366
Vesp_log_early_timestamp
p367
atp368
a(L4182535910L
L0L
(lp369
(lp370
tp371
a(L3360570486L
L0L
(lp372
(lp373
tp374
a(L1375577398L
L3785322319L
(lp375
(lp376
Vbootloader_mmap
p377
atp378
a(L4068127698L
L3785322319L
(lp379
(lp380
Vesp_log_early_timestamp
p381
atp382
a(L2463613311L
L1880226080L
(lp383
(lp384
Vbootloader_munmap
p385
aVbootloader_common_ota_select_invalid
p386
atp387
a(L1103573946L
L0L
(lp388
(lp389
tp390
a(L1876835593L
L3785322319L
(lp391
(lp392
Vbootloader_common_get_active_otadata
p393
atp394
a(L106L
L0L
(lp395
(lp396
tp397
a(L569346373L
L0L
(lp398
(lp399
tp400
a(L788494392L
L3785322319L
(lp401
(lp402
Vbootloader_common_ota_select_invalid
p403
atp404
a(L2801470901L
L0L
(lp405
(lp406
tp407
a(L3473477973L
L3785322319L
(lp408
(lp409
Vesp_log_early_timestamp
p410
atp411
a(L2708875653L
L3785322319L
(lp412
(lp413
Vesp_log_early_timestamp
p414
atp415
a(L505081345L
L0L
(lp416
(lp417
tp418
a(L919052234L
L3785322319L
(lp419
(lp420
Vbootloader_common_ota_select_crc
p421
atp422
a(L2287680455L
L0L
(lp423
(lp424
tp425
a(L3542558037L
L3785322319L
(lp426
(lp427
Vbootloader_common_ota_select_crc
p428
atp429
a(L1299866312L
L0L
(lp430
(lp431
tp432
a(L1279036405L
L0L
(lp433
(lp434
tp435
a(L1406565969L
L3785322319L
(lp436
(lp437
Vesp_log_early_timestamp
p438
atp439
a(L190989796L
L0L
(lp440
(lp441
tp442
a(L4142614645L
L3785322319L
(lp443
(lp444
Vesp_log_early_timestamp
p445
atp446
atp447
sI1074238740
(Vtry_load_partition
p448
(lp449
(L1263750142L
L0L
(lp450
(lp451
tp452
a(L2258688482L
L0L
(lp453
(lp454
tp455
a(L3360570486L
L0L
(lp456
(lp457
tp458
a(L530241438L
L3785322319L
(lp459
(lp460
Vbootloader_load_image
p461
atp462
a(L333775216L
L3785322319L
(lp463
(lp464
Vesp_log_early_timestamp
p465
atp466
atp467
sI1074236944
(Vbootloader_common_ota_select_crc
p468
(lp469
(L3214440559L
L0L
(lp470
(lp471
tp472
atp473
sI1074240796
(Vbootloader_console_deinit
p474
(lp475
(L4005071210L
L0L
(lp476
(lp477
tp478
atp479
sI1074245400
(Vrtc_clk_slow_freq_get_hz
p480
(lp481
(L1826267122L
L3785322319L
(lp482
(lp483
Vclk_ll_rtc_slow_get_src
p484
atp485
a(L4158856552L
L0L
(lp486
(lp487
tp488
a(L3631005815L
L0L
(lp489
(lp490
tp491
a(L702740041L
L0L
(lp492
(lp493
tp494
a(L3360570486L
L0L
(lp495
(lp496
tp497
atp498
sI1074236964
(Vbootloader_common_ota_select_valid
p499
(lp500
(L1563399710L
L3785322319L
(lp501
(lp502
Vbootloader_common_ota_select_invalid
p503
atp504
a(L3814720849L
L3785322319L
(lp505
(lp506
Vbootloader_common_ota_select_crc
p507
atp508
a(L3360570486L
L0L
(lp509
(lp510
tp511
atp512
sI1074247460
(Vesp_rom_spiflash_enable_write
p513
(lp514
(L2890359061L
L3785322319L
(lp515
(lp516
Vesp_rom_spiflash_wait_idle
p517
atp518
a(L3137194272L
L0L
(lp519
(lp520
tp521
a(L2258718275L
L0L
(lp522
(lp523
tp524
a(L99543895L
L0L
(lp525
(lp526
tp527
a(L2993202392L
L0L
(lp528
(lp529
tp530
a(L1804543818L
L3785322319L
(lp531
(lp532
Vesp_rom_spiflash_read_status
p533
atp534
atp535
sI1074236704
(Vefuse_hal_flash_encryption_enabled
p536
(lp537
(L176925918L
L0L
(lp538
(lp539
tp540
a(L2910371777L
L0L
(lp541
(lp542
tp543
a(L3360570486L
L0L
(lp544
(lp545
tp546
a(L3016870L
L0L
(lp547
(lp548
tp549
a(L3745038218L
L0L
(lp550
(lp551
tp552
a(L957607403L
L0L
(lp553
(lp554
tp555
atp556
sI1074241312
(Vverify_load_addresses
p557
(lp558
(L2764487219L
L0L
(lp559
(lp560
tp561
a(L106L
L0L
(lp562
(lp563
tp564
a(L97642L
L0L
(lp565
(lp566
tp567
a(L532903251L
L3785322319L
(lp568
(lp569
V__assert_func
p570
atp571
a(L170023642L
L0L
(lp572
(lp573
tp574
a(L106L
L0L
(lp575
(lp576
tp577
a(L993824775L
L0L
(lp578
(lp579
tp580
a(L106L
L0L
(lp581
(lp582
tp583
a(L3188534306L
L3785322319L
(lp584
(lp585
Vbootloader_util_regions_overlap
p586
atp587
a(L3284083279L
L3785322319L
(lp588
(lp589
Vbootloader_util_regions_overlap
p590
atp591
a(L3028481L
L0L
(lp592
(lp593
tp594
a(L1178890466L
L3785322319L
(lp595
(lp596
Vbootloader_util_regions_overlap
p597
atp598
a(L2117228786L
L0L
(lp599
(lp600
tp601
a(L273144354L
L0L
(lp602
(lp603
tp604
a(L1016222393L
L0L
(lp605
(lp606
tp607
a(L2661576437L
L0L
(lp608
(lp609
tp610
a(L2503437888L
L0L
(lp611
(lp612
tp613
a(L677569396L
L3785322319L
(lp614
(lp615
Vverify_load_addresses
p616
atp617
a(L1351513776L
L0L
(lp618
(lp619
tp620
a(L3061261803L
L0L
(lp621
(lp622
tp623
a(L2743341656L
L0L
(lp624
(lp625
tp626
a(L791897016L
L0L
(lp627
(lp628
tp629
a(L729859039L
L0L
(lp630
(lp631
tp632
a(L4026856790L
L3785322319L
(lp633
(lp634
Vbootloader_util_regions_overlap
p635
atp636
a(L3028481L
L0L
(lp637
(lp638
tp639
a(L1567678174L
L3785322319L
(lp640
(lp641
Vbootloader_util_regions_overlap
p642
atp643
a(L2782864159L
L0L
(lp644
(lp645
tp646
a(L476078031L
L0L
(lp647
(lp648
tp649
a(L1301487450L
L0L
(lp650
(lp651
tp652
a(L1527375920L
L0L
(lp653
(lp654
tp655
a(L307916850L
L0L
(lp656
(lp657
tp658
a(L697239146L
L0L
(lp659
(lp660
tp661
a(L106L
L0L
(lp662
(lp663
tp664
a(L955505162L
L0L
(lp665
(lp666
tp667
a(L307917400L
L0L
(lp668
(lp669
tp670
a(L490080443L
L0L
(lp671
(lp672
tp673
a(L106L
L0L
(lp674
(lp675
tp676
a(L1750282664L
L3785322319L
(lp677
(lp678
Vesp_log_early_timestamp
p679
atp680
a(L955505038L
L0L
(lp681
(lp682
tp683
a(L1303560427L
L0L
(lp684
(lp685
tp686
atp687
sI1074247712
(Vesp_rom_spiflash_erase_sector
p688
(lp689
(L2842607933L
L0L
(lp690
(lp691
tp692
a(L2258688483L
L0L
(lp693
(lp694
tp695
a(L3360570486L
L0L
(lp696
(lp697
tp698
a(L3212356251L
L3785322319L
(lp699
(lp700
Vesp_rom_spiflash_enable_write
p701
atp702
a(L184152988L
L0L
(lp703
(lp704
tp705
a(L1048301933L
L3785322319L
(lp706
(lp707
Vesp_rom_spiflash_wait_idle
p708
atp709
a(L3333707777L
L0L
(lp710
(lp711
tp712
a(L3582858798L
L3785322319L
(lp713
(lp714
Vesp_rom_spiflash_wait_idle
p715
atp716
atp717
sI1074244652
(Vclk_ll_rtc_slow_get_src
p718
(lp719
(L416280487L
L0L
(lp720
(lp721
tp722
a(L3020187L
L0L
(lp723
(lp724
tp725
a(L2902417580L
L0L
(lp726
(lp727
tp728
a(L2258688485L
L0L
(lp729
(lp730
tp731
a(L3360570486L
L0L
(lp732
(lp733
tp734
atp735
sI1074244396
(Vwdt_hal_set_flashboot_en
p736
(lp737
(L2375320464L
L0L
(lp738
(lp739
tp740
a(L3915867581L
L0L
(lp741
(lp742
tp743
a(L3360570486L
L0L
(lp744
(lp745
tp746
a(L1643092119L
L0L
(lp747
(lp748
tp749
atp750
sI1074240812
(V__assert_func
p751
(lp752
(L2442535194L
L0L
(lp753
(lp754
tp755
a(L106L
L0L
(lp756
(lp757
tp758
atp759
sI1074241064
(Vprocess_image_header
p760
(lp761
(L4286422149L
L3785322319L
(lp762
(lp763
Vbootloader_flash_read
p764
atp765
a(L3020204L
L0L
(lp766
(lp767
tp768
a(L4130667142L
L0L
(lp769
(lp770
tp771
a(L3131381282L
L0L
(lp772
(lp773
tp774
a(L1161397362L
L3785322319L
(lp775
(lp776
Vbootloader_sha256_start
p777
atp778
a(L1948257695L
L3785322319L
(lp779
(lp780
Vbootloader_sha256_data
p781
atp782
a(L1095449651L
L0L
(lp783
(lp784
tp785
a(L3020204L
L0L
(lp786
(lp787
tp788
a(L702739510L
L0L
(lp789
(lp790
tp791
a(L3360570486L
L0L
(lp792
(lp793
tp794
a(L3054617820L
L3785322319L
(lp795
(lp796
Vesp_log_early_timestamp
p797
atp798
a(L3718883008L
L3785322319L
(lp799
(lp800
Vbootloader_common_check_chip_validity
p801
atp802
a(L3677035427L
L0L
(lp803
(lp804
tp805
a(L3028481L
L0L
(lp806
(lp807
tp808
a(L1573338106L
L3785322319L
(lp809
(lp810
Vesp_log_early_timestamp
p811
atp812
a(L2250109166L
L0L
(lp813
(lp814
tp815
a(L1235012870L
L0L
(lp816
(lp817
tp818
a(L3063569071L
L0L
(lp819
(lp820
tp821
atp822
sI1074246696
(Vrtc_clk_cal_internal
p823
(lp824
(L3168308412L
L0L
(lp825
(lp826
tp827
a(L3891782131L
L3785322319L
(lp828
(lp829
V__assert_func
p830
atp831
a(L4026264710L
L0L
(lp832
(lp833
tp834
a(L54826884L
L0L
(lp835
(lp836
tp837
a(L234746575L
L0L
(lp838
(lp839
tp840
a(L861896856L
L3785322319L
(lp841
(lp842
Vrtc_clk_8m_enable
p843
atp844
a(L2689039534L
L3785322319L
(lp845
(lp846
Vrtc_clk_slow_src_get
p847
atp848
a(L1211065969L
L0L
(lp849
(lp850
tp851
a(L97689L
L0L
(lp852
(lp853
tp854
a(L1703854795L
L0L
(lp855
(lp856
tp857
a(L3028464L
L0L
(lp858
(lp859
tp860
a(L3028481L
L0L
(lp861
(lp862
tp863
a(L3450258732L
L0L
(lp864
(lp865
tp866
a(L944966L
L3785322319L
(lp867
(lp868
Vrtc_clk_xtal_freq_get
p869
atp870
a(L2780079961L
L0L
(lp871
(lp872
tp873
a(L3848725940L
L0L
(lp874
(lp875
tp876
a(L619937158L
L3785322319L
(lp877
(lp878
Vesp_log_early_timestamp
p879
atp880
a(L3360570486L
L0L
(lp881
(lp882
tp883
a(L794862694L
L0L
(lp884
(lp885
tp886
a(L3121398759L
L0L
(lp887
(lp888
tp889
a(L2910371777L
L0L
(lp890
(lp891
tp892
a(L2902417580L
L0L
(lp893
(lp894
tp895
a(L4153720753L
L0L
(lp896
(lp897
tp898
a(L3631005548L
L0L
(lp899
(lp900
tp901
a(L2144990312L
L0L
(lp902
(lp903
tp904
a(L3352263364L
L0L
(lp905
(lp906
tp907
a(L3028464L
L0L
(lp908
(lp909
tp910
a(L1325746132L
L3785322319L
(lp911
(lp912
Vrtc_clk_8m_enable
p913
atp914
atp915
sI1074269752
(Vbootloader_check_bootloader_validity
p916
(lp917
(L3377513666L
L1832448559L
(lp918
(lp919
Vefuse_hal_chip_revision
p920
aVesp_log_early_timestamp
p921
aVbootloader_common_check_chip_validity
p922
atp923
atp924
sI1074245428
(Vrtc_clk_fast_src_set
p925
(lp926
(L1233611555L
L0L
(lp927
(lp928
tp929
a(L3020187L
L0L
(lp930
(lp931
tp932
a(L3827921190L
L3785322319L
(lp933
(lp934
Vabort
p935
atp936
a(L209959690L
L0L
(lp937
(lp938
tp939
a(L1379824320L
L0L
(lp940
(lp941
tp942
a(L300459962L
L0L
(lp943
(lp944
tp945
atp946
sI1074237232
(Vbootloader_common_get_active_otadata
p947
(lp948
(L3317503532L
L0L
(lp949
(lp950
tp951
a(L2503049265L
L1832448559L
(lp952
(lp953
Vbootloader_common_ota_select_valid
p954
aVbootloader_common_ota_select_valid
p955
aVbootloader_common_select_otadata
p956
atp957
a(L735741265L
L0L
(lp958
(lp959
tp960
atp961
sI1074239280
(Vset_actual_ota_seq
p962
(lp963
(L4094723830L
L0L
(lp964
(lp965
tp966
a(L2573507321L
L0L
(lp967
(lp968
tp969
a(L3461827603L
L1832448559L
(lp970
(lp971
Vbootloader_common_ota_select_crc
p972
aVesp_flash_encryption_enabled
p973
aVbootloader_flash_erase_sector
p974
atp975
a(L3292941333L
L3785322319L
(lp976
(lp977
Vbootloader_flash_write
p978
atp979
a(L2509823013L
L3785322319L
(lp980
(lp981
Vesp_log_early_timestamp
p982
atp983
a(L3684787734L
L3785322319L
(lp984
(lp985
Vesp_log_early_timestamp
p986
atp987
a(L3360570486L
L0L
(lp988
(lp989
tp990
atp991
sI1074235196
(Vbootloader_execute_flash_command
p992
(lp993
(L2481595632L
L3785322319L
(lp994
(lp995
Vbootloader_flash_execute_command_common
p996
atp997
atp998
sI1074238520
(Vbootloader_clock_get_rated_freq_mhz
p999
(lp1000
(L376617603L
L3785322319L
(lp1001
(lp1002
Vefuse_hal_get_rated_freq_mhz
p1003
atp1004
atp1005
sI1074238532
(Vlog_invalid_app_partition
p1006
(lp1007
(L3121159614L
L0L
(lp1008
(lp1009
tp1010
a(L3028464L
L0L
(lp1011
(lp1012
tp1013
a(L1381405837L
L3785322319L
(lp1014
(lp1015
Vesp_log_early_timestamp
p1016
atp1017
a(L283255622L
L0L
(lp1018
(lp1019
tp1020
a(L3360570486L
L0L
(lp1021
(lp1022
tp1023
a(L3430459325L
L3785322319L
(lp1024
(lp1025
Vesp_log_early_timestamp
p1026
atp1027
a(L632945191L
L3785322319L
(lp1028
(lp1029
Vesp_log_early_timestamp
p1030
atp1031
atp1032
sI1074238788
(Vcache_ll_l1_enable_bus
p1033
(lp1034
(L1908488057L
L0L
(lp1035
(lp1036
tp1037
atp1038
sI1074240836
(Vabort
p1039
(lp1040
(L249968219L
L0L
(lp1041
(lp1042
tp1043
a(L409471316L
L0L
(lp1044
(lp1045
tp1046
a(L106L
L0L
(lp1047
(lp1048
tp1049
atp1050
sI1074240076
(Vbootloader_reset
p1051
(lp1052
(L4042037720L
L3785322319L
(lp1053
(lp1054
Vbootloader_console_deinit
p1055
atp1056
a(L106L
L0L
(lp1057
(lp1058
tp1059
atp1060
sI1074243148
(Vbootloader_load_image
p1061
(lp1062
(L1155870502L
L3785322319L
(lp1063
(lp1064
Vimage_load
p1065
atp1066
atp1067
sI1074248012
(Vesp_rom_spiflash_write_encrypted
p1068
(lp1069
(L1944247967L
L0L
(lp1070
(lp1071
tp1072
a(L3637183229L
L0L
(lp1073
(lp1074
tp1075
a(L97689L
L0L
(lp1076
(lp1077
tp1078
a(L3061232074L
L0L
(lp1079
(lp1080
tp1081
a(L1678068038L
L0L
(lp1082
(lp1083
tp1084
a(L1309309703L
L3785322319L
(lp1085
(lp1086
Vesp_rom_spiflash_write
p1087
atp1088
a(L3850908019L
L0L
(lp1089
(lp1090
tp1091
a(L735741265L
L0L
(lp1092
(lp1093
tp1094
atp1095
sI1074236744
(Vefuse_hal_get_major_chip_version
p1096
(lp1097
(L2489568354L
L0L
(lp1098
(lp1099
tp1100
a(L894792960L
L0L
(lp1101
(lp1102
tp1103
a(L3783348505L
L0L
(lp1104
(lp1105
tp1106
a(L3360570486L
L0L
(lp1107
(lp1108
tp1109
atp1110
sI1074237000
(Vbootloader_common_check_chip_validity
p1111
(lp1112
(L392423210L
L0L
(lp1113
(lp1114
tp1115
a(L1681335572L
L3785322319L
(lp1116
(lp1117
Vesp_log_early_timestamp
p1118
atp1119
a(L522103407L
L3785322319L
(lp1120
(lp1121
Vefuse_hal_chip_revision
p1122
atp1123
a(L106L
L0L
(lp1124
(lp1125
tp1126
a(L1989150608L
L0L
(lp1127
(lp1128
tp1129
a(L865579151L
L3785322319L
(lp1130
(lp1131
Vesp_log_early_timestamp
p1132
atp1133
a(L3028464L
L0L
(lp1134
(lp1135
tp1136
a(L1397322129L
L0L
(lp1137
(lp1138
tp1139
a(L3021749L
L0L
(lp1140
(lp1141
tp1142
a(L240495317L
L3785322319L
(lp1143
(lp1144
Vesp_log_early_timestamp
p1145
atp1146
a(L1299867982L
L0L
(lp1147
(lp1148
tp1149
a(L3360570486L
L0L
(lp1150
(lp1151
tp1152
atp1153
sI1074244680
(Vrtc_clk_32k_enable_common
p1154
(lp1155
(L1442393279L
L0L
(lp1156
(lp1157
tp1158
a(L97689L
L0L
(lp1159
(lp1160
tp1161
a(L2218417250L
L0L
(lp1162
(lp1163
tp1164
a(L533879761L
L0L
(lp1165
(lp1166
tp1167
a(L51458058L
L0L
(lp1168
(lp1169
tp1170
atp1171
sI1074270040
(Vbootloader_console_init
p1172
(lp1173
(L3491145755L
L1832448559L
(lp1174
(lp1175
Vesp_rom_uart_tx_wait_idle
p1176
aVrtc_clk_apb_freq_get
p1177
aVesp_rom_uart_set_clock_baudrate
p1178
atp1179
atp1180
sI1074267740
(Vcall_start_cpu0
p1181
(lp1182
(L1137852827L
L0L
(lp1183
(lp1184
tp1185
a(L94425498L
L3785322319L
(lp1186
(lp1187
Vbootloader_before_init
p1188
atp1189
a(L3279886022L
L3785322319L
(lp1190
(lp1191
Vbootloader_init
p1192
atp1193
a(L94425498L
L3785322319L
(lp1194
(lp1195
Vbootloader_reset
p1196
atp1197
a(L1122046408L
L0L
(lp1198
(lp1199
tp1200
a(L94425498L
L3785322319L
(lp1201
(lp1202
Vbootloader_after_init
p1203
atp1204
a(L3267676744L
L3785322319L
(lp1205
(lp1206
Vbootloader_utility_load_partition_table
p1207
atp1208
a(L2761094216L
L3785322319L
(lp1209
(lp1210
Vesp_log_early_timestamp
p1211
atp1212
a(L405422123L
L3785322319L
(lp1213
(lp1214
Vbootloader_utility_get_selected_boot_partition
p1215
atp1216
a(L2055385849L
L3785322319L
(lp1217
(lp1218
Vbootloader_utility_load_boot_image
p1219
atp1220
atp1221
sI1074234704
(Vesp_flash_encryption_enabled
p1222
(lp1223
(L376617603L
L3785322319L
(lp1224
(lp1225
Vefuse_hal_flash_encryption_enabled
p1226
atp1227
atp1228
sI1074245968
(Vrtc_clk_cpu_freq_set_config
p1229
(lp1230
(L97989050L
L3785322319L
(lp1231
(lp1232
Vrtc_clk_xtal_freq_get
p1233
atp1234
a(L3020187L
L0L
(lp1235
(lp1236
tp1237
a(L3028464L
L0L
(lp1238
(lp1239
tp1240
a(L264223053L
L1880226080L
(lp1241
(lp1242
Vrtc_clk_cpu_freq_to_xtal
p1243
aVrtc_clk_wait_for_slow_cycle
p1244
atp1245
a(L94425498L
L3785322319L
(lp1246
(lp1247
Vrtc_clk_bbpll_disable
p1248
atp1249
a(L3978916712L
L0L
(lp1250
(lp1251
tp1252
a(L2977209154L
L0L
(lp1253
(lp1254
tp1255
a(L2736411858L
L3785322319L
(lp1256
(lp1257
Vrtc_clk_cpu_freq_to_xtal
p1258
atp1259
a(L3360570486L
L0L
(lp1260
(lp1261
tp1262
a(L3020187L
L0L
(lp1263
(lp1264
tp1265
a(L106L
L0L
(lp1266
(lp1267
tp1268
a(L4139299579L
L1880226080L
(lp1269
(lp1270
Vrtc_clk_wait_for_slow_cycle
p1271
aVrtc_clk_xtal_freq_get
p1272
atp1273
a(L106L
L0L
(lp1274
(lp1275
tp1276
a(L1388483569L
L0L
(lp1277
(lp1278
tp1279
a(L106L
L0L
(lp1280
(lp1281
tp1282
a(L83268611L
L0L
(lp1283
(lp1284
tp1285
a(L106L
L0L
(lp1286
(lp1287
tp1288
a(L82344823L
L0L
(lp1289
(lp1290
tp1291
a(L106L
L0L
(lp1292
(lp1293
tp1294
a(L1274797871L
L0L
(lp1295
(lp1296
tp1297
a(L2960675980L
L0L
(lp1298
(lp1299
tp1300
a(L3317679330L
L1880226080L
(lp1301
(lp1302
Vclk_ll_rtc_slow_get_src
p1303
aVrtc_clk_cpu_freq_to_pll_mhz
p1304
atp1305
a(L883920532L
L0L
(lp1306
(lp1307
tp1308
a(L83268344L
L0L
(lp1309
(lp1310
tp1311
a(L82345090L
L0L
(lp1312
(lp1313
tp1314
a(L1299628291L
L0L
(lp1315
(lp1316
tp1317
a(L2382164494L
L0L
(lp1318
(lp1319
tp1320
a(L2258807646L
L0L
(lp1321
(lp1322
tp1323
a(L878473564L
L0L
(lp1324
(lp1325
tp1326
a(L2389426015L
L0L
(lp1327
(lp1328
tp1329
a(L1596574736L
L0L
(lp1330
(lp1331
tp1332
a(L2086626670L
L0L
(lp1333
(lp1334
tp1335
a(L1302638456L
L0L
(lp1336
(lp1337
tp1338
a(L810137203L
L0L
(lp1339
(lp1340
tp1341
a(L87353900L
L0L
(lp1342
(lp1343
tp1344
a(L3020187L
L0L
(lp1345
(lp1346
tp1347
a(L106L
L0L
(lp1348
(lp1349
tp1350
a(L1226014053L
L0L
(lp1351
(lp1352
tp1353
atp1354
sI1074243164
(Vesp_partition_table_verify
p1355
(lp1356
(L1927580282L
L0L
(lp1357
(lp1358
tp1359
a(L3688263406L
L0L
(lp1360
(lp1361
tp1362
a(L4090921686L
L0L
(lp1363
(lp1364
tp1365
a(L2910371777L
L0L
(lp1366
(lp1367
tp1368
a(L2810785767L
L0L
(lp1369
(lp1370
tp1371
a(L3360570486L
L0L
(lp1372
(lp1373
tp1374
a(L3190337587L
L0L
(lp1375
(lp1376
tp1377
a(L2069928857L
L0L
(lp1378
(lp1379
tp1380
a(L3020204L
L0L
(lp1381
(lp1382
tp1383
a(L4240560509L
L3785322319L
(lp1384
(lp1385
Vesp_log_early_timestamp
p1386
atp1387
a(L4145115729L
L3785322319L
(lp1388
(lp1389
Vesp_log_early_timestamp
p1390
atp1391
a(L510839312L
L0L
(lp1392
(lp1393
tp1394
a(L2902417580L
L0L
(lp1395
(lp1396
tp1397
a(L3020204L
L0L
(lp1398
(lp1399
tp1400
a(L2215002226L
L3785322319L
(lp1401
(lp1402
Vesp_log_early_timestamp
p1403
atp1404
a(L190989796L
L0L
(lp1405
(lp1406
tp1407
a(L3655331517L
L0L
(lp1408
(lp1409
tp1410
a(L2902417580L
L0L
(lp1411
(lp1412
tp1413
a(L4240559796L
L3785322319L
(lp1414
(lp1415
Vesp_log_early_timestamp
p1416
atp1417
a(L1305407469L
L0L
(lp1418
(lp1419
tp1420
a(L1167861556L
L0L
(lp1421
(lp1422
tp1423
a(L3914073261L
L0L
(lp1424
(lp1425
tp1426
a(L2910371777L
L0L
(lp1427
(lp1428
tp1429
a(L1235012932L
L0L
(lp1430
(lp1431
tp1432
a(L1466029950L
L3785322319L
(lp1433
(lp1434
Vesp_log_early_timestamp
p1435
atp1436
atp1437
sI1074240348
(Vindex_to_partition
p1438
(lp1439
(L4066096119L
L0L
(lp1440
(lp1441
tp1442
a(L1739185955L
L0L
(lp1443
(lp1444
tp1445
a(L2171552758L
L0L
(lp1446
(lp1447
tp1448
a(L2808906342L
L0L
(lp1449
(lp1450
tp1451
a(L2101481936L
L0L
(lp1452
(lp1453
tp1454
a(L3698927993L
L0L
(lp1455
(lp1456
tp1457
a(L2808826781L
L0L
(lp1458
(lp1459
tp1460
a(L3003398163L
L0L
(lp1461
(lp1462
tp1463
a(L2880709161L
L0L
(lp1464
(lp1465
tp1466
a(L1087646172L
L0L
(lp1467
(lp1468
tp1469
atp1470
sI1074234716
(Vbootloader_flash_execute_command_common
p1471
(lp1472
(L3865052895L
L0L
(lp1473
(lp1474
tp1475
a(L120556223L
L0L
(lp1476
(lp1477
tp1478
a(L2890397610L
L3785322319L
(lp1479
(lp1480
V__assert_func
p1481
atp1482
a(L3021749L
L0L
(lp1483
(lp1484
tp1485
a(L153203357L
L0L
(lp1486
(lp1487
tp1488
a(L3967919202L
L0L
(lp1489
(lp1490
tp1491
a(L2091933878L
L0L
(lp1492
(lp1493
tp1494
a(L1702379862L
L0L
(lp1495
(lp1496
tp1497
a(L2587060668L
L0L
(lp1498
(lp1499
tp1500
a(L817326211L
L0L
(lp1501
(lp1502
tp1503
a(L3244449450L
L0L
(lp1504
(lp1505
tp1506
a(L3855586684L
L0L
(lp1507
(lp1508
tp1509
a(L2990329343L
L0L
(lp1510
(lp1511
tp1512
a(L2557390060L
L0L
(lp1513
(lp1514
tp1515
a(L3333696662L
L0L
(lp1516
(lp1517
tp1518
a(L963425213L
L0L
(lp1519
(lp1520
tp1521
a(L339491738L
L0L
(lp1522
(lp1523
tp1524
a(L3360570486L
L0L
(lp1525
(lp1526
tp1527
atp1528
sI1074235228
(Vbootloader_flash_unlock
p1529
(lp1530
(L2851757134L
L3785322319L
(lp1531
(lp1532
Vesp_rom_spiflash_wait_idle
p1533
atp1534
a(L4212373562L
L0L
(lp1535
(lp1536
tp1537
a(L4292483033L
L3785322319L
(lp1538
(lp1539
Vbootloader_execute_flash_command
p1540
atp1541
a(L106L
L0L
(lp1542
(lp1543
tp1544
a(L1303560644L
L0L
(lp1545
(lp1546
tp1547
a(L610618440L
L0L
(lp1548
(lp1549
tp1550
a(L106L
L0L
(lp1551
(lp1552
tp1553
a(L345249462L
L0L
(lp1554
(lp1555
tp1556
a(L106L
L0L
(lp1557
(lp1558
tp1559
a(L1024465569L
L0L
(lp1560
(lp1561
tp1562
a(L106L
L0L
(lp1563
(lp1564
tp1565
a(L1481761147L
L1880226080L
(lp1566
(lp1567
Vbootloader_execute_flash_command
p1568
aVbootloader_execute_flash_command
p1569
atp1570
a(L2258807654L
L0L
(lp1571
(lp1572
tp1573
a(L489806350L
L1832448559L
(lp1574
(lp1575
Vesp_rom_spiflash_wait_idle
p1576
aVbootloader_execute_flash_command
p1577
aVbootloader_execute_flash_command
p1578
atp1579
a(L879744646L
L1832448559L
(lp1580
(lp1581
Vesp_rom_spiflash_wait_idle
p1582
aVbootloader_execute_flash_command
p1583
aVbootloader_execute_flash_command
p1584
atp1585
a(L1840772931L
L1880226080L
(lp1586
(lp1587
Vesp_rom_spiflash_wait_idle
p1588
aVbootloader_execute_flash_command
p1589
atp1590
a(L2993202392L
L0L
(lp1591
(lp1592
tp1593
a(L508800419L
L1880226080L
(lp1594
(lp1595
Vbootloader_execute_flash_command
p1596
aVbootloader_execute_flash_command
p1597
atp1598
a(L1303560369L
L0L
(lp1599
(lp1600
tp1601
a(L1596544945L
L0L
(lp1602
(lp1603
tp1604
a(L97689L
L0L
(lp1605
(lp1606
tp1607
a(L106L
L0L
(lp1608
(lp1609
tp1610
atp1611
sI1074237272
(Vbootloader_common_ota_select_invalid
p1612
(lp1613
(L4027567199L
L0L
(lp1614
(lp1615
tp1616
a(L3397985842L
L0L
(lp1617
(lp1618
tp1619
a(L2258867228L
L0L
(lp1620
(lp1621
tp1622
a(L3785235668L
L0L
(lp1623
(lp1624
tp1625
atp1626
sI1074236504
(Vbootloader_common_get_chip_ver_pkg
p1627
(lp1628
(L183333409L
L0L
(lp1629
(lp1630
tp1631
atp1632
sI1074240600
(Vbootloader_sha256_finish
p1633
(lp1634
(L4066096136L
L0L
(lp1635
(lp1636
tp1637
a(L3125987449L
L0L
(lp1638
(lp1639
tp1640
a(L3884092851L
L3785322319L
(lp1641
(lp1642
V__assert_func
p1643
atp1644
a(L3020204L
L0L
(lp1645
(lp1646
tp1647
a(L1816853500L
L0L
(lp1648
(lp1649
tp1650
a(L2534656226L
L0L
(lp1651
(lp1652
tp1653
a(L551614134L
L3785322319L
(lp1654
(lp1655
Vbootloader_sha256_data
p1656
atp1657
a(L3281735505L
L0L
(lp1658
(lp1659
tp1660
a(L841302101L
L3785322319L
(lp1661
(lp1662
Vbootloader_sha256_data
p1663
atp1664
a(L3768329152L
L0L
(lp1665
(lp1666
tp1667
a(L657425439L
L0L
(lp1668
(lp1669
tp1670
a(L3930848034L
L0L
(lp1671
(lp1672
tp1673
a(L657425439L
L0L
(lp1674
(lp1675
tp1676
a(L4116699460L
L0L
(lp1677
(lp1678
tp1679
a(L3511307343L
L0L
(lp1680
(lp1681
tp1682
a(L3347778L
L0L
(lp1683
(lp1684
tp1685
a(L3360570486L
L0L
(lp1686
(lp1687
tp1688
atp1689
sI1074242648
(Vimage_load
p1690
(lp1691
(L3559420668L
L0L
(lp1692
(lp1693
tp1694
a(L1899869541L
L0L
(lp1695
(lp1696
tp1697
a(L979631281L
L0L
(lp1698
(lp1699
tp1700
a(L1525480527L
L0L
(lp1701
(lp1702
tp1703
a(L1043148059L
L0L
(lp1704
(lp1705
tp1706
a(L2796536461L
L0L
(lp1707
(lp1708
tp1709
a(L3718974969L
L3785322319L
(lp1710
(lp1711
Vesp_log_early_timestamp
p1712
atp1713
a(L2068384292L
L0L
(lp1714
(lp1715
tp1716
a(L1968553470L
L3785322319L
(lp1717
(lp1718
Vbootloader_sha256_finish
p1719
atp1720
a(L4209044681L
L0L
(lp1721
(lp1722
tp1723
a(L3225218531L
L0L
(lp1724
(lp1725
tp1726
a(L3802071166L
L0L
(lp1727
(lp1728
tp1729
a(L1301867039L
L3785322319L
(lp1730
(lp1731
Vprocess_image_header
p1732
atp1733
a(L560228796L
L0L
(lp1734
(lp1735
tp1736
a(L4185758499L
L0L
(lp1737
(lp1738
tp1739
a(L1530940255L
L3785322319L
(lp1740
(lp1741
Vprocess_segments
p1742
atp1743
a(L1233227930L
L0L
(lp1744
(lp1745
tp1746
a(L2539156582L
L0L
(lp1747
(lp1748
tp1749
a(L2570888687L
L3785322319L
(lp1750
(lp1751
Vprocess_checksum
p1752
atp1753
a(L425503098L
L3785322319L
(lp1754
(lp1755
Vprocess_appended_hash_and_sig
p1756
atp1757
a(L780930979L
L0L
(lp1758
(lp1759
tp1760
a(L2334355956L
L0L
(lp1761
(lp1762
tp1763
a(L3470740557L
L0L
(lp1764
(lp1765
tp1766
a(L2727908192L
L1880226080L
(lp1767
(lp1768
Vbootloader_sha256_finish
p1769
aVbootloader_debug_buffer
p1770
atp1771
a(L3151395344L
L1880226080L
(lp1772
(lp1773
Vesp_log_early_timestamp
p1774
aVbootloader_debug_buffer
p1775
atp1776
a(L1087646176L
L0L
(lp1777
(lp1778
tp1779
a(L2068384292L
L0L
(lp1780
(lp1781
tp1782
a(L3021148818L
L3785322319L
(lp1783
(lp1784
Vbootloader_sha256_finish
p1785
atp1786
a(L3028481L
L0L
(lp1787
(lp1788
tp1789
a(L139701033L
L0L
(lp1790
(lp1791
tp1792
a(L2510919588L
L0L
(lp1793
(lp1794
tp1795
a(L772115669L
L0L
(lp1796
(lp1797
tp1798
a(L2787789065L
L0L
(lp1799
(lp1800
tp1801
a(L85798113L
L0L
(lp1802
(lp1803
tp1804
a(L1351513776L
L0L
(lp1805
(lp1806
tp1807
a(L159346313L
L3785322319L
(lp1808
(lp1809
Vshould_load
p1810
atp1811
a(L4218574503L
L0L
(lp1812
(lp1813
tp1814
a(L3338774213L
L0L
(lp1815
(lp1816
tp1817
a(L3464541874L
L0L
(lp1818
(lp1819
tp1820
a(L3349572949L
L0L
(lp1821
(lp1822
tp1823
a(L2192292519L
L0L
(lp1824
(lp1825
tp1826
a(L106L
L0L
(lp1827
(lp1828
tp1829
a(L26615924L
L0L
(lp1830
(lp1831
tp1832
a(L1299866312L
L0L
(lp1833
(lp1834
tp1835
a(L490060329L
L0L
(lp1836
(lp1837
tp1838
atp1839
sI1074245220
(Vrtc_clk_8m_enabled
p1840
(lp1841
(L2802140000L
L0L
(lp1842
(lp1843
tp1844
atp1845
sI1074247520
(Vesp_rom_spiflash_program_page_internal
p1846
(lp1847
(L2569069283L
L0L
(lp1848
(lp1849
tp1850
a(L2258688483L
L0L
(lp1851
(lp1852
tp1853
a(L3360570486L
L0L
(lp1854
(lp1855
tp1856
a(L792610006L
L0L
(lp1857
(lp1858
tp1859
a(L4235661475L
L3785322319L
(lp1860
(lp1861
Vesp_rom_spiflash_wait_idle
p1862
atp1863
a(L1299866312L
L0L
(lp1864
(lp1865
tp1866
a(L3212356251L
L3785322319L
(lp1867
(lp1868
Vesp_rom_spiflash_enable_write
p1869
atp1870
a(L1832017382L
L0L
(lp1871
(lp1872
tp1873
a(L2209840608L
L0L
(lp1874
(lp1875
tp1876
a(L2953702749L
L0L
(lp1877
(lp1878
tp1879
a(L2989032L
L0L
(lp1880
(lp1881
tp1882
a(L1965622133L
L0L
(lp1883
(lp1884
tp1885
a(L1351235542L
L0L
(lp1886
(lp1887
tp1888
a(L1958113242L
L0L
(lp1889
(lp1890
tp1891
a(L106L
L0L
(lp1892
(lp1893
tp1894
a(L3112950080L
L0L
(lp1895
(lp1896
tp1897
a(L1868606439L
L0L
(lp1898
(lp1899
tp1900
a(L1008983195L
L0L
(lp1901
(lp1902
tp1903
a(L1933954923L
L0L
(lp1904
(lp1905
tp1906
a(L1147866918L
L0L
(lp1907
(lp1908
tp1909
a(L3871602522L
L0L
(lp1910
(lp1911
tp1912
atp1913
sI1074240108
(Vbootloader_utility_load_boot_image
p1914
(lp1915
(L1375294773L
L0L
(lp1916
(lp1917
tp1918
a(L2177418995L
L3785322319L
(lp1919
(lp1920
Vtry_load_partition
p1921
atp1922
a(L1305243774L
L3785322319L
(lp1923
(lp1924
Vload_image
p1925
atp1926
a(L2226845854L
L3785322319L
(lp1927
(lp1928
Vesp_log_early_timestamp
p1929
atp1930
a(L3827921190L
L3785322319L
(lp1931
(lp1932
Vbootloader_reset
p1933
atp1934
a(L1953693036L
L3785322319L
(lp1935
(lp1936
Vindex_to_partition
p1937
atp1938
a(L1204373741L
L3785322319L
(lp1939
(lp1940
Vtry_load_partition
p1941
atp1942
a(L1899865696L
L0L
(lp1943
(lp1944
tp1945
a(L2695355117L
L3785322319L
(lp1946
(lp1947
Vset_actual_ota_seq
p1948
atp1949
a(L1868897605L
L3785322319L
(lp1950
(lp1951
Vlog_invalid_app_partition
p1952
atp1953
a(L831650730L
L0L
(lp1954
(lp1955
tp1956
a(L3021737L
L0L
(lp1957
(lp1958
tp1959
a(L695456438L
L0L
(lp1960
(lp1961
tp1962
a(L1129532116L
L3785322319L
(lp1963
(lp1964
Vtry_load_partition
p1965
atp1966
a(L1345847589L
L3785322319L
(lp1967
(lp1968
Vesp_log_early_timestamp
p1969
atp1970
a(L2347390157L
L3785322319L
(lp1971
(lp1972
Vindex_to_partition
p1973
atp1974
a(L1204373741L
L3785322319L
(lp1975
(lp1976
Vtry_load_partition
p1977
atp1978
a(L3061261803L
L0L
(lp1979
(lp1980
tp1981
a(L3582858798L
L3785322319L
(lp1982
(lp1983
Vlog_invalid_app_partition
p1984
atp1985
a(L4222174905L
L3785322319L
(lp1986
(lp1987
Vesp_log_early_timestamp
p1988
atp1989
atp1990
sI1074244972
(Vrtc_clk_bbpll_disable
p1991
(lp1992
(L2525111280L
L0L
(lp1993
(lp1994
tp1995
a(L2472207241L
L0L
(lp1996
(lp1997
tp1998
a(L3360570486L
L0L
(lp1999
(lp2000
tp2001
atp2002
sI1074270308
(Vrtc_clk_init
p2003
(lp2004
(L2534402215L
L0L
(lp2005
(lp2006
tp2007
a(L42671777L
L3785322319L
(lp2008
(lp2009
Vrtc_clk_cpu_freq_to_xtal
p2010
atp2011
a(L929518204L
L3785322319L
(lp2012
(lp2013
Vrtc_clk_xtal_freq_get
p2014
atp2015
a(L89029051L
L0L
(lp2016
(lp2017
tp2018
a(L4187693717L
L3785322319L
(lp2019
(lp2020
Vrtc_clk_xtal_freq_estimate
p2021
atp2022
a(L3990153130L
L3785322319L
(lp2023
(lp2024
Vesp_log_early_timestamp
p2025
atp2026
a(L2356875951L
L1157885199L
(lp2027
(lp2028
Vesp_rom_uart_tx_wait_idle
p2029
aVrtc_clk_xtal_freq_update
p2030
aVrtc_clk_apb_freq_update
p2031
aVrtc_clk_cpu_freq_get_config
p2032
aVrtc_clk_cpu_freq_mhz_to_config
p2033
atp2034
a(L3975022459L
L1880226080L
(lp2035
(lp2036
Vesp_log_early_timestamp
p2037
aVabort
p2038
atp2039
a(L3028481L
L0L
(lp2040
(lp2041
tp2042
a(L4070631611L
L3785322319L
(lp2043
(lp2044
Vrtc_clk_xtal_freq_estimate
p2045
atp2046
a(L3300623567L
L3785322319L
(lp2047
(lp2048
Vesp_log_early_timestamp
p2049
atp2050
a(L1587008029L
L3785322319L
(lp2051
(lp2052
Vrtc_clk_cpu_freq_set_config
p2053
atp2054
a(L912310138L
L3785322319L
(lp2055
(lp2056
Vrtc_clk_32k_enable
p2057
atp2058
a(L3191820416L
L1832448559L
(lp2059
(lp2060
Vrtc_clk_8m_enable
p2061
aVrtc_clk_fast_src_set
p2062
aVrtc_clk_slow_src_set
p2063
atp2064
a(L1232958848L
L0L
(lp2065
(lp2066
tp2067
atp2068
sI1074237300
(Vbootloader_common_select_otadata
p2069
(lp2070
(L4071767857L
L0L
(lp2071
(lp2072
tp2073
a(L1999329187L
L0L
(lp2074
(lp2075
tp2076
a(L3846398843L
L0L
(lp2077
(lp2078
tp2079
a(L2501968171L
L0L
(lp2080
(lp2081
tp2082
a(L3360570486L
L0L
(lp2083
(lp2084
tp2085
a(L2045232488L
L0L
(lp2086
(lp2087
tp2088
a(L1243525916L
L0L
(lp2089
(lp2090
tp2091
a(L3094144427L
L0L
(lp2092
(lp2093
tp2094
a(L2399509845L
L0L
(lp2095
(lp2096
tp2097
a(L1641201884L
L0L
(lp2098
(lp2099
tp2100
atp2101
sI1074240884
(Vbootloader_ana_clock_glitch_reset_config
p2102
(lp2103
(L2100504542L
L0L
(lp2104
(lp2105
tp2106
atp2107
sI1074245492
(Vrtc_clk_fast_src_get
p2108
(lp2109
(L380770082L
L0L
(lp2110
(lp2111
tp2112
atp2113
sI1074269820
(Vbootloader_config_wdt
p2114
(lp2115
(L2664630811L
L505859776L
(lp2116
(lp2117
Vwdt_hal_write_protect_disable
p2118
aVwdt_hal_set_flashboot_en
p2119
aVwdt_hal_write_protect_enable
p2120
aVwdt_hal_init
p2121
aVrtc_clk_slow_freq_get_hz
p2122
aVwdt_hal_write_protect_disable
p2123
aVwdt_hal_config_stage
p2124
aVwdt_hal_enable
p2125
aVwdt_hal_write_protect_enable
p2126
aVwdt_hal_write_protect_disable
p2127
aVwdt_hal_set_flashboot_en
p2128
aVwdt_hal_write_protect_enable
p2129
atp2130
atp2131
sI1074270076
(Vesp_cpu_configure_region_protection
p2132
(lp2133
(L3263616706L
L0L
(lp2134
(lp2135
tp2136
a(L180431425L
L3785322319L
(lp2137
(lp2138
Vmpu_hal_set_region_access
p2139
atp2140
a(L2537388152L
L3785322319L
(lp2141
(lp2142
Vmpu_hal_set_region_access
p2143
atp2144
atp2145
sI1074244464
(Vwdt_hal_write_protect_enable
p2146
(lp2147
(L387778158L
L0L
(lp2148
(lp2149
tp2150
a(L4195472003L
L0L
(lp2151
(lp2152
tp2153
a(L3360570486L
L0L
(lp2154
(lp2155
tp2156
a(L802523425L
L0L
(lp2157
(lp2158
tp2159
atp2160
sI1074245244
(Vrtc_clk_8md256_enabled
p2161
(lp2162
(L1957668129L
L0L
(lp2163
(lp2164
tp2165
atp2166
sI1074243452
(Vwdt_hal_init
p2167
(lp2168
(L509746487L
L0L
(lp2169
(lp2170
tp2171
a(L745008699L
L0L
(lp2172
(lp2173
tp2174
a(L2805934244L
L0L
(lp2175
(lp2176
tp2177
a(L3115097993L
L0L
(lp2178
(lp2179
tp2180
a(L1129008730L
L0L
(lp2181
(lp2182
tp2183
a(L3360570486L
L0L
(lp2184
(lp2185
tp2186
a(L3022237171L
L0L
(lp2187
(lp2188
tp2189
atp2190
sI1074240892
(Vprocess_checksum
p2191
(lp2192
(L226873693L
L0L
(lp2193
(lp2194
tp2195
a(L2910371777L
L0L
(lp2196
(lp2197
tp2198
a(L186886970L
L0L
(lp2199
(lp2200
tp2201
a(L2910371777L
L0L
(lp2202
(lp2203
tp2204
a(L3020204L
L0L
(lp2205
(lp2206
tp2207
a(L2480703612L
L3785322319L
(lp2208
(lp2209
Vbootloader_sha256_data
p2210
atp2211
a(L4179073442L
L0L
(lp2212
(lp2213
tp2214
a(L1811888222L
L3785322319L
(lp2215
(lp2216
Vbootloader_flash_read
p2217
atp2218
a(L3126521138L
L0L
(lp2219
(lp2220
tp2221
a(L4120157373L
L0L
(lp2222
(lp2223
tp2224
a(L2841282472L
L3785322319L
(lp2225
(lp2226
Vesp_log_early_timestamp
p2227
atp2228
atp2229
sI1074236536
(Vesp_rom_uart_tx_wait_idle
p2230
(lp2231
(L2733747073L
L0L
(lp2232
(lp2233
tp2234
a(L1301079727L
L0L
(lp2235
(lp2236
tp2237
a(L3597746521L
L0L
(lp2238
(lp2239
tp2240
a(L3694491048L
L0L
(lp2241
(lp2242
tp2243
a(L3055926844L
L0L
(lp2244
(lp2245
tp2246
a(L3360570486L
L0L
(lp2247
(lp2248
tp2249
atp2250
sI1074238840
(Vcache_ll_l1_enable_bus
p2251
(lp2252
(L1408514293L
L0L
(lp2253
(lp2254
tp2255
atp2256
sI1074245508
(Vrtc_clk_xtal_freq_get
p2257
(lp2258
(L436198866L
L0L
(lp2259
(lp2260
tp2261
a(L2847936993L
L0L
(lp2262
(lp2263
tp2264
a(L4141094988L
L0L
(lp2265
(lp2266
tp2267
a(L3360570486L
L0L
(lp2268
(lp2269
tp2270
atp2271
sI1074235520
(Vbootloader_flash_read_sfdp
p2272
(lp2273
(L711701400L
L0L
(lp2274
(lp2275
tp2276
a(L3178612724L
L3785322319L
(lp2277
(lp2278
V__assert_func
p2279
atp2280
a(L3704332455L
L3785322319L
(lp2281
(lp2282
Vbootloader_flash_execute_command_common
p2283
atp2284
atp2285
sI1074235776
(Vbootloader_flash_cs_timing_config
p2286
(lp2287
(L6299057L
L0L
(lp2288
(lp2289
tp2290
atp2291
sI1074244492
(Vwdt_hal_enable
p2292
(lp2293
(L2299130915L
L0L
(lp2294
(lp2295
tp2296
a(L165794138L
L0L
(lp2297
(lp2298
tp2299
a(L3360570486L
L0L
(lp2300
(lp2301
tp2302
a(L2847657174L
L0L
(lp2303
(lp2304
tp2305
atp2306
sI1074236812
(Vefuse_hal_get_minor_chip_version
p2307
(lp2308
(L1213965243L
L0L
(lp2309
(lp2310
tp2311
atp2312
sI1074241928
(Vprocess_segments
p2313
(lp2314
(L1018786970L
L0L
(lp2315
(lp2316
tp2317
a(L3285816417L
L0L
(lp2318
(lp2319
tp2320
a(L3782401745L
L0L
(lp2321
(lp2322
tp2323
a(L106L
L0L
(lp2324
(lp2325
tp2326
a(L2411199274L
L0L
(lp2327
(lp2328
tp2329
a(L2288684402L
L3785322319L
(lp2330
(lp2331
Vesp_log_early_timestamp
p2332
atp2333
a(L3085209925L
L3785322319L
(lp2334
(lp2335
Vbootloader_flash_read
p2336
atp2337
a(L870371915L
L3785322319L
(lp2338
(lp2339
Vesp_log_early_timestamp
p2340
atp2341
a(L3871473710L
L0L
(lp2342
(lp2343
tp2344
a(L234193771L
L0L
(lp2345
(lp2346
tp2347
a(L1635713494L
L3785322319L
(lp2348
(lp2349
Vbootloader_sha256_data
p2350
atp2351
a(L165187679L
L0L
(lp2352
(lp2353
tp2354
a(L3712371969L
L0L
(lp2355
(lp2356
tp2357
a(L451332327L
L0L
(lp2358
(lp2359
tp2360
a(L3802067325L
L0L
(lp2361
(lp2362
tp2363
a(L3592389343L
L0L
(lp2364
(lp2365
tp2366
a(L2258867228L
L0L
(lp2367
(lp2368
tp2369
a(L1255782415L
L0L
(lp2370
(lp2371
tp2372
a(L1756760227L
L0L
(lp2373
(lp2374
tp2375
a(L1849436849L
L0L
(lp2376
(lp2377
tp2378
a(L3566432341L
L3785322319L
(lp2379
(lp2380
Vesp_log_early_timestamp
p2381
atp2382
a(L3601900694L
L0L
(lp2383
(lp2384
tp2385
a(L568253874L
L0L
(lp2386
(lp2387
tp2388
a(L506154665L
L3785322319L
(lp2389
(lp2390
Vesp_log_early_timestamp
p2391
atp2392
a(L1973629750L
L3785322319L
(lp2393
(lp2394
Vverify_load_addresses
p2395
atp2396
a(L106L
L0L
(lp2397
(lp2398
tp2399
a(L914132342L
L0L
(lp2400
(lp2401
tp2402
a(L291460350L
L0L
(lp2403
(lp2404
tp2405
a(L4151532718L
L3785322319L
(lp2406
(lp2407
Vbootloader_mmap
p2408
atp2409
a(L929814218L
L3785322319L
(lp2410
(lp2411
Vesp_log_early_timestamp
p2412
atp2413
a(L2994776696L
L0L
(lp2414
(lp2415
tp2416
a(L2942377727L
L0L
(lp2417
(lp2418
tp2419
a(L1652679798L
L3785322319L
(lp2420
(lp2421
Vbootloader_munmap
p2422
atp2423
a(L2993622008L
L0L
(lp2424
(lp2425
tp2426
a(L1216016797L
L3785322319L
(lp2427
(lp2428
Vbootloader_fill_random
p2429
atp2430
a(L3570641403L
L0L
(lp2431
(lp2432
tp2433
a(L3574335487L
L0L
(lp2434
(lp2435
tp2436
a(L3450268858L
L0L
(lp2437
(lp2438
tp2439
a(L3021749L
L0L
(lp2440
(lp2441
tp2442
a(L1609678444L
L0L
(lp2443
(lp2444
tp2445
a(L1777728568L
L0L
(lp2446
(lp2447
tp2448
a(L3020204L
L0L
(lp2449
(lp2450
tp2451
a(L1312354573L
L0L
(lp2452
(lp2453
tp2454
a(L2076461546L
L0L
(lp2455
(lp2456
tp2457
a(L3844184503L
L0L
(lp2458
(lp2459
tp2460
a(L1749969336L
L0L
(lp2461
(lp2462
tp2463
a(L670934548L
L0L
(lp2464
(lp2465
tp2466
a(L781506066L
L3785322319L
(lp2467
(lp2468
Vbootloader_sha256_data
p2469
atp2470
a(L90548756L
L0L
(lp2471
(lp2472
tp2473
a(L4195963580L
L0L
(lp2474
(lp2475
tp2476
a(L2422333549L
L0L
(lp2477
(lp2478
tp2479
a(L3132743422L
L0L
(lp2480
(lp2481
tp2482
a(L249537906L
L3785322319L
(lp2483
(lp2484
Vshould_load
p2485
atp2486
a(L2378267508L
L0L
(lp2487
(lp2488
tp2489
a(L3098292588L
L3785322319L
(lp2490
(lp2491
Vesp_log_early_timestamp
p2492
atp2493
a(L1263395604L
L0L
(lp2494
(lp2495
tp2496
a(L307916924L
L0L
(lp2497
(lp2498
tp2499
a(L4166767263L
L0L
(lp2500
(lp2501
tp2502
a(L81630008L
L0L
(lp2503
(lp2504
tp2505
a(L2742376716L
L0L
(lp2506
(lp2507
tp2508
a(L3786494677L
L3785322319L
(lp2509
(lp2510
Vbootloader_mmap_get_free_pages
p2511
atp2512
a(L2685118414L
L0L
(lp2513
(lp2514
tp2515
a(L2091285670L
L0L
(lp2516
(lp2517
tp2518
atp2519
sI1074245268
(Vrtc_clk_slow_src_set
p2520
(lp2521
(L1719649901L
L0L
(lp2522
(lp2523
tp2524
a(L3020187L
L0L
(lp2525
(lp2526
tp2527
a(L3028481L
L0L
(lp2528
(lp2529
tp2530
a(L487821223L
L0L
(lp2531
(lp2532
tp2533
a(L185049753L
L0L
(lp2534
(lp2535
tp2536
a(L1851908495L
L0L
(lp2537
(lp2538
tp2539
a(L1555782902L
L0L
(lp2540
(lp2541
tp2542
a(L3138544334L
L0L
(lp2543
(lp2544
tp2545
a(L94425498L
L3785322319L
(lp2546
(lp2547
Vabort
p2548
atp2549
atp2550
sI1074245780
(Vrtc_clk_xtal_freq_update
p2551
(lp2552
(L1422638466L
L0L
(lp2553
(lp2554
tp2555
a(L3509357017L
L0L
(lp2556
(lp2557
tp2558
a(L2266180931L
L0L
(lp2559
(lp2560
tp2561
atp2562
sI1074248852
(V_fini
p2563
(lp2564
(L3493042598L
L0L
(lp2565
(lp2566
tp2567
atp2568
sI1074238096
(Vbootloader_enable_wp
p2569
(lp2570
(L1117825804L
L3785322319L
(lp2571
(lp2572
Vbootloader_execute_flash_command
p2573
atp2574
atp2575
sI1074236828
(Vesp_dport_access_reg_read
p2576
(lp2577
(L1099794772L
L0L
(lp2578
(lp2579
tp2580
atp2581
sI1074247324
(Vesp_rom_spiflash_read_status
p2582
(lp2583
(L2021440545L
L0L
(lp2584
(lp2585
tp2586
a(L1182811815L
L0L
(lp2587
(lp2588
tp2589
a(L1827921062L
L0L
(lp2590
(lp2591
tp2592
a(L106L
L0L
(lp2593
(lp2594
tp2595
a(L619542702L
L0L
(lp2596
(lp2597
tp2598
a(L3274807848L
L0L
(lp2599
(lp2600
tp2601
a(L2123059967L
L0L
(lp2602
(lp2603
tp2604
a(L3146966332L
L0L
(lp2605
(lp2606
tp2607
a(L2392720019L
L0L
(lp2608
(lp2609
tp2610
atp2611
sI1074238616
(Vcache_ll_l1_get_bus
p2612
(lp2613
(L3820023252L
L0L
(lp2614
(lp2615
tp2616
a(L94425498L
L3785322319L
(lp2617
(lp2618
Vabort
p2619
atp2620
a(L3179088012L
L0L
(lp2621
(lp2622
tp2623
a(L1844424101L
L0L
(lp2624
(lp2625
tp2626
a(L892952750L
L0L
(lp2627
(lp2628
tp2629
a(L1182811810L
L0L
(lp2630
(lp2631
tp2632
a(L1101742417L
L0L
(lp2633
(lp2634
tp2635
a(L1100767927L
L0L
(lp2636
(lp2637
tp2638
a(L3360570486L
L0L
(lp2639
(lp2640
tp2641
a(L2767111967L
L0L
(lp2642
(lp2643
tp2644
a(L892952750L
L0L
(lp2645
(lp2646
tp2647
a(L2258688482L
L0L
(lp2648
(lp2649
tp2650
a(L1353797152L
L0L
(lp2651
(lp2652
tp2653
a(L2258718273L
L0L
(lp2654
(lp2655
tp2656
a(L2938197270L
L0L
(lp2657
(lp2658
tp2659
a(L2748641547L
L0L
(lp2660
(lp2661
tp2662
a(L2752340901L
L0L
(lp2663
(lp2664
tp2665
a(L1641149277L
L0L
(lp2666
(lp2667
tp2668
a(L3211405977L
L0L
(lp2669
(lp2670
tp2671
a(L3027019L
L0L
(lp2672
(lp2673
tp2674
a(L1299866560L
L0L
(lp2675
(lp2676
tp2677
a(L1299866436L
L0L
(lp2678
(lp2679
tp2680
atp2681
sI1074238116
(Vbootloader_mmap_get_free_pages
p2682
(lp2683
(L1496516875L
L0L
(lp2684
(lp2685
tp2686
atp2687
sI1074248100
(Vesp_rom_spiflash_read
p2688
(lp2689
(L1461403859L
L0L
(lp2690
(lp2691
tp2692
a(L1448471212L
L0L
(lp2693
(lp2694
tp2695
a(L340311750L
L0L
(lp2696
(lp2697
tp2698
a(L2373999345L
L0L
(lp2699
(lp2700
tp2701
a(L106L
L0L
(lp2702
(lp2703
tp2704
a(L633884026L
L0L
(lp2705
(lp2706
tp2707
a(L106L
L0L
(lp2708
(lp2709
tp2710
a(L12774736L
L0L
(lp2711
(lp2712
tp2713
a(L1190779262L
L0L
(lp2714
(lp2715
tp2716
a(L167420764L
L0L
(lp2717
(lp2718
tp2719
a(L336550648L
L0L
(lp2720
(lp2721
tp2722
a(L493932352L
L0L
(lp2723
(lp2724
tp2725
a(L106L
L0L
(lp2726
(lp2727
tp2728
a(L2549202597L
L3785322319L
(lp2729
(lp2730
Vesp_rom_spiflash_wait_idle
p2731
atp2732
a(L3021737L
L0L
(lp2733
(lp2734
tp2735
a(L106L
L0L
(lp2736
(lp2737
tp2738
a(L1868280504L
L0L
(lp2739
(lp2740
tp2741
a(L106L
L0L
(lp2742
(lp2743
tp2744
a(L4024100605L
L0L
(lp2745
(lp2746
tp2747
a(L1221163038L
L0L
(lp2748
(lp2749
tp2750
a(L4122060822L
L0L
(lp2751
(lp2752
tp2753
a(L1406217664L
L0L
(lp2754
(lp2755
tp2756
a(L2989032L
L0L
(lp2757
(lp2758
tp2759
a(L3819849625L
L0L
(lp2760
(lp2761
tp2762
a(L726363469L
L0L
(lp2763
(lp2764
tp2765
a(L932902197L
L0L
(lp2766
(lp2767
tp2768
a(L3901821451L
L0L
(lp2769
(lp2770
tp2771
a(L3584862605L
L0L
(lp2772
(lp2773
tp2774
a(L2921907736L
L0L
(lp2775
(lp2776
tp2777
a(L1328428270L
L0L
(lp2778
(lp2779
tp2780
a(L3419655824L
L0L
(lp2781
(lp2782
tp2783
a(L708728610L
L0L
(lp2784
(lp2785
tp2786
a(L1400585318L
L0L
(lp2787
(lp2788
tp2789
a(L781550816L
L0L
(lp2790
(lp2791
tp2792
a(L2687789892L
L0L
(lp2793
(lp2794
tp2795
a(L1405253496L
L0L
(lp2796
(lp2797
tp2798
a(L1756022091L
L0L
(lp2799
(lp2800
tp2801
a(L97689L
L0L
(lp2802
(lp2803
tp2804
a(L1183020347L
L0L
(lp2805
(lp2806
tp2807
a(L4014024819L
L0L
(lp2808
(lp2809
tp2810
a(L3621567083L
L0L
(lp2811
(lp2812
tp2813
atp2814
sI1074270124
(Vrtc_clk_xtal_freq_estimate
p2815
(lp2816
(L3845076426L
L1880226080L
(lp2817
(lp2818
Vrtc_clk_8m_enabled
p2819
aVrtc_clk_8md256_enabled
p2820
atp2821
a(L2449794434L
L3785322319L
(lp2822
(lp2823
Vrtc_clk_8m_enable
p2824
atp2825
a(L3136879486L
L3785322319L
(lp2826
(lp2827
Vrtc_clk_cal_ratio
p2828
atp2829
a(L1894802584L
L0L
(lp2830
(lp2831
tp2832
a(L1915120046L
L0L
(lp2833
(lp2834
tp2835
a(L2740879690L
L0L
(lp2836
(lp2837
tp2838
a(L1059750288L
L3785322319L
(lp2839
(lp2840
Vrtc_clk_8m_enable
p2841
atp2842
a(L2467060401L
L3785322319L
(lp2843
(lp2844
Vesp_log_early_timestamp
p2845
atp2846
a(L2894376164L
L0L
(lp2847
(lp2848
tp2849
a(L1641150486L
L0L
(lp2850
(lp2851
tp2852
a(L2835618827L
L3785322319L
(lp2853
(lp2854
Vesp_log_early_timestamp
p2855
atp2856
a(L527243467L
L3785322319L
(lp2857
(lp2858
Vesp_log_early_timestamp
p2859
atp2860
atp2861
sI1074240416
(Vbootloader_debug_buffer
p2862
(lp2863
(L2100504542L
L0L
(lp2864
(lp2865
tp2866
atp2867
sI1074241708
(Vprocess_appended_hash_and_sig
p2868
(lp2869
(L1668084157L
L0L
(lp2870
(lp2871
tp2872
a(L2910371777L
L0L
(lp2873
(lp2874
tp2875
a(L1591589631L
L0L
(lp2876
(lp2877
tp2878
a(L2551256078L
L0L
(lp2879
(lp2880
tp2881
a(L2688085881L
L0L
(lp2882
(lp2883
tp2884
a(L723646529L
L3785322319L
(lp2885
(lp2886
Vesp_log_early_timestamp
p2887
atp2888
a(L2268304300L
L3785322319L
(lp2889
(lp2890
Vbootloader_flash_read
p2891
atp2892
a(L3871473710L
L0L
(lp2893
(lp2894
tp2895
atp2896
sI1074238124
(Vbootloader_fill_random
p2897
(lp2898
(L1233865241L
L0L
(lp2899
(lp2900
tp2901
a(L2195342884L
L3785322319L
(lp2902
(lp2903
V__assert_func
p2904
atp2905
a(L1882547218L
L0L
(lp2906
(lp2907
tp2908
a(L2910371777L
L0L
(lp2909
(lp2910
tp2911
a(L95634693L
L0L
(lp2912
(lp2913
tp2914
a(L3630908706L
L0L
(lp2915
(lp2916
tp2917
a(L160162640L
L0L
(lp2918
(lp2919
tp2920
a(L97689L
L0L
(lp2921
(lp2922
tp2923
a(L3360570486L
L0L
(lp2924
(lp2925
tp2926
atp2927
sI1074238892
(Vload_image
p2928
(lp2929
(L1031501979L
L1832448559L
(lp2930
(lp2931
Vesp_log_early_timestamp
p2932
aVbootloader_random_disable
p2933
aVbootloader_ana_clock_glitch_reset_config
p2934
atp2935
a(L2118498116L
L0L
(lp2936
(lp2937
tp2938
a(L106L
L0L
(lp2939
(lp2940
tp2941
a(L1789307221L
L3758435744L
(lp2942
(lp2943
Vmmu_hal_init
p2944
aVcache_ll_l1_get_bus
p2945
aVcache_ll_l1_enable_bus
p2946
aVcache_ll_l1_get_bus
p2947
aVcache_ll_l1_enable_bus
p2948
aVcache_ll_l1_get_bus
p2949
aVcache_ll_l1_enable_bus
p2950
aVcache_ll_l1_get_bus
p2951
aVcache_ll_l1_enable_bus
p2952
aVbootloader_console_deinit
p2953
atp2954
a(L746432701L
L0L
(lp2955
(lp2956
tp2957
a(L2902417580L
L0L
(lp2958
(lp2959
tp2960
a(L1559048222L
L3785322319L
(lp2961
(lp2962
Vesp_log_early_timestamp
p2963
atp2964
a(L3064806881L
L0L
(lp2965
(lp2966
tp2967
a(L839502558L
L0L
(lp2968
(lp2969
tp2970
a(L3020204L
L0L
(lp2971
(lp2972
tp2973
a(L2483094034L
L3785322319L
(lp2974
(lp2975
Vesp_log_early_timestamp
p2976
atp2977
a(L3644183142L
L0L
(lp2978
(lp2979
tp2980
a(L356605111L
L0L
(lp2981
(lp2982
tp2983
atp2984
sI1074245548
(Vrtc_clk_cpu_freq_mhz_to_config
p2985
(lp2986
(L908718885L
L3785322319L
(lp2987
(lp2988
Vrtc_clk_xtal_freq_get
p2989
atp2990
a(L60460069L
L0L
(lp2991
(lp2992
tp2993
a(L3802072124L
L0L
(lp2994
(lp2995
tp2996
a(L3159006042L
L0L
(lp2997
(lp2998
tp2999
a(L3360570486L
L0L
(lp3000
(lp3001
tp3002
a(L895147205L
L0L
(lp3003
(lp3004
tp3005
a(L3970036657L
L0L
(lp3006
(lp3007
tp3008
a(L2731353429L
L0L
(lp3009
(lp3010
tp3011
a(L1555485793L
L0L
(lp3012
(lp3013
tp3014
a(L2258897023L
L0L
(lp3015
(lp3016
tp3017
a(L1947499251L
L0L
(lp3018
(lp3019
tp3020
a(L1306331021L
L0L
(lp3021
(lp3022
tp3023
atp3024
sI1074240424
(Vbootloader_sha256_start
p3025
(lp3026
(L260677377L
L0L
(lp3027
(lp3028
tp3029
atp3030
sI1074239400
(Vbootloader_utility_load_partition_table
p3031
(lp3032
(L973068460L
L3785322319L
(lp3033
(lp3034
Vbootloader_mmap
p3035
atp3036
a(L2639676080L
L3785322319L
(lp3037
(lp3038
Vesp_log_early_timestamp
p3039
atp3040
a(L2258688482L
L0L
(lp3041
(lp3042
tp3043
a(L3360570486L
L0L
(lp3044
(lp3045
tp3046
a(L3881596654L
L3785322319L
(lp3047
(lp3048
Vesp_partition_table_verify
p3049
atp3050
a(L2037405970L
L3785322319L
(lp3051
(lp3052
Vesp_log_early_timestamp
p3053
atp3054
a(L598005878L
L1880226080L
(lp3055
(lp3056
Vesp_log_early_timestamp
p3057
aVesp_log_early_timestamp
p3058
atp3059
a(L650140130L
L0L
(lp3060
(lp3061
tp3062
a(L3012151332L
L1880226080L
(lp3063
(lp3064
Vbootloader_munmap
p3065
aVesp_log_early_timestamp
p3066
atp3067
a(L521126897L
L0L
(lp3068
(lp3069
tp3070
a(L3028464L
L0L
(lp3071
(lp3072
tp3073
a(L106L
L0L
(lp3074
(lp3075
tp3076
a(L1403802546L
L0L
(lp3077
(lp3078
tp3079
a(L496969430L
L3785322319L
(lp3080
(lp3081
Vesp_log_early_timestamp
p3082
atp3083
a(L3990577774L
L0L
(lp3084
(lp3085
tp3086
a(L3020187L
L0L
(lp3087
(lp3088
tp3089
a(L2318212397L
L0L
(lp3090
(lp3091
tp3092
a(L4208504540L
L0L
(lp3093
(lp3094
tp3095
a(L1859217843L
L0L
(lp3096
(lp3097
tp3098
a(L2546691246L
L0L
(lp3099
(lp3100
tp3101
a(L3797730446L
L0L
(lp3102
(lp3103
tp3104
a(L106L
L0L
(lp3105
(lp3106
tp3107
a(L93674324L
L0L
(lp3108
(lp3109
tp3110
a(L1583301205L
L0L
(lp3111
(lp3112
tp3113
a(L1938133383L
L0L
(lp3114
(lp3115
tp3116
a(L1630400759L
L0L
(lp3117
(lp3118
tp3119
a(L106L
L0L
(lp3120
(lp3121
tp3122
a(L928516522L
L0L
(lp3123
(lp3124
tp3125
a(L106L
L0L
(lp3126
(lp3127
tp3128
a(L568204863L
L0L
(lp3129
(lp3130
tp3131
atp3132
sI1074236840
(Vis_xmc_chip_strict
p3133
(lp3134
(L1286841609L
L0L
(lp3135
(lp3136
tp3137
a(L2234016759L
L0L
(lp3138
(lp3139
tp3140
a(L1069027148L
L0L
(lp3141
(lp3142
tp3143
a(L3021749L
L0L
(lp3144
(lp3145
tp3146
a(L1900148749L
L0L
(lp3147
(lp3148
tp3149
a(L1936875721L
L0L
(lp3150
(lp3151
tp3152
a(L3356166509L
L0L
(lp3153
(lp3154
tp3155
a(L1937769451L
L0L
(lp3156
(lp3157
tp3158
a(L2137658907L
L0L
(lp3159
(lp3160
tp3161
a(L4265949734L
L0L
(lp3162
(lp3163
tp3164
a(L3360570486L
L0L
(lp3165
(lp3166
tp3167
atp3168
sI1074245032
(Vrtc_clk_32k_enable
p3169
(lp3170
(L753387299L
L0L
(lp3171
(lp3172
tp3173
a(L3776007933L
L3785322319L
(lp3174
(lp3175
Vrtc_clk_32k_enable_common
p3176
atp3177
a(L3496950L
L0L
(lp3178
(lp3179
tp3180
a(L2501812159L
L0L
(lp3181
(lp3182
tp3183
atp3184
sI1074247848
(Vesp_rom_spiflash_write
p3185
(lp3186
(L3906515568L
L0L
(lp3187
(lp3188
tp3189
a(L2258688483L
L0L
(lp3190
(lp3191
tp3192
a(L3360570486L
L0L
(lp3193
(lp3194
tp3195
a(L3368132847L
L0L
(lp3196
(lp3197
tp3198
a(L3106685981L
L0L
(lp3199
(lp3200
tp3201
a(L3488660639L
L3785322319L
(lp3202
(lp3203
Vesp_rom_spiflash_program_page_internal
p3204
atp3205
a(L3543402353L
L3785322319L
(lp3206
(lp3207
Vesp_rom_spiflash_program_page_internal
p3208
atp3209
a(L4222526342L
L0L
(lp3210
(lp3211
tp3212
a(L2004208511L
L0L
(lp3213
(lp3214
tp3215
a(L564470656L
L0L
(lp3216
(lp3217
tp3218
a(L2988842384L
L3785322319L
(lp3219
(lp3220
Vesp_rom_spiflash_program_page_internal
p3221
atp3222
a(L2302069176L
L0L
(lp3223
(lp3224
tp3225
atp3226
sI1074270904
(Vrtc_vddsdio_set_config
p3227
(lp3228
(L3141895987L
L0L
(lp3229
(lp3230
tp3231
atp3232
sI1074235572
(Vbootloader_read_flash_id
p3233
(lp3234
(L549578328L
L3785322319L
(lp3235
(lp3236
Vbootloader_execute_flash_command
p3237
atp3238
atp3239
sI1074240444
(Vbootloader_sha256_data
p3240
(lp3241
(L4066096136L
L0L
(lp3242
(lp3243
tp3244
a(L110883720L
L0L
(lp3245
(lp3246
tp3247
a(L3884092851L
L3785322319L
(lp3248
(lp3249
V__assert_func
p3250
atp3251
a(L498498478L
L0L
(lp3252
(lp3253
tp3254
a(L1040021824L
L0L
(lp3255
(lp3256
tp3257
a(L2910371777L
L0L
(lp3258
(lp3259
tp3260
a(L3360570486L
L0L
(lp3261
(lp3262
tp3263
a(L1788837773L
L0L
(lp3264
(lp3265
tp3266
a(L541898147L
L0L
(lp3267
(lp3268
tp3269
a(L2604061911L
L0L
(lp3270
(lp3271
tp3272
a(L8683590L
L0L
(lp3273
(lp3274
tp3275
a(L3387118333L
L0L
(lp3276
(lp3277
tp3278
a(L2032890799L
L0L
(lp3279
(lp3280
tp3281
a(L3028464L
L0L
(lp3282
(lp3283
tp3284
a(L707876039L
L0L
(lp3285
(lp3286
tp3287
a(L498156265L
L0L
(lp3288
(lp3289
tp3290
atp3291
sI1074236600
(Vesp_rom_uart_set_clock_baudrate
p3292
(lp3293
(L3381693543L
L0L
(lp3294
(lp3295
tp3296
a(L2334982986L
L0L
(lp3297
(lp3298
tp3299
a(L2805931264L
L0L
(lp3300
(lp3301
tp3302
a(L3887231631L
L0L
(lp3303
(lp3304
tp3305
atp3306
sI1074236356
(Vbootloader_flash_dummy_config
p3307
(lp3308
(L379397211L
L0L
(lp3309
(lp3310
tp3311
a(L2761717557L
L0L
(lp3312
(lp3313
tp3314
a(L1849044936L
L0L
(lp3315
(lp3316
tp3317
a(L1396570841L
L0L
(lp3318
(lp3319
tp3320
a(L326359429L
L0L
(lp3321
(lp3322
tp3323
a(L3020204L
L0L
(lp3324
(lp3325
tp3326
a(L1610443405L
L0L
(lp3327
(lp3328
tp3329
a(L4032120524L
L0L
(lp3330
(lp3331
tp3332
a(L2336993863L
L0L
(lp3333
(lp3334
tp3335
a(L1298875775L
L0L
(lp3336
(lp3337
tp3338
a(L3880393601L
L0L
(lp3339
(lp3340
tp3341
a(L3433671740L
L0L
(lp3342
(lp3343
tp3344
a(L1610443436L
L0L
(lp3345
(lp3346
tp3347
atp3348
sI1074268108
(Vbootloader_init
p3349
(lp3350
(L1670820128L
L3785322319L
(lp3351
(lp3352
Vbootloader_init_mem
p3353
atp3354
a(L2510418038L
L0L
(lp3355
(lp3356
tp3357
a(L2162674539L
L3785322319L
(lp3358
(lp3359
V__assert_func
p3360
atp3361
a(L1637078003L
L0L
(lp3362
(lp3363
tp3364
a(L77379998L
L0L
(lp3365
(lp3366
tp3367
a(L3813782018L
L0L
(lp3368
(lp3369
tp3370
a(L1480579064L
L0L
(lp3371
(lp3372
tp3373
a(L3027019L
L0L
(lp3374
(lp3375
tp3376
a(L2883778843L
L0L
(lp3377
(lp3378
tp3379
a(L2959511285L
L1832448559L
(lp3380
(lp3381
Vbootloader_clear_bss_section
p3382
aVbootloader_common_vddsdio_configure
p3383
aVbootloader_clock_get_rated_freq_mhz
p3384
atp3385
a(L3987130017L
L1157885199L
(lp3386
(lp3387
Vbootloader_clock_configure
p3388
aVbootloader_console_init
p3389
aVbootloader_print_banner
p3390
aVbootloader_flash_update_id
p3391
aVbootloader_flash_xmc_startup
p3392
atp3393
a(L2074744344L
L3785322319L
(lp3394
(lp3395
Vesp_log_early_timestamp
p3396
atp3397
a(L3226199455L
L3785322319L
(lp3398
(lp3399
Vesp_log_early_timestamp
p3400
atp3401
a(L3360570486L
L0L
(lp3402
(lp3403
tp3404
a(L2444883382L
L3785322319L
(lp3405
(lp3406
Vbootloader_read_bootloader_header
p3407
atp3408
a(L2444883382L
L3785322319L
(lp3409
(lp3410
Vbootloader_check_bootloader_validity
p3411
atp3412
a(L3948167628L
L2485746240L
(lp3413
(lp3414
Vbootloader_flash_gpio_config
p3415
aVbootloader_flash_dummy_config
p3416
aVbootloader_flash_cs_timing_config
p3417
aVbootloader_flash_unlock
p3418
atp3419
a(L51834088L
L0L
(lp3420
(lp3421
tp3422
a(L2959710894L
L0L
(lp3423
(lp3424
tp3425
a(L1404489878L
L0L
(lp3426
(lp3427
tp3428
a(L2699833301L
L3785322319L
(lp3429
(lp3430
Vesp_log_early_timestamp
p3431
atp3432
a(L139553654L
L0L
(lp3433
(lp3434
tp3435
a(L1237620123L
L0L
(lp3436
(lp3437
tp3438
a(L1241314207L
L0L
(lp3439
(lp3440
tp3441
a(L1245008291L
L0L
(lp3442
(lp3443
tp3444
a(L1404491192L
L0L
(lp3445
(lp3446
tp3447
a(L2559887724L
L3785322319L
(lp3448
(lp3449
Vesp_log_early_timestamp
p3450
atp3451
a(L93837694L
L0L
(lp3452
(lp3453
tp3454
a(L106L
L0L
(lp3455
(lp3456
tp3457
a(L2745846097L
L0L
(lp3458
(lp3459
tp3460
a(L2777506265L
L0L
(lp3461
(lp3462
tp3463
a(L3902507117L
L0L
(lp3464
(lp3465
tp3466
a(L4250727223L
L3785322319L
(lp3467
(lp3468
Vesp_log_early_timestamp
p3469
atp3470
a(L93837694L
L0L
(lp3471
(lp3472
tp3473
a(L106L
L0L
(lp3474
(lp3475
tp3476
a(L3029526157L
L0L
(lp3477
(lp3478
tp3479
a(L2772639124L
L0L
(lp3480
(lp3481
tp3482
a(L2807278488L
L0L
(lp3483
(lp3484
tp3485
a(L440114021L
L3785322319L
(lp3486
(lp3487
Vbootloader_enable_wp
p3488
atp3489
a(L1266399027L
L0L
(lp3490
(lp3491
tp3492
a(L1895147922L
L0L
(lp3493
(lp3494
tp3495
a(L4198777427L
L3785322319L
(lp3496
(lp3497
Vesp_log_early_timestamp
p3498
atp3499
a(L3639065141L
L0L
(lp3500
(lp3501
tp3502
a(L3616326365L
L0L
(lp3503
(lp3504
tp3505
a(L1129025932L
L0L
(lp3506
(lp3507
tp3508
a(L2739503802L
L3785322319L
(lp3509
(lp3510
Vesp_log_early_timestamp
p3511
atp3512
a(L4263191691L
L1880226080L
(lp3513
(lp3514
Vwdt_reset_info_dump
p3515
aVwdt_reset_info_dump
p3516
atp3517
a(L2777497988L
L0L
(lp3518
(lp3519
tp3520
a(L106L
L0L
(lp3521
(lp3522
tp3523
a(L718637158L
L0L
(lp3524
(lp3525
tp3526
a(L1767021965L
L0L
(lp3527
(lp3528
tp3529
a(L3028481L
L0L
(lp3530
(lp3531
tp3532
a(L1638301777L
L1880226080L
(lp3533
(lp3534
Vbootloader_config_wdt
p3535
aVbootloader_enable_random
p3536
atp3537
atp3538
sI1074237376
(Vspi_to_esp_err
p3539
(lp3540
(L3520881295L
L0L
(lp3541
(lp3542
tp3543
a(L2402400019L
L0L
(lp3544
(lp3545
tp3546
a(L3952441574L
L0L
(lp3547
(lp3548
tp3549
a(L3126521138L
L0L
(lp3550
(lp3551
tp3552
atp3553
sI1074237632
(Vbootloader_munmap
p3554
(lp3555
(L1697403118L
L0L
(lp3556
(lp3557
tp3558
a(L3761142808L
L0L
(lp3559
(lp3560
tp3561
a(L3360570486L
L0L
(lp3562
(lp3563
tp3564
atp3565
sI1074245824
(Vrtc_clk_apb_freq_update
p3566
(lp3567
(L723331471L
L0L
(lp3568
(lp3569
tp3570
atp3571
sI1074267840
(Vbootloader_before_init
p3572
(lp3573
(L742791736L
L3785322319L
(lp3574
(lp3575
Vesp_log_early_timestamp
p3576
atp3577
atp3578
sI1074267864
(Vbootloader_after_init
p3579
(lp3580
(L3515198524L
L3785322319L
(lp3581
(lp3582
Vesp_log_early_timestamp
p3583
atp3584
atp3585
sI1074244564
(Vmmu_hal_init
p3586
(lp3587
(L1381828061L
L0L
(lp3588
(lp3589
tp3590
a(L2010554219L
L0L
(lp3591
(lp3592
tp3593
a(L3268103L
L0L
(lp3594
(lp3595
tp3596
a(L3212334523L
L0L
(lp3597
(lp3598
tp3599
a(L2010554219L
L0L
(lp3600
(lp3601
tp3602
a(L3360570486L
L0L
(lp3603
(lp3604
tp3605
atp3606
sI1074244816
(Vrtc_clk_cpu_freq_to_pll_mhz
p3607
(lp3608
(L1393544349L
L0L
(lp3609
(lp3610
tp3611
a(L405771233L
L0L
(lp3612
(lp3613
tp3614
a(L2930233244L
L0L
(lp3615
(lp3616
tp3617
a(L3298441904L
L0L
(lp3618
(lp3619
tp3620
a(L3680579786L
L0L
(lp3621
(lp3622
tp3623
a(L1298905564L
L0L
(lp3624
(lp3625
tp3626
a(L46269790L
L3785322319L
(lp3627
(lp3628
Vrtc_clk_wait_for_slow_cycle
p3629
atp3630
a(L1611366957L
L0L
(lp3631
(lp3632
tp3633
a(L1611366988L
L0L
(lp3634
(lp3635
tp3636
a(L94425498L
L3785322319L
(lp3637
(lp3638
Vabort
p3639
atp3640
atp3641
sI1074244048
(Vwdt_hal_config_stage
p3642
(lp3643
(L331558507L
L0L
(lp3644
(lp3645
tp3646
a(L4279082939L
L0L
(lp3647
(lp3648
tp3649
a(L93674324L
L0L
(lp3650
(lp3651
tp3652
a(L2902417580L
L0L
(lp3653
(lp3654
tp3655
a(L1485495983L
L0L
(lp3656
(lp3657
tp3658
a(L3020187L
L0L
(lp3659
(lp3660
tp3661
a(L94425498L
L3785322319L
(lp3662
(lp3663
Vabort
p3664
atp3665
a(L2718517169L
L0L
(lp3666
(lp3667
tp3668
a(L3360570486L
L0L
(lp3669
(lp3670
tp3671
a(L1996799187L
L0L
(lp3672
(lp3673
tp3674
a(L2771194801L
L0L
(lp3675
(lp3676
tp3677
a(L4278159418L
L0L
(lp3678
(lp3679
tp3680
a(L93674324L
L0L
(lp3681
(lp3682
tp3683
a(L3020204L
L0L
(lp3684
(lp3685
tp3686
a(L3391750594L
L0L
(lp3687
(lp3688
tp3689
a(L3020187L
L0L
(lp3690
(lp3691
tp3692
a(L106L
L0L
(lp3693
(lp3694
tp3695
a(L239610384L
L0L
(lp3696
(lp3697
tp3698
a(L831450820L
L0L
(lp3699
(lp3700
tp3701
a(L3340783449L
L0L
(lp3702
(lp3703
tp3704
atp3705
sI1074245852
(Vrtc_clk_cpu_freq_to_xtal
p3706
(lp3707
(L2382625401L
L0L
(lp3708
(lp3709
tp3710
a(L94425498L
L3785322319L
(lp3711
(lp3712
Vabort
p3713
atp3714
a(L2975556993L
L3785322319L
(lp3715
(lp3716
Vrtc_clk_apb_freq_update
p3717
atp3718
a(L2258867232L
L0L
(lp3719
(lp3720
tp3721
a(L362206021L
L0L
(lp3722
(lp3723
tp3724
atp3725
sI1074247132
(Vrtc_clk_cal_ratio
p3726
(lp3727
(L1201925337L
L3785322319L
(lp3728
(lp3729
Vrtc_clk_cal_internal
p3730
atp3731
atp3732
sI1074268884
(Vbootloader_common_vddsdio_configure
p3733
(lp3734
(L1829974089L
L3785322319L
(lp3735
(lp3736
Vrtc_vddsdio_get_config
p3737
atp3738
a(L3802264566L
L3785322319L
(lp3739
(lp3740
Vrtc_vddsdio_set_config
p3741
atp3742
a(L3360570486L
L0L
(lp3743
(lp3744
tp3745
atp3746
sI1074245092
(Vrtc_clk_8m_enable
p3747
(lp3748
(L1843101924L
L0L
(lp3749
(lp3750
tp3751
a(L3147299128L
L0L
(lp3752
(lp3753
tp3754
a(L2151320156L
L0L
(lp3755
(lp3756
tp3757
a(L1456128412L
L0L
(lp3758
(lp3759
tp3760
a(L3360570486L
L0L
(lp3761
(lp3762
tp3763
a(L1318267208L
L0L
(lp3764
(lp3765
tp3766
a(L512411289L
L0L
(lp3767
(lp3768
tp3769
atp3770
sI1074235620
(Vbootloader_flash_xmc_startup
p3771
(lp3772
(L3193865048L
L3785322319L
(lp3773
(lp3774
Vis_xmc_chip_strict
p3775
atp3776
a(L2258688482L
L0L
(lp3777
(lp3778
tp3779
a(L3360570486L
L0L
(lp3780
(lp3781
tp3782
a(L2860324232L
L3785322319L
(lp3783
(lp3784
Vbootloader_flash_read_sfdp
p3785
atp3786
a(L1435030724L
L2567856111L
(lp3787
(lp3788
Vesp_log_early_timestamp
p3789
aVbootloader_execute_flash_command
p3790
aVbootloader_execute_flash_command
p3791
aVbootloader_execute_flash_command
p3792
aVbootloader_execute_flash_command
p3793
aVbootloader_read_flash_id
p3794
aVis_xmc_chip_strict
p3795
atp3796
a(L3505255384L
L3785322319L
(lp3797
(lp3798
Vesp_log_early_timestamp
p3799
atp3800
atp3801
sI1074237408
(Vbootloader_mmap
p3802
(lp3803
(L3624397292L
L0L
(lp3804
(lp3805
tp3806
a(L243940828L
L3785322319L
(lp3807
(lp3808
Vesp_log_early_timestamp
p3809
atp3810
a(L3871473710L
L0L
(lp3811
(lp3812
tp3813
a(L3729184599L
L0L
(lp3814
(lp3815
tp3816
a(L420931470L
L3785322319L
(lp3817
(lp3818
Vesp_log_early_timestamp
p3819
atp3820
a(L1864365708L
L0L
(lp3821
(lp3822
tp3823
a(L3643511071L
L3785322319L
(lp3824
(lp3825
Vesp_log_early_timestamp
p3826
atp3827
a(L258722864L
L0L
(lp3828
(lp3829
tp3830
a(L3840066862L
L3785322319L
(lp3831
(lp3832
Vesp_log_early_timestamp
p3833
atp3834
a(L2535155408L
L0L
(lp3835
(lp3836
tp3837
atp3838
sI1074269668
(Vbootloader_flash_update_id
p3839
(lp3840
(L613664594L
L3785322319L
(lp3841
(lp3842
Vbootloader_read_flash_id
p3843
atp3844
atp3845
sI1074241256
(Vbootloader_util_regions_overlap
p3846
(lp3847
(L2762640130L
L0L
(lp3848
(lp3849
tp3850
a(L2198512677L
L0L
(lp3851
(lp3852
tp3853
a(L2217655633L
L3785322319L
(lp3854
(lp3855
V__assert_func
p3856
atp3857
a(L97642L
L0L
(lp3858
(lp3859
tp3860
a(L996187529L
L0L
(lp3861
(lp3862
tp3863
a(L366123053L
L0L
(lp3864
(lp3865
tp3866
a(L2258867228L
L0L
(lp3867
(lp3868
tp3869
a(L1253626734L
L0L
(lp3870
(lp3871
tp3872
a(L2258897019L
L0L
(lp3873
(lp3874
tp3875
a(L3109269495L
L0L
(lp3876
(lp3877
tp3878
atp3879
sI1074237684
(Vbootloader_flash_read
p3880
(lp3881
(L728393898L
L0L
(lp3882
(lp3883
tp3884
a(L2508346275L
L3785322319L
(lp3885
(lp3886
Vesp_log_early_timestamp
p3887
atp3888
a(L1024709524L
L0L
(lp3889
(lp3890
tp3891
a(L3360570486L
L0L
(lp3892
(lp3893
tp3894
a(L2660352519L
L0L
(lp3895
(lp3896
tp3897
a(L1628083166L
L3785322319L
(lp3898
(lp3899
Vesp_log_early_timestamp
p3900
atp3901
a(L162336582L
L0L
(lp3902
(lp3903
tp3904
a(L1263385939L
L3785322319L
(lp3905
(lp3906
Vesp_log_early_timestamp
p3907
atp3908
a(L3020204L
L0L
(lp3909
(lp3910
tp3911
a(L3893043951L
L0L
(lp3912
(lp3913
tp3914
a(L97422L
L0L
(lp3915
(lp3916
tp3917
a(L1190291857L
L0L
(lp3918
(lp3919
tp3920
a(L2961856275L
L0L
(lp3921
(lp3922
tp3923
a(L3929038665L
L3785322319L
(lp3924
(lp3925
V__assert_func
p3926
atp3927
a(L1539897528L
L0L
(lp3928
(lp3929
tp3930
a(L1915165223L
L0L
(lp3931
(lp3932
tp3933
a(L1336007148L
L1880226080L
(lp3934
(lp3935
Vesp_rom_spiflash_read
p3936
aVspi_to_esp_err
p3937
atp3938
atp3939
sI1074247412
(Vesp_rom_spiflash_wait_idle
p3940
(lp3941
(L3233077286L
L0L
(lp3942
(lp3943
tp3944
a(L2023766174L
L0L
(lp3945
(lp3946
tp3947
a(L2805935267L
L0L
(lp3948
(lp3949
tp3950
a(L3086959262L
L0L
(lp3951
(lp3952
tp3953
a(L4161019926L
L3785322319L
(lp3954
(lp3955
Vesp_rom_spiflash_read_status
p3956
atp3957
atp3958
sI1074269180
(Vbootloader_random_enable
p3959
(lp3960
(L267065582L
L0L
(lp3961
(lp3962
tp3963
atp3964
sI1074269948
(Vbootloader_enable_random
p3965
(lp3966
(L2483657592L
L1880226080L
(lp3967
(lp3968
Vesp_log_early_timestamp
p3969
aVbootloader_random_enable
p3970
atp3971
atp3972
sI1074236912
(Vesp_log_early_timestamp
p3973
(lp3974
(L3733265409L
L0L
(lp3975
(lp3976
tp3977
atp3978
sI1074235888
(Vbootloader_flash_gpio_config
p3979
(lp3980
(L3448878117L
L3785322319L
(lp3981
(lp3982
Vbootloader_common_get_chip_ver_pkg
p3983
atp3984
a(L106L
L0L
(lp3985
(lp3986
tp3987
a(L1998579353L
L0L
(lp3988
(lp3989
tp3990
a(L106L
L0L
(lp3991
(lp3992
tp3993
a(L961479410L
L0L
(lp3994
(lp3995
tp3996
a(L3118453758L
L0L
(lp3997
(lp3998
tp3999
a(L106L
L0L
(lp4000
(lp4001
tp4002
a(L4003626558L
L0L
(lp4003
(lp4004
tp4005
a(L2656511625L
L0L
(lp4006
(lp4007
tp4008
a(L3360570486L
L0L
(lp4009
(lp4010
tp4011
atp4012
sI1074237936
(Vbootloader_flash_erase_sector
p4013
(lp4014
(L4129137686L
L1880226080L
(lp4015
(lp4016
Vesp_rom_spiflash_erase_sector
p4017
aVspi_to_esp_err
p4018
atp4019
atp4020
sI1074267888
(Vwdt_reset_info_dump
p4021
(lp4022
(L4037466985L
L0L
(lp4023
(lp4024
tp4025
a(L1166533755L
L0L
(lp4026
(lp4027
tp4028
a(L3014880741L
L0L
(lp4029
(lp4030
tp4031
a(L1103285333L
L0L
(lp4032
(lp4033
tp4034
a(L982832708L
L3785322319L
(lp4035
(lp4036
Vesp_log_early_timestamp
p4037
atp4038
a(L2967992533L
L0L
(lp4039
(lp4040
tp4041
a(L768996255L
L3785322319L
(lp4042
(lp4043
Vesp_log_early_timestamp
p4044
atp4045
a(L3735117731L
L0L
(lp4046
(lp4047
tp4048
atp4049
sI1074238204
(Vbootloader_random_disable
p4050
(lp4051
(L3778370451L
L0L
(lp4052
(lp4053
tp4054
atp4055
sI1074246652
(Vrtc_clk_apb_freq_get
p4056
(lp4057
(L3268507198L
L0L
(lp4058
(lp4059
tp4060
atp4061
sI1074247164
(Vrtc_clk_wait_for_slow_cycle
p4062
(lp4063
(L4046141382L
L0L
(lp4064
(lp4065
tp4066
a(L287687718L
L0L
(lp4067
(lp4068
tp4069
a(L3360570486L
L0L
(lp4070
(lp4071
tp4072
a(L835269876L
L0L
(lp4073
(lp4074
tp4075
a(L2994547433L
L0L
(lp4076
(lp4077
tp4078
a(L2206597745L
L0L
(lp4079
(lp4080
tp4081
a(L2406841559L
L3785322319L
(lp4082
(lp4083
Vesp_log_early_timestamp
p4084
atp4085
atp4086
sI1074269172
(Vbootloader_init_mem
p4087
(lp4088
(L1287383080L
L3785322319L
(lp4089
(lp4090
Vesp_cpu_configure_region_protection
p4091
atp4092
atp4093
sI1074269684
(Vbootloader_clear_bss_section
p4094
(lp4095
(L2759654043L
L0L
(lp4096
(lp4097
tp4098
atp4099
ssS'functionsdups'
p4100
g11
((lp4101
tp4102
Rp4103
sS'immediatedups'
p4104
g11
((lp4105
tp4106
Rp4107
sS'functiondups'
p4108
g11
((lp4109
tp4110
Rp4111
sS'fuzzy'
p4112
(dp4113
L1536L
I1074240812
sL438947497L
I1074245268
sL2170867428L
I1074270308
sL617583950L
I1074237000
sL430153639L
I1074235888
sL3121027072L
I1074270744
sL2082889262L
I1074241708
sL291131346L
I1074244816
sL835568324L
I1074246696
sL3820933298L
I1074267740
sL2919016435L
I1074235228
sL16208487L
I1074234716
sL2319042089L
I1074245400
sL3881399234L
I1074245852
sL2919036513L
I1074238892
sL151789201L
I1074270124
sL2680783959L
I1074235620
sL3512578114L
I1074238740
sL1419132215L
I1074238124
sL2469233929L
I1074240600
sL701833459L
I1074268940
sL3897252859L
I1074238532
sL1065525808L
I1074236840
sL2327783177L
I1074240892
sL1164839255L
I1074241928
sL2272466760L
I1074245640
sL2117292686L
I1074241312
sL2044047637L
I1074239400
sL1188065553L
I1074237684
sL94556391L
I1074245428
sL3210669721L
I1074245032
sL1332800441L
I1074237232
sL2884218272L
I1074267888
sL1168466927L
I1074268108
sL1345429244L
I1074241064
sL3190020590L
I1074242648
sL2828970830L
I1074239280
sL4160102055L
I1074240076
sL4202185385L
I1074247412
sL1768086576L
I1074236356
sL4171975289L
I1074247712
sL1565254297L
I1074248012
sL1205407754L
I1074240108
sL2191698036L
I1074269820
sL1513350244L
I1074239764
sL1635528231L
I1074244048
sL519424169L
I1074247164
sL1060788199L
I1074245548
sL406720601L
I1074238616
sL737694352L
I1074247520
sL503029138L
I1074247460
sL1616763831L
I1074248100
sL2262558768L
I1074247324
sL424867129L
I1074247848
sL3834155367L
I1074241256
sL3338518926L
I1074237408
sL2123938668L
I1074245968
sL3883282432L
I1074241800
sL4173399607L
I1074243164
sL1667054119L
I1074240444
sL206902443L
I1074237956
ssb.