ccopy_reg
_reconstructor
p0
(crizzo
RizzoSignature
p1
c__builtin__
object
p2
Ntp3
Rp4
(dp5
S'formal'
p6
(dp7
L3466312602L
I1074240012
sL2560588953L
I1074235812
sL1741170115L
I1074238076
sL3137685769L
I1074244192
sL867946411L
I1074235664
sL4229398023L
I1074248652
sL268856855L
I1074268884
sL2210513363L
I1074246996
sL2965918685L
I1074270016
sL3475801402L
I1074239980
sL1181169265L
I1074243280
sL2548947184L
I1074238096
sL3783234402L
I1074247292
sL2507404398L
I1074270636
sL3545118830L
I1074267756
sL1564580706L
I1074245328
sL4273451667L
I1074237140
sL2991275884L
I1074236884
sL2420455533L
I1074269700
sL2863282304L
I1074267139
sL2702580795L
I1074237440
sL4215361900L
I1074241704
sL2568602422L
I1074237772
sL4222010007L
I1074239492
sL612233294L
I1074238912
sL1437660804L
I1074244440
sL2896295319L
I1074236980
sL1112306294L
I1074240796
sL1073188812L
I1074235916
sL1674148343L
I1074245368
sL3876120887L
I1074239392
sL1803061063L
I1074245088
sL2058439413L
I1074235528
sL2485902447L
I1074236820
sL902150784L
I1074235712
sL2441030201L
I1074270200
sL308353321L
I1074269640
sL935715980L
I1074236644
sL2694490583L
I1074241160
sL3691354453L
I1074240348
sL48951736L
I1074238264
sL2657572914L
I1074248564
sL1585823442L
I1074244292
sL1622896354L
I1074244320
sL1825928331L
I1074237824
sL1100066510L
I1074269724
sL3129199843L
I1074235792
sL351311763L
I1074247244
sL2021586966L
I1074245672
sL3171431521L
I1074236496
sL3934645487L
I1074236952
sL2953397605L
I1074269372
sL326396954L
I1074242992
sL3388866956L
I1074269796
sL3007247178L
I1074238880
sL3092480211L
I1074244792
sL2968369001L
I1074242456
sL1685548274L
I1074245312
sL3307282855L
I1074238236
sL1091213196L
I1074242956
sL3951815938L
I1074244224
sL2038336498L
I1074244644
sL1043339424L
I1074240252
sL165672270L
I1074236844
sL7243517L
I1074245220
sL122587354L
I1074241216
sL1888032017L
I1074240328
sL2355917552L
I1074239016
sL3790692972L
I1074244480
sL4134277361L
I1074245600
sL3371457387L
I1074269768
sL4038945309L
I1074235480
sL4034710493L
I1074244852
sL130149475L
I1074235860
sL1341808985L
I1074240700
sL3876253865L
I1074238964
sL3635157259L
I1074236028
sL21429742L
I1074237052
sL361204269L
I1074238756
sL2140198974L
I1074246484
sL2997001746L
I1074237372
sL4010584764L
I1074246964
sL152949160L
I1074268644
sL1602802495L
I1074237084
sL36521114L
I1074241832
sL4033219551L
I1074269624
sL2819127986L
I1074237104
sL1449535964L
I1074247544
sL209135561L
I1074240504
sL3417544973L
I1074247156
sL1346776454L
I1074245248
sL2067115252L
I1074248264
sL1877634603L
I1074270876
sL2411516799L
I1074235772
sL256127874L
I1074270796
sL3016363266L
I1074244508
sL1212444302L
I1074240968
sL1225633219L
I1074245644
sL1920715700L
I1074245064
sL675086575L
I1074237548
sL298949637L
I1074238672
sL1714903023L
I1074241612
sL3109370253L
I1074269968
sL2263182908L
I1074238256
sL3249738345L
I1074236676
sL3586920208L
I1074236740
sL1267159130L
I1074235136
sL4251326136L
I1074245460
sL2768539098L
I1074247352
sL162394483L
I1074248400
sL2925091974L
I1074243876
sL3630163135L
I1074236968
sL188664287L
I1074235104
sL3670064932L
I1074268588
sL149874699L
I1074238344
sL692536993L
I1074237412
sL1166396770L
I1074246528
sL1963047656L
I1074234624
sL3180973683L
I1074240716
sL995413944L
I1074240740
sL217496090L
I1074245040
sL4183040676L
I1074239704
sL2950269736L
I1074267976
sL1636616062L
I1074235428
sL1320143707L
I1074269932
sL2518607080L
I1074237516
sL586403589L
I1074244392
sL925615580L
I1074244912
sL3322869492L
I1074235752
sL1978364433L
I1074245788
sL3018942732L
I1074267648
sL677806744L
I1074235688
ssS'immediates'
p8
(dp9
sS'formaldups'
p10
c__builtin__
set
p11
((lp12
tp13
Rp14
sS'stringdups'
p15
g11
((lp16
tp17
Rp18
sS'fuzzydups'
p19
g11
((lp20
tp21
Rp22
sS'strings'
p23
(dp24
sS'functions'
p25
(dp26
I1074236676
(Vesp_rom_uart_tx_wait_idle
p27
(lp28
(L851904350L
L0L
(lp29
(lp30
tp31
a(L1301079727L
L0L
(lp32
(lp33
tp34
a(L3597746521L
L0L
(lp35
(lp36
tp37
a(L3694491048L
L0L
(lp38
(lp39
tp40
a(L3055926844L
L0L
(lp41
(lp42
tp43
a(L3360570486L
L0L
(lp44
(lp45
tp46
atp47
sI1074239492
(Vbootloader_utility_load_partition_table
p48
(lp49
(L3128219304L
L3785322319L
(lp50
(lp51
Vbootloader_mmap
p52
atp53
a(L1515102307L
L3785322319L
(lp54
(lp55
Vesp_log_early_timestamp
p56
atp57
a(L2258688482L
L0L
(lp58
(lp59
tp60
a(L3360570486L
L0L
(lp61
(lp62
tp63
a(L255479872L
L3785322319L
(lp64
(lp65
Vesp_partition_table_verify
p66
atp67
a(L1224062835L
L0L
(lp68
(lp69
tp70
a(L3761768803L
L0L
(lp71
(lp72
tp73
a(L2311047843L
L3785322319L
(lp74
(lp75
Vbootloader_munmap
p76
atp77
a(L722649001L
L3785322319L
(lp78
(lp79
Vesp_log_early_timestamp
p80
atp81
a(L3927622121L
L0L
(lp82
(lp83
tp84
a(L3020187L
L0L
(lp85
(lp86
tp87
a(L1532853611L
L0L
(lp88
(lp89
tp90
a(L1036489382L
L0L
(lp91
(lp92
tp93
a(L3020187L
L0L
(lp94
(lp95
tp96
a(L475586725L
L0L
(lp97
(lp98
tp99
a(L529263765L
L0L
(lp100
(lp101
tp102
a(L775434204L
L0L
(lp103
(lp104
tp105
a(L3579705151L
L0L
(lp106
(lp107
tp108
a(L2387139071L
L0L
(lp109
(lp110
tp111
a(L1599920163L
L0L
(lp112
(lp113
tp114
atp115
sI1074237440
(Vbootloader_common_select_otadata
p116
(lp117
(L4071767857L
L0L
(lp118
(lp119
tp120
a(L1999329187L
L0L
(lp121
(lp122
tp123
a(L3846398843L
L0L
(lp124
(lp125
tp126
a(L2501968171L
L0L
(lp127
(lp128
tp129
a(L3360570486L
L0L
(lp130
(lp131
tp132
a(L2045232488L
L0L
(lp133
(lp134
tp135
a(L1243525916L
L0L
(lp136
(lp137
tp138
a(L3094144427L
L0L
(lp139
(lp140
tp141
a(L2399509845L
L0L
(lp142
(lp143
tp144
a(L1641201884L
L0L
(lp145
(lp146
tp147
atp148
sI1074234624
(Vbootloader_flash_execute_command_common
p149
(lp150
(L3865052895L
L0L
(lp151
(lp152
tp153
a(L120556223L
L0L
(lp154
(lp155
tp156
a(L2890397610L
L3785322319L
(lp157
(lp158
V__assert_func
p159
atp160
a(L3021749L
L0L
(lp161
(lp162
tp163
a(L153203357L
L0L
(lp164
(lp165
tp166
a(L3967919202L
L0L
(lp167
(lp168
tp169
a(L2091933878L
L0L
(lp170
(lp171
tp172
a(L1702379862L
L0L
(lp173
(lp174
tp175
a(L2587060668L
L0L
(lp176
(lp177
tp178
a(L817326211L
L0L
(lp179
(lp180
tp181
a(L3244449450L
L0L
(lp182
(lp183
tp184
a(L3855586684L
L0L
(lp185
(lp186
tp187
a(L2990329343L
L0L
(lp188
(lp189
tp190
a(L2557390060L
L0L
(lp191
(lp192
tp193
a(L3333696662L
L0L
(lp194
(lp195
tp196
a(L963425213L
L0L
(lp197
(lp198
tp199
a(L339491738L
L0L
(lp200
(lp201
tp202
a(L3360570486L
L0L
(lp203
(lp204
tp205
atp206
sI1074235136
(Vbootloader_flash_unlock
p207
(lp208
(L2851757134L
L3785322319L
(lp209
(lp210
Vesp_rom_spiflash_wait_idle
p211
atp212
a(L4212373562L
L0L
(lp213
(lp214
tp215
a(L4292483033L
L3785322319L
(lp216
(lp217
Vbootloader_execute_flash_command
p218
atp219
a(L106L
L0L
(lp220
(lp221
tp222
a(L1303560644L
L0L
(lp223
(lp224
tp225
a(L610618440L
L0L
(lp226
(lp227
tp228
a(L106L
L0L
(lp229
(lp230
tp231
a(L345249462L
L0L
(lp232
(lp233
tp234
a(L106L
L0L
(lp235
(lp236
tp237
a(L1024465569L
L0L
(lp238
(lp239
tp240
a(L106L
L0L
(lp241
(lp242
tp243
a(L1481761147L
L1880226080L
(lp244
(lp245
Vbootloader_execute_flash_command
p246
aVbootloader_execute_flash_command
p247
atp248
a(L2258807654L
L0L
(lp249
(lp250
tp251
a(L489806350L
L1832448559L
(lp252
(lp253
Vesp_rom_spiflash_wait_idle
p254
aVbootloader_execute_flash_command
p255
aVbootloader_execute_flash_command
p256
atp257
a(L879744646L
L1832448559L
(lp258
(lp259
Vesp_rom_spiflash_wait_idle
p260
aVbootloader_execute_flash_command
p261
aVbootloader_execute_flash_command
p262
atp263
a(L1840772931L
L1880226080L
(lp264
(lp265
Vesp_rom_spiflash_wait_idle
p266
aVbootloader_execute_flash_command
p267
atp268
a(L2993202392L
L0L
(lp269
(lp270
tp271
a(L508800419L
L1880226080L
(lp272
(lp273
Vbootloader_execute_flash_command
p274
aVbootloader_execute_flash_command
p275
atp276
a(L1303560369L
L0L
(lp277
(lp278
tp279
a(L1596544945L
L0L
(lp280
(lp281
tp282
a(L97689L
L0L
(lp283
(lp284
tp285
a(L106L
L0L
(lp286
(lp287
tp288
atp289
sI1074267136
(V_init
p290
(lp291
(L3493042598L
L0L
(lp292
(lp293
tp294
atp295
sI1074267648
(Vcall_start_cpu0
p296
(lp297
(L1137852827L
L0L
(lp298
(lp299
tp300
a(L549459388L
L0L
(lp301
(lp302
tp303
a(L3212347974L
L3785322319L
(lp304
(lp305
Vbootloader_init
p306
atp307
a(L94425498L
L3785322319L
(lp308
(lp309
Vbootloader_reset
p310
atp311
a(L1122046408L
L0L
(lp312
(lp313
tp314
a(L4099474112L
L0L
(lp315
(lp316
tp317
a(L3015046664L
L3785322319L
(lp318
(lp319
Vbootloader_utility_load_partition_table
p320
atp321
a(L2761094216L
L3785322319L
(lp322
(lp323
Vesp_log_early_timestamp
p324
atp325
a(L405422123L
L3785322319L
(lp326
(lp327
Vbootloader_utility_get_selected_boot_partition
p328
atp329
a(L2055385849L
L3785322319L
(lp330
(lp331
Vbootloader_utility_load_boot_image
p332
atp333
atp334
sI1074240012
(Vbootloader_utility_load_boot_image
p335
(lp336
(L3385398614L
L0L
(lp337
(lp338
tp339
a(L2177418995L
L3785322319L
(lp340
(lp341
Vtry_load_partition
p342
atp343
a(L1305243774L
L3785322319L
(lp344
(lp345
Vload_image
p346
atp347
a(L1044617899L
L3785322319L
(lp348
(lp349
Vesp_log_early_timestamp
p350
atp351
a(L3827921190L
L3785322319L
(lp352
(lp353
Vbootloader_reset
p354
atp355
a(L1953693036L
L3785322319L
(lp356
(lp357
Vindex_to_partition
p358
atp359
a(L1204373741L
L3785322319L
(lp360
(lp361
Vtry_load_partition
p362
atp363
a(L1899865696L
L0L
(lp364
(lp365
tp366
a(L2695355117L
L3785322319L
(lp367
(lp368
Vset_actual_ota_seq
p369
atp370
a(L1868897605L
L3785322319L
(lp371
(lp372
Vlog_invalid_app_partition
p373
atp374
a(L831650730L
L0L
(lp375
(lp376
tp377
a(L3021737L
L0L
(lp378
(lp379
tp380
a(L695456438L
L0L
(lp381
(lp382
tp383
a(L1148002536L
L3785322319L
(lp384
(lp385
Vtry_load_partition
p386
atp387
a(L4209416875L
L3785322319L
(lp388
(lp389
Vesp_log_early_timestamp
p390
atp391
a(L2347390157L
L3785322319L
(lp392
(lp393
Vindex_to_partition
p394
atp395
a(L1204373741L
L3785322319L
(lp396
(lp397
Vtry_load_partition
p398
atp399
a(L3061261803L
L0L
(lp400
(lp401
tp402
a(L3582858798L
L3785322319L
(lp403
(lp404
Vlog_invalid_app_partition
p405
atp406
a(L2304493599L
L3785322319L
(lp407
(lp408
Vesp_log_early_timestamp
p409
atp410
atp411
sI1074235916
(Vbootloader_flash_cs_timing_config
p412
(lp413
(L3246590744L
L0L
(lp414
(lp415
tp416
atp417
sI1074245644
(Vrtc_clk_apb_freq_update
p418
(lp419
(L648133901L
L0L
(lp420
(lp421
tp422
atp423
sI1074267139
(V_text_start
p424
(lp425
(L1817914933L
L0L
(lp426
(lp427
tp428
a(L93892250L
L0L
(lp429
(lp430
tp431
atp432
sI1074269700
(Vbootloader_clear_bss_section
p433
(lp434
(L1035474915L
L0L
(lp435
(lp436
tp437
atp438
sI1074240788
(Vbootloader_ana_clock_glitch_reset_config
p439
(lp440
(L2100504542L
L0L
(lp441
(lp442
tp443
atp444
sI1074269724
(Vbootloader_read_bootloader_header
p445
(lp446
(L2653072919L
L3785322319L
(lp447
(lp448
Vbootloader_flash_read
p449
atp450
a(L359550834L
L3785322319L
(lp451
(lp452
Vesp_log_early_timestamp
p453
atp454
a(L735741265L
L0L
(lp455
(lp456
tp457
atp458
sI1074235664
(Vbootloader_read_status_8b_rdsr
p459
(lp460
(L1945786777L
L3785322319L
(lp461
(lp462
Vbootloader_execute_flash_command
p463
atp464
atp465
sI1074269968
(Vesp_cpu_configure_region_protection
p466
(lp467
(L3630570892L
L0L
(lp468
(lp469
tp470
a(L180431425L
L3785322319L
(lp471
(lp472
Vmpu_hal_set_region_access
p473
atp474
a(L2537388152L
L3785322319L
(lp475
(lp476
Vmpu_hal_set_region_access
p477
atp478
atp479
sI1074240796
(Vprocess_checksum
p480
(lp481
(L3552259966L
L0L
(lp482
(lp483
tp484
a(L2910371777L
L0L
(lp485
(lp486
tp487
a(L186886970L
L0L
(lp488
(lp489
tp490
a(L2910371777L
L0L
(lp491
(lp492
tp493
a(L3020204L
L0L
(lp494
(lp495
tp496
a(L2480703612L
L3785322319L
(lp497
(lp498
Vbootloader_sha256_data
p499
atp500
a(L4179073442L
L0L
(lp501
(lp502
tp503
a(L1811888222L
L3785322319L
(lp504
(lp505
Vbootloader_flash_read
p506
atp507
a(L3126521138L
L0L
(lp508
(lp509
tp510
a(L2878945149L
L0L
(lp511
(lp512
tp513
a(L1600144040L
L3785322319L
(lp514
(lp515
Vesp_log_early_timestamp
p516
atp517
atp518
sI1074238236
(Vbootloader_enable_wp
p519
(lp520
(L1117825804L
L3785322319L
(lp521
(lp522
Vbootloader_execute_flash_command
p523
atp524
atp525
sI1074236952
(Vefuse_hal_get_minor_chip_version
p526
(lp527
(L3957579839L
L0L
(lp528
(lp529
tp530
atp531
sI1074235428
(Vbootloader_flash_read_sfdp
p532
(lp533
(L711701400L
L0L
(lp534
(lp535
tp536
a(L3178612724L
L3785322319L
(lp537
(lp538
V__assert_func
p539
atp540
a(L3704332455L
L3785322319L
(lp541
(lp542
Vbootloader_flash_execute_command_common
p543
atp544
atp545
sI1074238756
(Vcache_ll_l1_get_bus
p546
(lp547
(L2721956783L
L0L
(lp548
(lp549
tp550
a(L94425498L
L3785322319L
(lp551
(lp552
Vabort
p553
atp554
a(L3175393928L
L0L
(lp555
(lp556
tp557
a(L1799159593L
L0L
(lp558
(lp559
tp560
a(L892952750L
L0L
(lp561
(lp562
tp563
a(L1182811810L
L0L
(lp564
(lp565
tp566
a(L1101742417L
L0L
(lp567
(lp568
tp569
a(L1100767927L
L0L
(lp570
(lp571
tp572
a(L3360570486L
L0L
(lp573
(lp574
tp575
a(L2727400564L
L0L
(lp576
(lp577
tp578
a(L892952750L
L0L
(lp579
(lp580
tp581
a(L2258688482L
L0L
(lp582
(lp583
tp584
a(L1802308380L
L0L
(lp585
(lp586
tp587
a(L2258718273L
L0L
(lp588
(lp589
tp590
a(L2938197270L
L0L
(lp591
(lp592
tp593
a(L2767111967L
L0L
(lp594
(lp595
tp596
a(L2748646817L
L0L
(lp597
(lp598
tp599
a(L1641149277L
L0L
(lp600
(lp601
tp602
a(L3207711893L
L0L
(lp603
(lp604
tp605
a(L3027019L
L0L
(lp606
(lp607
tp608
a(L1299866560L
L0L
(lp609
(lp610
tp611
a(L1299866436L
L0L
(lp612
(lp613
tp614
atp615
sI1074243876
(Vwdt_hal_config_stage
p616
(lp617
(L331558507L
L0L
(lp618
(lp619
tp620
a(L4279082939L
L0L
(lp621
(lp622
tp623
a(L93674324L
L0L
(lp624
(lp625
tp626
a(L2902417580L
L0L
(lp627
(lp628
tp629
a(L1396645752L
L0L
(lp630
(lp631
tp632
a(L3020187L
L0L
(lp633
(lp634
tp635
a(L94425498L
L3785322319L
(lp636
(lp637
Vabort
p638
atp639
a(L2161461704L
L0L
(lp640
(lp641
tp642
a(L3360570486L
L0L
(lp643
(lp644
tp645
a(L1457248181L
L0L
(lp646
(lp647
tp648
a(L1968552594L
L0L
(lp649
(lp650
tp651
a(L4278159418L
L0L
(lp652
(lp653
tp654
a(L93674324L
L0L
(lp655
(lp656
tp657
a(L3020204L
L0L
(lp658
(lp659
tp660
a(L1936393611L
L0L
(lp661
(lp662
tp663
a(L3020187L
L0L
(lp664
(lp665
tp666
a(L106L
L0L
(lp667
(lp668
tp669
a(L584867514L
L0L
(lp670
(lp671
tp672
a(L291899814L
L0L
(lp673
(lp674
tp675
a(L3686040579L
L0L
(lp676
(lp677
tp678
atp679
sI1074244644
(Vrtc_clk_cpu_freq_to_pll_mhz
p680
(lp681
(L1441168312L
L0L
(lp682
(lp683
tp684
a(L3298441904L
L0L
(lp685
(lp686
tp687
a(L3680579786L
L0L
(lp688
(lp689
tp690
a(L1298905564L
L0L
(lp691
(lp692
tp693
a(L1841883306L
L3785322319L
(lp694
(lp695
Vrtc_clk_wait_for_slow_cycle
p696
atp697
a(L1611366957L
L0L
(lp698
(lp699
tp700
a(L1611366988L
L0L
(lp701
(lp702
tp703
a(L94425498L
L3785322319L
(lp704
(lp705
Vabort
p706
atp707
atp708
sI1074239016
(Vload_image
p709
(lp710
(L4278320029L
L1880226080L
(lp711
(lp712
Vbootloader_random_disable
p713
aVbootloader_ana_clock_glitch_reset_config
p714
atp715
a(L3893505478L
L0L
(lp716
(lp717
tp718
a(L106L
L0L
(lp719
(lp720
tp721
a(L134254403L
L3758435744L
(lp722
(lp723
Vmmu_hal_init
p724
aVcache_ll_l1_get_bus
p725
aVcache_ll_l1_enable_bus
p726
aVcache_ll_l1_get_bus
p727
aVcache_ll_l1_enable_bus
p728
aVcache_ll_l1_get_bus
p729
aVcache_ll_l1_enable_bus
p730
aVcache_ll_l1_get_bus
p731
aVcache_ll_l1_enable_bus
p732
aVbootloader_console_deinit
p733
atp734
a(L2366773478L
L0L
(lp735
(lp736
tp737
a(L2902417580L
L0L
(lp738
(lp739
tp740
a(L3875934016L
L3785322319L
(lp741
(lp742
Vesp_log_early_timestamp
p743
atp744
a(L3455620645L
L0L
(lp745
(lp746
tp747
a(L3193235534L
L0L
(lp748
(lp749
tp750
a(L3020204L
L0L
(lp751
(lp752
tp753
a(L1435312257L
L3785322319L
(lp754
(lp755
Vesp_log_early_timestamp
p756
atp757
a(L3093629574L
L0L
(lp758
(lp759
tp760
a(L4254185231L
L0L
(lp761
(lp762
tp763
atp764
sI1074236968
(Vesp_dport_access_reg_read
p765
(lp766
(L1099794772L
L0L
(lp767
(lp768
tp769
atp770
sI1074235688
(Vbootloader_read_status_8b_rdsr2
p771
(lp772
(L3746738790L
L3785322319L
(lp773
(lp774
Vbootloader_execute_flash_command
p775
atp776
atp777
sI1074241832
(Vprocess_segments
p778
(lp779
(L933567253L
L0L
(lp780
(lp781
tp782
a(L3285816417L
L0L
(lp783
(lp784
tp785
a(L2393526353L
L0L
(lp786
(lp787
tp788
a(L106L
L0L
(lp789
(lp790
tp791
a(L1184913234L
L0L
(lp792
(lp793
tp794
a(L2736779935L
L3785322319L
(lp795
(lp796
Vesp_log_early_timestamp
p797
atp798
a(L3491764960L
L3785322319L
(lp799
(lp800
Vbootloader_flash_read
p801
atp802
a(L1653769193L
L3785322319L
(lp803
(lp804
Vesp_log_early_timestamp
p805
atp806
a(L3871473710L
L0L
(lp807
(lp808
tp809
a(L1300630146L
L0L
(lp810
(lp811
tp812
a(L738857969L
L3785322319L
(lp813
(lp814
Vbootloader_sha256_data
p815
atp816
a(L3124001501L
L0L
(lp817
(lp818
tp819
a(L970949301L
L0L
(lp820
(lp821
tp822
a(L1810082356L
L0L
(lp823
(lp824
tp825
a(L4129104017L
L0L
(lp826
(lp827
tp828
a(L106L
L0L
(lp829
(lp830
tp831
a(L141486068L
L0L
(lp832
(lp833
tp834
a(L2587042390L
L0L
(lp835
(lp836
tp837
a(L3300823766L
L3785322319L
(lp838
(lp839
Vesp_log_early_timestamp
p840
atp841
a(L1114137787L
L0L
(lp842
(lp843
tp844
a(L568212210L
L0L
(lp845
(lp846
tp847
a(L2367927115L
L3785322319L
(lp848
(lp849
Vesp_log_early_timestamp
p850
atp851
a(L2347770645L
L3785322319L
(lp852
(lp853
Vverify_load_addresses
p854
atp855
a(L106L
L0L
(lp856
(lp857
tp858
a(L299546812L
L0L
(lp859
(lp860
tp861
a(L262831199L
L0L
(lp862
(lp863
tp864
a(L3735077394L
L3785322319L
(lp865
(lp866
Vbootloader_mmap
p867
atp868
a(L1810465914L
L3785322319L
(lp869
(lp870
Vesp_log_early_timestamp
p871
atp872
a(L1911351716L
L0L
(lp873
(lp874
tp875
a(L4205828899L
L0L
(lp876
(lp877
tp878
a(L1652679798L
L3785322319L
(lp879
(lp880
Vbootloader_munmap
p881
atp882
a(L3425676091L
L0L
(lp883
(lp884
tp885
a(L1782223905L
L3785322319L
(lp886
(lp887
Vbootloader_fill_random
p888
atp889
a(L3570641403L
L0L
(lp890
(lp891
tp892
a(L3574335487L
L0L
(lp893
(lp894
tp895
a(L3450268858L
L0L
(lp896
(lp897
tp898
a(L3021749L
L0L
(lp899
(lp900
tp901
a(L4179164843L
L0L
(lp902
(lp903
tp904
a(L1084626871L
L0L
(lp905
(lp906
tp907
a(L2902417580L
L0L
(lp908
(lp909
tp910
a(L167783179L
L0L
(lp911
(lp912
tp913
a(L1797921642L
L0L
(lp914
(lp915
tp916
a(L3437071223L
L0L
(lp917
(lp918
tp919
a(L3396129621L
L0L
(lp920
(lp921
tp922
a(L670934548L
L0L
(lp923
(lp924
tp925
a(L363643669L
L3785322319L
(lp926
(lp927
Vbootloader_sha256_data
p928
atp929
a(L90548756L
L0L
(lp930
(lp931
tp932
a(L4195963580L
L0L
(lp933
(lp934
tp935
a(L2394204398L
L0L
(lp936
(lp937
tp938
a(L617933722L
L0L
(lp939
(lp940
tp941
a(L308896050L
L3785322319L
(lp942
(lp943
Vshould_load
p944
atp945
a(L630320211L
L0L
(lp946
(lp947
tp948
a(L3028481L
L0L
(lp949
(lp950
tp951
a(L2176699418L
L3785322319L
(lp952
(lp953
Vbootloader_mmap_get_free_pages
p954
atp955
a(L847230985L
L0L
(lp956
(lp957
tp958
a(L3103552037L
L0L
(lp959
(lp960
tp961
atp962
sI1074244392
(Vmmu_hal_init
p963
(lp964
(L2805587975L
L0L
(lp965
(lp966
tp967
a(L2010554219L
L0L
(lp968
(lp969
tp970
a(L3268103L
L0L
(lp971
(lp972
tp973
a(L3212334523L
L0L
(lp974
(lp975
tp976
a(L2010554219L
L0L
(lp977
(lp978
tp979
a(L3360570486L
L0L
(lp980
(lp981
tp982
atp983
sI1074245672
(Vrtc_clk_cpu_freq_to_xtal
p984
(lp985
(L3046116771L
L0L
(lp986
(lp987
tp988
a(L94425498L
L3785322319L
(lp989
(lp990
Vabort
p991
atp992
a(L623998474L
L3785322319L
(lp993
(lp994
Vrtc_clk_apb_freq_update
p995
atp996
a(L2258867232L
L0L
(lp997
(lp998
tp999
a(L1438407065L
L0L
(lp1000
(lp1001
tp1002
atp1003
sI1074236980
(Vis_xmc_chip_strict
p1004
(lp1005
(L1286841609L
L0L
(lp1006
(lp1007
tp1008
a(L2234016759L
L0L
(lp1009
(lp1010
tp1011
a(L1069027148L
L0L
(lp1012
(lp1013
tp1014
a(L3021749L
L0L
(lp1015
(lp1016
tp1017
a(L1900148749L
L0L
(lp1018
(lp1019
tp1020
a(L1936875721L
L0L
(lp1021
(lp1022
tp1023
a(L3356166509L
L0L
(lp1024
(lp1025
tp1026
a(L1937769451L
L0L
(lp1027
(lp1028
tp1029
a(L2137658907L
L0L
(lp1030
(lp1031
tp1032
a(L4265949734L
L0L
(lp1033
(lp1034
tp1035
a(L3360570486L
L0L
(lp1036
(lp1037
tp1038
atp1039
sI1074246964
(Vrtc_clk_cal_ratio
p1040
(lp1041
(L3533138594L
L3785322319L
(lp1042
(lp1043
Vrtc_clk_cal_internal
p1044
atp1045
atp1046
sI1074244912
(Vrtc_clk_8m_enable
p1047
(lp1048
(L1116980035L
L0L
(lp1049
(lp1050
tp1051
a(L611813754L
L0L
(lp1052
(lp1053
tp1054
a(L2151320156L
L0L
(lp1055
(lp1056
tp1057
a(L2771285420L
L0L
(lp1058
(lp1059
tp1060
a(L3360570486L
L0L
(lp1061
(lp1062
tp1063
a(L1318267208L
L0L
(lp1064
(lp1065
tp1066
a(L2584494103L
L0L
(lp1067
(lp1068
tp1069
atp1070
sI1074238256
(Vbootloader_mmap_get_free_pages
p1071
(lp1072
(L1496516875L
L0L
(lp1073
(lp1074
tp1075
atp1076
sI1074238264
(Vbootloader_fill_random
p1077
(lp1078
(L387180576L
L0L
(lp1079
(lp1080
tp1081
a(L2924486945L
L3785322319L
(lp1082
(lp1083
V__assert_func
p1084
atp1085
a(L1882547218L
L0L
(lp1086
(lp1087
tp1088
a(L2910371777L
L0L
(lp1089
(lp1090
tp1091
a(L95634693L
L0L
(lp1092
(lp1093
tp1094
a(L3630908706L
L0L
(lp1095
(lp1096
tp1097
a(L160162640L
L0L
(lp1098
(lp1099
tp1100
a(L97689L
L0L
(lp1101
(lp1102
tp1103
a(L3360570486L
L0L
(lp1104
(lp1105
tp1106
atp1107
sI1074267976
(Vbootloader_init
p1108
(lp1109
(L1256100286L
L3785322319L
(lp1110
(lp1111
Vbootloader_init_mem
p1112
atp1113
a(L2496550926L
L0L
(lp1114
(lp1115
tp1116
a(L2027378118L
L3785322319L
(lp1117
(lp1118
V__assert_func
p1119
atp1120
a(L408886226L
L0L
(lp1121
(lp1122
tp1123
a(L3771730718L
L0L
(lp1124
(lp1125
tp1126
a(L3813782018L
L0L
(lp1127
(lp1128
tp1129
a(L1676258143L
L0L
(lp1130
(lp1131
tp1132
a(L3027019L
L0L
(lp1133
(lp1134
tp1135
a(L2165555555L
L0L
(lp1136
(lp1137
tp1138
a(L1797062121L
L1832448559L
(lp1139
(lp1140
Vbootloader_clear_bss_section
p1141
aVbootloader_common_vddsdio_configure
p1142
aVbootloader_clock_get_rated_freq_mhz
p1143
atp1144
a(L3987130017L
L1157885199L
(lp1145
(lp1146
Vbootloader_clock_configure
p1147
aVbootloader_console_init
p1148
aVbootloader_print_banner
p1149
aVbootloader_flash_update_id
p1150
aVbootloader_flash_xmc_startup
p1151
atp1152
a(L1371217416L
L3785322319L
(lp1153
(lp1154
Vesp_log_early_timestamp
p1155
atp1156
a(L2835491336L
L3785322319L
(lp1157
(lp1158
Vesp_log_early_timestamp
p1159
atp1160
a(L3360570486L
L0L
(lp1161
(lp1162
tp1163
a(L2444883382L
L3785322319L
(lp1164
(lp1165
Vbootloader_read_bootloader_header
p1166
atp1167
a(L2444883382L
L3785322319L
(lp1168
(lp1169
Vbootloader_check_bootloader_validity
p1170
atp1171
a(L2859758235L
L1157885199L
(lp1172
(lp1173
Vbootloader_flash_gpio_config
p1174
aVbootloader_flash_dummy_config
p1175
aVbootloader_flash_cs_timing_config
p1176
aVbootloader_flash_unlock
p1177
aVbootloader_enable_qio_mode
p1178
atp1179
a(L93837694L
L0L
(lp1180
(lp1181
tp1182
a(L106L
L0L
(lp1183
(lp1184
tp1185
a(L3226039662L
L0L
(lp1186
(lp1187
tp1188
a(L1265057524L
L0L
(lp1189
(lp1190
tp1191
a(L2806354006L
L0L
(lp1192
(lp1193
tp1194
a(L2991536781L
L3785322319L
(lp1195
(lp1196
Vbootloader_enable_wp
p1197
atp1198
a(L378895346L
L0L
(lp1199
(lp1200
tp1201
a(L1895147922L
L0L
(lp1202
(lp1203
tp1204
a(L3457636795L
L3785322319L
(lp1205
(lp1206
Vesp_log_early_timestamp
p1207
atp1208
a(L1837681143L
L0L
(lp1209
(lp1210
tp1211
a(L1873516030L
L0L
(lp1212
(lp1213
tp1214
a(L1895147922L
L0L
(lp1215
(lp1216
tp1217
a(L14182512L
L3785322319L
(lp1218
(lp1219
Vesp_log_early_timestamp
p1220
atp1221
a(L4263191691L
L1880226080L
(lp1222
(lp1223
Vwdt_reset_info_dump
p1224
aVwdt_reset_info_dump
p1225
atp1226
a(L385083117L
L0L
(lp1227
(lp1228
tp1229
a(L3028481L
L0L
(lp1230
(lp1231
tp1232
a(L2920982674L
L1880226080L
(lp1233
(lp1234
Vbootloader_config_wdt
p1235
aVbootloader_enable_random
p1236
atp1237
atp1238
sI1074269768
(Vbootloader_check_bootloader_validity
p1239
(lp1240
(L1977038998L
L1880226080L
(lp1241
(lp1242
Vefuse_hal_chip_revision
p1243
aVbootloader_common_check_chip_validity
p1244
atp1245
atp1246
sI1074236740
(Vesp_rom_uart_set_clock_baudrate
p1247
(lp1248
(L4126646115L
L0L
(lp1249
(lp1250
tp1251
a(L2295271583L
L0L
(lp1252
(lp1253
tp1254
a(L2805931260L
L0L
(lp1255
(lp1256
tp1257
a(L3255937187L
L0L
(lp1258
(lp1259
tp1260
atp1261
sI1074270796
(Vrtc_vddsdio_set_config
p1262
(lp1263
(L1525543098L
L0L
(lp1264
(lp1265
tp1266
atp1267
sI1074240320
(Vbootloader_debug_buffer
p1268
(lp1269
(L2100504542L
L0L
(lp1270
(lp1271
tp1272
atp1273
sI1074235712
(Vbootloader_read_status_16b_rdsr_rdsr2
p1274
(lp1275
(L2652824119L
L1880226080L
(lp1276
(lp1277
Vbootloader_execute_flash_command
p1278
aVbootloader_execute_flash_command
p1279
atp1280
atp1281
sI1074270016
(Vrtc_clk_xtal_freq_estimate
p1282
(lp1283
(L3845076426L
L1880226080L
(lp1284
(lp1285
Vrtc_clk_8m_enabled
p1286
aVrtc_clk_8md256_enabled
p1287
atp1288
a(L2449794434L
L3785322319L
(lp1289
(lp1290
Vrtc_clk_8m_enable
p1291
atp1292
a(L558275025L
L3785322319L
(lp1293
(lp1294
Vrtc_clk_cal_ratio
p1295
atp1296
a(L1894802584L
L0L
(lp1297
(lp1298
tp1299
a(L1915120046L
L0L
(lp1300
(lp1301
tp1302
a(L2740879690L
L0L
(lp1303
(lp1304
tp1305
a(L1059750288L
L3785322319L
(lp1306
(lp1307
Vrtc_clk_8m_enable
p1308
atp1309
a(L1559246193L
L3785322319L
(lp1310
(lp1311
Vesp_log_early_timestamp
p1312
atp1313
a(L2894376164L
L0L
(lp1314
(lp1315
tp1316
a(L1641150486L
L0L
(lp1317
(lp1318
tp1319
a(L2127476427L
L3785322319L
(lp1320
(lp1321
Vesp_log_early_timestamp
p1322
atp1323
a(L3702092594L
L3785322319L
(lp1324
(lp1325
Vesp_log_early_timestamp
p1326
atp1327
atp1328
sI1074237772
(Vbootloader_munmap
p1329
(lp1330
(L1390725234L
L0L
(lp1331
(lp1332
tp1333
a(L1679328888L
L0L
(lp1334
(lp1335
tp1336
a(L3360570486L
L0L
(lp1337
(lp1338
tp1339
atp1340
sI1074237516
(Vspi_to_esp_err
p1341
(lp1342
(L3481169892L
L0L
(lp1343
(lp1344
tp1345
a(L2420870439L
L0L
(lp1346
(lp1347
tp1348
a(L3952441574L
L0L
(lp1349
(lp1350
tp1351
a(L3126521138L
L0L
(lp1352
(lp1353
tp1354
atp1355
sI1074241612
(Vprocess_appended_hash_and_sig
p1356
(lp1357
(L1668084157L
L0L
(lp1358
(lp1359
tp1360
a(L2910371777L
L0L
(lp1361
(lp1362
tp1363
a(L1591589631L
L0L
(lp1364
(lp1365
tp1366
a(L2551256078L
L0L
(lp1367
(lp1368
tp1369
a(L3884046905L
L0L
(lp1370
(lp1371
tp1372
a(L4226069968L
L3785322319L
(lp1373
(lp1374
Vesp_log_early_timestamp
p1375
atp1376
a(L2268304300L
L3785322319L
(lp1377
(lp1378
Vbootloader_flash_read
p1379
atp1380
a(L3871473710L
L0L
(lp1381
(lp1382
tp1383
atp1384
sI1074247244
(Vesp_rom_spiflash_wait_idle
p1385
(lp1386
(L3233075887L
L0L
(lp1387
(lp1388
tp1389
a(L2023766174L
L0L
(lp1390
(lp1391
tp1392
a(L2805933868L
L0L
(lp1393
(lp1394
tp1395
a(L3086959262L
L0L
(lp1396
(lp1397
tp1398
a(L4161019926L
L3785322319L
(lp1399
(lp1400
Vesp_rom_spiflash_read_status
p1401
atp1402
atp1403
sI1074240328
(Vbootloader_sha256_start
p1404
(lp1405
(L1535180675L
L0L
(lp1406
(lp1407
tp1408
atp1409
sI1074248264
(Vesp_rom_spiflash_erase_sector
p1410
(lp1411
(L1049889940L
L0L
(lp1412
(lp1413
tp1414
a(L2258688483L
L0L
(lp1415
(lp1416
tp1417
a(L3360570486L
L0L
(lp1418
(lp1419
tp1420
a(L3212356251L
L3785322319L
(lp1421
(lp1422
Vesp_rom_spiflash_enable_write
p1423
atp1424
a(L184152988L
L0L
(lp1425
(lp1426
tp1427
a(L4160132229L
L3785322319L
(lp1428
(lp1429
Vesp_rom_spiflash_wait_idle
p1430
atp1431
a(L3333707777L
L0L
(lp1432
(lp1433
tp1434
a(L3582858798L
L3785322319L
(lp1435
(lp1436
Vesp_rom_spiflash_wait_idle
p1437
atp1438
atp1439
sI1074245460
(Vrtc_clk_cpu_freq_get_config
p1440
(lp1441
(L1549246068L
L0L
(lp1442
(lp1443
tp1444
a(L3020187L
L0L
(lp1445
(lp1446
tp1447
a(L3020187L
L0L
(lp1448
(lp1449
tp1450
a(L894730048L
L3785322319L
(lp1451
(lp1452
Vrtc_clk_xtal_freq_get
p1453
atp1454
a(L3789795478L
L0L
(lp1455
(lp1456
tp1457
a(L583711929L
L1880226080L
(lp1458
(lp1459
Vesp_log_early_timestamp
p1460
aVabort
p1461
atp1462
a(L3930995869L
L0L
(lp1463
(lp1464
tp1465
a(L3020187L
L0L
(lp1466
(lp1467
tp1468
a(L3028481L
L0L
(lp1469
(lp1470
tp1471
a(L38508693L
L0L
(lp1472
(lp1473
tp1474
a(L187152368L
L0L
(lp1475
(lp1476
tp1477
a(L1161083655L
L0L
(lp1478
(lp1479
tp1480
a(L1395485899L
L0L
(lp1481
(lp1482
tp1483
a(L2070600034L
L0L
(lp1484
(lp1485
tp1486
atp1487
sI1074246484
(Vrtc_clk_apb_freq_get
p1488
(lp1489
(L555214938L
L0L
(lp1490
(lp1491
tp1492
atp1493
sI1074246996
(Vrtc_clk_wait_for_slow_cycle
p1494
(lp1495
(L204572490L
L0L
(lp1496
(lp1497
tp1498
a(L287687718L
L0L
(lp1499
(lp1500
tp1501
a(L3360570486L
L0L
(lp1502
(lp1503
tp1504
a(L2148819204L
L0L
(lp1505
(lp1506
tp1507
a(L2994547433L
L0L
(lp1508
(lp1509
tp1510
a(L1031101807L
L0L
(lp1511
(lp1512
tp1513
a(L2211191455L
L3785322319L
(lp1514
(lp1515
Vesp_log_early_timestamp
p1516
atp1517
atp1518
sI1074236496
(Vbootloader_flash_dummy_config
p1519
(lp1520
(L2887391831L
L0L
(lp1521
(lp1522
tp1523
a(L2761717557L
L0L
(lp1524
(lp1525
tp1526
a(L1849044936L
L0L
(lp1527
(lp1528
tp1529
a(L1591520612L
L0L
(lp1530
(lp1531
tp1532
a(L326359429L
L0L
(lp1533
(lp1534
tp1535
a(L3020204L
L0L
(lp1536
(lp1537
tp1538
a(L1610443405L
L0L
(lp1539
(lp1540
tp1541
a(L4032120524L
L0L
(lp1542
(lp1543
tp1544
a(L2336993863L
L0L
(lp1545
(lp1546
tp1547
a(L1298875775L
L0L
(lp1548
(lp1549
tp1550
a(L3880393601L
L0L
(lp1551
(lp1552
tp1553
a(L197269329L
L0L
(lp1554
(lp1555
tp1556
a(L1610443436L
L0L
(lp1557
(lp1558
tp1559
atp1560
sI1074240348
(Vbootloader_sha256_data
p1561
(lp1562
(L4066096136L
L0L
(lp1563
(lp1564
tp1565
a(L3197877865L
L0L
(lp1566
(lp1567
tp1568
a(L3627025138L
L3785322319L
(lp1569
(lp1570
V__assert_func
p1571
atp1572
a(L498498478L
L0L
(lp1573
(lp1574
tp1575
a(L2968424575L
L0L
(lp1576
(lp1577
tp1578
a(L2910371777L
L0L
(lp1579
(lp1580
tp1581
a(L3360570486L
L0L
(lp1582
(lp1583
tp1584
a(L1911737285L
L0L
(lp1585
(lp1586
tp1587
a(L541898147L
L0L
(lp1588
(lp1589
tp1590
a(L953830545L
L0L
(lp1591
(lp1592
tp1593
a(L1259070655L
L0L
(lp1594
(lp1595
tp1596
a(L2241452291L
L0L
(lp1597
(lp1598
tp1599
a(L2032890799L
L0L
(lp1600
(lp1601
tp1602
a(L3028464L
L0L
(lp1603
(lp1604
tp1605
a(L1834917352L
L0L
(lp1606
(lp1607
tp1608
a(L1076698600L
L0L
(lp1609
(lp1610
tp1611
atp1612
sI1074235480
(Vbootloader_read_flash_id
p1613
(lp1614
(L549578328L
L3785322319L
(lp1615
(lp1616
Vbootloader_execute_flash_command
p1617
atp1618
atp1619
sI1074244440
(Vefuse_hal_get_rated_freq_mhz
p1620
(lp1621
(L1103821704L
L0L
(lp1622
(lp1623
tp1624
a(L3671388797L
L0L
(lp1625
(lp1626
tp1627
a(L3360570486L
L0L
(lp1628
(lp1629
tp1630
atp1631
sI1074245208
(Vrtc_clk_slow_src_get
p1632
(lp1633
(L376617603L
L3785322319L
(lp1634
(lp1635
Vclk_ll_rtc_slow_get_src
p1636
atp1637
atp1638
sI1074245220
(Vrtc_clk_slow_freq_get_hz
p1639
(lp1640
(L1826267122L
L3785322319L
(lp1641
(lp1642
Vclk_ll_rtc_slow_get_src
p1643
atp1644
a(L3983387562L
L0L
(lp1645
(lp1646
tp1647
a(L3631005815L
L0L
(lp1648
(lp1649
tp1650
a(L702739851L
L0L
(lp1651
(lp1652
tp1653
a(L3360570486L
L0L
(lp1654
(lp1655
tp1656
atp1657
sI1074267756
(Vwdt_reset_info_dump
p1658
(lp1659
(L4037466985L
L0L
(lp1660
(lp1661
tp1662
a(L826419141L
L0L
(lp1663
(lp1664
tp1665
a(L527117834L
L0L
(lp1666
(lp1667
tp1668
a(L1103285333L
L0L
(lp1669
(lp1670
tp1671
a(L897464656L
L3785322319L
(lp1672
(lp1673
Vesp_log_early_timestamp
p1674
atp1675
a(L2967992533L
L0L
(lp1676
(lp1677
tp1678
a(L144195250L
L3785322319L
(lp1679
(lp1680
Vesp_log_early_timestamp
p1681
atp1682
a(L2899013701L
L0L
(lp1683
(lp1684
tp1685
atp1686
sI1074244192
(Vwdt_hal_write_protect_disable
p1687
(lp1688
(L2720025117L
L0L
(lp1689
(lp1690
tp1691
a(L4195472003L
L0L
(lp1692
(lp1693
tp1694
a(L3360570486L
L0L
(lp1695
(lp1696
tp1697
a(L1210571996L
L0L
(lp1698
(lp1699
tp1700
atp1701
sI1074237548
(Vbootloader_mmap
p1702
(lp1703
(L1371566704L
L0L
(lp1704
(lp1705
tp1706
a(L3989388896L
L3785322319L
(lp1707
(lp1708
Vesp_log_early_timestamp
p1709
atp1710
a(L3871473710L
L0L
(lp1711
(lp1712
tp1713
a(L3729184599L
L0L
(lp1714
(lp1715
tp1716
a(L956050713L
L3785322319L
(lp1717
(lp1718
Vesp_log_early_timestamp
p1719
atp1720
a(L343127800L
L0L
(lp1721
(lp1722
tp1723
a(L3911538083L
L3785322319L
(lp1724
(lp1725
Vesp_log_early_timestamp
p1726
atp1727
a(L2700202424L
L0L
(lp1728
(lp1729
tp1730
a(L2618580612L
L3785322319L
(lp1731
(lp1732
Vesp_log_early_timestamp
p1733
atp1734
a(L2796553509L
L0L
(lp1735
(lp1736
tp1737
atp1738
sI1074269796
(Vbootloader_config_wdt
p1739
(lp1740
(L2503541646L
L505859776L
(lp1741
(lp1742
Vwdt_hal_write_protect_disable
p1743
aVwdt_hal_set_flashboot_en
p1744
aVwdt_hal_write_protect_enable
p1745
aVwdt_hal_init
p1746
aVrtc_clk_slow_freq_get_hz
p1747
aVwdt_hal_write_protect_disable
p1748
aVwdt_hal_config_stage
p1749
aVwdt_hal_enable
p1750
aVwdt_hal_write_protect_enable
p1751
aVwdt_hal_write_protect_disable
p1752
aVwdt_hal_set_flashboot_en
p1753
aVwdt_hal_write_protect_enable
p1754
atp1755
atp1756
sI1074235752
(Vbootloader_write_status_8b_wrsr
p1757
(lp1758
(L3692606543L
L3785322319L
(lp1759
(lp1760
Vbootloader_execute_flash_command
p1761
atp1762
atp1763
sI1074248564
(Vesp_rom_spiflash_write_encrypted
p1764
(lp1765
(L1944247967L
L0L
(lp1766
(lp1767
tp1768
a(L1327433108L
L0L
(lp1769
(lp1770
tp1771
a(L97689L
L0L
(lp1772
(lp1773
tp1774
a(L3061232074L
L0L
(lp1775
(lp1776
tp1777
a(L4090136808L
L0L
(lp1778
(lp1779
tp1780
a(L1309309703L
L3785322319L
(lp1781
(lp1782
Vesp_rom_spiflash_write
p1783
atp1784
a(L3714595156L
L0L
(lp1785
(lp1786
tp1787
a(L735741265L
L0L
(lp1788
(lp1789
tp1790
atp1791
sI1074238076
(Vbootloader_flash_erase_sector
p1792
(lp1793
(L4129137686L
L1880226080L
(lp1794
(lp1795
Vesp_rom_spiflash_erase_sector
p1796
aVspi_to_esp_err
p1797
atp1798
atp1799
sI1074235772
(Vbootloader_write_status_8b_wrsr2
p1800
(lp1801
(L3772914914L
L3785322319L
(lp1802
(lp1803
Vbootloader_execute_flash_command
p1804
atp1805
atp1806
sI1074236028
(Vbootloader_flash_gpio_config
p1807
(lp1808
(L3448878117L
L3785322319L
(lp1809
(lp1810
Vbootloader_common_get_chip_ver_pkg
p1811
atp1812
a(L106L
L0L
(lp1813
(lp1814
tp1815
a(L1998579353L
L0L
(lp1816
(lp1817
tp1818
a(L106L
L0L
(lp1819
(lp1820
tp1821
a(L463324743L
L0L
(lp1822
(lp1823
tp1824
a(L2054608940L
L0L
(lp1825
(lp1826
tp1827
a(L106L
L0L
(lp1828
(lp1829
tp1830
a(L4003626558L
L0L
(lp1831
(lp1832
tp1833
a(L2112581292L
L0L
(lp1834
(lp1835
tp1836
a(L3360570486L
L0L
(lp1837
(lp1838
tp1839
atp1840
sI1074237052
(Vesp_log_early_timestamp
p1841
(lp1842
(L387765101L
L0L
(lp1843
(lp1844
tp1845
atp1846
sI1074247292
(Vesp_rom_spiflash_enable_write
p1847
(lp1848
(L4294007845L
L3785322319L
(lp1849
(lp1850
Vesp_rom_spiflash_wait_idle
p1851
atp1852
a(L3137194272L
L0L
(lp1853
(lp1854
tp1855
a(L2258718275L
L0L
(lp1856
(lp1857
tp1858
a(L99543895L
L0L
(lp1859
(lp1860
tp1861
a(L2993202392L
L0L
(lp1862
(lp1863
tp1864
a(L1804543818L
L3785322319L
(lp1865
(lp1866
Vesp_rom_spiflash_read_status
p1867
atp1868
atp1869
sI1074247544
(Vesp_rom_spiflash_config_readmode
p1870
(lp1871
(L2433196881L
L0L
(lp1872
(lp1873
tp1874
a(L3905548590L
L0L
(lp1875
(lp1876
tp1877
a(L2805933868L
L0L
(lp1878
(lp1879
tp1880
a(L3249937672L
L0L
(lp1881
(lp1882
tp1883
a(L611652348L
L0L
(lp1884
(lp1885
tp1886
a(L93837694L
L0L
(lp1887
(lp1888
tp1889
a(L106L
L0L
(lp1890
(lp1891
tp1892
a(L1221791084L
L0L
(lp1893
(lp1894
tp1895
a(L2805935155L
L0L
(lp1896
(lp1897
tp1898
a(L3427629234L
L0L
(lp1899
(lp1900
tp1901
a(L106L
L0L
(lp1902
(lp1903
tp1904
a(L3313165221L
L0L
(lp1905
(lp1906
tp1907
a(L2890097920L
L0L
(lp1908
(lp1909
tp1910
a(L2122757262L
L0L
(lp1911
(lp1912
tp1913
a(L106L
L0L
(lp1914
(lp1915
tp1916
a(L2148591337L
L0L
(lp1917
(lp1918
tp1919
a(L866447536L
L0L
(lp1920
(lp1921
tp1922
a(L106L
L0L
(lp1923
(lp1924
tp1925
a(L727260560L
L0L
(lp1926
(lp1927
tp1928
a(L2372650130L
L0L
(lp1929
(lp1930
tp1931
a(L3016870L
L0L
(lp1932
(lp1933
tp1934
a(L896112044L
L0L
(lp1935
(lp1936
tp1937
a(L107154712L
L0L
(lp1938
(lp1939
tp1940
a(L3304852550L
L0L
(lp1941
(lp1942
tp1943
a(L2882642734L
L0L
(lp1944
(lp1945
tp1946
a(L2993202392L
L0L
(lp1947
(lp1948
tp1949
a(L3304854015L
L0L
(lp1950
(lp1951
tp1952
a(L388859830L
L0L
(lp1953
(lp1954
tp1955
a(L2499772478L
L0L
(lp1956
(lp1957
tp1958
a(L3085300989L
L0L
(lp1959
(lp1960
tp1961
a(L2768516924L
L0L
(lp1962
(lp1963
tp1964
atp1965
sI1074237824
(Vbootloader_flash_read
p1966
(lp1967
(L728393898L
L0L
(lp1968
(lp1969
tp1970
a(L1106217119L
L3785322319L
(lp1971
(lp1972
Vesp_log_early_timestamp
p1973
atp1974
a(L1024709524L
L0L
(lp1975
(lp1976
tp1977
a(L3360570486L
L0L
(lp1978
(lp1979
tp1980
a(L2660352519L
L0L
(lp1981
(lp1982
tp1983
a(L1488229289L
L3785322319L
(lp1984
(lp1985
Vesp_log_early_timestamp
p1986
atp1987
a(L162336582L
L0L
(lp1988
(lp1989
tp1990
a(L1628083135L
L3785322319L
(lp1991
(lp1992
Vesp_log_early_timestamp
p1993
atp1994
a(L3020204L
L0L
(lp1995
(lp1996
tp1997
a(L3893043951L
L0L
(lp1998
(lp1999
tp2000
a(L97422L
L0L
(lp2001
(lp2002
tp2003
a(L674456573L
L0L
(lp2004
(lp2005
tp2006
a(L1253319443L
L0L
(lp2007
(lp2008
tp2009
a(L3966091362L
L3785322319L
(lp2010
(lp2011
V__assert_func
p2012
atp2013
a(L2383244345L
L0L
(lp2014
(lp2015
tp2016
a(L4030841379L
L0L
(lp2017
(lp2018
tp2019
a(L2946905801L
L1880226080L
(lp2020
(lp2021
Vesp_rom_spiflash_read
p2022
aVspi_to_esp_err
p2023
atp2024
atp2025
sI1074244224
(Vwdt_hal_set_flashboot_en
p2026
(lp2027
(L2375320464L
L0L
(lp2028
(lp2029
tp2030
a(L3915867581L
L0L
(lp2031
(lp2032
tp2033
a(L3360570486L
L0L
(lp2034
(lp2035
tp2036
a(L3198685869L
L0L
(lp2037
(lp2038
tp2039
atp2040
sI1074244480
(Vclk_ll_rtc_slow_get_src
p2041
(lp2042
(L3579154085L
L0L
(lp2043
(lp2044
tp2045
a(L3020187L
L0L
(lp2046
(lp2047
tp2048
a(L2902417580L
L0L
(lp2049
(lp2050
tp2051
a(L2258688485L
L0L
(lp2052
(lp2053
tp2054
a(L3360570486L
L0L
(lp2055
(lp2056
tp2057
atp2058
sI1074245248
(Vrtc_clk_fast_src_set
p2059
(lp2060
(L3109630949L
L0L
(lp2061
(lp2062
tp2063
a(L3020187L
L0L
(lp2064
(lp2065
tp2066
a(L3827921190L
L3785322319L
(lp2067
(lp2068
Vabort
p2069
atp2070
a(L209959690L
L0L
(lp2071
(lp2072
tp2073
a(L980343504L
L0L
(lp2074
(lp2075
tp2076
a(L300459962L
L0L
(lp2077
(lp2078
tp2079
atp2080
sI1074246528
(Vrtc_clk_cal_internal
p2081
(lp2082
(L1876302533L
L0L
(lp2083
(lp2084
tp2085
a(L2062952635L
L3785322319L
(lp2086
(lp2087
V__assert_func
p2088
atp2089
a(L384777032L
L0L
(lp2090
(lp2091
tp2092
a(L54826884L
L0L
(lp2093
(lp2094
tp2095
a(L234746575L
L0L
(lp2096
(lp2097
tp2098
a(L861896856L
L3785322319L
(lp2099
(lp2100
Vrtc_clk_8m_enable
p2101
atp2102
a(L3886714587L
L3785322319L
(lp2103
(lp2104
Vrtc_clk_slow_src_get
p2105
atp2106
a(L1211065969L
L0L
(lp2107
(lp2108
tp2109
a(L97689L
L0L
(lp2110
(lp2111
tp2112
a(L1528385805L
L0L
(lp2113
(lp2114
tp2115
a(L3028464L
L0L
(lp2116
(lp2117
tp2118
a(L3028481L
L0L
(lp2119
(lp2120
tp2121
a(L3450258542L
L0L
(lp2122
(lp2123
tp2124
a(L671292429L
L3785322319L
(lp2125
(lp2126
Vrtc_clk_xtal_freq_get
p2127
atp2128
a(L2780079961L
L0L
(lp2129
(lp2130
tp2131
a(L826501131L
L0L
(lp2132
(lp2133
tp2134
a(L2940485037L
L3785322319L
(lp2135
(lp2136
Vesp_log_early_timestamp
p2137
atp2138
a(L3360570486L
L0L
(lp2139
(lp2140
tp2141
a(L106916348L
L0L
(lp2142
(lp2143
tp2144
a(L3617715671L
L0L
(lp2145
(lp2146
tp2147
a(L2910371777L
L0L
(lp2148
(lp2149
tp2150
a(L2902417580L
L0L
(lp2151
(lp2152
tp2153
a(L3023821615L
L0L
(lp2154
(lp2155
tp2156
a(L3631005548L
L0L
(lp2157
(lp2158
tp2159
a(L3765184871L
L0L
(lp2160
(lp2161
tp2162
a(L3352263364L
L0L
(lp2163
(lp2164
tp2165
a(L3028464L
L0L
(lp2166
(lp2167
tp2168
a(L4028024914L
L3785322319L
(lp2169
(lp2170
Vrtc_clk_8m_enable
p2171
atp2172
atp2173
sI1074242956
(Vbootloader_load_image
p2174
(lp2175
(L2699477848L
L3785322319L
(lp2176
(lp2177
Vimage_load
p2178
atp2179
atp2180
sI1074235528
(Vbootloader_flash_xmc_startup
p2181
(lp2182
(L1520934136L
L3785322319L
(lp2183
(lp2184
Vis_xmc_chip_strict
p2185
atp2186
a(L2258688482L
L0L
(lp2187
(lp2188
tp2189
a(L3360570486L
L0L
(lp2190
(lp2191
tp2192
a(L251913992L
L3785322319L
(lp2193
(lp2194
Vbootloader_flash_read_sfdp
p2195
atp2196
a(L4211599108L
L267944800L
(lp2197
(lp2198
Vbootloader_execute_flash_command
p2199
aVbootloader_execute_flash_command
p2200
aVbootloader_execute_flash_command
p2201
aVbootloader_execute_flash_command
p2202
aVbootloader_read_flash_id
p2203
aVis_xmc_chip_strict
p2204
atp2205
a(L4229369543L
L3785322319L
(lp2206
(lp2207
Vesp_log_early_timestamp
p2208
atp2209
atp2210
sI1074238344
(Vbootloader_random_disable
p2211
(lp2212
(L2509613898L
L0L
(lp2213
(lp2214
tp2215
atp2216
sI1074241160
(Vbootloader_util_regions_overlap
p2217
(lp2218
(L2762640130L
L0L
(lp2219
(lp2220
tp2221
a(L3455000357L
L0L
(lp2222
(lp2223
tp2224
a(L591145840L
L3785322319L
(lp2225
(lp2226
V__assert_func
p2227
atp2228
a(L97642L
L0L
(lp2229
(lp2230
tp2231
a(L294748017L
L0L
(lp2232
(lp2233
tp2234
a(L366123053L
L0L
(lp2235
(lp2236
tp2237
a(L2258867228L
L0L
(lp2238
(lp2239
tp2240
a(L1253626734L
L0L
(lp2241
(lp2242
tp2243
a(L2258897019L
L0L
(lp2244
(lp2245
tp2246
a(L3109269495L
L0L
(lp2247
(lp2248
tp2249
atp2250
sI1074236820
(Vefuse_hal_chip_revision
p2251
(lp2252
(L2719302832L
L1880226080L
(lp2253
(lp2254
Vefuse_hal_get_major_chip_version
p2255
aVefuse_hal_get_minor_chip_version
p2256
atp2257
atp2258
sI1074270876
(Vmpu_hal_set_region_access
p2259
(lp2260
(L3538356822L
L0L
(lp2261
(lp2262
tp2263
a(L93674324L
L0L
(lp2264
(lp2265
tp2266
a(L2910371777L
L0L
(lp2267
(lp2268
tp2269
a(L3472092938L
L0L
(lp2270
(lp2271
tp2272
a(L3020187L
L0L
(lp2273
(lp2274
tp2275
a(L3360570486L
L0L
(lp2276
(lp2277
tp2278
a(L2258718273L
L0L
(lp2279
(lp2280
tp2281
a(L3446648619L
L0L
(lp2282
(lp2283
tp2284
a(L3739532189L
L0L
(lp2285
(lp2286
tp2287
a(L1300789895L
L0L
(lp2288
(lp2289
tp2290
atp2291
sI1074235792
(Vbootloader_write_status_16b_wrsr
p2292
(lp2293
(L1235576642L
L3785322319L
(lp2294
(lp2295
Vbootloader_execute_flash_command
p2296
atp2297
atp2298
sI1074238096
(Vbootloader_flash_write
p2299
(lp2300
(L3770380603L
L0L
(lp2301
(lp2302
tp2303
a(L311168910L
L3785322319L
(lp2304
(lp2305
Vesp_log_early_timestamp
p2306
atp2307
a(L283255622L
L0L
(lp2308
(lp2309
tp2310
a(L1610445075L
L0L
(lp2311
(lp2312
tp2313
a(L735741265L
L0L
(lp2314
(lp2315
tp2316
a(L3291333414L
L0L
(lp2317
(lp2318
tp2319
a(L2189241262L
L3785322319L
(lp2320
(lp2321
Vesp_log_early_timestamp
p2322
atp2323
a(L3283691850L
L0L
(lp2324
(lp2325
tp2326
a(L3241687434L
L3785322319L
(lp2327
(lp2328
Vesp_log_early_timestamp
p2329
atp2330
a(L3212356251L
L3785322319L
(lp2331
(lp2332
Vbootloader_flash_unlock
p2333
atp2334
a(L1799218633L
L0L
(lp2335
(lp2336
tp2337
a(L94425498L
L3785322319L
(lp2338
(lp2339
Vesp_rom_spiflash_write_encrypted
p2340
atp2341
a(L2927190544L
L3785322319L
(lp2342
(lp2343
Vspi_to_esp_err
p2344
atp2345
a(L2927190544L
L3785322319L
(lp2346
(lp2347
Vesp_rom_spiflash_write
p2348
atp2349
atp2350
sI1074237084
(Vbootloader_common_ota_select_crc
p2351
(lp2352
(L2530349931L
L0L
(lp2353
(lp2354
tp2355
atp2356
sI1074244508
(Vrtc_clk_32k_enable_common
p2357
(lp2358
(L1829043071L
L0L
(lp2359
(lp2360
tp2361
a(L97689L
L0L
(lp2362
(lp2363
tp2364
a(L2218417250L
L0L
(lp2365
(lp2366
tp2367
a(L2196549806L
L0L
(lp2368
(lp2369
tp2370
a(L51458058L
L0L
(lp2371
(lp2372
tp2373
atp2374
sI1074245788
(Vrtc_clk_cpu_freq_set_config
p2375
(lp2376
(L3260862648L
L3785322319L
(lp2377
(lp2378
Vrtc_clk_xtal_freq_get
p2379
atp2380
a(L3020187L
L0L
(lp2381
(lp2382
tp2383
a(L3028464L
L0L
(lp2384
(lp2385
tp2386
a(L264223053L
L1880226080L
(lp2387
(lp2388
Vrtc_clk_cpu_freq_to_xtal
p2389
aVrtc_clk_wait_for_slow_cycle
p2390
atp2391
a(L94425498L
L3785322319L
(lp2392
(lp2393
Vrtc_clk_bbpll_disable
p2394
atp2395
a(L3978916712L
L0L
(lp2396
(lp2397
tp2398
a(L2977209154L
L0L
(lp2399
(lp2400
tp2401
a(L2736411858L
L3785322319L
(lp2402
(lp2403
Vrtc_clk_cpu_freq_to_xtal
p2404
atp2405
a(L3360570486L
L0L
(lp2406
(lp2407
tp2408
a(L3020187L
L0L
(lp2409
(lp2410
tp2411
a(L106L
L0L
(lp2412
(lp2413
tp2414
a(L1190657172L
L1880226080L
(lp2415
(lp2416
Vrtc_clk_wait_for_slow_cycle
p2417
aVrtc_clk_xtal_freq_get
p2418
atp2419
a(L106L
L0L
(lp2420
(lp2421
tp2422
a(L2721924212L
L0L
(lp2423
(lp2424
tp2425
a(L106L
L0L
(lp2426
(lp2427
tp2428
a(L83268611L
L0L
(lp2429
(lp2430
tp2431
a(L106L
L0L
(lp2432
(lp2433
tp2434
a(L82344823L
L0L
(lp2435
(lp2436
tp2437
a(L106L
L0L
(lp2438
(lp2439
tp2440
a(L1274797871L
L0L
(lp2441
(lp2442
tp2443
a(L3425862026L
L0L
(lp2444
(lp2445
tp2446
a(L769735029L
L1880226080L
(lp2447
(lp2448
Vclk_ll_rtc_slow_get_src
p2449
aVrtc_clk_cpu_freq_to_pll_mhz
p2450
atp2451
a(L773049487L
L0L
(lp2452
(lp2453
tp2454
a(L83268344L
L0L
(lp2455
(lp2456
tp2457
a(L82345090L
L0L
(lp2458
(lp2459
tp2460
a(L1299628291L
L0L
(lp2461
(lp2462
tp2463
a(L2792532176L
L0L
(lp2464
(lp2465
tp2466
a(L2258807646L
L0L
(lp2467
(lp2468
tp2469
a(L878473564L
L0L
(lp2470
(lp2471
tp2472
a(L2389426015L
L0L
(lp2473
(lp2474
tp2475
a(L1596574736L
L0L
(lp2476
(lp2477
tp2478
a(L2086626670L
L0L
(lp2479
(lp2480
tp2481
a(L1302638456L
L0L
(lp2482
(lp2483
tp2484
a(L810137203L
L0L
(lp2485
(lp2486
tp2487
a(L87353900L
L0L
(lp2488
(lp2489
tp2490
a(L3020187L
L0L
(lp2491
(lp2492
tp2493
a(L106L
L0L
(lp2494
(lp2495
tp2496
a(L2791725429L
L0L
(lp2497
(lp2498
tp2499
atp2500
sI1074270868
(Vbootloader_print_banner
p2501
(lp2502
(L2100504542L
L0L
(lp2503
(lp2504
tp2505
atp2506
sI1074242456
(Vimage_load
p2507
(lp2508
(L3559420668L
L0L
(lp2509
(lp2510
tp2511
a(L1899869541L
L0L
(lp2512
(lp2513
tp2514
a(L979631281L
L0L
(lp2515
(lp2516
tp2517
a(L1525480527L
L0L
(lp2518
(lp2519
tp2520
a(L1043148059L
L0L
(lp2521
(lp2522
tp2523
a(L2796536461L
L0L
(lp2524
(lp2525
tp2526
a(L964855339L
L3785322319L
(lp2527
(lp2528
Vesp_log_early_timestamp
p2529
atp2530
a(L2068384292L
L0L
(lp2531
(lp2532
tp2533
a(L1968553470L
L3785322319L
(lp2534
(lp2535
Vbootloader_sha256_finish
p2536
atp2537
a(L1721531848L
L0L
(lp2538
(lp2539
tp2540
a(L3225218531L
L0L
(lp2541
(lp2542
tp2543
a(L3802071166L
L0L
(lp2544
(lp2545
tp2546
a(L1301867039L
L3785322319L
(lp2547
(lp2548
Vprocess_image_header
p2549
atp2550
a(L560228796L
L0L
(lp2551
(lp2552
tp2553
a(L4185758499L
L0L
(lp2554
(lp2555
tp2556
a(L1530940255L
L3785322319L
(lp2557
(lp2558
Vprocess_segments
p2559
atp2560
a(L1233227930L
L0L
(lp2561
(lp2562
tp2563
a(L2462932903L
L0L
(lp2564
(lp2565
tp2566
a(L2570888687L
L3785322319L
(lp2567
(lp2568
Vprocess_checksum
p2569
atp2570
a(L425503098L
L3785322319L
(lp2571
(lp2572
Vprocess_appended_hash_and_sig
p2573
atp2574
a(L780930979L
L0L
(lp2575
(lp2576
tp2577
a(L2334355956L
L0L
(lp2578
(lp2579
tp2580
a(L2239981356L
L0L
(lp2581
(lp2582
tp2583
a(L700839140L
L1880226080L
(lp2584
(lp2585
Vbootloader_sha256_finish
p2586
aVbootloader_debug_buffer
p2587
atp2588
a(L639955857L
L1880226080L
(lp2589
(lp2590
Vesp_log_early_timestamp
p2591
aVbootloader_debug_buffer
p2592
atp2593
a(L1087646176L
L0L
(lp2594
(lp2595
tp2596
a(L2068384292L
L0L
(lp2597
(lp2598
tp2599
a(L3021148818L
L3785322319L
(lp2600
(lp2601
Vbootloader_sha256_finish
p2602
atp2603
a(L3028481L
L0L
(lp2604
(lp2605
tp2606
a(L139701033L
L0L
(lp2607
(lp2608
tp2609
a(L2878111010L
L0L
(lp2610
(lp2611
tp2612
a(L772115669L
L0L
(lp2613
(lp2614
tp2615
a(L2787789065L
L0L
(lp2616
(lp2617
tp2618
a(L85798113L
L0L
(lp2619
(lp2620
tp2621
a(L1351513776L
L0L
(lp2622
(lp2623
tp2624
a(L159346313L
L3785322319L
(lp2625
(lp2626
Vshould_load
p2627
atp2628
a(L4218574503L
L0L
(lp2629
(lp2630
tp2631
a(L3338774213L
L0L
(lp2632
(lp2633
tp2634
a(L3464541874L
L0L
(lp2635
(lp2636
tp2637
a(L3349572949L
L0L
(lp2638
(lp2639
tp2640
a(L2192292519L
L0L
(lp2641
(lp2642
tp2643
a(L106L
L0L
(lp2644
(lp2645
tp2646
a(L26615924L
L0L
(lp2647
(lp2648
tp2649
a(L1299866312L
L0L
(lp2650
(lp2651
tp2652
a(L490060329L
L0L
(lp2653
(lp2654
tp2655
atp2656
sI1074235812
(Vbootloader_read_status_8b_xmc25qu64a
p2657
(lp2658
(L3492345652L
L2485746240L
(lp2659
(lp2660
Vbootloader_execute_flash_command
p2661
aVesp_rom_spiflash_wait_idle
p2662
aVbootloader_execute_flash_command
p2663
aVbootloader_execute_flash_command
p2664
atp2665
atp2666
sI1074268588
(Vbootloader_common_vddsdio_configure
p2667
(lp2668
(L1829974089L
L3785322319L
(lp2669
(lp2670
Vrtc_vddsdio_get_config
p2671
atp2672
a(L3047969944L
L3785322319L
(lp2673
(lp2674
Vrtc_vddsdio_set_config
p2675
atp2676
a(L3360570486L
L0L
(lp2677
(lp2678
tp2679
atp2680
sI1074270636
(Vrtc_vddsdio_get_config
p2681
(lp2682
(L324971470L
L0L
(lp2683
(lp2684
tp2685
a(L3421108135L
L0L
(lp2686
(lp2687
tp2688
a(L3002774692L
L0L
(lp2689
(lp2690
tp2691
a(L731766957L
L0L
(lp2692
(lp2693
tp2694
a(L1280282886L
L0L
(lp2695
(lp2696
tp2697
a(L2736422235L
L0L
(lp2698
(lp2699
tp2700
a(L1306330959L
L0L
(lp2701
(lp2702
tp2703
a(L3084663794L
L0L
(lp2704
(lp2705
tp2706
atp2707
sI1074238880
(Vtry_load_partition
p2708
(lp2709
(L1898493800L
L0L
(lp2710
(lp2711
tp2712
a(L2454209732L
L3785322319L
(lp2713
(lp2714
Vbootloader_load_image
p2715
atp2716
a(L3360570486L
L0L
(lp2717
(lp2718
tp2719
atp2720
sI1074239392
(Vset_actual_ota_seq
p2721
(lp2722
(L4094723830L
L0L
(lp2723
(lp2724
tp2725
a(L3473028212L
L0L
(lp2726
(lp2727
tp2728
a(L3553024017L
L1832448559L
(lp2729
(lp2730
Vbootloader_common_ota_select_crc
p2731
aVesp_flash_encryption_enabled
p2732
aVbootloader_flash_erase_sector
p2733
atp2734
a(L3383023989L
L3785322319L
(lp2735
(lp2736
Vbootloader_flash_write
p2737
atp2738
a(L4009601638L
L3785322319L
(lp2739
(lp2740
Vesp_log_early_timestamp
p2741
atp2742
a(L3496950L
L0L
(lp2743
(lp2744
tp2745
atp2746
sI1074236844
(Vefuse_hal_flash_encryption_enabled
p2747
(lp2748
(L95576418L
L0L
(lp2749
(lp2750
tp2751
a(L2910371777L
L0L
(lp2752
(lp2753
tp2754
a(L3360570486L
L0L
(lp2755
(lp2756
tp2757
a(L3016870L
L0L
(lp2758
(lp2759
tp2760
a(L3745038218L
L0L
(lp2761
(lp2762
tp2763
a(L957607403L
L0L
(lp2764
(lp2765
tp2766
atp2767
sI1074241704
(Vshould_load
p2768
(lp2769
(L1049568420L
L0L
(lp2770
(lp2771
tp2772
a(L1182990556L
L0L
(lp2773
(lp2774
tp2775
a(L388737285L
L0L
(lp2776
(lp2777
tp2778
a(L2306467100L
L0L
(lp2779
(lp2780
tp2781
a(L1002638193L
L0L
(lp2782
(lp2783
tp2784
a(L2258897019L
L0L
(lp2785
(lp2786
tp2787
a(L3781799363L
L0L
(lp2788
(lp2789
tp2790
a(L3028464L
L0L
(lp2791
(lp2792
tp2793
a(L1833574973L
L0L
(lp2794
(lp2795
tp2796
a(L4277114872L
L0L
(lp2797
(lp2798
tp2799
a(L2824381917L
L0L
(lp2800
(lp2801
tp2802
a(L1243412227L
L0L
(lp2803
(lp2804
tp2805
a(L2011157548L
L0L
(lp2806
(lp2807
tp2808
a(L3126521138L
L0L
(lp2809
(lp2810
tp2811
a(L1305407438L
L0L
(lp2812
(lp2813
tp2814
a(L1305407469L
L0L
(lp2815
(lp2816
tp2817
atp2818
sI1074269624
(Vbootloader_flash_update_id
p2819
(lp2820
(L3994864411L
L3785322319L
(lp2821
(lp2822
Vbootloader_read_flash_id
p2823
atp2824
atp2825
sI1074269372
(Vbootloader_enable_qio_mode
p2826
(lp2827
(L3607937143L
L3785322319L
(lp2828
(lp2829
Vesp_rom_spiflash_wait_idle
p2830
atp2831
a(L2573281202L
L0L
(lp2832
(lp2833
tp2834
a(L78057494L
L0L
(lp2835
(lp2836
tp2837
a(L3289196298L
L0L
(lp2838
(lp2839
tp2840
a(L92660513L
L0L
(lp2841
(lp2842
tp2843
a(L734887214L
L3785322319L
(lp2844
(lp2845
Vesp_rom_spiflash_wait_idle
p2846
atp2847
a(L3562429912L
L1880226080L
(lp2848
(lp2849
Vbootloader_execute_flash_command
p2850
aVesp_rom_spiflash_wait_idle
p2851
atp2852
a(L1923643745L
L3785322319L
(lp2853
(lp2854
Vesp_log_early_timestamp
p2855
atp2856
a(L3360570486L
L0L
(lp2857
(lp2858
tp2859
a(L4002193605L
L1880226080L
(lp2860
(lp2861
Vesp_rom_spiflash_config_readmode
p2862
aVbootloader_flash_get_wp_pin
p2863
atp2864
atp2865
sI1074242992
(Vesp_partition_table_verify
p2866
(lp2867
(L1927580282L
L0L
(lp2868
(lp2869
tp2870
a(L3612311543L
L0L
(lp2871
(lp2872
tp2873
a(L4090921686L
L0L
(lp2874
(lp2875
tp2876
a(L2910371777L
L0L
(lp2877
(lp2878
tp2879
a(L2810785767L
L0L
(lp2880
(lp2881
tp2882
a(L3360570486L
L0L
(lp2883
(lp2884
tp2885
a(L3190337587L
L0L
(lp2886
(lp2887
tp2888
a(L2069928857L
L0L
(lp2889
(lp2890
tp2891
a(L3020204L
L0L
(lp2892
(lp2893
tp2894
a(L245691717L
L3785322319L
(lp2895
(lp2896
Vesp_log_early_timestamp
p2897
atp2898
a(L2170696312L
L3785322319L
(lp2899
(lp2900
Vesp_log_early_timestamp
p2901
atp2902
a(L3432911L
L0L
(lp2903
(lp2904
tp2905
a(L2902417580L
L0L
(lp2906
(lp2907
tp2908
a(L3020204L
L0L
(lp2909
(lp2910
tp2911
a(L1254851474L
L3785322319L
(lp2912
(lp2913
Vesp_log_early_timestamp
p2914
atp2915
a(L190989796L
L0L
(lp2916
(lp2917
tp2918
a(L2365302570L
L0L
(lp2919
(lp2920
tp2921
a(L2902417580L
L0L
(lp2922
(lp2923
tp2924
a(L245690260L
L3785322319L
(lp2925
(lp2926
Vesp_log_early_timestamp
p2927
atp2928
a(L1305407469L
L0L
(lp2929
(lp2930
tp2931
a(L1167861556L
L0L
(lp2932
(lp2933
tp2934
a(L3914073261L
L0L
(lp2935
(lp2936
tp2937
a(L2910371777L
L0L
(lp2938
(lp2939
tp2940
a(L1235012932L
L0L
(lp2941
(lp2942
tp2943
a(L3786577829L
L3785322319L
(lp2944
(lp2945
Vesp_log_early_timestamp
p2946
atp2947
atp2948
sI1074237104
(Vbootloader_common_ota_select_valid
p2949
(lp2950
(L1563399710L
L3785322319L
(lp2951
(lp2952
Vbootloader_common_ota_select_invalid
p2953
atp2954
a(L3814720849L
L3785322319L
(lp2955
(lp2956
Vbootloader_common_ota_select_crc
p2957
atp2958
a(L3360570486L
L0L
(lp2959
(lp2960
tp2961
atp2962
sI1074245040
(Vrtc_clk_8m_enabled
p2963
(lp2964
(L1635618594L
L0L
(lp2965
(lp2966
tp2967
atp2968
sI1074237372
(Vbootloader_common_get_active_otadata
p2969
(lp2970
(L3317503532L
L0L
(lp2971
(lp2972
tp2973
a(L2503049265L
L1832448559L
(lp2974
(lp2975
Vbootloader_common_ota_select_valid
p2976
aVbootloader_common_ota_select_valid
p2977
aVbootloader_common_select_otadata
p2978
atp2979
a(L735741265L
L0L
(lp2980
(lp2981
tp2982
atp2983
sI1074240700
(Vbootloader_console_deinit
p2984
(lp2985
(L211274347L
L0L
(lp2986
(lp2987
tp2988
atp2989
sI1074249404
(V_fini
p2990
(lp2991
(L3493042598L
L0L
(lp2992
(lp2993
tp2994
atp2995
sI1074244792
(Vrtc_clk_bbpll_disable
p2996
(lp2997
(L1007955500L
L0L
(lp2998
(lp2999
tp3000
a(L2472207241L
L0L
(lp3001
(lp3002
tp3003
a(L3360570486L
L0L
(lp3004
(lp3005
tp3006
atp3007
sI1074247352
(Vesp_rom_spiflash_program_page_internal
p3008
(lp3009
(L2569069283L
L0L
(lp3010
(lp3011
tp3012
a(L2258688483L
L0L
(lp3013
(lp3014
tp3015
a(L3360570486L
L0L
(lp3016
(lp3017
tp3018
a(L874487604L
L0L
(lp3019
(lp3020
tp3021
a(L4235661475L
L3785322319L
(lp3022
(lp3023
Vesp_rom_spiflash_wait_idle
p3024
atp3025
a(L1299866312L
L0L
(lp3026
(lp3027
tp3028
a(L3212356251L
L3785322319L
(lp3029
(lp3030
Vesp_rom_spiflash_enable_write
p3031
atp3032
a(L4236772496L
L0L
(lp3033
(lp3034
tp3035
a(L1008842358L
L0L
(lp3036
(lp3037
tp3038
a(L2953702749L
L0L
(lp3039
(lp3040
tp3041
a(L2989032L
L0L
(lp3042
(lp3043
tp3044
a(L1965622133L
L0L
(lp3045
(lp3046
tp3047
a(L3110819530L
L0L
(lp3048
(lp3049
tp3050
a(L1958113242L
L0L
(lp3051
(lp3052
tp3053
a(L106L
L0L
(lp3054
(lp3055
tp3056
a(L3112950080L
L0L
(lp3057
(lp3058
tp3059
a(L1868606439L
L0L
(lp3060
(lp3061
tp3062
a(L1008983749L
L0L
(lp3063
(lp3064
tp3065
a(L1933954923L
L0L
(lp3066
(lp3067
tp3068
a(L1147866918L
L0L
(lp3069
(lp3070
tp3071
a(L3871602522L
L0L
(lp3072
(lp3073
tp3074
atp3075
sI1074269640
(Vbootloader_flash_get_wp_pin
p3076
(lp3077
(L2601977293L
L3785322319L
(lp3078
(lp3079
Vbootloader_common_get_chip_ver_pkg
p3080
atp3081
a(L93674324L
L0L
(lp3082
(lp3083
tp3084
a(L4185764111L
L0L
(lp3085
(lp3086
tp3087
a(L1069118110L
L0L
(lp3088
(lp3089
tp3090
a(L3360570486L
L0L
(lp3091
(lp3092
tp3093
a(L3634856619L
L0L
(lp3094
(lp3095
tp3096
a(L426835595L
L3785322319L
(lp3097
(lp3098
Vefuse_hal_chip_revision
p3099
atp3100
a(L1641149339L
L0L
(lp3101
(lp3102
tp3103
atp3104
sI1074238660
(Vbootloader_clock_get_rated_freq_mhz
p3105
(lp3106
(L376617603L
L3785322319L
(lp3107
(lp3108
Vefuse_hal_get_rated_freq_mhz
p3109
atp3110
atp3111
sI1074244292
(Vwdt_hal_write_protect_enable
p3112
(lp3113
(L387778158L
L0L
(lp3114
(lp3115
tp3116
a(L4195472003L
L0L
(lp3117
(lp3118
tp3119
a(L3360570486L
L0L
(lp3120
(lp3121
tp3122
a(L802523425L
L0L
(lp3123
(lp3124
tp3125
atp3126
sI1074268876
(Vbootloader_init_mem
p3127
(lp3128
(L1287383080L
L3785322319L
(lp3129
(lp3130
Vesp_cpu_configure_region_protection
p3131
atp3132
atp3133
sI1074238912
(Vcache_ll_l1_enable_bus
p3134
(lp3135
(L3709595376L
L0L
(lp3136
(lp3137
tp3138
atp3139
sI1074241216
(Vverify_load_addresses
p3140
(lp3141
(L2764487219L
L0L
(lp3142
(lp3143
tp3144
a(L106L
L0L
(lp3145
(lp3146
tp3147
a(L97642L
L0L
(lp3148
(lp3149
tp3150
a(L2235167441L
L3785322319L
(lp3151
(lp3152
V__assert_func
p3153
atp3154
a(L1501529359L
L0L
(lp3155
(lp3156
tp3157
a(L106L
L0L
(lp3158
(lp3159
tp3160
a(L3611123590L
L0L
(lp3161
(lp3162
tp3163
a(L106L
L0L
(lp3164
(lp3165
tp3166
a(L1011603130L
L3785322319L
(lp3167
(lp3168
Vbootloader_util_regions_overlap
p3169
atp3170
a(L3136115638L
L3785322319L
(lp3171
(lp3172
Vbootloader_util_regions_overlap
p3173
atp3174
a(L3028481L
L0L
(lp3175
(lp3176
tp3177
a(L3015387297L
L3785322319L
(lp3178
(lp3179
Vbootloader_util_regions_overlap
p3180
atp3181
a(L3178819057L
L0L
(lp3182
(lp3183
tp3184
a(L164461258L
L0L
(lp3185
(lp3186
tp3187
a(L257599400L
L0L
(lp3188
(lp3189
tp3190
a(L2661576437L
L0L
(lp3191
(lp3192
tp3193
a(L2503437888L
L0L
(lp3194
(lp3195
tp3196
a(L677569396L
L3785322319L
(lp3197
(lp3198
Vverify_load_addresses
p3199
atp3200
a(L1351513776L
L0L
(lp3201
(lp3202
tp3203
a(L3061261803L
L0L
(lp3204
(lp3205
tp3206
a(L2743341656L
L0L
(lp3207
(lp3208
tp3209
a(L3276482861L
L0L
(lp3210
(lp3211
tp3212
a(L2082301726L
L0L
(lp3213
(lp3214
tp3215
a(L4005203510L
L3785322319L
(lp3216
(lp3217
Vbootloader_util_regions_overlap
p3218
atp3219
a(L3028481L
L0L
(lp3220
(lp3221
tp3222
a(L2015525981L
L3785322319L
(lp3223
(lp3224
Vbootloader_util_regions_overlap
p3225
atp3226
a(L1621859327L
L0L
(lp3227
(lp3228
tp3229
a(L1591468573L
L0L
(lp3230
(lp3231
tp3232
a(L3570143626L
L0L
(lp3233
(lp3234
tp3235
a(L3723286975L
L0L
(lp3236
(lp3237
tp3238
a(L307916691L
L0L
(lp3239
(lp3240
tp3241
a(L697239146L
L0L
(lp3242
(lp3243
tp3244
a(L106L
L0L
(lp3245
(lp3246
tp3247
a(L955500233L
L0L
(lp3248
(lp3249
tp3250
a(L307916056L
L0L
(lp3251
(lp3252
tp3253
a(L490080443L
L0L
(lp3254
(lp3255
tp3256
a(L106L
L0L
(lp3257
(lp3258
tp3259
a(L3257748282L
L3785322319L
(lp3260
(lp3261
Vesp_log_early_timestamp
p3262
atp3263
a(L955500109L
L0L
(lp3264
(lp3265
tp3266
a(L1303560427L
L0L
(lp3267
(lp3268
tp3269
atp3270
sI1074245312
(Vrtc_clk_fast_src_get
p3271
(lp3272
(L3360419488L
L0L
(lp3273
(lp3274
tp3275
atp3276
sI1074240716
(V__assert_func
p3277
(lp3278
(L3760180186L
L0L
(lp3279
(lp3280
tp3281
a(L106L
L0L
(lp3282
(lp3283
tp3284
atp3285
sI1074248652
(Vesp_rom_spiflash_read
p3286
(lp3287
(L266362199L
L0L
(lp3288
(lp3289
tp3290
a(L758300151L
L0L
(lp3291
(lp3292
tp3293
a(L340311750L
L0L
(lp3294
(lp3295
tp3296
a(L2373999345L
L0L
(lp3297
(lp3298
tp3299
a(L106L
L0L
(lp3300
(lp3301
tp3302
a(L633884026L
L0L
(lp3303
(lp3304
tp3305
a(L106L
L0L
(lp3306
(lp3307
tp3308
a(L3631604465L
L0L
(lp3309
(lp3310
tp3311
a(L1636782770L
L0L
(lp3312
(lp3313
tp3314
a(L2441458050L
L0L
(lp3315
(lp3316
tp3317
a(L336550648L
L0L
(lp3318
(lp3319
tp3320
a(L834617250L
L0L
(lp3321
(lp3322
tp3323
a(L106L
L0L
(lp3324
(lp3325
tp3326
a(L3105826411L
L3785322319L
(lp3327
(lp3328
Vesp_rom_spiflash_wait_idle
p3329
atp3330
a(L3021737L
L0L
(lp3331
(lp3332
tp3333
a(L106L
L0L
(lp3334
(lp3335
tp3336
a(L1868280504L
L0L
(lp3337
(lp3338
tp3339
a(L106L
L0L
(lp3340
(lp3341
tp3342
a(L1504811040L
L0L
(lp3343
(lp3344
tp3345
a(L1221163038L
L0L
(lp3346
(lp3347
tp3348
a(L4122060822L
L0L
(lp3349
(lp3350
tp3351
a(L3654636374L
L0L
(lp3352
(lp3353
tp3354
a(L2989032L
L0L
(lp3355
(lp3356
tp3357
a(L3819849625L
L0L
(lp3358
(lp3359
tp3360
a(L3319041088L
L0L
(lp3361
(lp3362
tp3363
a(L1429756495L
L0L
(lp3364
(lp3365
tp3366
a(L3901822013L
L0L
(lp3367
(lp3368
tp3369
a(L467890650L
L0L
(lp3370
(lp3371
tp3372
a(L2921907736L
L0L
(lp3373
(lp3374
tp3375
a(L1328428270L
L0L
(lp3376
(lp3377
tp3378
a(L3853853049L
L0L
(lp3379
(lp3380
tp3381
a(L2287305731L
L0L
(lp3382
(lp3383
tp3384
a(L1996371968L
L0L
(lp3385
(lp3386
tp3387
a(L781550816L
L0L
(lp3388
(lp3389
tp3390
a(L2687789892L
L0L
(lp3391
(lp3392
tp3393
a(L1405253496L
L0L
(lp3394
(lp3395
tp3396
a(L2880310901L
L0L
(lp3397
(lp3398
tp3399
a(L97689L
L0L
(lp3400
(lp3401
tp3402
a(L1183020347L
L0L
(lp3403
(lp3404
tp3405
a(L4014024819L
L0L
(lp3406
(lp3407
tp3408
a(L3621567083L
L0L
(lp3409
(lp3410
tp3411
atp3412
sI1074240968
(Vprocess_image_header
p3413
(lp3414
(L2432076612L
L3785322319L
(lp3415
(lp3416
Vbootloader_flash_read
p3417
atp3418
a(L3020204L
L0L
(lp3419
(lp3420
tp3421
a(L4130667142L
L0L
(lp3422
(lp3423
tp3424
a(L3131381282L
L0L
(lp3425
(lp3426
tp3427
a(L1161397362L
L3785322319L
(lp3428
(lp3429
Vbootloader_sha256_start
p3430
atp3431
a(L1948257695L
L3785322319L
(lp3432
(lp3433
Vbootloader_sha256_data
p3434
atp3435
a(L1095449651L
L0L
(lp3436
(lp3437
tp3438
a(L3020204L
L0L
(lp3439
(lp3440
tp3441
a(L702738166L
L0L
(lp3442
(lp3443
tp3444
a(L3360570486L
L0L
(lp3445
(lp3446
tp3447
a(L3574849315L
L3785322319L
(lp3448
(lp3449
Vesp_log_early_timestamp
p3450
atp3451
a(L3718883008L
L3785322319L
(lp3452
(lp3453
Vbootloader_common_check_chip_validity
p3454
atp3455
a(L3677035427L
L0L
(lp3456
(lp3457
tp3458
a(L3028481L
L0L
(lp3459
(lp3460
tp3461
a(L2685163490L
L3785322319L
(lp3462
(lp3463
Vesp_log_early_timestamp
p3464
atp3465
a(L2250109166L
L0L
(lp3466
(lp3467
tp3468
a(L1235012870L
L0L
(lp3469
(lp3470
tp3471
a(L3063569071L
L0L
(lp3472
(lp3473
tp3474
atp3475
sI1074245064
(Vrtc_clk_8md256_enabled
p3476
(lp3477
(L791146723L
L0L
(lp3478
(lp3479
tp3480
atp3481
sI1074235860
(Vbootloader_write_status_8b_xmc25qu64a
p3482
(lp3483
(L3384403718L
L1157885199L
(lp3484
(lp3485
Vbootloader_execute_flash_command
p3486
aVesp_rom_spiflash_wait_idle
p3487
aVbootloader_execute_flash_command
p3488
aVesp_rom_spiflash_wait_idle
p3489
aVbootloader_execute_flash_command
p3490
atp3491
atp3492
sI1074236884
(Vefuse_hal_get_major_chip_version
p3493
(lp3494
(L1999356974L
L0L
(lp3495
(lp3496
tp3497
a(L894792960L
L0L
(lp3498
(lp3499
tp3500
a(L3783348505L
L0L
(lp3501
(lp3502
tp3503
a(L3360570486L
L0L
(lp3504
(lp3505
tp3506
atp3507
sI1074237140
(Vbootloader_common_check_chip_validity
p3508
(lp3509
(L392423210L
L0L
(lp3510
(lp3511
tp3512
a(L1860455003L
L3785322319L
(lp3513
(lp3514
Vesp_log_early_timestamp
p3515
atp3516
a(L522103407L
L3785322319L
(lp3517
(lp3518
Vefuse_hal_chip_revision
p3519
atp3520
a(L106L
L0L
(lp3521
(lp3522
tp3523
a(L4098603684L
L0L
(lp3524
(lp3525
tp3526
a(L3465733891L
L3785322319L
(lp3527
(lp3528
Vesp_log_early_timestamp
p3529
atp3530
a(L3028464L
L0L
(lp3531
(lp3532
tp3533
a(L1397322129L
L0L
(lp3534
(lp3535
tp3536
a(L3021749L
L0L
(lp3537
(lp3538
tp3539
a(L4207974593L
L3785322319L
(lp3540
(lp3541
Vesp_log_early_timestamp
p3542
atp3543
a(L1299867982L
L0L
(lp3544
(lp3545
tp3546
a(L3360570486L
L0L
(lp3547
(lp3548
tp3549
atp3550
sI1074238672
(Vlog_invalid_app_partition
p3551
(lp3552
(L3521327925L
L0L
(lp3553
(lp3554
tp3555
a(L3028464L
L0L
(lp3556
(lp3557
tp3558
a(L464326025L
L3785322319L
(lp3559
(lp3560
Vesp_log_early_timestamp
p3561
atp3562
a(L283255622L
L0L
(lp3563
(lp3564
tp3565
a(L3360570486L
L0L
(lp3566
(lp3567
tp3568
a(L4216513345L
L3785322319L
(lp3569
(lp3570
Vesp_log_early_timestamp
p3571
atp3572
a(L3273373042L
L3785322319L
(lp3573
(lp3574
Vesp_log_early_timestamp
p3575
atp3576
atp3577
sI1074243280
(Vwdt_hal_init
p3578
(lp3579
(L451036725L
L0L
(lp3580
(lp3581
tp3582
a(L3747970116L
L0L
(lp3583
(lp3584
tp3585
a(L2805932845L
L0L
(lp3586
(lp3587
tp3588
a(L990556070L
L0L
(lp3589
(lp3590
tp3591
a(L3661820987L
L0L
(lp3592
(lp3593
tp3594
a(L3360570486L
L0L
(lp3595
(lp3596
tp3597
a(L3003609849L
L0L
(lp3598
(lp3599
tp3600
atp3601
sI1074245328
(Vrtc_clk_xtal_freq_get
p3602
(lp3603
(L494606871L
L0L
(lp3604
(lp3605
tp3606
a(L2847936993L
L0L
(lp3607
(lp3608
tp3609
a(L2402598450L
L0L
(lp3610
(lp3611
tp3612
a(L3360570486L
L0L
(lp3613
(lp3614
tp3615
atp3616
sI1074248400
(Vesp_rom_spiflash_write
p3617
(lp3618
(L1933873671L
L0L
(lp3619
(lp3620
tp3621
a(L2258688483L
L0L
(lp3622
(lp3623
tp3624
a(L3360570486L
L0L
(lp3625
(lp3626
tp3627
a(L3368132847L
L0L
(lp3628
(lp3629
tp3630
a(L3106685981L
L0L
(lp3631
(lp3632
tp3633
a(L3488660639L
L3785322319L
(lp3634
(lp3635
Vesp_rom_spiflash_program_page_internal
p3636
atp3637
a(L3543402353L
L3785322319L
(lp3638
(lp3639
Vesp_rom_spiflash_program_page_internal
p3640
atp3641
a(L4222526342L
L0L
(lp3642
(lp3643
tp3644
a(L2004208511L
L0L
(lp3645
(lp3646
tp3647
a(L564470656L
L0L
(lp3648
(lp3649
tp3650
a(L2988842384L
L3785322319L
(lp3651
(lp3652
Vesp_rom_spiflash_program_page_internal
p3653
atp3654
a(L2302069176L
L0L
(lp3655
(lp3656
tp3657
atp3658
sI1074268884
(Vbootloader_random_enable
p3659
(lp3660
(L2481830133L
L0L
(lp3661
(lp3662
tp3663
atp3664
sI1074239704
(Vbootloader_utility_get_selected_boot_partition
p3665
(lp3666
(L2803238495L
L0L
(lp3667
(lp3668
tp3669
a(L1299867982L
L0L
(lp3670
(lp3671
tp3672
a(L3360570486L
L0L
(lp3673
(lp3674
tp3675
a(L3281482558L
L0L
(lp3676
(lp3677
tp3678
a(L3121032705L
L3785322319L
(lp3679
(lp3680
Vesp_log_early_timestamp
p3681
atp3682
a(L809594436L
L0L
(lp3683
(lp3684
tp3685
a(L1375577398L
L3785322319L
(lp3686
(lp3687
Vbootloader_mmap
p3688
atp3689
a(L63610766L
L3785322319L
(lp3690
(lp3691
Vesp_log_early_timestamp
p3692
atp3693
a(L3101389472L
L1880226080L
(lp3694
(lp3695
Vbootloader_munmap
p3696
aVbootloader_common_ota_select_invalid
p3697
atp3698
a(L1103573946L
L0L
(lp3699
(lp3700
tp3701
a(L1876827316L
L3785322319L
(lp3702
(lp3703
Vbootloader_common_get_active_otadata
p3704
atp3705
a(L569346373L
L0L
(lp3706
(lp3707
tp3708
a(L3111084448L
L3785322319L
(lp3709
(lp3710
Vbootloader_common_ota_select_invalid
p3711
atp3712
a(L45272527L
L0L
(lp3713
(lp3714
tp3715
a(L847230968L
L0L
(lp3716
(lp3717
tp3718
a(L505081345L
L0L
(lp3719
(lp3720
tp3721
a(L919052234L
L3785322319L
(lp3722
(lp3723
Vbootloader_common_ota_select_crc
p3724
atp3725
a(L2287680455L
L0L
(lp3726
(lp3727
tp3728
a(L3542558037L
L3785322319L
(lp3729
(lp3730
Vbootloader_common_ota_select_crc
p3731
atp3732
a(L1299866312L
L0L
(lp3733
(lp3734
tp3735
a(L1849240841L
L0L
(lp3736
(lp3737
tp3738
a(L2152820954L
L3785322319L
(lp3739
(lp3740
Vesp_log_early_timestamp
p3741
atp3742
a(L190989796L
L0L
(lp3743
(lp3744
tp3745
a(L4142632780L
L3785322319L
(lp3746
(lp3747
Vesp_log_early_timestamp
p3748
atp3749
atp3750
sI1074240740
(Vabort
p3751
(lp3752
(L2403762666L
L0L
(lp3753
(lp3754
tp3755
a(L409471316L
L0L
(lp3756
(lp3757
tp3758
a(L106L
L0L
(lp3759
(lp3760
tp3761
atp3762
sI1074236644
(Vbootloader_common_get_chip_ver_pkg
p3763
(lp3764
(L4238672956L
L0L
(lp3765
(lp3766
tp3767
atp3768
sI1074237412
(Vbootloader_common_ota_select_invalid
p3769
(lp3770
(L4027567199L
L0L
(lp3771
(lp3772
tp3773
a(L3397985842L
L0L
(lp3774
(lp3775
tp3776
a(L2258867228L
L0L
(lp3777
(lp3778
tp3779
a(L3785235668L
L0L
(lp3780
(lp3781
tp3782
atp3783
sI1074269932
(Vbootloader_console_init
p3784
(lp3785
(L1241556179L
L1832448559L
(lp3786
(lp3787
Vesp_rom_uart_tx_wait_idle
p3788
aVrtc_clk_apb_freq_get
p3789
aVesp_rom_uart_set_clock_baudrate
p3790
atp3791
atp3792
sI1074235104
(Vbootloader_execute_flash_command
p3793
(lp3794
(L2481595632L
L3785322319L
(lp3795
(lp3796
Vbootloader_flash_execute_command_common
p3797
atp3798
atp3799
sI1074244320
(Vwdt_hal_enable
p3800
(lp3801
(L2299130915L
L0L
(lp3802
(lp3803
tp3804
a(L165794138L
L0L
(lp3805
(lp3806
tp3807
a(L3360570486L
L0L
(lp3808
(lp3809
tp3810
a(L2847657174L
L0L
(lp3811
(lp3812
tp3813
atp3814
sI1074245088
(Vrtc_clk_slow_src_set
p3815
(lp3816
(L540459879L
L0L
(lp3817
(lp3818
tp3819
a(L3020187L
L0L
(lp3820
(lp3821
tp3822
a(L3028481L
L0L
(lp3823
(lp3824
tp3825
a(L487821223L
L0L
(lp3826
(lp3827
tp3828
a(L3164699159L
L0L
(lp3829
(lp3830
tp3831
a(L1851908495L
L0L
(lp3832
(lp3833
tp3834
a(L1156302086L
L0L
(lp3835
(lp3836
tp3837
a(L3138544334L
L0L
(lp3838
(lp3839
tp3840
a(L94425498L
L3785322319L
(lp3841
(lp3842
Vabort
p3843
atp3844
atp3845
sI1074245600
(Vrtc_clk_xtal_freq_update
p3846
(lp3847
(L328668897L
L0L
(lp3848
(lp3849
tp3850
a(L3509357017L
L0L
(lp3851
(lp3852
tp3853
a(L2266180931L
L0L
(lp3854
(lp3855
tp3856
atp3857
sI1074239980
(Vbootloader_reset
p3858
(lp3859
(L1447552070L
L3785322319L
(lp3860
(lp3861
Vbootloader_console_deinit
p3862
atp3863
a(L106L
L0L
(lp3864
(lp3865
tp3866
atp3867
sI1074268644
(Vbootloader_clock_configure
p3868
(lp3869
(L2559598596L
L1880226080L
(lp3870
(lp3871
Vesp_rom_uart_tx_wait_idle
p3872
aVefuse_hal_chip_revision
p3873
atp3874
a(L377556189L
L0L
(lp3875
(lp3876
tp3877
a(L883406775L
L0L
(lp3878
(lp3879
tp3880
a(L106L
L0L
(lp3881
(lp3882
tp3883
a(L4055587691L
L1832448559L
(lp3884
(lp3885
Vrtc_clk_slow_src_get
p3886
aVrtc_clk_fast_src_get
p3887
aVrtc_clk_init
p3888
atp3889
a(L2555738642L
L0L
(lp3890
(lp3891
tp3892
a(L1660176588L
L3785322319L
(lp3893
(lp3894
Vrtc_clk_apb_freq_get
p3895
atp3896
a(L106L
L0L
(lp3897
(lp3898
tp3899
a(L106L
L0L
(lp3900
(lp3901
tp3902
atp3903
sI1074269924
(Vbootloader_enable_random
p3904
(lp3905
(L1287383080L
L3785322319L
(lp3906
(lp3907
Vbootloader_random_enable
p3908
atp3909
atp3910
sI1074270200
(Vrtc_clk_init
p3911
(lp3912
(L3203660237L
L0L
(lp3913
(lp3914
tp3915
a(L42671777L
L3785322319L
(lp3916
(lp3917
Vrtc_clk_cpu_freq_to_xtal
p3918
atp3919
a(L4207943434L
L3785322319L
(lp3920
(lp3921
Vrtc_clk_xtal_freq_get
p3922
atp3923
a(L89029051L
L0L
(lp3924
(lp3925
tp3926
a(L4187693717L
L3785322319L
(lp3927
(lp3928
Vrtc_clk_xtal_freq_estimate
p3929
atp3930
a(L755739346L
L3785322319L
(lp3931
(lp3932
Vesp_log_early_timestamp
p3933
atp3934
a(L1144767841L
L1157885199L
(lp3935
(lp3936
Vesp_rom_uart_tx_wait_idle
p3937
aVrtc_clk_xtal_freq_update
p3938
aVrtc_clk_apb_freq_update
p3939
aVrtc_clk_cpu_freq_get_config
p3940
aVrtc_clk_cpu_freq_mhz_to_config
p3941
atp3942
a(L3662401972L
L1880226080L
(lp3943
(lp3944
Vesp_log_early_timestamp
p3945
aVabort
p3946
atp3947
a(L3028481L
L0L
(lp3948
(lp3949
tp3950
a(L4070631611L
L3785322319L
(lp3951
(lp3952
Vrtc_clk_xtal_freq_estimate
p3953
atp3954
a(L3344371599L
L3785322319L
(lp3955
(lp3956
Vesp_log_early_timestamp
p3957
atp3958
a(L1715681963L
L3785322319L
(lp3959
(lp3960
Vrtc_clk_cpu_freq_set_config
p3961
atp3962
a(L912310138L
L3785322319L
(lp3963
(lp3964
Vrtc_clk_32k_enable
p3965
atp3966
a(L3191820416L
L1832448559L
(lp3967
(lp3968
Vrtc_clk_8m_enable
p3969
aVrtc_clk_fast_src_set
p3970
aVrtc_clk_slow_src_set
p3971
atp3972
a(L1232958848L
L0L
(lp3973
(lp3974
tp3975
atp3976
sI1074234612
(Vesp_flash_encryption_enabled
p3977
(lp3978
(L376617603L
L3785322319L
(lp3979
(lp3980
Vefuse_hal_flash_encryption_enabled
p3981
atp3982
atp3983
sI1074238964
(Vcache_ll_l1_enable_bus
p3984
(lp3985
(L3703586533L
L0L
(lp3986
(lp3987
tp3988
atp3989
sI1074244852
(Vrtc_clk_32k_enable
p3990
(lp3991
(L753387299L
L0L
(lp3992
(lp3993
tp3994
a(L3776007933L
L3785322319L
(lp3995
(lp3996
Vrtc_clk_32k_enable_common
p3997
atp3998
a(L3496950L
L0L
(lp3999
(lp4000
tp4001
a(L3974686761L
L0L
(lp4002
(lp4003
tp4004
atp4005
sI1074247156
(Vesp_rom_spiflash_read_status
p4006
(lp4007
(L2021440545L
L0L
(lp4008
(lp4009
tp4010
a(L1182811815L
L0L
(lp4011
(lp4012
tp4013
a(L3767893221L
L0L
(lp4014
(lp4015
tp4016
a(L106L
L0L
(lp4017
(lp4018
tp4019
a(L3778204656L
L0L
(lp4020
(lp4021
tp4022
a(L3274807848L
L0L
(lp4023
(lp4024
tp4025
a(L2123059967L
L0L
(lp4026
(lp4027
tp4028
a(L3146966332L
L0L
(lp4029
(lp4030
tp4031
a(L2392720019L
L0L
(lp4032
(lp4033
tp4034
atp4035
sI1074240252
(Vindex_to_partition
p4036
(lp4037
(L4066096119L
L0L
(lp4038
(lp4039
tp4040
a(L1739185955L
L0L
(lp4041
(lp4042
tp4043
a(L2171552758L
L0L
(lp4044
(lp4045
tp4046
a(L2808906342L
L0L
(lp4047
(lp4048
tp4049
a(L2101481936L
L0L
(lp4050
(lp4051
tp4052
a(L3698927993L
L0L
(lp4053
(lp4054
tp4055
a(L2808826781L
L0L
(lp4056
(lp4057
tp4058
a(L3003398163L
L0L
(lp4059
(lp4060
tp4061
a(L2880709161L
L0L
(lp4062
(lp4063
tp4064
a(L1087646172L
L0L
(lp4065
(lp4066
tp4067
atp4068
sI1074240504
(Vbootloader_sha256_finish
p4069
(lp4070
(L4066096136L
L0L
(lp4071
(lp4072
tp4073
a(L1918014298L
L0L
(lp4074
(lp4075
tp4076
a(L3627025138L
L3785322319L
(lp4077
(lp4078
V__assert_func
p4079
atp4080
a(L3020204L
L0L
(lp4081
(lp4082
tp4083
a(L1140538619L
L0L
(lp4084
(lp4085
tp4086
a(L2534656226L
L0L
(lp4087
(lp4088
tp4089
a(L2746554839L
L3785322319L
(lp4090
(lp4091
Vbootloader_sha256_data
p4092
atp4093
a(L2437171593L
L0L
(lp4094
(lp4095
tp4096
a(L770086497L
L3785322319L
(lp4097
(lp4098
Vbootloader_sha256_data
p4099
atp4100
a(L2482436287L
L0L
(lp4101
(lp4102
tp4103
a(L657425439L
L0L
(lp4104
(lp4105
tp4106
a(L3971462626L
L0L
(lp4107
(lp4108
tp4109
a(L657425439L
L0L
(lp4110
(lp4111
tp4112
a(L1808515429L
L0L
(lp4113
(lp4114
tp4115
a(L4004422193L
L0L
(lp4116
(lp4117
tp4118
a(L3347778L
L0L
(lp4119
(lp4120
tp4121
a(L3360570486L
L0L
(lp4122
(lp4123
tp4124
atp4125
sI1074245368
(Vrtc_clk_cpu_freq_mhz_to_config
p4126
(lp4127
(L908718885L
L3785322319L
(lp4128
(lp4129
Vrtc_clk_xtal_freq_get
p4130
atp4131
a(L60460069L
L0L
(lp4132
(lp4133
tp4134
a(L3802072124L
L0L
(lp4135
(lp4136
tp4137
a(L3159006042L
L0L
(lp4138
(lp4139
tp4140
a(L3360570486L
L0L
(lp4141
(lp4142
tp4143
a(L895147205L
L0L
(lp4144
(lp4145
tp4146
a(L3970036657L
L0L
(lp4147
(lp4148
tp4149
a(L2731353429L
L0L
(lp4150
(lp4151
tp4152
a(L1555485793L
L0L
(lp4153
(lp4154
tp4155
a(L2258897023L
L0L
(lp4156
(lp4157
tp4158
a(L1947499251L
L0L
(lp4159
(lp4160
tp4161
a(L1306331021L
L0L
(lp4162
(lp4163
tp4164
atp4165
ssS'functionsdups'
p4166
g11
((lp4167
tp4168
Rp4169
sS'immediatedups'
p4170
g11
((lp4171
tp4172
Rp4173
sS'functiondups'
p4174
g11
((lp4175
tp4176
Rp4177
sS'fuzzy'
p4178
(dp4179
L438947497L
I1074245088
sL2170867428L
I1074270200
sL617583950L
I1074237140
sL1694124286L
I1074235860
sL430153639L
I1074236028
sL3121027072L
I1074270636
sL2082889262L
I1074241612
sL835568324L
I1074246528
sL3107765941L
I1074269372
sL1340445289L
I1074235528
sL2919016435L
I1074235136
sL16208487L
I1074234624
sL2319042089L
I1074245220
sL1907123383L
I1074239016
sL3881399234L
I1074245672
sL151789201L
I1074270016
sL1419132215L
I1074238264
sL4026659104L
I1074269640
sL2469233929L
I1074240504
sL701833459L
I1074268644
sL720751058L
I1074244644
sL2475522855L
I1074269932
sL3897252859L
I1074238672
sL1937794608L
I1074247544
sL1065525808L
I1074236980
sL1766137975L
I1074238880
sL2216817938L
I1074267976
sL2327783177L
I1074240796
sL2272466760L
I1074245460
sL2117292686L
I1074241216
sL1188065553L
I1074237824
sL1415908896L
I1074241832
sL94556391L
I1074245248
sL3210669721L
I1074244852
sL1332800441L
I1074237372
sL2884218272L
I1074267756
sL1345429244L
I1074240968
sL3190020590L
I1074242456
sL4160102055L
I1074239980
sL4202185385L
I1074247244
sL1768086576L
I1074236496
sL4171975289L
I1074248264
sL1565254297L
I1074248564
sL1205407754L
I1074240012
sL2191698036L
I1074269796
sL1635528231L
I1074243876
sL519424169L
I1074246996
sL1060788199L
I1074245368
sL4006207895L
I1074239392
sL406720601L
I1074238756
sL737694352L
I1074247352
sL503029138L
I1074247292
sL1616763831L
I1074248652
sL2262558768L
I1074247156
sL424867129L
I1074248400
sL3791345684L
I1074235812
sL3834155367L
I1074241160
sL2405032630L
I1074267648
sL3338518926L
I1074237548
sL1299206787L
I1074239492
sL2123938668L
I1074245788
sL3883282432L
I1074241704
sL4173399607L
I1074242992
sL4278077574L
I1074239704
sL1667054119L
I1074240348
sL206902443L
I1074238096
ssb.