ccopy_reg
_reconstructor
p0
(crizzo
RizzoSignature
p1
c__builtin__
object
p2
Ntp3
Rp4
(dp5
S'formal'
p6
(dp7
L2220942432L
I1074239980
sL993736250L
I1074239948
sL1128390976L
I1074246924
sL3632692355L
I1074244608
sL1741170115L
I1074237972
sL268856855L
I1074268868
sL664041862L
I1074247252
sL1456432348L
I1074246956
sL1052110241L
I1074238652
sL1302213258L
I1074245760
sL3668390576L
I1074240316
sL3976128745L
I1074270468
sL1237733855L
I1074238860
sL3380938655L
I1074243244
sL4213015302L
I1074242924
sL72981575L
I1074237668
sL151991824L
I1074245036
sL3545118830L
I1074267740
sL3705409018L
I1074238568
sL2991275884L
I1074236632
sL2420455533L
I1074269372
sL4103874998L
I1074270308
sL3567680394L
I1074267139
sL2702580795L
I1074237336
sL3846506600L
I1074243840
sL4191608057L
I1074247504
sL4153343676L
I1074244356
sL29174415L
I1074247640
sL1437660804L
I1074244404
sL2896295319L
I1074236728
sL3284957946L
I1074267628
sL1078524543L
I1074240296
sL4086940577L
I1074247804
sL4227981368L
I1074238240
sL1073188812L
I1074235664
sL1674148343L
I1074245340
sL2682232989L
I1074269640
sL3488383919L
I1074244764
sL2058439413L
I1074235528
sL2485902447L
I1074236568
sL935715980L
I1074236392
sL608548618L
I1074244472
sL1430212718L
I1074236932
sL4241107353L
I1074240936
sL3647270195L
I1074241672
sL1585823442L
I1074244256
sL1622896354L
I1074244284
sL2884652713L
I1074269688
sL1031011373L
I1074247116
sL2000651361L
I1074269468
sL939528799L
I1074240708
sL1990489281L
I1074236832
sL3171431521L
I1074236244
sL3934645487L
I1074236700
sL2936866151L
I1074269396
sL1152036801L
I1074245300
sL3362944025L
I1074247312
sL1080493334L
I1074239616
sL3690207104L
I1074239404
sL1011857723L
I1074239288
sL3007247178L
I1074238828
sL1002690746L
I1074242956
sL1487583440L
I1074245432
sL1848265815L
I1074244824
sL768348750L
I1074238776
sL1296568266L
I1074247892
sL3746397897L
I1074244156
sL3307282855L
I1074238132
sL3783111156L
I1074240668
sL2262796883L
I1074247204
sL3939485250L
I1074269604
sL491963612L
I1074237204
sL2050311845L
I1074238160
sL1043339424L
I1074240220
sL165672270L
I1074236592
sL690393781L
I1074241580
sL3617253641L
I1074245644
sL3944659338L
I1074246444
sL1772737844L
I1074245060
sL3371457387L
I1074269440
sL4038945309L
I1074235480
sL3544828908L
I1074237720
sL3635157259L
I1074235776
sL2626436395L
I1074236876
sL21429742L
I1074236800
sL1696087219L
I1074267960
sL714309949L
I1074240764
sL771111768L
I1074269872
sL2997001746L
I1074237164
sL3737224053L
I1074239892
sL1830125216L
I1074237412
sL152949160L
I1074268628
sL2843877179L
I1074245220
sL4033219551L
I1074269356
sL2819127986L
I1074236896
sL2671478917L
I1074237992
sL1346530812L
I1074237240
sL1877634603L
I1074270548
sL485067553L
I1074245012
sL4057905431L
I1074238912
sL3834134849L
I1074246488
sL3858674481L
I1074242424
sL1074782686L
I1074244444
sL3649526100L
I1074244188
sL2068015258L
I1074241800
sL2263182908L
I1074238152
sL3249738345L
I1074236424
sL3586920208L
I1074236488
sL1244364279L
I1074240472
sL1267159130L
I1074235136
sL3630163135L
I1074236716
sL188664287L
I1074235104
sL2049984212L
I1074244884
sL3670064932L
I1074268572
sL692536993L
I1074237308
sL1660568349L
I1074241184
sL1963047656L
I1074234624
sL3753509968L
I1074237224
sL2949266209L
I1074240684
sL2662116679L
I1074237444
sL1621098576L
I1074242940
sL1636616062L
I1074235428
sL4271242081L
I1074245192
sL16109064L
I1074241128
sL612796283L
I1074245572
sL707696595L
I1074245616
sL626638502L
I1074245284
ssS'immediates'
p8
(dp9
sS'formaldups'
p10
c__builtin__
set
p11
((lp12
tp13
Rp14
sS'stringdups'
p15
g11
((lp16
tp17
Rp18
sS'fuzzydups'
p19
g11
((lp20
tp21
Rp22
sS'strings'
p23
(dp24
sS'functions'
p25
(dp26
I1074236932
(Vbootloader_common_check_chip_validity
p27
(lp28
(L392423210L
L0L
(lp29
(lp30
tp31
a(L1681335572L
L3785322319L
(lp32
(lp33
Vesp_log_early_timestamp
p34
atp35
a(L522103407L
L3785322319L
(lp36
(lp37
Vefuse_hal_chip_revision
p38
atp39
a(L106L
L0L
(lp40
(lp41
tp42
a(L1989150608L
L0L
(lp43
(lp44
tp45
a(L865579151L
L3785322319L
(lp46
(lp47
Vesp_log_early_timestamp
p48
atp49
a(L3028464L
L0L
(lp50
(lp51
tp52
a(L1397322129L
L0L
(lp53
(lp54
tp55
a(L3021749L
L0L
(lp56
(lp57
tp58
a(L240495317L
L3785322319L
(lp59
(lp60
Vesp_log_early_timestamp
p61
atp62
a(L1299867982L
L0L
(lp63
(lp64
tp65
a(L3360570486L
L0L
(lp66
(lp67
tp68
atp69
sI1074237444
(Vbootloader_mmap
p70
(lp71
(L1582260584L
L0L
(lp72
(lp73
tp74
a(L4003788881L
L3785322319L
(lp75
(lp76
Vesp_log_early_timestamp
p77
atp78
a(L3871473710L
L0L
(lp79
(lp80
tp81
a(L3729184599L
L0L
(lp82
(lp83
tp84
a(L1968302626L
L3785322319L
(lp85
(lp86
Vesp_log_early_timestamp
p87
atp88
a(L4137098504L
L0L
(lp89
(lp90
tp91
a(L3375484059L
L3785322319L
(lp92
(lp93
Vesp_log_early_timestamp
p94
atp95
a(L1849001032L
L0L
(lp96
(lp97
tp98
a(L3782281022L
L3785322319L
(lp99
(lp100
Vesp_log_early_timestamp
p101
atp102
a(L1558023356L
L0L
(lp103
(lp104
tp105
atp106
sI1074244356
(Vmmu_hal_init
p107
(lp108
(L3251987510L
L0L
(lp109
(lp110
tp111
a(L2010554219L
L0L
(lp112
(lp113
tp114
a(L3268103L
L0L
(lp115
(lp116
tp117
a(L3212334523L
L0L
(lp118
(lp119
tp120
a(L2010554219L
L0L
(lp121
(lp122
tp123
a(L3360570486L
L0L
(lp124
(lp125
tp126
atp127
sI1074235136
(Vbootloader_flash_unlock
p128
(lp129
(L2851757134L
L3785322319L
(lp130
(lp131
Vesp_rom_spiflash_wait_idle
p132
atp133
a(L4212373562L
L0L
(lp134
(lp135
tp136
a(L4292483033L
L3785322319L
(lp137
(lp138
Vbootloader_execute_flash_command
p139
atp140
a(L106L
L0L
(lp141
(lp142
tp143
a(L1303560644L
L0L
(lp144
(lp145
tp146
a(L610618440L
L0L
(lp147
(lp148
tp149
a(L106L
L0L
(lp150
(lp151
tp152
a(L345249462L
L0L
(lp153
(lp154
tp155
a(L106L
L0L
(lp156
(lp157
tp158
a(L1024465569L
L0L
(lp159
(lp160
tp161
a(L106L
L0L
(lp162
(lp163
tp164
a(L1481761147L
L1880226080L
(lp165
(lp166
Vbootloader_execute_flash_command
p167
aVbootloader_execute_flash_command
p168
atp169
a(L2258807654L
L0L
(lp170
(lp171
tp172
a(L489806350L
L1832448559L
(lp173
(lp174
Vesp_rom_spiflash_wait_idle
p175
aVbootloader_execute_flash_command
p176
aVbootloader_execute_flash_command
p177
atp178
a(L879744646L
L1832448559L
(lp179
(lp180
Vesp_rom_spiflash_wait_idle
p181
aVbootloader_execute_flash_command
p182
aVbootloader_execute_flash_command
p183
atp184
a(L1840772931L
L1880226080L
(lp185
(lp186
Vesp_rom_spiflash_wait_idle
p187
aVbootloader_execute_flash_command
p188
atp189
a(L2993202392L
L0L
(lp190
(lp191
tp192
a(L508800419L
L1880226080L
(lp193
(lp194
Vbootloader_execute_flash_command
p195
aVbootloader_execute_flash_command
p196
atp197
a(L1303560369L
L0L
(lp198
(lp199
tp200
a(L1596544945L
L0L
(lp201
(lp202
tp203
a(L97689L
L0L
(lp204
(lp205
tp206
a(L106L
L0L
(lp207
(lp208
tp209
atp210
sI1074234624
(Vbootloader_flash_execute_command_common
p211
(lp212
(L3865052895L
L0L
(lp213
(lp214
tp215
a(L120556223L
L0L
(lp216
(lp217
tp218
a(L2890397610L
L3785322319L
(lp219
(lp220
V__assert_func
p221
atp222
a(L3021749L
L0L
(lp223
(lp224
tp225
a(L153203357L
L0L
(lp226
(lp227
tp228
a(L3967919202L
L0L
(lp229
(lp230
tp231
a(L2091933878L
L0L
(lp232
(lp233
tp234
a(L1702379862L
L0L
(lp235
(lp236
tp237
a(L2587060668L
L0L
(lp238
(lp239
tp240
a(L817326211L
L0L
(lp241
(lp242
tp243
a(L3244449450L
L0L
(lp244
(lp245
tp246
a(L3855586684L
L0L
(lp247
(lp248
tp249
a(L2990329343L
L0L
(lp250
(lp251
tp252
a(L2557390060L
L0L
(lp253
(lp254
tp255
a(L3333696662L
L0L
(lp256
(lp257
tp258
a(L963425213L
L0L
(lp259
(lp260
tp261
a(L339491738L
L0L
(lp262
(lp263
tp264
a(L3360570486L
L0L
(lp265
(lp266
tp267
atp268
sI1074243840
(Vwdt_hal_config_stage
p269
(lp270
(L331558507L
L0L
(lp271
(lp272
tp273
a(L4279082939L
L0L
(lp274
(lp275
tp276
a(L93674324L
L0L
(lp277
(lp278
tp279
a(L2902417580L
L0L
(lp280
(lp281
tp282
a(L177760103L
L0L
(lp283
(lp284
tp285
a(L3020187L
L0L
(lp286
(lp287
tp288
a(L94425498L
L3785322319L
(lp289
(lp290
Vabort
p291
atp292
a(L583583424L
L0L
(lp293
(lp294
tp295
a(L3360570486L
L0L
(lp296
(lp297
tp298
a(L952154508L
L0L
(lp299
(lp300
tp301
a(L1012758146L
L0L
(lp302
(lp303
tp304
a(L4278159418L
L0L
(lp305
(lp306
tp307
a(L93674324L
L0L
(lp308
(lp309
tp310
a(L3020204L
L0L
(lp311
(lp312
tp313
a(L2067421300L
L0L
(lp314
(lp315
tp316
a(L3020187L
L0L
(lp317
(lp318
tp319
a(L106L
L0L
(lp320
(lp321
tp322
a(L3660949161L
L0L
(lp323
(lp324
tp325
a(L873628278L
L0L
(lp326
(lp327
tp328
a(L2016454155L
L0L
(lp329
(lp330
tp331
atp332
sI1074244608
(Vrtc_clk_cpu_freq_to_pll_mhz
p333
(lp334
(L1393544349L
L0L
(lp335
(lp336
tp337
a(L2948700517L
L0L
(lp338
(lp339
tp340
a(L2946975786L
L0L
(lp341
(lp342
tp343
a(L3298441904L
L0L
(lp344
(lp345
tp346
a(L3680579786L
L0L
(lp347
(lp348
tp349
a(L1298905564L
L0L
(lp350
(lp351
tp352
a(L4149229916L
L3785322319L
(lp353
(lp354
Vrtc_clk_wait_for_slow_cycle
p355
atp356
a(L1611366957L
L0L
(lp357
(lp358
tp359
a(L1611366988L
L0L
(lp360
(lp361
tp362
a(L94425498L
L3785322319L
(lp363
(lp364
Vabort
p365
atp366
atp367
sI1074267136
(V_init
p368
(lp369
(L3493042598L
L0L
(lp370
(lp371
tp372
atp373
sI1074269440
(Vbootloader_check_bootloader_validity
p374
(lp375
(L1977038998L
L1880226080L
(lp376
(lp377
Vefuse_hal_chip_revision
p378
aVbootloader_common_check_chip_validity
p379
atp380
atp381
sI1074245644
(Vrtc_clk_cpu_freq_to_xtal
p382
(lp383
(L2141077330L
L0L
(lp384
(lp385
tp386
a(L94425498L
L3785322319L
(lp387
(lp388
Vabort
p389
atp390
a(L3061694082L
L3785322319L
(lp391
(lp392
Vrtc_clk_apb_freq_update
p393
atp394
a(L2258867232L
L0L
(lp395
(lp396
tp397
a(L1662590544L
L0L
(lp398
(lp399
tp400
atp401
sI1074246924
(Vrtc_clk_cal_ratio
p402
(lp403
(L606352554L
L3785322319L
(lp404
(lp405
Vrtc_clk_cal_internal
p406
atp407
atp408
sI1074267139
(V_text_start
p409
(lp410
(L1817914933L
L0L
(lp411
(lp412
tp413
atp414
sI1074270468
(Vrtc_vddsdio_set_config
p415
(lp416
(L2189075524L
L0L
(lp417
(lp418
tp419
atp420
sI1074236424
(Vesp_rom_uart_tx_wait_idle
p421
(lp422
(L851904350L
L0L
(lp423
(lp424
tp425
a(L1301079727L
L0L
(lp426
(lp427
tp428
a(L3597746521L
L0L
(lp429
(lp430
tp431
a(L3694491048L
L0L
(lp432
(lp433
tp434
a(L3055926844L
L0L
(lp435
(lp436
tp437
a(L3360570486L
L0L
(lp438
(lp439
tp440
atp441
sI1074241800
(Vprocess_segments
p442
(lp443
(L933567253L
L0L
(lp444
(lp445
tp446
a(L3285816417L
L0L
(lp447
(lp448
tp449
a(L2393526353L
L0L
(lp450
(lp451
tp452
a(L106L
L0L
(lp453
(lp454
tp455
a(L1184913234L
L0L
(lp456
(lp457
tp458
a(L1261197787L
L3785322319L
(lp459
(lp460
Vesp_log_early_timestamp
p461
atp462
a(L3491764960L
L3785322319L
(lp463
(lp464
Vbootloader_flash_read
p465
atp466
a(L2717524037L
L3785322319L
(lp467
(lp468
Vesp_log_early_timestamp
p469
atp470
a(L3871473710L
L0L
(lp471
(lp472
tp473
a(L1300630146L
L0L
(lp474
(lp475
tp476
a(L738857969L
L3785322319L
(lp477
(lp478
Vbootloader_sha256_data
p479
atp480
a(L3124001501L
L0L
(lp481
(lp482
tp483
a(L970949301L
L0L
(lp484
(lp485
tp486
a(L2400946509L
L0L
(lp487
(lp488
tp489
a(L3707716257L
L0L
(lp490
(lp491
tp492
a(L106L
L0L
(lp493
(lp494
tp495
a(L141486068L
L0L
(lp496
(lp497
tp498
a(L2587042390L
L0L
(lp499
(lp500
tp501
a(L3144087193L
L3785322319L
(lp502
(lp503
Vesp_log_early_timestamp
p504
atp505
a(L1114137787L
L0L
(lp506
(lp507
tp508
a(L568211838L
L0L
(lp509
(lp510
tp511
a(L892344967L
L3785322319L
(lp512
(lp513
Vesp_log_early_timestamp
p514
atp515
a(L2347770645L
L3785322319L
(lp516
(lp517
Vverify_load_addresses
p518
atp519
a(L106L
L0L
(lp520
(lp521
tp522
a(L299546812L
L0L
(lp523
(lp524
tp525
a(L262831199L
L0L
(lp526
(lp527
tp528
a(L3735077394L
L3785322319L
(lp529
(lp530
Vbootloader_mmap
p531
atp532
a(L3174910565L
L3785322319L
(lp533
(lp534
Vesp_log_early_timestamp
p535
atp536
a(L674351763L
L0L
(lp537
(lp538
tp539
a(L409016270L
L0L
(lp540
(lp541
tp542
a(L1652679798L
L3785322319L
(lp543
(lp544
Vbootloader_munmap
p545
atp546
a(L3425676091L
L0L
(lp547
(lp548
tp549
a(L1782223905L
L3785322319L
(lp550
(lp551
Vbootloader_fill_random
p552
atp553
a(L3570641403L
L0L
(lp554
(lp555
tp556
a(L3574335487L
L0L
(lp557
(lp558
tp559
a(L3450268858L
L0L
(lp560
(lp561
tp562
a(L3021749L
L0L
(lp563
(lp564
tp565
a(L4179164843L
L0L
(lp566
(lp567
tp568
a(L1084626871L
L0L
(lp569
(lp570
tp571
a(L2902417580L
L0L
(lp572
(lp573
tp574
a(L1513353276L
L0L
(lp575
(lp576
tp577
a(L1797921642L
L0L
(lp578
(lp579
tp580
a(L3437071223L
L0L
(lp581
(lp582
tp583
a(L3396129621L
L0L
(lp584
(lp585
tp586
a(L670934548L
L0L
(lp587
(lp588
tp589
a(L363643669L
L3785322319L
(lp590
(lp591
Vbootloader_sha256_data
p592
atp593
a(L90548756L
L0L
(lp594
(lp595
tp596
a(L4195963580L
L0L
(lp597
(lp598
tp599
a(L2394204398L
L0L
(lp600
(lp601
tp602
a(L617933722L
L0L
(lp603
(lp604
tp605
a(L308896050L
L3785322319L
(lp606
(lp607
Vshould_load
p608
atp609
a(L630320211L
L0L
(lp610
(lp611
tp612
a(L3028481L
L0L
(lp613
(lp614
tp615
a(L2176699418L
L3785322319L
(lp616
(lp617
Vbootloader_mmap_get_free_pages
p618
atp619
a(L847230985L
L0L
(lp620
(lp621
tp622
a(L3103552037L
L0L
(lp623
(lp624
tp625
atp626
sI1074244884
(Vrtc_clk_8m_enable
p627
(lp628
(L3467512228L
L0L
(lp629
(lp630
tp631
a(L958512770L
L0L
(lp632
(lp633
tp634
a(L2151320156L
L0L
(lp635
(lp636
tp637
a(L2771285420L
L0L
(lp638
(lp639
tp640
a(L3360570486L
L0L
(lp641
(lp642
tp643
a(L1318267208L
L0L
(lp644
(lp645
tp646
a(L142324239L
L0L
(lp647
(lp648
tp649
atp650
sI1074237972
(Vbootloader_flash_erase_sector
p651
(lp652
(L4129137686L
L1880226080L
(lp653
(lp654
Vesp_rom_spiflash_erase_sector
p655
aVspi_to_esp_err
p656
atp657
atp658
sI1074237204
(Vbootloader_common_reset_rtc_retain_mem
p659
(lp660
(L2156447971L
L0L
(lp661
(lp662
tp663
atp664
sI1074269468
(Vbootloader_config_wdt
p665
(lp666
(L4027912329L
L505859776L
(lp667
(lp668
Vwdt_hal_write_protect_disable
p669
aVwdt_hal_set_flashboot_en
p670
aVwdt_hal_write_protect_enable
p671
aVwdt_hal_init
p672
aVrtc_clk_slow_freq_get_hz
p673
aVwdt_hal_write_protect_disable
p674
aVwdt_hal_config_stage
p675
aVwdt_hal_enable
p676
aVwdt_hal_write_protect_enable
p677
aVwdt_hal_write_protect_disable
p678
aVwdt_hal_set_flashboot_en
p679
aVwdt_hal_write_protect_enable
p680
atp681
atp682
sI1074235664
(Vbootloader_flash_cs_timing_config
p683
(lp684
(L3246590744L
L0L
(lp685
(lp686
tp687
atp688
sI1074236700
(Vefuse_hal_get_minor_chip_version
p689
(lp690
(L3957579839L
L0L
(lp691
(lp692
tp693
atp694
sI1074237720
(Vbootloader_flash_read
p695
(lp696
(L728393898L
L0L
(lp697
(lp698
tp699
a(L2548849166L
L3785322319L
(lp700
(lp701
Vesp_log_early_timestamp
p702
atp703
a(L1024709524L
L0L
(lp704
(lp705
tp706
a(L3360570486L
L0L
(lp707
(lp708
tp709
a(L2660352519L
L0L
(lp710
(lp711
tp712
a(L1263385970L
L3785322319L
(lp713
(lp714
Vesp_log_early_timestamp
p715
atp716
a(L162336582L
L0L
(lp717
(lp718
tp719
a(L477331919L
L3785322319L
(lp720
(lp721
Vesp_log_early_timestamp
p722
atp723
a(L3020204L
L0L
(lp724
(lp725
tp726
a(L3893043951L
L0L
(lp727
(lp728
tp729
a(L97422L
L0L
(lp730
(lp731
tp732
a(L228131341L
L0L
(lp733
(lp734
tp735
a(L578201018L
L0L
(lp736
(lp737
tp738
a(L2493731370L
L3785322319L
(lp739
(lp740
V__assert_func
p741
atp742
a(L180959520L
L0L
(lp743
(lp744
tp745
a(L4094456363L
L0L
(lp746
(lp747
tp748
a(L2913359312L
L1880226080L
(lp749
(lp750
Vesp_rom_spiflash_read
p751
aVspi_to_esp_err
p752
atp753
atp754
sI1074235428
(Vbootloader_flash_read_sfdp
p755
(lp756
(L711701400L
L0L
(lp757
(lp758
tp759
a(L3178612724L
L3785322319L
(lp760
(lp761
V__assert_func
p762
atp763
a(L3704332455L
L3785322319L
(lp764
(lp765
Vbootloader_flash_execute_command_common
p766
atp767
atp768
sI1074247204
(Vesp_rom_spiflash_wait_idle
p769
(lp770
(L3233075895L
L0L
(lp771
(lp772
tp773
a(L2023766174L
L0L
(lp774
(lp775
tp776
a(L2805933915L
L0L
(lp777
(lp778
tp779
a(L3086959262L
L0L
(lp780
(lp781
tp782
a(L4161019926L
L3785322319L
(lp783
(lp784
Vesp_rom_spiflash_read_status
p785
atp786
atp787
sI1074240288
(Vbootloader_debug_buffer
p788
(lp789
(L2100504542L
L0L
(lp790
(lp791
tp792
atp793
sI1074238240
(Vbootloader_random_disable
p794
(lp795
(L138166289L
L0L
(lp796
(lp797
tp798
atp799
sI1074241580
(Vprocess_appended_hash_and_sig
p800
(lp801
(L1668084157L
L0L
(lp802
(lp803
tp804
a(L2910371777L
L0L
(lp805
(lp806
tp807
a(L1591589631L
L0L
(lp808
(lp809
tp810
a(L2551256078L
L0L
(lp811
(lp812
tp813
a(L1823937325L
L0L
(lp814
(lp815
tp816
a(L4265525007L
L3785322319L
(lp817
(lp818
Vesp_log_early_timestamp
p819
atp820
a(L2268304300L
L3785322319L
(lp821
(lp822
Vbootloader_flash_read
p823
atp824
a(L3871473710L
L0L
(lp825
(lp826
tp827
atp828
sI1074236716
(Vesp_dport_access_reg_read
p829
(lp830
(L1099794772L
L0L
(lp831
(lp832
tp833
atp834
sI1074246444
(Vrtc_clk_apb_freq_get
p835
(lp836
(L2902813935L
L0L
(lp837
(lp838
tp839
atp840
sI1074246956
(Vrtc_clk_wait_for_slow_cycle
p841
(lp842
(L3449098939L
L0L
(lp843
(lp844
tp845
a(L287687718L
L0L
(lp846
(lp847
tp848
a(L3360570486L
L0L
(lp849
(lp850
tp851
a(L2148819204L
L0L
(lp852
(lp853
tp854
a(L2994547433L
L0L
(lp855
(lp856
tp857
a(L3575231359L
L0L
(lp858
(lp859
tp860
a(L2501579230L
L3785322319L
(lp861
(lp862
Vesp_log_early_timestamp
p863
atp864
atp865
sI1074240296
(Vbootloader_sha256_start
p866
(lp867
(L1796316433L
L0L
(lp868
(lp869
tp870
atp871
sI1074237224
(Vbootloader_common_get_rtc_retain_mem_partition
p872
(lp873
(L1838455070L
L3785322319L
(lp874
(lp875
Vcheck_rtc_retain_mem
p876
atp877
a(L702737588L
L0L
(lp878
(lp879
tp880
a(L3360570486L
L0L
(lp881
(lp882
tp883
atp884
sI1074237992
(Vbootloader_flash_write
p885
(lp886
(L3770380603L
L0L
(lp887
(lp888
tp889
a(L1224521598L
L3785322319L
(lp890
(lp891
Vesp_log_early_timestamp
p892
atp893
a(L283255622L
L0L
(lp894
(lp895
tp896
a(L1610445075L
L0L
(lp897
(lp898
tp899
a(L735741265L
L0L
(lp900
(lp901
tp902
a(L3291333414L
L0L
(lp903
(lp904
tp905
a(L3213614758L
L3785322319L
(lp906
(lp907
Vesp_log_early_timestamp
p908
atp909
a(L3283691850L
L0L
(lp910
(lp911
tp912
a(L3256087419L
L3785322319L
(lp913
(lp914
Vesp_log_early_timestamp
p915
atp916
a(L3212356251L
L3785322319L
(lp917
(lp918
Vbootloader_flash_unlock
p919
atp920
a(L1799218633L
L0L
(lp921
(lp922
tp923
a(L94425498L
L3785322319L
(lp924
(lp925
Vesp_rom_spiflash_write_encrypted
p926
atp927
a(L2927190544L
L3785322319L
(lp928
(lp929
Vspi_to_esp_err
p930
atp931
a(L2927190544L
L3785322319L
(lp932
(lp933
Vesp_rom_spiflash_write
p934
atp935
atp936
sI1074267960
(Vbootloader_init
p937
(lp938
(L1256100286L
L3785322319L
(lp939
(lp940
Vbootloader_init_mem
p941
atp942
a(L2496550926L
L0L
(lp943
(lp944
tp945
a(L2027378118L
L3785322319L
(lp946
(lp947
V__assert_func
p948
atp949
a(L408886226L
L0L
(lp950
(lp951
tp952
a(L3771730718L
L0L
(lp953
(lp954
tp955
a(L3813782018L
L0L
(lp956
(lp957
tp958
a(L1676258143L
L0L
(lp959
(lp960
tp961
a(L3027019L
L0L
(lp962
(lp963
tp964
a(L2165555555L
L0L
(lp965
(lp966
tp967
a(L1797062121L
L1832448559L
(lp968
(lp969
Vbootloader_clear_bss_section
p970
aVbootloader_common_vddsdio_configure
p971
aVbootloader_clock_get_rated_freq_mhz
p972
atp973
a(L3987130017L
L1157885199L
(lp974
(lp975
Vbootloader_clock_configure
p976
aVbootloader_console_init
p977
aVbootloader_print_banner
p978
aVbootloader_flash_update_id
p979
aVbootloader_flash_xmc_startup
p980
atp981
a(L1371217416L
L3785322319L
(lp982
(lp983
Vesp_log_early_timestamp
p984
atp985
a(L2835491336L
L3785322319L
(lp986
(lp987
Vesp_log_early_timestamp
p988
atp989
a(L3360570486L
L0L
(lp990
(lp991
tp992
a(L1375577398L
L3785322319L
(lp993
(lp994
Vbootloader_read_bootloader_header
p995
atp996
a(L2444883382L
L3785322319L
(lp997
(lp998
Vbootloader_check_bootloader_validity
p999
atp1000
a(L1153606775L
L2485746240L
(lp1001
(lp1002
Vbootloader_flash_gpio_config
p1003
aVbootloader_flash_dummy_config
p1004
aVbootloader_flash_cs_timing_config
p1005
aVbootloader_flash_unlock
p1006
atp1007
a(L93837694L
L0L
(lp1008
(lp1009
tp1010
a(L106L
L0L
(lp1011
(lp1012
tp1013
a(L3226039662L
L0L
(lp1014
(lp1015
tp1016
a(L1265057524L
L0L
(lp1017
(lp1018
tp1019
a(L2806354006L
L0L
(lp1020
(lp1021
tp1022
a(L1944969037L
L3785322319L
(lp1023
(lp1024
Vbootloader_enable_wp
p1025
atp1026
a(L378895346L
L0L
(lp1027
(lp1028
tp1029
a(L1895147922L
L0L
(lp1030
(lp1031
tp1032
a(L3457636795L
L3785322319L
(lp1033
(lp1034
Vesp_log_early_timestamp
p1035
atp1036
a(L1837681143L
L0L
(lp1037
(lp1038
tp1039
a(L1873516030L
L0L
(lp1040
(lp1041
tp1042
a(L1895147922L
L0L
(lp1043
(lp1044
tp1045
a(L14182512L
L3785322319L
(lp1046
(lp1047
Vesp_log_early_timestamp
p1048
atp1049
a(L4263191691L
L1880226080L
(lp1050
(lp1051
Vwdt_reset_info_dump
p1052
aVwdt_reset_info_dump
p1053
atp1054
a(L385083117L
L0L
(lp1055
(lp1056
tp1057
a(L3028481L
L0L
(lp1058
(lp1059
tp1060
a(L2920982674L
L1880226080L
(lp1061
(lp1062
Vbootloader_config_wdt
p1063
aVbootloader_enable_random
p1064
atp1065
atp1066
sI1074244404
(Vefuse_hal_get_rated_freq_mhz
p1067
(lp1068
(L1103821704L
L0L
(lp1069
(lp1070
tp1071
a(L3671388797L
L0L
(lp1072
(lp1073
tp1074
a(L3360570486L
L0L
(lp1075
(lp1076
tp1077
atp1078
sI1074244156
(Vwdt_hal_write_protect_disable
p1079
(lp1080
(L1657773300L
L0L
(lp1081
(lp1082
tp1083
a(L4195472003L
L0L
(lp1084
(lp1085
tp1086
a(L3360570486L
L0L
(lp1087
(lp1088
tp1089
a(L1210571996L
L0L
(lp1090
(lp1091
tp1092
atp1093
sI1074240316
(Vbootloader_sha256_data
p1094
(lp1095
(L4066096136L
L0L
(lp1096
(lp1097
tp1098
a(L1556310480L
L0L
(lp1099
(lp1100
tp1101
a(L792144543L
L3785322319L
(lp1102
(lp1103
V__assert_func
p1104
atp1105
a(L498498478L
L0L
(lp1106
(lp1107
tp1108
a(L2106768940L
L0L
(lp1109
(lp1110
tp1111
a(L2910371777L
L0L
(lp1112
(lp1113
tp1114
a(L3360570486L
L0L
(lp1115
(lp1116
tp1117
a(L2562755902L
L0L
(lp1118
(lp1119
tp1120
a(L541898147L
L0L
(lp1121
(lp1122
tp1123
a(L202733164L
L0L
(lp1124
(lp1125
tp1126
a(L415778995L
L0L
(lp1127
(lp1128
tp1129
a(L1812002120L
L0L
(lp1130
(lp1131
tp1132
a(L2032890799L
L0L
(lp1133
(lp1134
tp1135
a(L3028464L
L0L
(lp1136
(lp1137
tp1138
a(L1716524891L
L0L
(lp1139
(lp1140
tp1141
a(L2923346413L
L0L
(lp1142
(lp1143
tp1144
atp1145
sI1074245180
(Vrtc_clk_slow_src_get
p1146
(lp1147
(L376617603L
L3785322319L
(lp1148
(lp1149
Vclk_ll_rtc_slow_get_src
p1150
atp1151
atp1152
sI1074236728
(Vis_xmc_chip_strict
p1153
(lp1154
(L1286841609L
L0L
(lp1155
(lp1156
tp1157
a(L2234016759L
L0L
(lp1158
(lp1159
tp1160
a(L1069027148L
L0L
(lp1161
(lp1162
tp1163
a(L3021749L
L0L
(lp1164
(lp1165
tp1166
a(L1900148749L
L0L
(lp1167
(lp1168
tp1169
a(L1936875721L
L0L
(lp1170
(lp1171
tp1172
a(L3356166509L
L0L
(lp1173
(lp1174
tp1175
a(L1937769451L
L0L
(lp1176
(lp1177
tp1178
a(L2137658907L
L0L
(lp1179
(lp1180
tp1181
a(L4265949734L
L0L
(lp1182
(lp1183
tp1184
a(L3360570486L
L0L
(lp1185
(lp1186
tp1187
atp1188
sI1074237240
(Vbootloader_common_update_rtc_retain_mem
p1189
(lp1190
(L2958000229L
L0L
(lp1191
(lp1192
tp1193
a(L3212356251L
L3785322319L
(lp1194
(lp1195
Vcheck_rtc_retain_mem
p1196
atp1197
a(L94425498L
L3785322319L
(lp1198
(lp1199
Vbootloader_common_reset_rtc_retain_mem
p1200
atp1201
a(L3236027284L
L0L
(lp1202
(lp1203
tp1204
a(L4140856694L
L0L
(lp1205
(lp1206
tp1207
a(L646763617L
L0L
(lp1208
(lp1209
tp1210
a(L1466453772L
L0L
(lp1211
(lp1212
tp1213
a(L894344120L
L0L
(lp1214
(lp1215
tp1216
atp1217
sI1074238776
(Vcache_ll_l1_enable_bus
p1218
(lp1219
(L1908488057L
L0L
(lp1220
(lp1221
tp1222
atp1223
sI1074239288
(Vset_actual_ota_seq
p1224
(lp1225
(L4094723830L
L0L
(lp1226
(lp1227
tp1228
a(L952758373L
L0L
(lp1229
(lp1230
tp1231
a(L766230292L
L1832448559L
(lp1232
(lp1233
Vbootloader_common_ota_select_crc
p1234
aVesp_flash_encryption_enabled
p1235
aVbootloader_flash_erase_sector
p1236
atp1237
a(L300669811L
L3785322319L
(lp1238
(lp1239
Vbootloader_flash_write
p1240
atp1241
a(L932191759L
L3785322319L
(lp1242
(lp1243
Vesp_log_early_timestamp
p1244
atp1245
a(L889933560L
L1880226080L
(lp1246
(lp1247
Vindex_to_partition
p1248
aVbootloader_common_update_rtc_retain_mem
p1249
atp1250
atp1251
sI1074245432
(Vrtc_clk_cpu_freq_get_config
p1252
(lp1253
(L409213060L
L0L
(lp1254
(lp1255
tp1256
a(L3020187L
L0L
(lp1257
(lp1258
tp1259
a(L3020187L
L0L
(lp1260
(lp1261
tp1262
a(L3219192648L
L3785322319L
(lp1263
(lp1264
Vrtc_clk_xtal_freq_get
p1265
atp1266
a(L3789795478L
L0L
(lp1267
(lp1268
tp1269
a(L689314801L
L1880226080L
(lp1270
(lp1271
Vesp_log_early_timestamp
p1272
aVabort
p1273
atp1274
a(L2093105293L
L0L
(lp1275
(lp1276
tp1277
a(L3020187L
L0L
(lp1278
(lp1279
tp1280
a(L3028481L
L0L
(lp1281
(lp1282
tp1283
a(L38508693L
L0L
(lp1284
(lp1285
tp1286
a(L187152368L
L0L
(lp1287
(lp1288
tp1289
a(L1161083655L
L0L
(lp1290
(lp1291
tp1292
a(L1395485899L
L0L
(lp1293
(lp1294
tp1295
a(L2070600034L
L0L
(lp1296
(lp1297
tp1298
atp1299
sI1074270540
(Vbootloader_print_banner
p1300
(lp1301
(L2100504542L
L0L
(lp1302
(lp1303
tp1304
atp1305
sI1074236488
(Vesp_rom_uart_set_clock_baudrate
p1306
(lp1307
(L4126646115L
L0L
(lp1308
(lp1309
tp1310
a(L2295271583L
L0L
(lp1311
(lp1312
tp1313
a(L2805931260L
L0L
(lp1314
(lp1315
tp1316
a(L3255937187L
L0L
(lp1317
(lp1318
tp1319
atp1320
sI1074245192
(Vrtc_clk_slow_freq_get_hz
p1321
(lp1322
(L1826267122L
L3785322319L
(lp1323
(lp1324
Vclk_ll_rtc_slow_get_src
p1325
atp1326
a(L4026793049L
L0L
(lp1327
(lp1328
tp1329
a(L3631005815L
L0L
(lp1330
(lp1331
tp1332
a(L702739859L
L0L
(lp1333
(lp1334
tp1335
a(L3360570486L
L0L
(lp1336
(lp1337
tp1338
atp1339
sI1074236244
(Vbootloader_flash_dummy_config
p1340
(lp1341
(L2887391831L
L0L
(lp1342
(lp1343
tp1344
a(L2761717557L
L0L
(lp1345
(lp1346
tp1347
a(L1849044936L
L0L
(lp1348
(lp1349
tp1350
a(L1591520612L
L0L
(lp1351
(lp1352
tp1353
a(L326359429L
L0L
(lp1354
(lp1355
tp1356
a(L3020204L
L0L
(lp1357
(lp1358
tp1359
a(L1610443405L
L0L
(lp1360
(lp1361
tp1362
a(L4032120524L
L0L
(lp1363
(lp1364
tp1365
a(L2336993863L
L0L
(lp1366
(lp1367
tp1368
a(L1298875775L
L0L
(lp1369
(lp1370
tp1371
a(L3880393601L
L0L
(lp1372
(lp1373
tp1374
a(L197269329L
L0L
(lp1375
(lp1376
tp1377
a(L1610443436L
L0L
(lp1378
(lp1379
tp1380
atp1381
sI1074247252
(Vesp_rom_spiflash_enable_write
p1382
(lp1383
(L1732876573L
L3785322319L
(lp1384
(lp1385
Vesp_rom_spiflash_wait_idle
p1386
atp1387
a(L3137194272L
L0L
(lp1388
(lp1389
tp1390
a(L2258718275L
L0L
(lp1391
(lp1392
tp1393
a(L99543895L
L0L
(lp1394
(lp1395
tp1396
a(L2993202392L
L0L
(lp1397
(lp1398
tp1399
a(L1804543818L
L3785322319L
(lp1400
(lp1401
Vesp_rom_spiflash_read_status
p1402
atp1403
atp1404
sI1074267740
(Vwdt_reset_info_dump
p1405
(lp1406
(L4037466985L
L0L
(lp1407
(lp1408
tp1409
a(L826419141L
L0L
(lp1410
(lp1411
tp1412
a(L527117834L
L0L
(lp1413
(lp1414
tp1415
a(L1103285333L
L0L
(lp1416
(lp1417
tp1418
a(L897464656L
L3785322319L
(lp1419
(lp1420
Vesp_log_early_timestamp
p1421
atp1422
a(L2967992533L
L0L
(lp1423
(lp1424
tp1425
a(L144195250L
L3785322319L
(lp1426
(lp1427
Vesp_log_early_timestamp
p1428
atp1429
a(L2899013701L
L0L
(lp1430
(lp1431
tp1432
atp1433
sI1074247504
(Vesp_rom_spiflash_erase_sector
p1434
(lp1435
(L2269977781L
L0L
(lp1436
(lp1437
tp1438
a(L2258688483L
L0L
(lp1439
(lp1440
tp1441
a(L3360570486L
L0L
(lp1442
(lp1443
tp1444
a(L3212356251L
L3785322319L
(lp1445
(lp1446
Vesp_rom_spiflash_enable_write
p1447
atp1448
a(L184152988L
L0L
(lp1449
(lp1450
tp1451
a(L1706828661L
L3785322319L
(lp1452
(lp1453
Vesp_rom_spiflash_wait_idle
p1454
atp1455
a(L3333707777L
L0L
(lp1456
(lp1457
tp1458
a(L3582858798L
L3785322319L
(lp1459
(lp1460
Vesp_rom_spiflash_wait_idle
p1461
atp1462
atp1463
sI1074244444
(Vclk_ll_rtc_slow_get_src
p1464
(lp1465
(L3224093877L
L0L
(lp1466
(lp1467
tp1468
a(L3020187L
L0L
(lp1469
(lp1470
tp1471
a(L2902417580L
L0L
(lp1472
(lp1473
tp1474
a(L2258688485L
L0L
(lp1475
(lp1476
tp1477
a(L3360570486L
L0L
(lp1478
(lp1479
tp1480
atp1481
sI1074244188
(Vwdt_hal_set_flashboot_en
p1482
(lp1483
(L2375320464L
L0L
(lp1484
(lp1485
tp1486
a(L3915867581L
L0L
(lp1487
(lp1488
tp1489
a(L3360570486L
L0L
(lp1490
(lp1491
tp1492
a(L2321842085L
L0L
(lp1493
(lp1494
tp1495
atp1496
sI1074238556
(Vbootloader_clock_get_rated_freq_mhz
p1497
(lp1498
(L376617603L
L3785322319L
(lp1499
(lp1500
Vefuse_hal_get_rated_freq_mhz
p1501
atp1502
atp1503
sI1074270548
(Vmpu_hal_set_region_access
p1504
(lp1505
(L3538356822L
L0L
(lp1506
(lp1507
tp1508
a(L93674324L
L0L
(lp1509
(lp1510
tp1511
a(L2910371777L
L0L
(lp1512
(lp1513
tp1514
a(L3472092938L
L0L
(lp1515
(lp1516
tp1517
a(L3020187L
L0L
(lp1518
(lp1519
tp1520
a(L3360570486L
L0L
(lp1521
(lp1522
tp1523
a(L2258718273L
L0L
(lp1524
(lp1525
tp1526
a(L3446648619L
L0L
(lp1527
(lp1528
tp1529
a(L3739532189L
L0L
(lp1530
(lp1531
tp1532
a(L1300789895L
L0L
(lp1533
(lp1534
tp1535
atp1536
sI1074235480
(Vbootloader_read_flash_id
p1537
(lp1538
(L549578328L
L3785322319L
(lp1539
(lp1540
Vbootloader_execute_flash_command
p1541
atp1542
atp1543
sI1074246488
(Vrtc_clk_cal_internal
p1544
(lp1545
(L1883690701L
L0L
(lp1546
(lp1547
tp1548
a(L4291081187L
L3785322319L
(lp1549
(lp1550
V__assert_func
p1551
atp1552
a(L678778680L
L0L
(lp1553
(lp1554
tp1555
a(L54826884L
L0L
(lp1556
(lp1557
tp1558
a(L234746575L
L0L
(lp1559
(lp1560
tp1561
a(L861896856L
L3785322319L
(lp1562
(lp1563
Vrtc_clk_8m_enable
p1564
atp1565
a(L4273380925L
L3785322319L
(lp1566
(lp1567
Vrtc_clk_slow_src_get
p1568
atp1569
a(L1211065969L
L0L
(lp1570
(lp1571
tp1572
a(L97689L
L0L
(lp1573
(lp1574
tp1575
a(L1571791292L
L0L
(lp1576
(lp1577
tp1578
a(L3028464L
L0L
(lp1579
(lp1580
tp1581
a(L3028481L
L0L
(lp1582
(lp1583
tp1584
a(L3450258550L
L0L
(lp1585
(lp1586
tp1587
a(L3730520838L
L3785322319L
(lp1588
(lp1589
Vrtc_clk_xtal_freq_get
p1590
atp1591
a(L2780079961L
L0L
(lp1592
(lp1593
tp1594
a(L1037195011L
L0L
(lp1595
(lp1596
tp1597
a(L2477347557L
L3785322319L
(lp1598
(lp1599
Vesp_log_early_timestamp
p1600
atp1601
a(L3360570486L
L0L
(lp1602
(lp1603
tp1604
a(L1929618180L
L0L
(lp1605
(lp1606
tp1607
a(L3617715671L
L0L
(lp1608
(lp1609
tp1610
a(L2910371777L
L0L
(lp1611
(lp1612
tp1613
a(L2902417580L
L0L
(lp1614
(lp1615
tp1616
a(L2698423615L
L0L
(lp1617
(lp1618
tp1619
a(L3631005548L
L0L
(lp1620
(lp1621
tp1622
a(L3584126839L
L0L
(lp1623
(lp1624
tp1625
a(L3352263364L
L0L
(lp1626
(lp1627
tp1628
a(L3028464L
L0L
(lp1629
(lp1630
tp1631
a(L743141986L
L3785322319L
(lp1632
(lp1633
Vrtc_clk_8m_enable
p1634
atp1635
atp1636
sI1074245220
(Vrtc_clk_fast_src_set
p1637
(lp1638
(L1794473941L
L0L
(lp1639
(lp1640
tp1641
a(L3020187L
L0L
(lp1642
(lp1643
tp1644
a(L3827921190L
L3785322319L
(lp1645
(lp1646
Vabort
p1647
atp1648
a(L209959690L
L0L
(lp1649
(lp1650
tp1651
a(L980343504L
L0L
(lp1652
(lp1653
tp1654
a(L300459962L
L0L
(lp1655
(lp1656
tp1657
atp1658
sI1074238828
(Vtry_load_partition
p1659
(lp1660
(L1898493800L
L0L
(lp1661
(lp1662
tp1663
a(L2454209732L
L3785322319L
(lp1664
(lp1665
Vbootloader_load_image
p1666
atp1667
a(L3360570486L
L0L
(lp1668
(lp1669
tp1670
atp1671
sI1074242924
(Vbootloader_load_image
p1672
(lp1673
(L1155870502L
L3785322319L
(lp1674
(lp1675
Vimage_load
p1676
atp1677
atp1678
sI1074270308
(Vrtc_vddsdio_get_config
p1679
(lp1680
(L1133339736L
L0L
(lp1681
(lp1682
tp1683
a(L3421108135L
L0L
(lp1684
(lp1685
tp1686
a(L3002774692L
L0L
(lp1687
(lp1688
tp1689
a(L526269410L
L0L
(lp1690
(lp1691
tp1692
a(L3892776265L
L0L
(lp1693
(lp1694
tp1695
a(L1813596024L
L0L
(lp1696
(lp1697
tp1698
a(L1306330959L
L0L
(lp1699
(lp1700
tp1701
a(L3813608488L
L0L
(lp1702
(lp1703
tp1704
atp1705
sI1074238568
(Vlog_invalid_app_partition
p1706
(lp1707
(L2707828686L
L0L
(lp1708
(lp1709
tp1710
a(L3028464L
L0L
(lp1711
(lp1712
tp1713
a(L2298485649L
L3785322319L
(lp1714
(lp1715
Vesp_log_early_timestamp
p1716
atp1717
a(L283255622L
L0L
(lp1718
(lp1719
tp1720
a(L3360570486L
L0L
(lp1721
(lp1722
tp1723
a(L3570313202L
L3785322319L
(lp1724
(lp1725
Vesp_log_early_timestamp
p1726
atp1727
a(L1735201442L
L3785322319L
(lp1728
(lp1729
Vesp_log_early_timestamp
p1730
atp1731
atp1732
sI1074241128
(Vbootloader_util_regions_overlap
p1733
(lp1734
(L2762640130L
L0L
(lp1735
(lp1736
tp1737
a(L3400746973L
L0L
(lp1738
(lp1739
tp1740
a(L1364132917L
L3785322319L
(lp1741
(lp1742
V__assert_func
p1743
atp1744
a(L97642L
L0L
(lp1745
(lp1746
tp1747
a(L695383512L
L0L
(lp1748
(lp1749
tp1750
a(L366123053L
L0L
(lp1751
(lp1752
tp1753
a(L2258867228L
L0L
(lp1754
(lp1755
tp1756
a(L1253626734L
L0L
(lp1757
(lp1758
tp1759
a(L2258897019L
L0L
(lp1760
(lp1761
tp1762
a(L3109269495L
L0L
(lp1763
(lp1764
tp1765
atp1766
sI1074237308
(Vbootloader_common_ota_select_invalid
p1767
(lp1768
(L4027567199L
L0L
(lp1769
(lp1770
tp1771
a(L3397985842L
L0L
(lp1772
(lp1773
tp1774
a(L2258867228L
L0L
(lp1775
(lp1776
tp1777
a(L3785235668L
L0L
(lp1778
(lp1779
tp1780
atp1781
sI1074242940
(Vbootloader_load_image_no_verify
p1782
(lp1783
(L3412781509L
L3785322319L
(lp1784
(lp1785
Vimage_load
p1786
atp1787
atp1788
sI1074247804
(Vesp_rom_spiflash_write_encrypted
p1789
(lp1790
(L1944247967L
L0L
(lp1791
(lp1792
tp1793
a(L1748820868L
L0L
(lp1794
(lp1795
tp1796
a(L97689L
L0L
(lp1797
(lp1798
tp1799
a(L3061232074L
L0L
(lp1800
(lp1801
tp1802
a(L1285878496L
L0L
(lp1803
(lp1804
tp1805
a(L1309309703L
L3785322319L
(lp1806
(lp1807
Vesp_rom_spiflash_write
p1808
atp1809
a(L2371036837L
L0L
(lp1810
(lp1811
tp1812
a(L735741265L
L0L
(lp1813
(lp1814
tp1815
atp1816
sI1074242424
(Vimage_load
p1817
(lp1818
(L3559420668L
L0L
(lp1819
(lp1820
tp1821
a(L1899869541L
L0L
(lp1822
(lp1823
tp1824
a(L979631281L
L0L
(lp1825
(lp1826
tp1827
a(L1525480527L
L0L
(lp1828
(lp1829
tp1830
a(L1043148059L
L0L
(lp1831
(lp1832
tp1833
a(L2796536461L
L0L
(lp1834
(lp1835
tp1836
a(L4049596040L
L3785322319L
(lp1837
(lp1838
Vesp_log_early_timestamp
p1839
atp1840
a(L2068384292L
L0L
(lp1841
(lp1842
tp1843
a(L1968553470L
L3785322319L
(lp1844
(lp1845
Vbootloader_sha256_finish
p1846
atp1847
a(L1918045353L
L0L
(lp1848
(lp1849
tp1850
a(L3225218531L
L0L
(lp1851
(lp1852
tp1853
a(L3802071166L
L0L
(lp1854
(lp1855
tp1856
a(L1301867039L
L3785322319L
(lp1857
(lp1858
Vprocess_image_header
p1859
atp1860
a(L560228796L
L0L
(lp1861
(lp1862
tp1863
a(L4185758499L
L0L
(lp1864
(lp1865
tp1866
a(L1530940255L
L3785322319L
(lp1867
(lp1868
Vprocess_segments
p1869
atp1870
a(L1233227930L
L0L
(lp1871
(lp1872
tp1873
a(L2656707586L
L0L
(lp1874
(lp1875
tp1876
a(L2570888687L
L3785322319L
(lp1877
(lp1878
Vprocess_checksum
p1879
atp1880
a(L425503098L
L3785322319L
(lp1881
(lp1882
Vprocess_appended_hash_and_sig
p1883
atp1884
a(L780930979L
L0L
(lp1885
(lp1886
tp1887
a(L2334355956L
L0L
(lp1888
(lp1889
tp1890
a(L1430247473L
L0L
(lp1891
(lp1892
tp1893
a(L370263451L
L1880226080L
(lp1894
(lp1895
Vbootloader_sha256_finish
p1896
aVbootloader_debug_buffer
p1897
atp1898
a(L4290300736L
L1880226080L
(lp1899
(lp1900
Vesp_log_early_timestamp
p1901
aVbootloader_debug_buffer
p1902
atp1903
a(L1087646176L
L0L
(lp1904
(lp1905
tp1906
a(L2068384292L
L0L
(lp1907
(lp1908
tp1909
a(L3021148818L
L3785322319L
(lp1910
(lp1911
Vbootloader_sha256_finish
p1912
atp1913
a(L3028481L
L0L
(lp1914
(lp1915
tp1916
a(L139701033L
L0L
(lp1917
(lp1918
tp1919
a(L843241619L
L0L
(lp1920
(lp1921
tp1922
a(L772115669L
L0L
(lp1923
(lp1924
tp1925
a(L2787789065L
L0L
(lp1926
(lp1927
tp1928
a(L85798113L
L0L
(lp1929
(lp1930
tp1931
a(L1351513776L
L0L
(lp1932
(lp1933
tp1934
a(L159346313L
L3785322319L
(lp1935
(lp1936
Vshould_load
p1937
atp1938
a(L4218574503L
L0L
(lp1939
(lp1940
tp1941
a(L3338774213L
L0L
(lp1942
(lp1943
tp1944
a(L3464541874L
L0L
(lp1945
(lp1946
tp1947
a(L3349572949L
L0L
(lp1948
(lp1949
tp1950
a(L2192292519L
L0L
(lp1951
(lp1952
tp1953
a(L106L
L0L
(lp1954
(lp1955
tp1956
a(L26615924L
L0L
(lp1957
(lp1958
tp1959
a(L1299866312L
L0L
(lp1960
(lp1961
tp1962
a(L490060329L
L0L
(lp1963
(lp1964
tp1965
atp1966
sI1074244472
(Vrtc_clk_32k_enable_common
p1967
(lp1968
(L1797488440L
L0L
(lp1969
(lp1970
tp1971
a(L97689L
L0L
(lp1972
(lp1973
tp1974
a(L2218417250L
L0L
(lp1975
(lp1976
tp1977
a(L2062311415L
L0L
(lp1978
(lp1979
tp1980
a(L51458058L
L0L
(lp1981
(lp1982
tp1983
atp1984
sI1074239616
(Vbootloader_utility_get_selected_boot_partition
p1985
(lp1986
(L2803238495L
L0L
(lp1987
(lp1988
tp1989
a(L1299867982L
L0L
(lp1990
(lp1991
tp1992
a(L3360570486L
L0L
(lp1993
(lp1994
tp1995
a(L3321193961L
L0L
(lp1996
(lp1997
tp1998
a(L3324438917L
L3785322319L
(lp1999
(lp2000
Vesp_log_early_timestamp
p2001
atp2002
a(L809594436L
L0L
(lp2003
(lp2004
tp2005
a(L1375577398L
L3785322319L
(lp2006
(lp2007
Vbootloader_mmap
p2008
atp2009
a(L690258938L
L3785322319L
(lp2010
(lp2011
Vesp_log_early_timestamp
p2012
atp2013
a(L2297207609L
L1880226080L
(lp2014
(lp2015
Vbootloader_munmap
p2016
aVbootloader_common_ota_select_invalid
p2017
atp2018
a(L1103573946L
L0L
(lp2019
(lp2020
tp2021
a(L1876827316L
L3785322319L
(lp2022
(lp2023
Vbootloader_common_get_active_otadata
p2024
atp2025
a(L569346373L
L0L
(lp2026
(lp2027
tp2028
a(L3111084448L
L3785322319L
(lp2029
(lp2030
Vbootloader_common_ota_select_invalid
p2031
atp2032
a(L45272527L
L0L
(lp2033
(lp2034
tp2035
a(L847230968L
L0L
(lp2036
(lp2037
tp2038
a(L505081345L
L0L
(lp2039
(lp2040
tp2041
a(L919052234L
L3785322319L
(lp2042
(lp2043
Vbootloader_common_ota_select_crc
p2044
atp2045
a(L2287680455L
L0L
(lp2046
(lp2047
tp2048
a(L3542558037L
L3785322319L
(lp2049
(lp2050
Vbootloader_common_ota_select_crc
p2051
atp2052
a(L1299866312L
L0L
(lp2053
(lp2054
tp2055
a(L534083833L
L0L
(lp2056
(lp2057
tp2058
a(L3512937694L
L3785322319L
(lp2059
(lp2060
Vesp_log_early_timestamp
p2061
atp2062
a(L190989796L
L0L
(lp2063
(lp2064
tp2065
a(L4142632904L
L3785322319L
(lp2066
(lp2067
Vesp_log_early_timestamp
p2068
atp2069
atp2070
sI1074236800
(Vesp_log_early_timestamp
p2071
(lp2072
(L387765101L
L0L
(lp2073
(lp2074
tp2075
atp2076
sI1074235776
(Vbootloader_flash_gpio_config
p2077
(lp2078
(L3448878117L
L3785322319L
(lp2079
(lp2080
Vbootloader_common_get_chip_ver_pkg
p2081
atp2082
a(L106L
L0L
(lp2083
(lp2084
tp2085
a(L1998579353L
L0L
(lp2086
(lp2087
tp2088
a(L106L
L0L
(lp2089
(lp2090
tp2091
a(L463324743L
L0L
(lp2092
(lp2093
tp2094
a(L2054608940L
L0L
(lp2095
(lp2096
tp2097
a(L106L
L0L
(lp2098
(lp2099
tp2100
a(L4003626558L
L0L
(lp2101
(lp2102
tp2103
a(L2112581292L
L0L
(lp2104
(lp2105
tp2106
a(L3360570486L
L0L
(lp2107
(lp2108
tp2109
atp2110
sI1074245760
(Vrtc_clk_cpu_freq_set_config
p2111
(lp2112
(L2905802440L
L3785322319L
(lp2113
(lp2114
Vrtc_clk_xtal_freq_get
p2115
atp2116
a(L3020187L
L0L
(lp2117
(lp2118
tp2119
a(L3028464L
L0L
(lp2120
(lp2121
tp2122
a(L264223053L
L1880226080L
(lp2123
(lp2124
Vrtc_clk_cpu_freq_to_xtal
p2125
aVrtc_clk_wait_for_slow_cycle
p2126
atp2127
a(L94425498L
L3785322319L
(lp2128
(lp2129
Vrtc_clk_bbpll_disable
p2130
atp2131
a(L3978916712L
L0L
(lp2132
(lp2133
tp2134
a(L2977209154L
L0L
(lp2135
(lp2136
tp2137
a(L2736411858L
L3785322319L
(lp2138
(lp2139
Vrtc_clk_cpu_freq_to_xtal
p2140
atp2141
a(L3360570486L
L0L
(lp2142
(lp2143
tp2144
a(L3020187L
L0L
(lp2145
(lp2146
tp2147
a(L106L
L0L
(lp2148
(lp2149
tp2150
a(L1623900789L
L1880226080L
(lp2151
(lp2152
Vrtc_clk_wait_for_slow_cycle
p2153
aVrtc_clk_xtal_freq_get
p2154
atp2155
a(L106L
L0L
(lp2156
(lp2157
tp2158
a(L283665098L
L0L
(lp2159
(lp2160
tp2161
a(L106L
L0L
(lp2162
(lp2163
tp2164
a(L83268611L
L0L
(lp2165
(lp2166
tp2167
a(L106L
L0L
(lp2168
(lp2169
tp2170
a(L82344823L
L0L
(lp2171
(lp2172
tp2173
a(L106L
L0L
(lp2174
(lp2175
tp2176
a(L1274797871L
L0L
(lp2177
(lp2178
tp2179
a(L4039217794L
L0L
(lp2180
(lp2181
tp2182
a(L3908695948L
L1880226080L
(lp2183
(lp2184
Vclk_ll_rtc_slow_get_src
p2185
aVrtc_clk_cpu_freq_to_pll_mhz
p2186
atp2187
a(L883749657L
L0L
(lp2188
(lp2189
tp2190
a(L83268344L
L0L
(lp2191
(lp2192
tp2193
a(L82345090L
L0L
(lp2194
(lp2195
tp2196
a(L1299628291L
L0L
(lp2197
(lp2198
tp2199
a(L1457222360L
L0L
(lp2200
(lp2201
tp2202
a(L2258807646L
L0L
(lp2203
(lp2204
tp2205
a(L878473564L
L0L
(lp2206
(lp2207
tp2208
a(L2389426015L
L0L
(lp2209
(lp2210
tp2211
a(L1596574736L
L0L
(lp2212
(lp2213
tp2214
a(L2086626670L
L0L
(lp2215
(lp2216
tp2217
a(L1302638456L
L0L
(lp2218
(lp2219
tp2220
a(L810137203L
L0L
(lp2221
(lp2222
tp2223
a(L87353900L
L0L
(lp2224
(lp2225
tp2226
a(L3020187L
L0L
(lp2227
(lp2228
tp2229
a(L106L
L0L
(lp2230
(lp2231
tp2232
a(L4246636353L
L0L
(lp2233
(lp2234
tp2235
atp2236
sI1074238860
(Vcache_ll_l1_enable_bus
p2237
(lp2238
(L1408514293L
L0L
(lp2239
(lp2240
tp2241
atp2242
sI1074242956
(Vesp_partition_table_verify
p2243
(lp2244
(L1927580282L
L0L
(lp2245
(lp2246
tp2247
a(L2891289599L
L0L
(lp2248
(lp2249
tp2250
a(L4090921686L
L0L
(lp2251
(lp2252
tp2253
a(L2910371777L
L0L
(lp2254
(lp2255
tp2256
a(L2810785767L
L0L
(lp2257
(lp2258
tp2259
a(L3360570486L
L0L
(lp2260
(lp2261
tp2262
a(L3190337587L
L0L
(lp2263
(lp2264
tp2265
a(L2069928857L
L0L
(lp2266
(lp2267
tp2268
a(L3020204L
L0L
(lp2269
(lp2270
tp2271
a(L3505186244L
L3785322319L
(lp2272
(lp2273
Vesp_log_early_timestamp
p2274
atp2275
a(L1707558832L
L3785322319L
(lp2276
(lp2277
Vesp_log_early_timestamp
p2278
atp2279
a(L2249653215L
L0L
(lp2280
(lp2281
tp2282
a(L2902417580L
L0L
(lp2283
(lp2284
tp2285
a(L3020204L
L0L
(lp2286
(lp2287
tp2288
a(L1637091147L
L3785322319L
(lp2289
(lp2290
Vesp_log_early_timestamp
p2291
atp2292
a(L190989796L
L0L
(lp2293
(lp2294
tp2295
a(L173039372L
L0L
(lp2296
(lp2297
tp2298
a(L2902417580L
L0L
(lp2299
(lp2300
tp2301
a(L3505186740L
L3785322319L
(lp2302
(lp2303
Vesp_log_early_timestamp
p2304
atp2305
a(L1305407469L
L0L
(lp2306
(lp2307
tp2308
a(L1167861556L
L0L
(lp2309
(lp2310
tp2311
a(L3914073261L
L0L
(lp2312
(lp2313
tp2314
a(L2910371777L
L0L
(lp2315
(lp2316
tp2317
a(L1235012932L
L0L
(lp2318
(lp2319
tp2320
a(L3323440349L
L3785322319L
(lp2321
(lp2322
Vesp_log_early_timestamp
p2323
atp2324
atp2325
sI1074241672
(Vshould_load
p2326
(lp2327
(L3879152057L
L0L
(lp2328
(lp2329
tp2330
a(L1182990556L
L0L
(lp2331
(lp2332
tp2333
a(L169554709L
L0L
(lp2334
(lp2335
tp2336
a(L2306467100L
L0L
(lp2337
(lp2338
tp2339
a(L1002638193L
L0L
(lp2340
(lp2341
tp2342
a(L2258897019L
L0L
(lp2343
(lp2344
tp2345
a(L3781799363L
L0L
(lp2346
(lp2347
tp2348
a(L3028464L
L0L
(lp2349
(lp2350
tp2351
a(L3683702757L
L0L
(lp2352
(lp2353
tp2354
a(L4277114872L
L0L
(lp2355
(lp2356
tp2357
a(L2824381917L
L0L
(lp2358
(lp2359
tp2360
a(L1243412227L
L0L
(lp2361
(lp2362
tp2363
a(L2011157548L
L0L
(lp2364
(lp2365
tp2366
a(L3126521138L
L0L
(lp2367
(lp2368
tp2369
a(L1305407438L
L0L
(lp2370
(lp2371
tp2372
a(L1305407469L
L0L
(lp2373
(lp2374
tp2375
atp2376
sI1074235528
(Vbootloader_flash_xmc_startup
p2377
(lp2378
(L1520934136L
L3785322319L
(lp2379
(lp2380
Vis_xmc_chip_strict
p2381
atp2382
a(L2258688482L
L0L
(lp2383
(lp2384
tp2385
a(L3360570486L
L0L
(lp2386
(lp2387
tp2388
a(L251913992L
L3785322319L
(lp2389
(lp2390
Vbootloader_flash_read_sfdp
p2391
atp2392
a(L4211599108L
L267944800L
(lp2393
(lp2394
Vbootloader_execute_flash_command
p2395
aVbootloader_execute_flash_command
p2396
aVbootloader_execute_flash_command
p2397
aVbootloader_execute_flash_command
p2398
aVbootloader_read_flash_id
p2399
aVis_xmc_chip_strict
p2400
atp2401
a(L4229369543L
L3785322319L
(lp2402
(lp2403
Vesp_log_early_timestamp
p2404
atp2405
atp2406
sI1074239892
(Vbootloader_utility_load_boot_image_from_deep_sleep
p2407
(lp2408
(L4133243683L
L0L
(lp2409
(lp2410
tp2411
a(L3212347974L
L3785322319L
(lp2412
(lp2413
Vbootloader_common_get_rtc_retain_mem_partition
p2414
atp2415
a(L392176478L
L3785322319L
(lp2416
(lp2417
Vbootloader_load_image_no_verify
p2418
atp2419
a(L4017103105L
L1880226080L
(lp2420
(lp2421
Vbootloader_common_update_rtc_retain_mem
p2422
aVload_image
p2423
atp2424
a(L1396777667L
L3785322319L
(lp2425
(lp2426
Vesp_log_early_timestamp
p2427
atp2428
a(L3360570486L
L0L
(lp2429
(lp2430
tp2431
atp2432
sI1074245012
(Vrtc_clk_8m_enabled
p2433
(lp2434
(L1444987666L
L0L
(lp2435
(lp2436
tp2437
atp2438
sI1074268572
(Vbootloader_common_vddsdio_configure
p2439
(lp2440
(L1829974089L
L3785322319L
(lp2441
(lp2442
Vrtc_vddsdio_get_config
p2443
atp2444
a(L3047969944L
L3785322319L
(lp2445
(lp2446
Vrtc_vddsdio_set_config
p2447
atp2448
a(L3360570486L
L0L
(lp2449
(lp2450
tp2451
atp2452
sI1074269596
(Vbootloader_enable_random
p2453
(lp2454
(L1287383080L
L3785322319L
(lp2455
(lp2456
Vbootloader_random_enable
p2457
atp2458
atp2459
sI1074247312
(Vesp_rom_spiflash_program_page_internal
p2460
(lp2461
(L2569069283L
L0L
(lp2462
(lp2463
tp2464
a(L2258688483L
L0L
(lp2465
(lp2466
tp2467
a(L3360570486L
L0L
(lp2468
(lp2469
tp2470
a(L2757683300L
L0L
(lp2471
(lp2472
tp2473
a(L4235661475L
L3785322319L
(lp2474
(lp2475
Vesp_rom_spiflash_wait_idle
p2476
atp2477
a(L1299866312L
L0L
(lp2478
(lp2479
tp2480
a(L3212356251L
L3785322319L
(lp2481
(lp2482
Vesp_rom_spiflash_enable_write
p2483
atp2484
a(L1309986456L
L0L
(lp2485
(lp2486
tp2487
a(L1023242343L
L0L
(lp2488
(lp2489
tp2490
a(L2953702749L
L0L
(lp2491
(lp2492
tp2493
a(L2989032L
L0L
(lp2494
(lp2495
tp2496
a(L1965622133L
L0L
(lp2497
(lp2498
tp2499
a(L2606475588L
L0L
(lp2500
(lp2501
tp2502
a(L1958113242L
L0L
(lp2503
(lp2504
tp2505
a(L106L
L0L
(lp2506
(lp2507
tp2508
a(L3112950080L
L0L
(lp2509
(lp2510
tp2511
a(L1868606439L
L0L
(lp2512
(lp2513
tp2514
a(L1008983796L
L0L
(lp2515
(lp2516
tp2517
a(L1933954923L
L0L
(lp2518
(lp2519
tp2520
a(L1147866918L
L0L
(lp2521
(lp2522
tp2523
a(L3871602522L
L0L
(lp2524
(lp2525
tp2526
atp2527
sI1074240668
(Vbootloader_console_deinit
p2528
(lp2529
(L879327750L
L0L
(lp2530
(lp2531
tp2532
atp2533
sI1074244764
(Vrtc_clk_bbpll_disable
p2534
(lp2535
(L255598929L
L0L
(lp2536
(lp2537
tp2538
a(L2472207241L
L0L
(lp2539
(lp2540
tp2541
a(L3360570486L
L0L
(lp2542
(lp2543
tp2544
atp2545
sI1074237336
(Vbootloader_common_select_otadata
p2546
(lp2547
(L4071767857L
L0L
(lp2548
(lp2549
tp2550
a(L1999329187L
L0L
(lp2551
(lp2552
tp2553
a(L3846398843L
L0L
(lp2554
(lp2555
tp2556
a(L2501968171L
L0L
(lp2557
(lp2558
tp2559
a(L3360570486L
L0L
(lp2560
(lp2561
tp2562
a(L2045232488L
L0L
(lp2563
(lp2564
tp2565
a(L1243525916L
L0L
(lp2566
(lp2567
tp2568
a(L3094144427L
L0L
(lp2569
(lp2570
tp2571
a(L2399509845L
L0L
(lp2572
(lp2573
tp2574
a(L1641201884L
L0L
(lp2575
(lp2576
tp2577
atp2578
sI1074236568
(Vefuse_hal_chip_revision
p2579
(lp2580
(L2719302832L
L1880226080L
(lp2581
(lp2582
Vefuse_hal_get_major_chip_version
p2583
aVefuse_hal_get_minor_chip_version
p2584
atp2585
atp2586
sI1074245284
(Vrtc_clk_fast_src_get
p2587
(lp2588
(L1449975984L
L0L
(lp2589
(lp2590
tp2591
atp2592
sI1074269356
(Vbootloader_flash_update_id
p2593
(lp2594
(L3994864411L
L3785322319L
(lp2595
(lp2596
Vbootloader_read_flash_id
p2597
atp2598
atp2599
sI1074236832
(Vcheck_rtc_retain_mem
p2600
(lp2601
(L3145564885L
L0L
(lp2602
(lp2603
tp2604
atp2605
sI1074241184
(Vverify_load_addresses
p2606
(lp2607
(L2764487219L
L0L
(lp2608
(lp2609
tp2610
a(L106L
L0L
(lp2611
(lp2612
tp2613
a(L97642L
L0L
(lp2614
(lp2615
tp2616
a(L2985904631L
L3785322319L
(lp2617
(lp2618
V__assert_func
p2619
atp2620
a(L2163779609L
L0L
(lp2621
(lp2622
tp2623
a(L106L
L0L
(lp2624
(lp2625
tp2626
a(L1147599122L
L0L
(lp2627
(lp2628
tp2629
a(L106L
L0L
(lp2630
(lp2631
tp2632
a(L2913539835L
L3785322319L
(lp2633
(lp2634
Vbootloader_util_regions_overlap
p2635
atp2636
a(L1877843542L
L3785322319L
(lp2637
(lp2638
Vbootloader_util_regions_overlap
p2639
atp2640
a(L3028481L
L0L
(lp2641
(lp2642
tp2643
a(L3888971565L
L3785322319L
(lp2644
(lp2645
Vbootloader_util_regions_overlap
p2646
atp2647
a(L3803041105L
L0L
(lp2648
(lp2649
tp2650
a(L74281630L
L0L
(lp2651
(lp2652
tp2653
a(L2159320281L
L0L
(lp2654
(lp2655
tp2656
a(L2661576437L
L0L
(lp2657
(lp2658
tp2659
a(L2503437888L
L0L
(lp2660
(lp2661
tp2662
a(L677569396L
L3785322319L
(lp2663
(lp2664
Vverify_load_addresses
p2665
atp2666
a(L1351513776L
L0L
(lp2667
(lp2668
tp2669
a(L3061261803L
L0L
(lp2670
(lp2671
tp2672
a(L2743341656L
L0L
(lp2673
(lp2674
tp2675
a(L3568332191L
L0L
(lp2676
(lp2677
tp2678
a(L3854037930L
L0L
(lp2679
(lp2680
tp2681
a(L1749436142L
L3785322319L
(lp2682
(lp2683
Vbootloader_util_regions_overlap
p2684
atp2685
a(L3028481L
L0L
(lp2686
(lp2687
tp2688
a(L3181504662L
L3785322319L
(lp2689
(lp2690
Vbootloader_util_regions_overlap
p2691
atp2692
a(L2807115423L
L0L
(lp2693
(lp2694
tp2695
a(L3731334795L
L0L
(lp2696
(lp2697
tp2698
a(L4103836658L
L0L
(lp2699
(lp2700
tp2701
a(L3245153844L
L0L
(lp2702
(lp2703
tp2704
a(L307916718L
L0L
(lp2705
(lp2706
tp2707
a(L697239146L
L0L
(lp2708
(lp2709
tp2710
a(L106L
L0L
(lp2711
(lp2712
tp2713
a(L955501070L
L0L
(lp2714
(lp2715
tp2716
a(L307917253L
L0L
(lp2717
(lp2718
tp2719
a(L490080443L
L0L
(lp2720
(lp2721
tp2722
a(L106L
L0L
(lp2723
(lp2724
tp2725
a(L1119295362L
L3785322319L
(lp2726
(lp2727
Vesp_log_early_timestamp
p2728
atp2729
a(L955501690L
L0L
(lp2730
(lp2731
tp2732
a(L1303560427L
L0L
(lp2733
(lp2734
tp2735
atp2736
sI1074244256
(Vwdt_hal_write_protect_enable
p2737
(lp2738
(L387778158L
L0L
(lp2739
(lp2740
tp2741
a(L4195472003L
L0L
(lp2742
(lp2743
tp2744
a(L3360570486L
L0L
(lp2745
(lp2746
tp2747
a(L802523425L
L0L
(lp2748
(lp2749
tp2750
atp2751
sI1074240684
(V__assert_func
p2752
(lp2753
(L1969592526L
L0L
(lp2754
(lp2755
tp2756
a(L106L
L0L
(lp2757
(lp2758
tp2759
atp2760
sI1074239404
(Vbootloader_utility_load_partition_table
p2761
(lp2762
(L3128219304L
L3785322319L
(lp2763
(lp2764
Vbootloader_mmap
p2765
atp2766
a(L2400691575L
L3785322319L
(lp2767
(lp2768
Vesp_log_early_timestamp
p2769
atp2770
a(L2258688482L
L0L
(lp2771
(lp2772
tp2773
a(L3360570486L
L0L
(lp2774
(lp2775
tp2776
a(L255479872L
L3785322319L
(lp2777
(lp2778
Vesp_partition_table_verify
p2779
atp2780
a(L1224062835L
L0L
(lp2781
(lp2782
tp2783
a(L3761768803L
L0L
(lp2784
(lp2785
tp2786
a(L2311047843L
L3785322319L
(lp2787
(lp2788
Vbootloader_munmap
p2789
atp2790
a(L1360415509L
L3785322319L
(lp2791
(lp2792
Vesp_log_early_timestamp
p2793
atp2794
a(L3927622121L
L0L
(lp2795
(lp2796
tp2797
a(L3020187L
L0L
(lp2798
(lp2799
tp2800
a(L1532853611L
L0L
(lp2801
(lp2802
tp2803
a(L1036489382L
L0L
(lp2804
(lp2805
tp2806
a(L3020187L
L0L
(lp2807
(lp2808
tp2809
a(L475586725L
L0L
(lp2810
(lp2811
tp2812
a(L529263765L
L0L
(lp2813
(lp2814
tp2815
a(L775434204L
L0L
(lp2816
(lp2817
tp2818
a(L3579705151L
L0L
(lp2819
(lp2820
tp2821
a(L2387139071L
L0L
(lp2822
(lp2823
tp2824
a(L1599920163L
L0L
(lp2825
(lp2826
tp2827
atp2828
sI1074243244
(Vwdt_hal_init
p2829
(lp2830
(L3721950950L
L0L
(lp2831
(lp2832
tp2833
a(L3755358284L
L0L
(lp2834
(lp2835
tp2836
a(L2805932892L
L0L
(lp2837
(lp2838
tp2839
a(L3332467775L
L0L
(lp2840
(lp2841
tp2842
a(L964795394L
L0L
(lp2843
(lp2844
tp2845
a(L3360570486L
L0L
(lp2846
(lp2847
tp2848
a(L1382852082L
L0L
(lp2849
(lp2850
tp2851
atp2852
sI1074245036
(Vrtc_clk_8md256_enabled
p2853
(lp2854
(L600515795L
L0L
(lp2855
(lp2856
tp2857
atp2858
sI1074269604
(Vbootloader_console_init
p2859
(lp2860
(L3761484553L
L1832448559L
(lp2861
(lp2862
Vesp_rom_uart_tx_wait_idle
p2863
aVrtc_clk_apb_freq_get
p2864
aVesp_rom_uart_set_clock_baudrate
p2865
atp2866
atp2867
sI1074240936
(Vprocess_image_header
p2868
(lp2869
(L781939813L
L3785322319L
(lp2870
(lp2871
Vbootloader_flash_read
p2872
atp2873
a(L3020204L
L0L
(lp2874
(lp2875
tp2876
a(L4130667142L
L0L
(lp2877
(lp2878
tp2879
a(L3131381282L
L0L
(lp2880
(lp2881
tp2882
a(L1161397362L
L3785322319L
(lp2883
(lp2884
Vbootloader_sha256_start
p2885
atp2886
a(L1948257695L
L3785322319L
(lp2887
(lp2888
Vbootloader_sha256_data
p2889
atp2890
a(L1095449651L
L0L
(lp2891
(lp2892
tp2893
a(L3020204L
L0L
(lp2894
(lp2895
tp2896
a(L702738154L
L0L
(lp2897
(lp2898
tp2899
a(L3360570486L
L0L
(lp2900
(lp2901
tp2902
a(L3156507611L
L3785322319L
(lp2903
(lp2904
Vesp_log_early_timestamp
p2905
atp2906
a(L3718883008L
L3785322319L
(lp2907
(lp2908
Vbootloader_common_check_chip_validity
p2909
atp2910
a(L3677035427L
L0L
(lp2911
(lp2912
tp2913
a(L3028481L
L0L
(lp2914
(lp2915
tp2916
a(L2724618529L
L3785322319L
(lp2917
(lp2918
Vesp_log_early_timestamp
p2919
atp2920
a(L2250109166L
L0L
(lp2921
(lp2922
tp2923
a(L1235012870L
L0L
(lp2924
(lp2925
tp2926
a(L3063569071L
L0L
(lp2927
(lp2928
tp2929
atp2930
sI1074238132
(Vbootloader_enable_wp
p2931
(lp2932
(L1117825804L
L3785322319L
(lp2933
(lp2934
Vbootloader_execute_flash_command
p2935
atp2936
atp2937
sI1074245300
(Vrtc_clk_xtal_freq_get
p2938
(lp2939
(L2814399712L
L0L
(lp2940
(lp2941
tp2942
a(L2847936993L
L0L
(lp2943
(lp2944
tp2945
a(L1251847234L
L0L
(lp2946
(lp2947
tp2948
a(L3360570486L
L0L
(lp2949
(lp2950
tp2951
atp2952
sI1074268860
(Vbootloader_init_mem
p2953
(lp2954
(L1287383080L
L3785322319L
(lp2955
(lp2956
Vesp_cpu_configure_region_protection
p2957
atp2958
atp2959
sI1074269372
(Vbootloader_clear_bss_section
p2960
(lp2961
(L1035474915L
L0L
(lp2962
(lp2963
tp2964
atp2965
sI1074236592
(Vefuse_hal_flash_encryption_enabled
p2966
(lp2967
(L95576418L
L0L
(lp2968
(lp2969
tp2970
a(L2910371777L
L0L
(lp2971
(lp2972
tp2973
a(L3360570486L
L0L
(lp2974
(lp2975
tp2976
a(L3016870L
L0L
(lp2977
(lp2978
tp2979
a(L3745038218L
L0L
(lp2980
(lp2981
tp2982
a(L957607403L
L0L
(lp2983
(lp2984
tp2985
atp2986
sI1074269872
(Vrtc_clk_init
p2987
(lp2988
(L3027191313L
L0L
(lp2989
(lp2990
tp2991
a(L42671777L
L3785322319L
(lp2992
(lp2993
Vrtc_clk_cpu_freq_to_xtal
p2994
atp2995
a(L1050335063L
L3785322319L
(lp2996
(lp2997
Vrtc_clk_xtal_freq_get
p2998
atp2999
a(L89029051L
L0L
(lp3000
(lp3001
tp3002
a(L4187693717L
L3785322319L
(lp3003
(lp3004
Vrtc_clk_xtal_freq_estimate
p3005
atp3006
a(L1165738187L
L3785322319L
(lp3007
(lp3008
Vesp_log_early_timestamp
p3009
atp3010
a(L1235539582L
L1157885199L
(lp3011
(lp3012
Vesp_rom_uart_tx_wait_idle
p3013
aVrtc_clk_xtal_freq_update
p3014
aVrtc_clk_apb_freq_update
p3015
aVrtc_clk_cpu_freq_get_config
p3016
aVrtc_clk_cpu_freq_mhz_to_config
p3017
atp3018
a(L1472250234L
L1880226080L
(lp3019
(lp3020
Vesp_log_early_timestamp
p3021
aVabort
p3022
atp3023
a(L3028481L
L0L
(lp3024
(lp3025
tp3026
a(L4070631611L
L3785322319L
(lp3027
(lp3028
Vrtc_clk_xtal_freq_estimate
p3029
atp3030
a(L3368302670L
L3785322319L
(lp3031
(lp3032
Vesp_log_early_timestamp
p3033
atp3034
a(L2242669021L
L3785322319L
(lp3035
(lp3036
Vrtc_clk_cpu_freq_set_config
p3037
atp3038
a(L912310138L
L3785322319L
(lp3039
(lp3040
Vrtc_clk_32k_enable
p3041
atp3042
a(L3191820416L
L1832448559L
(lp3043
(lp3044
Vrtc_clk_8m_enable
p3045
aVrtc_clk_fast_src_set
p3046
aVrtc_clk_slow_src_set
p3047
atp3048
a(L1232958848L
L0L
(lp3049
(lp3050
tp3051
atp3052
sI1074244284
(Vwdt_hal_enable
p3053
(lp3054
(L2299130915L
L0L
(lp3055
(lp3056
tp3057
a(L165794138L
L0L
(lp3058
(lp3059
tp3060
a(L3360570486L
L0L
(lp3061
(lp3062
tp3063
a(L2847657174L
L0L
(lp3064
(lp3065
tp3066
atp3067
sI1074238652
(Vcache_ll_l1_get_bus
p3068
(lp3069
(L3823717336L
L0L
(lp3070
(lp3071
tp3072
a(L94425498L
L3785322319L
(lp3073
(lp3074
Vabort
p3075
atp3076
a(L3182782096L
L0L
(lp3077
(lp3078
tp3079
a(L2331017562L
L0L
(lp3080
(lp3081
tp3082
a(L892952750L
L0L
(lp3083
(lp3084
tp3085
a(L1182811810L
L0L
(lp3086
(lp3087
tp3088
a(L1101742417L
L0L
(lp3089
(lp3090
tp3091
a(L1100767927L
L0L
(lp3092
(lp3093
tp3094
a(L3360570486L
L0L
(lp3095
(lp3096
tp3097
a(L2748641547L
L0L
(lp3098
(lp3099
tp3100
a(L892952750L
L0L
(lp3101
(lp3102
tp3103
a(L2258688482L
L0L
(lp3104
(lp3105
tp3106
a(L4048494219L
L0L
(lp3107
(lp3108
tp3109
a(L2258718273L
L0L
(lp3110
(lp3111
tp3112
a(L2938197270L
L0L
(lp3113
(lp3114
tp3115
a(L2752335631L
L0L
(lp3116
(lp3117
tp3118
a(L2756034985L
L0L
(lp3119
(lp3120
tp3121
a(L1641149277L
L0L
(lp3122
(lp3123
tp3124
a(L3251117380L
L0L
(lp3125
(lp3126
tp3127
a(L3027019L
L0L
(lp3128
(lp3129
tp3130
a(L1299866560L
L0L
(lp3131
(lp3132
tp3133
a(L1299866436L
L0L
(lp3134
(lp3135
tp3136
atp3137
sI1074269640
(Vesp_cpu_configure_region_protection
p3138
(lp3139
(L2370813982L
L0L
(lp3140
(lp3141
tp3142
a(L180431425L
L3785322319L
(lp3143
(lp3144
Vmpu_hal_set_region_access
p3145
atp3146
a(L2537388152L
L3785322319L
(lp3147
(lp3148
Vmpu_hal_set_region_access
p3149
atp3150
atp3151
sI1074240708
(Vabort
p3152
(lp3153
(L3043606241L
L0L
(lp3154
(lp3155
tp3156
a(L409471316L
L0L
(lp3157
(lp3158
tp3159
a(L106L
L0L
(lp3160
(lp3161
tp3162
atp3163
sI1074245060
(Vrtc_clk_slow_src_set
p3164
(lp3165
(L3127994918L
L0L
(lp3166
(lp3167
tp3168
a(L3020187L
L0L
(lp3169
(lp3170
tp3171
a(L3028481L
L0L
(lp3172
(lp3173
tp3174
a(L487821223L
L0L
(lp3175
(lp3176
tp3177
a(L1254255655L
L0L
(lp3178
(lp3179
tp3180
a(L1851908495L
L0L
(lp3181
(lp3182
tp3183
a(L1156302086L
L0L
(lp3184
(lp3185
tp3186
a(L3138544334L
L0L
(lp3187
(lp3188
tp3189
a(L94425498L
L3785322319L
(lp3190
(lp3191
Vabort
p3192
atp3193
atp3194
sI1074245572
(Vrtc_clk_xtal_freq_update
p3195
(lp3196
(L4131331546L
L0L
(lp3197
(lp3198
tp3199
a(L3509357017L
L0L
(lp3200
(lp3201
tp3202
a(L2266180931L
L0L
(lp3203
(lp3204
tp3205
atp3206
sI1074248644
(V_fini
p3207
(lp3208
(L3493042598L
L0L
(lp3209
(lp3210
tp3211
atp3212
sI1074238912
(Vload_image
p3213
(lp3214
(L4278320029L
L1880226080L
(lp3215
(lp3216
Vbootloader_random_disable
p3217
aVbootloader_ana_clock_glitch_reset_config
p3218
atp3219
a(L3893505478L
L0L
(lp3220
(lp3221
tp3222
a(L106L
L0L
(lp3223
(lp3224
tp3225
a(L3820571690L
L3758435744L
(lp3226
(lp3227
Vmmu_hal_init
p3228
aVcache_ll_l1_get_bus
p3229
aVcache_ll_l1_enable_bus
p3230
aVcache_ll_l1_get_bus
p3231
aVcache_ll_l1_enable_bus
p3232
aVcache_ll_l1_get_bus
p3233
aVcache_ll_l1_enable_bus
p3234
aVcache_ll_l1_get_bus
p3235
aVcache_ll_l1_enable_bus
p3236
aVbootloader_console_deinit
p3237
atp3238
a(L2993421526L
L0L
(lp3239
(lp3240
tp3241
a(L2902417580L
L0L
(lp3242
(lp3243
tp3244
a(L1773896601L
L3785322319L
(lp3245
(lp3246
Vesp_log_early_timestamp
p3247
atp3248
a(L3455620645L
L0L
(lp3249
(lp3250
tp3251
a(L1265426453L
L0L
(lp3252
(lp3253
tp3254
a(L3020204L
L0L
(lp3255
(lp3256
tp3257
a(L3628242138L
L3785322319L
(lp3258
(lp3259
Vesp_log_early_timestamp
p3260
atp3261
a(L3093629574L
L0L
(lp3262
(lp3263
tp3264
a(L4254185231L
L0L
(lp3265
(lp3266
tp3267
atp3268
sI1074236876
(Vbootloader_common_ota_select_crc
p3269
(lp3270
(L3214440559L
L0L
(lp3271
(lp3272
tp3273
atp3274
sI1074239948
(Vbootloader_reset
p3275
(lp3276
(L4253598951L
L3785322319L
(lp3277
(lp3278
Vbootloader_console_deinit
p3279
atp3280
a(L106L
L0L
(lp3281
(lp3282
tp3283
atp3284
sI1074247116
(Vesp_rom_spiflash_read_status
p3285
(lp3286
(L2021440545L
L0L
(lp3287
(lp3288
tp3289
a(L1182811815L
L0L
(lp3290
(lp3291
tp3292
a(L545033973L
L0L
(lp3293
(lp3294
tp3295
a(L106L
L0L
(lp3296
(lp3297
tp3298
a(L784422336L
L0L
(lp3299
(lp3300
tp3301
a(L3274807848L
L0L
(lp3302
(lp3303
tp3304
a(L2123059967L
L0L
(lp3305
(lp3306
tp3307
a(L3146966332L
L0L
(lp3308
(lp3309
tp3310
a(L2392720019L
L0L
(lp3311
(lp3312
tp3313
atp3314
sI1074268868
(Vbootloader_random_enable
p3315
(lp3316
(L2481830133L
L0L
(lp3317
(lp3318
tp3319
atp3320
sI1074238152
(Vbootloader_mmap_get_free_pages
p3321
(lp3322
(L1496516875L
L0L
(lp3323
(lp3324
tp3325
atp3326
sI1074247892
(Vesp_rom_spiflash_read
p3327
(lp3328
(L21403726L
L0L
(lp3329
(lp3330
tp3331
a(L1992260998L
L0L
(lp3332
(lp3333
tp3334
a(L340311750L
L0L
(lp3335
(lp3336
tp3337
a(L2373999345L
L0L
(lp3338
(lp3339
tp3340
a(L106L
L0L
(lp3341
(lp3342
tp3343
a(L633884026L
L0L
(lp3344
(lp3345
tp3346
a(L106L
L0L
(lp3347
(lp3348
tp3349
a(L573637122L
L0L
(lp3350
(lp3351
tp3352
a(L1636782770L
L0L
(lp3353
(lp3354
tp3355
a(L2441458050L
L0L
(lp3356
(lp3357
tp3358
a(L336550648L
L0L
(lp3359
(lp3360
tp3361
a(L4102960242L
L0L
(lp3362
(lp3363
tp3364
a(L106L
L0L
(lp3365
(lp3366
tp3367
a(L1261376020L
L3785322319L
(lp3368
(lp3369
Vesp_rom_spiflash_wait_idle
p3370
atp3371
a(L3021737L
L0L
(lp3372
(lp3373
tp3374
a(L106L
L0L
(lp3375
(lp3376
tp3377
a(L1868280504L
L0L
(lp3378
(lp3379
tp3380
a(L106L
L0L
(lp3381
(lp3382
tp3383
a(L1504811087L
L0L
(lp3384
(lp3385
tp3386
a(L1221163038L
L0L
(lp3387
(lp3388
tp3389
a(L4122060822L
L0L
(lp3390
(lp3391
tp3392
a(L2449909959L
L0L
(lp3393
(lp3394
tp3395
a(L2989032L
L0L
(lp3396
(lp3397
tp3398
a(L3819849625L
L0L
(lp3399
(lp3400
tp3401
a(L3319041088L
L0L
(lp3402
(lp3403
tp3404
a(L1429756495L
L0L
(lp3405
(lp3406
tp3407
a(L3901822013L
L0L
(lp3408
(lp3409
tp3410
a(L1392781355L
L0L
(lp3411
(lp3412
tp3413
a(L2921907736L
L0L
(lp3414
(lp3415
tp3416
a(L1328428270L
L0L
(lp3417
(lp3418
tp3419
a(L3327316362L
L0L
(lp3420
(lp3421
tp3422
a(L924239444L
L0L
(lp3423
(lp3424
tp3425
a(L1996371968L
L0L
(lp3426
(lp3427
tp3428
a(L781550816L
L0L
(lp3429
(lp3430
tp3431
a(L2687789892L
L0L
(lp3432
(lp3433
tp3434
a(L1405253496L
L0L
(lp3435
(lp3436
tp3437
a(L4223869220L
L0L
(lp3438
(lp3439
tp3440
a(L97689L
L0L
(lp3441
(lp3442
tp3443
a(L1183020347L
L0L
(lp3444
(lp3445
tp3446
a(L4014024819L
L0L
(lp3447
(lp3448
tp3449
a(L3621567083L
L0L
(lp3450
(lp3451
tp3452
atp3453
sI1074238160
(Vbootloader_fill_random
p3454
(lp3455
(L1731424088L
L0L
(lp3456
(lp3457
tp3458
a(L1931639696L
L3785322319L
(lp3459
(lp3460
V__assert_func
p3461
atp3462
a(L1882547218L
L0L
(lp3463
(lp3464
tp3465
a(L2910371777L
L0L
(lp3466
(lp3467
tp3468
a(L95634693L
L0L
(lp3469
(lp3470
tp3471
a(L3630908706L
L0L
(lp3472
(lp3473
tp3474
a(L160162640L
L0L
(lp3475
(lp3476
tp3477
a(L97689L
L0L
(lp3478
(lp3479
tp3480
a(L3360570486L
L0L
(lp3481
(lp3482
tp3483
atp3484
sI1074240220
(Vindex_to_partition
p3485
(lp3486
(L4066096119L
L0L
(lp3487
(lp3488
tp3489
a(L1739185955L
L0L
(lp3490
(lp3491
tp3492
a(L2171552758L
L0L
(lp3493
(lp3494
tp3495
a(L2808906342L
L0L
(lp3496
(lp3497
tp3498
a(L2101481936L
L0L
(lp3499
(lp3500
tp3501
a(L3698927993L
L0L
(lp3502
(lp3503
tp3504
a(L2808826781L
L0L
(lp3505
(lp3506
tp3507
a(L3003398163L
L0L
(lp3508
(lp3509
tp3510
a(L2880709161L
L0L
(lp3511
(lp3512
tp3513
a(L1087646172L
L0L
(lp3514
(lp3515
tp3516
atp3517
sI1074245340
(Vrtc_clk_cpu_freq_mhz_to_config
p3518
(lp3519
(L908718885L
L3785322319L
(lp3520
(lp3521
Vrtc_clk_xtal_freq_get
p3522
atp3523
a(L60460069L
L0L
(lp3524
(lp3525
tp3526
a(L3802072124L
L0L
(lp3527
(lp3528
tp3529
a(L3159006042L
L0L
(lp3530
(lp3531
tp3532
a(L3360570486L
L0L
(lp3533
(lp3534
tp3535
a(L895147205L
L0L
(lp3536
(lp3537
tp3538
a(L3970036657L
L0L
(lp3539
(lp3540
tp3541
a(L2731353429L
L0L
(lp3542
(lp3543
tp3544
a(L1555485793L
L0L
(lp3545
(lp3546
tp3547
a(L2258897023L
L0L
(lp3548
(lp3549
tp3550
a(L1947499251L
L0L
(lp3551
(lp3552
tp3553
a(L1306331021L
L0L
(lp3554
(lp3555
tp3556
atp3557
sI1074268628
(Vbootloader_clock_configure
p3558
(lp3559
(L2559598596L
L1880226080L
(lp3560
(lp3561
Vesp_rom_uart_tx_wait_idle
p3562
aVefuse_hal_chip_revision
p3563
atp3564
a(L377556189L
L0L
(lp3565
(lp3566
tp3567
a(L883406775L
L0L
(lp3568
(lp3569
tp3570
a(L106L
L0L
(lp3571
(lp3572
tp3573
a(L4055587691L
L1832448559L
(lp3574
(lp3575
Vrtc_clk_slow_src_get
p3576
aVrtc_clk_fast_src_get
p3577
aVrtc_clk_init
p3578
atp3579
a(L2555738642L
L0L
(lp3580
(lp3581
tp3582
a(L1660176588L
L3785322319L
(lp3583
(lp3584
Vrtc_clk_apb_freq_get
p3585
atp3586
a(L106L
L0L
(lp3587
(lp3588
tp3589
a(L106L
L0L
(lp3590
(lp3591
tp3592
atp3593
sI1074269396
(Vbootloader_read_bootloader_header
p3594
(lp3595
(L2653072919L
L3785322319L
(lp3596
(lp3597
Vbootloader_flash_read
p3598
atp3599
a(L740409177L
L3785322319L
(lp3600
(lp3601
Vesp_log_early_timestamp
p3602
atp3603
a(L735741265L
L0L
(lp3604
(lp3605
tp3606
atp3607
sI1074236632
(Vefuse_hal_get_major_chip_version
p3608
(lp3609
(L1999356974L
L0L
(lp3610
(lp3611
tp3612
a(L894792960L
L0L
(lp3613
(lp3614
tp3615
a(L3783348505L
L0L
(lp3616
(lp3617
tp3618
a(L3360570486L
L0L
(lp3619
(lp3620
tp3621
atp3622
sI1074240472
(Vbootloader_sha256_finish
p3623
(lp3624
(L4066096136L
L0L
(lp3625
(lp3626
tp3627
a(L276446913L
L0L
(lp3628
(lp3629
tp3630
a(L792144543L
L3785322319L
(lp3631
(lp3632
V__assert_func
p3633
atp3634
a(L3020204L
L0L
(lp3635
(lp3636
tp3637
a(L1843692520L
L0L
(lp3638
(lp3639
tp3640
a(L2534656226L
L0L
(lp3641
(lp3642
tp3643
a(L1799405898L
L3785322319L
(lp3644
(lp3645
Vbootloader_sha256_data
p3646
atp3647
a(L1968575810L
L0L
(lp3648
(lp3649
tp3650
a(L2146378219L
L3785322319L
(lp3651
(lp3652
Vbootloader_sha256_data
p3653
atp3654
a(L2013840504L
L0L
(lp3655
(lp3656
tp3657
a(L657425439L
L0L
(lp3658
(lp3659
tp3660
a(L3128170966L
L0L
(lp3661
(lp3662
tp3663
a(L657425439L
L0L
(lp3664
(lp3665
tp3666
a(L2748668276L
L0L
(lp3667
(lp3668
tp3669
a(L1638329535L
L0L
(lp3670
(lp3671
tp3672
a(L3347778L
L0L
(lp3673
(lp3674
tp3675
a(L3360570486L
L0L
(lp3676
(lp3677
tp3678
atp3679
sI1074244824
(Vrtc_clk_32k_enable
p3680
(lp3681
(L753387299L
L0L
(lp3682
(lp3683
tp3684
a(L3776007933L
L3785322319L
(lp3685
(lp3686
Vrtc_clk_32k_enable_common
p3687
atp3688
a(L3496950L
L0L
(lp3689
(lp3690
tp3691
a(L1706405080L
L0L
(lp3692
(lp3693
tp3694
atp3695
sI1074247640
(Vesp_rom_spiflash_write
p3696
(lp3697
(L1596456936L
L0L
(lp3698
(lp3699
tp3700
a(L2258688483L
L0L
(lp3701
(lp3702
tp3703
a(L3360570486L
L0L
(lp3704
(lp3705
tp3706
a(L3368132847L
L0L
(lp3707
(lp3708
tp3709
a(L3106685981L
L0L
(lp3710
(lp3711
tp3712
a(L3488660639L
L3785322319L
(lp3713
(lp3714
Vesp_rom_spiflash_program_page_internal
p3715
atp3716
a(L3543402353L
L3785322319L
(lp3717
(lp3718
Vesp_rom_spiflash_program_page_internal
p3719
atp3720
a(L4222526342L
L0L
(lp3721
(lp3722
tp3723
a(L2004208511L
L0L
(lp3724
(lp3725
tp3726
a(L564470656L
L0L
(lp3727
(lp3728
tp3729
a(L2988842384L
L3785322319L
(lp3730
(lp3731
Vesp_rom_spiflash_program_page_internal
p3732
atp3733
a(L2302069176L
L0L
(lp3734
(lp3735
tp3736
atp3737
sI1074237668
(Vbootloader_munmap
p3738
(lp3739
(L2004081002L
L0L
(lp3740
(lp3741
tp3742
a(L3267444640L
L0L
(lp3743
(lp3744
tp3745
a(L3360570486L
L0L
(lp3746
(lp3747
tp3748
atp3749
sI1074237412
(Vspi_to_esp_err
p3750
(lp3751
(L3502410875L
L0L
(lp3752
(lp3753
tp3754
a(L2406094103L
L0L
(lp3755
(lp3756
tp3757
a(L3952441574L
L0L
(lp3758
(lp3759
tp3760
a(L3126521138L
L0L
(lp3761
(lp3762
tp3763
atp3764
sI1074267628
(Vcall_start_cpu0
p3765
(lp3766
(L1137852827L
L0L
(lp3767
(lp3768
tp3769
a(L549459388L
L0L
(lp3770
(lp3771
tp3772
a(L3212347974L
L3785322319L
(lp3773
(lp3774
Vbootloader_init
p3775
atp3776
a(L94425498L
L3785322319L
(lp3777
(lp3778
Vbootloader_reset
p3779
atp3780
a(L1122046408L
L0L
(lp3781
(lp3782
tp3783
a(L4099474112L
L0L
(lp3784
(lp3785
tp3786
a(L4004585570L
L1880226080L
(lp3787
(lp3788
Vbootloader_utility_load_boot_image_from_deep_sleep
p3789
aVbootloader_utility_load_partition_table
p3790
atp3791
a(L2761094216L
L3785322319L
(lp3792
(lp3793
Vesp_log_early_timestamp
p3794
atp3795
a(L736289835L
L3785322319L
(lp3796
(lp3797
Vbootloader_utility_get_selected_boot_partition
p3798
atp3799
a(L344825785L
L3785322319L
(lp3800
(lp3801
Vbootloader_utility_load_boot_image
p3802
atp3803
atp3804
sI1074236896
(Vbootloader_common_ota_select_valid
p3805
(lp3806
(L1563399710L
L3785322319L
(lp3807
(lp3808
Vbootloader_common_ota_select_invalid
p3809
atp3810
a(L3814720849L
L3785322319L
(lp3811
(lp3812
Vbootloader_common_ota_select_crc
p3813
atp3814
a(L3360570486L
L0L
(lp3815
(lp3816
tp3817
atp3818
sI1074235104
(Vbootloader_execute_flash_command
p3819
(lp3820
(L2481595632L
L3785322319L
(lp3821
(lp3822
Vbootloader_flash_execute_command_common
p3823
atp3824
atp3825
sI1074239980
(Vbootloader_utility_load_boot_image
p3826
(lp3827
(L1274108245L
L0L
(lp3828
(lp3829
tp3830
a(L2177418995L
L3785322319L
(lp3831
(lp3832
Vtry_load_partition
p3833
atp3834
a(L1305243774L
L3785322319L
(lp3835
(lp3836
Vload_image
p3837
atp3838
a(L2678044310L
L3785322319L
(lp3839
(lp3840
Vesp_log_early_timestamp
p3841
atp3842
a(L3827921190L
L3785322319L
(lp3843
(lp3844
Vbootloader_reset
p3845
atp3846
a(L1953693036L
L3785322319L
(lp3847
(lp3848
Vindex_to_partition
p3849
atp3850
a(L1204373741L
L3785322319L
(lp3851
(lp3852
Vtry_load_partition
p3853
atp3854
a(L1899865696L
L0L
(lp3855
(lp3856
tp3857
a(L2695355117L
L3785322319L
(lp3858
(lp3859
Vset_actual_ota_seq
p3860
atp3861
a(L1868897605L
L3785322319L
(lp3862
(lp3863
Vlog_invalid_app_partition
p3864
atp3865
a(L831650730L
L0L
(lp3866
(lp3867
tp3868
a(L3021737L
L0L
(lp3869
(lp3870
tp3871
a(L695456438L
L0L
(lp3872
(lp3873
tp3874
a(L1133226200L
L3785322319L
(lp3875
(lp3876
Vtry_load_partition
p3877
atp3878
a(L1476220720L
L3785322319L
(lp3879
(lp3880
Vesp_log_early_timestamp
p3881
atp3882
a(L2347390157L
L3785322319L
(lp3883
(lp3884
Vindex_to_partition
p3885
atp3886
a(L1204373741L
L3785322319L
(lp3887
(lp3888
Vtry_load_partition
p3889
atp3890
a(L3061261803L
L0L
(lp3891
(lp3892
tp3893
a(L3582858798L
L3785322319L
(lp3894
(lp3895
Vlog_invalid_app_partition
p3896
atp3897
a(L4174201996L
L3785322319L
(lp3898
(lp3899
Vesp_log_early_timestamp
p3900
atp3901
atp3902
sI1074237164
(Vbootloader_common_get_active_otadata
p3903
(lp3904
(L3317503532L
L0L
(lp3905
(lp3906
tp3907
a(L2503049265L
L1832448559L
(lp3908
(lp3909
Vbootloader_common_ota_select_valid
p3910
aVbootloader_common_ota_select_valid
p3911
aVbootloader_common_select_otadata
p3912
atp3913
a(L735741265L
L0L
(lp3914
(lp3915
tp3916
atp3917
sI1074236392
(Vbootloader_common_get_chip_ver_pkg
p3918
(lp3919
(L4238672956L
L0L
(lp3920
(lp3921
tp3922
atp3923
sI1074269688
(Vrtc_clk_xtal_freq_estimate
p3924
(lp3925
(L3845076426L
L1880226080L
(lp3926
(lp3927
Vrtc_clk_8m_enabled
p3928
aVrtc_clk_8md256_enabled
p3929
atp3930
a(L2449794434L
L3785322319L
(lp3931
(lp3932
Vrtc_clk_8m_enable
p3933
atp3934
a(L293008461L
L3785322319L
(lp3935
(lp3936
Vrtc_clk_cal_ratio
p3937
atp3938
a(L1894802584L
L0L
(lp3939
(lp3940
tp3941
a(L1915120046L
L0L
(lp3942
(lp3943
tp3944
a(L2740879690L
L0L
(lp3945
(lp3946
tp3947
a(L1059750288L
L3785322319L
(lp3948
(lp3949
Vrtc_clk_8m_enable
p3950
atp3951
a(L3401468681L
L3785322319L
(lp3952
(lp3953
Vesp_log_early_timestamp
p3954
atp3955
a(L2894376164L
L0L
(lp3956
(lp3957
tp3958
a(L1641150486L
L0L
(lp3959
(lp3960
tp3961
a(L2507662435L
L3785322319L
(lp3962
(lp3963
Vesp_log_early_timestamp
p3964
atp3965
a(L2081406323L
L3785322319L
(lp3966
(lp3967
Vesp_log_early_timestamp
p3968
atp3969
atp3970
sI1074234612
(Vesp_flash_encryption_enabled
p3971
(lp3972
(L376617603L
L3785322319L
(lp3973
(lp3974
Vefuse_hal_flash_encryption_enabled
p3975
atp3976
atp3977
sI1074240756
(Vbootloader_ana_clock_glitch_reset_config
p3978
(lp3979
(L2100504542L
L0L
(lp3980
(lp3981
tp3982
atp3983
sI1074245616
(Vrtc_clk_apb_freq_update
p3984
(lp3985
(L1720241949L
L0L
(lp3986
(lp3987
tp3988
atp3989
sI1074240764
(Vprocess_checksum
p3990
(lp3991
(L3560019325L
L0L
(lp3992
(lp3993
tp3994
a(L2910371777L
L0L
(lp3995
(lp3996
tp3997
a(L186886970L
L0L
(lp3998
(lp3999
tp4000
a(L2910371777L
L0L
(lp4001
(lp4002
tp4003
a(L3020204L
L0L
(lp4004
(lp4005
tp4006
a(L2480703612L
L3785322319L
(lp4007
(lp4008
Vbootloader_sha256_data
p4009
atp4010
a(L4179073442L
L0L
(lp4011
(lp4012
tp4013
a(L1811888222L
L3785322319L
(lp4014
(lp4015
Vbootloader_flash_read
p4016
atp4017
a(L3126521138L
L0L
(lp4018
(lp4019
tp4020
a(L2867862897L
L0L
(lp4021
(lp4022
tp4023
a(L4108598624L
L3785322319L
(lp4024
(lp4025
Vesp_log_early_timestamp
p4026
atp4027
atp4028
ssS'functionsdups'
p4029
g11
((lp4030
tp4031
Rp4032
sS'immediatedups'
p4033
g11
((lp4034
tp4035
Rp4036
sS'functiondups'
p4037
g11
((lp4038
tp4039
Rp4040
sS'fuzzy'
p4041
(dp4042
L1536L
I1074240684
sL438947497L
I1074245060
sL2170867428L
I1074269872
sL617583950L
I1074236932
sL430153639L
I1074235776
sL3121027072L
I1074270308
sL1655084846L
I1074237240
sL2082889262L
I1074241580
sL291131346L
I1074244608
sL835568324L
I1074246488
sL1340445289L
I1074235528
sL2919016435L
I1074235136
sL16208487L
I1074234624
sL2319042089L
I1074245192
sL1907123383L
I1074238912
sL3881399234L
I1074245644
sL151789201L
I1074269688
sL1419132215L
I1074238160
sL114144873L
I1074237224
sL2469233929L
I1074240472
sL701833459L
I1074268628
sL2475522855L
I1074269604
sL1270034334L
I1074267628
sL3897252859L
I1074238568
sL1065525808L
I1074236728
sL1766137975L
I1074238828
sL2327783177L
I1074240764
sL2272466760L
I1074245432
sL2117292686L
I1074241184
sL1188065553L
I1074237720
sL1370949492L
I1074239892
sL1415908896L
I1074241800
sL94556391L
I1074245220
sL3210669721L
I1074244824
sL1332800441L
I1074237164
sL2884218272L
I1074267740
sL1345429244L
I1074240936
sL3190020590L
I1074242424
sL477634984L
I1074267960
sL4160102055L
I1074239948
sL4202185385L
I1074247204
sL1768086576L
I1074236244
sL4171975289L
I1074247504
sL1565254297L
I1074247804
sL1205407754L
I1074239980
sL2191698036L
I1074269468
sL1635528231L
I1074243840
sL519424169L
I1074246956
sL1060788199L
I1074245340
sL2800733194L
I1074239288
sL406720601L
I1074238652
sL737694352L
I1074247312
sL503029138L
I1074247252
sL1616763831L
I1074247892
sL2262558768L
I1074247116
sL424867129L
I1074247640
sL3834155367L
I1074241128
sL3338518926L
I1074237444
sL1299206787L
I1074239404
sL2123938668L
I1074245760
sL3883282432L
I1074241672
sL4173399607L
I1074242956
sL4278077574L
I1074239616
sL1667054119L
I1074240316
sL206902443L
I1074237992
ssb.