ccopy_reg
_reconstructor
p0
(crizzo
RizzoSignature
p1
c__builtin__
object
p2
Ntp3
Rp4
(dp5
S'formal'
p6
(dp7
L3942486265L
I1074245796
sL378225294L
I1074247000
sL1741170115L
I1074238100
sL2677173406L
I1074238120
sL3024445257L
I1074237368
sL3416093331L
I1074240392
sL3960991490L
I1074269992
sL4001287272L
I1074239444
sL2504473439L
I1074242936
sL1237733855L
I1074238904
sL176613532L
I1074241996
sL4213015302L
I1074243436
sL2105543580L
I1074243756
sL1217847178L
I1074244956
sL956556060L
I1074237540
sL3545118830L
I1074267840
sL2188949083L
I1074243468
sL4106531553L
I1074245548
sL1779398953L
I1074237352
sL3183029151L
I1074236720
sL818480367L
I1074236616
sL343717205L
I1074238368
sL957392188L
I1074241600
sL2702580795L
I1074237464
sL3226534268L
I1074238288
sL3289828409L
I1074246084
sL1600148817L
I1074270028
sL2897186972L
I1074240888
sL2896295319L
I1074236856
sL3284957946L
I1074267728
sL2330705106L
I1074240732
sL666019467L
I1074245812
sL657003543L
I1074242088
sL1674148343L
I1074245852
sL1743813299L
I1074247628
sL4171974888L
I1074269900
sL2485902447L
I1074236696
sL3777532524L
I1074246956
sL3839680410L
I1074241100
sL2960338746L
I1074246272
sL4158184850L
I1074247436
sL1193029968L
I1074238956
sL3788752543L
I1074245944
sL4263947382L
I1074236520
sL83866540L
I1074239056
sL2894402769L
I1074244868
sL2914590188L
I1074269928
sL2166402678L
I1074235792
sL1585823442L
I1074244768
sL2925922878L
I1074241180
sL2980528895L
I1074270856
sL1622896354L
I1074244796
sL3213302492L
I1074269636
sL1852033855L
I1074246156
sL985941158L
I1074237796
sL3537851837L
I1074248316
sL227907582L
I1074240712
sL747962360L
I1074236760
sL3252548269L
I1074248016
sL712004097L
I1074237004
sL1501076238L
I1074238696
sL3169546899L
I1074236372
sL2128774811L
I1074236552
sL2397903767L
I1074245732
sL3914567465L
I1074268060
sL2323694080L
I1074247824
sL426984944L
I1074236928
sL2485736362L
I1074267139
sL4117027047L
I1074268836
sL676927194L
I1074269124
sL2277098556L
I1074236828
sL3307282855L
I1074238260
sL2844936987L
I1074248152
sL2563964767L
I1074235904
sL1043339424L
I1074240636
sL3015335465L
I1074244700
sL1141372050L
I1074270696
sL1109026444L
I1074269772
sL3870456869L
I1074236960
sL2189301476L
I1074245120
sL4038945309L
I1074235588
sL668490105L
I1074245704
sL3167898227L
I1074270076
sL257188848L
I1074239584
sL17106344L
I1074269704
sL2997001746L
I1074237292
sL1676245851L
I1074237332
sL1387660805L
I1074247716
sL1251949096L
I1074241352
sL368241221L
I1074244352
sL1332374493L
I1074269620
sL2819127986L
I1074237024
sL1277899414L
I1074237572
sL2881893497L
I1074247468
sL3945546988L
I1074240360
sL1877634603L
I1074270928
sL263943800L
I1074242216
sL2987381963L
I1074269132
sL97988882L
I1074244668
sL2290350923L
I1074248404
sL1805640019L
I1074245396
sL701333505L
I1074244984
sL3172818640L
I1074270260
sL3901143113L
I1074237060
sL4040630277L
I1074237848
sL2639205533L
I1074245336
sL1216067753L
I1074246128
sL1638445439L
I1074239948
sL2263182908L
I1074238280
sL1267159130L
I1074235244
sL2310612839L
I1074241124
sL3630163135L
I1074236844
sL2287234484L
I1074238780
sL188664287L
I1074235212
sL746036885L
I1074245572
sL1499807873L
I1074244916
sL692536993L
I1074237436
sL3063310718L
I1074245276
sL1963047656L
I1074234732
sL3300000600L
I1074268892
sL311797112L
I1074245524
sL2998939693L
I1074247764
sL1621098576L
I1074243452
sL1636616062L
I1074235536
sL3049985855L
I1074235636
sL3902393197L
I1074241084
sL2702496488L
I1074240260
sL763831419L
I1074241544
sL366071084L
I1074269660
sL801329980L
I1074239004
ssS'immediates'
p8
(dp9
sS'formaldups'
p10
c__builtin__
set
p11
((lp12
tp13
Rp14
sS'stringdups'
p15
g11
((lp16
tp17
Rp18
sS'fuzzydups'
p19
g11
((lp20
tp21
Rp22
sS'strings'
p23
(dp24
sS'functions'
p25
(dp26
I1074269704
(Vbootloader_check_bootloader_validity
p27
(lp28
(L3216107859L
L1832448559L
(lp29
(lp30
Vefuse_hal_chip_revision
p31
aVesp_log_early_timestamp
p32
aVbootloader_common_check_chip_validity
p33
atp34
atp35
sI1074240260
(Vbootloader_utility_load_boot_image_from_deep_sleep
p36
(lp37
(L3505610841L
L0L
(lp38
(lp39
tp40
a(L4117910119L
L3785322319L
(lp41
(lp42
Vbootloader_common_get_rtc_retain_mem_partition
p43
atp44
a(L807480887L
L3785322319L
(lp45
(lp46
Vbootloader_load_image_no_verify
p47
atp48
a(L860834916L
L1832448559L
(lp49
(lp50
Vesp_log_early_timestamp
p51
aVbootloader_common_update_rtc_retain_mem
p52
aVload_image
p53
atp54
a(L2051659211L
L1880226080L
(lp55
(lp56
Vesp_log_early_timestamp
p57
aVesp_log_early_timestamp
p58
atp59
a(L3360570486L
L0L
(lp60
(lp61
tp62
atp63
sI1074244868
(Vmmu_hal_init
p64
(lp65
(L2407320060L
L0L
(lp66
(lp67
tp68
a(L2010554219L
L0L
(lp69
(lp70
tp71
a(L3268103L
L0L
(lp72
(lp73
tp74
a(L3212334523L
L0L
(lp75
(lp76
tp77
a(L2010554219L
L0L
(lp78
(lp79
tp80
a(L3360570486L
L0L
(lp81
(lp82
tp83
atp84
sI1074236928
(Vesp_log_early_timestamp
p85
(lp86
(L3733265409L
L0L
(lp87
(lp88
tp89
atp90
sI1074235904
(Vbootloader_flash_gpio_config
p91
(lp92
(L3448878117L
L3785322319L
(lp93
(lp94
Vbootloader_common_get_chip_ver_pkg
p95
atp96
a(L106L
L0L
(lp97
(lp98
tp99
a(L1998579353L
L0L
(lp100
(lp101
tp102
a(L106L
L0L
(lp103
(lp104
tp105
a(L961479410L
L0L
(lp106
(lp107
tp108
a(L3118453758L
L0L
(lp109
(lp110
tp111
a(L106L
L0L
(lp112
(lp113
tp114
a(L4003626558L
L0L
(lp115
(lp116
tp117
a(L2656511625L
L0L
(lp118
(lp119
tp120
a(L3360570486L
L0L
(lp121
(lp122
tp123
atp124
sI1074244352
(Vwdt_hal_config_stage
p125
(lp126
(L331558507L
L0L
(lp127
(lp128
tp129
a(L4279082939L
L0L
(lp130
(lp131
tp132
a(L93674324L
L0L
(lp133
(lp134
tp135
a(L2902417580L
L0L
(lp136
(lp137
tp138
a(L3605783182L
L0L
(lp139
(lp140
tp141
a(L3020187L
L0L
(lp142
(lp143
tp144
a(L94425498L
L3785322319L
(lp145
(lp146
Vabort
p147
atp148
a(L2509818866L
L0L
(lp149
(lp150
tp151
a(L3360570486L
L0L
(lp152
(lp153
tp154
a(L4117086386L
L0L
(lp155
(lp156
tp157
a(L1249229480L
L0L
(lp158
(lp159
tp160
a(L4278159418L
L0L
(lp161
(lp162
tp163
a(L93674324L
L0L
(lp164
(lp165
tp166
a(L3020204L
L0L
(lp167
(lp168
tp169
a(L1217070497L
L0L
(lp170
(lp171
tp172
a(L3020187L
L0L
(lp173
(lp174
tp175
a(L106L
L0L
(lp176
(lp177
tp178
a(L2359897583L
L0L
(lp179
(lp180
tp181
a(L3604452795L
L0L
(lp182
(lp183
tp184
a(L1166103352L
L0L
(lp185
(lp186
tp187
atp188
sI1074245120
(Vrtc_clk_cpu_freq_to_pll_mhz
p189
(lp190
(L1393544349L
L0L
(lp191
(lp192
tp193
a(L405771233L
L0L
(lp194
(lp195
tp196
a(L2931156765L
L0L
(lp197
(lp198
tp199
a(L3298441904L
L0L
(lp200
(lp201
tp202
a(L3680579786L
L0L
(lp203
(lp204
tp205
a(L1298905564L
L0L
(lp206
(lp207
tp208
a(L2151396284L
L3785322319L
(lp209
(lp210
Vrtc_clk_wait_for_slow_cycle
p211
atp212
a(L1611366957L
L0L
(lp213
(lp214
tp215
a(L1611366988L
L0L
(lp216
(lp217
tp218
a(L94425498L
L3785322319L
(lp219
(lp220
Vabort
p221
atp222
atp223
sI1074267136
(V_init
p224
(lp225
(L3493042598L
L0L
(lp226
(lp227
tp228
atp229
sI1074246156
(Vrtc_clk_cpu_freq_to_xtal
p230
(lp231
(L1877066776L
L0L
(lp232
(lp233
tp234
a(L94425498L
L3785322319L
(lp235
(lp236
Vabort
p237
atp238
a(L3010191712L
L3785322319L
(lp239
(lp240
Vrtc_clk_apb_freq_update
p241
atp242
a(L2258867232L
L0L
(lp243
(lp244
tp245
a(L2484631171L
L0L
(lp246
(lp247
tp248
atp249
sI1074247436
(Vrtc_clk_cal_ratio
p250
(lp251
(L1134918584L
L3785322319L
(lp252
(lp253
Vrtc_clk_cal_internal
p254
atp255
atp256
sI1074267139
(V_text_start
p257
(lp258
(L1817914933L
L0L
(lp259
(lp260
tp261
a(L348696462L
L0L
(lp262
(lp263
tp264
atp265
sI1074241544
(Vbootloader_util_regions_overlap
p266
(lp267
(L2762640130L
L0L
(lp268
(lp269
tp270
a(L2834975998L
L0L
(lp271
(lp272
tp273
a(L2532576294L
L3785322319L
(lp274
(lp275
V__assert_func
p276
atp277
a(L97642L
L0L
(lp278
(lp279
tp280
a(L3546681296L
L0L
(lp281
(lp282
tp283
a(L366123053L
L0L
(lp284
(lp285
tp286
a(L2258867228L
L0L
(lp287
(lp288
tp289
a(L1253626734L
L0L
(lp290
(lp291
tp292
a(L2258897019L
L0L
(lp293
(lp294
tp295
a(L3109269495L
L0L
(lp296
(lp297
tp298
atp299
sI1074245396
(Vrtc_clk_8m_enable
p300
(lp301
(L3008681732L
L0L
(lp302
(lp303
tp304
a(L3590910551L
L0L
(lp305
(lp306
tp307
a(L2151320156L
L0L
(lp308
(lp309
tp310
a(L1456128412L
L0L
(lp311
(lp312
tp313
a(L3360570486L
L0L
(lp314
(lp315
tp316
a(L1318267208L
L0L
(lp317
(lp318
tp319
a(L504651930L
L0L
(lp320
(lp321
tp322
atp323
sI1074239004
(Vcache_ll_l1_enable_bus
p324
(lp325
(L902531686L
L0L
(lp326
(lp327
tp328
atp329
sI1074237464
(Vbootloader_common_select_otadata
p330
(lp331
(L4071767857L
L0L
(lp332
(lp333
tp334
a(L1999329187L
L0L
(lp335
(lp336
tp337
a(L3846398843L
L0L
(lp338
(lp339
tp340
a(L2501968171L
L0L
(lp341
(lp342
tp343
a(L3360570486L
L0L
(lp344
(lp345
tp346
a(L2045232488L
L0L
(lp347
(lp348
tp349
a(L1243525916L
L0L
(lp350
(lp351
tp352
a(L3094144427L
L0L
(lp353
(lp354
tp355
a(L2399509845L
L0L
(lp356
(lp357
tp358
a(L1641201884L
L0L
(lp359
(lp360
tp361
atp362
sI1074236696
(Vefuse_hal_chip_revision
p363
(lp364
(L2719302832L
L1880226080L
(lp365
(lp366
Vefuse_hal_get_major_chip_version
p367
aVefuse_hal_get_minor_chip_version
p368
atp369
atp370
sI1074269992
(Vbootloader_console_init
p371
(lp372
(L2850348327L
L1832448559L
(lp373
(lp374
Vesp_rom_uart_tx_wait_idle
p375
aVrtc_clk_apb_freq_get
p376
aVesp_rom_uart_set_clock_baudrate
p377
atp378
atp379
sI1074247716
(Vesp_rom_spiflash_wait_idle
p380
(lp381
(L3233076573L
L0L
(lp382
(lp383
tp384
a(L2023766174L
L0L
(lp385
(lp386
tp387
a(L2805934554L
L0L
(lp388
(lp389
tp390
a(L3086959262L
L0L
(lp391
(lp392
tp393
a(L4161019926L
L3785322319L
(lp394
(lp395
Vesp_rom_spiflash_read_status
p396
atp397
atp398
sI1074236960
(Vcheck_rtc_retain_mem
p399
(lp400
(L2257480021L
L0L
(lp401
(lp402
tp403
atp404
sI1074246956
(Vrtc_clk_apb_freq_get
p405
(lp406
(L2346600719L
L0L
(lp407
(lp408
tp409
atp410
sI1074247468
(Vrtc_clk_wait_for_slow_cycle
p411
(lp412
(L1695132777L
L0L
(lp413
(lp414
tp415
a(L287687718L
L0L
(lp416
(lp417
tp418
a(L3360570486L
L0L
(lp419
(lp420
tp421
a(L835269876L
L0L
(lp422
(lp423
tp424
a(L2994547433L
L0L
(lp425
(lp426
tp427
a(L3451362226L
L0L
(lp428
(lp429
tp430
a(L453705463L
L3785322319L
(lp431
(lp432
Vesp_log_early_timestamp
p433
atp434
atp435
sI1074242088
(Vshould_load
p436
(lp437
(L712089227L
L0L
(lp438
(lp439
tp440
a(L1182990556L
L0L
(lp441
(lp442
tp443
a(L3445575825L
L0L
(lp444
(lp445
tp446
a(L2306467100L
L0L
(lp447
(lp448
tp449
a(L1002638193L
L0L
(lp450
(lp451
tp452
a(L2258897019L
L0L
(lp453
(lp454
tp455
a(L3781799363L
L0L
(lp456
(lp457
tp458
a(L3028464L
L0L
(lp459
(lp460
tp461
a(L1926545939L
L0L
(lp462
(lp463
tp464
a(L4277114872L
L0L
(lp465
(lp466
tp467
a(L2824381917L
L0L
(lp468
(lp469
tp470
a(L1243412227L
L0L
(lp471
(lp472
tp473
a(L2011157548L
L0L
(lp474
(lp475
tp476
a(L3126521138L
L0L
(lp477
(lp478
tp479
a(L1305407438L
L0L
(lp480
(lp481
tp482
a(L1305407469L
L0L
(lp483
(lp484
tp485
atp486
sI1074244916
(Vefuse_hal_get_rated_freq_mhz
p487
(lp488
(L3387138627L
L0L
(lp489
(lp490
tp491
a(L3671388797L
L0L
(lp492
(lp493
tp494
a(L3360570486L
L0L
(lp495
(lp496
tp497
atp498
sI1074238260
(Vbootloader_enable_wp
p499
(lp500
(L1117825804L
L3785322319L
(lp501
(lp502
Vbootloader_execute_flash_command
p503
atp504
atp505
sI1074236720
(Vefuse_hal_flash_encryption_enabled
p506
(lp507
(L176925918L
L0L
(lp508
(lp509
tp510
a(L2910371777L
L0L
(lp511
(lp512
tp513
a(L3360570486L
L0L
(lp514
(lp515
tp516
a(L3016870L
L0L
(lp517
(lp518
tp519
a(L3745038218L
L0L
(lp520
(lp521
tp522
a(L957607403L
L0L
(lp523
(lp524
tp525
atp526
sI1074244668
(Vwdt_hal_write_protect_disable
p527
(lp528
(L792874522L
L0L
(lp529
(lp530
tp531
a(L4195472003L
L0L
(lp532
(lp533
tp534
a(L3360570486L
L0L
(lp535
(lp536
tp537
a(L1210571996L
L0L
(lp538
(lp539
tp540
atp541
sI1074241084
(Vbootloader_console_deinit
p542
(lp543
(L777638133L
L0L
(lp544
(lp545
tp546
atp547
sI1074238780
(Vcache_ll_l1_get_bus
p548
(lp549
(L3827411420L
L0L
(lp550
(lp551
tp552
a(L94425498L
L3785322319L
(lp553
(lp554
Vabort
p555
atp556
a(L3222493499L
L0L
(lp557
(lp558
tp559
a(L2104695022L
L0L
(lp560
(lp561
tp562
a(L892952750L
L0L
(lp563
(lp564
tp565
a(L1182811810L
L0L
(lp566
(lp567
tp568
a(L1101742417L
L0L
(lp569
(lp570
tp571
a(L1100767927L
L0L
(lp572
(lp573
tp574
a(L3360570486L
L0L
(lp575
(lp576
tp577
a(L2752335631L
L0L
(lp578
(lp579
tp580
a(L892952750L
L0L
(lp581
(lp582
tp583
a(L2258688482L
L0L
(lp584
(lp585
tp586
a(L1996083063L
L0L
(lp587
(lp588
tp589
a(L2258718273L
L0L
(lp590
(lp591
tp592
a(L2938197270L
L0L
(lp593
(lp594
tp595
a(L2756029715L
L0L
(lp596
(lp597
tp598
a(L2795746388L
L0L
(lp599
(lp600
tp601
a(L1641149277L
L0L
(lp602
(lp603
tp604
a(L3232646960L
L0L
(lp605
(lp606
tp607
a(L3027019L
L0L
(lp608
(lp609
tp610
a(L1299866560L
L0L
(lp611
(lp612
tp613
a(L1299866436L
L0L
(lp614
(lp615
tp616
atp617
sI1074245692
(Vrtc_clk_slow_src_get
p618
(lp619
(L376617603L
L3785322319L
(lp620
(lp621
Vclk_ll_rtc_slow_get_src
p622
atp623
atp624
sI1074270260
(Vrtc_clk_init
p625
(lp626
(L1872218746L
L0L
(lp627
(lp628
tp629
a(L42671777L
L3785322319L
(lp630
(lp631
Vrtc_clk_cpu_freq_to_xtal
p632
atp633
a(L1588890820L
L3785322319L
(lp634
(lp635
Vrtc_clk_xtal_freq_get
p636
atp637
a(L89029051L
L0L
(lp638
(lp639
tp640
a(L4187693717L
L3785322319L
(lp641
(lp642
Vrtc_clk_xtal_freq_estimate
p643
atp644
a(L1317008202L
L3785322319L
(lp645
(lp646
Vesp_log_early_timestamp
p647
atp648
a(L3408606676L
L1157885199L
(lp649
(lp650
Vesp_rom_uart_tx_wait_idle
p651
aVrtc_clk_xtal_freq_update
p652
aVrtc_clk_apb_freq_update
p653
aVrtc_clk_cpu_freq_get_config
p654
aVrtc_clk_cpu_freq_mhz_to_config
p655
atp656
a(L1756602428L
L1880226080L
(lp657
(lp658
Vesp_log_early_timestamp
p659
aVabort
p660
atp661
a(L3028481L
L0L
(lp662
(lp663
tp664
a(L4070631611L
L3785322319L
(lp665
(lp666
Vrtc_clk_xtal_freq_estimate
p667
atp668
a(L404050455L
L3785322319L
(lp669
(lp670
Vesp_log_early_timestamp
p671
atp672
a(L2517778479L
L3785322319L
(lp673
(lp674
Vrtc_clk_cpu_freq_set_config
p675
atp676
a(L912310138L
L3785322319L
(lp677
(lp678
Vrtc_clk_32k_enable
p679
atp680
a(L3191820416L
L1832448559L
(lp681
(lp682
Vrtc_clk_8m_enable
p683
aVrtc_clk_fast_src_set
p684
aVrtc_clk_slow_src_set
p685
atp686
a(L1232958848L
L0L
(lp687
(lp688
tp689
atp690
sI1074245944
(Vrtc_clk_cpu_freq_get_config
p691
(lp692
(L4181863287L
L0L
(lp693
(lp694
tp695
a(L3020187L
L0L
(lp696
(lp697
tp698
a(L3020187L
L0L
(lp699
(lp700
tp701
a(L2294112669L
L3785322319L
(lp702
(lp703
Vrtc_clk_xtal_freq_get
p704
atp705
a(L3789795478L
L0L
(lp706
(lp707
tp708
a(L870195858L
L1880226080L
(lp709
(lp710
Vesp_log_early_timestamp
p711
aVabort
p712
atp713
a(L690783034L
L0L
(lp714
(lp715
tp716
a(L3020187L
L0L
(lp717
(lp718
tp719
a(L3028481L
L0L
(lp720
(lp721
tp722
a(L38508693L
L0L
(lp723
(lp724
tp725
a(L187152368L
L0L
(lp726
(lp727
tp728
a(L1161083655L
L0L
(lp729
(lp730
tp731
a(L1395485899L
L0L
(lp732
(lp733
tp734
a(L2070600034L
L0L
(lp735
(lp736
tp737
atp738
sI1074269772
(Vbootloader_config_wdt
p739
(lp740
(L197822005L
L505859776L
(lp741
(lp742
Vwdt_hal_write_protect_disable
p743
aVwdt_hal_set_flashboot_en
p744
aVwdt_hal_write_protect_enable
p745
aVwdt_hal_init
p746
aVrtc_clk_slow_freq_get_hz
p747
aVwdt_hal_write_protect_disable
p748
aVwdt_hal_config_stage
p749
aVwdt_hal_enable
p750
aVwdt_hal_write_protect_enable
p751
aVwdt_hal_write_protect_disable
p752
aVwdt_hal_set_flashboot_en
p753
aVwdt_hal_write_protect_enable
p754
atp755
atp756
sI1074270028
(Vesp_cpu_configure_region_protection
p757
(lp758
(L2243703604L
L0L
(lp759
(lp760
tp761
a(L180431425L
L3785322319L
(lp762
(lp763
Vmpu_hal_set_region_access
p764
atp765
a(L2537388152L
L3785322319L
(lp766
(lp767
Vmpu_hal_set_region_access
p768
atp769
atp770
sI1074241600
(Vverify_load_addresses
p771
(lp772
(L2764487219L
L0L
(lp773
(lp774
tp775
a(L106L
L0L
(lp776
(lp777
tp778
a(L97642L
L0L
(lp779
(lp780
tp781
a(L3391460592L
L3785322319L
(lp782
(lp783
V__assert_func
p784
atp785
a(L425286117L
L0L
(lp786
(lp787
tp788
a(L106L
L0L
(lp789
(lp790
tp791
a(L304997764L
L0L
(lp792
(lp793
tp794
a(L106L
L0L
(lp795
(lp796
tp797
a(L3707201346L
L3785322319L
(lp798
(lp799
Vbootloader_util_regions_overlap
p800
atp801
a(L3476204718L
L3785322319L
(lp802
(lp803
Vbootloader_util_regions_overlap
p804
atp805
a(L3028481L
L0L
(lp806
(lp807
tp808
a(L3999645471L
L3785322319L
(lp809
(lp810
Vbootloader_util_regions_overlap
p811
atp812
a(L2545616466L
L0L
(lp813
(lp814
tp815
a(L2206735340L
L0L
(lp816
(lp817
tp818
a(L3467570085L
L0L
(lp819
(lp820
tp821
a(L2661576437L
L0L
(lp822
(lp823
tp824
a(L2503437888L
L0L
(lp825
(lp826
tp827
a(L677569396L
L3785322319L
(lp828
(lp829
Vverify_load_addresses
p830
atp831
a(L1351513776L
L0L
(lp832
(lp833
tp834
a(L3061261803L
L0L
(lp835
(lp836
tp837
a(L2743341656L
L0L
(lp838
(lp839
tp840
a(L401691722L
L0L
(lp841
(lp842
tp843
a(L215176348L
L0L
(lp844
(lp845
tp846
a(L832687151L
L3785322319L
(lp847
(lp848
Vbootloader_util_regions_overlap
p849
atp850
a(L3028481L
L0L
(lp851
(lp852
tp853
a(L2777071190L
L3785322319L
(lp854
(lp855
Vbootloader_util_regions_overlap
p856
atp857
a(L61399800L
L0L
(lp858
(lp859
tp860
a(L421747395L
L0L
(lp861
(lp862
tp863
a(L1379075193L
L0L
(lp864
(lp865
tp866
a(L3780206508L
L0L
(lp867
(lp868
tp869
a(L307916924L
L0L
(lp870
(lp871
tp872
a(L697239146L
L0L
(lp873
(lp874
tp875
a(L106L
L0L
(lp876
(lp877
tp878
a(L955484392L
L0L
(lp879
(lp880
tp881
a(L307916691L
L0L
(lp882
(lp883
tp884
a(L490080443L
L0L
(lp885
(lp886
tp887
a(L106L
L0L
(lp888
(lp889
tp890
a(L567204848L
L3785322319L
(lp891
(lp892
Vesp_log_early_timestamp
p893
atp894
a(L955483059L
L0L
(lp895
(lp896
tp897
a(L1303560427L
L0L
(lp898
(lp899
tp900
atp901
sI1074241100
(V__assert_func
p902
(lp903
(L3728029181L
L0L
(lp904
(lp905
tp906
a(L106L
L0L
(lp907
(lp908
tp909
atp910
sI1074237004
(Vbootloader_common_ota_select_crc
p911
(lp912
(L3898531187L
L0L
(lp913
(lp914
tp915
atp916
sI1074235212
(Vbootloader_execute_flash_command
p917
(lp918
(L2481595632L
L3785322319L
(lp919
(lp920
Vbootloader_flash_execute_command_common
p921
atp922
atp923
sI1074238280
(Vbootloader_mmap_get_free_pages
p924
(lp925
(L1496516875L
L0L
(lp926
(lp927
tp928
atp929
sI1074241352
(Vprocess_image_header
p930
(lp931
(L3187818489L
L3785322319L
(lp932
(lp933
Vbootloader_flash_read
p934
atp935
a(L3020204L
L0L
(lp936
(lp937
tp938
a(L4130667142L
L0L
(lp939
(lp940
tp941
a(L3131381282L
L0L
(lp942
(lp943
tp944
a(L1161397362L
L3785322319L
(lp945
(lp946
Vbootloader_sha256_start
p947
atp948
a(L1948257695L
L3785322319L
(lp949
(lp950
Vbootloader_sha256_data
p951
atp952
a(L1095449651L
L0L
(lp953
(lp954
tp955
a(L3020204L
L0L
(lp956
(lp957
tp958
a(L702739545L
L0L
(lp959
(lp960
tp961
a(L3360570486L
L0L
(lp962
(lp963
tp964
a(L2457093012L
L3785322319L
(lp965
(lp966
Vesp_log_early_timestamp
p967
atp968
a(L3718883008L
L3785322319L
(lp969
(lp970
Vbootloader_common_check_chip_validity
p971
atp972
a(L3677035427L
L0L
(lp973
(lp974
tp975
a(L3028481L
L0L
(lp976
(lp977
tp978
a(L2184091034L
L3785322319L
(lp979
(lp980
Vesp_log_early_timestamp
p981
atp982
a(L2250109166L
L0L
(lp983
(lp984
tp985
a(L1235012870L
L0L
(lp986
(lp987
tp988
a(L3063569071L
L0L
(lp989
(lp990
tp991
atp992
sI1074245704
(Vrtc_clk_slow_freq_get_hz
p993
(lp994
(L1826267122L
L3785322319L
(lp995
(lp996
Vclk_ll_rtc_slow_get_src
p997
atp998
a(L4187485703L
L0L
(lp999
(lp1000
tp1001
a(L3631005815L
L0L
(lp1002
(lp1003
tp1004
a(L702740072L
L0L
(lp1005
(lp1006
tp1007
a(L3360570486L
L0L
(lp1008
(lp1009
tp1010
atp1011
sI1074247764
(Vesp_rom_spiflash_enable_write
p1012
(lp1013
(L2249402766L
L3785322319L
(lp1014
(lp1015
Vesp_rom_spiflash_wait_idle
p1016
atp1017
a(L3137194272L
L0L
(lp1018
(lp1019
tp1020
a(L2258718275L
L0L
(lp1021
(lp1022
tp1023
a(L99543895L
L0L
(lp1024
(lp1025
tp1026
a(L2993202392L
L0L
(lp1027
(lp1028
tp1029
a(L1804543818L
L3785322319L
(lp1030
(lp1031
Vesp_rom_spiflash_read_status
p1032
atp1033
atp1034
sI1074238288
(Vbootloader_fill_random
p1035
(lp1036
(L1799492288L
L0L
(lp1037
(lp1038
tp1039
a(L39210299L
L3785322319L
(lp1040
(lp1041
V__assert_func
p1042
atp1043
a(L1882547218L
L0L
(lp1044
(lp1045
tp1046
a(L2910371777L
L0L
(lp1047
(lp1048
tp1049
a(L95634693L
L0L
(lp1050
(lp1051
tp1052
a(L3630908706L
L0L
(lp1053
(lp1054
tp1055
a(L160162640L
L0L
(lp1056
(lp1057
tp1058
a(L97689L
L0L
(lp1059
(lp1060
tp1061
a(L3360570486L
L0L
(lp1062
(lp1063
tp1064
atp1065
sI1074239056
(Vload_image
p1066
(lp1067
(L891246188L
L1832448559L
(lp1068
(lp1069
Vesp_log_early_timestamp
p1070
aVbootloader_random_disable
p1071
aVbootloader_ana_clock_glitch_reset_config
p1072
atp1073
a(L2118498116L
L0L
(lp1074
(lp1075
tp1076
a(L106L
L0L
(lp1077
(lp1078
tp1079
a(L2562655772L
L3758435744L
(lp1080
(lp1081
Vmmu_hal_init
p1082
aVcache_ll_l1_get_bus
p1083
aVcache_ll_l1_enable_bus
p1084
aVcache_ll_l1_get_bus
p1085
aVcache_ll_l1_enable_bus
p1086
aVcache_ll_l1_get_bus
p1087
aVcache_ll_l1_enable_bus
p1088
aVcache_ll_l1_get_bus
p1089
aVcache_ll_l1_enable_bus
p1090
aVbootloader_console_deinit
p1091
atp1092
a(L2580592325L
L0L
(lp1093
(lp1094
tp1095
a(L2902417580L
L0L
(lp1096
(lp1097
tp1098
a(L1213225262L
L3785322319L
(lp1099
(lp1100
Vesp_log_early_timestamp
p1101
atp1102
a(L3064806881L
L0L
(lp1103
(lp1104
tp1105
a(L2440259366L
L0L
(lp1106
(lp1107
tp1108
a(L3020204L
L0L
(lp1109
(lp1110
tp1111
a(L3479199490L
L3785322319L
(lp1112
(lp1113
Vesp_log_early_timestamp
p1114
atp1115
a(L3644183142L
L0L
(lp1116
(lp1117
tp1118
a(L356605111L
L0L
(lp1119
(lp1120
tp1121
atp1122
sI1074248016
(Vesp_rom_spiflash_erase_sector
p1123
(lp1124
(L243312659L
L0L
(lp1125
(lp1126
tp1127
a(L2258688483L
L0L
(lp1128
(lp1129
tp1130
a(L3360570486L
L0L
(lp1131
(lp1132
tp1133
a(L3212356251L
L3785322319L
(lp1134
(lp1135
Vesp_rom_spiflash_enable_write
p1136
atp1137
a(L184152988L
L0L
(lp1138
(lp1139
tp1140
a(L258797390L
L3785322319L
(lp1141
(lp1142
Vesp_rom_spiflash_wait_idle
p1143
atp1144
a(L3333707777L
L0L
(lp1145
(lp1146
tp1147
a(L3582858798L
L3785322319L
(lp1148
(lp1149
Vesp_rom_spiflash_wait_idle
p1150
atp1151
atp1152
sI1074267728
(Vcall_start_cpu0
p1153
(lp1154
(L1137852827L
L0L
(lp1155
(lp1156
tp1157
a(L549459388L
L0L
(lp1158
(lp1159
tp1160
a(L3212347974L
L3785322319L
(lp1161
(lp1162
Vbootloader_init
p1163
atp1164
a(L94425498L
L3785322319L
(lp1165
(lp1166
Vbootloader_reset
p1167
atp1168
a(L1122046408L
L0L
(lp1169
(lp1170
tp1171
a(L4099474112L
L0L
(lp1172
(lp1173
tp1174
a(L4004585570L
L1880226080L
(lp1175
(lp1176
Vbootloader_utility_load_boot_image_from_deep_sleep
p1177
aVbootloader_utility_load_partition_table
p1178
atp1179
a(L2761094216L
L3785322319L
(lp1180
(lp1181
Vesp_log_early_timestamp
p1182
atp1183
a(L736289835L
L3785322319L
(lp1184
(lp1185
Vbootloader_utility_get_selected_boot_partition
p1186
atp1187
a(L344825785L
L3785322319L
(lp1188
(lp1189
Vbootloader_utility_load_boot_image
p1190
atp1191
atp1192
sI1074244956
(Vclk_ll_rtc_slow_get_src
p1193
(lp1194
(L3788564200L
L0L
(lp1195
(lp1196
tp1197
a(L3020187L
L0L
(lp1198
(lp1199
tp1200
a(L2902417580L
L0L
(lp1201
(lp1202
tp1203
a(L2258688485L
L0L
(lp1204
(lp1205
tp1206
a(L3360570486L
L0L
(lp1207
(lp1208
tp1209
atp1210
sI1074244700
(Vwdt_hal_set_flashboot_en
p1211
(lp1212
(L2375320464L
L0L
(lp1213
(lp1214
tp1215
a(L3915867581L
L0L
(lp1216
(lp1217
tp1218
a(L3360570486L
L0L
(lp1219
(lp1220
tp1221
a(L3614031576L
L0L
(lp1222
(lp1223
tp1224
atp1225
sI1074236760
(Vefuse_hal_get_major_chip_version
p1226
(lp1227
(L2489568354L
L0L
(lp1228
(lp1229
tp1230
a(L894792960L
L0L
(lp1231
(lp1232
tp1233
a(L3783348505L
L0L
(lp1234
(lp1235
tp1236
a(L3360570486L
L0L
(lp1237
(lp1238
tp1239
atp1240
sI1074247000
(Vrtc_clk_cal_internal
p1241
(lp1242
(L3196937563L
L0L
(lp1243
(lp1244
tp1245
a(L4250733170L
L3785322319L
(lp1246
(lp1247
V__assert_func
p1248
atp1249
a(L4261942885L
L0L
(lp1250
(lp1251
tp1252
a(L54826884L
L0L
(lp1253
(lp1254
tp1255
a(L234746575L
L0L
(lp1256
(lp1257
tp1258
a(L861896856L
L3785322319L
(lp1259
(lp1260
Vrtc_clk_8m_enable
p1261
atp1262
a(L633299024L
L3785322319L
(lp1263
(lp1264
Vrtc_clk_slow_src_get
p1265
atp1266
a(L1211065969L
L0L
(lp1267
(lp1268
tp1269
a(L97689L
L0L
(lp1270
(lp1271
tp1272
a(L1732483946L
L0L
(lp1273
(lp1274
tp1275
a(L3028464L
L0L
(lp1276
(lp1277
tp1278
a(L3028481L
L0L
(lp1279
(lp1280
tp1281
a(L3450258763L
L0L
(lp1282
(lp1283
tp1284
a(L829335718L
L3785322319L
(lp1285
(lp1286
Vrtc_clk_xtal_freq_get
p1287
atp1288
a(L2780079961L
L0L
(lp1289
(lp1290
tp1291
a(L907068341L
L0L
(lp1292
(lp1293
tp1294
a(L3114588070L
L3785322319L
(lp1295
(lp1296
Vesp_log_early_timestamp
p1297
atp1298
a(L3360570486L
L0L
(lp1299
(lp1300
tp1301
a(L3221193832L
L0L
(lp1302
(lp1303
tp1304
a(L3121398759L
L0L
(lp1305
(lp1306
tp1307
a(L2910371777L
L0L
(lp1308
(lp1309
tp1310
a(L2902417580L
L0L
(lp1311
(lp1312
tp1313
a(L489212082L
L0L
(lp1314
(lp1315
tp1316
a(L3631005548L
L0L
(lp1317
(lp1318
tp1319
a(L2495790249L
L0L
(lp1320
(lp1321
tp1322
a(L3352263364L
L0L
(lp1323
(lp1324
tp1325
a(L3028464L
L0L
(lp1326
(lp1327
tp1328
a(L1247755861L
L3785322319L
(lp1329
(lp1330
Vrtc_clk_8m_enable
p1331
atp1332
atp1333
sI1074237540
(Vspi_to_esp_err
p1334
(lp1335
(L3506104959L
L0L
(lp1336
(lp1337
tp1338
a(L2409788187L
L0L
(lp1339
(lp1340
tp1341
a(L3952441574L
L0L
(lp1342
(lp1343
tp1344
a(L3126521138L
L0L
(lp1345
(lp1346
tp1347
atp1348
sI1074237796
(Vbootloader_munmap
p1349
(lp1350
(L2079642783L
L0L
(lp1351
(lp1352
tp1353
a(L2908476086L
L0L
(lp1354
(lp1355
tp1356
a(L3360570486L
L0L
(lp1357
(lp1358
tp1359
atp1360
sI1074241124
(Vabort
p1361
(lp1362
(L1282405731L
L0L
(lp1363
(lp1364
tp1365
a(L409471316L
L0L
(lp1366
(lp1367
tp1368
a(L106L
L0L
(lp1369
(lp1370
tp1371
atp1372
sI1074245732
(Vrtc_clk_fast_src_set
p1373
(lp1374
(L2976421890L
L0L
(lp1375
(lp1376
tp1377
a(L3020187L
L0L
(lp1378
(lp1379
tp1380
a(L3827921190L
L3785322319L
(lp1381
(lp1382
Vabort
p1383
atp1384
a(L209959690L
L0L
(lp1385
(lp1386
tp1387
a(L1379824320L
L0L
(lp1388
(lp1389
tp1390
a(L300459962L
L0L
(lp1391
(lp1392
tp1393
atp1394
sI1074237024
(Vbootloader_common_ota_select_valid
p1395
(lp1396
(L1563399710L
L3785322319L
(lp1397
(lp1398
Vbootloader_common_ota_select_invalid
p1399
atp1400
a(L3814720849L
L3785322319L
(lp1401
(lp1402
Vbootloader_common_ota_select_crc
p1403
atp1404
a(L3360570486L
L0L
(lp1405
(lp1406
tp1407
atp1408
sI1074234720
(Vesp_flash_encryption_enabled
p1409
(lp1410
(L376617603L
L3785322319L
(lp1411
(lp1412
Vefuse_hal_flash_encryption_enabled
p1413
atp1414
atp1415
sI1074239584
(Vbootloader_utility_load_partition_table
p1416
(lp1417
(L3778130612L
L3785322319L
(lp1418
(lp1419
Vbootloader_mmap
p1420
atp1421
a(L2495636636L
L3785322319L
(lp1422
(lp1423
Vesp_log_early_timestamp
p1424
atp1425
a(L2258688482L
L0L
(lp1426
(lp1427
tp1428
a(L3360570486L
L0L
(lp1429
(lp1430
tp1431
a(L3881596654L
L3785322319L
(lp1432
(lp1433
Vesp_partition_table_verify
p1434
atp1435
a(L1844406670L
L3785322319L
(lp1436
(lp1437
Vesp_log_early_timestamp
p1438
atp1439
a(L3544582895L
L1880226080L
(lp1440
(lp1441
Vesp_log_early_timestamp
p1442
aVesp_log_early_timestamp
p1443
atp1444
a(L650140130L
L0L
(lp1445
(lp1446
tp1447
a(L1217364776L
L1880226080L
(lp1448
(lp1449
Vbootloader_munmap
p1450
aVesp_log_early_timestamp
p1451
atp1452
a(L521126897L
L0L
(lp1453
(lp1454
tp1455
a(L3028464L
L0L
(lp1456
(lp1457
tp1458
a(L106L
L0L
(lp1459
(lp1460
tp1461
a(L1403802589L
L0L
(lp1462
(lp1463
tp1464
a(L2314692714L
L3785322319L
(lp1465
(lp1466
Vesp_log_early_timestamp
p1467
atp1468
a(L3990577774L
L0L
(lp1469
(lp1470
tp1471
a(L3020187L
L0L
(lp1472
(lp1473
tp1474
a(L2299741977L
L0L
(lp1475
(lp1476
tp1477
a(L4208504664L
L0L
(lp1478
(lp1479
tp1480
a(L1859217967L
L0L
(lp1481
(lp1482
tp1483
a(L2546691370L
L0L
(lp1484
(lp1485
tp1486
a(L3837441849L
L0L
(lp1487
(lp1488
tp1489
a(L106L
L0L
(lp1490
(lp1491
tp1492
a(L93674324L
L0L
(lp1493
(lp1494
tp1495
a(L1586995289L
L0L
(lp1496
(lp1497
tp1498
a(L1938134716L
L0L
(lp1499
(lp1500
tp1501
a(L924830715L
L0L
(lp1502
(lp1503
tp1504
a(L106L
L0L
(lp1505
(lp1506
tp1507
a(L932210606L
L0L
(lp1508
(lp1509
tp1510
a(L106L
L0L
(lp1511
(lp1512
tp1513
a(L568204987L
L0L
(lp1514
(lp1515
tp1516
atp1517
sI1074237292
(Vbootloader_common_get_active_otadata
p1518
(lp1519
(L3317503532L
L0L
(lp1520
(lp1521
tp1522
a(L2503049265L
L1832448559L
(lp1523
(lp1524
Vbootloader_common_ota_select_valid
p1525
aVbootloader_common_ota_select_valid
p1526
aVbootloader_common_select_otadata
p1527
atp1528
a(L735741265L
L0L
(lp1529
(lp1530
tp1531
atp1532
sI1074234732
(Vbootloader_flash_execute_command_common
p1533
(lp1534
(L3865052895L
L0L
(lp1535
(lp1536
tp1537
a(L120556223L
L0L
(lp1538
(lp1539
tp1540
a(L2890397610L
L3785322319L
(lp1541
(lp1542
V__assert_func
p1543
atp1544
a(L3021749L
L0L
(lp1545
(lp1546
tp1547
a(L153203357L
L0L
(lp1548
(lp1549
tp1550
a(L3967919202L
L0L
(lp1551
(lp1552
tp1553
a(L2091933878L
L0L
(lp1554
(lp1555
tp1556
a(L1702379862L
L0L
(lp1557
(lp1558
tp1559
a(L2587060668L
L0L
(lp1560
(lp1561
tp1562
a(L817326211L
L0L
(lp1563
(lp1564
tp1565
a(L3244449450L
L0L
(lp1566
(lp1567
tp1568
a(L3855586684L
L0L
(lp1569
(lp1570
tp1571
a(L2990329343L
L0L
(lp1572
(lp1573
tp1574
a(L2557390060L
L0L
(lp1575
(lp1576
tp1577
a(L3333696662L
L0L
(lp1578
(lp1579
tp1580
a(L963425213L
L0L
(lp1581
(lp1582
tp1583
a(L339491738L
L0L
(lp1584
(lp1585
tp1586
a(L3360570486L
L0L
(lp1587
(lp1588
tp1589
atp1590
sI1074235244
(Vbootloader_flash_unlock
p1591
(lp1592
(L2851757134L
L3785322319L
(lp1593
(lp1594
Vesp_rom_spiflash_wait_idle
p1595
atp1596
a(L4212373562L
L0L
(lp1597
(lp1598
tp1599
a(L4292483033L
L3785322319L
(lp1600
(lp1601
Vbootloader_execute_flash_command
p1602
atp1603
a(L106L
L0L
(lp1604
(lp1605
tp1606
a(L1303560644L
L0L
(lp1607
(lp1608
tp1609
a(L610618440L
L0L
(lp1610
(lp1611
tp1612
a(L106L
L0L
(lp1613
(lp1614
tp1615
a(L345249462L
L0L
(lp1616
(lp1617
tp1618
a(L106L
L0L
(lp1619
(lp1620
tp1621
a(L1024465569L
L0L
(lp1622
(lp1623
tp1624
a(L106L
L0L
(lp1625
(lp1626
tp1627
a(L1481761147L
L1880226080L
(lp1628
(lp1629
Vbootloader_execute_flash_command
p1630
aVbootloader_execute_flash_command
p1631
atp1632
a(L2258807654L
L0L
(lp1633
(lp1634
tp1635
a(L489806350L
L1832448559L
(lp1636
(lp1637
Vesp_rom_spiflash_wait_idle
p1638
aVbootloader_execute_flash_command
p1639
aVbootloader_execute_flash_command
p1640
atp1641
a(L879744646L
L1832448559L
(lp1642
(lp1643
Vesp_rom_spiflash_wait_idle
p1644
aVbootloader_execute_flash_command
p1645
aVbootloader_execute_flash_command
p1646
atp1647
a(L1840772931L
L1880226080L
(lp1648
(lp1649
Vesp_rom_spiflash_wait_idle
p1650
aVbootloader_execute_flash_command
p1651
atp1652
a(L2993202392L
L0L
(lp1653
(lp1654
tp1655
a(L508800419L
L1880226080L
(lp1656
(lp1657
Vbootloader_execute_flash_command
p1658
aVbootloader_execute_flash_command
p1659
atp1660
a(L1303560369L
L0L
(lp1661
(lp1662
tp1663
a(L1596544945L
L0L
(lp1664
(lp1665
tp1666
a(L97689L
L0L
(lp1667
(lp1668
tp1669
a(L106L
L0L
(lp1670
(lp1671
tp1672
atp1673
sI1074243436
(Vbootloader_load_image
p1674
(lp1675
(L1155870502L
L3785322319L
(lp1676
(lp1677
Vimage_load
p1678
atp1679
atp1680
sI1074236520
(Vbootloader_common_get_chip_ver_pkg
p1681
(lp1682
(L183333409L
L0L
(lp1683
(lp1684
tp1685
atp1686
sI1074240360
(Vbootloader_reset
p1687
(lp1688
(L741758034L
L3785322319L
(lp1689
(lp1690
Vbootloader_console_deinit
p1691
atp1692
a(L106L
L0L
(lp1693
(lp1694
tp1695
atp1696
sI1074270076
(Vrtc_clk_xtal_freq_estimate
p1697
(lp1698
(L3845076426L
L1880226080L
(lp1699
(lp1700
Vrtc_clk_8m_enabled
p1701
aVrtc_clk_8md256_enabled
p1702
atp1703
a(L2449794434L
L3785322319L
(lp1704
(lp1705
Vrtc_clk_8m_enable
p1706
atp1707
a(L3788719296L
L3785322319L
(lp1708
(lp1709
Vrtc_clk_cal_ratio
p1710
atp1711
a(L1894802584L
L0L
(lp1712
(lp1713
tp1714
a(L1915120046L
L0L
(lp1715
(lp1716
tp1717
a(L2740879690L
L0L
(lp1718
(lp1719
tp1720
a(L1059750288L
L3785322319L
(lp1721
(lp1722
Vrtc_clk_8m_enable
p1723
atp1724
a(L4115290129L
L3785322319L
(lp1725
(lp1726
Vesp_log_early_timestamp
p1727
atp1728
a(L2894376164L
L0L
(lp1729
(lp1730
tp1731
a(L1641150486L
L0L
(lp1732
(lp1733
tp1734
a(L1715829099L
L3785322319L
(lp1735
(lp1736
Vesp_log_early_timestamp
p1737
atp1738
a(L1429240978L
L3785322319L
(lp1739
(lp1740
Vesp_log_early_timestamp
p1741
atp1742
atp1743
sI1074240636
(Vindex_to_partition
p1744
(lp1745
(L4066096119L
L0L
(lp1746
(lp1747
tp1748
a(L1739185955L
L0L
(lp1749
(lp1750
tp1751
a(L2171552758L
L0L
(lp1752
(lp1753
tp1754
a(L2808906342L
L0L
(lp1755
(lp1756
tp1757
a(L2101481936L
L0L
(lp1758
(lp1759
tp1760
a(L3698927993L
L0L
(lp1761
(lp1762
tp1763
a(L2808826781L
L0L
(lp1764
(lp1765
tp1766
a(L3003398163L
L0L
(lp1767
(lp1768
tp1769
a(L2880709161L
L0L
(lp1770
(lp1771
tp1772
a(L1087646172L
L0L
(lp1773
(lp1774
tp1775
atp1776
sI1074243452
(Vbootloader_load_image_no_verify
p1777
(lp1778
(L3412781509L
L3785322319L
(lp1779
(lp1780
Vimage_load
p1781
atp1782
atp1783
sI1074248316
(Vesp_rom_spiflash_write_encrypted
p1784
(lp1785
(L1944247967L
L0L
(lp1786
(lp1787
tp1788
a(L695525630L
L0L
(lp1789
(lp1790
tp1791
a(L97689L
L0L
(lp1792
(lp1793
tp1794
a(L3061232074L
L0L
(lp1795
(lp1796
tp1797
a(L1807150757L
L0L
(lp1798
(lp1799
tp1800
a(L1309309703L
L3785322319L
(lp1801
(lp1802
Vesp_rom_spiflash_write
p1803
atp1804
a(L1812851730L
L0L
(lp1805
(lp1806
tp1807
a(L735741265L
L0L
(lp1808
(lp1809
tp1810
atp1811
sI1074240888
(Vbootloader_sha256_finish
p1812
(lp1813
(L4066096136L
L0L
(lp1814
(lp1815
tp1816
a(L840115176L
L0L
(lp1817
(lp1818
tp1819
a(L591145840L
L3785322319L
(lp1820
(lp1821
V__assert_func
p1822
atp1823
a(L3020204L
L0L
(lp1824
(lp1825
tp1826
a(L3478420729L
L0L
(lp1827
(lp1828
tp1829
a(L2534656226L
L0L
(lp1830
(lp1831
tp1832
a(L18240658L
L3785322319L
(lp1833
(lp1834
Vbootloader_sha256_data
p1835
atp1836
a(L699336714L
L0L
(lp1837
(lp1838
tp1839
a(L3666528998L
L3785322319L
(lp1840
(lp1841
Vbootloader_sha256_data
p1842
atp1843
a(L473014360L
L0L
(lp1844
(lp1845
tp1846
a(L657425439L
L0L
(lp1847
(lp1848
tp1849
a(L4242965061L
L0L
(lp1850
(lp1851
tp1852
a(L657425439L
L0L
(lp1853
(lp1854
tp1855
a(L4237898673L
L0L
(lp1856
(lp1857
tp1858
a(L2718449270L
L0L
(lp1859
(lp1860
tp1861
a(L3347778L
L0L
(lp1862
(lp1863
tp1864
a(L3360570486L
L0L
(lp1865
(lp1866
tp1867
atp1868
sI1074242936
(Vimage_load
p1869
(lp1870
(L3559420668L
L0L
(lp1871
(lp1872
tp1873
a(L1899869541L
L0L
(lp1874
(lp1875
tp1876
a(L979631281L
L0L
(lp1877
(lp1878
tp1879
a(L1525480527L
L0L
(lp1880
(lp1881
tp1882
a(L1043148059L
L0L
(lp1883
(lp1884
tp1885
a(L2796536461L
L0L
(lp1886
(lp1887
tp1888
a(L654397262L
L3785322319L
(lp1889
(lp1890
Vesp_log_early_timestamp
p1891
atp1892
a(L2068384292L
L0L
(lp1893
(lp1894
tp1895
a(L1968553470L
L3785322319L
(lp1896
(lp1897
Vbootloader_sha256_finish
p1898
atp1899
a(L1421577021L
L0L
(lp1900
(lp1901
tp1902
a(L3225218531L
L0L
(lp1903
(lp1904
tp1905
a(L3802071166L
L0L
(lp1906
(lp1907
tp1908
a(L1301867039L
L3785322319L
(lp1909
(lp1910
Vprocess_image_header
p1911
atp1912
a(L560228796L
L0L
(lp1913
(lp1914
tp1915
a(L4185758499L
L0L
(lp1916
(lp1917
tp1918
a(L1530940255L
L3785322319L
(lp1919
(lp1920
Vprocess_segments
p1921
atp1922
a(L1233227930L
L0L
(lp1923
(lp1924
tp1925
a(L232008881L
L0L
(lp1926
(lp1927
tp1928
a(L2570888687L
L3785322319L
(lp1929
(lp1930
Vprocess_checksum
p1931
atp1932
a(L425503098L
L3785322319L
(lp1933
(lp1934
Vprocess_appended_hash_and_sig
p1935
atp1936
a(L780930979L
L0L
(lp1937
(lp1938
tp1939
a(L2334355956L
L0L
(lp1940
(lp1941
tp1942
a(L595683170L
L0L
(lp1943
(lp1944
tp1945
a(L2673234211L
L1880226080L
(lp1946
(lp1947
Vbootloader_sha256_finish
p1948
aVbootloader_debug_buffer
p1949
atp1950
a(L2684422614L
L1880226080L
(lp1951
(lp1952
Vesp_log_early_timestamp
p1953
aVbootloader_debug_buffer
p1954
atp1955
a(L1087646176L
L0L
(lp1956
(lp1957
tp1958
a(L2068384292L
L0L
(lp1959
(lp1960
tp1961
a(L3021148818L
L3785322319L
(lp1962
(lp1963
Vbootloader_sha256_finish
p1964
atp1965
a(L3028481L
L0L
(lp1966
(lp1967
tp1968
a(L139701033L
L0L
(lp1969
(lp1970
tp1971
a(L2722270501L
L0L
(lp1972
(lp1973
tp1974
a(L772115669L
L0L
(lp1975
(lp1976
tp1977
a(L2787789065L
L0L
(lp1978
(lp1979
tp1980
a(L85798113L
L0L
(lp1981
(lp1982
tp1983
a(L1351513776L
L0L
(lp1984
(lp1985
tp1986
a(L159346313L
L3785322319L
(lp1987
(lp1988
Vshould_load
p1989
atp1990
a(L4218574503L
L0L
(lp1991
(lp1992
tp1993
a(L3338774213L
L0L
(lp1994
(lp1995
tp1996
a(L3464541874L
L0L
(lp1997
(lp1998
tp1999
a(L3349572949L
L0L
(lp2000
(lp2001
tp2002
a(L2192292519L
L0L
(lp2003
(lp2004
tp2005
a(L106L
L0L
(lp2006
(lp2007
tp2008
a(L26615924L
L0L
(lp2009
(lp2010
tp2011
a(L1299866312L
L0L
(lp2012
(lp2013
tp2014
a(L490060329L
L0L
(lp2015
(lp2016
tp2017
atp2018
sI1074244984
(Vrtc_clk_32k_enable_common
p2019
(lp2020
(L1037633247L
L0L
(lp2021
(lp2022
tp2023
a(L97689L
L0L
(lp2024
(lp2025
tp2026
a(L2218417250L
L0L
(lp2027
(lp2028
tp2029
a(L2593802258L
L0L
(lp2030
(lp2031
tp2032
a(L51458058L
L0L
(lp2033
(lp2034
tp2035
atp2036
sI1074270856
(Vrtc_vddsdio_set_config
p2037
(lp2038
(L2337814951L
L0L
(lp2039
(lp2040
tp2041
atp2042
sI1074237572
(Vbootloader_mmap
p2043
(lp2044
(L1104127453L
L0L
(lp2045
(lp2046
tp2047
a(L1256192741L
L3785322319L
(lp2048
(lp2049
Vesp_log_early_timestamp
p2050
atp2051
a(L3871473710L
L0L
(lp2052
(lp2053
tp2054
a(L3729184599L
L0L
(lp2055
(lp2056
tp2057
a(L2517821854L
L3785322319L
(lp2058
(lp2059
Vesp_log_early_timestamp
p2060
atp2061
a(L2114864004L
L0L
(lp2062
(lp2063
tp2064
a(L494193680L
L3785322319L
(lp2065
(lp2066
Vesp_log_early_timestamp
p2067
atp2068
a(L4146309025L
L0L
(lp2069
(lp2070
tp2071
a(L699652918L
L3785322319L
(lp2072
(lp2073
Vesp_log_early_timestamp
p2074
atp2075
a(L35462848L
L0L
(lp2076
(lp2077
tp2078
atp2079
sI1074237060
(Vbootloader_common_check_chip_validity
p2080
(lp2081
(L392423210L
L0L
(lp2082
(lp2083
tp2084
a(L3489352595L
L3785322319L
(lp2085
(lp2086
Vesp_log_early_timestamp
p2087
atp2088
a(L522103407L
L3785322319L
(lp2089
(lp2090
Vefuse_hal_chip_revision
p2091
atp2092
a(L106L
L0L
(lp2093
(lp2094
tp2095
a(L1552047764L
L0L
(lp2096
(lp2097
tp2098
a(L2642532028L
L3785322319L
(lp2099
(lp2100
Vesp_log_early_timestamp
p2101
atp2102
a(L3028464L
L0L
(lp2103
(lp2104
tp2105
a(L1397322129L
L0L
(lp2106
(lp2107
tp2108
a(L3021749L
L0L
(lp2109
(lp2110
tp2111
a(L3593568497L
L3785322319L
(lp2112
(lp2113
Vesp_log_early_timestamp
p2114
atp2115
a(L1299867982L
L0L
(lp2116
(lp2117
tp2118
a(L3360570486L
L0L
(lp2119
(lp2120
tp2121
atp2122
sI1074246272
(Vrtc_clk_cpu_freq_set_config
p2123
(lp2124
(L3470272763L
L3785322319L
(lp2125
(lp2126
Vrtc_clk_xtal_freq_get
p2127
atp2128
a(L3020187L
L0L
(lp2129
(lp2130
tp2131
a(L3028464L
L0L
(lp2132
(lp2133
tp2134
a(L264223053L
L1880226080L
(lp2135
(lp2136
Vrtc_clk_cpu_freq_to_xtal
p2137
aVrtc_clk_wait_for_slow_cycle
p2138
atp2139
a(L94425498L
L3785322319L
(lp2140
(lp2141
Vrtc_clk_bbpll_disable
p2142
atp2143
a(L3978916712L
L0L
(lp2144
(lp2145
tp2146
a(L2977209154L
L0L
(lp2147
(lp2148
tp2149
a(L2736411858L
L3785322319L
(lp2150
(lp2151
Vrtc_clk_cpu_freq_to_xtal
p2152
atp2153
a(L3360570486L
L0L
(lp2154
(lp2155
tp2156
a(L3020187L
L0L
(lp2157
(lp2158
tp2159
a(L106L
L0L
(lp2160
(lp2161
tp2162
a(L3856580364L
L1880226080L
(lp2163
(lp2164
Vrtc_clk_wait_for_slow_cycle
p2165
aVrtc_clk_xtal_freq_get
p2166
atp2167
a(L106L
L0L
(lp2168
(lp2169
tp2170
a(L3875603344L
L0L
(lp2171
(lp2172
tp2173
a(L106L
L0L
(lp2174
(lp2175
tp2176
a(L83268611L
L0L
(lp2177
(lp2178
tp2179
a(L106L
L0L
(lp2180
(lp2181
tp2182
a(L82344823L
L0L
(lp2183
(lp2184
tp2185
a(L106L
L0L
(lp2186
(lp2187
tp2188
a(L1274797871L
L0L
(lp2189
(lp2190
tp2191
a(L3541539508L
L0L
(lp2192
(lp2193
tp2194
a(L3583346433L
L1880226080L
(lp2195
(lp2196
Vclk_ll_rtc_slow_get_src
p2197
aVrtc_clk_cpu_freq_to_pll_mhz
p2198
atp2199
a(L355554931L
L0L
(lp2200
(lp2201
tp2202
a(L83268344L
L0L
(lp2203
(lp2204
tp2205
a(L82345090L
L0L
(lp2206
(lp2207
tp2208
a(L1299628291L
L0L
(lp2209
(lp2210
tp2211
a(L3209064678L
L0L
(lp2212
(lp2213
tp2214
a(L2258807646L
L0L
(lp2215
(lp2216
tp2217
a(L878473564L
L0L
(lp2218
(lp2219
tp2220
a(L2389426015L
L0L
(lp2221
(lp2222
tp2223
a(L1596574736L
L0L
(lp2224
(lp2225
tp2226
a(L2086626670L
L0L
(lp2227
(lp2228
tp2229
a(L1302638456L
L0L
(lp2230
(lp2231
tp2232
a(L810137203L
L0L
(lp2233
(lp2234
tp2235
a(L87353900L
L0L
(lp2236
(lp2237
tp2238
a(L3020187L
L0L
(lp2239
(lp2240
tp2241
a(L106L
L0L
(lp2242
(lp2243
tp2244
a(L280317847L
L0L
(lp2245
(lp2246
tp2247
atp2248
sI1074243468
(Vesp_partition_table_verify
p2249
(lp2250
(L1927580282L
L0L
(lp2251
(lp2252
tp2253
a(L2504916109L
L0L
(lp2254
(lp2255
tp2256
a(L4090921686L
L0L
(lp2257
(lp2258
tp2259
a(L2910371777L
L0L
(lp2260
(lp2261
tp2262
a(L2810785767L
L0L
(lp2263
(lp2264
tp2265
a(L3360570486L
L0L
(lp2266
(lp2267
tp2268
a(L3190337587L
L0L
(lp2269
(lp2270
tp2271
a(L2069928857L
L0L
(lp2272
(lp2273
tp2274
a(L3020204L
L0L
(lp2275
(lp2276
tp2277
a(L3831737245L
L3785322319L
(lp2278
(lp2279
Vesp_log_early_timestamp
p2280
atp2281
a(L2344799345L
L3785322319L
(lp2282
(lp2283
Vesp_log_early_timestamp
p2284
atp2285
a(L722190225L
L0L
(lp2286
(lp2287
tp2288
a(L2902417580L
L0L
(lp2289
(lp2290
tp2291
a(L3020204L
L0L
(lp2292
(lp2293
tp2294
a(L1370530386L
L3785322319L
(lp2295
(lp2296
Vesp_log_early_timestamp
p2297
atp2298
a(L190989796L
L0L
(lp2299
(lp2300
tp2301
a(L4177735199L
L0L
(lp2302
(lp2303
tp2304
a(L2902417580L
L0L
(lp2305
(lp2306
tp2307
a(L3831736532L
L3785322319L
(lp2308
(lp2309
Vesp_log_early_timestamp
p2310
atp2311
a(L1305407469L
L0L
(lp2312
(lp2313
tp2314
a(L1167861556L
L0L
(lp2315
(lp2316
tp2317
a(L3914073261L
L0L
(lp2318
(lp2319
tp2320
a(L2910371777L
L0L
(lp2321
(lp2322
tp2323
a(L1235012932L
L0L
(lp2324
(lp2325
tp2326
a(L3960680862L
L3785322319L
(lp2327
(lp2328
Vesp_log_early_timestamp
p2329
atp2330
atp2331
sI1074240392
(Vbootloader_utility_load_boot_image
p2332
(lp2333
(L2848044097L
L0L
(lp2334
(lp2335
tp2336
a(L2177418995L
L3785322319L
(lp2337
(lp2338
Vtry_load_partition
p2339
atp2340
a(L1305243774L
L3785322319L
(lp2341
(lp2342
Vload_image
p2343
atp2344
a(L2952842336L
L3785322319L
(lp2345
(lp2346
Vesp_log_early_timestamp
p2347
atp2348
a(L3827921190L
L3785322319L
(lp2349
(lp2350
Vbootloader_reset
p2351
atp2352
a(L1953693036L
L3785322319L
(lp2353
(lp2354
Vindex_to_partition
p2355
atp2356
a(L1204373741L
L3785322319L
(lp2357
(lp2358
Vtry_load_partition
p2359
atp2360
a(L1899865696L
L0L
(lp2361
(lp2362
tp2363
a(L2695355117L
L3785322319L
(lp2364
(lp2365
Vset_actual_ota_seq
p2366
atp2367
a(L1868897605L
L3785322319L
(lp2368
(lp2369
Vlog_invalid_app_partition
p2370
atp2371
a(L831650730L
L0L
(lp2372
(lp2373
tp2374
a(L3021737L
L0L
(lp2375
(lp2376
tp2377
a(L695456438L
L0L
(lp2378
(lp2379
tp2380
a(L1136920284L
L3785322319L
(lp2381
(lp2382
Vtry_load_partition
p2383
atp2384
a(L709541818L
L3785322319L
(lp2385
(lp2386
Vesp_log_early_timestamp
p2387
atp2388
a(L2347390157L
L3785322319L
(lp2389
(lp2390
Vindex_to_partition
p2391
atp2392
a(L1204373741L
L3785322319L
(lp2393
(lp2394
Vtry_load_partition
p2395
atp2396
a(L3061261803L
L0L
(lp2397
(lp2398
tp2399
a(L3582858798L
L3785322319L
(lp2400
(lp2401
Vlog_invalid_app_partition
p2402
atp2403
a(L362260778L
L3785322319L
(lp2404
(lp2405
Vesp_log_early_timestamp
p2406
atp2407
atp2408
sI1074236552
(Vesp_rom_uart_tx_wait_idle
p2409
(lp2410
(L2733747073L
L0L
(lp2411
(lp2412
tp2413
a(L1301079727L
L0L
(lp2414
(lp2415
tp2416
a(L3597746521L
L0L
(lp2417
(lp2418
tp2419
a(L3694491048L
L0L
(lp2420
(lp2421
tp2422
a(L3055926844L
L0L
(lp2423
(lp2424
tp2425
a(L3360570486L
L0L
(lp2426
(lp2427
tp2428
atp2429
sI1074241172
(Vbootloader_ana_clock_glitch_reset_config
p2430
(lp2431
(L2100504542L
L0L
(lp2432
(lp2433
tp2434
atp2435
sI1074237332
(Vbootloader_common_reset_rtc_retain_mem
p2436
(lp2437
(L1186611531L
L0L
(lp2438
(lp2439
tp2440
atp2441
sI1074238100
(Vbootloader_flash_erase_sector
p2442
(lp2443
(L4129137686L
L1880226080L
(lp2444
(lp2445
Vesp_rom_spiflash_erase_sector
p2446
aVspi_to_esp_err
p2447
atp2448
atp2449
sI1074245524
(Vrtc_clk_8m_enabled
p2450
(lp2451
(L2903051967L
L0L
(lp2452
(lp2453
tp2454
atp2455
sI1074268060
(Vbootloader_init
p2456
(lp2457
(L270395025L
L3785322319L
(lp2458
(lp2459
Vbootloader_init_mem
p2460
atp2461
a(L1265242158L
L0L
(lp2462
(lp2463
tp2464
a(L1494621136L
L3785322319L
(lp2465
(lp2466
V__assert_func
p2467
atp2468
a(L4126189388L
L0L
(lp2469
(lp2470
tp2471
a(L4255864574L
L0L
(lp2472
(lp2473
tp2474
a(L3813782018L
L0L
(lp2475
(lp2476
tp2477
a(L1364096344L
L0L
(lp2478
(lp2479
tp2480
a(L3027019L
L0L
(lp2481
(lp2482
tp2483
a(L3563591778L
L0L
(lp2484
(lp2485
tp2486
a(L375612950L
L1832448559L
(lp2487
(lp2488
Vbootloader_clear_bss_section
p2489
aVbootloader_common_vddsdio_configure
p2490
aVbootloader_clock_get_rated_freq_mhz
p2491
atp2492
a(L3987130017L
L1157885199L
(lp2493
(lp2494
Vbootloader_clock_configure
p2495
aVbootloader_console_init
p2496
aVbootloader_print_banner
p2497
aVbootloader_flash_update_id
p2498
aVbootloader_flash_xmc_startup
p2499
atp2500
a(L1920341648L
L3785322319L
(lp2501
(lp2502
Vesp_log_early_timestamp
p2503
atp2504
a(L1926823800L
L3785322319L
(lp2505
(lp2506
Vesp_log_early_timestamp
p2507
atp2508
a(L3360570486L
L0L
(lp2509
(lp2510
tp2511
a(L2444883382L
L3785322319L
(lp2512
(lp2513
Vbootloader_read_bootloader_header
p2514
atp2515
a(L2444883382L
L3785322319L
(lp2516
(lp2517
Vbootloader_check_bootloader_validity
p2518
atp2519
a(L1449254892L
L2485746240L
(lp2520
(lp2521
Vbootloader_flash_gpio_config
p2522
aVbootloader_flash_dummy_config
p2523
aVbootloader_flash_cs_timing_config
p2524
aVbootloader_flash_unlock
p2525
atp2526
a(L51029731L
L0L
(lp2527
(lp2528
tp2529
a(L471947987L
L0L
(lp2530
(lp2531
tp2532
a(L1404489890L
L0L
(lp2533
(lp2534
tp2535
a(L3674001403L
L3785322319L
(lp2536
(lp2537
Vesp_log_early_timestamp
p2538
atp2539
a(L92454083L
L0L
(lp2540
(lp2541
tp2542
a(L96148167L
L0L
(lp2543
(lp2544
tp2545
a(L99842251L
L0L
(lp2546
(lp2547
tp2548
a(L139553654L
L0L
(lp2549
(lp2550
tp2551
a(L1404491141L
L0L
(lp2552
(lp2553
tp2554
a(L1852744844L
L3785322319L
(lp2555
(lp2556
Vesp_log_early_timestamp
p2557
atp2558
a(L93837694L
L0L
(lp2559
(lp2560
tp2561
a(L106L
L0L
(lp2562
(lp2563
tp2564
a(L258083190L
L0L
(lp2565
(lp2566
tp2567
a(L2752571198L
L0L
(lp2568
(lp2569
tp2570
a(L3902507129L
L0L
(lp2571
(lp2572
tp2573
a(L1701707570L
L3785322319L
(lp2574
(lp2575
Vesp_log_early_timestamp
p2576
atp2577
a(L93837694L
L0L
(lp2578
(lp2579
tp2580
a(L106L
L0L
(lp2581
(lp2582
tp2583
a(L3029526157L
L0L
(lp2584
(lp2585
tp2586
a(L2772639124L
L0L
(lp2587
(lp2588
tp2589
a(L2807278488L
L0L
(lp2590
(lp2591
tp2592
a(L3379747486L
L3785322319L
(lp2593
(lp2594
Vbootloader_enable_wp
p2595
atp2596
a(L1266399027L
L0L
(lp2597
(lp2598
tp2599
a(L1895147922L
L0L
(lp2600
(lp2601
tp2602
a(L2166009126L
L3785322319L
(lp2603
(lp2604
Vesp_log_early_timestamp
p2605
atp2606
a(L3639065141L
L0L
(lp2607
(lp2608
tp2609
a(L3616326365L
L0L
(lp2610
(lp2611
tp2612
a(L1129025932L
L0L
(lp2613
(lp2614
tp2615
a(L1569238687L
L3785322319L
(lp2616
(lp2617
Vesp_log_early_timestamp
p2618
atp2619
a(L4263191691L
L1880226080L
(lp2620
(lp2621
Vwdt_reset_info_dump
p2622
aVwdt_reset_info_dump
p2623
atp2624
a(L2752562921L
L0L
(lp2625
(lp2626
tp2627
a(L106L
L0L
(lp2628
(lp2629
tp2630
a(L718636321L
L0L
(lp2631
(lp2632
tp2633
a(L1767021965L
L0L
(lp2634
(lp2635
tp2636
a(L3028481L
L0L
(lp2637
(lp2638
tp2639
a(L3981500492L
L1880226080L
(lp2640
(lp2641
Vbootloader_config_wdt
p2642
aVbootloader_enable_random
p2643
atp2644
atp2645
sI1074235536
(Vbootloader_flash_read_sfdp
p2646
(lp2647
(L711701400L
L0L
(lp2648
(lp2649
tp2650
a(L3178612724L
L3785322319L
(lp2651
(lp2652
V__assert_func
p2653
atp2654
a(L3704332455L
L3785322319L
(lp2655
(lp2656
Vbootloader_flash_execute_command_common
p2657
atp2658
atp2659
sI1074235792
(Vbootloader_flash_cs_timing_config
p2660
(lp2661
(L6299057L
L0L
(lp2662
(lp2663
tp2664
atp2665
sI1074247824
(Vesp_rom_spiflash_program_page_internal
p2666
(lp2667
(L2569069283L
L0L
(lp2668
(lp2669
tp2670
a(L2258688483L
L0L
(lp2671
(lp2672
tp2673
a(L3360570486L
L0L
(lp2674
(lp2675
tp2676
a(L1797932095L
L0L
(lp2677
(lp2678
tp2679
a(L4235661475L
L3785322319L
(lp2680
(lp2681
Vesp_rom_spiflash_wait_idle
p2682
atp2683
a(L1299866312L
L0L
(lp2684
(lp2685
tp2686
a(L3212356251L
L3785322319L
(lp2687
(lp2688
Vesp_rom_spiflash_enable_write
p2689
atp2690
a(L1765010629L
L0L
(lp2691
(lp2692
tp2693
a(L26163681L
L0L
(lp2694
(lp2695
tp2696
a(L2953702749L
L0L
(lp2697
(lp2698
tp2699
a(L2989032L
L0L
(lp2700
(lp2701
tp2702
a(L1965622133L
L0L
(lp2703
(lp2704
tp2705
a(L2232244568L
L0L
(lp2706
(lp2707
tp2708
a(L1958113242L
L0L
(lp2709
(lp2710
tp2711
a(L106L
L0L
(lp2712
(lp2713
tp2714
a(L3112950080L
L0L
(lp2715
(lp2716
tp2717
a(L1868606439L
L0L
(lp2718
(lp2719
tp2720
a(L1008983226L
L0L
(lp2721
(lp2722
tp2723
a(L1933954923L
L0L
(lp2724
(lp2725
tp2726
a(L1147866918L
L0L
(lp2727
(lp2728
tp2729
a(L3871602522L
L0L
(lp2730
(lp2731
tp2732
atp2733
sI1074236828
(Vefuse_hal_get_minor_chip_version
p2734
(lp2735
(L1213965243L
L0L
(lp2736
(lp2737
tp2738
atp2739
sI1074241180
(Vprocess_checksum
p2740
(lp2741
(L2795935849L
L0L
(lp2742
(lp2743
tp2744
a(L2910371777L
L0L
(lp2745
(lp2746
tp2747
a(L186886970L
L0L
(lp2748
(lp2749
tp2750
a(L2910371777L
L0L
(lp2751
(lp2752
tp2753
a(L3020204L
L0L
(lp2754
(lp2755
tp2756
a(L2480703612L
L3785322319L
(lp2757
(lp2758
Vbootloader_sha256_data
p2759
atp2760
a(L4179073442L
L0L
(lp2761
(lp2762
tp2763
a(L1811888222L
L3785322319L
(lp2764
(lp2765
Vbootloader_flash_read
p2766
atp2767
a(L3126521138L
L0L
(lp2768
(lp2769
tp2770
a(L4152480608L
L0L
(lp2771
(lp2772
tp2773
a(L4279941697L
L3785322319L
(lp2774
(lp2775
Vesp_log_early_timestamp
p2776
atp2777
atp2778
sI1074245276
(Vrtc_clk_bbpll_disable
p2779
(lp2780
(L1638670101L
L0L
(lp2781
(lp2782
tp2783
a(L2472207241L
L0L
(lp2784
(lp2785
tp2786
a(L3360570486L
L0L
(lp2787
(lp2788
tp2789
atp2790
sI1074237848
(Vbootloader_flash_read
p2791
(lp2792
(L728393898L
L0L
(lp2793
(lp2794
tp2795
a(L4128137978L
L3785322319L
(lp2796
(lp2797
Vesp_log_early_timestamp
p2798
atp2799
a(L1024709524L
L0L
(lp2800
(lp2801
tp2802
a(L3360570486L
L0L
(lp2803
(lp2804
tp2805
a(L2660352519L
L0L
(lp2806
(lp2807
tp2808
a(L477331950L
L3785322319L
(lp2809
(lp2810
Vesp_log_early_timestamp
p2811
atp2812
a(L162336582L
L0L
(lp2813
(lp2814
tp2815
a(L3986245195L
L3785322319L
(lp2816
(lp2817
Vesp_log_early_timestamp
p2818
atp2819
a(L3020204L
L0L
(lp2820
(lp2821
tp2822
a(L3893043951L
L0L
(lp2823
(lp2824
tp2825
a(L97422L
L0L
(lp2826
(lp2827
tp2828
a(L3560938121L
L0L
(lp2829
(lp2830
tp2831
a(L1066422594L
L0L
(lp2832
(lp2833
tp2834
a(L2602189250L
L3785322319L
(lp2835
(lp2836
V__assert_func
p2837
atp2838
a(L2942240672L
L0L
(lp2839
(lp2840
tp2841
a(L2825774166L
L0L
(lp2842
(lp2843
tp2844
a(L2862923013L
L1880226080L
(lp2845
(lp2846
Vesp_rom_spiflash_read
p2847
aVspi_to_esp_err
p2848
atp2849
atp2850
sI1074245796
(Vrtc_clk_fast_src_get
p2851
(lp2852
(L2740077091L
L0L
(lp2853
(lp2854
tp2855
atp2856
sI1074238368
(Vbootloader_random_disable
p2857
(lp2858
(L3908351413L
L0L
(lp2859
(lp2860
tp2861
atp2862
sI1074244768
(Vwdt_hal_write_protect_enable
p2863
(lp2864
(L387778158L
L0L
(lp2865
(lp2866
tp2867
a(L4195472003L
L0L
(lp2868
(lp2869
tp2870
a(L3360570486L
L0L
(lp2871
(lp2872
tp2873
a(L802523425L
L0L
(lp2874
(lp2875
tp2876
atp2877
sI1074236844
(Vesp_dport_access_reg_read
p2878
(lp2879
(L1099794772L
L0L
(lp2880
(lp2881
tp2882
atp2883
sI1074243756
(Vwdt_hal_init
p2884
(lp2885
(L4007990316L
L0L
(lp2886
(lp2887
tp2888
a(L773637850L
L0L
(lp2889
(lp2890
tp2891
a(L2805934275L
L0L
(lp2892
(lp2893
tp2894
a(L3656214667L
L0L
(lp2895
(lp2896
tp2897
a(L2632832722L
L0L
(lp2898
(lp2899
tp2900
a(L3360570486L
L0L
(lp2901
(lp2902
tp2903
a(L828084267L
L0L
(lp2904
(lp2905
tp2906
atp2907
sI1074245548
(Vrtc_clk_8md256_enabled
p2908
(lp2909
(L2058580096L
L0L
(lp2910
(lp2911
tp2912
atp2913
sI1074268836
(Vbootloader_common_vddsdio_configure
p2914
(lp2915
(L1829974089L
L3785322319L
(lp2916
(lp2917
Vrtc_vddsdio_get_config
p2918
atp2919
a(L1489249795L
L3785322319L
(lp2920
(lp2921
Vrtc_vddsdio_set_config
p2922
atp2923
a(L3360570486L
L0L
(lp2924
(lp2925
tp2926
atp2927
sI1074237352
(Vbootloader_common_get_rtc_retain_mem_partition
p2928
(lp2929
(L1838455070L
L3785322319L
(lp2930
(lp2931
Vcheck_rtc_retain_mem
p2932
atp2933
a(L702737592L
L0L
(lp2934
(lp2935
tp2936
a(L3360570486L
L0L
(lp2937
(lp2938
tp2939
atp2940
sI1074238120
(Vbootloader_flash_write
p2941
(lp2942
(L3770380603L
L0L
(lp2943
(lp2944
tp2945
a(L2069925250L
L3785322319L
(lp2946
(lp2947
Vesp_log_early_timestamp
p2948
atp2949
a(L283255622L
L0L
(lp2950
(lp2951
tp2952
a(L1610445075L
L0L
(lp2953
(lp2954
tp2955
a(L735741265L
L0L
(lp2956
(lp2957
tp2958
a(L3291333414L
L0L
(lp2959
(lp2960
tp2961
a(L2814042267L
L3785322319L
(lp2962
(lp2963
Vesp_log_early_timestamp
p2964
atp2965
a(L3283691850L
L0L
(lp2966
(lp2967
tp2968
a(L508491279L
L3785322319L
(lp2969
(lp2970
Vesp_log_early_timestamp
p2971
atp2972
a(L3212356251L
L3785322319L
(lp2973
(lp2974
Vbootloader_flash_unlock
p2975
atp2976
a(L1799218633L
L0L
(lp2977
(lp2978
tp2979
a(L94425498L
L3785322319L
(lp2980
(lp2981
Vesp_rom_spiflash_write_encrypted
p2982
atp2983
a(L2927190544L
L3785322319L
(lp2984
(lp2985
Vspi_to_esp_err
p2986
atp2987
a(L2927190544L
L3785322319L
(lp2988
(lp2989
Vesp_rom_spiflash_write
p2990
atp2991
atp2992
sI1074242216
(Vprocess_segments
p2993
(lp2994
(L1018786970L
L0L
(lp2995
(lp2996
tp2997
a(L3285816417L
L0L
(lp2998
(lp2999
tp3000
a(L3782401745L
L0L
(lp3001
(lp3002
tp3003
a(L106L
L0L
(lp3004
(lp3005
tp3006
a(L2411199274L
L0L
(lp3007
(lp3008
tp3009
a(L1182841750L
L3785322319L
(lp3010
(lp3011
Vesp_log_early_timestamp
p3012
atp3013
a(L3085209925L
L3785322319L
(lp3014
(lp3015
Vbootloader_flash_read
p3016
atp3017
a(L2066893991L
L3785322319L
(lp3018
(lp3019
Vesp_log_early_timestamp
p3020
atp3021
a(L3871473710L
L0L
(lp3022
(lp3023
tp3024
a(L234193771L
L0L
(lp3025
(lp3026
tp3027
a(L1635713494L
L3785322319L
(lp3028
(lp3029
Vbootloader_sha256_data
p3030
atp3031
a(L165187679L
L0L
(lp3032
(lp3033
tp3034
a(L3712371969L
L0L
(lp3035
(lp3036
tp3037
a(L779903791L
L0L
(lp3038
(lp3039
tp3040
a(L3802067325L
L0L
(lp3041
(lp3042
tp3043
a(L4154583783L
L0L
(lp3044
(lp3045
tp3046
a(L2258867228L
L0L
(lp3047
(lp3048
tp3049
a(L1255782415L
L0L
(lp3050
(lp3051
tp3052
a(L1756760227L
L0L
(lp3053
(lp3054
tp3055
a(L1849436849L
L0L
(lp3056
(lp3057
tp3058
a(L45079929L
L3785322319L
(lp3059
(lp3060
Vesp_log_early_timestamp
p3061
atp3062
a(L3601900694L
L0L
(lp3063
(lp3064
tp3065
a(L568254959L
L0L
(lp3066
(lp3067
tp3068
a(L3695279309L
L3785322319L
(lp3069
(lp3070
Vesp_log_early_timestamp
p3071
atp3072
a(L1973629750L
L3785322319L
(lp3073
(lp3074
Vverify_load_addresses
p3075
atp3076
a(L106L
L0L
(lp3077
(lp3078
tp3079
a(L914132342L
L0L
(lp3080
(lp3081
tp3082
a(L291460350L
L0L
(lp3083
(lp3084
tp3085
a(L4151532718L
L3785322319L
(lp3086
(lp3087
Vbootloader_mmap
p3088
atp3089
a(L2476766446L
L3785322319L
(lp3090
(lp3091
Vesp_log_early_timestamp
p3092
atp3093
a(L442619735L
L0L
(lp3094
(lp3095
tp3096
a(L2651945963L
L0L
(lp3097
(lp3098
tp3099
a(L1652679798L
L3785322319L
(lp3100
(lp3101
Vbootloader_munmap
p3102
atp3103
a(L2993622008L
L0L
(lp3104
(lp3105
tp3106
a(L1216016797L
L3785322319L
(lp3107
(lp3108
Vbootloader_fill_random
p3109
atp3110
a(L3570641403L
L0L
(lp3111
(lp3112
tp3113
a(L3574335487L
L0L
(lp3114
(lp3115
tp3116
a(L3450268858L
L0L
(lp3117
(lp3118
tp3119
a(L3021749L
L0L
(lp3120
(lp3121
tp3122
a(L1609678444L
L0L
(lp3123
(lp3124
tp3125
a(L1777728568L
L0L
(lp3126
(lp3127
tp3128
a(L3020204L
L0L
(lp3129
(lp3130
tp3131
a(L2199858254L
L0L
(lp3132
(lp3133
tp3134
a(L2076461546L
L0L
(lp3135
(lp3136
tp3137
a(L3844184503L
L0L
(lp3138
(lp3139
tp3140
a(L1749969336L
L0L
(lp3141
(lp3142
tp3143
a(L670934548L
L0L
(lp3144
(lp3145
tp3146
a(L781506066L
L3785322319L
(lp3147
(lp3148
Vbootloader_sha256_data
p3149
atp3150
a(L90548756L
L0L
(lp3151
(lp3152
tp3153
a(L4195963580L
L0L
(lp3154
(lp3155
tp3156
a(L2422333549L
L0L
(lp3157
(lp3158
tp3159
a(L3132743422L
L0L
(lp3160
(lp3161
tp3162
a(L249537906L
L3785322319L
(lp3163
(lp3164
Vshould_load
p3165
atp3166
a(L2378267508L
L0L
(lp3167
(lp3168
tp3169
a(L546135627L
L3785322319L
(lp3170
(lp3171
Vesp_log_early_timestamp
p3172
atp3173
a(L3006205939L
L0L
(lp3174
(lp3175
tp3176
a(L307916955L
L0L
(lp3177
(lp3178
tp3179
a(L3545058243L
L0L
(lp3180
(lp3181
tp3182
a(L81630008L
L0L
(lp3183
(lp3184
tp3185
a(L2742376716L
L0L
(lp3186
(lp3187
tp3188
a(L3786494677L
L3785322319L
(lp3189
(lp3190
Vbootloader_mmap_get_free_pages
p3191
atp3192
a(L2685118414L
L0L
(lp3193
(lp3194
tp3195
a(L2091285670L
L0L
(lp3196
(lp3197
tp3198
atp3199
sI1074245812
(Vrtc_clk_xtal_freq_get
p3200
(lp3201
(L4123089299L
L0L
(lp3202
(lp3203
tp3204
a(L2847936993L
L0L
(lp3205
(lp3206
tp3207
a(L2344143629L
L0L
(lp3208
(lp3209
tp3210
a(L3360570486L
L0L
(lp3211
(lp3212
tp3213
atp3214
sI1074244796
(Vwdt_hal_enable
p3215
(lp3216
(L2299130915L
L0L
(lp3217
(lp3218
tp3219
a(L165794138L
L0L
(lp3220
(lp3221
tp3222
a(L3360570486L
L0L
(lp3223
(lp3224
tp3225
a(L2847657174L
L0L
(lp3226
(lp3227
tp3228
atp3229
sI1074269620
(Vbootloader_flash_update_id
p3230
(lp3231
(L3149875550L
L3785322319L
(lp3232
(lp3233
Vbootloader_read_flash_id
p3234
atp3235
atp3236
sI1074236856
(Vis_xmc_chip_strict
p3237
(lp3238
(L1286841609L
L0L
(lp3239
(lp3240
tp3241
a(L2234016759L
L0L
(lp3242
(lp3243
tp3244
a(L1069027148L
L0L
(lp3245
(lp3246
tp3247
a(L3021749L
L0L
(lp3248
(lp3249
tp3250
a(L1900148749L
L0L
(lp3251
(lp3252
tp3253
a(L1936875721L
L0L
(lp3254
(lp3255
tp3256
a(L3356166509L
L0L
(lp3257
(lp3258
tp3259
a(L1937769451L
L0L
(lp3260
(lp3261
tp3262
a(L2137658907L
L0L
(lp3263
(lp3264
tp3265
a(L4265949734L
L0L
(lp3266
(lp3267
tp3268
a(L3360570486L
L0L
(lp3269
(lp3270
tp3271
atp3272
sI1074237368
(Vbootloader_common_update_rtc_retain_mem
p3273
(lp3274
(L2958000229L
L0L
(lp3275
(lp3276
tp3277
a(L3212356251L
L3785322319L
(lp3278
(lp3279
Vcheck_rtc_retain_mem
p3280
atp3281
a(L94425498L
L3785322319L
(lp3282
(lp3283
Vbootloader_common_reset_rtc_retain_mem
p3284
atp3285
a(L3432218896L
L0L
(lp3286
(lp3287
tp3288
a(L4140856694L
L0L
(lp3289
(lp3290
tp3291
a(L4196778341L
L0L
(lp3292
(lp3293
tp3294
a(L1466453772L
L0L
(lp3295
(lp3296
tp3297
a(L445832892L
L0L
(lp3298
(lp3299
tp3300
atp3301
sI1074238904
(Vcache_ll_l1_enable_bus
p3302
(lp3303
(L1408514293L
L0L
(lp3304
(lp3305
tp3306
atp3307
sI1074235588
(Vbootloader_read_flash_id
p3308
(lp3309
(L549578328L
L3785322319L
(lp3310
(lp3311
Vbootloader_execute_flash_command
p3312
atp3313
atp3314
sI1074245572
(Vrtc_clk_slow_src_set
p3315
(lp3316
(L2985655365L
L0L
(lp3317
(lp3318
tp3319
a(L3020187L
L0L
(lp3320
(lp3321
tp3322
a(L3028481L
L0L
(lp3323
(lp3324
tp3325
a(L487821223L
L0L
(lp3326
(lp3327
tp3328
a(L2544356762L
L0L
(lp3329
(lp3330
tp3331
a(L1851908495L
L0L
(lp3332
(lp3333
tp3334
a(L1555782902L
L0L
(lp3335
(lp3336
tp3337
a(L3138544334L
L0L
(lp3338
(lp3339
tp3340
a(L94425498L
L3785322319L
(lp3341
(lp3342
Vabort
p3343
atp3344
atp3345
sI1074246084
(Vrtc_clk_xtal_freq_update
p3346
(lp3347
(L3699742562L
L0L
(lp3348
(lp3349
tp3350
a(L3509357017L
L0L
(lp3351
(lp3352
tp3353
a(L2266180931L
L0L
(lp3354
(lp3355
tp3356
atp3357
sI1074249156
(V_fini
p3358
(lp3359
(L3493042598L
L0L
(lp3360
(lp3361
tp3362
atp3363
sI1074269132
(Vbootloader_random_enable
p3364
(lp3365
(L1578364810L
L0L
(lp3366
(lp3367
tp3368
atp3369
sI1074269900
(Vbootloader_enable_random
p3370
(lp3371
(L1278562623L
L1880226080L
(lp3372
(lp3373
Vesp_log_early_timestamp
p3374
aVbootloader_random_enable
p3375
atp3376
atp3377
sI1074240704
(Vbootloader_debug_buffer
p3378
(lp3379
(L2100504542L
L0L
(lp3380
(lp3381
tp3382
atp3383
sI1074267840
(Vwdt_reset_info_dump
p3384
(lp3385
(L4037466985L
L0L
(lp3386
(lp3387
tp3388
a(L826419141L
L0L
(lp3389
(lp3390
tp3391
a(L527117834L
L0L
(lp3392
(lp3393
tp3394
a(L1103285333L
L0L
(lp3395
(lp3396
tp3397
a(L897464656L
L3785322319L
(lp3398
(lp3399
Vesp_log_early_timestamp
p3400
atp3401
a(L2967992533L
L0L
(lp3402
(lp3403
tp3404
a(L144195250L
L3785322319L
(lp3405
(lp3406
Vesp_log_early_timestamp
p3407
atp3408
a(L2899013701L
L0L
(lp3409
(lp3410
tp3411
atp3412
sI1074239948
(Vbootloader_utility_get_selected_boot_partition
p3413
(lp3414
(L2184143128L
L0L
(lp3415
(lp3416
tp3417
a(L3566644432L
L0L
(lp3418
(lp3419
tp3420
a(L552913186L
L3785322319L
(lp3421
(lp3422
Vesp_log_early_timestamp
p3423
atp3424
a(L4182535910L
L0L
(lp3425
(lp3426
tp3427
a(L3360570486L
L0L
(lp3428
(lp3429
tp3430
a(L1375577398L
L3785322319L
(lp3431
(lp3432
Vbootloader_mmap
p3433
atp3434
a(L1607319406L
L3785322319L
(lp3435
(lp3436
Vesp_log_early_timestamp
p3437
atp3438
a(L1172158639L
L1880226080L
(lp3439
(lp3440
Vbootloader_munmap
p3441
aVbootloader_common_ota_select_invalid
p3442
atp3443
a(L1103573946L
L0L
(lp3444
(lp3445
tp3446
a(L1876835593L
L3785322319L
(lp3447
(lp3448
Vbootloader_common_get_active_otadata
p3449
atp3450
a(L106L
L0L
(lp3451
(lp3452
tp3453
a(L569346373L
L0L
(lp3454
(lp3455
tp3456
a(L788494392L
L3785322319L
(lp3457
(lp3458
Vbootloader_common_ota_select_invalid
p3459
atp3460
a(L2808859069L
L0L
(lp3461
(lp3462
tp3463
a(L1370620137L
L3785322319L
(lp3464
(lp3465
Vesp_log_early_timestamp
p3466
atp3467
a(L1746715137L
L3785322319L
(lp3468
(lp3469
Vesp_log_early_timestamp
p3470
atp3471
a(L505081345L
L0L
(lp3472
(lp3473
tp3474
a(L919052234L
L3785322319L
(lp3475
(lp3476
Vbootloader_common_ota_select_crc
p3477
atp3478
a(L2287680455L
L0L
(lp3479
(lp3480
tp3481
a(L3542558037L
L3785322319L
(lp3482
(lp3483
Vbootloader_common_ota_select_crc
p3484
atp3485
a(L1299866312L
L0L
(lp3486
(lp3487
tp3488
a(L4084098557L
L0L
(lp3489
(lp3490
tp3491
a(L2808695125L
L3785322319L
(lp3492
(lp3493
Vesp_log_early_timestamp
p3494
atp3495
a(L190989796L
L0L
(lp3496
(lp3497
tp3498
a(L4142615978L
L3785322319L
(lp3499
(lp3500
Vesp_log_early_timestamp
p3501
atp3502
atp3503
sI1074241996
(Vprocess_appended_hash_and_sig
p3504
(lp3505
(L1668084157L
L0L
(lp3506
(lp3507
tp3508
a(L2910371777L
L0L
(lp3509
(lp3510
tp3511
a(L1591589631L
L0L
(lp3512
(lp3513
tp3514
a(L2551256078L
L0L
(lp3515
(lp3516
tp3517
a(L3685943644L
L0L
(lp3518
(lp3519
tp3520
a(L1334399457L
L3785322319L
(lp3521
(lp3522
Vesp_log_early_timestamp
p3523
atp3524
a(L2268304300L
L3785322319L
(lp3525
(lp3526
Vbootloader_flash_read
p3527
atp3528
a(L3871473710L
L0L
(lp3529
(lp3530
tp3531
atp3532
sI1074247628
(Vesp_rom_spiflash_read_status
p3533
(lp3534
(L2021440545L
L0L
(lp3535
(lp3536
tp3537
a(L1182811815L
L0L
(lp3538
(lp3539
tp3540
a(L2359095695L
L0L
(lp3541
(lp3542
tp3543
a(L106L
L0L
(lp3544
(lp3545
tp3546
a(L1725371117L
L0L
(lp3547
(lp3548
tp3549
a(L3274807848L
L0L
(lp3550
(lp3551
tp3552
a(L2123059967L
L0L
(lp3553
(lp3554
tp3555
a(L3146966332L
L0L
(lp3556
(lp3557
tp3558
a(L2392720019L
L0L
(lp3559
(lp3560
tp3561
atp3562
sI1074269124
(Vbootloader_init_mem
p3563
(lp3564
(L1287383080L
L3785322319L
(lp3565
(lp3566
Vesp_cpu_configure_region_protection
p3567
atp3568
atp3569
sI1074269636
(Vbootloader_clear_bss_section
p3570
(lp3571
(L1133714402L
L0L
(lp3572
(lp3573
tp3574
atp3575
sI1074240712
(Vbootloader_sha256_start
p3576
(lp3577
(L3193196334L
L0L
(lp3578
(lp3579
tp3580
atp3581
sI1074236616
(Vesp_rom_uart_set_clock_baudrate
p3582
(lp3583
(L3381693543L
L0L
(lp3584
(lp3585
tp3586
a(L2334982986L
L0L
(lp3587
(lp3588
tp3589
a(L2805931264L
L0L
(lp3590
(lp3591
tp3592
a(L3887231631L
L0L
(lp3593
(lp3594
tp3595
atp3596
sI1074236372
(Vbootloader_flash_dummy_config
p3597
(lp3598
(L379397211L
L0L
(lp3599
(lp3600
tp3601
a(L2761717557L
L0L
(lp3602
(lp3603
tp3604
a(L1849044936L
L0L
(lp3605
(lp3606
tp3607
a(L1396570841L
L0L
(lp3608
(lp3609
tp3610
a(L326359429L
L0L
(lp3611
(lp3612
tp3613
a(L3020204L
L0L
(lp3614
(lp3615
tp3616
a(L1610443405L
L0L
(lp3617
(lp3618
tp3619
a(L4032120524L
L0L
(lp3620
(lp3621
tp3622
a(L2336993863L
L0L
(lp3623
(lp3624
tp3625
a(L1298875775L
L0L
(lp3626
(lp3627
tp3628
a(L3880393601L
L0L
(lp3629
(lp3630
tp3631
a(L3433671740L
L0L
(lp3632
(lp3633
tp3634
a(L1610443436L
L0L
(lp3635
(lp3636
tp3637
atp3638
sI1074239444
(Vset_actual_ota_seq
p3639
(lp3640
(L4094723830L
L0L
(lp3641
(lp3642
tp3643
a(L2784201201L
L0L
(lp3644
(lp3645
tp3646
a(L3443552365L
L1832448559L
(lp3647
(lp3648
Vbootloader_common_ota_select_crc
p3649
aVesp_flash_encryption_enabled
p3650
aVbootloader_flash_erase_sector
p3651
atp3652
a(L3103250323L
L3785322319L
(lp3653
(lp3654
Vbootloader_flash_write
p3655
atp3656
a(L3668645912L
L3785322319L
(lp3657
(lp3658
Vesp_log_early_timestamp
p3659
atp3660
a(L3814208367L
L3785322319L
(lp3661
(lp3662
Vesp_log_early_timestamp
p3663
atp3664
a(L889933560L
L1880226080L
(lp3665
(lp3666
Vindex_to_partition
p3667
aVbootloader_common_update_rtc_retain_mem
p3668
atp3669
atp3670
sI1074248404
(Vesp_rom_spiflash_read
p3671
(lp3672
(L1757848243L
L0L
(lp3673
(lp3674
tp3675
a(L1099626347L
L0L
(lp3676
(lp3677
tp3678
a(L340311750L
L0L
(lp3679
(lp3680
tp3681
a(L2373999345L
L0L
(lp3682
(lp3683
tp3684
a(L106L
L0L
(lp3685
(lp3686
tp3687
a(L633884026L
L0L
(lp3688
(lp3689
tp3690
a(L106L
L0L
(lp3691
(lp3692
tp3693
a(L1755585071L
L0L
(lp3694
(lp3695
tp3696
a(L346308352L
L0L
(lp3697
(lp3698
tp3699
a(L3978712733L
L0L
(lp3700
(lp3701
tp3702
a(L336550648L
L0L
(lp3703
(lp3704
tp3705
a(L1935214967L
L0L
(lp3706
(lp3707
tp3708
a(L106L
L0L
(lp3709
(lp3710
tp3711
a(L3163031942L
L3785322319L
(lp3712
(lp3713
Vesp_rom_spiflash_wait_idle
p3714
atp3715
a(L3021737L
L0L
(lp3716
(lp3717
tp3718
a(L106L
L0L
(lp3719
(lp3720
tp3721
a(L1868280504L
L0L
(lp3722
(lp3723
tp3724
a(L106L
L0L
(lp3725
(lp3726
tp3727
a(L1915067387L
L0L
(lp3728
(lp3729
tp3730
a(L1221163038L
L0L
(lp3731
(lp3732
tp3733
a(L4122060822L
L0L
(lp3734
(lp3735
tp3736
a(L1159904577L
L0L
(lp3737
(lp3738
tp3739
a(L2989032L
L0L
(lp3740
(lp3741
tp3742
a(L3819849625L
L0L
(lp3743
(lp3744
tp3745
a(L3011903627L
L0L
(lp3746
(lp3747
tp3748
a(L961531348L
L0L
(lp3749
(lp3750
tp3751
a(L3901821482L
L0L
(lp3752
(lp3753
tp3754
a(L3157592876L
L0L
(lp3755
(lp3756
tp3757
a(L2921907736L
L0L
(lp3758
(lp3759
tp3760
a(L1328428270L
L0L
(lp3761
(lp3762
tp3763
a(L2282799089L
L0L
(lp3764
(lp3765
tp3766
a(L1790536897L
L0L
(lp3767
(lp3768
tp3769
a(L3350885573L
L0L
(lp3770
(lp3771
tp3772
a(L781550816L
L0L
(lp3773
(lp3774
tp3775
a(L2687789892L
L0L
(lp3776
(lp3777
tp3778
a(L1405253496L
L0L
(lp3779
(lp3780
tp3781
a(L4012933098L
L0L
(lp3782
(lp3783
tp3784
a(L97689L
L0L
(lp3785
(lp3786
tp3787
a(L1183020347L
L0L
(lp3788
(lp3789
tp3790
a(L4014024819L
L0L
(lp3791
(lp3792
tp3793
a(L3621567083L
L0L
(lp3794
(lp3795
tp3796
atp3797
sI1074268892
(Vbootloader_clock_configure
p3798
(lp3799
(L2559598596L
L1880226080L
(lp3800
(lp3801
Vesp_rom_uart_tx_wait_idle
p3802
aVefuse_hal_chip_revision
p3803
atp3804
a(L4006799969L
L0L
(lp3805
(lp3806
tp3807
a(L883406775L
L0L
(lp3808
(lp3809
tp3810
a(L106L
L0L
(lp3811
(lp3812
tp3813
a(L4161070602L
L1832448559L
(lp3814
(lp3815
Vrtc_clk_slow_src_get
p3816
aVrtc_clk_fast_src_get
p3817
aVrtc_clk_init
p3818
atp3819
a(L2587354260L
L0L
(lp3820
(lp3821
tp3822
a(L1108834551L
L3785322319L
(lp3823
(lp3824
Vrtc_clk_apb_freq_get
p3825
atp3826
a(L106L
L0L
(lp3827
(lp3828
tp3829
a(L106L
L0L
(lp3830
(lp3831
tp3832
atp3833
sI1074269660
(Vbootloader_read_bootloader_header
p3834
(lp3835
(L1158061215L
L3785322319L
(lp3836
(lp3837
Vbootloader_flash_read
p3838
atp3839
a(L996487665L
L3785322319L
(lp3840
(lp3841
Vesp_log_early_timestamp
p3842
atp3843
a(L735741265L
L0L
(lp3844
(lp3845
tp3846
atp3847
sI1074270928
(Vmpu_hal_set_region_access
p3848
(lp3849
(L3538356822L
L0L
(lp3850
(lp3851
tp3852
a(L93674324L
L0L
(lp3853
(lp3854
tp3855
a(L2910371777L
L0L
(lp3856
(lp3857
tp3858
a(L3472092938L
L0L
(lp3859
(lp3860
tp3861
a(L3020187L
L0L
(lp3862
(lp3863
tp3864
a(L3360570486L
L0L
(lp3865
(lp3866
tp3867
a(L2258718273L
L0L
(lp3868
(lp3869
tp3870
a(L3446648619L
L0L
(lp3871
(lp3872
tp3873
a(L3739532189L
L0L
(lp3874
(lp3875
tp3876
a(L1300789895L
L0L
(lp3877
(lp3878
tp3879
atp3880
sI1074240732
(Vbootloader_sha256_data
p3881
(lp3882
(L4066096136L
L0L
(lp3883
(lp3884
tp3885
a(L3455000336L
L0L
(lp3886
(lp3887
tp3888
a(L591145840L
L3785322319L
(lp3889
(lp3890
V__assert_func
p3891
atp3892
a(L498498478L
L0L
(lp3893
(lp3894
tp3895
a(L2722495741L
L0L
(lp3896
(lp3897
tp3898
a(L2910371777L
L0L
(lp3899
(lp3900
tp3901
a(L3360570486L
L0L
(lp3902
(lp3903
tp3904
a(L294747366L
L0L
(lp3905
(lp3906
tp3907
a(L541898147L
L0L
(lp3908
(lp3909
tp3910
a(L3411569314L
L0L
(lp3911
(lp3912
tp3913
a(L320800617L
L0L
(lp3914
(lp3915
tp3916
a(L1639420601L
L0L
(lp3917
(lp3918
tp3919
a(L2032890799L
L0L
(lp3920
(lp3921
tp3922
a(L3028464L
L0L
(lp3923
(lp3924
tp3925
a(L1216131626L
L0L
(lp3926
(lp3927
tp3928
a(L309934687L
L0L
(lp3929
(lp3930
tp3931
atp3932
sI1074238684
(Vbootloader_clock_get_rated_freq_mhz
p3933
(lp3934
(L376617603L
L3785322319L
(lp3935
(lp3936
Vefuse_hal_get_rated_freq_mhz
p3937
atp3938
atp3939
sI1074245852
(Vrtc_clk_cpu_freq_mhz_to_config
p3940
(lp3941
(L908718885L
L3785322319L
(lp3942
(lp3943
Vrtc_clk_xtal_freq_get
p3944
atp3945
a(L60460069L
L0L
(lp3946
(lp3947
tp3948
a(L3802072124L
L0L
(lp3949
(lp3950
tp3951
a(L3159006042L
L0L
(lp3952
(lp3953
tp3954
a(L3360570486L
L0L
(lp3955
(lp3956
tp3957
a(L895147205L
L0L
(lp3958
(lp3959
tp3960
a(L3970036657L
L0L
(lp3961
(lp3962
tp3963
a(L2731353429L
L0L
(lp3964
(lp3965
tp3966
a(L1555485793L
L0L
(lp3967
(lp3968
tp3969
a(L2258897023L
L0L
(lp3970
(lp3971
tp3972
a(L1947499251L
L0L
(lp3973
(lp3974
tp3975
a(L1306331021L
L0L
(lp3976
(lp3977
tp3978
atp3979
sI1074245336
(Vrtc_clk_32k_enable
p3980
(lp3981
(L753387299L
L0L
(lp3982
(lp3983
tp3984
a(L3776007933L
L3785322319L
(lp3985
(lp3986
Vrtc_clk_32k_enable_common
p3987
atp3988
a(L3496950L
L0L
(lp3989
(lp3990
tp3991
a(L3320730942L
L0L
(lp3992
(lp3993
tp3994
atp3995
sI1074248152
(Vesp_rom_spiflash_write
p3996
(lp3997
(L2122688454L
L0L
(lp3998
(lp3999
tp4000
a(L2258688483L
L0L
(lp4001
(lp4002
tp4003
a(L3360570486L
L0L
(lp4004
(lp4005
tp4006
a(L3368132847L
L0L
(lp4007
(lp4008
tp4009
a(L3106685981L
L0L
(lp4010
(lp4011
tp4012
a(L3488660639L
L3785322319L
(lp4013
(lp4014
Vesp_rom_spiflash_program_page_internal
p4015
atp4016
a(L3543402353L
L3785322319L
(lp4017
(lp4018
Vesp_rom_spiflash_program_page_internal
p4019
atp4020
a(L4222526342L
L0L
(lp4021
(lp4022
tp4023
a(L2004208511L
L0L
(lp4024
(lp4025
tp4026
a(L564470656L
L0L
(lp4027
(lp4028
tp4029
a(L2988842384L
L3785322319L
(lp4030
(lp4031
Vesp_rom_spiflash_program_page_internal
p4032
atp4033
a(L2302069176L
L0L
(lp4034
(lp4035
tp4036
atp4037
sI1074269928
(Vbootloader_print_banner
p4038
(lp4039
(L3833268759L
L1832448559L
(lp4040
(lp4041
Vesp_log_early_timestamp
p4042
aVesp_log_early_timestamp
p4043
aVesp_log_early_timestamp
p4044
atp4045
atp4046
sI1074270696
(Vrtc_vddsdio_get_config
p4047
(lp4048
(L1825737531L
L0L
(lp4049
(lp4050
tp4051
a(L3421108135L
L0L
(lp4052
(lp4053
tp4054
a(L3002774692L
L0L
(lp4055
(lp4056
tp4057
a(L3784564000L
L0L
(lp4058
(lp4059
tp4060
a(L3399561523L
L0L
(lp4061
(lp4062
tp4063
a(L2423030990L
L0L
(lp4064
(lp4065
tp4066
a(L1306330959L
L0L
(lp4067
(lp4068
tp4069
a(L1167336421L
L0L
(lp4070
(lp4071
tp4072
atp4073
sI1074238956
(Vtry_load_partition
p4074
(lp4075
(L1263750142L
L0L
(lp4076
(lp4077
tp4078
a(L2258688482L
L0L
(lp4079
(lp4080
tp4081
a(L3360570486L
L0L
(lp4082
(lp4083
tp4084
a(L530241438L
L3785322319L
(lp4085
(lp4086
Vbootloader_load_image
p4087
atp4088
a(L2961233756L
L3785322319L
(lp4089
(lp4090
Vesp_log_early_timestamp
p4091
atp4092
atp4093
sI1074238696
(Vlog_invalid_app_partition
p4094
(lp4095
(L1072650950L
L0L
(lp4096
(lp4097
tp4098
a(L3028464L
L0L
(lp4099
(lp4100
tp4101
a(L345933564L
L3785322319L
(lp4102
(lp4103
Vesp_log_early_timestamp
p4104
atp4105
a(L283255622L
L0L
(lp4106
(lp4107
tp4108
a(L3360570486L
L0L
(lp4109
(lp4110
tp4111
a(L1843989741L
L3785322319L
(lp4112
(lp4113
Vesp_log_early_timestamp
p4114
atp4115
a(L3487239454L
L3785322319L
(lp4116
(lp4117
Vesp_log_early_timestamp
p4118
atp4119
atp4120
sI1074235636
(Vbootloader_flash_xmc_startup
p4121
(lp4122
(L3193865048L
L3785322319L
(lp4123
(lp4124
Vis_xmc_chip_strict
p4125
atp4126
a(L2258688482L
L0L
(lp4127
(lp4128
tp4129
a(L3360570486L
L0L
(lp4130
(lp4131
tp4132
a(L2860324232L
L3785322319L
(lp4133
(lp4134
Vbootloader_flash_read_sfdp
p4135
atp4136
a(L1435030724L
L2567856111L
(lp4137
(lp4138
Vesp_log_early_timestamp
p4139
aVbootloader_execute_flash_command
p4140
aVbootloader_execute_flash_command
p4141
aVbootloader_execute_flash_command
p4142
aVbootloader_execute_flash_command
p4143
aVbootloader_read_flash_id
p4144
aVis_xmc_chip_strict
p4145
atp4146
a(L3505255384L
L3785322319L
(lp4147
(lp4148
Vesp_log_early_timestamp
p4149
atp4150
atp4151
sI1074246128
(Vrtc_clk_apb_freq_update
p4152
(lp4153
(L2941089424L
L0L
(lp4154
(lp4155
tp4156
atp4157
sI1074237436
(Vbootloader_common_ota_select_invalid
p4158
(lp4159
(L4027567199L
L0L
(lp4160
(lp4161
tp4162
a(L3397985842L
L0L
(lp4163
(lp4164
tp4165
a(L2258867228L
L0L
(lp4166
(lp4167
tp4168
a(L3785235668L
L0L
(lp4169
(lp4170
tp4171
atp4172
ssS'functionsdups'
p4173
g11
((lp4174
tp4175
Rp4176
sS'immediatedups'
p4177
g11
((lp4178
tp4179
Rp4180
sS'functiondups'
p4181
g11
((lp4182
tp4183
Rp4184
sS'fuzzy'
p4185
(dp4186
L438947497L
I1074245572
sL2170867428L
I1074270260
sL617583950L
I1074237060
sL430153639L
I1074235904
sL3121027072L
I1074270696
sL1655084846L
I1074237368
sL2082889262L
I1074241996
sL291131346L
I1074245120
sL835568324L
I1074247000
sL2919016435L
I1074235244
sL16208487L
I1074234732
sL2319042089L
I1074245704
sL3881399234L
I1074246156
sL1613424182L
I1074240260
sL2919036513L
I1074239056
sL151789201L
I1074270076
sL2680783959L
I1074235636
sL3512578114L
I1074238956
sL1419132215L
I1074238288
sL114144873L
I1074237352
sL2469233929L
I1074240888
sL701833459L
I1074268892
sL1270034334L
I1074267728
sL3897252859L
I1074238696
sL1065525808L
I1074236856
sL2327783177L
I1074241180
sL1164839255L
I1074242216
sL2272466760L
I1074245944
sL2117292686L
I1074241600
sL2044047637L
I1074239584
sL1188065553L
I1074237848
sL94556391L
I1074245732
sL3210669721L
I1074245336
sL1332800441L
I1074237292
sL2884218272L
I1074267840
sL1168466927L
I1074268060
sL1345429244L
I1074241352
sL3190020590L
I1074242936
sL4160102055L
I1074240360
sL4202185385L
I1074247716
sL1768086576L
I1074236372
sL4171975289L
I1074248016
sL1565254297L
I1074248316
sL1205407754L
I1074240392
sL2191698036L
I1074269772
sL1513350244L
I1074239948
sL1635528231L
I1074244352
sL519424169L
I1074247468
sL1060788199L
I1074245852
sL99418163L
I1074239444
sL406720601L
I1074238780
sL737694352L
I1074247824
sL503029138L
I1074247764
sL1616763831L
I1074248404
sL2262558768L
I1074247628
sL424867129L
I1074248152
sL3834155367L
I1074241544
sL3338518926L
I1074237572
sL2123938668L
I1074246272
sL3883282432L
I1074242088
sL4173399607L
I1074243468
sL1667054119L
I1074240732
sL206902443L
I1074238120
ssb.