ccopy_reg
_reconstructor
p0
(crizzo
RizzoSignature
p1
c__builtin__
object
p2
Ntp3
Rp4
(dp5
S'formal'
p6
(dp7
L854824499L
I1074237756
sL1505425468L
I1074240984
sL3681512040L
I1074237228
sL1792245145L
I1074234944
sL1375653173L
I1074235532
sL1572783157L
I1074240108
sL2407876746L
I1074240448
sL3631572197L
I1074237804
sL1552420697L
I1074238776
sL3009610160L
I1074238812
sL2526623437L
I1074237888
sL2651840987L
I1074238964
sL2041884577L
I1074234212
sL2007392819L
I1074239352
sL2275842416L
I1074234424
sL3503707265L
I1074236756
sL2664451592L
I1074237728
sL1307578413L
I1074235296
sL3633013482L
I1074240804
sL1576883036L
I1074266164
sL3669764510L
I1074239824
sL2048800058L
I1074238740
sL2310091L
I1074239160
sL4177312342L
I1074241040
sL1872195707L
I1074236388
sL248171559L
I1074234044
sL3003809274L
I1074237188
sL917018201L
I1074241140
sL3907662105L
I1074240260
sL2099366226L
I1074241004
sL1244329374L
I1074237280
sL1833727801L
I1074236556
sL3731146641L
I1074239216
sL3548151498L
I1074238516
sL1158367346L
I1074234088
sL311919021L
I1074239016
sL4012453013L
I1074237604
sL599182155L
I1074234244
sL2063577537L
I1074237636
sL1543961913L
I1074234192
ssS'immediates'
p8
(dp9
sS'formaldups'
p10
c__builtin__
set
p11
((lp12
tp13
Rp14
sS'stringdups'
p15
g11
((lp16
tp17
Rp18
sS'fuzzydups'
p19
g11
((lp20
tp21
Rp22
sS'strings'
p23
(dp24
sS'functions'
p25
(dp26
I1074237188
(Vrtc_set_slow_freq
p27
(lp28
(L556168821L
L0L
(lp29
(lp30
tp31
atp32
sI1074234244
(Vset_cache_and_start_app
p33
(lp34
(L3738378875L
L0L
(lp35
(lp36
tp37
atp38
sI1074237636
(Vrtc_get_xtal
p39
(lp40
(L2912880718L
L0L
(lp41
(lp42
tp43
a(L3078533549L
L0L
(lp44
(lp45
tp46
a(L2213620477L
L0L
(lp47
(lp48
tp49
a(L1942138344L
L0L
(lp50
(lp51
tp52
a(L3865616799L
L0L
(lp53
(lp54
tp55
a(L1641150486L
L0L
(lp56
(lp57
tp58
a(L1299866334L
L0L
(lp59
(lp60
tp61
a(L1010441241L
L0L
(lp62
(lp63
tp64
a(L1899940123L
L0L
(lp65
(lp66
tp67
a(L3360570486L
L0L
(lp68
(lp69
tp70
atp71
sI1074240260
(Vesp_image_load_segment_header
p72
(lp73
(L1233713673L
L0L
(lp74
(lp75
tp76
a(L3020204L
L0L
(lp77
(lp78
tp79
a(L3645634973L
L3785322319L
(lp80
(lp81
Vesp_log_early_timestamp
p82
atp83
a(L504488765L
L3785322319L
(lp84
(lp85
Vbootloader_flash_read
p86
atp87
a(L293491045L
L0L
(lp88
(lp89
tp90
a(L51811527L
L0L
(lp91
(lp92
tp93
a(L3020204L
L0L
(lp94
(lp95
tp96
a(L3267201490L
L3785322319L
(lp97
(lp98
Vesp_log_early_timestamp
p99
atp100
a(L2749192197L
L0L
(lp101
(lp102
tp103
a(L3595978975L
L0L
(lp104
(lp105
tp106
a(L831807151L
L0L
(lp107
(lp108
tp109
a(L1090821439L
L0L
(lp110
(lp111
tp112
a(L97642L
L0L
(lp113
(lp114
tp115
a(L3020204L
L0L
(lp116
(lp117
tp118
a(L2902417580L
L0L
(lp119
(lp120
tp121
a(L2453671013L
L0L
(lp122
(lp123
tp124
a(L2079009947L
L0L
(lp125
(lp126
tp127
a(L735741265L
L0L
(lp128
(lp129
tp130
atp131
sI1074234944
(Vload_partition_table
p132
(lp133
(L1681678467L
L3785322319L
(lp134
(lp135
Vbootloader_mmap
p136
atp137
a(L730298120L
L3785322319L
(lp138
(lp139
Vesp_log_early_timestamp
p140
atp141
a(L3715067384L
L3785322319L
(lp142
(lp143
Vesp_partition_table_basic_verify
p144
atp145
a(L616875642L
L3785322319L
(lp146
(lp147
Vesp_log_early_timestamp
p148
atp149
a(L3963317582L
L1880226080L
(lp150
(lp151
Vesp_log_early_timestamp
p152
aVesp_log_early_timestamp
p153
atp154
a(L1941612774L
L0L
(lp155
(lp156
tp157
a(L3020187L
L0L
(lp158
(lp159
tp160
a(L106L
L0L
(lp161
(lp162
tp163
a(L3732412336L
L0L
(lp164
(lp165
tp166
a(L3020187L
L0L
(lp167
(lp168
tp169
a(L106L
L0L
(lp170
(lp171
tp172
a(L58563103L
L0L
(lp173
(lp174
tp175
a(L997254644L
L0L
(lp176
(lp177
tp178
a(L2893469516L
L0L
(lp179
(lp180
tp181
a(L495332486L
L0L
(lp182
(lp183
tp184
a(L129023391L
L0L
(lp185
(lp186
tp187
a(L2902417580L
L0L
(lp188
(lp189
tp190
a(L3020187L
L0L
(lp191
(lp192
tp193
a(L106L
L0L
(lp194
(lp195
tp196
a(L826357932L
L0L
(lp197
(lp198
tp199
a(L1164890401L
L0L
(lp200
(lp201
tp202
a(L826358769L
L0L
(lp203
(lp204
tp205
a(L826359854L
L0L
(lp206
(lp207
tp208
a(L826359017L
L0L
(lp209
(lp210
tp211
a(L2104866733L
L0L
(lp212
(lp213
tp214
a(L1854738525L
L3785322319L
(lp215
(lp216
Vesp_log_early_timestamp
p217
atp218
a(L846653465L
L0L
(lp219
(lp220
tp221
a(L106L
L0L
(lp222
(lp223
tp224
a(L1602328322L
L1880226080L
(lp225
(lp226
Vbootloader_munmap
p227
aVesp_log_early_timestamp
p228
atp229
atp230
sI1074237888
(Vrtc_set_cpu_freq
p231
(lp232
(L638479006L
L1832448559L
(lp233
(lp234
Vrtc_uart_tx_wait_idle
p235
aVrtc_get_xtal
p236
aVrtc_apb_freq_up
p237
atp238
a(L694621869L
L0L
(lp239
(lp240
tp241
a(L2954138910L
L0L
(lp242
(lp243
tp244
a(L3028464L
L0L
(lp245
(lp246
tp247
a(L4204744958L
L3785322319L
(lp248
(lp249
Vrtc_apb_freq_up
p250
atp251
a(L2954138910L
L0L
(lp252
(lp253
tp254
a(L3698152519L
L0L
(lp255
(lp256
tp257
a(L397594018L
L3785322319L
(lp258
(lp259
Vrtc_apb_freq_up
p260
atp261
a(L4251714764L
L0L
(lp262
(lp263
tp264
a(L3685568585L
L0L
(lp265
(lp266
tp267
a(L106L
L0L
(lp268
(lp269
tp270
a(L384829227L
L0L
(lp271
(lp272
tp273
a(L106L
L0L
(lp274
(lp275
tp276
a(L128899212L
L3785322319L
(lp277
(lp278
Vrtc_bbpll_md
p279
atp280
a(L3040377891L
L0L
(lp281
(lp282
tp283
a(L3028464L
L0L
(lp284
(lp285
tp286
a(L4006908967L
L0L
(lp287
(lp288
tp289
a(L3028464L
L0L
(lp290
(lp291
tp292
a(L2706970559L
L0L
(lp293
(lp294
tp295
a(L205769140L
L3785322319L
(lp296
(lp297
Vrtc_apb_freq_up
p298
atp299
a(L869485811L
L3785322319L
(lp300
(lp301
Vrtc_uart_div_modify
p302
atp303
atp304
sI1074240448
(Vesp_image_basic_verify
p305
(lp306
(L262898093L
L0L
(lp307
(lp308
tp309
a(L2731167916L
L0L
(lp310
(lp311
tp312
a(L977718578L
L3785322319L
(lp313
(lp314
Vesp_image_load_header
p315
atp316
a(L3756616349L
L0L
(lp317
(lp318
tp319
a(L62654054L
L3785322319L
(lp320
(lp321
Vesp_image_load_segment_header
p322
atp323
a(L1302636875L
L0L
(lp324
(lp325
tp326
a(L2848419816L
L3785322319L
(lp327
(lp328
Vbootloader_flash_read
p329
atp330
a(L1305407438L
L0L
(lp331
(lp332
tp333
a(L85979284L
L0L
(lp334
(lp335
tp336
a(L1892225455L
L0L
(lp337
(lp338
tp339
a(L157067659L
L0L
(lp340
(lp341
tp342
a(L2741166421L
L0L
(lp343
(lp344
tp345
a(L3324790207L
L0L
(lp346
(lp347
tp348
a(L1913924629L
L0L
(lp349
(lp350
tp351
a(L1138038341L
L0L
(lp352
(lp353
tp354
a(L2516871653L
L0L
(lp355
(lp356
tp357
a(L3781696161L
L0L
(lp358
(lp359
tp360
a(L3364873925L
L3785322319L
(lp361
(lp362
Vesp_log_early_timestamp
p363
atp364
a(L3719871133L
L0L
(lp365
(lp366
tp367
a(L1984744802L
L0L
(lp368
(lp369
tp370
a(L968790342L
L3785322319L
(lp371
(lp372
Vesp_log_early_timestamp
p373
atp374
a(L1232803238L
L3785322319L
(lp375
(lp376
Vbootloader_flash_read
p377
atp378
a(L667679841L
L0L
(lp379
(lp380
tp381
a(L161586434L
L3785322319L
(lp382
(lp383
Vesp_log_early_timestamp
p384
atp385
a(L2902417580L
L0L
(lp386
(lp387
tp388
a(L4193219630L
L0L
(lp389
(lp390
tp391
a(L735741265L
L0L
(lp392
(lp393
tp394
a(L735741265L
L0L
(lp395
(lp396
tp397
a(L735741265L
L0L
(lp398
(lp399
tp400
a(L1866768410L
L0L
(lp401
(lp402
tp403
a(L1866768410L
L0L
(lp404
(lp405
tp406
a(L1866768410L
L0L
(lp407
(lp408
tp409
a(L2993202392L
L0L
(lp410
(lp411
tp412
atp413
sI1074236556
(Vrtc_8m_ena
p414
(lp415
(L1474360438L
L0L
(lp416
(lp417
tp418
a(L2782231426L
L0L
(lp419
(lp420
tp421
a(L4021512462L
L0L
(lp422
(lp423
tp424
a(L2078460884L
L0L
(lp425
(lp426
tp427
a(L224729033L
L0L
(lp428
(lp429
tp430
atp431
sI1074235532
(Vbootloader_main
p432
(lp433
(L435127562L
L1759922895L
(lp434
(lp435
Vrtc_set_cpu_freq
p436
aVrtc_set_cpu_freq
p437
aVuart_console_configure
p438
aVesp_log_early_timestamp
p439
aVesp_log_early_timestamp
p440
aVSPIUnlock
p441
aVesp_log_early_timestamp
p442
aVbootloader_random_enable
p443
aVesp_image_load_header
p444
atp445
a(L3354165280L
L3785322319L
(lp446
(lp447
Vesp_log_early_timestamp
p448
atp449
a(L2526693380L
L1832448559L
(lp450
(lp451
Vprint_flash_info
p452
aVupdate_flash_config
p453
aVload_partition_table
p454
atp455
a(L971580132L
L3785322319L
(lp456
(lp457
Vesp_log_early_timestamp
p458
atp459
a(L3072720653L
L0L
(lp460
(lp461
tp462
a(L3269526147L
L0L
(lp463
(lp464
tp465
a(L3822878585L
L3785322319L
(lp466
(lp467
Vesp_log_early_timestamp
p468
atp469
a(L1375577398L
L3785322319L
(lp470
(lp471
Vbootloader_mmap
p472
atp473
a(L1319262076L
L3785322319L
(lp474
(lp475
Vesp_log_early_timestamp
p476
atp477
a(L1986205101L
L3785322319L
(lp478
(lp479
Vbootloader_munmap
p480
atp481
a(L106L
L0L
(lp482
(lp483
tp484
a(L3846342614L
L0L
(lp485
(lp486
tp487
a(L106L
L0L
(lp488
(lp489
tp490
a(L345288977L
L0L
(lp491
(lp492
tp493
a(L3252009970L
L0L
(lp494
(lp495
tp496
a(L211381574L
L1880226080L
(lp497
(lp498
Vota_select_crc
p499
aVota_select_crc
p500
atp501
a(L3365481407L
L3785322319L
(lp502
(lp503
Vesp_log_early_timestamp
p504
atp505
a(L1481394459L
L0L
(lp506
(lp507
tp508
a(L3365481407L
L3785322319L
(lp509
(lp510
Vesp_log_early_timestamp
p511
atp512
a(L626214341L
L0L
(lp513
(lp514
tp515
a(L3554017886L
L3785322319L
(lp516
(lp517
Vota_select_valid
p518
atp519
a(L778176156L
L3785322319L
(lp520
(lp521
Vota_select_valid
p522
atp523
a(L3624201261L
L0L
(lp524
(lp525
tp526
a(L3554017886L
L3785322319L
(lp527
(lp528
Vota_select_valid
p529
atp530
a(L3760229550L
L0L
(lp531
(lp532
tp533
a(L3772872604L
L3785322319L
(lp534
(lp535
Vota_select_valid
p536
atp537
a(L1192407216L
L0L
(lp538
(lp539
tp540
a(L2407496913L
L0L
(lp541
(lp542
tp543
a(L505885312L
L3785322319L
(lp544
(lp545
Vesp_log_early_timestamp
p546
atp547
a(L320360391L
L3785322319L
(lp548
(lp549
Vesp_log_early_timestamp
p550
atp551
a(L345288977L
L0L
(lp552
(lp553
tp554
a(L3252009970L
L0L
(lp555
(lp556
tp557
a(L3150351129L
L0L
(lp558
(lp559
tp560
a(L965591075L
L0L
(lp561
(lp562
tp563
a(L58962290L
L3785322319L
(lp564
(lp565
Vesp_log_early_timestamp
p566
atp567
a(L598509316L
L2485746240L
(lp568
(lp569
Vesp_log_early_timestamp
p570
aVbootloader_random_disable
p571
aVesp_log_early_timestamp
p572
aVunpack_load_app
p573
atp574
atp575
sI1074236756
(Vrtc_plla_ena
p576
(lp577
(L1781080538L
L0L
(lp578
(lp579
tp580
a(L3236878086L
L0L
(lp581
(lp582
tp583
a(L987309601L
L0L
(lp584
(lp585
tp586
a(L1283530419L
L0L
(lp587
(lp588
tp589
a(L3020204L
L0L
(lp590
(lp591
tp592
a(L2532316427L
L0L
(lp593
(lp594
tp595
a(L2791887720L
L0L
(lp596
(lp597
tp598
a(L2076521629L
L0L
(lp599
(lp600
tp601
a(L591955399L
L0L
(lp602
(lp603
tp604
a(L3125251205L
L0L
(lp605
(lp606
tp607
a(L3360570486L
L0L
(lp608
(lp609
tp610
atp611
sI1074238740
(Vrtc_init_clk_lite
p612
(lp613
(L848632168L
L1832448559L
(lp614
(lp615
Vrtc_init_clk
p616
aVrtc_get_xtal
p617
aVrtc_printf
p618
atp619
atp620
sI1074234192
(Vota_select_crc
p621
(lp622
(L4200815711L
L0L
(lp623
(lp624
tp625
atp626
sI1074239824
(Vbootloader_random_disable
p627
(lp628
(L4008821188L
L0L
(lp629
(lp630
tp631
atp632
sI1074241040
(VSPIUnlock
p633
(lp634
(L535982159L
L3785322319L
(lp635
(lp636
VWait_SPI_Idle
p637
atp638
a(L2353965908L
L3785322319L
(lp639
(lp640
VWait_SPI_Idle
p641
atp642
a(L715011325L
L0L
(lp643
(lp644
tp645
a(L660256135L
L3785322319L
(lp646
(lp647
VWait_SPI_Idle
p648
atp649
a(L3880706073L
L0L
(lp650
(lp651
tp652
a(L2258688483L
L0L
(lp653
(lp654
tp655
a(L3360570486L
L0L
(lp656
(lp657
tp658
atp659
sI1074238812
(Vbootloader_flash_read_allow_decrypt
p660
(lp661
(L3381655731L
L0L
(lp662
(lp663
tp664
a(L155828350L
L0L
(lp665
(lp666
tp667
a(L12896475L
L0L
(lp668
(lp669
tp670
a(L2428661871L
L3785322319L
(lp671
(lp672
Vesp_log_early_timestamp
p673
atp674
a(L3735031223L
L0L
(lp675
(lp676
tp677
a(L4275293834L
L0L
(lp678
(lp679
tp680
a(L3423665670L
L0L
(lp681
(lp682
tp683
a(L106L
L0L
(lp684
(lp685
tp686
a(L2993202392L
L0L
(lp687
(lp688
tp689
atp690
sI1074240984
(Vesp_log_early_timestamp
p691
(lp692
(L143071996L
L0L
(lp693
(lp694
tp695
atp696
sI1074237604
(Vrtc_init_xtal_freq
p697
(lp698
(L536852365L
L0L
(lp699
(lp700
tp701
atp702
sI1074236388
(Vrtc_xtal_32k_ena
p703
(lp704
(L753387299L
L0L
(lp705
(lp706
tp707
a(L2489033698L
L0L
(lp708
(lp709
tp710
a(L515115323L
L0L
(lp711
(lp712
tp713
atp714
sI1074234212
(Vota_select_valid
p715
(lp716
(L2808438197L
L0L
(lp717
(lp718
tp719
a(L3881267543L
L3785322319L
(lp720
(lp721
Vota_select_crc
p722
atp723
a(L3880706073L
L0L
(lp724
(lp725
tp726
a(L2993202392L
L0L
(lp727
(lp728
tp729
a(L2993202392L
L0L
(lp730
(lp731
tp732
atp733
sI1074240804
(Vesp_partition_table_basic_verify
p734
(lp735
(L1815154461L
L0L
(lp736
(lp737
tp738
a(L3156402467L
L0L
(lp739
(lp740
tp741
a(L1143016815L
L0L
(lp742
(lp743
tp744
a(L1891106236L
L0L
(lp745
(lp746
tp747
a(L3020204L
L0L
(lp748
(lp749
tp750
a(L2913302042L
L3785322319L
(lp751
(lp752
Vesp_log_early_timestamp
p753
atp754
a(L2348116621L
L0L
(lp755
(lp756
tp757
a(L2712683701L
L0L
(lp758
(lp759
tp760
a(L3020204L
L0L
(lp761
(lp762
tp763
a(L1337002836L
L3785322319L
(lp764
(lp765
Vesp_log_early_timestamp
p766
atp767
a(L3393260311L
L0L
(lp768
(lp769
tp770
a(L474845143L
L0L
(lp771
(lp772
tp773
a(L3020204L
L0L
(lp774
(lp775
tp776
a(L3639428806L
L3785322319L
(lp777
(lp778
Vesp_log_early_timestamp
p779
atp780
a(L2966513628L
L0L
(lp781
(lp782
tp783
a(L3854017309L
L0L
(lp784
(lp785
tp786
a(L2966513628L
L0L
(lp787
(lp788
tp789
atp790
sI1074237728
(Vrtc_apb_freq_up
p791
(lp792
(L2625974810L
L0L
(lp793
(lp794
tp795
atp796
sI1074237280
(Vrtc_bbpll_md
p797
(lp798
(L4037458691L
L0L
(lp799
(lp800
tp801
a(L2635723215L
L0L
(lp802
(lp803
tp804
a(L2635425305L
L0L
(lp805
(lp806
tp807
a(L2634502051L
L0L
(lp808
(lp809
tp810
a(L106L
L0L
(lp811
(lp812
tp813
a(L86326176L
L0L
(lp814
(lp815
tp816
a(L3472941716L
L0L
(lp817
(lp818
tp819
a(L827715632L
L0L
(lp820
(lp821
tp822
a(L3852808343L
L0L
(lp823
(lp824
tp825
a(L2299628544L
L0L
(lp826
(lp827
tp828
a(L149239815L
L0L
(lp829
(lp830
tp831
a(L2635425305L
L0L
(lp832
(lp833
tp834
a(L2634502051L
L0L
(lp835
(lp836
tp837
a(L106L
L0L
(lp838
(lp839
tp840
a(L2802004660L
L0L
(lp841
(lp842
tp843
a(L4242684736L
L0L
(lp844
(lp845
tp846
a(L827715632L
L0L
(lp847
(lp848
tp849
a(L3877638763L
L0L
(lp850
(lp851
tp852
a(L1335005272L
L0L
(lp853
(lp854
tp855
a(L3013563950L
L0L
(lp856
(lp857
tp858
atp859
sI1074235296
(Vprint_flash_info
p860
(lp861
(L1442727247L
L0L
(lp862
(lp863
tp864
a(L2902417580L
L0L
(lp865
(lp866
tp867
a(L3020187L
L0L
(lp868
(lp869
tp870
a(L225150647L
L0L
(lp871
(lp872
tp873
a(L106L
L0L
(lp874
(lp875
tp876
a(L439115076L
L0L
(lp877
(lp878
tp879
a(L439114456L
L0L
(lp880
(lp881
tp882
a(L439114580L
L0L
(lp883
(lp884
tp885
a(L439114456L
L0L
(lp886
(lp887
tp888
a(L3200753595L
L0L
(lp889
(lp890
tp891
a(L634492226L
L3785322319L
(lp892
(lp893
Vesp_log_early_timestamp
p894
atp895
a(L3359813459L
L0L
(lp896
(lp897
tp898
a(L439092353L
L0L
(lp899
(lp900
tp901
a(L1723994957L
L3785322319L
(lp902
(lp903
Vesp_log_early_timestamp
p904
atp905
a(L93674324L
L0L
(lp906
(lp907
tp908
a(L2902417580L
L0L
(lp909
(lp910
tp911
a(L106L
L0L
(lp912
(lp913
tp914
a(L3020187L
L0L
(lp915
(lp916
tp917
a(L3020187L
L0L
(lp918
(lp919
tp920
a(L106L
L0L
(lp921
(lp922
tp923
a(L310010719L
L0L
(lp924
(lp925
tp926
a(L310010843L
L0L
(lp927
(lp928
tp929
a(L310011556L
L0L
(lp930
(lp931
tp932
a(L310012176L
L0L
(lp933
(lp934
tp935
a(L702736999L
L0L
(lp936
(lp937
tp938
a(L953703234L
L3785322319L
(lp939
(lp940
Vesp_log_early_timestamp
p941
atp942
atp943
sI1074237228
(Vrtc_set_fast_freq
p944
(lp945
(L1896727918L
L0L
(lp946
(lp947
tp948
atp949
sI1074237804
(Vrtc_uart_tx_wait_idle
p950
(lp951
(L1775725377L
L0L
(lp952
(lp953
tp954
a(L480807876L
L0L
(lp955
(lp956
tp957
a(L3360570486L
L0L
(lp958
(lp959
tp960
atp961
sI1074240108
(Vesp_image_load_header
p962
(lp963
(L517160680L
L3785322319L
(lp964
(lp965
Vbootloader_flash_read
p966
atp967
a(L3193256233L
L0L
(lp968
(lp969
tp970
a(L2902417580L
L0L
(lp971
(lp972
tp973
a(L3639336852L
L3785322319L
(lp974
(lp975
Vesp_log_early_timestamp
p976
atp977
a(L702738084L
L0L
(lp978
(lp979
tp980
a(L3020204L
L0L
(lp981
(lp982
tp983
a(L3259740185L
L0L
(lp984
(lp985
tp986
a(L1989588862L
L3785322319L
(lp987
(lp988
Vesp_log_early_timestamp
p989
atp990
a(L343738621L
L0L
(lp991
(lp992
tp993
a(L465371133L
L3785322319L
(lp994
(lp995
Vesp_log_early_timestamp
p996
atp997
a(L2902417580L
L0L
(lp998
(lp999
tp1000
a(L264548548L
L0L
(lp1001
(lp1002
tp1003
a(L3360570486L
L0L
(lp1004
(lp1005
tp1006
atp1007
sI1074241004
(VWait_SPI_Idle
p1008
(lp1009
(L3493042536L
L0L
(lp1010
(lp1011
tp1012
a(L2164635803L
L0L
(lp1013
(lp1014
tp1015
a(L3459661638L
L0L
(lp1016
(lp1017
tp1018
a(L3360570486L
L0L
(lp1019
(lp1020
tp1021
atp1022
sI1074234088
(Vupdate_flash_config
p1023
(lp1024
(L3369127620L
L0L
(lp1025
(lp1026
tp1027
a(L93674324L
L0L
(lp1028
(lp1029
tp1030
a(L2902417580L
L0L
(lp1031
(lp1032
tp1033
a(L106L
L0L
(lp1034
(lp1035
tp1036
a(L3020187L
L0L
(lp1037
(lp1038
tp1039
a(L3020187L
L0L
(lp1040
(lp1041
tp1042
a(L106L
L0L
(lp1043
(lp1044
tp1045
a(L1299866343L
L0L
(lp1046
(lp1047
tp1048
a(L1299866436L
L0L
(lp1049
(lp1050
tp1051
a(L1299866560L
L0L
(lp1052
(lp1053
tp1054
a(L1641149277L
L0L
(lp1055
(lp1056
tp1057
a(L2258688484L
L0L
(lp1058
(lp1059
tp1060
a(L3172081308L
L0L
(lp1061
(lp1062
tp1063
atp1064
sI1074239016
(Vbootloader_mmap
p1065
(lp1066
(L2940957517L
L0L
(lp1067
(lp1068
tp1069
a(L2221939001L
L3785322319L
(lp1070
(lp1071
Vesp_log_early_timestamp
p1072
atp1073
a(L1447536886L
L0L
(lp1074
(lp1075
tp1076
a(L1250990667L
L3785322319L
(lp1077
(lp1078
Vesp_log_early_timestamp
p1079
atp1080
a(L1818431842L
L0L
(lp1081
(lp1082
tp1083
atp1084
sI1074238516
(Vrtc_init_clk
p1085
(lp1086
(L1642351636L
L0L
(lp1087
(lp1088
tp1089
a(L1333872925L
L3785322319L
(lp1090
(lp1091
Vrtc_init_xtal_freq
p1092
atp1093
a(L4071368012L
L1157885199L
(lp1094
(lp1095
Vrtc_set_cpu_freq
p1096
aVrtc_xtal_32k_ena
p1097
aVrtc_8m_ena
p1098
aVrtc_set_fast_freq
p1099
aVrtc_set_slow_freq
p1100
atp1101
a(L1096484737L
L3785322319L
(lp1102
(lp1103
Vrtc_8m_ena
p1104
atp1105
a(L854467494L
L0L
(lp1106
(lp1107
tp1108
a(L1326410814L
L3785322319L
(lp1109
(lp1110
Vrtc_8m_ena
p1111
atp1112
a(L3020187L
L0L
(lp1113
(lp1114
tp1115
a(L4140200509L
L3785322319L
(lp1116
(lp1117
Vrtc_xtal_32k_ena
p1118
atp1119
a(L3360570486L
L0L
(lp1120
(lp1121
tp1122
atp1123
sI1074238964
(Vbootloader_flash_read_no_decrypt
p1124
(lp1125
(L1895239440L
L3785322319L
(lp1126
(lp1127
Vspi_to_esp_err
p1128
atp1129
atp1130
sI1074241140
(Vrtc_printf
p1131
(lp1132
(L4194175088L
L0L
(lp1133
(lp1134
tp1135
atp1136
sI1074239216
(Vbootloader_flash_read
p1137
(lp1138
(L1127605422L
L0L
(lp1139
(lp1140
tp1141
a(L4084717382L
L3785322319L
(lp1142
(lp1143
Vesp_log_early_timestamp
p1144
atp1145
a(L899934477L
L0L
(lp1146
(lp1147
tp1148
a(L576572719L
L3785322319L
(lp1149
(lp1150
Vesp_log_early_timestamp
p1151
atp1152
a(L2696885836L
L0L
(lp1153
(lp1154
tp1155
a(L3722121916L
L3785322319L
(lp1156
(lp1157
Vesp_log_early_timestamp
p1158
atp1159
a(L3020204L
L0L
(lp1160
(lp1161
tp1162
a(L3807724270L
L3785322319L
(lp1163
(lp1164
Vbootloader_flash_read_allow_decrypt
p1165
atp1166
a(L1959236078L
L3785322319L
(lp1167
(lp1168
Vbootloader_flash_read_no_decrypt
p1169
atp1170
atp1171
sI1074234044
(Vuart_console_configure
p1172
(lp1173
(L3164652281L
L0L
(lp1174
(lp1175
tp1176
a(L999678824L
L0L
(lp1177
(lp1178
tp1179
a(L2887816810L
L0L
(lp1180
(lp1181
tp1182
atp1183
sI1074237756
(Vrtc_uart_div_modify
p1184
(lp1185
(L192455629L
L0L
(lp1186
(lp1187
tp1188
atp1189
sI1074266164
(Vcall_start_cpu0
p1190
(lp1191
(L3153983164L
L0L
(lp1192
(lp1193
tp1194
a(L1427973090L
L0L
(lp1195
(lp1196
tp1197
a(L93837694L
L0L
(lp1198
(lp1199
tp1200
a(L1494814933L
L3785322319L
(lp1201
(lp1202
Vbootloader_main
p1203
atp1204
atp1205
sI1074234424
(Vunpack_load_app
p1206
(lp1207
(L164336536L
L3785322319L
(lp1208
(lp1209
Vesp_image_basic_verify
p1210
atp1211
a(L2358501075L
L3785322319L
(lp1212
(lp1213
Vesp_log_early_timestamp
p1214
atp1215
a(L542306499L
L3785322319L
(lp1216
(lp1217
Vesp_image_load_header
p1218
atp1219
a(L4081471456L
L3785322319L
(lp1220
(lp1221
Vesp_log_early_timestamp
p1222
atp1223
a(L84283417L
L0L
(lp1224
(lp1225
tp1226
a(L2236636838L
L3785322319L
(lp1227
(lp1228
Vesp_image_load_segment_header
p1229
atp1230
a(L2232054589L
L3785322319L
(lp1231
(lp1232
Vesp_log_early_timestamp
p1233
atp1234
a(L897885706L
L0L
(lp1235
(lp1236
tp1237
a(L1301713385L
L0L
(lp1238
(lp1239
tp1240
a(L2258748064L
L0L
(lp1241
(lp1242
tp1243
a(L3028464L
L0L
(lp1244
(lp1245
tp1246
a(L2258748064L
L0L
(lp1247
(lp1248
tp1249
a(L3468199765L
L0L
(lp1250
(lp1251
tp1252
a(L3904853800L
L0L
(lp1253
(lp1254
tp1255
a(L2258837437L
L0L
(lp1256
(lp1257
tp1258
a(L1304162431L
L0L
(lp1259
(lp1260
tp1261
a(L1316458529L
L0L
(lp1262
(lp1263
tp1264
a(L1241244149L
L0L
(lp1265
(lp1266
tp1267
a(L1298875773L
L0L
(lp1268
(lp1269
tp1270
a(L93892250L
L0L
(lp1271
(lp1272
tp1273
a(L3757307028L
L0L
(lp1274
(lp1275
tp1276
a(L2258748064L
L0L
(lp1277
(lp1278
tp1279
a(L1354827458L
L0L
(lp1280
(lp1281
tp1282
a(L1298875773L
L0L
(lp1283
(lp1284
tp1285
a(L93892250L
L0L
(lp1286
(lp1287
tp1288
a(L2621646865L
L0L
(lp1289
(lp1290
tp1291
a(L2258748064L
L0L
(lp1292
(lp1293
tp1294
a(L2947177451L
L3785322319L
(lp1295
(lp1296
Vesp_log_early_timestamp
p1297
atp1298
a(L2902417580L
L0L
(lp1299
(lp1300
tp1301
a(L955398243L
L0L
(lp1302
(lp1303
tp1304
a(L955397530L
L0L
(lp1305
(lp1306
tp1307
a(L307913979L
L0L
(lp1308
(lp1309
tp1310
a(L3920410400L
L0L
(lp1311
(lp1312
tp1313
a(L1611379876L
L0L
(lp1314
(lp1315
tp1316
a(L624554502L
L0L
(lp1317
(lp1318
tp1319
a(L834909860L
L3785322319L
(lp1320
(lp1321
Vesp_log_early_timestamp
p1322
atp1323
a(L2725613114L
L0L
(lp1324
(lp1325
tp1326
a(L1287466202L
L3785322319L
(lp1327
(lp1328
Vesp_log_early_timestamp
p1329
atp1330
a(L2725350545L
L3785322319L
(lp1331
(lp1332
Vbootloader_mmap
p1333
atp1334
a(L3620666844L
L3785322319L
(lp1335
(lp1336
Vesp_log_early_timestamp
p1337
atp1338
a(L384448176L
L3785322319L
(lp1339
(lp1340
Vbootloader_munmap
p1341
atp1342
a(L1799288861L
L0L
(lp1343
(lp1344
tp1345
a(L1328087029L
L0L
(lp1346
(lp1347
tp1348
a(L106L
L0L
(lp1349
(lp1350
tp1351
a(L1452864275L
L3785322319L
(lp1352
(lp1353
Vset_cache_and_start_app
p1354
atp1355
atp1356
sI1074238776
(Vspi_to_esp_err
p1357
(lp1358
(L4037458691L
L0L
(lp1359
(lp1360
tp1361
a(L2902417580L
L0L
(lp1362
(lp1363
tp1364
a(L3020187L
L0L
(lp1365
(lp1366
tp1367
a(L106L
L0L
(lp1368
(lp1369
tp1370
a(L2993202392L
L0L
(lp1371
(lp1372
tp1373
a(L3117781438L
L0L
(lp1374
(lp1375
tp1376
a(L515633988L
L0L
(lp1377
(lp1378
tp1379
a(L3862734010L
L0L
(lp1380
(lp1381
tp1382
atp1383
sI1074239160
(Vbootloader_munmap
p1384
(lp1385
(L3791659265L
L0L
(lp1386
(lp1387
tp1388
a(L4175259269L
L0L
(lp1389
(lp1390
tp1391
a(L3360570486L
L0L
(lp1392
(lp1393
tp1394
atp1395
sI1074239352
(Vbootloader_random_enable
p1396
(lp1397
(L3161815644L
L0L
(lp1398
(lp1399
tp1400
atp1401
ssS'functionsdups'
p1402
g11
((lp1403
tp1404
Rp1405
sS'immediatedups'
p1406
g11
((lp1407
tp1408
Rp1409
sS'functiondups'
p1410
g11
((lp1411
tp1412
Rp1413
sS'fuzzy'
p1414
(dp1415
L1238425040L
I1074239016
sL3121027072L
I1074238776
sL746513591L
I1074234212
sL2350954153L
I1074238964
sL45806640L
I1074236556
sL381930313L
I1074241040
sL2221372535L
I1074234424
sL2403393360L
I1074238516
sL2229995131L
I1074240448
sL3558256455L
I1074240260
sL1272281159L
I1074235296
sL1768086576L
I1074234088
sL1907169470L
I1074240108
sL1477632L
I1074241004
sL2173442391L
I1074240804
sL1327282560L
I1074235532
sL1419845120L
I1074237636
sL4239138116L
I1074237888
sL2475522855L
I1074238740
sL1862362671L
I1074234944
sL1065525808L
I1074236756
sL2723847017L
I1074239216
sL3774135296L
I1074237280
sL59547383L
I1074238812
sL2699195609L
I1074266164
ssb.