ccopy_reg
_reconstructor
p0
(crizzo
RizzoSignature
p1
c__builtin__
object
p2
Ntp3
Rp4
(dp5
S'formal'
p6
(dp7
L2606191187L
I1074246000
sL2808813164L
I1074240884
sL1207862518L
I1074240592
sL3285171398L
I1074243488
sL2972557863L
I1074270084
sL1741170115L
I1074237960
sL3817488769L
I1074247192
sL3505757179L
I1074236740
sL3196142229L
I1074237704
sL76329880L
I1074245816
sL3873375177L
I1074269908
sL1237733855L
I1074238856
sL1674242515L
I1074248084
sL1602897552L
I1074239788
sL4213015302L
I1074243204
sL3597077880L
I1074236536
sL2483835949L
I1074235920
sL3230852531L
I1074238228
sL3045680040L
I1074245056
sL2431287502L
I1074237036
sL3982985539L
I1074269712
sL1387443604L
I1074243220
sL693028457L
I1074240424
sL2479159267L
I1074246684
sL3326929765L
I1074240088
sL54072848L
I1074245888
sL711787332L
I1074269780
sL928253055L
I1074268852
sL2702580795L
I1074237336
sL412821684L
I1074236780
sL2666198494L
I1074245116
sL2896295319L
I1074236876
sL1039406786L
I1074270260
sL4248316673L
I1074269936
sL1674148343L
I1074245584
sL3929482102L
I1074245544
sL2485902447L
I1074236716
sL3944712277L
I1074240444
sL2972806524L
I1074235656
sL1859518617L
I1074241856
sL372308320L
I1074245528
sL235029585L
I1074239304
sL4257908639L
I1074244100
sL1585823442L
I1074244516
sL1622896354L
I1074244544
sL2546030491L
I1074245244
sL3723052726L
I1074241296
sL873235283L
I1074245676
sL3126675517L
I1074247920
sL1509716893L
I1074236848
sL2189223198L
I1074240352
sL3977154411L
I1074270704
sL288400730L
I1074244836
sL2130211989L
I1074267724
sL885876642L
I1074236636
sL2903897210L
I1074241768
sL2878670564L
I1074248172
sL1078305844L
I1074268044
sL4260505216L
I1074247784
sL396192741L
I1074238148
sL3562592288L
I1074270036
sL1056742531L
I1074236388
sL530851108L
I1074244664
sL768348750L
I1074238804
sL426984944L
I1074236948
sL676927194L
I1074268844
sL2945163535L
I1074240112
sL3307282855L
I1074238120
sL749418531L
I1074244448
sL3432634640L
I1074242724
sL911764690L
I1074237652
sL1730519976L
I1074247592
sL1050504461L
I1074234712
sL3494179029L
I1074245860
sL493357820L
I1074245292
sL2543988023L
I1074240828
sL1753891612L
I1074247392
sL4129683902L
I1074270856
sL4038945309L
I1074235608
sL4176386638L
I1074241052
sL3676018875L
I1074244996
sL1830628543L
I1074244616
sL773546680L
I1074238908
sL3508768135L
I1074269340
sL518463041L
I1074235808
sL2626436395L
I1074236980
sL2737209228L
I1074234756
sL47493759L
I1074267820
sL547013175L
I1074237444
sL180164621L
I1074235268
sL2997001746L
I1074237268
sL2576935212L
I1074245408
sL903496812L
I1074246728
sL647977256L
I1074245436
sL2252333703L
I1074247536
sL2819127986L
I1074237000
sL359006682L
I1074270000
sL1877634603L
I1074270928
sL3518743416L
I1074238556
sL3310923163L
I1074238756
sL3730494878L
I1074239424
sL3255476431L
I1074241984
sL3935499093L
I1074269356
sL4163372517L
I1074236552
sL1342995393L
I1074269644
sL2805324261L
I1074245268
sL2785860572L
I1074238640
sL111045711L
I1074268556
sL1882398944L
I1074244700
sL1736345773L
I1074247224
sL404293581L
I1074237412
sL1487010937L
I1074245464
sL2263182908L
I1074238140
sL700866072L
I1074237980
sL3630163135L
I1074236864
sL188664287L
I1074235236
sL782838600L
I1074240788
sL4225037361L
I1074269668
sL692536993L
I1074237308
sL3075360168L
I1074241240
sL144857933L
I1074240804
sL3570521636L
I1074244416
sL1656095811L
I1074268612
sL4173412669L
I1074235556
sL3224825289L
I1074247488
ssS'immediates'
p8
(dp9
sS'formaldups'
p10
c__builtin__
set
p11
((lp12
tp13
Rp14
sS'stringdups'
p15
g11
((lp16
tp17
Rp18
sS'fuzzydups'
p19
g11
((lp20
tp21
Rp22
sS'strings'
p23
(dp24
sS'functions'
p25
(dp26
I1074244100
(Vwdt_hal_config_stage
p27
(lp28
(L331558507L
L0L
(lp29
(lp30
tp31
a(L4279082939L
L0L
(lp32
(lp33
tp34
a(L93674324L
L0L
(lp35
(lp36
tp37
a(L2902417580L
L0L
(lp38
(lp39
tp40
a(L980402310L
L0L
(lp41
(lp42
tp43
a(L3020187L
L0L
(lp44
(lp45
tp46
a(L94425498L
L3785322319L
(lp47
(lp48
Vabort
p49
atp50
a(L3649029602L
L0L
(lp51
(lp52
tp53
a(L3360570486L
L0L
(lp54
(lp55
tp56
a(L1041004739L
L0L
(lp57
(lp58
tp59
a(L1101608377L
L0L
(lp60
(lp61
tp62
a(L4278159418L
L0L
(lp63
(lp64
tp65
a(L93674324L
L0L
(lp66
(lp67
tp68
a(L3020204L
L0L
(lp69
(lp70
tp71
a(L1722164170L
L0L
(lp72
(lp73
tp74
a(L3020187L
L0L
(lp75
(lp76
tp77
a(L106L
L0L
(lp78
(lp79
tp80
a(L4029484007L
L0L
(lp81
(lp82
tp83
a(L528371148L
L0L
(lp84
(lp85
tp86
a(L2121897800L
L0L
(lp87
(lp88
tp89
atp90
sI1074237444
(Vbootloader_mmap
p91
(lp92
(L3624397292L
L0L
(lp93
(lp94
tp95
a(L2788000646L
L3785322319L
(lp96
(lp97
Vesp_log_early_timestamp
p98
atp99
a(L2867263840L
L0L
(lp100
(lp101
tp102
a(L3729184599L
L0L
(lp103
(lp104
tp105
a(L4116781276L
L3785322319L
(lp106
(lp107
Vesp_log_early_timestamp
p108
atp109
a(L2258688482L
L0L
(lp110
(lp111
tp112
a(L3360570486L
L0L
(lp113
(lp114
tp115
a(L702749218L
L0L
(lp116
(lp117
tp118
a(L1580888500L
L0L
(lp119
(lp120
tp121
a(L3746164654L
L3785322319L
(lp122
(lp123
Vesp_log_early_timestamp
p124
atp125
a(L528675173L
L3785322319L
(lp126
(lp127
Vesp_log_early_timestamp
p128
atp129
a(L113283320L
L0L
(lp130
(lp131
tp132
atp133
sI1074245888
(Vrtc_clk_cpu_freq_to_xtal
p134
(lp135
(L767415990L
L3785322319L
(lp136
(lp137
Vesp_rom_set_cpu_ticks_per_us
p138
atp139
a(L94425498L
L3785322319L
(lp140
(lp141
Vabort
p142
atp143
a(L3663383984L
L3785322319L
(lp144
(lp145
Vrtc_clk_apb_freq_update
p146
atp147
a(L2258867230L
L0L
(lp148
(lp149
tp150
a(L2113643508L
L0L
(lp151
(lp152
tp153
atp154
sI1074267136
(V_init
p155
(lp156
(L3493042598L
L0L
(lp157
(lp158
tp159
atp160
sI1074237704
(Vbootloader_flash_read
p161
(lp162
(L3022618172L
L0L
(lp163
(lp164
tp165
a(L172086619L
L3785322319L
(lp166
(lp167
Vesp_log_early_timestamp
p168
atp169
a(L2780906736L
L0L
(lp170
(lp171
tp172
a(L1351513776L
L0L
(lp173
(lp174
tp175
a(L1486740491L
L0L
(lp176
(lp177
tp178
a(L1179571938L
L3785322319L
(lp179
(lp180
Vesp_log_early_timestamp
p181
atp182
a(L3283691850L
L0L
(lp183
(lp184
tp185
a(L814874711L
L3785322319L
(lp186
(lp187
Vesp_log_early_timestamp
p188
atp189
a(L3020204L
L0L
(lp190
(lp191
tp192
a(L384130671L
L0L
(lp193
(lp194
tp195
a(L97422L
L0L
(lp196
(lp197
tp198
a(L1190291857L
L0L
(lp199
(lp200
tp201
a(L2961856275L
L0L
(lp202
(lp203
tp204
a(L2830805255L
L3785322319L
(lp205
(lp206
V__assert_func
p207
atp208
a(L1539897528L
L0L
(lp209
(lp210
tp211
a(L1310932259L
L0L
(lp212
(lp213
tp214
a(L1672348752L
L1880226080L
(lp215
(lp216
Vesp_rom_spiflash_read
p217
aVspi_to_esp_err
p218
atp219
atp220
sI1074237960
(Vbootloader_flash_erase_sector
p221
(lp222
(L4129137686L
L1880226080L
(lp223
(lp224
Vesp_rom_spiflash_erase_sector
p225
aVspi_to_esp_err
p226
atp227
atp228
sI1074235656
(Vbootloader_flash_xmc_startup
p229
(lp230
(L2007527597L
L3785322319L
(lp231
(lp232
Vis_xmc_chip_strict
p233
atp234
a(L2258688482L
L0L
(lp235
(lp236
tp237
a(L3360570486L
L0L
(lp238
(lp239
tp240
a(L2860324232L
L3785322319L
(lp241
(lp242
Vbootloader_flash_read_sfdp
p243
atp244
a(L335762040L
L2567856111L
(lp245
(lp246
Vesp_log_early_timestamp
p247
aVbootloader_execute_flash_command
p248
aVbootloader_execute_flash_command
p249
aVbootloader_execute_flash_command
p250
aVbootloader_execute_flash_command
p251
aVbootloader_read_flash_id
p252
aVis_xmc_chip_strict
p253
atp254
a(L664983568L
L3785322319L
(lp255
(lp256
Vesp_log_early_timestamp
p257
atp258
atp259
sI1074244616
(Vmmu_hal_unmap_all
p260
(lp261
(L2696866292L
L0L
(lp262
(lp263
tp264
a(L2010554219L
L0L
(lp265
(lp266
tp267
a(L3268103L
L0L
(lp268
(lp269
tp270
a(L3212334523L
L0L
(lp271
(lp272
tp273
a(L2010554219L
L0L
(lp274
(lp275
tp276
a(L3360570486L
L0L
(lp277
(lp278
tp279
atp280
sI1074240788
(Vbootloader_console_deinit
p281
(lp282
(L4005071210L
L0L
(lp283
(lp284
tp285
atp286
sI1074236948
(Vesp_log_early_timestamp
p287
(lp288
(L3733265409L
L0L
(lp289
(lp290
tp291
atp292
sI1074238228
(Vbootloader_random_disable
p293
(lp294
(L2825582328L
L0L
(lp295
(lp296
tp297
atp298
sI1074235920
(Vbootloader_flash_gpio_config
p299
(lp300
(L3362256192L
L3785322319L
(lp301
(lp302
Vbootloader_common_get_chip_ver_pkg
p303
atp304
a(L106L
L0L
(lp305
(lp306
tp307
a(L1998579353L
L0L
(lp308
(lp309
tp310
a(L106L
L0L
(lp311
(lp312
tp313
a(L1029428446L
L0L
(lp314
(lp315
tp316
a(L4242290324L
L0L
(lp317
(lp318
tp319
a(L106L
L0L
(lp320
(lp321
tp322
a(L4003626558L
L0L
(lp323
(lp324
tp325
a(L1553523094L
L0L
(lp326
(lp327
tp328
a(L3360570486L
L0L
(lp329
(lp330
tp331
atp332
sI1074241296
(Vverify_load_addresses
p333
(lp334
(L2764487219L
L0L
(lp335
(lp336
tp337
a(L106L
L0L
(lp338
(lp339
tp340
a(L97642L
L0L
(lp341
(lp342
tp343
a(L1494945664L
L3785322319L
(lp344
(lp345
V__assert_func
p346
atp347
a(L791907602L
L0L
(lp348
(lp349
tp350
a(L106L
L0L
(lp351
(lp352
tp353
a(L1722779441L
L0L
(lp354
(lp355
tp356
a(L106L
L0L
(lp357
(lp358
tp359
a(L4043008515L
L3785322319L
(lp360
(lp361
Vbootloader_util_regions_overlap
p362
atp363
a(L631732150L
L3785322319L
(lp364
(lp365
Vbootloader_util_regions_overlap
p366
atp367
a(L3028481L
L0L
(lp368
(lp369
tp370
a(L3615101466L
L3785322319L
(lp371
(lp372
Vbootloader_util_regions_overlap
p373
atp374
a(L1726430751L
L0L
(lp375
(lp376
tp377
a(L1086512205L
L0L
(lp378
(lp379
tp380
a(L1032381749L
L0L
(lp381
(lp382
tp383
a(L2837304413L
L0L
(lp384
(lp385
tp386
a(L677569396L
L3785322319L
(lp387
(lp388
Vverify_load_addresses
p389
atp390
a(L1351513776L
L0L
(lp391
(lp392
tp393
a(L956755582L
L0L
(lp394
(lp395
tp396
a(L2358736322L
L0L
(lp397
(lp398
tp399
a(L29144270L
L0L
(lp400
(lp401
tp402
a(L106L
L0L
(lp403
(lp404
tp405
a(L759382056L
L0L
(lp406
(lp407
tp408
a(L106L
L0L
(lp409
(lp410
tp411
a(L1713182710L
L3785322319L
(lp412
(lp413
Vbootloader_util_regions_overlap
p414
atp415
a(L3028481L
L0L
(lp416
(lp417
tp418
a(L2080057853L
L3785322319L
(lp419
(lp420
Vbootloader_util_regions_overlap
p421
atp422
a(L684954403L
L0L
(lp423
(lp424
tp425
a(L2861826135L
L0L
(lp426
(lp427
tp428
a(L160035736L
L0L
(lp429
(lp430
tp431
a(L2743341656L
L0L
(lp432
(lp433
tp434
a(L182882711L
L0L
(lp435
(lp436
tp437
a(L3836858920L
L0L
(lp438
(lp439
tp440
a(L297163306L
L0L
(lp441
(lp442
tp443
a(L1900059593L
L0L
(lp444
(lp445
tp446
a(L562398217L
L0L
(lp447
(lp448
tp449
a(L3786176122L
L0L
(lp450
(lp451
tp452
a(L3929371936L
L0L
(lp453
(lp454
tp455
a(L2805932810L
L0L
(lp456
(lp457
tp458
a(L4072848040L
L0L
(lp459
(lp460
tp461
a(L106L
L0L
(lp462
(lp463
tp464
a(L955482811L
L0L
(lp465
(lp466
tp467
a(L307917408L
L0L
(lp468
(lp469
tp470
a(L3020204L
L0L
(lp471
(lp472
tp473
a(L2240503318L
L3785322319L
(lp474
(lp475
Vesp_log_early_timestamp
p476
atp477
a(L1303560396L
L0L
(lp478
(lp479
tp480
a(L955506495L
L0L
(lp481
(lp482
tp483
a(L1303560427L
L0L
(lp484
(lp485
tp486
atp487
sI1074269712
(Vbootloader_check_bootloader_validity
p488
(lp489
(L2960652984L
L1832448559L
(lp490
(lp491
Vefuse_hal_chip_revision
p492
aVesp_log_early_timestamp
p493
aVbootloader_common_check_chip_validity
p494
atp495
atp496
sI1074237980
(Vbootloader_flash_write
p497
(lp498
(L3770380603L
L0L
(lp499
(lp500
tp501
a(L2615366646L
L3785322319L
(lp502
(lp503
Vesp_log_early_timestamp
p504
atp505
a(L3833270346L
L0L
(lp506
(lp507
tp508
a(L1610445075L
L0L
(lp509
(lp510
tp511
a(L735741265L
L0L
(lp512
(lp513
tp514
a(L3291333414L
L0L
(lp515
(lp516
tp517
a(L1873007406L
L3785322319L
(lp518
(lp519
Vesp_log_early_timestamp
p520
atp521
a(L3283691850L
L0L
(lp522
(lp523
tp524
a(L2141475974L
L3785322319L
(lp525
(lp526
Vesp_log_early_timestamp
p527
atp528
a(L3212356251L
L3785322319L
(lp529
(lp530
Vbootloader_flash_unlock
p531
atp532
a(L1799218633L
L0L
(lp533
(lp534
tp535
a(L94425498L
L3785322319L
(lp536
(lp537
Vesp_rom_spiflash_write_encrypted
p538
atp539
a(L2927190544L
L3785322319L
(lp540
(lp541
Vspi_to_esp_err
p542
atp543
a(L2927190544L
L3785322319L
(lp544
(lp545
Vesp_rom_spiflash_write
p546
atp547
atp548
sI1074241052
(Vprocess_image_header
p549
(lp550
(L2432434428L
L3785322319L
(lp551
(lp552
Vbootloader_flash_read
p553
atp554
a(L3020204L
L0L
(lp555
(lp556
tp557
a(L4205021202L
L0L
(lp558
(lp559
tp560
a(L321261932L
L0L
(lp561
(lp562
tp563
a(L1161397362L
L3785322319L
(lp564
(lp565
Vbootloader_sha256_start
p566
atp567
a(L2062774299L
L3785322319L
(lp568
(lp569
Vbootloader_sha256_data
p570
atp571
a(L1291118193L
L0L
(lp572
(lp573
tp574
a(L3028481L
L0L
(lp575
(lp576
tp577
a(L2263077458L
L3785322319L
(lp578
(lp579
Vesp_log_early_timestamp
p580
atp581
a(L3200755447L
L0L
(lp582
(lp583
tp584
a(L2983970029L
L0L
(lp585
(lp586
tp587
a(L4235213884L
L3785322319L
(lp588
(lp589
Vbootloader_common_check_chip_validity
p590
atp591
a(L4144303915L
L0L
(lp592
(lp593
tp594
a(L3028481L
L0L
(lp595
(lp596
tp597
a(L355256751L
L3785322319L
(lp598
(lp599
Vesp_log_early_timestamp
p600
atp601
a(L2852701393L
L0L
(lp602
(lp603
tp604
a(L2122516551L
L0L
(lp605
(lp606
tp607
a(L3064492592L
L0L
(lp608
(lp609
tp610
atp611
sI1074246684
(Vrtc_clk_apb_freq_get
p612
(lp613
(L3659315454L
L0L
(lp614
(lp615
tp616
atp617
sI1074247192
(Vrtc_clk_cal_ratio
p618
(lp619
(L3871281096L
L3785322319L
(lp620
(lp621
Vrtc_clk_cal_internal
p622
atp623
atp624
sI1074240804
(V__assert_func
p625
(lp626
(L1697582622L
L0L
(lp627
(lp628
tp629
a(L106L
L0L
(lp630
(lp631
tp632
atp633
sI1074238756
(Vtry_load_partition
p634
(lp635
(L1263750142L
L0L
(lp636
(lp637
tp638
a(L2258688482L
L0L
(lp639
(lp640
tp641
a(L3360570486L
L0L
(lp642
(lp643
tp644
a(L530241438L
L3785322319L
(lp645
(lp646
Vbootloader_load_image
p647
atp648
a(L3010049260L
L3785322319L
(lp649
(lp650
Vesp_log_early_timestamp
p651
atp652
atp653
sI1074245408
(Vrtc_clk_slow_src_get
p654
(lp655
(L807162021L
L0L
(lp656
(lp657
tp658
a(L3020187L
L0L
(lp659
(lp660
tp661
a(L2902417580L
L0L
(lp662
(lp663
tp664
a(L2258688485L
L0L
(lp665
(lp666
tp667
a(L3360570486L
L0L
(lp668
(lp669
tp670
atp671
sI1074239788
(Vbootloader_utility_get_selected_boot_partition
p672
(lp673
(L2938832293L
L0L
(lp674
(lp675
tp676
a(L842541614L
L0L
(lp677
(lp678
tp679
a(L893151972L
L3785322319L
(lp680
(lp681
Vesp_log_early_timestamp
p682
atp683
a(L194246498L
L0L
(lp684
(lp685
tp686
a(L3360570486L
L0L
(lp687
(lp688
tp689
a(L3118387733L
L3785322319L
(lp690
(lp691
Vbootloader_mmap
p692
atp693
a(L2621379218L
L3785322319L
(lp694
(lp695
Vesp_log_early_timestamp
p696
atp697
a(L3321522761L
L1880226080L
(lp698
(lp699
Vbootloader_munmap
p700
aVbootloader_common_ota_select_invalid
p701
atp702
a(L2911028409L
L0L
(lp703
(lp704
tp705
a(L726754926L
L3785322319L
(lp706
(lp707
Vbootloader_common_get_active_otadata
p708
atp709
a(L106L
L0L
(lp710
(lp711
tp712
a(L4179097382L
L0L
(lp713
(lp714
tp715
a(L788494392L
L3785322319L
(lp716
(lp717
Vbootloader_common_ota_select_invalid
p718
atp719
a(L4189674197L
L0L
(lp720
(lp721
tp722
a(L4436812L
L3785322319L
(lp723
(lp724
Vesp_log_early_timestamp
p725
atp726
a(L3833270346L
L0L
(lp727
(lp728
tp729
a(L1641201884L
L0L
(lp730
(lp731
tp732
a(L211630783L
L3785322319L
(lp733
(lp734
Vesp_log_early_timestamp
p735
atp736
a(L2302032704L
L0L
(lp737
(lp738
tp739
a(L1173788779L
L3785322319L
(lp740
(lp741
Vbootloader_common_ota_select_crc
p742
atp743
a(L4188515782L
L0L
(lp744
(lp745
tp746
a(L1324800084L
L3785322319L
(lp747
(lp748
Vbootloader_common_ota_select_crc
p749
atp750
a(L1299866312L
L0L
(lp751
(lp752
tp753
a(L1205826810L
L0L
(lp754
(lp755
tp756
a(L2799281972L
L3785322319L
(lp757
(lp758
Vesp_log_early_timestamp
p759
atp760
a(L692120553L
L3785322319L
(lp761
(lp762
Vesp_log_early_timestamp
p763
atp764
atp765
sI1074236716
(Vefuse_hal_chip_revision
p766
(lp767
(L2719302832L
L1880226080L
(lp768
(lp769
Vefuse_hal_get_major_chip_version
p770
aVefuse_hal_get_minor_chip_version
p771
atp772
atp773
sI1074245676
(Vrtc_clk_cpu_freq_get_config
p774
(lp775
(L3722895476L
L0L
(lp776
(lp777
tp778
a(L3020187L
L0L
(lp779
(lp780
tp781
a(L3020187L
L0L
(lp782
(lp783
tp784
a(L2648070573L
L3785322319L
(lp785
(lp786
Vrtc_clk_xtal_freq_get
p787
atp788
a(L3789795478L
L0L
(lp789
(lp790
tp791
a(L1195264405L
L1880226080L
(lp792
(lp793
Vesp_log_early_timestamp
p794
aVabort
p795
atp796
a(L1347439071L
L0L
(lp797
(lp798
tp799
a(L3020187L
L0L
(lp800
(lp801
tp802
a(L3028481L
L0L
(lp803
(lp804
tp805
a(L38508693L
L0L
(lp806
(lp807
tp808
a(L187152368L
L0L
(lp809
(lp810
tp811
a(L1161083655L
L0L
(lp812
(lp813
tp814
a(L1395485899L
L0L
(lp815
(lp816
tp817
a(L2070600034L
L0L
(lp818
(lp819
tp820
atp821
sI1074236980
(Vbootloader_common_ota_select_crc
p822
(lp823
(L3214440559L
L0L
(lp824
(lp825
tp826
atp827
sI1074270000
(Vbootloader_console_init
p828
(lp829
(L2486688275L
L1832448559L
(lp830
(lp831
Vesp_rom_uart_tx_wait_idle
p832
aVrtc_clk_apb_freq_get
p833
aVesp_rom_uart_set_clock_baudrate
p834
atp835
atp836
sI1074240828
(Vabort
p837
(lp838
(L56968919L
L0L
(lp839
(lp840
tp841
a(L409471316L
L0L
(lp842
(lp843
tp844
a(L106L
L0L
(lp845
(lp846
tp847
atp848
sI1074245436
(Vrtc_clk_slow_freq_get_hz
p849
(lp850
(L1826267122L
L3785322319L
(lp851
(lp852
Vrtc_clk_slow_src_get
p853
atp854
a(L4180097535L
L0L
(lp855
(lp856
tp857
a(L4004331653L
L0L
(lp858
(lp859
tp860
a(L3360570486L
L0L
(lp861
(lp862
tp863
atp864
sI1074270260
(Vrtc_clk_init
p865
(lp866
(L2294715062L
L0L
(lp867
(lp868
tp869
a(L42671777L
L3785322319L
(lp870
(lp871
Vrtc_clk_cpu_freq_to_xtal
p872
atp873
a(L221492645L
L3785322319L
(lp874
(lp875
Vrtc_clk_xtal_freq_get
p876
atp877
a(L3028481L
L0L
(lp878
(lp879
tp880
a(L4284274517L
L3785322319L
(lp881
(lp882
Vrtc_clk_xtal_freq_estimate
p883
atp884
a(L2705677258L
L3785322319L
(lp885
(lp886
Vesp_log_early_timestamp
p887
atp888
a(L633981439L
L1157885199L
(lp889
(lp890
Vesp_rom_uart_tx_wait_idle
p891
aVrtc_clk_xtal_freq_update
p892
aVrtc_clk_apb_freq_update
p893
aVrtc_clk_cpu_freq_get_config
p894
aVrtc_clk_cpu_freq_mhz_to_config
p895
atp896
a(L48371412L
L1880226080L
(lp897
(lp898
Vesp_log_early_timestamp
p899
aVabort
p900
atp901
a(L2902417580L
L0L
(lp902
(lp903
tp904
a(L1899970065L
L0L
(lp905
(lp906
tp907
a(L377687546L
L3785322319L
(lp908
(lp909
Vrtc_clk_xtal_freq_estimate
p910
atp911
a(L2146549143L
L3785322319L
(lp912
(lp913
Vesp_log_early_timestamp
p914
atp915
a(L4134099358L
L3785322319L
(lp916
(lp917
Vrtc_clk_cpu_freq_set_config
p918
atp919
a(L912310138L
L3785322319L
(lp920
(lp921
Vrtc_clk_32k_enable
p922
atp923
a(L3191820416L
L1832448559L
(lp924
(lp925
Vrtc_clk_8m_enable
p926
aVrtc_clk_fast_src_set
p927
aVrtc_clk_slow_src_set
p928
atp929
a(L1232958848L
L0L
(lp930
(lp931
tp932
atp933
sI1074244664
(Vefuse_hal_get_rated_freq_mhz
p934
(lp935
(L3060225221L
L0L
(lp936
(lp937
tp938
a(L338960367L
L0L
(lp939
(lp940
tp941
a(L3360570486L
L0L
(lp942
(lp943
tp944
atp945
sI1074247224
(Vrtc_clk_wait_for_slow_cycle
p946
(lp947
(L1979977371L
L0L
(lp948
(lp949
tp950
a(L287687718L
L0L
(lp951
(lp952
tp953
a(L3360570486L
L0L
(lp954
(lp955
tp956
a(L2664777485L
L0L
(lp957
(lp958
tp959
a(L1300789833L
L0L
(lp960
(lp961
tp962
a(L1259765481L
L0L
(lp963
(lp964
tp965
a(L2529434910L
L0L
(lp966
(lp967
tp968
a(L299865058L
L3785322319L
(lp969
(lp970
Vesp_log_early_timestamp
p971
atp972
atp973
sI1074236740
(Vefuse_hal_flash_encryption_enabled
p974
(lp975
(L2932383536L
L0L
(lp976
(lp977
tp978
a(L2910371777L
L0L
(lp979
(lp980
tp981
a(L3360570486L
L0L
(lp982
(lp983
tp984
a(L3016870L
L0L
(lp985
(lp986
tp987
a(L3745038218L
L0L
(lp988
(lp989
tp990
a(L957607403L
L0L
(lp991
(lp992
tp993
atp994
sI1074267724
(Vcall_start_cpu0
p995
(lp996
(L3609105705L
L3785322319L
(lp997
(lp998
Vbootloader_init
p999
atp1000
a(L3827921190L
L3785322319L
(lp1001
(lp1002
Vbootloader_reset
p1003
atp1004
a(L3870419095L
L3785322319L
(lp1005
(lp1006
Vbootloader_utility_load_partition_table
p1007
atp1008
a(L789002512L
L3785322319L
(lp1009
(lp1010
Vesp_log_early_timestamp
p1011
atp1012
a(L405422123L
L3785322319L
(lp1013
(lp1014
Vbootloader_utility_get_selected_boot_partition
p1015
atp1016
a(L1991205821L
L3785322319L
(lp1017
(lp1018
Vbootloader_utility_load_boot_image
p1019
atp1020
atp1021
sI1074244416
(Vwdt_hal_write_protect_disable
p1022
(lp1023
(L2029874475L
L0L
(lp1024
(lp1025
tp1026
a(L4195472003L
L0L
(lp1027
(lp1028
tp1029
a(L3360570486L
L0L
(lp1030
(lp1031
tp1032
a(L1210571996L
L0L
(lp1033
(lp1034
tp1035
atp1036
sI1074241856
(Vshould_load
p1037
(lp1038
(L2248753231L
L0L
(lp1039
(lp1040
tp1041
a(L1182990556L
L0L
(lp1042
(lp1043
tp1044
a(L1188500889L
L0L
(lp1045
(lp1046
tp1047
a(L2306467100L
L0L
(lp1048
(lp1049
tp1050
a(L524505062L
L0L
(lp1051
(lp1052
tp1053
a(L2258897019L
L0L
(lp1054
(lp1055
tp1056
a(L3781799363L
L0L
(lp1057
(lp1058
tp1059
a(L3028464L
L0L
(lp1060
(lp1061
tp1062
a(L2798417532L
L0L
(lp1063
(lp1064
tp1065
a(L4277114872L
L0L
(lp1066
(lp1067
tp1068
a(L2824381917L
L0L
(lp1069
(lp1070
tp1071
a(L1243412227L
L0L
(lp1072
(lp1073
tp1074
a(L2011157548L
L0L
(lp1075
(lp1076
tp1077
a(L3126521138L
L0L
(lp1078
(lp1079
tp1080
a(L1305407438L
L0L
(lp1081
(lp1082
tp1083
a(L1305407469L
L0L
(lp1084
(lp1085
tp1086
atp1087
sI1074247488
(Vesp_rom_spiflash_wait_idle
p1088
(lp1089
(L3233077333L
L0L
(lp1090
(lp1091
tp1092
a(L2023766174L
L0L
(lp1093
(lp1094
tp1095
a(L2805934546L
L0L
(lp1096
(lp1097
tp1098
a(L3086959262L
L0L
(lp1099
(lp1100
tp1101
a(L4161019926L
L3785322319L
(lp1102
(lp1103
Vesp_rom_spiflash_read_status
p1104
atp1105
atp1106
sI1074237000
(Vbootloader_common_ota_select_valid
p1107
(lp1108
(L1563399710L
L3785322319L
(lp1109
(lp1110
Vbootloader_common_ota_select_invalid
p1111
atp1112
a(L3814720849L
L3785322319L
(lp1113
(lp1114
Vbootloader_common_ota_select_crc
p1115
atp1116
a(L3360570486L
L0L
(lp1117
(lp1118
tp1119
atp1120
sI1074239304
(Vset_actual_ota_seq
p1121
(lp1122
(L4094723830L
L0L
(lp1123
(lp1124
tp1125
a(L2573507321L
L0L
(lp1126
(lp1127
tp1128
a(L3461827603L
L1832448559L
(lp1129
(lp1130
Vbootloader_common_ota_select_crc
p1131
aVesp_flash_encryption_enabled
p1132
aVbootloader_flash_erase_sector
p1133
atp1134
a(L2768623893L
L3785322319L
(lp1135
(lp1136
Vbootloader_flash_write
p1137
atp1138
a(L1288271209L
L3785322319L
(lp1139
(lp1140
Vesp_log_early_timestamp
p1141
atp1142
a(L2939835162L
L3785322319L
(lp1143
(lp1144
Vesp_log_early_timestamp
p1145
atp1146
a(L3360570486L
L0L
(lp1147
(lp1148
tp1149
atp1150
sI1074246728
(Vrtc_clk_cal_internal
p1151
(lp1152
(L3211713899L
L0L
(lp1153
(lp1154
tp1155
a(L3248315554L
L3785322319L
(lp1156
(lp1157
V__assert_func
p1158
atp1159
a(L1839043401L
L0L
(lp1160
(lp1161
tp1162
a(L1673513644L
L0L
(lp1163
(lp1164
tp1165
a(L1829177773L
L3785322319L
(lp1166
(lp1167
Vrtc_clk_slow_src_get
p1168
atp1169
a(L3008910671L
L0L
(lp1170
(lp1171
tp1172
a(L97689L
L0L
(lp1173
(lp1174
tp1175
a(L1725095778L
L0L
(lp1176
(lp1177
tp1178
a(L3028464L
L0L
(lp1179
(lp1180
tp1181
a(L3028481L
L0L
(lp1182
(lp1183
tp1184
a(L3450258779L
L0L
(lp1185
(lp1186
tp1187
a(L204864475L
L3785322319L
(lp1188
(lp1189
Vrtc_clk_xtal_freq_get
p1190
atp1191
a(L2780079961L
L0L
(lp1192
(lp1193
tp1194
a(L3609124145L
L0L
(lp1195
(lp1196
tp1197
a(L827207193L
L3785322319L
(lp1198
(lp1199
Vesp_log_early_timestamp
p1200
atp1201
a(L2258688482L
L0L
(lp1202
(lp1203
tp1204
a(L3360570486L
L0L
(lp1205
(lp1206
tp1207
a(L3553505594L
L0L
(lp1208
(lp1209
tp1210
a(L403361192L
L0L
(lp1211
(lp1212
tp1213
a(L3243404432L
L3785322319L
(lp1214
(lp1215
Vrtc_clk_8m_enable
p1216
atp1217
a(L1960044254L
L0L
(lp1218
(lp1219
tp1220
a(L569203943L
L0L
(lp1221
(lp1222
tp1223
a(L2910371777L
L0L
(lp1224
(lp1225
tp1226
a(L2902417580L
L0L
(lp1227
(lp1228
tp1229
a(L645786836L
L0L
(lp1230
(lp1231
tp1232
a(L3020204L
L0L
(lp1233
(lp1234
tp1235
a(L2235519328L
L0L
(lp1236
(lp1237
tp1238
a(L3429540926L
L0L
(lp1239
(lp1240
tp1241
a(L3028464L
L0L
(lp1242
(lp1243
tp1244
a(L3309590973L
L3785322319L
(lp1245
(lp1246
Vrtc_clk_8m_enable
p1247
atp1248
atp1249
sI1074237268
(Vbootloader_common_get_active_otadata
p1250
(lp1251
(L3317503532L
L0L
(lp1252
(lp1253
tp1254
a(L2503049265L
L1832448559L
(lp1255
(lp1256
Vbootloader_common_ota_select_valid
p1257
aVbootloader_common_ota_select_valid
p1258
aVbootloader_common_select_otadata
p1259
atp1260
a(L735741265L
L0L
(lp1261
(lp1262
tp1263
atp1264
sI1074238804
(Vcache_ll_l1_enable_bus
p1265
(lp1266
(L1908488057L
L0L
(lp1267
(lp1268
tp1269
atp1270
sI1074240592
(Vbootloader_sha256_finish
p1271
(lp1272
(L4066096136L
L0L
(lp1273
(lp1274
tp1275
a(L3125987449L
L0L
(lp1276
(lp1277
tp1278
a(L3884092851L
L3785322319L
(lp1279
(lp1280
V__assert_func
p1281
atp1282
a(L3020204L
L0L
(lp1283
(lp1284
tp1285
a(L1816853500L
L0L
(lp1286
(lp1287
tp1288
a(L2534656226L
L0L
(lp1289
(lp1290
tp1291
a(L551614134L
L3785322319L
(lp1292
(lp1293
Vbootloader_sha256_data
p1294
atp1295
a(L3281735505L
L0L
(lp1296
(lp1297
tp1298
a(L841302101L
L3785322319L
(lp1299
(lp1300
Vbootloader_sha256_data
p1301
atp1302
a(L3768329152L
L0L
(lp1303
(lp1304
tp1305
a(L657425439L
L0L
(lp1306
(lp1307
tp1308
a(L3930848034L
L0L
(lp1309
(lp1310
tp1311
a(L657425439L
L0L
(lp1312
(lp1313
tp1314
a(L4116699460L
L0L
(lp1315
(lp1316
tp1317
a(L3511307343L
L0L
(lp1318
(lp1319
tp1320
a(L3347778L
L0L
(lp1321
(lp1322
tp1323
a(L3360570486L
L0L
(lp1324
(lp1325
tp1326
atp1327
sI1074238544
(Vbootloader_clock_get_rated_freq_mhz
p1328
(lp1329
(L376617603L
L3785322319L
(lp1330
(lp1331
Vefuse_hal_get_rated_freq_mhz
p1332
atp1333
atp1334
sI1074238556
(Vlog_invalid_app_partition
p1335
(lp1336
(L3121159614L
L0L
(lp1337
(lp1338
tp1339
a(L3028464L
L0L
(lp1340
(lp1341
tp1342
a(L1381405837L
L3785322319L
(lp1343
(lp1344
Vesp_log_early_timestamp
p1345
atp1346
a(L3833270346L
L0L
(lp1347
(lp1348
tp1349
a(L3360570486L
L0L
(lp1350
(lp1351
tp1352
a(L3430459325L
L3785322319L
(lp1353
(lp1354
Vesp_log_early_timestamp
p1355
atp1356
a(L3309219235L
L3785322319L
(lp1357
(lp1358
Vesp_log_early_timestamp
p1359
atp1360
atp1361
sI1074244700
(Vrtc_clk_32k_enable_common
p1362
(lp1363
(L493234424L
L0L
(lp1364
(lp1365
tp1366
a(L97422L
L0L
(lp1367
(lp1368
tp1369
a(L2218417248L
L0L
(lp1370
(lp1371
tp1372
a(L3638412133L
L0L
(lp1373
(lp1374
tp1375
a(L51458120L
L0L
(lp1376
(lp1377
tp1378
atp1379
sI1074269780
(Vbootloader_config_wdt
p1380
(lp1381
(L3738756377L
L505859776L
(lp1382
(lp1383
Vwdt_hal_write_protect_disable
p1384
aVwdt_hal_set_flashboot_en
p1385
aVwdt_hal_write_protect_enable
p1386
aVwdt_hal_init
p1387
aVrtc_clk_slow_freq_get_hz
p1388
aVwdt_hal_write_protect_disable
p1389
aVwdt_hal_config_stage
p1390
aVwdt_hal_enable
p1391
aVwdt_hal_write_protect_enable
p1392
aVwdt_hal_write_protect_disable
p1393
aVwdt_hal_set_flashboot_en
p1394
aVwdt_hal_write_protect_enable
p1395
atp1396
atp1397
sI1074270036
(Vesp_cpu_configure_region_protection
p1398
(lp1399
(L1698042428L
L0L
(lp1400
(lp1401
tp1402
a(L180431425L
L3785322319L
(lp1403
(lp1404
Vmpu_hal_set_region_access
p1405
atp1406
a(L2537388152L
L3785322319L
(lp1407
(lp1408
Vmpu_hal_set_region_access
p1409
atp1410
atp1411
sI1074240088
(Vbootloader_reset
p1412
(lp1413
(L1083704575L
L3785322319L
(lp1414
(lp1415
Vbootloader_console_deinit
p1416
atp1417
a(L106L
L0L
(lp1418
(lp1419
tp1420
atp1421
sI1074234712
(Vbootloader_common_get_chip_ver_pkg
p1422
(lp1423
(L994406025L
L0L
(lp1424
(lp1425
tp1426
atp1427
sI1074245464
(Vrtc_clk_fast_src_set
p1428
(lp1429
(L3974279653L
L0L
(lp1430
(lp1431
tp1432
a(L3020187L
L0L
(lp1433
(lp1434
tp1435
a(L3827921190L
L3785322319L
(lp1436
(lp1437
Vabort
p1438
atp1439
a(L2904656757L
L0L
(lp1440
(lp1441
tp1442
a(L206212292L
L0L
(lp1443
(lp1444
tp1445
a(L300459962L
L0L
(lp1446
(lp1447
tp1448
atp1449
sI1074235236
(Vbootloader_execute_flash_command
p1450
(lp1451
(L2481595632L
L3785322319L
(lp1452
(lp1453
Vbootloader_flash_execute_command_common
p1454
atp1455
atp1456
sI1074240352
(Vindex_to_partition
p1457
(lp1458
(L4066096119L
L0L
(lp1459
(lp1460
tp1461
a(L1101255660L
L0L
(lp1462
(lp1463
tp1464
a(L1955702725L
L0L
(lp1465
(lp1466
tp1467
a(L3698927993L
L0L
(lp1468
(lp1469
tp1470
a(L2808906342L
L0L
(lp1471
(lp1472
tp1473
a(L4211744375L
L0L
(lp1474
(lp1475
tp1476
a(L3097778015L
L0L
(lp1477
(lp1478
tp1479
a(L1816235430L
L0L
(lp1480
(lp1481
tp1482
a(L2179185678L
L0L
(lp1483
(lp1484
tp1485
a(L3369319173L
L0L
(lp1486
(lp1487
tp1488
atp1489
sI1074244448
(Vwdt_hal_set_flashboot_en
p1490
(lp1491
(L2375320464L
L0L
(lp1492
(lp1493
tp1494
a(L3915867581L
L0L
(lp1495
(lp1496
tp1497
a(L3360570486L
L0L
(lp1498
(lp1499
tp1500
a(L1860344008L
L0L
(lp1501
(lp1502
tp1503
atp1504
sI1074237036
(Vbootloader_common_check_chip_validity
p1505
(lp1506
(L2080115690L
L0L
(lp1507
(lp1508
tp1509
a(L101167642L
L3785322319L
(lp1510
(lp1511
Vesp_log_early_timestamp
p1512
atp1513
a(L1299867982L
L0L
(lp1514
(lp1515
tp1516
a(L3360570486L
L0L
(lp1517
(lp1518
tp1519
a(L521940037L
L3785322319L
(lp1520
(lp1521
Vefuse_hal_chip_revision
p1522
atp1523
a(L1521164372L
L0L
(lp1524
(lp1525
tp1526
a(L1652761108L
L3785322319L
(lp1527
(lp1528
Vesp_log_early_timestamp
p1529
atp1530
a(L3028464L
L0L
(lp1531
(lp1532
tp1533
a(L1797954754L
L0L
(lp1534
(lp1535
tp1536
a(L106L
L0L
(lp1537
(lp1538
tp1539
a(L3027019L
L0L
(lp1540
(lp1541
tp1542
a(L106L
L0L
(lp1543
(lp1544
tp1545
a(L2173180754L
L3785322319L
(lp1546
(lp1547
Vesp_log_early_timestamp
p1548
atp1549
atp1550
sI1074236780
(Vefuse_hal_get_major_chip_version
p1551
(lp1552
(L503352333L
L0L
(lp1553
(lp1554
tp1555
a(L894792960L
L0L
(lp1556
(lp1557
tp1558
a(L724635033L
L0L
(lp1559
(lp1560
tp1561
a(L3360570486L
L0L
(lp1562
(lp1563
tp1564
atp1565
sI1074240876
(Vbootloader_ana_clock_glitch_reset_config
p1566
(lp1567
(L2100504542L
L0L
(lp1568
(lp1569
tp1570
atp1571
sI1074247784
(Vesp_rom_spiflash_erase_sector
p1572
(lp1573
(L209754944L
L0L
(lp1574
(lp1575
tp1576
a(L2258688483L
L0L
(lp1577
(lp1578
tp1579
a(L3360570486L
L0L
(lp1580
(lp1581
tp1582
a(L3212356251L
L3785322319L
(lp1583
(lp1584
Vesp_rom_spiflash_enable_write
p1585
atp1586
a(L184152988L
L0L
(lp1587
(lp1588
tp1589
a(L675211730L
L3785322319L
(lp1590
(lp1591
Vesp_rom_spiflash_wait_idle
p1592
atp1593
a(L3333707777L
L0L
(lp1594
(lp1595
tp1596
a(L3582858798L
L3785322319L
(lp1597
(lp1598
Vesp_rom_spiflash_wait_idle
p1599
atp1600
atp1601
sI1074240884
(Vprocess_checksum
p1602
(lp1603
(L4225894707L
L0L
(lp1604
(lp1605
tp1606
a(L3028481L
L0L
(lp1607
(lp1608
tp1609
a(L186886970L
L0L
(lp1610
(lp1611
tp1612
a(L2902417580L
L0L
(lp1613
(lp1614
tp1615
a(L3028481L
L0L
(lp1616
(lp1617
tp1618
a(L404508301L
L3785322319L
(lp1619
(lp1620
Vesp_log_early_timestamp
p1621
atp1622
a(L3620623795L
L0L
(lp1623
(lp1624
tp1625
a(L3236648107L
L3785322319L
(lp1626
(lp1627
Vbootloader_flash_read
p1628
atp1629
a(L735741265L
L0L
(lp1630
(lp1631
tp1632
a(L3020204L
L0L
(lp1633
(lp1634
tp1635
a(L2480703612L
L3785322319L
(lp1636
(lp1637
Vbootloader_sha256_data
p1638
atp1639
a(L3436105237L
L0L
(lp1640
(lp1641
tp1642
a(L106L
L0L
(lp1643
(lp1644
tp1645
atp1646
sI1074240112
(Vbootloader_utility_load_boot_image
p1647
(lp1648
(L1375294773L
L0L
(lp1649
(lp1650
tp1651
a(L2177418995L
L3785322319L
(lp1652
(lp1653
Vtry_load_partition
p1654
atp1655
a(L1305243774L
L3785322319L
(lp1656
(lp1657
Vload_image
p1658
atp1659
a(L1481893282L
L3785322319L
(lp1660
(lp1661
Vesp_log_early_timestamp
p1662
atp1663
a(L3827921190L
L3785322319L
(lp1664
(lp1665
Vbootloader_reset
p1666
atp1667
a(L1953693036L
L3785322319L
(lp1668
(lp1669
Vindex_to_partition
p1670
atp1671
a(L1204373741L
L3785322319L
(lp1672
(lp1673
Vtry_load_partition
p1674
atp1675
a(L1899865696L
L0L
(lp1676
(lp1677
tp1678
a(L2695355117L
L3785322319L
(lp1679
(lp1680
Vset_actual_ota_seq
p1681
atp1682
a(L1868897605L
L3785322319L
(lp1683
(lp1684
Vlog_invalid_app_partition
p1685
atp1686
a(L831650730L
L0L
(lp1687
(lp1688
tp1689
a(L3021737L
L0L
(lp1690
(lp1691
tp1692
a(L695456438L
L0L
(lp1693
(lp1694
tp1695
a(L1129532116L
L3785322319L
(lp1696
(lp1697
Vtry_load_partition
p1698
atp1699
a(L4022121633L
L3785322319L
(lp1700
(lp1701
Vesp_log_early_timestamp
p1702
atp1703
a(L2347390157L
L3785322319L
(lp1704
(lp1705
Vindex_to_partition
p1706
atp1707
a(L1204373741L
L3785322319L
(lp1708
(lp1709
Vtry_load_partition
p1710
atp1711
a(L3061261803L
L0L
(lp1712
(lp1713
tp1714
a(L3582858798L
L3785322319L
(lp1715
(lp1716
Vlog_invalid_app_partition
p1717
atp1718
a(L1285752117L
L3785322319L
(lp1719
(lp1720
Vesp_log_early_timestamp
p1721
atp1722
atp1723
sI1074246000
(Vrtc_clk_cpu_freq_set_config
p1724
(lp1725
(L2360939883L
L3785322319L
(lp1726
(lp1727
Vrtc_clk_xtal_freq_get
p1728
atp1729
a(L2308773007L
L0L
(lp1730
(lp1731
tp1732
a(L3253451229L
L1880226080L
(lp1733
(lp1734
Vrtc_clk_cpu_freq_to_xtal
p1735
aVrtc_clk_wait_for_slow_cycle
p1736
atp1737
a(L2243645672L
L0L
(lp1738
(lp1739
tp1740
a(L4002786498L
L0L
(lp1741
(lp1742
tp1743
a(L2736411858L
L3785322319L
(lp1744
(lp1745
Vrtc_clk_cpu_freq_to_xtal
p1746
atp1747
a(L3360570486L
L0L
(lp1748
(lp1749
tp1750
a(L2755207760L
L1832448559L
(lp1751
(lp1752
Vrtc_clk_cpu_freq_to_xtal
p1753
aVrtc_clk_wait_for_slow_cycle
p1754
aVrtc_clk_bbpll_disable
p1755
atp1756
a(L3020187L
L0L
(lp1757
(lp1758
tp1759
a(L106L
L0L
(lp1760
(lp1761
tp1762
a(L4047963807L
L1880226080L
(lp1763
(lp1764
Vrtc_clk_wait_for_slow_cycle
p1765
aVrtc_clk_xtal_freq_get
p1766
atp1767
a(L106L
L0L
(lp1768
(lp1769
tp1770
a(L2760149137L
L0L
(lp1771
(lp1772
tp1773
a(L83268611L
L0L
(lp1774
(lp1775
tp1776
a(L106L
L0L
(lp1777
(lp1778
tp1779
a(L82345090L
L0L
(lp1780
(lp1781
tp1782
a(L106L
L0L
(lp1783
(lp1784
tp1785
a(L2258718273L
L0L
(lp1786
(lp1787
tp1788
a(L3298883534L
L0L
(lp1789
(lp1790
tp1791
a(L3342915645L
L0L
(lp1792
(lp1793
tp1794
a(L1001325447L
L3785322319L
(lp1795
(lp1796
Vrtc_clk_cpu_freq_to_pll_mhz
p1797
atp1798
a(L4211651074L
L0L
(lp1799
(lp1800
tp1801
a(L83268344L
L0L
(lp1802
(lp1803
tp1804
a(L82344823L
L0L
(lp1805
(lp1806
tp1807
a(L1569180676L
L0L
(lp1808
(lp1809
tp1810
a(L2258837488L
L0L
(lp1811
(lp1812
tp1813
a(L2862615613L
L0L
(lp1814
(lp1815
tp1816
a(L1482311963L
L0L
(lp1817
(lp1818
tp1819
a(L133411965L
L0L
(lp1820
(lp1821
tp1822
a(L3673491036L
L0L
(lp1823
(lp1824
tp1825
a(L4197990447L
L0L
(lp1826
(lp1827
tp1828
a(L903154985L
L0L
(lp1829
(lp1830
tp1831
a(L3020187L
L0L
(lp1832
(lp1833
tp1834
a(L106L
L0L
(lp1835
(lp1836
tp1837
a(L1614513146L
L3785322319L
(lp1838
(lp1839
Vesp_rom_set_cpu_ticks_per_us
p1840
atp1841
atp1842
sI1074247536
(Vesp_rom_spiflash_enable_write
p1843
(lp1844
(L1607061878L
L3785322319L
(lp1845
(lp1846
Vesp_rom_spiflash_wait_idle
p1847
atp1848
a(L3333707777L
L0L
(lp1849
(lp1850
tp1851
a(L2258688484L
L0L
(lp1852
(lp1853
tp1854
a(L99543895L
L0L
(lp1855
(lp1856
tp1857
a(L2993202392L
L0L
(lp1858
(lp1859
tp1860
a(L374468446L
L3785322319L
(lp1861
(lp1862
Vesp_rom_spiflash_read_status
p1863
atp1864
atp1865
sI1074237308
(Vbootloader_common_ota_select_invalid
p1866
(lp1867
(L4027567199L
L0L
(lp1868
(lp1869
tp1870
a(L3397985842L
L0L
(lp1871
(lp1872
tp1873
a(L2258867228L
L0L
(lp1874
(lp1875
tp1876
a(L3785235668L
L0L
(lp1877
(lp1878
tp1879
atp1880
sI1074245244
(Vrtc_clk_8m_enabled
p1881
(lp1882
(L4125363490L
L0L
(lp1883
(lp1884
tp1885
atp1886
sI1074234744
(Vesp_flash_encryption_enabled
p1887
(lp1888
(L376617603L
L3785322319L
(lp1889
(lp1890
Vefuse_hal_flash_encryption_enabled
p1891
atp1892
atp1893
sI1074236536
(Vesp_rom_set_cpu_ticks_per_us
p1894
(lp1895
(L2370326522L
L0L
(lp1896
(lp1897
tp1898
atp1899
sI1074270856
(Vrtc_vddsdio_set_config
p1900
(lp1901
(L2761419615L
L0L
(lp1902
(lp1903
tp1904
atp1905
sI1074243204
(Vbootloader_load_image
p1906
(lp1907
(L1155870502L
L3785322319L
(lp1908
(lp1909
Vimage_load
p1910
atp1911
atp1912
sI1074235268
(Vbootloader_flash_unlock
p1913
(lp1914
(L485855552L
L3785322319L
(lp1915
(lp1916
Vesp_rom_spiflash_wait_idle
p1917
atp1918
a(L711923870L
L0L
(lp1919
(lp1920
tp1921
a(L3507311156L
L3785322319L
(lp1922
(lp1923
Vbootloader_execute_flash_command
p1924
atp1925
a(L4103218025L
L0L
(lp1926
(lp1927
tp1928
a(L2529045083L
L0L
(lp1929
(lp1930
tp1931
a(L1175784077L
L1832448559L
(lp1932
(lp1933
Vesp_rom_spiflash_wait_idle
p1934
aVbootloader_execute_flash_command
p1935
aVbootloader_execute_flash_command
p1936
atp1937
a(L106L
L0L
(lp1938
(lp1939
tp1940
a(L594961218L
L1880226080L
(lp1941
(lp1942
Vesp_rom_spiflash_wait_idle
p1943
aVbootloader_execute_flash_command
p1944
atp1945
a(L2993202392L
L0L
(lp1946
(lp1947
tp1948
a(L610618707L
L0L
(lp1949
(lp1950
tp1951
a(L2843273676L
L0L
(lp1952
(lp1953
tp1954
a(L192015437L
L0L
(lp1955
(lp1956
tp1957
a(L3154322046L
L1880226080L
(lp1958
(lp1959
Vbootloader_execute_flash_command
p1960
aVbootloader_execute_flash_command
p1961
atp1962
a(L1303560644L
L0L
(lp1963
(lp1964
tp1965
a(L1711531685L
L1880226080L
(lp1966
(lp1967
Vbootloader_execute_flash_command
p1968
aVbootloader_execute_flash_command
p1969
atp1970
a(L3658700047L
L0L
(lp1971
(lp1972
tp1973
a(L3430607254L
L0L
(lp1974
(lp1975
tp1976
a(L106L
L0L
(lp1977
(lp1978
tp1979
a(L1876788132L
L1832448559L
(lp1980
(lp1981
Vesp_rom_spiflash_wait_idle
p1982
aVbootloader_execute_flash_command
p1983
aVbootloader_execute_flash_command
p1984
atp1985
atp1986
sI1074234756
(Vbootloader_flash_execute_command_common
p1987
(lp1988
(L3865052895L
L0L
(lp1989
(lp1990
tp1991
a(L3287175997L
L0L
(lp1992
(lp1993
tp1994
a(L4121451103L
L3785322319L
(lp1995
(lp1996
V__assert_func
p1997
atp1998
a(L3021749L
L0L
(lp1999
(lp2000
tp2001
a(L3999871943L
L0L
(lp2002
(lp2003
tp2004
a(L543316797L
L0L
(lp2005
(lp2006
tp2007
a(L2091933878L
L0L
(lp2008
(lp2009
tp2010
a(L1702379862L
L0L
(lp2011
(lp2012
tp2013
a(L3432464320L
L0L
(lp2014
(lp2015
tp2016
a(L3539375712L
L0L
(lp2017
(lp2018
tp2019
a(L3244449450L
L0L
(lp2020
(lp2021
tp2022
a(L4233404408L
L0L
(lp2023
(lp2024
tp2025
a(L2990329343L
L0L
(lp2026
(lp2027
tp2028
a(L2051090536L
L0L
(lp2029
(lp2030
tp2031
a(L3333696662L
L0L
(lp2032
(lp2033
tp2034
a(L963425213L
L0L
(lp2035
(lp2036
tp2037
a(L339491738L
L0L
(lp2038
(lp2039
tp2040
a(L3360570486L
L0L
(lp2041
(lp2042
tp2043
atp2044
sI1074244996
(Vrtc_clk_bbpll_disable
p2045
(lp2046
(L3905321210L
L0L
(lp2047
(lp2048
tp2049
a(L2472207241L
L0L
(lp2050
(lp2051
tp2052
a(L3360570486L
L0L
(lp2053
(lp2054
tp2055
atp2056
sI1074268044
(Vbootloader_init
p2057
(lp2058
(L776416039L
L3785322319L
(lp2059
(lp2060
Vbootloader_init_mem
p2061
atp2062
a(L1502407043L
L0L
(lp2063
(lp2064
tp2065
a(L1758805531L
L3785322319L
(lp2066
(lp2067
V__assert_func
p2068
atp2069
a(L337243106L
L0L
(lp2070
(lp2071
tp2072
a(L4021009955L
L0L
(lp2073
(lp2074
tp2075
a(L3813782018L
L0L
(lp2076
(lp2077
tp2078
a(L4066274525L
L0L
(lp2079
(lp2080
tp2081
a(L3027019L
L0L
(lp2082
(lp2083
tp2084
a(L257900721L
L0L
(lp2085
(lp2086
tp2087
a(L4055793689L
L1832448559L
(lp2088
(lp2089
Vbootloader_clear_bss_section
p2090
aVbootloader_common_vddsdio_configure
p2091
aVbootloader_clock_get_rated_freq_mhz
p2092
atp2093
a(L106L
L0L
(lp2094
(lp2095
tp2096
a(L744568188L
L1157885199L
(lp2097
(lp2098
Vbootloader_clock_configure
p2099
aVbootloader_console_init
p2100
aVbootloader_print_banner
p2101
aVbootloader_flash_update_id
p2102
aVbootloader_flash_xmc_startup
p2103
atp2104
a(L506523699L
L3785322319L
(lp2105
(lp2106
Vesp_log_early_timestamp
p2107
atp2108
a(L2524214876L
L3785322319L
(lp2109
(lp2110
Vesp_log_early_timestamp
p2111
atp2112
a(L3360570486L
L0L
(lp2113
(lp2114
tp2115
a(L2444883382L
L3785322319L
(lp2116
(lp2117
Vbootloader_read_bootloader_header
p2118
atp2119
a(L2444883382L
L3785322319L
(lp2120
(lp2121
Vbootloader_check_bootloader_validity
p2122
atp2123
a(L2444883382L
L3785322319L
(lp2124
(lp2125
Vbootloader_init_spi_flash
p2126
atp2127
a(L467126651L
L0L
(lp2128
(lp2129
tp2130
a(L254817508L
L0L
(lp2131
(lp2132
tp2133
a(L93892250L
L0L
(lp2134
(lp2135
tp2136
a(L2915015718L
L0L
(lp2137
(lp2138
tp2139
a(L2603036285L
L1880226080L
(lp2140
(lp2141
Vbootloader_config_wdt
p2142
aVbootloader_enable_random
p2143
atp2144
a(L1895147938L
L0L
(lp2145
(lp2146
tp2147
a(L2680457259L
L0L
(lp2148
(lp2149
tp2150
a(L3027019L
L0L
(lp2151
(lp2152
tp2153
a(L97315L
L0L
(lp2154
(lp2155
tp2156
a(L4265436971L
L3785322319L
(lp2157
(lp2158
Vesp_log_early_timestamp
p2159
atp2160
a(L2841634776L
L3785322319L
(lp2161
(lp2162
Vesp_log_early_timestamp
p2163
atp2164
a(L3164960223L
L0L
(lp2165
(lp2166
tp2167
a(L1895147938L
L0L
(lp2168
(lp2169
tp2170
a(L156585483L
L1880226080L
(lp2171
(lp2172
Vwdt_reset_info_dump
p2173
aVwdt_reset_info_dump
p2174
atp2175
atp2176
sI1074268556
(Vbootloader_common_vddsdio_configure
p2177
(lp2178
(L1829974089L
L3785322319L
(lp2179
(lp2180
Vrtc_vddsdio_get_config
p2181
atp2182
a(L2795064753L
L3785322319L
(lp2183
(lp2184
Vrtc_vddsdio_set_config
p2185
atp2186
a(L3360570486L
L0L
(lp2187
(lp2188
tp2189
atp2190
sI1074270084
(Vrtc_clk_xtal_freq_estimate
p2191
(lp2192
(L1823831978L
L1880226080L
(lp2193
(lp2194
Vrtc_clk_8m_enabled
p2195
aVrtc_clk_8md256_enabled
p2196
atp2197
a(L2449794434L
L3785322319L
(lp2198
(lp2199
Vrtc_clk_8m_enable
p2200
atp2201
a(L853245806L
L3785322319L
(lp2202
(lp2203
Vrtc_clk_cal_ratio
p2204
atp2205
a(L3934977694L
L0L
(lp2206
(lp2207
tp2208
a(L3955289886L
L0L
(lp2209
(lp2210
tp2211
a(L2836128282L
L3785322319L
(lp2212
(lp2213
Vesp_log_early_timestamp
p2214
atp2215
a(L2307427870L
L0L
(lp2216
(lp2217
tp2218
a(L1281346514L
L3785322319L
(lp2219
(lp2220
Vrtc_clk_8m_enable
p2221
atp2222
a(L3909119106L
L0L
(lp2223
(lp2224
tp2225
a(L609099921L
L3785322319L
(lp2226
(lp2227
Vesp_log_early_timestamp
p2228
atp2229
a(L3304487880L
L0L
(lp2230
(lp2231
tp2232
a(L1641150486L
L0L
(lp2233
(lp2234
tp2235
a(L2362505285L
L3785322319L
(lp2236
(lp2237
Vesp_log_early_timestamp
p2238
atp2239
atp2240
sI1074236552
(Vesp_rom_uart_tx_wait_idle
p2241
(lp2242
(L2849601099L
L0L
(lp2243
(lp2244
tp2245
a(L1301079727L
L0L
(lp2246
(lp2247
tp2248
a(L597952197L
L0L
(lp2249
(lp2250
tp2251
a(L1971823332L
L0L
(lp2252
(lp2253
tp2254
a(L3055926844L
L0L
(lp2255
(lp2256
tp2257
a(L3360570486L
L0L
(lp2258
(lp2259
tp2260
a(L3694491048L
L0L
(lp2261
(lp2262
tp2263
a(L106L
L0L
(lp2264
(lp2265
tp2266
atp2267
sI1074238856
(Vcache_ll_l1_enable_bus
p2268
(lp2269
(L1408514293L
L0L
(lp2270
(lp2271
tp2272
atp2273
sI1074243220
(Vesp_partition_table_verify
p2274
(lp2275
(L3052823174L
L0L
(lp2276
(lp2277
tp2278
a(L1787509322L
L0L
(lp2279
(lp2280
tp2281
a(L1184829782L
L0L
(lp2282
(lp2283
tp2284
a(L3020204L
L0L
(lp2285
(lp2286
tp2287
a(L2512375030L
L3785322319L
(lp2288
(lp2289
Vesp_log_early_timestamp
p2290
atp2291
a(L1235012963L
L0L
(lp2292
(lp2293
tp2294
a(L3190337587L
L0L
(lp2295
(lp2296
tp2297
a(L2069928857L
L0L
(lp2298
(lp2299
tp2300
a(L2902417580L
L0L
(lp2301
(lp2302
tp2303
a(L1997576908L
L3785322319L
(lp2304
(lp2305
Vesp_log_early_timestamp
p2306
atp2307
a(L1535212808L
L0L
(lp2308
(lp2309
tp2310
a(L3020204L
L0L
(lp2311
(lp2312
tp2313
a(L3020204L
L0L
(lp2314
(lp2315
tp2316
a(L757174634L
L3785322319L
(lp2317
(lp2318
Vesp_log_early_timestamp
p2319
atp2320
a(L3833270346L
L0L
(lp2321
(lp2322
tp2323
a(L1235012932L
L0L
(lp2324
(lp2325
tp2326
a(L3307599839L
L0L
(lp2327
(lp2328
tp2329
a(L3020204L
L0L
(lp2330
(lp2331
tp2332
a(L1997576660L
L3785322319L
(lp2333
(lp2334
Vesp_log_early_timestamp
p2335
atp2336
a(L1305407469L
L0L
(lp2337
(lp2338
tp2339
a(L1167861556L
L0L
(lp2340
(lp2341
tp2342
a(L818997085L
L0L
(lp2343
(lp2344
tp2345
a(L3360570486L
L0L
(lp2346
(lp2347
tp2348
a(L3020204L
L0L
(lp2349
(lp2350
tp2351
a(L912913761L
L3785322319L
(lp2352
(lp2353
Vesp_log_early_timestamp
p2354
atp2355
atp2356
sI1074245268
(Vrtc_clk_8md256_enabled
p2357
(lp2358
(L3280891619L
L0L
(lp2359
(lp2360
tp2361
atp2362
sI1074248084
(Vesp_rom_spiflash_write_encrypted
p2363
(lp2364
(L1944247967L
L0L
(lp2365
(lp2366
tp2367
a(L484831750L
L0L
(lp2368
(lp2369
tp2370
a(L97689L
L0L
(lp2371
(lp2372
tp2373
a(L3061232074L
L0L
(lp2374
(lp2375
tp2376
a(L364518710L
L0L
(lp2377
(lp2378
tp2379
a(L1309309703L
L3785322319L
(lp2380
(lp2381
Vesp_rom_spiflash_write
p2382
atp2383
a(L1246748027L
L0L
(lp2384
(lp2385
tp2386
a(L735741265L
L0L
(lp2387
(lp2388
tp2389
atp2390
sI1074269340
(Vbootloader_flash_update_id
p2391
(lp2392
(L3587584986L
L3785322319L
(lp2393
(lp2394
Vbootloader_read_flash_id
p2395
atp2396
atp2397
sI1074237336
(Vbootloader_common_select_otadata
p2398
(lp2399
(L4071767857L
L0L
(lp2400
(lp2401
tp2402
a(L1999329187L
L0L
(lp2403
(lp2404
tp2405
a(L3846398843L
L0L
(lp2406
(lp2407
tp2408
a(L2501968171L
L0L
(lp2409
(lp2410
tp2411
a(L3360570486L
L0L
(lp2412
(lp2413
tp2414
a(L2045232488L
L0L
(lp2415
(lp2416
tp2417
a(L1243525916L
L0L
(lp2418
(lp2419
tp2420
a(L3094144427L
L0L
(lp2421
(lp2422
tp2423
a(L2399509845L
L0L
(lp2424
(lp2425
tp2426
a(L1641201884L
L0L
(lp2427
(lp2428
tp2429
atp2430
sI1074245528
(Vrtc_clk_fast_src_get
p2431
(lp2432
(L2355769504L
L0L
(lp2433
(lp2434
tp2435
atp2436
sI1074235556
(Vbootloader_flash_read_sfdp
p2437
(lp2438
(L711701400L
L0L
(lp2439
(lp2440
tp2441
a(L3305374083L
L3785322319L
(lp2442
(lp2443
V__assert_func
p2444
atp2445
a(L3704332455L
L3785322319L
(lp2446
(lp2447
Vbootloader_flash_execute_command_common
p2448
atp2449
atp2450
sI1074242724
(Vimage_load
p2451
(lp2452
(L3048705773L
L0L
(lp2453
(lp2454
tp2455
a(L3463713141L
L0L
(lp2456
(lp2457
tp2458
a(L3309803581L
L0L
(lp2459
(lp2460
tp2461
a(L256049682L
L0L
(lp2462
(lp2463
tp2464
a(L1935188817L
L0L
(lp2465
(lp2466
tp2467
a(L3028481L
L0L
(lp2468
(lp2469
tp2470
a(L3021749L
L0L
(lp2471
(lp2472
tp2473
a(L106L
L0L
(lp2474
(lp2475
tp2476
a(L585264737L
L0L
(lp2477
(lp2478
tp2479
a(L1145291904L
L3785322319L
(lp2480
(lp2481
Vprocess_image_header
p2482
atp2483
a(L823859500L
L0L
(lp2484
(lp2485
tp2486
a(L3061291474L
L0L
(lp2487
(lp2488
tp2489
a(L4106474008L
L3785322319L
(lp2490
(lp2491
Vprocess_segments
p2492
atp2493
a(L3868840998L
L0L
(lp2494
(lp2495
tp2496
a(L2539156582L
L0L
(lp2497
(lp2498
tp2499
a(L1827898452L
L3785322319L
(lp2500
(lp2501
Vprocess_checksum
p2502
atp2503
a(L2214715179L
L3785322319L
(lp2504
(lp2505
Vprocess_appended_hash_and_sig
p2506
atp2507
a(L3028481L
L0L
(lp2508
(lp2509
tp2510
a(L2902417580L
L0L
(lp2511
(lp2512
tp2513
a(L3285560995L
L3785322319L
(lp2514
(lp2515
Vbootloader_sha256_finish
p2516
atp2517
a(L3946560000L
L0L
(lp2518
(lp2519
tp2520
a(L93674324L
L0L
(lp2521
(lp2522
tp2523
a(L1697897005L
L0L
(lp2524
(lp2525
tp2526
a(L772115669L
L0L
(lp2527
(lp2528
tp2529
a(L1179424413L
L0L
(lp2530
(lp2531
tp2532
a(L3928150917L
L0L
(lp2533
(lp2534
tp2535
a(L106L
L0L
(lp2536
(lp2537
tp2538
a(L3871473710L
L0L
(lp2539
(lp2540
tp2541
a(L3884726427L
L0L
(lp2542
(lp2543
tp2544
a(L106L
L0L
(lp2545
(lp2546
tp2547
a(L3020187L
L0L
(lp2548
(lp2549
tp2550
a(L1154787525L
L3785322319L
(lp2551
(lp2552
Vesp_log_early_timestamp
p2553
atp2554
a(L2868044067L
L0L
(lp2555
(lp2556
tp2557
a(L1179764900L
L0L
(lp2558
(lp2559
tp2560
a(L2332746046L
L3785322319L
(lp2561
(lp2562
Vbootloader_sha256_finish
p2563
atp2564
a(L2040089937L
L0L
(lp2565
(lp2566
tp2567
a(L3020204L
L0L
(lp2568
(lp2569
tp2570
a(L2321110974L
L0L
(lp2571
(lp2572
tp2573
a(L106L
L0L
(lp2574
(lp2575
tp2576
a(L4011122867L
L1880226080L
(lp2577
(lp2578
Vbootloader_sha256_finish
p2579
aVbootloader_debug_buffer
p2580
atp2581
a(L4175189927L
L1880226080L
(lp2582
(lp2583
Vesp_log_early_timestamp
p2584
aVbootloader_debug_buffer
p2585
atp2586
a(L3741653406L
L3785322319L
(lp2587
(lp2588
Vshould_load
p2589
atp2590
a(L2764257181L
L0L
(lp2591
(lp2592
tp2593
a(L3338774213L
L0L
(lp2594
(lp2595
tp2596
a(L3464541874L
L0L
(lp2597
(lp2598
tp2599
a(L3349572949L
L0L
(lp2600
(lp2601
tp2602
a(L2192292519L
L0L
(lp2603
(lp2604
tp2605
a(L106L
L0L
(lp2606
(lp2607
tp2608
a(L26615924L
L0L
(lp2609
(lp2610
tp2611
a(L1299866312L
L0L
(lp2612
(lp2613
tp2614
a(L3010020263L
L0L
(lp2615
(lp2616
tp2617
atp2618
sI1074244516
(Vwdt_hal_write_protect_enable
p2619
(lp2620
(L387778158L
L0L
(lp2621
(lp2622
tp2623
a(L4195472003L
L0L
(lp2624
(lp2625
tp2626
a(L3360570486L
L0L
(lp2627
(lp2628
tp2629
a(L802523425L
L0L
(lp2630
(lp2631
tp2632
atp2633
sI1074267820
(Vwdt_reset_info_dump
p2634
(lp2635
(L4037458708L
L0L
(lp2636
(lp2637
tp2638
a(L1893013636L
L0L
(lp2639
(lp2640
tp2641
a(L217258670L
L0L
(lp2642
(lp2643
tp2644
a(L1103285333L
L0L
(lp2645
(lp2646
tp2647
a(L1673700805L
L3785322319L
(lp2648
(lp2649
Vesp_log_early_timestamp
p2650
atp2651
a(L2967992533L
L0L
(lp2652
(lp2653
tp2654
a(L1603705174L
L0L
(lp2655
(lp2656
tp2657
a(L3868634945L
L3785322319L
(lp2658
(lp2659
Vesp_log_early_timestamp
p2660
atp2661
atp2662
sI1074268844
(Vbootloader_init_mem
p2663
(lp2664
(L1287383080L
L3785322319L
(lp2665
(lp2666
Vesp_cpu_configure_region_protection
p2667
atp2668
atp2669
sI1074269356
(Vbootloader_init_spi_flash
p2670
(lp2671
(L1156132900L
L2485746240L
(lp2672
(lp2673
Vbootloader_flash_gpio_config
p2674
aVbootloader_flash_dummy_config
p2675
aVbootloader_flash_cs_timing_config
p2676
aVbootloader_flash_unlock
p2677
atp2678
a(L582446944L
L0L
(lp2679
(lp2680
tp2681
a(L3652859485L
L0L
(lp2682
(lp2683
tp2684
a(L3201442148L
L0L
(lp2685
(lp2686
tp2687
a(L1305670861L
L3785322319L
(lp2688
(lp2689
Vesp_log_early_timestamp
p2690
atp2691
a(L2177628073L
L0L
(lp2692
(lp2693
tp2694
a(L2181322157L
L0L
(lp2695
(lp2696
tp2697
a(L2221033560L
L0L
(lp2698
(lp2699
tp2700
a(L2206256728L
L0L
(lp2701
(lp2702
tp2703
a(L703426222L
L0L
(lp2704
(lp2705
tp2706
a(L706396929L
L3785322319L
(lp2707
(lp2708
Vesp_log_early_timestamp
p2709
atp2710
a(L93674324L
L0L
(lp2711
(lp2712
tp2713
a(L3405401315L
L0L
(lp2714
(lp2715
tp2716
a(L3738746921L
L0L
(lp2717
(lp2718
tp2719
a(L460460808L
L0L
(lp2720
(lp2721
tp2722
a(L3746143366L
L0L
(lp2723
(lp2724
tp2725
a(L650365607L
L3785322319L
(lp2726
(lp2727
Vesp_log_early_timestamp
p2728
atp2729
a(L93674324L
L0L
(lp2730
(lp2731
tp2732
a(L3422553167L
L0L
(lp2733
(lp2734
tp2735
a(L1707909459L
L0L
(lp2736
(lp2737
tp2738
a(L4101522284L
L0L
(lp2739
(lp2740
tp2741
a(L81086371L
L3785322319L
(lp2742
(lp2743
Vbootloader_enable_wp
p2744
atp2745
a(L3907331784L
L0L
(lp2746
(lp2747
tp2748
atp2749
sI1074243488
(Vwdt_hal_init
p2750
(lp2751
(L584362441L
L0L
(lp2752
(lp2753
tp2754
a(L106L
L0L
(lp2755
(lp2756
tp2757
a(L2104869666L
L0L
(lp2758
(lp2759
tp2760
a(L3076988543L
L0L
(lp2761
(lp2762
tp2763
a(L3642440310L
L0L
(lp2764
(lp2765
tp2766
a(L3028464L
L0L
(lp2767
(lp2768
tp2769
a(L826451645L
L0L
(lp2770
(lp2771
tp2772
a(L2196941787L
L0L
(lp2773
(lp2774
tp2775
a(L26809647L
L0L
(lp2776
(lp2777
tp2778
a(L3360570486L
L0L
(lp2779
(lp2780
tp2781
atp2782
sI1074240416
(Vbootloader_debug_buffer
p2783
(lp2784
(L2100504542L
L0L
(lp2785
(lp2786
tp2787
atp2788
sI1074235808
(Vbootloader_flash_cs_timing_config
p2789
(lp2790
(L1940014330L
L0L
(lp2791
(lp2792
tp2793
atp2794
sI1074245292
(Vrtc_clk_slow_src_set
p2795
(lp2796
(L351921003L
L0L
(lp2797
(lp2798
tp2799
a(L3020187L
L0L
(lp2800
(lp2801
tp2802
a(L3028481L
L0L
(lp2803
(lp2804
tp2805
a(L487821223L
L0L
(lp2806
(lp2807
tp2808
a(L2160049175L
L0L
(lp2809
(lp2810
tp2811
a(L1851908495L
L0L
(lp2812
(lp2813
tp2814
a(L382170874L
L0L
(lp2815
(lp2816
tp2817
a(L3138544334L
L0L
(lp2818
(lp2819
tp2820
a(L94425498L
L3785322319L
(lp2821
(lp2822
Vabort
p2823
atp2824
atp2825
sI1074238120
(Vbootloader_enable_wp
p2826
(lp2827
(L1117825804L
L3785322319L
(lp2828
(lp2829
Vbootloader_execute_flash_command
p2830
atp2831
atp2832
sI1074240424
(Vbootloader_sha256_start
p2833
(lp2834
(L260677377L
L0L
(lp2835
(lp2836
tp2837
atp2838
sI1074245544
(Vrtc_clk_xtal_freq_get
p2839
(lp2840
(L1996970978L
L0L
(lp2841
(lp2842
tp2843
a(L2847936993L
L0L
(lp2844
(lp2845
tp2846
a(L2568986948L
L0L
(lp2847
(lp2848
tp2849
a(L3360570486L
L0L
(lp2850
(lp2851
tp2852
atp2853
sI1074247592
(Vesp_rom_spiflash_program_page_internal
p2854
(lp2855
(L2569069283L
L0L
(lp2856
(lp2857
tp2858
a(L2258688483L
L0L
(lp2859
(lp2860
tp2861
a(L3360570486L
L0L
(lp2862
(lp2863
tp2864
a(L328133326L
L0L
(lp2865
(lp2866
tp2867
a(L4235661475L
L3785322319L
(lp2868
(lp2869
Vesp_rom_spiflash_wait_idle
p2870
atp2871
a(L1299866312L
L0L
(lp2872
(lp2873
tp2874
a(L3212356251L
L3785322319L
(lp2875
(lp2876
Vesp_rom_spiflash_enable_write
p2877
atp2878
a(L1757758545L
L0L
(lp2879
(lp2880
tp2881
a(L3222092521L
L0L
(lp2882
(lp2883
tp2884
a(L2953702749L
L0L
(lp2885
(lp2886
tp2887
a(L2989032L
L0L
(lp2888
(lp2889
tp2890
a(L1965622133L
L0L
(lp2891
(lp2892
tp2893
a(L2236003503L
L0L
(lp2894
(lp2895
tp2896
a(L1958113242L
L0L
(lp2897
(lp2898
tp2899
a(L106L
L0L
(lp2900
(lp2901
tp2902
a(L3112950080L
L0L
(lp2903
(lp2904
tp2905
a(L1868606439L
L0L
(lp2906
(lp2907
tp2908
a(L1008983218L
L0L
(lp2909
(lp2910
tp2911
a(L1933954923L
L0L
(lp2912
(lp2913
tp2914
a(L1147866918L
L0L
(lp2915
(lp2916
tp2917
a(L3871602522L
L0L
(lp2918
(lp2919
tp2920
atp2921
sI1074236848
(Vefuse_hal_get_minor_chip_version
p2922
(lp2923
(L2721608854L
L0L
(lp2924
(lp2925
tp2926
atp2927
sI1074238640
(Vcache_ll_l1_get_bus
p2928
(lp2929
(L3820023252L
L0L
(lp2930
(lp2931
tp2932
a(L94425498L
L3785322319L
(lp2933
(lp2934
Vabort
p2935
atp2936
a(L3179088012L
L0L
(lp2937
(lp2938
tp2939
a(L3485549502L
L0L
(lp2940
(lp2941
tp2942
a(L892952750L
L0L
(lp2943
(lp2944
tp2945
a(L1182811810L
L0L
(lp2946
(lp2947
tp2948
a(L1101742417L
L0L
(lp2949
(lp2950
tp2951
a(L1100767927L
L0L
(lp2952
(lp2953
tp2954
a(L3360570486L
L0L
(lp2955
(lp2956
tp2957
a(L2767111967L
L0L
(lp2958
(lp2959
tp2960
a(L2882938163L
L0L
(lp2961
(lp2962
tp2963
a(L2927201858L
L0L
(lp2964
(lp2965
tp2966
a(L2258718273L
L0L
(lp2967
(lp2968
tp2969
a(L2580713941L
L0L
(lp2970
(lp2971
tp2972
a(L2748641547L
L0L
(lp2973
(lp2974
tp2975
a(L2752340901L
L0L
(lp2976
(lp2977
tp2978
a(L1641149277L
L0L
(lp2979
(lp2980
tp2981
a(L3211405977L
L0L
(lp2982
(lp2983
tp2984
a(L3027019L
L0L
(lp2985
(lp2986
tp2987
a(L1299866560L
L0L
(lp2988
(lp2989
tp2990
a(L1299866436L
L0L
(lp2991
(lp2992
tp2993
atp2994
sI1074240444
(Vbootloader_sha256_data
p2995
(lp2996
(L4066096136L
L0L
(lp2997
(lp2998
tp2999
a(L110883720L
L0L
(lp3000
(lp3001
tp3002
a(L3884092851L
L3785322319L
(lp3003
(lp3004
V__assert_func
p3005
atp3006
a(L498498478L
L0L
(lp3007
(lp3008
tp3009
a(L534463199L
L0L
(lp3010
(lp3011
tp3012
a(L2910371777L
L0L
(lp3013
(lp3014
tp3015
a(L3360570486L
L0L
(lp3016
(lp3017
tp3018
a(L1788837773L
L0L
(lp3019
(lp3020
tp3021
a(L248495140L
L0L
(lp3022
(lp3023
tp3024
a(L106045974L
L0L
(lp3025
(lp3026
tp3027
a(L4275021735L
L0L
(lp3028
(lp3029
tp3030
a(L814105420L
L0L
(lp3031
(lp3032
tp3033
a(L1394964493L
L0L
(lp3034
(lp3035
tp3036
a(L2437413408L
L0L
(lp3037
(lp3038
tp3039
a(L702738185L
L0L
(lp3040
(lp3041
tp3042
a(L3745004802L
L0L
(lp3043
(lp3044
tp3045
atp3046
sI1074238908
(Vload_image
p3047
(lp3048
(L4055976749L
L1832448559L
(lp3049
(lp3050
Vesp_log_early_timestamp
p3051
aVbootloader_random_disable
p3052
aVbootloader_ana_clock_glitch_reset_config
p3053
atp3054
a(L2261049225L
L0L
(lp3055
(lp3056
tp3057
a(L106L
L0L
(lp3058
(lp3059
tp3060
a(L452592812L
L3758435744L
(lp3061
(lp3062
Vmmu_hal_unmap_all
p3063
aVcache_ll_l1_get_bus
p3064
aVcache_ll_l1_enable_bus
p3065
aVcache_ll_l1_get_bus
p3066
aVcache_ll_l1_enable_bus
p3067
aVcache_ll_l1_get_bus
p3068
aVcache_ll_l1_enable_bus
p3069
aVcache_ll_l1_get_bus
p3070
aVcache_ll_l1_enable_bus
p3071
aVbootloader_console_deinit
p3072
atp3073
a(L1385141500L
L0L
(lp3074
(lp3075
tp3076
a(L2902417580L
L0L
(lp3077
(lp3078
tp3079
a(L4167095070L
L3785322319L
(lp3080
(lp3081
Vesp_log_early_timestamp
p3082
atp3083
a(L2552261596L
L0L
(lp3084
(lp3085
tp3086
a(L70617440L
L0L
(lp3087
(lp3088
tp3089
a(L3020204L
L0L
(lp3090
(lp3091
tp3092
a(L1040324029L
L3785322319L
(lp3093
(lp3094
Vesp_log_early_timestamp
p3095
atp3096
a(L3291469664L
L0L
(lp3097
(lp3098
tp3099
a(L2591655545L
L0L
(lp3100
(lp3101
tp3102
atp3103
sI1074238140
(Vbootloader_mmap_get_free_pages
p3104
(lp3105
(L1496516875L
L0L
(lp3106
(lp3107
tp3108
atp3109
sI1074268852
(Vbootloader_random_enable
p3110
(lp3111
(L3678846225L
L0L
(lp3112
(lp3113
tp3114
atp3115
sI1074245816
(Vrtc_clk_xtal_freq_update
p3116
(lp3117
(L1600643482L
L0L
(lp3118
(lp3119
tp3120
a(L3509357017L
L0L
(lp3121
(lp3122
tp3123
a(L2266180931L
L0L
(lp3124
(lp3125
tp3126
atp3127
sI1074238148
(Vbootloader_fill_random
p3128
(lp3129
(L1233865241L
L0L
(lp3130
(lp3131
tp3132
a(L3569542132L
L3785322319L
(lp3133
(lp3134
V__assert_func
p3135
atp3136
a(L1882547218L
L0L
(lp3137
(lp3138
tp3139
a(L2910371777L
L0L
(lp3140
(lp3141
tp3142
a(L95634693L
L0L
(lp3143
(lp3144
tp3145
a(L3630908706L
L0L
(lp3146
(lp3147
tp3148
a(L160162640L
L0L
(lp3149
(lp3150
tp3151
a(L97689L
L0L
(lp3152
(lp3153
tp3154
a(L3360570486L
L0L
(lp3155
(lp3156
tp3157
atp3158
sI1074269644
(Vbootloader_clear_bss_section
p3159
(lp3160
(L3097344834L
L0L
(lp3161
(lp3162
tp3163
atp3164
sI1074241984
(Vprocess_segments
p3165
(lp3166
(L1326203493L
L0L
(lp3167
(lp3168
tp3169
a(L1640778736L
L0L
(lp3170
(lp3171
tp3172
a(L3782401745L
L0L
(lp3173
(lp3174
tp3175
a(L106L
L0L
(lp3176
(lp3177
tp3178
a(L3028481L
L0L
(lp3179
(lp3180
tp3181
a(L1742099198L
L3785322319L
(lp3182
(lp3183
Vesp_log_early_timestamp
p3184
atp3185
a(L761135359L
L3785322319L
(lp3186
(lp3187
Vbootloader_flash_read
p3188
atp3189
a(L3061347840L
L3785322319L
(lp3190
(lp3191
Vesp_log_early_timestamp
p3192
atp3193
a(L3871473710L
L0L
(lp3194
(lp3195
tp3196
a(L219417435L
L0L
(lp3197
(lp3198
tp3199
a(L616767314L
L3785322319L
(lp3200
(lp3201
Vbootloader_sha256_data
p3202
atp3203
a(L707062298L
L0L
(lp3204
(lp3205
tp3206
a(L2258837437L
L0L
(lp3207
(lp3208
tp3209
a(L1764156528L
L0L
(lp3210
(lp3211
tp3212
a(L3028481L
L0L
(lp3213
(lp3214
tp3215
a(L254329145L
L3785322319L
(lp3216
(lp3217
Vesp_log_early_timestamp
p3218
atp3219
a(L568253874L
L0L
(lp3220
(lp3221
tp3222
a(L2349343057L
L0L
(lp3223
(lp3224
tp3225
a(L3802069243L
L0L
(lp3226
(lp3227
tp3228
a(L3794462993L
L0L
(lp3229
(lp3230
tp3231
a(L2258867228L
L0L
(lp3232
(lp3233
tp3234
a(L2277415887L
L0L
(lp3235
(lp3236
tp3237
a(L3177376558L
L0L
(lp3238
(lp3239
tp3240
a(L3028481L
L0L
(lp3241
(lp3242
tp3243
a(L113671451L
L3785322319L
(lp3244
(lp3245
Vesp_log_early_timestamp
p3246
atp3247
a(L2640606608L
L0L
(lp3248
(lp3249
tp3250
a(L3028481L
L0L
(lp3251
(lp3252
tp3253
a(L1304081863L
L3785322319L
(lp3254
(lp3255
Vesp_log_early_timestamp
p3256
atp3257
a(L3312579080L
L0L
(lp3258
(lp3259
tp3260
a(L2902417580L
L0L
(lp3261
(lp3262
tp3263
a(L2902417580L
L0L
(lp3264
(lp3265
tp3266
a(L1229952296L
L3785322319L
(lp3267
(lp3268
Vverify_load_addresses
p3269
atp3270
a(L3783935185L
L3785322319L
(lp3271
(lp3272
Vbootloader_mmap_get_free_pages
p3273
atp3274
a(L3028481L
L0L
(lp3275
(lp3276
tp3277
a(L224879076L
L0L
(lp3278
(lp3279
tp3280
a(L142590671L
L0L
(lp3281
(lp3282
tp3283
a(L3028481L
L0L
(lp3284
(lp3285
tp3286
a(L94425498L
L3785322319L
(lp3287
(lp3288
Vesp_log_early_timestamp
p3289
atp3290
a(L2482970521L
L0L
(lp3291
(lp3292
tp3293
a(L4085121624L
L3785322319L
(lp3294
(lp3295
Vshould_load
p3296
atp3297
a(L3028481L
L0L
(lp3298
(lp3299
tp3300
a(L3799683059L
L3785322319L
(lp3301
(lp3302
Vesp_log_early_timestamp
p3303
atp3304
a(L106L
L0L
(lp3305
(lp3306
tp3307
a(L3815630522L
L0L
(lp3308
(lp3309
tp3310
a(L1373549761L
L3785322319L
(lp3311
(lp3312
Vesp_log_early_timestamp
p3313
atp3314
a(L2629678223L
L0L
(lp3315
(lp3316
tp3317
a(L2684012095L
L0L
(lp3318
(lp3319
tp3320
a(L3357777304L
L3785322319L
(lp3321
(lp3322
Vbootloader_mmap
p3323
atp3324
a(L4263532617L
L3785322319L
(lp3325
(lp3326
Vesp_log_early_timestamp
p3327
atp3328
a(L1698460186L
L0L
(lp3329
(lp3330
tp3331
a(L719832453L
L0L
(lp3332
(lp3333
tp3334
a(L642150438L
L0L
(lp3335
(lp3336
tp3337
a(L1595421496L
L3785322319L
(lp3338
(lp3339
Vbootloader_munmap
p3340
atp3341
a(L2757579158L
L0L
(lp3342
(lp3343
tp3344
a(L2356270618L
L3785322319L
(lp3345
(lp3346
Vbootloader_fill_random
p3347
atp3348
a(L3277879431L
L0L
(lp3349
(lp3350
tp3351
a(L3281573515L
L0L
(lp3352
(lp3353
tp3354
a(L3450268858L
L0L
(lp3355
(lp3356
tp3357
a(L3021749L
L0L
(lp3358
(lp3359
tp3360
a(L322434465L
L0L
(lp3361
(lp3362
tp3363
a(L2494883302L
L0L
(lp3364
(lp3365
tp3366
a(L2902417580L
L0L
(lp3367
(lp3368
tp3369
a(L2991893400L
L0L
(lp3370
(lp3371
tp3372
a(L22854698L
L0L
(lp3373
(lp3374
tp3375
a(L1426980959L
L0L
(lp3376
(lp3377
tp3378
a(L1841482652L
L0L
(lp3379
(lp3380
tp3381
a(L653501462L
L0L
(lp3382
(lp3383
tp3384
a(L3310548426L
L3785322319L
(lp3385
(lp3386
Vbootloader_sha256_data
p3387
atp3388
a(L90548756L
L0L
(lp3389
(lp3390
tp3391
a(L708495868L
L0L
(lp3392
(lp3393
tp3394
a(L2364005371L
L0L
(lp3395
(lp3396
tp3397
atp3398
sI1074239424
(Vbootloader_utility_load_partition_table
p3399
(lp3400
(L3976765673L
L3785322319L
(lp3401
(lp3402
Vbootloader_mmap
p3403
atp3404
a(L649959027L
L3785322319L
(lp3405
(lp3406
Vesp_log_early_timestamp
p3407
atp3408
a(L2258688482L
L0L
(lp3409
(lp3410
tp3411
a(L3360570486L
L0L
(lp3412
(lp3413
tp3414
a(L2379286607L
L3785322319L
(lp3415
(lp3416
Vesp_partition_table_verify
p3417
atp3418
a(L1285285103L
L3785322319L
(lp3419
(lp3420
Vesp_log_early_timestamp
p3421
atp3422
a(L529589784L
L1880226080L
(lp3423
(lp3424
Vesp_log_early_timestamp
p3425
aVesp_log_early_timestamp
p3426
atp3427
a(L650140130L
L0L
(lp3428
(lp3429
tp3430
a(L1145912169L
L1880226080L
(lp3431
(lp3432
Vbootloader_munmap
p3433
aVesp_log_early_timestamp
p3434
atp3435
a(L521126897L
L0L
(lp3436
(lp3437
tp3438
a(L3028464L
L0L
(lp3439
(lp3440
tp3441
a(L106L
L0L
(lp3442
(lp3443
tp3444
a(L1403802546L
L0L
(lp3445
(lp3446
tp3447
a(L3362706168L
L3785322319L
(lp3448
(lp3449
Vesp_log_early_timestamp
p3450
atp3451
a(L3990577774L
L0L
(lp3452
(lp3453
tp3454
a(L3020187L
L0L
(lp3455
(lp3456
tp3457
a(L2318212397L
L0L
(lp3458
(lp3459
tp3460
a(L4208504540L
L0L
(lp3461
(lp3462
tp3463
a(L1859217843L
L0L
(lp3464
(lp3465
tp3466
a(L2546691246L
L0L
(lp3467
(lp3468
tp3469
a(L3797730446L
L0L
(lp3470
(lp3471
tp3472
a(L106L
L0L
(lp3473
(lp3474
tp3475
a(L93674324L
L0L
(lp3476
(lp3477
tp3478
a(L1583301205L
L0L
(lp3479
(lp3480
tp3481
a(L1938133383L
L0L
(lp3482
(lp3483
tp3484
a(L1630400759L
L0L
(lp3485
(lp3486
tp3487
a(L106L
L0L
(lp3488
(lp3489
tp3490
a(L924830715L
L0L
(lp3491
(lp3492
tp3493
a(L106L
L0L
(lp3494
(lp3495
tp3496
a(L568204987L
L0L
(lp3497
(lp3498
tp3499
atp3500
sI1074236864
(Vesp_dport_access_reg_read
p3501
(lp3502
(L1099794772L
L0L
(lp3503
(lp3504
tp3505
atp3506
sI1074244544
(Vwdt_hal_enable
p3507
(lp3508
(L2299130915L
L0L
(lp3509
(lp3510
tp3511
a(L165794138L
L0L
(lp3512
(lp3513
tp3514
a(L3360570486L
L0L
(lp3515
(lp3516
tp3517
a(L2847657174L
L0L
(lp3518
(lp3519
tp3520
atp3521
sI1074245056
(Vrtc_clk_32k_enable
p3522
(lp3523
(L753387299L
L0L
(lp3524
(lp3525
tp3526
a(L3776007933L
L3785322319L
(lp3527
(lp3528
Vrtc_clk_32k_enable_common
p3529
atp3530
a(L3496950L
L0L
(lp3531
(lp3532
tp3533
a(L2215760449L
L0L
(lp3534
(lp3535
tp3536
atp3537
sI1074236876
(Vis_xmc_chip_strict
p3538
(lp3539
(L1286841609L
L0L
(lp3540
(lp3541
tp3542
a(L2234016759L
L0L
(lp3543
(lp3544
tp3545
a(L1069027148L
L0L
(lp3546
(lp3547
tp3548
a(L3021749L
L0L
(lp3549
(lp3550
tp3551
a(L1900148749L
L0L
(lp3552
(lp3553
tp3554
a(L1936875721L
L0L
(lp3555
(lp3556
tp3557
a(L3356166509L
L0L
(lp3558
(lp3559
tp3560
a(L1937769451L
L0L
(lp3561
(lp3562
tp3563
a(L2137658907L
L0L
(lp3564
(lp3565
tp3566
a(L4265949734L
L0L
(lp3567
(lp3568
tp3569
a(L3360570486L
L0L
(lp3570
(lp3571
tp3572
atp3573
sI1074268612
(Vbootloader_clock_configure
p3574
(lp3575
(L2559598596L
L1880226080L
(lp3576
(lp3577
Vesp_rom_uart_tx_wait_idle
p3578
aVefuse_hal_chip_revision
p3579
atp3580
a(L1714060431L
L0L
(lp3581
(lp3582
tp3583
a(L3042575429L
L0L
(lp3584
(lp3585
tp3586
a(L106L
L0L
(lp3587
(lp3588
tp3589
a(L3646321382L
L1832448559L
(lp3590
(lp3591
Vrtc_clk_slow_src_get
p3592
aVrtc_clk_fast_src_get
p3593
aVrtc_clk_init
p3594
atp3595
a(L3297562552L
L0L
(lp3596
(lp3597
tp3598
a(L1624159269L
L3785322319L
(lp3599
(lp3600
Vrtc_clk_apb_freq_get
p3601
atp3602
a(L106L
L0L
(lp3603
(lp3604
tp3605
a(L106L
L0L
(lp3606
(lp3607
tp3608
atp3609
sI1074237652
(Vbootloader_munmap
p3610
(lp3611
(L1697403118L
L0L
(lp3612
(lp3613
tp3614
a(L3761142808L
L0L
(lp3615
(lp3616
tp3617
a(L3360570486L
L0L
(lp3618
(lp3619
tp3620
atp3621
sI1074245584
(Vrtc_clk_cpu_freq_mhz_to_config
p3622
(lp3623
(L908718885L
L3785322319L
(lp3624
(lp3625
Vrtc_clk_xtal_freq_get
p3626
atp3627
a(L60460069L
L0L
(lp3628
(lp3629
tp3630
a(L3802072124L
L0L
(lp3631
(lp3632
tp3633
a(L3159006042L
L0L
(lp3634
(lp3635
tp3636
a(L3360570486L
L0L
(lp3637
(lp3638
tp3639
a(L895147205L
L0L
(lp3640
(lp3641
tp3642
a(L3970036657L
L0L
(lp3643
(lp3644
tp3645
a(L2731353429L
L0L
(lp3646
(lp3647
tp3648
a(L1555485793L
L0L
(lp3649
(lp3650
tp3651
a(L2258897023L
L0L
(lp3652
(lp3653
tp3654
a(L1947499251L
L0L
(lp3655
(lp3656
tp3657
a(L1306331021L
L0L
(lp3658
(lp3659
tp3660
atp3661
sI1074270928
(Vmpu_hal_set_region_access
p3662
(lp3663
(L3538356822L
L0L
(lp3664
(lp3665
tp3666
a(L93674324L
L0L
(lp3667
(lp3668
tp3669
a(L2910371777L
L0L
(lp3670
(lp3671
tp3672
a(L3472092938L
L0L
(lp3673
(lp3674
tp3675
a(L3020187L
L0L
(lp3676
(lp3677
tp3678
a(L3360570486L
L0L
(lp3679
(lp3680
tp3681
a(L2258718273L
L0L
(lp3682
(lp3683
tp3684
a(L3446648619L
L0L
(lp3685
(lp3686
tp3687
a(L3739532189L
L0L
(lp3688
(lp3689
tp3690
a(L1300789895L
L0L
(lp3691
(lp3692
tp3693
atp3694
sI1074236636
(Vesp_rom_uart_set_clock_baudrate
p3695
(lp3696
(L2319441726L
L0L
(lp3697
(lp3698
tp3699
a(L2334991263L
L0L
(lp3700
(lp3701
tp3702
a(L2805931295L
L0L
(lp3703
(lp3704
tp3705
a(L1916726935L
L0L
(lp3706
(lp3707
tp3708
atp3709
sI1074248924
(V_fini
p3710
(lp3711
(L3493042598L
L0L
(lp3712
(lp3713
tp3714
atp3715
sI1074269908
(Vbootloader_enable_random
p3716
(lp3717
(L1236070240L
L1880226080L
(lp3718
(lp3719
Vesp_log_early_timestamp
p3720
aVbootloader_random_enable
p3721
atp3722
atp3723
sI1074241240
(Vbootloader_util_regions_overlap
p3724
(lp3725
(L2762640130L
L0L
(lp3726
(lp3727
tp3728
a(L2198512677L
L0L
(lp3729
(lp3730
tp3731
a(L2217655633L
L3785322319L
(lp3732
(lp3733
V__assert_func
p3734
atp3735
a(L97642L
L0L
(lp3736
(lp3737
tp3738
a(L996187529L
L0L
(lp3739
(lp3740
tp3741
a(L366123053L
L0L
(lp3742
(lp3743
tp3744
a(L2258867228L
L0L
(lp3745
(lp3746
tp3747
a(L1253626734L
L0L
(lp3748
(lp3749
tp3750
a(L2258897019L
L0L
(lp3751
(lp3752
tp3753
a(L3109269495L
L0L
(lp3754
(lp3755
tp3756
atp3757
sI1074235608
(Vbootloader_read_flash_id
p3758
(lp3759
(L549578328L
L3785322319L
(lp3760
(lp3761
Vbootloader_execute_flash_command
p3762
atp3763
atp3764
sI1074237412
(Vspi_to_esp_err
p3765
(lp3766
(L3520881295L
L0L
(lp3767
(lp3768
tp3769
a(L2402400019L
L0L
(lp3770
(lp3771
tp3772
a(L3952441574L
L0L
(lp3773
(lp3774
tp3775
a(L3126521138L
L0L
(lp3776
(lp3777
tp3778
atp3779
sI1074236388
(Vbootloader_flash_dummy_config
p3780
(lp3781
(L262000646L
L0L
(lp3782
(lp3783
tp3784
a(L2761717557L
L0L
(lp3785
(lp3786
tp3787
a(L1849044936L
L0L
(lp3788
(lp3789
tp3790
a(L708753936L
L0L
(lp3791
(lp3792
tp3793
a(L1010450057L
L0L
(lp3794
(lp3795
tp3796
a(L3020204L
L0L
(lp3797
(lp3798
tp3799
a(L1610443405L
L0L
(lp3800
(lp3801
tp3802
a(L4032120524L
L0L
(lp3803
(lp3804
tp3805
a(L2336993863L
L0L
(lp3806
(lp3807
tp3808
a(L1298875775L
L0L
(lp3809
(lp3810
tp3811
a(L3880393601L
L0L
(lp3812
(lp3813
tp3814
a(L3328946209L
L0L
(lp3815
(lp3816
tp3817
a(L1610443436L
L0L
(lp3818
(lp3819
tp3820
atp3821
sI1074244836
(Vrtc_clk_cpu_freq_to_pll_mhz
p3822
(lp3823
(L3231135830L
L0L
(lp3824
(lp3825
tp3826
a(L3143442795L
L0L
(lp3827
(lp3828
tp3829
a(L2573072299L
L1880226080L
(lp3830
(lp3831
Vesp_rom_set_cpu_ticks_per_us
p3832
aVrtc_clk_wait_for_slow_cycle
p3833
atp3834
a(L4244595500L
L0L
(lp3835
(lp3836
tp3837
a(L3284807114L
L0L
(lp3838
(lp3839
tp3840
a(L94425498L
L3785322319L
(lp3841
(lp3842
Vabort
p3843
atp3844
a(L2258897019L
L0L
(lp3845
(lp3846
tp3847
a(L1113742378L
L0L
(lp3848
(lp3849
tp3850
a(L1306330990L
L0L
(lp3851
(lp3852
tp3853
atp3854
sI1074245860
(Vrtc_clk_apb_freq_update
p3855
(lp3856
(L187277447L
L0L
(lp3857
(lp3858
tp3859
atp3860
sI1074247392
(Vesp_rom_spiflash_read_status
p3861
(lp3862
(L862498644L
L0L
(lp3863
(lp3864
tp3865
a(L986368687L
L0L
(lp3866
(lp3867
tp3868
a(L4159619641L
L0L
(lp3869
(lp3870
tp3871
a(L2392720019L
L0L
(lp3872
(lp3873
tp3874
a(L2258688487L
L0L
(lp3875
(lp3876
tp3877
a(L4159619145L
L0L
(lp3878
(lp3879
tp3880
a(L718391887L
L0L
(lp3881
(lp3882
tp3883
a(L3117156279L
L0L
(lp3884
(lp3885
tp3886
a(L2123059967L
L0L
(lp3887
(lp3888
tp3889
a(L582177370L
L0L
(lp3890
(lp3891
tp3892
atp3893
sI1074248172
(Vesp_rom_spiflash_read
p3894
(lp3895
(L965113627L
L0L
(lp3896
(lp3897
tp3898
a(L2445587266L
L0L
(lp3899
(lp3900
tp3901
a(L2860271684L
L0L
(lp3902
(lp3903
tp3904
a(L2355528925L
L0L
(lp3905
(lp3906
tp3907
a(L106L
L0L
(lp3908
(lp3909
tp3910
a(L633884026L
L0L
(lp3911
(lp3912
tp3913
a(L106L
L0L
(lp3914
(lp3915
tp3916
a(L2817836888L
L0L
(lp3917
(lp3918
tp3919
a(L4180853104L
L0L
(lp3920
(lp3921
tp3922
a(L2027830512L
L0L
(lp3923
(lp3924
tp3925
a(L336550648L
L0L
(lp3926
(lp3927
tp3928
a(L2716935240L
L0L
(lp3929
(lp3930
tp3931
a(L106L
L0L
(lp3932
(lp3933
tp3934
a(L3721909221L
L3785322319L
(lp3935
(lp3936
Vesp_rom_spiflash_wait_idle
p3937
atp3938
a(L3021737L
L0L
(lp3939
(lp3940
tp3941
a(L106L
L0L
(lp3942
(lp3943
tp3944
a(L1868280504L
L0L
(lp3945
(lp3946
tp3947
a(L106L
L0L
(lp3948
(lp3949
tp3950
a(L750281353L
L0L
(lp3951
(lp3952
tp3953
a(L3897437082L
L0L
(lp3954
(lp3955
tp3956
a(L4122060822L
L0L
(lp3957
(lp3958
tp3959
a(L274970911L
L0L
(lp3960
(lp3961
tp3962
a(L2989032L
L0L
(lp3963
(lp3964
tp3965
a(L3819849625L
L0L
(lp3966
(lp3967
tp3968
a(L1660957140L
L0L
(lp3969
(lp3970
tp3971
a(L918125861L
L0L
(lp3972
(lp3973
tp3974
a(L3901821459L
L0L
(lp3975
(lp3976
tp3977
a(L2938794773L
L0L
(lp3978
(lp3979
tp3980
a(L2921907736L
L0L
(lp3981
(lp3982
tp3983
a(L4023125337L
L0L
(lp3984
(lp3985
tp3986
a(L1444843363L
L0L
(lp3987
(lp3988
tp3989
a(L849357610L
L0L
(lp3990
(lp3991
tp3992
a(L3803956571L
L0L
(lp3993
(lp3994
tp3995
a(L3333707777L
L0L
(lp3996
(lp3997
tp3998
a(L3251955268L
L0L
(lp3999
(lp4000
tp4001
a(L3418540920L
L0L
(lp4002
(lp4003
tp4004
a(L2322125794L
L0L
(lp4005
(lp4006
tp4007
a(L97689L
L0L
(lp4008
(lp4009
tp4010
a(L2258897019L
L0L
(lp4011
(lp4012
tp4013
a(L4014024819L
L0L
(lp4014
(lp4015
tp4016
a(L3621567083L
L0L
(lp4017
(lp4018
tp4019
atp4020
sI1074269668
(Vbootloader_read_bootloader_header
p4021
(lp4022
(L1999135233L
L3785322319L
(lp4023
(lp4024
Vbootloader_flash_read
p4025
atp4026
a(L63714649L
L3785322319L
(lp4027
(lp4028
Vesp_log_early_timestamp
p4029
atp4030
a(L735741265L
L0L
(lp4031
(lp4032
tp4033
atp4034
sI1074241768
(Vprocess_appended_hash_and_sig
p4035
(lp4036
(L1668084157L
L0L
(lp4037
(lp4038
tp4039
a(L2910371777L
L0L
(lp4040
(lp4041
tp4042
a(L4285188111L
L0L
(lp4043
(lp4044
tp4045
a(L1151175705L
L0L
(lp4046
(lp4047
tp4048
a(L97689L
L0L
(lp4049
(lp4050
tp4051
a(L4177371989L
L3785322319L
(lp4052
(lp4053
Vesp_log_early_timestamp
p4054
atp4055
a(L3620623795L
L0L
(lp4056
(lp4057
tp4058
a(L1464893571L
L3785322319L
(lp4059
(lp4060
Vbootloader_flash_read
p4061
atp4062
a(L735741265L
L0L
(lp4063
(lp4064
tp4065
atp4066
sI1074247920
(Vesp_rom_spiflash_write
p4067
(lp4068
(L1985805747L
L0L
(lp4069
(lp4070
tp4071
a(L2258688483L
L0L
(lp4072
(lp4073
tp4074
a(L3360570486L
L0L
(lp4075
(lp4076
tp4077
a(L3368132847L
L0L
(lp4078
(lp4079
tp4080
a(L3106685981L
L0L
(lp4081
(lp4082
tp4083
a(L3488660639L
L3785322319L
(lp4084
(lp4085
Vesp_rom_spiflash_program_page_internal
p4086
atp4087
a(L3543402353L
L3785322319L
(lp4088
(lp4089
Vesp_rom_spiflash_program_page_internal
p4090
atp4091
a(L4222526342L
L0L
(lp4092
(lp4093
tp4094
a(L2004208511L
L0L
(lp4095
(lp4096
tp4097
a(L564470656L
L0L
(lp4098
(lp4099
tp4100
a(L441922648L
L3785322319L
(lp4101
(lp4102
Vesp_rom_spiflash_program_page_internal
p4103
atp4104
a(L2302069176L
L0L
(lp4105
(lp4106
tp4107
atp4108
sI1074269936
(Vbootloader_print_banner
p4109
(lp4110
(L2664228546L
L1832448559L
(lp4111
(lp4112
Vesp_log_early_timestamp
p4113
aVesp_log_early_timestamp
p4114
aVesp_log_early_timestamp
p4115
atp4116
atp4117
sI1074270704
(Vrtc_vddsdio_get_config
p4118
(lp4119
(L1816791340L
L0L
(lp4120
(lp4121
tp4122
a(L1750635626L
L0L
(lp4123
(lp4124
tp4125
a(L3193418487L
L0L
(lp4126
(lp4127
tp4128
a(L1456856705L
L0L
(lp4129
(lp4130
tp4131
a(L115635292L
L0L
(lp4132
(lp4133
tp4134
a(L896053863L
L0L
(lp4135
(lp4136
tp4137
a(L1306330959L
L0L
(lp4138
(lp4139
tp4140
a(L2332659952L
L0L
(lp4141
(lp4142
tp4143
atp4144
sI1074245116
(Vrtc_clk_8m_enable
p4145
(lp4146
(L717560374L
L0L
(lp4147
(lp4148
tp4149
a(L4093063488L
L0L
(lp4150
(lp4151
tp4152
a(L2151320156L
L0L
(lp4153
(lp4154
tp4155
a(L711175840L
L0L
(lp4156
(lp4157
tp4158
a(L3360570486L
L0L
(lp4159
(lp4160
tp4161
a(L1318267208L
L0L
(lp4162
(lp4163
tp4164
a(L3974092177L
L0L
(lp4165
(lp4166
tp4167
atp4168
ssS'functionsdups'
p4169
g11
((lp4170
tp4171
Rp4172
sS'immediatedups'
p4173
g11
((lp4174
tp4175
Rp4176
sS'functiondups'
p4177
g11
((lp4178
tp4179
Rp4180
sS'fuzzy'
p4181
(dp4182
L1536L
I1074240804
sL438947497L
I1074245292
sL430153639L
I1074235920
sL3538491111L
I1074245436
sL16208487L
I1074234756
sL1053780185L
I1074247224
sL2919036513L
I1074238908
sL3769307958L
I1074267724
sL2680783959L
I1074235656
sL1385214606L
I1074241296
sL3709764864L
I1074242724
sL3512578114L
I1074238756
sL1419132215L
I1074238148
sL2469233929L
I1074240592
sL4024375675L
I1074245888
sL701833459L
I1074268612
sL720751058L
I1074267820
sL99291719L
I1074246000
sL1260046007L
I1074238640
sL3897252859L
I1074238556
sL2154298582L
I1074268044
sL3750957730L
I1074269356
sL1065525808L
I1074236876
sL2547957225L
I1074243220
sL2272466760L
I1074245676
sL2044047637L
I1074239424
sL1188065553L
I1074237704
sL1350409532L
I1074241052
sL94556391L
I1074245464
sL3210669721L
I1074245056
sL1332800441L
I1074237268
sL1797050832L
I1074241768
sL3190831358L
I1074239788
sL2828970830L
I1074239304
sL4160102055L
I1074240088
sL4202185385L
I1074247488
sL1768086576L
I1074236388
sL4171975289L
I1074247784
sL1565254297L
I1074248084
sL1205407754L
I1074240112
sL2191698036L
I1074269780
sL3764456758L
I1074244836
sL3567877105L
I1074235268
sL3616640713L
I1074240884
sL1635528231L
I1074244100
sL1060788199L
I1074245584
sL3378232636L
I1074246728
sL737694352L
I1074247592
sL503029138L
I1074247536
sL1616763831L
I1074248172
sL424867129L
I1074247920
sL3834155367L
I1074241240
sL1302843222L
I1074270260
sL149533852L
I1074237444
sL3883282432L
I1074241856
sL3110525840L
I1074241984
sL1667054119L
I1074240444
sL1142841954L
I1074237036
sL206902443L
I1074237980
sL1070509616L
I1074245116
sL3408620885L
I1074270084
ssb.