ccopy_reg
_reconstructor
p0
(crizzo
RizzoSignature
p1
c__builtin__
object
p2
Ntp3
Rp4
(dp5
S'formal'
p6
(dp7
L1128390976L
I1074246712
sL604369933L
I1074241492
sL283422445L
I1074244220
sL1741170115L
I1074237844
sL3717889681L
I1074239252
sL3505757179L
I1074236624
sL1653080728L
I1074270332
sL3977546755L
I1074244928
sL202407178L
I1074247112
sL4213015302L
I1074242724
sL1454943397L
I1074237864
sL1371153316L
I1074268520
sL307755126L
I1074237328
sL3751472569L
I1074269712
sL3278501709L
I1074238556
sL1263925363L
I1074244764
sL2420455533L
I1074269396
sL1959081198L
I1074240464
sL928253055L
I1074268760
sL2702580795L
I1074237220
sL3846506600L
I1074243620
sL2161201919L
I1074238112
sL2568602422L
I1074237536
sL3501332098L
I1074236664
sL3818079394L
I1074245520
sL4153343676L
I1074244136
sL612233294L
I1074238672
sL1952306024L
I1074247692
sL2896295319L
I1074236760
sL69447444L
I1074240440
sL4086940577L
I1074247604
sL2164546366L
I1074245048
sL837487574L
I1074236436
sL1674148343L
I1074245104
sL3004454229L
I1074240932
sL2682232989L
I1074269664
sL2485902447L
I1074236600
sL2873562891L
I1074238440
sL57142571L
I1074244576
sL2694490583L
I1074240876
sL1458280123L
I1074244788
sL3034252424L
I1074241620
sL2166402678L
I1074235692
sL1057199957L
I1074242240
sL3216880875L
I1074244812
sL1585823442L
I1074244036
sL1622896354L
I1074244064
sL141385012L
I1074244356
sL2000651361L
I1074269492
sL1257319854L
I1074243008
sL1509716893L
I1074236732
sL2189223198L
I1074239988
sL2668534884L
I1074245408
sL2774633482L
I1074236420
sL1301122278L
I1074236920
sL1152036801L
I1074245064
sL4217692687L
I1074269888
sL3904551637L
I1074267952
sL3007247178L
I1074238524
sL1973735901L
I1074241404
sL530851108L
I1074244184
sL1885637095L
I1074267728
sL3746397897L
I1074243936
sL3307282855L
I1074238004
sL172597710L
I1074236520
sL1040622986L
I1074244956
sL2262796883L
I1074247008
sL3939485250L
I1074269628
sL1071967860L
I1074239464
sL1050504461L
I1074234612
sL1093247416L
I1074238032
sL836728141L
I1074239156
sL3333318717L
I1074240520
sL3944659338L
I1074246204
sL3140157629L
I1074270484
sL1888032017L
I1074240060
sL3380256487L
I1074235556
sL4038945309L
I1074235508
sL1469789753L
I1074240080
sL3876253865L
I1074238724
sL1341808985L
I1074240424
sL3508768135L
I1074269248
sL1499400697L
I1074237588
sL3360578537L
I1074269264
sL21429742L
I1074236832
sL1366879953L
I1074269464
sL2737209228L
I1074234656
sL2300703883L
I1074247304
sL1569882425L
I1074247056
sL1412033415L
I1074246248
sL180164621L
I1074235168
sL2997001746L
I1074237152
sL1547809776L
I1074238776
sL2778050854L
I1074246912
sL2842524891L
I1074244984
sL1602802495L
I1074236864
sL2819127986L
I1074236884
sL209135561L
I1074240228
sL1877634603L
I1074270564
sL1928167467L
I1074246744
sL2771386086L
I1074269420
sL1423038721L
I1074239724
sL3262741161L
I1074236272
sL111045711L
I1074268464
sL3649526100L
I1074243968
sL2263182908L
I1074238024
sL4132511117L
I1074235804
sL3630163135L
I1074236748
sL188664287L
I1074235136
sL2144023337L
I1074240688
sL692536993L
I1074237192
sL275315584L
I1074244516
sL2402484188L
I1074242740
sL3393791417L
I1074244636
sL2518607080L
I1074237296
sL1393727465L
I1074245196
sL4173412669L
I1074235456
sL440921530L
I1074239748
sL612796283L
I1074245336
sL707696595L
I1074245380
sL3018942732L
I1074267620
sL612420478L
I1074247440
ssS'immediates'
p8
(dp9
sS'formaldups'
p10
c__builtin__
set
p11
((lp12
tp13
Rp14
sS'stringdups'
p15
g11
((lp16
tp17
Rp18
sS'fuzzydups'
p19
g11
((lp20
tp21
Rp22
sS'strings'
p23
(dp24
sS'functions'
p25
(dp26
I1074236420
(Vesp_rom_set_cpu_ticks_per_us
p27
(lp28
(L4036660858L
L0L
(lp29
(lp30
tp31
atp32
sI1074238724
(Vcache_ll_l1_enable_bus
p33
(lp34
(L3703586533L
L0L
(lp35
(lp36
tp37
atp38
sI1074239748
(Vbootloader_utility_load_boot_image
p39
(lp40
(L3385398614L
L0L
(lp41
(lp42
tp43
a(L2177418995L
L3785322319L
(lp44
(lp45
Vtry_load_partition
p46
atp47
a(L1305243774L
L3785322319L
(lp48
(lp49
Vload_image
p50
atp51
a(L299665327L
L3785322319L
(lp52
(lp53
Vesp_log_early_timestamp
p54
atp55
a(L3827921190L
L3785322319L
(lp56
(lp57
Vbootloader_reset
p58
atp59
a(L1953693036L
L3785322319L
(lp60
(lp61
Vindex_to_partition
p62
atp63
a(L1204373741L
L3785322319L
(lp64
(lp65
Vtry_load_partition
p66
atp67
a(L1899865696L
L0L
(lp68
(lp69
tp70
a(L2695355117L
L3785322319L
(lp71
(lp72
Vset_actual_ota_seq
p73
atp74
a(L1868897605L
L3785322319L
(lp75
(lp76
Vlog_invalid_app_partition
p77
atp78
a(L831650730L
L0L
(lp79
(lp80
tp81
a(L3021737L
L0L
(lp82
(lp83
tp84
a(L695456438L
L0L
(lp85
(lp86
tp87
a(L1148002536L
L3785322319L
(lp88
(lp89
Vtry_load_partition
p90
atp91
a(L2590723623L
L3785322319L
(lp92
(lp93
Vesp_log_early_timestamp
p94
atp95
a(L2347390157L
L3785322319L
(lp96
(lp97
Vindex_to_partition
p98
atp99
a(L1204373741L
L3785322319L
(lp100
(lp101
Vtry_load_partition
p102
atp103
a(L3061261803L
L0L
(lp104
(lp105
tp106
a(L3582858798L
L3785322319L
(lp107
(lp108
Vlog_invalid_app_partition
p109
atp110
a(L3663038107L
L3785322319L
(lp111
(lp112
Vesp_log_early_timestamp
p113
atp114
atp115
sI1074244356
(Vrtc_clk_cpu_freq_to_pll_mhz
p116
(lp117
(L3231135830L
L0L
(lp118
(lp119
tp120
a(L3457461525L
L0L
(lp121
(lp122
tp123
a(L1710690933L
L1880226080L
(lp124
(lp125
Vesp_rom_set_cpu_ticks_per_us
p126
aVrtc_clk_wait_for_slow_cycle
p127
atp128
a(L4261099714L
L0L
(lp129
(lp130
tp131
a(L3284807114L
L0L
(lp132
(lp133
tp134
a(L94425498L
L3785322319L
(lp135
(lp136
Vabort
p137
atp138
a(L2258897019L
L0L
(lp139
(lp140
tp141
a(L1113742378L
L0L
(lp142
(lp143
tp144
a(L1306330990L
L0L
(lp145
(lp146
tp147
atp148
sI1074245380
(Vrtc_clk_apb_freq_update
p149
(lp150
(L1720241949L
L0L
(lp151
(lp152
tp153
atp154
sI1074240512
(Vbootloader_ana_clock_glitch_reset_config
p155
(lp156
(L2100504542L
L0L
(lp157
(lp158
tp159
atp160
sI1074235136
(Vbootloader_execute_flash_command
p161
(lp162
(L2481595632L
L3785322319L
(lp163
(lp164
Vbootloader_flash_execute_command_common
p165
atp166
atp167
sI1074246912
(Vesp_rom_spiflash_read_status
p168
(lp169
(L862498644L
L0L
(lp170
(lp171
tp172
a(L3115852441L
L0L
(lp173
(lp174
tp175
a(L4159619641L
L0L
(lp176
(lp177
tp178
a(L2392720019L
L0L
(lp179
(lp180
tp181
a(L2258688487L
L0L
(lp182
(lp183
tp184
a(L4159619145L
L0L
(lp185
(lp186
tp187
a(L2068157350L
L0L
(lp188
(lp189
tp190
a(L3117156279L
L0L
(lp191
(lp192
tp193
a(L2123059967L
L0L
(lp194
(lp195
tp196
a(L582177370L
L0L
(lp197
(lp198
tp199
atp200
sI1074267136
(V_init
p201
(lp202
(L3493042598L
L0L
(lp203
(lp204
tp205
atp206
sI1074247692
(Vesp_rom_spiflash_read
p207
(lp208
(L1595458742L
L0L
(lp209
(lp210
tp211
a(L152055340L
L0L
(lp212
(lp213
tp214
a(L2860271684L
L0L
(lp215
(lp216
tp217
a(L2355528925L
L0L
(lp218
(lp219
tp220
a(L106L
L0L
(lp221
(lp222
tp223
a(L633884026L
L0L
(lp224
(lp225
tp226
a(L106L
L0L
(lp227
(lp228
tp229
a(L573637122L
L0L
(lp230
(lp231
tp232
a(L1784990217L
L0L
(lp233
(lp234
tp235
a(L2389660934L
L0L
(lp236
(lp237
tp238
a(L336550648L
L0L
(lp239
(lp240
tp241
a(L4102960242L
L0L
(lp242
(lp243
tp244
a(L106L
L0L
(lp245
(lp246
tp247
a(L1505963805L
L3785322319L
(lp248
(lp249
Vesp_rom_spiflash_wait_idle
p250
atp251
a(L3021737L
L0L
(lp252
(lp253
tp254
a(L106L
L0L
(lp255
(lp256
tp257
a(L1868280504L
L0L
(lp258
(lp259
tp260
a(L106L
L0L
(lp261
(lp262
tp263
a(L750281353L
L0L
(lp264
(lp265
tp266
a(L3897437082L
L0L
(lp267
(lp268
tp269
a(L4122060822L
L0L
(lp270
(lp271
tp272
a(L3484749597L
L0L
(lp273
(lp274
tp275
a(L2989032L
L0L
(lp276
(lp277
tp278
a(L3819849625L
L0L
(lp279
(lp280
tp281
a(L3319041088L
L0L
(lp282
(lp283
tp284
a(L1429756495L
L0L
(lp285
(lp286
tp287
a(L3901822013L
L0L
(lp288
(lp289
tp290
a(L3696637123L
L0L
(lp291
(lp292
tp293
a(L2921907736L
L0L
(lp294
(lp295
tp296
a(L4023125337L
L0L
(lp297
(lp298
tp299
a(L3424619452L
L0L
(lp300
(lp301
tp302
a(L924239444L
L0L
(lp303
(lp304
tp305
a(L3090309636L
L0L
(lp306
(lp307
tp308
a(L3333707777L
L0L
(lp309
(lp310
tp311
a(L3251955268L
L0L
(lp312
(lp313
tp314
a(L3418540920L
L0L
(lp315
(lp316
tp317
a(L4223869220L
L0L
(lp318
(lp319
tp320
a(L97689L
L0L
(lp321
(lp322
tp323
a(L2258897019L
L0L
(lp324
(lp325
tp326
a(L4014024819L
L0L
(lp327
(lp328
tp329
a(L3621567083L
L0L
(lp330
(lp331
tp332
atp333
sI1074237192
(Vbootloader_common_ota_select_invalid
p334
(lp335
(L4027567199L
L0L
(lp336
(lp337
tp338
a(L3397985842L
L0L
(lp339
(lp340
tp341
a(L2258867228L
L0L
(lp342
(lp343
tp344
a(L3785235668L
L0L
(lp345
(lp346
tp347
atp348
sI1074240520
(Vprocess_checksum
p349
(lp350
(L4101821460L
L0L
(lp351
(lp352
tp353
a(L3028481L
L0L
(lp354
(lp355
tp356
a(L186886970L
L0L
(lp357
(lp358
tp359
a(L2902417580L
L0L
(lp360
(lp361
tp362
a(L3028481L
L0L
(lp363
(lp364
tp365
a(L1018688397L
L3785322319L
(lp366
(lp367
Vesp_log_early_timestamp
p368
atp369
a(L3620582131L
L0L
(lp370
(lp371
tp372
a(L3236648107L
L3785322319L
(lp373
(lp374
Vbootloader_flash_read
p375
atp376
a(L735741265L
L0L
(lp377
(lp378
tp379
a(L3020204L
L0L
(lp380
(lp381
tp382
a(L2480703612L
L3785322319L
(lp383
(lp384
Vbootloader_sha256_data
p385
atp386
a(L3436105237L
L0L
(lp387
(lp388
tp389
a(L106L
L0L
(lp390
(lp391
tp392
atp393
sI1074269464
(Vbootloader_check_bootloader_validity
p394
(lp395
(L2181726224L
L1880226080L
(lp396
(lp397
Vefuse_hal_chip_revision
p398
aVbootloader_common_check_chip_validity
p399
atp400
atp401
sI1074234644
(Vesp_flash_encryption_enabled
p402
(lp403
(L376617603L
L3785322319L
(lp404
(lp405
Vefuse_hal_flash_encryption_enabled
p406
atp407
atp408
sI1074236436
(Vesp_rom_uart_tx_wait_idle
p409
(lp410
(L3784729872L
L0L
(lp411
(lp412
tp413
a(L1301079727L
L0L
(lp414
(lp415
tp416
a(L597952197L
L0L
(lp417
(lp418
tp419
a(L1971823332L
L0L
(lp420
(lp421
tp422
a(L3055926844L
L0L
(lp423
(lp424
tp425
a(L3360570486L
L0L
(lp426
(lp427
tp428
a(L3694491048L
L0L
(lp429
(lp430
tp431
a(L106L
L0L
(lp432
(lp433
tp434
atp435
sI1074239252
(Vbootloader_utility_load_partition_table
p436
(lp437
(L3128219304L
L3785322319L
(lp438
(lp439
Vbootloader_mmap
p440
atp441
a(L770149735L
L3785322319L
(lp442
(lp443
Vesp_log_early_timestamp
p444
atp445
a(L2258688482L
L0L
(lp446
(lp447
tp448
a(L3360570486L
L0L
(lp449
(lp450
tp451
a(L255479872L
L3785322319L
(lp452
(lp453
Vesp_partition_table_verify
p454
atp455
a(L3613202002L
L0L
(lp456
(lp457
tp458
a(L97642L
L0L
(lp459
(lp460
tp461
a(L4248828323L
L3785322319L
(lp462
(lp463
Vbootloader_munmap
p464
atp465
a(L3398923045L
L3785322319L
(lp466
(lp467
Vesp_log_early_timestamp
p468
atp469
a(L3927622121L
L0L
(lp470
(lp471
tp472
a(L3020187L
L0L
(lp473
(lp474
tp475
a(L1532853611L
L0L
(lp476
(lp477
tp478
a(L1036489382L
L0L
(lp479
(lp480
tp481
a(L3020187L
L0L
(lp482
(lp483
tp484
a(L2997988170L
L0L
(lp485
(lp486
tp487
a(L529263765L
L0L
(lp488
(lp489
tp490
a(L775434204L
L0L
(lp491
(lp492
tp493
a(L3579705151L
L0L
(lp494
(lp495
tp496
a(L2387139071L
L0L
(lp497
(lp498
tp499
a(L1599920163L
L0L
(lp500
(lp501
tp502
atp503
sI1074247440
(Vesp_rom_spiflash_write
p504
(lp505
(L1747660291L
L0L
(lp506
(lp507
tp508
a(L2258688483L
L0L
(lp509
(lp510
tp511
a(L3360570486L
L0L
(lp512
(lp513
tp514
a(L3368132847L
L0L
(lp515
(lp516
tp517
a(L3106685981L
L0L
(lp518
(lp519
tp520
a(L3488660639L
L3785322319L
(lp521
(lp522
Vesp_rom_spiflash_program_page_internal
p523
atp524
a(L3543402353L
L3785322319L
(lp525
(lp526
Vesp_rom_spiflash_program_page_internal
p527
atp528
a(L4222526342L
L0L
(lp529
(lp530
tp531
a(L2004208511L
L0L
(lp532
(lp533
tp534
a(L564470656L
L0L
(lp535
(lp536
tp537
a(L441922648L
L3785322319L
(lp538
(lp539
Vesp_rom_spiflash_program_page_internal
p540
atp541
a(L2302069176L
L0L
(lp542
(lp543
tp544
atp545
sI1074269712
(Vrtc_clk_xtal_freq_estimate
p546
(lp547
(L1823831978L
L1880226080L
(lp548
(lp549
Vrtc_clk_8m_enabled
p550
aVrtc_clk_8md256_enabled
p551
atp552
a(L2449794434L
L3785322319L
(lp553
(lp554
Vrtc_clk_8m_enable
p555
atp556
a(L2770901918L
L3785322319L
(lp557
(lp558
Vrtc_clk_cal_ratio
p559
atp560
a(L3934977694L
L0L
(lp561
(lp562
tp563
a(L3955289886L
L0L
(lp564
(lp565
tp566
a(L920563618L
L3785322319L
(lp567
(lp568
Vesp_log_early_timestamp
p569
atp570
a(L2307427870L
L0L
(lp571
(lp572
tp573
a(L1281346514L
L3785322319L
(lp574
(lp575
Vrtc_clk_8m_enable
p576
atp577
a(L3909119106L
L0L
(lp578
(lp579
tp580
a(L2092614514L
L3785322319L
(lp581
(lp582
Vesp_log_early_timestamp
p583
atp584
a(L3304487880L
L0L
(lp585
(lp586
tp587
a(L1641150486L
L0L
(lp588
(lp589
tp590
a(L3939540676L
L3785322319L
(lp591
(lp592
Vesp_log_early_timestamp
p593
atp594
atp595
sI1074244636
(Vrtc_clk_8m_enable
p596
(lp597
(L2066255070L
L0L
(lp598
(lp599
tp600
a(L958512770L
L0L
(lp601
(lp602
tp603
a(L2151320156L
L0L
(lp604
(lp605
tp606
a(L2201080984L
L0L
(lp607
(lp608
tp609
a(L3360570486L
L0L
(lp610
(lp611
tp612
a(L1318267208L
L0L
(lp613
(lp614
tp615
a(L142324239L
L0L
(lp616
(lp617
tp618
atp619
sI1074270484
(Vrtc_vddsdio_set_config
p620
(lp621
(L1272545128L
L0L
(lp622
(lp623
tp624
atp625
sI1074243620
(Vwdt_hal_config_stage
p626
(lp627
(L331558507L
L0L
(lp628
(lp629
tp630
a(L4279082939L
L0L
(lp631
(lp632
tp633
a(L93674324L
L0L
(lp634
(lp635
tp636
a(L2902417580L
L0L
(lp637
(lp638
tp639
a(L177760103L
L0L
(lp640
(lp641
tp642
a(L3020187L
L0L
(lp643
(lp644
tp645
a(L94425498L
L3785322319L
(lp646
(lp647
Vabort
p648
atp649
a(L583583424L
L0L
(lp650
(lp651
tp652
a(L3360570486L
L0L
(lp653
(lp654
tp655
a(L952154508L
L0L
(lp656
(lp657
tp658
a(L1012758146L
L0L
(lp659
(lp660
tp661
a(L4278159418L
L0L
(lp662
(lp663
tp664
a(L93674324L
L0L
(lp665
(lp666
tp667
a(L3020204L
L0L
(lp668
(lp669
tp670
a(L2067421300L
L0L
(lp671
(lp672
tp673
a(L3020187L
L0L
(lp674
(lp675
tp676
a(L106L
L0L
(lp677
(lp678
tp679
a(L3660949161L
L0L
(lp680
(lp681
tp682
a(L873628278L
L0L
(lp683
(lp684
tp685
a(L2016454155L
L0L
(lp686
(lp687
tp688
atp689
sI1074237220
(Vbootloader_common_select_otadata
p690
(lp691
(L4071767857L
L0L
(lp692
(lp693
tp694
a(L1999329187L
L0L
(lp695
(lp696
tp697
a(L3846398843L
L0L
(lp698
(lp699
tp700
a(L2501968171L
L0L
(lp701
(lp702
tp703
a(L3360570486L
L0L
(lp704
(lp705
tp706
a(L2045232488L
L0L
(lp707
(lp708
tp709
a(L1243525916L
L0L
(lp710
(lp711
tp712
a(L3094144427L
L0L
(lp713
(lp714
tp715
a(L2399509845L
L0L
(lp716
(lp717
tp718
a(L1641201884L
L0L
(lp719
(lp720
tp721
atp722
sI1074235168
(Vbootloader_flash_unlock
p723
(lp724
(L485855552L
L3785322319L
(lp725
(lp726
Vesp_rom_spiflash_wait_idle
p727
atp728
a(L711923870L
L0L
(lp729
(lp730
tp731
a(L3507311156L
L3785322319L
(lp732
(lp733
Vbootloader_execute_flash_command
p734
atp735
a(L4103218025L
L0L
(lp736
(lp737
tp738
a(L2529045083L
L0L
(lp739
(lp740
tp741
a(L1175784077L
L1832448559L
(lp742
(lp743
Vesp_rom_spiflash_wait_idle
p744
aVbootloader_execute_flash_command
p745
aVbootloader_execute_flash_command
p746
atp747
a(L106L
L0L
(lp748
(lp749
tp750
a(L594961218L
L1880226080L
(lp751
(lp752
Vesp_rom_spiflash_wait_idle
p753
aVbootloader_execute_flash_command
p754
atp755
a(L2993202392L
L0L
(lp756
(lp757
tp758
a(L610618707L
L0L
(lp759
(lp760
tp761
a(L2843273676L
L0L
(lp762
(lp763
tp764
a(L192015437L
L0L
(lp765
(lp766
tp767
a(L3154322046L
L1880226080L
(lp768
(lp769
Vbootloader_execute_flash_command
p770
aVbootloader_execute_flash_command
p771
atp772
a(L1303560644L
L0L
(lp773
(lp774
tp775
a(L1711531685L
L1880226080L
(lp776
(lp777
Vbootloader_execute_flash_command
p778
aVbootloader_execute_flash_command
p779
atp780
a(L3658700047L
L0L
(lp781
(lp782
tp783
a(L3430607254L
L0L
(lp784
(lp785
tp786
a(L106L
L0L
(lp787
(lp788
tp789
a(L1876788132L
L1832448559L
(lp790
(lp791
Vesp_rom_spiflash_wait_idle
p792
aVbootloader_execute_flash_command
p793
aVbootloader_execute_flash_command
p794
atp795
atp796
sI1074234656
(Vbootloader_flash_execute_command_common
p797
(lp798
(L3865052895L
L0L
(lp799
(lp800
tp801
a(L3287175997L
L0L
(lp802
(lp803
tp804
a(L4121451103L
L3785322319L
(lp805
(lp806
V__assert_func
p807
atp808
a(L3021749L
L0L
(lp809
(lp810
tp811
a(L3999871943L
L0L
(lp812
(lp813
tp814
a(L543316797L
L0L
(lp815
(lp816
tp817
a(L2091933878L
L0L
(lp818
(lp819
tp820
a(L1702379862L
L0L
(lp821
(lp822
tp823
a(L3432464320L
L0L
(lp824
(lp825
tp826
a(L3539375712L
L0L
(lp827
(lp828
tp829
a(L3244449450L
L0L
(lp830
(lp831
tp832
a(L4233404408L
L0L
(lp833
(lp834
tp835
a(L2990329343L
L0L
(lp836
(lp837
tp838
a(L2051090536L
L0L
(lp839
(lp840
tp841
a(L3333696662L
L0L
(lp842
(lp843
tp844
a(L963425213L
L0L
(lp845
(lp846
tp847
a(L339491738L
L0L
(lp848
(lp849
tp850
a(L3360570486L
L0L
(lp851
(lp852
tp853
atp854
sI1074245408
(Vrtc_clk_cpu_freq_to_xtal
p855
(lp856
(L767415990L
L3785322319L
(lp857
(lp858
Vesp_rom_set_cpu_ticks_per_us
p859
atp860
a(L94425498L
L3785322319L
(lp861
(lp862
Vabort
p863
atp864
a(L3009354280L
L3785322319L
(lp865
(lp866
Vrtc_clk_apb_freq_update
p867
atp868
a(L2258867230L
L0L
(lp869
(lp870
tp871
a(L4206120353L
L0L
(lp872
(lp873
tp874
atp875
sI1074235692
(Vbootloader_flash_cs_timing_config
p876
(lp877
(L6299057L
L0L
(lp878
(lp879
tp880
atp881
sI1074244136
(Vmmu_hal_unmap_all
p882
(lp883
(L3251987510L
L0L
(lp884
(lp885
tp886
a(L2010554219L
L0L
(lp887
(lp888
tp889
a(L3268103L
L0L
(lp890
(lp891
tp892
a(L3212334523L
L0L
(lp893
(lp894
tp895
a(L2010554219L
L0L
(lp896
(lp897
tp898
a(L3360570486L
L0L
(lp899
(lp900
tp901
atp902
sI1074240052
(Vbootloader_debug_buffer
p903
(lp904
(L2100504542L
L0L
(lp905
(lp906
tp907
atp908
sI1074238004
(Vbootloader_enable_wp
p909
(lp910
(L1117825804L
L3785322319L
(lp911
(lp912
Vbootloader_execute_flash_command
p913
atp914
atp915
sI1074267952
(Vbootloader_init
p916
(lp917
(L1256100286L
L3785322319L
(lp918
(lp919
Vbootloader_init_mem
p920
atp921
a(L496177411L
L0L
(lp922
(lp923
tp924
a(L2027378118L
L3785322319L
(lp925
(lp926
V__assert_func
p927
atp928
a(L408886226L
L0L
(lp929
(lp930
tp931
a(L2892662435L
L0L
(lp932
(lp933
tp934
a(L3813782018L
L0L
(lp935
(lp936
tp937
a(L3379255958L
L0L
(lp938
(lp939
tp940
a(L3027019L
L0L
(lp941
(lp942
tp943
a(L3949229104L
L0L
(lp944
(lp945
tp946
a(L4055793689L
L1832448559L
(lp947
(lp948
Vbootloader_clear_bss_section
p949
aVbootloader_common_vddsdio_configure
p950
aVbootloader_clock_get_rated_freq_mhz
p951
atp952
a(L106L
L0L
(lp953
(lp954
tp955
a(L87629889L
L1157885199L
(lp956
(lp957
Vbootloader_clock_configure
p958
aVbootloader_console_init
p959
aVbootloader_print_banner
p960
aVbootloader_flash_update_id
p961
aVbootloader_flash_xmc_startup
p962
atp963
a(L296996763L
L3785322319L
(lp964
(lp965
Vesp_log_early_timestamp
p966
atp967
a(L657010908L
L3785322319L
(lp968
(lp969
Vesp_log_early_timestamp
p970
atp971
a(L3360570486L
L0L
(lp972
(lp973
tp974
a(L2444883382L
L3785322319L
(lp975
(lp976
Vbootloader_read_bootloader_header
p977
atp978
a(L2444883382L
L3785322319L
(lp979
(lp980
Vbootloader_check_bootloader_validity
p981
atp982
a(L2444883382L
L3785322319L
(lp983
(lp984
Vbootloader_init_spi_flash
p985
atp986
a(L3638850911L
L0L
(lp987
(lp988
tp989
a(L254817508L
L0L
(lp990
(lp991
tp992
a(L93892250L
L0L
(lp993
(lp994
tp995
a(L2915015718L
L0L
(lp996
(lp997
tp998
a(L1634500369L
L1880226080L
(lp999
(lp1000
Vbootloader_config_wdt
p1001
aVbootloader_enable_random
p1002
atp1003
a(L1895147938L
L0L
(lp1004
(lp1005
tp1006
a(L2680457259L
L0L
(lp1007
(lp1008
tp1009
a(L3027019L
L0L
(lp1010
(lp1011
tp1012
a(L97315L
L0L
(lp1013
(lp1014
tp1015
a(L1442646668L
L3785322319L
(lp1016
(lp1017
Vesp_log_early_timestamp
p1018
atp1019
a(L4094931264L
L3785322319L
(lp1020
(lp1021
Vesp_log_early_timestamp
p1022
atp1023
a(L3164960223L
L0L
(lp1024
(lp1025
tp1026
a(L1895147938L
L0L
(lp1027
(lp1028
tp1029
a(L156585483L
L1880226080L
(lp1030
(lp1031
Vwdt_reset_info_dump
p1032
aVwdt_reset_info_dump
p1033
atp1034
atp1035
sI1074268464
(Vbootloader_common_vddsdio_configure
p1036
(lp1037
(L1829974089L
L3785322319L
(lp1038
(lp1039
Vrtc_vddsdio_get_config
p1040
atp1041
a(L2795064753L
L3785322319L
(lp1042
(lp1043
Vrtc_vddsdio_set_config
p1044
atp1045
a(L3360570486L
L0L
(lp1046
(lp1047
tp1048
atp1049
sI1074236732
(Vefuse_hal_get_minor_chip_version
p1050
(lp1051
(L2721608854L
L0L
(lp1052
(lp1053
tp1054
atp1055
sI1074238524
(Vtry_load_partition
p1056
(lp1057
(L1898493800L
L0L
(lp1058
(lp1059
tp1060
a(L2454209732L
L3785322319L
(lp1061
(lp1062
Vbootloader_load_image
p1063
atp1064
a(L3360570486L
L0L
(lp1065
(lp1066
tp1067
atp1068
sI1074240060
(Vbootloader_sha256_start
p1069
(lp1070
(L1535180675L
L0L
(lp1071
(lp1072
tp1073
atp1074
sI1074246204
(Vrtc_clk_apb_freq_get
p1075
(lp1076
(L2902813935L
L0L
(lp1077
(lp1078
tp1079
atp1080
sI1074269492
(Vbootloader_config_wdt
p1081
(lp1082
(L4027912329L
L505859776L
(lp1083
(lp1084
Vwdt_hal_write_protect_disable
p1085
aVwdt_hal_set_flashboot_en
p1086
aVwdt_hal_write_protect_enable
p1087
aVwdt_hal_init
p1088
aVrtc_clk_slow_freq_get_hz
p1089
aVwdt_hal_write_protect_disable
p1090
aVwdt_hal_config_stage
p1091
aVwdt_hal_enable
p1092
aVwdt_hal_write_protect_enable
p1093
aVwdt_hal_write_protect_disable
p1094
aVwdt_hal_set_flashboot_en
p1095
aVwdt_hal_write_protect_enable
p1096
atp1097
atp1098
sI1074238776
(Vload_image
p1099
(lp1100
(L276015809L
L1880226080L
(lp1101
(lp1102
Vbootloader_random_disable
p1103
aVbootloader_ana_clock_glitch_reset_config
p1104
atp1105
a(L1373545544L
L0L
(lp1106
(lp1107
tp1108
a(L106L
L0L
(lp1109
(lp1110
tp1111
a(L856849463L
L3758435744L
(lp1112
(lp1113
Vmmu_hal_unmap_all
p1114
aVcache_ll_l1_get_bus
p1115
aVcache_ll_l1_enable_bus
p1116
aVcache_ll_l1_get_bus
p1117
aVcache_ll_l1_enable_bus
p1118
aVcache_ll_l1_get_bus
p1119
aVcache_ll_l1_enable_bus
p1120
aVcache_ll_l1_get_bus
p1121
aVcache_ll_l1_enable_bus
p1122
aVbootloader_console_deinit
p1123
atp1124
a(L2366773478L
L0L
(lp1125
(lp1126
tp1127
a(L2902417580L
L0L
(lp1128
(lp1129
tp1130
a(L3087200444L
L3785322319L
(lp1131
(lp1132
Vesp_log_early_timestamp
p1133
atp1134
a(L3455620645L
L0L
(lp1135
(lp1136
tp1137
a(L3193235534L
L0L
(lp1138
(lp1139
tp1140
a(L3020204L
L0L
(lp1141
(lp1142
tp1143
a(L646578685L
L3785322319L
(lp1144
(lp1145
Vesp_log_early_timestamp
p1146
atp1147
a(L17153577L
L0L
(lp1148
(lp1149
tp1150
a(L2014464593L
L0L
(lp1151
(lp1152
tp1153
atp1154
sI1074246712
(Vrtc_clk_cal_ratio
p1155
(lp1156
(L606352554L
L3785322319L
(lp1157
(lp1158
Vrtc_clk_cal_internal
p1159
atp1160
atp1161
sI1074235456
(Vbootloader_flash_read_sfdp
p1162
(lp1163
(L711701400L
L0L
(lp1164
(lp1165
tp1166
a(L3305374083L
L3785322319L
(lp1167
(lp1168
V__assert_func
p1169
atp1170
a(L3704332455L
L3785322319L
(lp1171
(lp1172
Vbootloader_flash_execute_command_common
p1173
atp1174
atp1175
sI1074244928
(Vrtc_clk_slow_src_get
p1176
(lp1177
(L3437445307L
L0L
(lp1178
(lp1179
tp1180
a(L3020187L
L0L
(lp1181
(lp1182
tp1183
a(L2902417580L
L0L
(lp1184
(lp1185
tp1186
a(L2258688485L
L0L
(lp1187
(lp1188
tp1189
a(L3360570486L
L0L
(lp1190
(lp1191
tp1192
atp1193
sI1074269248
(Vbootloader_flash_update_id
p1194
(lp1195
(L3587584986L
L3785322319L
(lp1196
(lp1197
Vbootloader_read_flash_id
p1198
atp1199
atp1200
sI1074236748
(Vesp_dport_access_reg_read
p1201
(lp1202
(L1099794772L
L0L
(lp1203
(lp1204
tp1205
atp1206
sI1074245196
(Vrtc_clk_cpu_freq_get_config
p1207
(lp1208
(L1857478154L
L0L
(lp1209
(lp1210
tp1211
a(L3020187L
L0L
(lp1212
(lp1213
tp1214
a(L3020187L
L0L
(lp1215
(lp1216
tp1217
a(L3219192648L
L3785322319L
(lp1218
(lp1219
Vrtc_clk_xtal_freq_get
p1220
atp1221
a(L3789795478L
L0L
(lp1222
(lp1223
tp1224
a(L1205645677L
L1880226080L
(lp1225
(lp1226
Vesp_log_early_timestamp
p1227
aVabort
p1228
atp1229
a(L3781116297L
L0L
(lp1230
(lp1231
tp1232
a(L3020187L
L0L
(lp1233
(lp1234
tp1235
a(L3028481L
L0L
(lp1236
(lp1237
tp1238
a(L38508693L
L0L
(lp1239
(lp1240
tp1241
a(L187152368L
L0L
(lp1242
(lp1243
tp1244
a(L1161083655L
L0L
(lp1245
(lp1246
tp1247
a(L1395485899L
L0L
(lp1248
(lp1249
tp1250
a(L2070600034L
L0L
(lp1251
(lp1252
tp1253
atp1254
sI1074238024
(Vbootloader_mmap_get_free_pages
p1255
(lp1256
(L1496516875L
L0L
(lp1257
(lp1258
tp1259
atp1260
sI1074268760
(Vbootloader_random_enable
p1261
(lp1262
(L3678846225L
L0L
(lp1263
(lp1264
tp1265
atp1266
sI1074241620
(Vprocess_segments
p1267
(lp1268
(L670742546L
L0L
(lp1269
(lp1270
tp1271
a(L1478361954L
L0L
(lp1272
(lp1273
tp1274
a(L3782401745L
L0L
(lp1275
(lp1276
tp1277
a(L106L
L0L
(lp1278
(lp1279
tp1280
a(L234202048L
L0L
(lp1281
(lp1282
tp1283
a(L3871898660L
L3785322319L
(lp1284
(lp1285
Vesp_log_early_timestamp
p1286
atp1287
a(L418370317L
L3785322319L
(lp1288
(lp1289
Vbootloader_flash_read
p1290
atp1291
a(L1355216156L
L3785322319L
(lp1292
(lp1293
Vesp_log_early_timestamp
p1294
atp1295
a(L464010095L
L0L
(lp1296
(lp1297
tp1298
a(L1890170661L
L0L
(lp1299
(lp1300
tp1301
a(L4138551778L
L3785322319L
(lp1302
(lp1303
Vbootloader_sha256_data
p1304
atp1305
a(L2440174491L
L0L
(lp1306
(lp1307
tp1308
a(L2258867228L
L0L
(lp1309
(lp1310
tp1311
a(L1653981967L
L0L
(lp1312
(lp1313
tp1314
a(L523560059L
L0L
(lp1315
(lp1316
tp1317
a(L3544088471L
L3785322319L
(lp1318
(lp1319
Vesp_log_early_timestamp
p1320
atp1321
a(L697294929L
L0L
(lp1322
(lp1323
tp1324
a(L922578675L
L0L
(lp1325
(lp1326
tp1327
a(L3241605606L
L0L
(lp1328
(lp1329
tp1330
a(L606368755L
L0L
(lp1331
(lp1332
tp1333
a(L2626753793L
L0L
(lp1334
(lp1335
tp1336
a(L4233846116L
L3785322319L
(lp1337
(lp1338
Vesp_log_early_timestamp
p1339
atp1340
a(L2864902319L
L0L
(lp1341
(lp1342
tp1343
a(L2314103720L
L0L
(lp1344
(lp1345
tp1346
a(L2136754140L
L3785322319L
(lp1347
(lp1348
Vbootloader_mmap_get_free_pages
p1349
atp1350
a(L3028481L
L0L
(lp1351
(lp1352
tp1353
a(L3306817873L
L0L
(lp1354
(lp1355
tp1356
a(L2642187286L
L3785322319L
(lp1357
(lp1358
Vshould_load
p1359
atp1360
a(L3020204L
L0L
(lp1361
(lp1362
tp1363
a(L1879695069L
L3785322319L
(lp1364
(lp1365
Vverify_load_addresses
p1366
atp1367
a(L106L
L0L
(lp1368
(lp1369
tp1370
a(L113955750L
L0L
(lp1371
(lp1372
tp1373
a(L262831199L
L0L
(lp1374
(lp1375
tp1376
a(L4128104404L
L3785322319L
(lp1377
(lp1378
Vbootloader_mmap
p1379
atp1380
a(L3489357484L
L3785322319L
(lp1381
(lp1382
Vesp_log_early_timestamp
p1383
atp1384
a(L1727089337L
L0L
(lp1385
(lp1386
tp1387
a(L1873784781L
L0L
(lp1388
(lp1389
tp1390
a(L2229288460L
L0L
(lp1391
(lp1392
tp1393
a(L1595421496L
L3785322319L
(lp1394
(lp1395
Vbootloader_munmap
p1396
atp1397
a(L1820299912L
L0L
(lp1398
(lp1399
tp1400
a(L2455000058L
L3785322319L
(lp1401
(lp1402
Vbootloader_fill_random
p1403
atp1404
a(L3277879431L
L0L
(lp1405
(lp1406
tp1407
a(L3281573515L
L0L
(lp1408
(lp1409
tp1410
a(L3450268858L
L0L
(lp1411
(lp1412
tp1413
a(L3021749L
L0L
(lp1414
(lp1415
tp1416
a(L3821106106L
L0L
(lp1417
(lp1418
tp1419
a(L2494883302L
L0L
(lp1420
(lp1421
tp1422
a(L2043449225L
L0L
(lp1423
(lp1424
tp1425
a(L2534421630L
L0L
(lp1426
(lp1427
tp1428
a(L301394602L
L0L
(lp1429
(lp1430
tp1431
a(L3018893270L
L0L
(lp1432
(lp1433
tp1434
a(L1224748769L
L0L
(lp1435
(lp1436
tp1437
a(L653501462L
L0L
(lp1438
(lp1439
tp1440
a(L3499111993L
L3785322319L
(lp1441
(lp1442
Vbootloader_sha256_data
p1443
atp1444
a(L90548756L
L0L
(lp1445
(lp1446
tp1447
a(L708495868L
L0L
(lp1448
(lp1449
tp1450
a(L2883900389L
L0L
(lp1451
(lp1452
tp1453
atp1454
sI1074270556
(Vbootloader_print_banner
p1455
(lp1456
(L2100504542L
L0L
(lp1457
(lp1458
tp1459
atp1460
sI1074240080
(Vbootloader_sha256_data
p1461
(lp1462
(L4066096136L
L0L
(lp1463
(lp1464
tp1465
a(L3197877865L
L0L
(lp1466
(lp1467
tp1468
a(L3627025138L
L3785322319L
(lp1469
(lp1470
V__assert_func
p1471
atp1472
a(L498498478L
L0L
(lp1473
(lp1474
tp1475
a(L2462865950L
L0L
(lp1476
(lp1477
tp1478
a(L2910371777L
L0L
(lp1479
(lp1480
tp1481
a(L3360570486L
L0L
(lp1482
(lp1483
tp1484
a(L1911737285L
L0L
(lp1485
(lp1486
tp1487
a(L248495140L
L0L
(lp1488
(lp1489
tp1490
a(L2750781904L
L0L
(lp1491
(lp1492
tp1493
a(L1230441504L
L0L
(lp1494
(lp1495
tp1496
a(L3963406674L
L0L
(lp1497
(lp1498
tp1499
a(L1394964493L
L0L
(lp1500
(lp1501
tp1502
a(L2290573569L
L0L
(lp1503
(lp1504
tp1505
a(L702738026L
L0L
(lp1506
(lp1507
tp1508
a(L3745004802L
L0L
(lp1509
(lp1510
tp1511
atp1512
sI1074238032
(Vbootloader_fill_random
p1513
(lp1514
(L387180576L
L0L
(lp1515
(lp1516
tp1517
a(L3718897L
L3785322319L
(lp1518
(lp1519
V__assert_func
p1520
atp1521
a(L1882547218L
L0L
(lp1522
(lp1523
tp1524
a(L2910371777L
L0L
(lp1525
(lp1526
tp1527
a(L95634693L
L0L
(lp1528
(lp1529
tp1530
a(L3630908706L
L0L
(lp1531
(lp1532
tp1533
a(L160162640L
L0L
(lp1534
(lp1535
tp1536
a(L97689L
L0L
(lp1537
(lp1538
tp1539
a(L3360570486L
L0L
(lp1540
(lp1541
tp1542
atp1543
sI1074267728
(Vwdt_reset_info_dump
p1544
(lp1545
(L4037458708L
L0L
(lp1546
(lp1547
tp1548
a(L522353410L
L0L
(lp1549
(lp1550
tp1551
a(L217258670L
L0L
(lp1552
(lp1553
tp1554
a(L1103285333L
L0L
(lp1555
(lp1556
tp1557
a(L4222762845L
L3785322319L
(lp1558
(lp1559
Vesp_log_early_timestamp
p1560
atp1561
a(L2967992533L
L0L
(lp1562
(lp1563
tp1564
a(L1493818067L
L0L
(lp1565
(lp1566
tp1567
a(L4025433257L
L3785322319L
(lp1568
(lp1569
Vesp_log_early_timestamp
p1570
atp1571
atp1572
sI1074268752
(Vbootloader_init_mem
p1573
(lp1574
(L1287383080L
L3785322319L
(lp1575
(lp1576
Vesp_cpu_configure_region_protection
p1577
atp1578
atp1579
sI1074269264
(Vbootloader_init_spi_flash
p1580
(lp1581
(L418951599L
L2485746240L
(lp1582
(lp1583
Vbootloader_flash_gpio_config
p1584
aVbootloader_flash_dummy_config
p1585
aVbootloader_flash_cs_timing_config
p1586
aVbootloader_flash_unlock
p1587
atp1588
a(L93674324L
L0L
(lp1589
(lp1590
tp1591
a(L3422553167L
L0L
(lp1592
(lp1593
tp1594
a(L1707909459L
L0L
(lp1595
(lp1596
tp1597
a(L1038322988L
L0L
(lp1598
(lp1599
tp1600
a(L1798808034L
L3785322319L
(lp1601
(lp1602
Vbootloader_enable_wp
p1603
atp1604
a(L3907331784L
L0L
(lp1605
(lp1606
tp1607
atp1608
sI1074238556
(Vcache_ll_l1_get_bus
p1609
(lp1610
(L2721956783L
L0L
(lp1611
(lp1612
tp1613
a(L94425498L
L3785322319L
(lp1614
(lp1615
Vabort
p1616
atp1617
a(L3175393928L
L0L
(lp1618
(lp1619
tp1620
a(L3440284994L
L0L
(lp1621
(lp1622
tp1623
a(L892952750L
L0L
(lp1624
(lp1625
tp1626
a(L1182811810L
L0L
(lp1627
(lp1628
tp1629
a(L1101742417L
L0L
(lp1630
(lp1631
tp1632
a(L1100767927L
L0L
(lp1633
(lp1634
tp1635
a(L3360570486L
L0L
(lp1636
(lp1637
tp1638
a(L2727400564L
L0L
(lp1639
(lp1640
tp1641
a(L2882938163L
L0L
(lp1642
(lp1643
tp1644
a(L2927201858L
L0L
(lp1645
(lp1646
tp1647
a(L2258718273L
L0L
(lp1648
(lp1649
tp1650
a(L2580713941L
L0L
(lp1651
(lp1652
tp1653
a(L2767111967L
L0L
(lp1654
(lp1655
tp1656
a(L2748646817L
L0L
(lp1657
(lp1658
tp1659
a(L1641149277L
L0L
(lp1660
(lp1661
tp1662
a(L3207711893L
L0L
(lp1663
(lp1664
tp1665
a(L3027019L
L0L
(lp1666
(lp1667
tp1668
a(L1299866560L
L0L
(lp1669
(lp1670
tp1671
a(L1299866436L
L0L
(lp1672
(lp1673
tp1674
atp1675
sI1074244956
(Vrtc_clk_slow_freq_get_hz
p1676
(lp1677
(L1826267122L
L3785322319L
(lp1678
(lp1679
Vrtc_clk_slow_src_get
p1680
atp1681
a(L4026793049L
L0L
(lp1682
(lp1683
tp1684
a(L2943901344L
L0L
(lp1685
(lp1686
tp1687
a(L3360570486L
L0L
(lp1688
(lp1689
tp1690
atp1691
sI1074244184
(Vefuse_hal_get_rated_freq_mhz
p1692
(lp1693
(L3060225221L
L0L
(lp1694
(lp1695
tp1696
a(L338960367L
L0L
(lp1697
(lp1698
tp1699
a(L3360570486L
L0L
(lp1700
(lp1701
tp1702
atp1703
sI1074236760
(Vis_xmc_chip_strict
p1704
(lp1705
(L1286841609L
L0L
(lp1706
(lp1707
tp1708
a(L2234016759L
L0L
(lp1709
(lp1710
tp1711
a(L1069027148L
L0L
(lp1712
(lp1713
tp1714
a(L3021749L
L0L
(lp1715
(lp1716
tp1717
a(L1900148749L
L0L
(lp1718
(lp1719
tp1720
a(L1936875721L
L0L
(lp1721
(lp1722
tp1723
a(L3356166509L
L0L
(lp1724
(lp1725
tp1726
a(L1937769451L
L0L
(lp1727
(lp1728
tp1729
a(L2137658907L
L0L
(lp1730
(lp1731
tp1732
a(L4265949734L
L0L
(lp1733
(lp1734
tp1735
a(L3360570486L
L0L
(lp1736
(lp1737
tp1738
atp1739
sI1074246744
(Vrtc_clk_wait_for_slow_cycle
p1740
(lp1741
(L1915709519L
L0L
(lp1742
(lp1743
tp1744
a(L287687718L
L0L
(lp1745
(lp1746
tp1747
a(L3360570486L
L0L
(lp1748
(lp1749
tp1750
a(L717034245L
L0L
(lp1751
(lp1752
tp1753
a(L1300789833L
L0L
(lp1754
(lp1755
tp1756
a(L1259765481L
L0L
(lp1757
(lp1758
tp1759
a(L3674080948L
L0L
(lp1760
(lp1761
tp1762
a(L2501170394L
L3785322319L
(lp1763
(lp1764
Vesp_log_early_timestamp
p1765
atp1766
atp1767
sI1074268520
(Vbootloader_clock_configure
p1768
(lp1769
(L2559598596L
L1880226080L
(lp1770
(lp1771
Vesp_rom_uart_tx_wait_idle
p1772
aVefuse_hal_chip_revision
p1773
atp1774
a(L1714060431L
L0L
(lp1775
(lp1776
tp1777
a(L883406775L
L0L
(lp1778
(lp1779
tp1780
a(L106L
L0L
(lp1781
(lp1782
tp1783
a(L3646321382L
L1832448559L
(lp1784
(lp1785
Vrtc_clk_slow_src_get
p1786
aVrtc_clk_fast_src_get
p1787
aVrtc_clk_init
p1788
atp1789
a(L3297562552L
L0L
(lp1790
(lp1791
tp1792
a(L1624159269L
L3785322319L
(lp1793
(lp1794
Vrtc_clk_apb_freq_get
p1795
atp1796
a(L106L
L0L
(lp1797
(lp1798
tp1799
a(L106L
L0L
(lp1800
(lp1801
tp1802
atp1803
sI1074243936
(Vwdt_hal_write_protect_disable
p1804
(lp1805
(L1657773300L
L0L
(lp1806
(lp1807
tp1808
a(L4195472003L
L0L
(lp1809
(lp1810
tp1811
a(L3360570486L
L0L
(lp1812
(lp1813
tp1814
a(L1210571996L
L0L
(lp1815
(lp1816
tp1817
atp1818
sI1074237536
(Vbootloader_munmap
p1819
(lp1820
(L1390725234L
L0L
(lp1821
(lp1822
tp1823
a(L1679328888L
L0L
(lp1824
(lp1825
tp1826
a(L3360570486L
L0L
(lp1827
(lp1828
tp1829
atp1830
sI1074247008
(Vesp_rom_spiflash_wait_idle
p1831
(lp1832
(L3233075895L
L0L
(lp1833
(lp1834
tp1835
a(L2023766174L
L0L
(lp1836
(lp1837
tp1838
a(L2805933915L
L0L
(lp1839
(lp1840
tp1841
a(L3086959262L
L0L
(lp1842
(lp1843
tp1844
a(L4161019926L
L3785322319L
(lp1845
(lp1846
Vesp_rom_spiflash_read_status
p1847
atp1848
atp1849
sI1074240876
(Vbootloader_util_regions_overlap
p1850
(lp1851
(L2762640130L
L0L
(lp1852
(lp1853
tp1854
a(L3455000357L
L0L
(lp1855
(lp1856
tp1857
a(L591145840L
L3785322319L
(lp1858
(lp1859
V__assert_func
p1860
atp1861
a(L97642L
L0L
(lp1862
(lp1863
tp1864
a(L294748017L
L0L
(lp1865
(lp1866
tp1867
a(L366123053L
L0L
(lp1868
(lp1869
tp1870
a(L2258867228L
L0L
(lp1871
(lp1872
tp1873
a(L1253626734L
L0L
(lp1874
(lp1875
tp1876
a(L2258897019L
L0L
(lp1877
(lp1878
tp1879
a(L3109269495L
L0L
(lp1880
(lp1881
tp1882
atp1883
sI1074270564
(Vmpu_hal_set_region_access
p1884
(lp1885
(L3538356822L
L0L
(lp1886
(lp1887
tp1888
a(L93674324L
L0L
(lp1889
(lp1890
tp1891
a(L2910371777L
L0L
(lp1892
(lp1893
tp1894
a(L3472092938L
L0L
(lp1895
(lp1896
tp1897
a(L3020187L
L0L
(lp1898
(lp1899
tp1900
a(L3360570486L
L0L
(lp1901
(lp1902
tp1903
a(L2258718273L
L0L
(lp1904
(lp1905
tp1906
a(L3446648619L
L0L
(lp1907
(lp1908
tp1909
a(L3739532189L
L0L
(lp1910
(lp1911
tp1912
a(L1300789895L
L0L
(lp1913
(lp1914
tp1915
atp1916
sI1074236520
(Vesp_rom_uart_set_clock_baudrate
p1917
(lp1918
(L2889646162L
L0L
(lp1919
(lp1920
tp1921
a(L2295279860L
L0L
(lp1922
(lp1923
tp1924
a(L2805931291L
L0L
(lp1925
(lp1926
tp1927
a(L2901979283L
L0L
(lp1928
(lp1929
tp1930
atp1931
sI1074246248
(Vrtc_clk_cal_internal
p1932
(lp1933
(L1883690701L
L0L
(lp1934
(lp1935
tp1936
a(L4291081187L
L3785322319L
(lp1937
(lp1938
V__assert_func
p1939
atp1940
a(L1221653875L
L0L
(lp1941
(lp1942
tp1943
a(L1673513644L
L0L
(lp1944
(lp1945
tp1946
a(L3601390570L
L3785322319L
(lp1947
(lp1948
Vrtc_clk_slow_src_get
p1949
atp1950
a(L3008910671L
L0L
(lp1951
(lp1952
tp1953
a(L97689L
L0L
(lp1954
(lp1955
tp1956
a(L1571791292L
L0L
(lp1957
(lp1958
tp1959
a(L3028464L
L0L
(lp1960
(lp1961
tp1962
a(L3028481L
L0L
(lp1963
(lp1964
tp1965
a(L3450258550L
L0L
(lp1966
(lp1967
tp1968
a(L3417078051L
L3785322319L
(lp1969
(lp1970
Vrtc_clk_xtal_freq_get
p1971
atp1972
a(L2780079961L
L0L
(lp1973
(lp1974
tp1975
a(L3317863055L
L0L
(lp1976
(lp1977
tp1978
a(L3530616353L
L3785322319L
(lp1979
(lp1980
Vesp_log_early_timestamp
p1981
atp1982
a(L2258688482L
L0L
(lp1983
(lp1984
tp1985
a(L3360570486L
L0L
(lp1986
(lp1987
tp1988
a(L3553505594L
L0L
(lp1989
(lp1990
tp1991
a(L403361192L
L0L
(lp1992
(lp1993
tp1994
a(L3243404432L
L3785322319L
(lp1995
(lp1996
Vrtc_clk_8m_enable
p1997
atp1998
a(L4087406995L
L0L
(lp1999
(lp2000
tp2001
a(L321045487L
L0L
(lp2002
(lp2003
tp2004
a(L2910371777L
L0L
(lp2005
(lp2006
tp2007
a(L2902417580L
L0L
(lp2008
(lp2009
tp2010
a(L3322757994L
L0L
(lp2011
(lp2012
tp2013
a(L3020204L
L0L
(lp2014
(lp2015
tp2016
a(L3584126839L
L0L
(lp2017
(lp2018
tp2019
a(L3429540926L
L0L
(lp2020
(lp2021
tp2022
a(L3028464L
L0L
(lp2023
(lp2024
tp2025
a(L3412887891L
L3785322319L
(lp2026
(lp2027
Vrtc_clk_8m_enable
p2028
atp2029
atp2030
sI1074235508
(Vbootloader_read_flash_id
p2031
(lp2032
(L549578328L
L3785322319L
(lp2033
(lp2034
Vbootloader_execute_flash_command
p2035
atp2036
atp2037
sI1074270332
(Vrtc_vddsdio_get_config
p2038
(lp2039
(L3060401973L
L0L
(lp2040
(lp2041
tp2042
a(L1750635626L
L0L
(lp2043
(lp2044
tp2045
a(L3193418487L
L0L
(lp2046
(lp2047
tp2048
a(L3955423747L
L0L
(lp2049
(lp2050
tp2051
a(L115635292L
L0L
(lp2052
(lp2053
tp2054
a(L896053863L
L0L
(lp2055
(lp2056
tp2057
a(L1306330959L
L0L
(lp2058
(lp2059
tp2060
a(L633314314L
L0L
(lp2061
(lp2062
tp2063
atp2064
sI1074237296
(Vspi_to_esp_err
p2065
(lp2066
(L3481169892L
L0L
(lp2067
(lp2068
tp2069
a(L2420870439L
L0L
(lp2070
(lp2071
tp2072
a(L3952441574L
L0L
(lp2073
(lp2074
tp2075
a(L3126521138L
L0L
(lp2076
(lp2077
tp2078
atp2079
sI1074236272
(Vbootloader_flash_dummy_config
p2080
(lp2081
(L379397211L
L0L
(lp2082
(lp2083
tp2084
a(L2761717557L
L0L
(lp2085
(lp2086
tp2087
a(L1849044936L
L0L
(lp2088
(lp2089
tp2090
a(L3702150741L
L0L
(lp2091
(lp2092
tp2093
a(L1010450057L
L0L
(lp2094
(lp2095
tp2096
a(L3020204L
L0L
(lp2097
(lp2098
tp2099
a(L1610443405L
L0L
(lp2100
(lp2101
tp2102
a(L4032120524L
L0L
(lp2103
(lp2104
tp2105
a(L2336993863L
L0L
(lp2106
(lp2107
tp2108
a(L1298875775L
L0L
(lp2109
(lp2110
tp2111
a(L3880393601L
L0L
(lp2112
(lp2113
tp2114
a(L3433671740L
L0L
(lp2115
(lp2116
tp2117
a(L1610443436L
L0L
(lp2118
(lp2119
tp2120
atp2121
sI1074241404
(Vprocess_appended_hash_and_sig
p2122
(lp2123
(L1668084157L
L0L
(lp2124
(lp2125
tp2126
a(L2910371777L
L0L
(lp2127
(lp2128
tp2129
a(L4285188111L
L0L
(lp2130
(lp2131
tp2132
a(L1151175705L
L0L
(lp2133
(lp2134
tp2135
a(L97689L
L0L
(lp2136
(lp2137
tp2138
a(L2803448398L
L3785322319L
(lp2139
(lp2140
Vesp_log_early_timestamp
p2141
atp2142
a(L3620582131L
L0L
(lp2143
(lp2144
tp2145
a(L1464893571L
L3785322319L
(lp2146
(lp2147
Vbootloader_flash_read
p2148
atp2149
a(L735741265L
L0L
(lp2150
(lp2151
tp2152
atp2153
sI1074244220
(Vrtc_clk_32k_enable_common
p2154
(lp2155
(L2746647295L
L0L
(lp2156
(lp2157
tp2158
a(L97422L
L0L
(lp2159
(lp2160
tp2161
a(L2218417248L
L0L
(lp2162
(lp2163
tp2164
a(L3252746339L
L0L
(lp2165
(lp2166
tp2167
a(L51458120L
L0L
(lp2168
(lp2169
tp2170
atp2171
sI1074244984
(Vrtc_clk_fast_src_set
p2172
(lp2173
(L1730079887L
L0L
(lp2174
(lp2175
tp2176
a(L3020187L
L0L
(lp2177
(lp2178
tp2179
a(L3827921190L
L3785322319L
(lp2180
(lp2181
Vabort
p2182
atp2183
a(L2904656757L
L0L
(lp2184
(lp2185
tp2186
a(L2553436348L
L0L
(lp2187
(lp2188
tp2189
a(L300459962L
L0L
(lp2190
(lp2191
tp2192
atp2193
sI1074243968
(Vwdt_hal_set_flashboot_en
p2194
(lp2195
(L2375320464L
L0L
(lp2196
(lp2197
tp2198
a(L3915867581L
L0L
(lp2199
(lp2200
tp2201
a(L3360570486L
L0L
(lp2202
(lp2203
tp2204
a(L2321842085L
L0L
(lp2205
(lp2206
tp2207
atp2208
sI1074247304
(Vesp_rom_spiflash_erase_sector
p2209
(lp2210
(L4132175760L
L0L
(lp2211
(lp2212
tp2213
a(L2258688483L
L0L
(lp2214
(lp2215
tp2216
a(L3360570486L
L0L
(lp2217
(lp2218
tp2219
a(L3212356251L
L3785322319L
(lp2220
(lp2221
Vesp_rom_spiflash_enable_write
p2222
atp2223
a(L184152988L
L0L
(lp2224
(lp2225
tp2226
a(L1649828081L
L3785322319L
(lp2227
(lp2228
Vesp_rom_spiflash_wait_idle
p2229
atp2230
a(L3333707777L
L0L
(lp2231
(lp2232
tp2233
a(L3582858798L
L3785322319L
(lp2234
(lp2235
Vesp_rom_spiflash_wait_idle
p2236
atp2237
atp2238
sI1074237844
(Vbootloader_flash_erase_sector
p2239
(lp2240
(L4129137686L
L1880226080L
(lp2241
(lp2242
Vesp_rom_spiflash_erase_sector
p2243
aVspi_to_esp_err
p2244
atp2245
atp2246
sI1074237588
(Vbootloader_flash_read
p2247
(lp2248
(L3022618172L
L0L
(lp2249
(lp2250
tp2251
a(L3106937175L
L3785322319L
(lp2252
(lp2253
Vesp_log_early_timestamp
p2254
atp2255
a(L2780906736L
L0L
(lp2256
(lp2257
tp2258
a(L1351513776L
L0L
(lp2259
(lp2260
tp2261
a(L1486740491L
L0L
(lp2262
(lp2263
tp2264
a(L1039718061L
L3785322319L
(lp2265
(lp2266
Vesp_log_early_timestamp
p2267
atp2268
a(L3283691850L
L0L
(lp2269
(lp2270
tp2271
a(L1179571907L
L3785322319L
(lp2272
(lp2273
Vesp_log_early_timestamp
p2274
atp2275
a(L3020204L
L0L
(lp2276
(lp2277
tp2278
a(L384130671L
L0L
(lp2279
(lp2280
tp2281
a(L97422L
L0L
(lp2282
(lp2283
tp2284
a(L674456573L
L0L
(lp2285
(lp2286
tp2287
a(L1253319443L
L0L
(lp2288
(lp2289
tp2290
a(L2867857952L
L3785322319L
(lp2291
(lp2292
V__assert_func
p2293
atp2294
a(L2383244345L
L0L
(lp2295
(lp2296
tp2297
a(L3426608415L
L0L
(lp2298
(lp2299
tp2300
a(L3283247405L
L1880226080L
(lp2301
(lp2302
Vesp_rom_spiflash_read
p2303
aVspi_to_esp_err
p2304
atp2305
atp2306
sI1074237328
(Vbootloader_mmap
p2307
(lp2308
(L1371566704L
L0L
(lp2309
(lp2310
tp2311
a(L2788000642L
L3785322319L
(lp2312
(lp2313
Vesp_log_early_timestamp
p2314
atp2315
a(L2867263840L
L0L
(lp2316
(lp2317
tp2318
a(L3729184599L
L0L
(lp2319
(lp2320
tp2321
a(L1917285873L
L3785322319L
(lp2322
(lp2323
Vesp_log_early_timestamp
p2324
atp2325
a(L2258688482L
L0L
(lp2326
(lp2327
tp2328
a(L3360570486L
L0L
(lp2329
(lp2330
tp2331
a(L3476478606L
L0L
(lp2332
(lp2333
tp2334
a(L2387608636L
L0L
(lp2335
(lp2336
tp2337
a(L2524678404L
L3785322319L
(lp2338
(lp2339
Vesp_log_early_timestamp
p2340
atp2341
a(L528675049L
L3785322319L
(lp2342
(lp2343
Vesp_log_early_timestamp
p2344
atp2345
a(L374681421L
L0L
(lp2346
(lp2347
tp2348
atp2349
sI1074245520
(Vrtc_clk_cpu_freq_set_config
p2350
(lp2351
(L3746964885L
L3785322319L
(lp2352
(lp2353
Vrtc_clk_xtal_freq_get
p2354
atp2355
a(L2308773007L
L0L
(lp2356
(lp2357
tp2358
a(L3253451229L
L1880226080L
(lp2359
(lp2360
Vrtc_clk_cpu_freq_to_xtal
p2361
aVrtc_clk_wait_for_slow_cycle
p2362
atp2363
a(L2243645672L
L0L
(lp2364
(lp2365
tp2366
a(L4002786498L
L0L
(lp2367
(lp2368
tp2369
a(L2736411858L
L3785322319L
(lp2370
(lp2371
Vrtc_clk_cpu_freq_to_xtal
p2372
atp2373
a(L3360570486L
L0L
(lp2374
(lp2375
tp2376
a(L2755207760L
L1832448559L
(lp2377
(lp2378
Vrtc_clk_cpu_freq_to_xtal
p2379
aVrtc_clk_wait_for_slow_cycle
p2380
aVrtc_clk_bbpll_disable
p2381
atp2382
a(L3020187L
L0L
(lp2383
(lp2384
tp2385
a(L106L
L0L
(lp2386
(lp2387
tp2388
a(L1631797256L
L1880226080L
(lp2389
(lp2390
Vrtc_clk_wait_for_slow_cycle
p2391
aVrtc_clk_xtal_freq_get
p2392
atp2393
a(L106L
L0L
(lp2394
(lp2395
tp2396
a(L3206966292L
L0L
(lp2397
(lp2398
tp2399
a(L83268611L
L0L
(lp2400
(lp2401
tp2402
a(L106L
L0L
(lp2403
(lp2404
tp2405
a(L82345090L
L0L
(lp2406
(lp2407
tp2408
a(L106L
L0L
(lp2409
(lp2410
tp2411
a(L2258718273L
L0L
(lp2412
(lp2413
tp2414
a(L3298883534L
L0L
(lp2415
(lp2416
tp2417
a(L4039217794L
L0L
(lp2418
(lp2419
tp2420
a(L1853369065L
L3785322319L
(lp2421
(lp2422
Vrtc_clk_cpu_freq_to_pll_mhz
p2423
atp2424
a(L1578134477L
L0L
(lp2425
(lp2426
tp2427
a(L83268344L
L0L
(lp2428
(lp2429
tp2430
a(L82344823L
L0L
(lp2431
(lp2432
tp2433
a(L1569180676L
L0L
(lp2434
(lp2435
tp2436
a(L2258837488L
L0L
(lp2437
(lp2438
tp2439
a(L2973145752L
L0L
(lp2440
(lp2441
tp2442
a(L1482311963L
L0L
(lp2443
(lp2444
tp2445
a(L133411965L
L0L
(lp2446
(lp2447
tp2448
a(L3673491036L
L0L
(lp2449
(lp2450
tp2451
a(L4197990447L
L0L
(lp2452
(lp2453
tp2454
a(L903154985L
L0L
(lp2455
(lp2456
tp2457
a(L3020187L
L0L
(lp2458
(lp2459
tp2460
a(L106L
L0L
(lp2461
(lp2462
tp2463
a(L4274008496L
L3785322319L
(lp2464
(lp2465
Vesp_rom_set_cpu_ticks_per_us
p2466
atp2467
atp2468
sI1074247056
(Vesp_rom_spiflash_enable_write
p2469
(lp2470
(L4099434165L
L3785322319L
(lp2471
(lp2472
Vesp_rom_spiflash_wait_idle
p2473
atp2474
a(L3333707777L
L0L
(lp2475
(lp2476
tp2477
a(L2258688484L
L0L
(lp2478
(lp2479
tp2480
a(L99543895L
L0L
(lp2481
(lp2482
tp2483
a(L2993202392L
L0L
(lp2484
(lp2485
tp2486
a(L2783731080L
L3785322319L
(lp2487
(lp2488
Vesp_rom_spiflash_read_status
p2489
atp2490
atp2491
sI1074235804
(Vbootloader_flash_gpio_config
p2492
(lp2493
(L3362256192L
L3785322319L
(lp2494
(lp2495
Vbootloader_common_get_chip_ver_pkg
p2496
atp2497
a(L106L
L0L
(lp2498
(lp2499
tp2500
a(L1998579353L
L0L
(lp2501
(lp2502
tp2503
a(L106L
L0L
(lp2504
(lp2505
tp2506
a(L961479410L
L0L
(lp2507
(lp2508
tp2509
a(L1365162803L
L0L
(lp2510
(lp2511
tp2512
a(L106L
L0L
(lp2513
(lp2514
tp2515
a(L4003626558L
L0L
(lp2516
(lp2517
tp2518
a(L2656511625L
L0L
(lp2519
(lp2520
tp2521
a(L3360570486L
L0L
(lp2522
(lp2523
tp2524
atp2525
sI1074244764
(Vrtc_clk_8m_enabled
p2526
(lp2527
(L525412044L
L0L
(lp2528
(lp2529
tp2530
atp2531
sI1074242724
(Vbootloader_load_image
p2532
(lp2533
(L1155870502L
L3785322319L
(lp2534
(lp2535
Vimage_load
p2536
atp2537
atp2538
sI1074240932
(Vverify_load_addresses
p2539
(lp2540
(L2764487219L
L0L
(lp2541
(lp2542
tp2543
a(L106L
L0L
(lp2544
(lp2545
tp2546
a(L97642L
L0L
(lp2547
(lp2548
tp2549
a(L1636190398L
L3785322319L
(lp2550
(lp2551
V__assert_func
p2552
atp2553
a(L2689564968L
L0L
(lp2554
(lp2555
tp2556
a(L106L
L0L
(lp2557
(lp2558
tp2559
a(L955403079L
L0L
(lp2560
(lp2561
tp2562
a(L106L
L0L
(lp2563
(lp2564
tp2565
a(L1931809410L
L3785322319L
(lp2566
(lp2567
Vbootloader_util_regions_overlap
p2568
atp2569
a(L3220103854L
L3785322319L
(lp2570
(lp2571
Vbootloader_util_regions_overlap
p2572
atp2573
a(L3028481L
L0L
(lp2574
(lp2575
tp2576
a(L2903799537L
L3785322319L
(lp2577
(lp2578
Vbootloader_util_regions_overlap
p2579
atp2580
a(L505363446L
L0L
(lp2581
(lp2582
tp2583
a(L3735510773L
L0L
(lp2584
(lp2585
tp2586
a(L1032381749L
L0L
(lp2587
(lp2588
tp2589
a(L2837304413L
L0L
(lp2590
(lp2591
tp2592
a(L677569396L
L3785322319L
(lp2593
(lp2594
Vverify_load_addresses
p2595
atp2596
a(L1351513776L
L0L
(lp2597
(lp2598
tp2599
a(L956755582L
L0L
(lp2600
(lp2601
tp2602
a(L77090330L
L0L
(lp2603
(lp2604
tp2605
a(L2955059068L
L0L
(lp2606
(lp2607
tp2608
a(L106L
L0L
(lp2609
(lp2610
tp2611
a(L3995462789L
L0L
(lp2612
(lp2613
tp2614
a(L106L
L0L
(lp2615
(lp2616
tp2617
a(L1749436142L
L3785322319L
(lp2618
(lp2619
Vbootloader_util_regions_overlap
p2620
atp2621
a(L3028481L
L0L
(lp2622
(lp2623
tp2624
a(L33969334L
L3785322319L
(lp2625
(lp2626
Vbootloader_util_regions_overlap
p2627
atp2628
a(L157157218L
L0L
(lp2629
(lp2630
tp2631
a(L2724588951L
L0L
(lp2632
(lp2633
tp2634
a(L3541235553L
L0L
(lp2635
(lp2636
tp2637
a(L2743341656L
L0L
(lp2638
(lp2639
tp2640
a(L182882711L
L0L
(lp2641
(lp2642
tp2643
a(L3951887390L
L0L
(lp2644
(lp2645
tp2646
a(L297163306L
L0L
(lp2647
(lp2648
tp2649
a(L1900059593L
L0L
(lp2650
(lp2651
tp2652
a(L2880328952L
L0L
(lp2653
(lp2654
tp2655
a(L3603318964L
L0L
(lp2656
(lp2657
tp2658
a(L3929371936L
L0L
(lp2659
(lp2660
tp2661
a(L2805932675L
L0L
(lp2662
(lp2663
tp2664
a(L4072848040L
L0L
(lp2665
(lp2666
tp2667
a(L106L
L0L
(lp2668
(lp2669
tp2670
a(L955501690L
L0L
(lp2671
(lp2672
tp2673
a(L307917249L
L0L
(lp2674
(lp2675
tp2676
a(L3020204L
L0L
(lp2677
(lp2678
tp2679
a(L2129027389L
L3785322319L
(lp2680
(lp2681
Vesp_log_early_timestamp
p2682
atp2683
a(L1303560396L
L0L
(lp2684
(lp2685
tp2686
a(L955500357L
L0L
(lp2687
(lp2688
tp2689
a(L1303560427L
L0L
(lp2690
(lp2691
tp2692
atp2693
sI1074235556
(Vbootloader_flash_xmc_startup
p2694
(lp2695
(L2007527597L
L3785322319L
(lp2696
(lp2697
Vis_xmc_chip_strict
p2698
atp2699
a(L2258688482L
L0L
(lp2700
(lp2701
tp2702
a(L3360570486L
L0L
(lp2703
(lp2704
tp2705
a(L251913992L
L3785322319L
(lp2706
(lp2707
Vbootloader_flash_read_sfdp
p2708
atp2709
a(L3093183620L
L267944800L
(lp2710
(lp2711
Vbootloader_execute_flash_command
p2712
aVbootloader_execute_flash_command
p2713
aVbootloader_execute_flash_command
p2714
aVbootloader_execute_flash_command
p2715
aVbootloader_read_flash_id
p2716
aVis_xmc_chip_strict
p2717
atp2718
a(L3994954364L
L3785322319L
(lp2719
(lp2720
Vesp_log_early_timestamp
p2721
atp2722
atp2723
sI1074244516
(Vrtc_clk_bbpll_disable
p2724
(lp2725
(L2787270248L
L0L
(lp2726
(lp2727
tp2728
a(L2472207241L
L0L
(lp2729
(lp2730
tp2731
a(L3360570486L
L0L
(lp2732
(lp2733
tp2734
atp2735
sI1074238112
(Vbootloader_random_disable
p2736
(lp2737
(L1556825775L
L0L
(lp2738
(lp2739
tp2740
atp2741
sI1074236832
(Vesp_log_early_timestamp
p2742
(lp2743
(L387765101L
L0L
(lp2744
(lp2745
tp2746
atp2747
sI1074240424
(Vbootloader_console_deinit
p2748
(lp2749
(L211274347L
L0L
(lp2750
(lp2751
tp2752
atp2753
sI1074237864
(Vbootloader_flash_write
p2754
(lp2755
(L3770380603L
L0L
(lp2756
(lp2757
tp2758
a(L2547417610L
L3785322319L
(lp2759
(lp2760
Vesp_log_early_timestamp
p2761
atp2762
a(L3833270346L
L0L
(lp2763
(lp2764
tp2765
a(L1610445075L
L0L
(lp2766
(lp2767
tp2768
a(L735741265L
L0L
(lp2769
(lp2770
tp2771
a(L3291333414L
L0L
(lp2772
(lp2773
tp2774
a(L3508304306L
L3785322319L
(lp2775
(lp2776
Vesp_log_early_timestamp
p2777
atp2778
a(L3283691850L
L0L
(lp2779
(lp2780
tp2781
a(L1591956746L
L3785322319L
(lp2782
(lp2783
Vesp_log_early_timestamp
p2784
atp2785
a(L3212356251L
L3785322319L
(lp2786
(lp2787
Vbootloader_flash_unlock
p2788
atp2789
a(L1799218633L
L0L
(lp2790
(lp2791
tp2792
a(L94425498L
L3785322319L
(lp2793
(lp2794
Vesp_rom_spiflash_write_encrypted
p2795
atp2796
a(L2927190544L
L3785322319L
(lp2797
(lp2798
Vspi_to_esp_err
p2799
atp2800
a(L2927190544L
L3785322319L
(lp2801
(lp2802
Vesp_rom_spiflash_write
p2803
atp2804
atp2805
sI1074239156
(Vset_actual_ota_seq
p2806
(lp2807
(L4094723830L
L0L
(lp2808
(lp2809
tp2810
a(L3473028212L
L0L
(lp2811
(lp2812
tp2813
a(L2298406097L
L1832448559L
(lp2814
(lp2815
Vbootloader_common_ota_select_crc
p2816
aVesp_flash_encryption_enabled
p2817
aVbootloader_flash_erase_sector
p2818
atp2819
a(L3383023989L
L3785322319L
(lp2820
(lp2821
Vbootloader_flash_write
p2822
atp2823
a(L2105144810L
L3785322319L
(lp2824
(lp2825
Vesp_log_early_timestamp
p2826
atp2827
a(L3360570486L
L0L
(lp2828
(lp2829
tp2830
atp2831
sI1074242740
(Vesp_partition_table_verify
p2832
(lp2833
(L3052823174L
L0L
(lp2834
(lp2835
tp2836
a(L2293836972L
L0L
(lp2837
(lp2838
tp2839
a(L1184829782L
L0L
(lp2840
(lp2841
tp2842
a(L3020204L
L0L
(lp2843
(lp2844
tp2845
a(L3784844030L
L3785322319L
(lp2846
(lp2847
Vesp_log_early_timestamp
p2848
atp2849
a(L1235012963L
L0L
(lp2850
(lp2851
tp2852
a(L3190337587L
L0L
(lp2853
(lp2854
tp2855
a(L2069928857L
L0L
(lp2856
(lp2857
tp2858
a(L2902417580L
L0L
(lp2859
(lp2860
tp2861
a(L3505186244L
L3785322319L
(lp2862
(lp2863
Vesp_log_early_timestamp
p2864
atp2865
a(L2249653215L
L0L
(lp2866
(lp2867
tp2868
a(L3020204L
L0L
(lp2869
(lp2870
tp2871
a(L3020204L
L0L
(lp2872
(lp2873
tp2874
a(L1637091147L
L3785322319L
(lp2875
(lp2876
Vesp_log_early_timestamp
p2877
atp2878
a(L3833270346L
L0L
(lp2879
(lp2880
tp2881
a(L1235012932L
L0L
(lp2882
(lp2883
tp2884
a(L706222816L
L0L
(lp2885
(lp2886
tp2887
a(L3020204L
L0L
(lp2888
(lp2889
tp2890
a(L3505186740L
L3785322319L
(lp2891
(lp2892
Vesp_log_early_timestamp
p2893
atp2894
a(L1305407469L
L0L
(lp2895
(lp2896
tp2897
a(L1167861556L
L0L
(lp2898
(lp2899
tp2900
a(L818997085L
L0L
(lp2901
(lp2902
tp2903
a(L3360570486L
L0L
(lp2904
(lp2905
tp2906
a(L3020204L
L0L
(lp2907
(lp2908
tp2909
a(L1704747097L
L3785322319L
(lp2910
(lp2911
Vesp_log_early_timestamp
p2912
atp2913
atp2914
sI1074244788
(Vrtc_clk_8md256_enabled
p2915
(lp2916
(L3975907469L
L0L
(lp2917
(lp2918
tp2919
atp2920
sI1074247604
(Vesp_rom_spiflash_write_encrypted
p2921
(lp2922
(L1944247967L
L0L
(lp2923
(lp2924
tp2925
a(L1748820868L
L0L
(lp2926
(lp2927
tp2928
a(L97689L
L0L
(lp2929
(lp2930
tp2931
a(L3061232074L
L0L
(lp2932
(lp2933
tp2934
a(L1285878496L
L0L
(lp2935
(lp2936
tp2937
a(L1309309703L
L3785322319L
(lp2938
(lp2939
Vesp_rom_spiflash_write
p2940
atp2941
a(L2371036837L
L0L
(lp2942
(lp2943
tp2944
a(L735741265L
L0L
(lp2945
(lp2946
tp2947
atp2948
sI1074269628
(Vbootloader_console_init
p2949
(lp2950
(L3761484553L
L1832448559L
(lp2951
(lp2952
Vesp_rom_uart_tx_wait_idle
p2953
aVrtc_clk_apb_freq_get
p2954
aVesp_rom_uart_set_clock_baudrate
p2955
atp2956
atp2957
sI1074240688
(Vprocess_image_header
p2958
(lp2959
(L3641676667L
L3785322319L
(lp2960
(lp2961
Vbootloader_flash_read
p2962
atp2963
a(L3020204L
L0L
(lp2964
(lp2965
tp2966
a(L4205021202L
L0L
(lp2967
(lp2968
tp2969
a(L321261932L
L0L
(lp2970
(lp2971
tp2972
a(L1161397362L
L3785322319L
(lp2973
(lp2974
Vbootloader_sha256_start
p2975
atp2976
a(L2062774299L
L3785322319L
(lp2977
(lp2978
Vbootloader_sha256_data
p2979
atp2980
a(L1291118193L
L0L
(lp2981
(lp2982
tp2983
a(L3028481L
L0L
(lp2984
(lp2985
tp2986
a(L2141311787L
L3785322319L
(lp2987
(lp2988
Vesp_log_early_timestamp
p2989
atp2990
a(L3200754103L
L0L
(lp2991
(lp2992
tp2993
a(L2983970029L
L0L
(lp2994
(lp2995
tp2996
a(L4235213884L
L3785322319L
(lp2997
(lp2998
Vbootloader_common_check_chip_validity
p2999
atp3000
a(L4144303915L
L0L
(lp3001
(lp3002
tp3003
a(L3028481L
L0L
(lp3004
(lp3005
tp3006
a(L1467082135L
L3785322319L
(lp3007
(lp3008
Vesp_log_early_timestamp
p3009
atp3010
a(L2852701393L
L0L
(lp3011
(lp3012
tp3013
a(L2122516551L
L0L
(lp3014
(lp3015
tp3016
a(L3064492592L
L0L
(lp3017
(lp3018
tp3019
atp3020
sI1074269620
(Vbootloader_enable_random
p3021
(lp3022
(L1287383080L
L3785322319L
(lp3023
(lp3024
Vbootloader_random_enable
p3025
atp3026
atp3027
sI1074236600
(Vefuse_hal_chip_revision
p3028
(lp3029
(L2719302832L
L1880226080L
(lp3030
(lp3031
Vefuse_hal_get_major_chip_version
p3032
aVefuse_hal_get_minor_chip_version
p3033
atp3034
atp3035
sI1074240440
(V__assert_func
p3036
(lp3037
(L3015227614L
L0L
(lp3038
(lp3039
tp3040
a(L106L
L0L
(lp3041
(lp3042
tp3043
atp3044
sI1074245048
(Vrtc_clk_fast_src_get
p3045
(lp3046
(L322270006L
L0L
(lp3047
(lp3048
tp3049
atp3050
sI1074244036
(Vwdt_hal_write_protect_enable
p3051
(lp3052
(L387778158L
L0L
(lp3053
(lp3054
tp3055
a(L4195472003L
L0L
(lp3056
(lp3057
tp3058
a(L3360570486L
L0L
(lp3059
(lp3060
tp3061
a(L802523425L
L0L
(lp3062
(lp3063
tp3064
atp3065
sI1074243008
(Vwdt_hal_init
p3066
(lp3067
(L3917715720L
L0L
(lp3068
(lp3069
tp3070
a(L106L
L0L
(lp3071
(lp3072
tp3073
a(L2104868267L
L0L
(lp3074
(lp3075
tp3076
a(L3076988543L
L0L
(lp3077
(lp3078
tp3079
a(L3434404005L
L0L
(lp3080
(lp3081
tp3082
a(L3028464L
L0L
(lp3083
(lp3084
tp3085
a(L826407067L
L0L
(lp3086
(lp3087
tp3088
a(L883365564L
L0L
(lp3089
(lp3090
tp3091
a(L3556634787L
L0L
(lp3092
(lp3093
tp3094
a(L3360570486L
L0L
(lp3095
(lp3096
tp3097
atp3098
sI1074242240
(Vimage_load
p3099
(lp3100
(L3048705773L
L0L
(lp3101
(lp3102
tp3103
a(L3463713141L
L0L
(lp3104
(lp3105
tp3106
a(L3309803581L
L0L
(lp3107
(lp3108
tp3109
a(L256049682L
L0L
(lp3110
(lp3111
tp3112
a(L1935188817L
L0L
(lp3113
(lp3114
tp3115
a(L3028481L
L0L
(lp3116
(lp3117
tp3118
a(L3021749L
L0L
(lp3119
(lp3120
tp3121
a(L106L
L0L
(lp3122
(lp3123
tp3124
a(L585264737L
L0L
(lp3125
(lp3126
tp3127
a(L1145291904L
L3785322319L
(lp3128
(lp3129
Vprocess_image_header
p3130
atp3131
a(L823859500L
L0L
(lp3132
(lp3133
tp3134
a(L3061291474L
L0L
(lp3135
(lp3136
tp3137
a(L4106474008L
L3785322319L
(lp3138
(lp3139
Vprocess_segments
p3140
atp3141
a(L3868840998L
L0L
(lp3142
(lp3143
tp3144
a(L2462932903L
L0L
(lp3145
(lp3146
tp3147
a(L1827898452L
L3785322319L
(lp3148
(lp3149
Vprocess_checksum
p3150
atp3151
a(L2214715179L
L3785322319L
(lp3152
(lp3153
Vprocess_appended_hash_and_sig
p3154
atp3155
a(L3028481L
L0L
(lp3156
(lp3157
tp3158
a(L2902417580L
L0L
(lp3159
(lp3160
tp3161
a(L3285560995L
L3785322319L
(lp3162
(lp3163
Vbootloader_sha256_finish
p3164
atp3165
a(L3946560000L
L0L
(lp3166
(lp3167
tp3168
a(L93674324L
L0L
(lp3169
(lp3170
tp3171
a(L843241619L
L0L
(lp3172
(lp3173
tp3174
a(L772115669L
L0L
(lp3175
(lp3176
tp3177
a(L1179424413L
L0L
(lp3178
(lp3179
tp3180
a(L3928150917L
L0L
(lp3181
(lp3182
tp3183
a(L106L
L0L
(lp3184
(lp3185
tp3186
a(L3871473710L
L0L
(lp3187
(lp3188
tp3189
a(L3884726427L
L0L
(lp3190
(lp3191
tp3192
a(L106L
L0L
(lp3193
(lp3194
tp3195
a(L3020187L
L0L
(lp3196
(lp3197
tp3198
a(L2886058719L
L3785322319L
(lp3199
(lp3200
Vesp_log_early_timestamp
p3201
atp3202
a(L2868044067L
L0L
(lp3203
(lp3204
tp3205
a(L1179764900L
L0L
(lp3206
(lp3207
tp3208
a(L2332746046L
L3785322319L
(lp3209
(lp3210
Vbootloader_sha256_finish
p3211
atp3212
a(L3847544400L
L0L
(lp3213
(lp3214
tp3215
a(L3020204L
L0L
(lp3216
(lp3217
tp3218
a(L1090351773L
L0L
(lp3219
(lp3220
tp3221
a(L106L
L0L
(lp3222
(lp3223
tp3224
a(L3947452664L
L1880226080L
(lp3225
(lp3226
Vbootloader_sha256_finish
p3227
aVbootloader_debug_buffer
p3228
atp3229
a(L161886071L
L1880226080L
(lp3230
(lp3231
Vesp_log_early_timestamp
p3232
aVbootloader_debug_buffer
p3233
atp3234
a(L3741653406L
L3785322319L
(lp3235
(lp3236
Vshould_load
p3237
atp3238
a(L2764257181L
L0L
(lp3239
(lp3240
tp3241
a(L3338774213L
L0L
(lp3242
(lp3243
tp3244
a(L3464541874L
L0L
(lp3245
(lp3246
tp3247
a(L3349572949L
L0L
(lp3248
(lp3249
tp3250
a(L2192292519L
L0L
(lp3251
(lp3252
tp3253
a(L106L
L0L
(lp3254
(lp3255
tp3256
a(L26615924L
L0L
(lp3257
(lp3258
tp3259
a(L1299866312L
L0L
(lp3260
(lp3261
tp3262
a(L3010020263L
L0L
(lp3263
(lp3264
tp3265
atp3266
sI1074236864
(Vbootloader_common_ota_select_crc
p3267
(lp3268
(L2530349931L
L0L
(lp3269
(lp3270
tp3271
atp3272
sI1074269888
(Vrtc_clk_init
p3273
(lp3274
(L1949755473L
L0L
(lp3275
(lp3276
tp3277
a(L42671777L
L3785322319L
(lp3278
(lp3279
Vrtc_clk_cpu_freq_to_xtal
p3280
atp3281
a(L4210699952L
L3785322319L
(lp3282
(lp3283
Vrtc_clk_xtal_freq_get
p3284
atp3285
a(L3028481L
L0L
(lp3286
(lp3287
tp3288
a(L4284274517L
L3785322319L
(lp3289
(lp3290
Vrtc_clk_xtal_freq_estimate
p3291
atp3292
a(L1165738187L
L3785322319L
(lp3293
(lp3294
Vesp_log_early_timestamp
p3295
atp3296
a(L3254275454L
L1157885199L
(lp3297
(lp3298
Vesp_rom_uart_tx_wait_idle
p3299
aVrtc_clk_xtal_freq_update
p3300
aVrtc_clk_apb_freq_update
p3301
aVrtc_clk_cpu_freq_get_config
p3302
aVrtc_clk_cpu_freq_mhz_to_config
p3303
atp3304
a(L1472250234L
L1880226080L
(lp3305
(lp3306
Vesp_log_early_timestamp
p3307
aVabort
p3308
atp3309
a(L2902417580L
L0L
(lp3310
(lp3311
tp3312
a(L1899970065L
L0L
(lp3313
(lp3314
tp3315
a(L377687546L
L3785322319L
(lp3316
(lp3317
Vrtc_clk_xtal_freq_estimate
p3318
atp3319
a(L1611917966L
L3785322319L
(lp3320
(lp3321
Vesp_log_early_timestamp
p3322
atp3323
a(L2242669021L
L3785322319L
(lp3324
(lp3325
Vrtc_clk_cpu_freq_set_config
p3326
atp3327
a(L912310138L
L3785322319L
(lp3328
(lp3329
Vrtc_clk_32k_enable
p3330
atp3331
a(L3191820416L
L1832448559L
(lp3332
(lp3333
Vrtc_clk_8m_enable
p3334
aVrtc_clk_fast_src_set
p3335
aVrtc_clk_slow_src_set
p3336
atp3337
a(L1232958848L
L0L
(lp3338
(lp3339
tp3340
atp3341
sI1074244812
(Vrtc_clk_slow_src_set
p3342
(lp3343
(L841441661L
L0L
(lp3344
(lp3345
tp3346
a(L3020187L
L0L
(lp3347
(lp3348
tp3349
a(L3028481L
L0L
(lp3350
(lp3351
tp3352
a(L487821223L
L0L
(lp3353
(lp3354
tp3355
a(L126549677L
L0L
(lp3356
(lp3357
tp3358
a(L1851908495L
L0L
(lp3359
(lp3360
tp3361
a(L2729394930L
L0L
(lp3362
(lp3363
tp3364
a(L3138544334L
L0L
(lp3365
(lp3366
tp3367
a(L94425498L
L3785322319L
(lp3368
(lp3369
Vabort
p3370
atp3371
atp3372
sI1074245064
(Vrtc_clk_xtal_freq_get
p3373
(lp3374
(L2814399712L
L0L
(lp3375
(lp3376
tp3377
a(L2847936993L
L0L
(lp3378
(lp3379
tp3380
a(L1251847234L
L0L
(lp3381
(lp3382
tp3383
a(L3360570486L
L0L
(lp3384
(lp3385
tp3386
atp3387
sI1074247112
(Vesp_rom_spiflash_program_page_internal
p3388
(lp3389
(L2569069283L
L0L
(lp3390
(lp3391
tp3392
a(L2258688483L
L0L
(lp3393
(lp3394
tp3395
a(L3360570486L
L0L
(lp3396
(lp3397
tp3398
a(L2757683300L
L0L
(lp3399
(lp3400
tp3401
a(L4235661475L
L3785322319L
(lp3402
(lp3403
Vesp_rom_spiflash_wait_idle
p3404
atp3405
a(L1299866312L
L0L
(lp3406
(lp3407
tp3408
a(L3212356251L
L3785322319L
(lp3409
(lp3410
Vesp_rom_spiflash_enable_write
p3411
atp3412
a(L2861339156L
L0L
(lp3413
(lp3414
tp3415
a(L1023242343L
L0L
(lp3416
(lp3417
tp3418
a(L2953702749L
L0L
(lp3419
(lp3420
tp3421
a(L2989032L
L0L
(lp3422
(lp3423
tp3424
a(L1965622133L
L0L
(lp3425
(lp3426
tp3427
a(L2606475588L
L0L
(lp3428
(lp3429
tp3430
a(L1958113242L
L0L
(lp3431
(lp3432
tp3433
a(L106L
L0L
(lp3434
(lp3435
tp3436
a(L3112950080L
L0L
(lp3437
(lp3438
tp3439
a(L1868606439L
L0L
(lp3440
(lp3441
tp3442
a(L1008983796L
L0L
(lp3443
(lp3444
tp3445
a(L1933954923L
L0L
(lp3446
(lp3447
tp3448
a(L1147866918L
L0L
(lp3449
(lp3450
tp3451
a(L3871602522L
L0L
(lp3452
(lp3453
tp3454
atp3455
sI1074241492
(Vshould_load
p3456
(lp3457
(L831996828L
L0L
(lp3458
(lp3459
tp3460
a(L1182990556L
L0L
(lp3461
(lp3462
tp3463
a(L388737285L
L0L
(lp3464
(lp3465
tp3466
a(L2306467100L
L0L
(lp3467
(lp3468
tp3469
a(L524505062L
L0L
(lp3470
(lp3471
tp3472
a(L2258897019L
L0L
(lp3473
(lp3474
tp3475
a(L3781799363L
L0L
(lp3476
(lp3477
tp3478
a(L3028464L
L0L
(lp3479
(lp3480
tp3481
a(L11641708L
L0L
(lp3482
(lp3483
tp3484
a(L4277114872L
L0L
(lp3485
(lp3486
tp3487
a(L2824381917L
L0L
(lp3488
(lp3489
tp3490
a(L1243412227L
L0L
(lp3491
(lp3492
tp3493
a(L2011157548L
L0L
(lp3494
(lp3495
tp3496
a(L3126521138L
L0L
(lp3497
(lp3498
tp3499
a(L1305407438L
L0L
(lp3500
(lp3501
tp3502
a(L1305407469L
L0L
(lp3503
(lp3504
tp3505
atp3506
sI1074236884
(Vbootloader_common_ota_select_valid
p3507
(lp3508
(L1563399710L
L3785322319L
(lp3509
(lp3510
Vbootloader_common_ota_select_invalid
p3511
atp3512
a(L3814720849L
L3785322319L
(lp3513
(lp3514
Vbootloader_common_ota_select_crc
p3515
atp3516
a(L3360570486L
L0L
(lp3517
(lp3518
tp3519
atp3520
sI1074238672
(Vcache_ll_l1_enable_bus
p3521
(lp3522
(L3709595376L
L0L
(lp3523
(lp3524
tp3525
atp3526
sI1074236624
(Vefuse_hal_flash_encryption_enabled
p3527
(lp3528
(L2932383536L
L0L
(lp3529
(lp3530
tp3531
a(L2910371777L
L0L
(lp3532
(lp3533
tp3534
a(L3360570486L
L0L
(lp3535
(lp3536
tp3537
a(L3016870L
L0L
(lp3538
(lp3539
tp3540
a(L3745038218L
L0L
(lp3541
(lp3542
tp3543
a(L957607403L
L0L
(lp3544
(lp3545
tp3546
atp3547
sI1074240464
(Vabort
p3548
(lp3549
(L2210763366L
L0L
(lp3550
(lp3551
tp3552
a(L409471316L
L0L
(lp3553
(lp3554
tp3555
a(L106L
L0L
(lp3556
(lp3557
tp3558
atp3559
sI1074238428
(Vbootloader_clock_get_rated_freq_mhz
p3560
(lp3561
(L376617603L
L3785322319L
(lp3562
(lp3563
Vefuse_hal_get_rated_freq_mhz
p3564
atp3565
atp3566
sI1074269396
(Vbootloader_clear_bss_section
p3567
(lp3568
(L1035474915L
L0L
(lp3569
(lp3570
tp3571
atp3572
sI1074245336
(Vrtc_clk_xtal_freq_update
p3573
(lp3574
(L4131331546L
L0L
(lp3575
(lp3576
tp3577
a(L3509357017L
L0L
(lp3578
(lp3579
tp3580
a(L2266180931L
L0L
(lp3581
(lp3582
tp3583
atp3584
sI1074240228
(Vbootloader_sha256_finish
p3585
(lp3586
(L4066096136L
L0L
(lp3587
(lp3588
tp3589
a(L1918014298L
L0L
(lp3590
(lp3591
tp3592
a(L3627025138L
L3785322319L
(lp3593
(lp3594
V__assert_func
p3595
atp3596
a(L3020204L
L0L
(lp3597
(lp3598
tp3599
a(L1140538619L
L0L
(lp3600
(lp3601
tp3602
a(L2534656226L
L0L
(lp3603
(lp3604
tp3605
a(L2746554839L
L3785322319L
(lp3606
(lp3607
Vbootloader_sha256_data
p3608
atp3609
a(L2437171593L
L0L
(lp3610
(lp3611
tp3612
a(L770086497L
L3785322319L
(lp3613
(lp3614
Vbootloader_sha256_data
p3615
atp3616
a(L2482436287L
L0L
(lp3617
(lp3618
tp3619
a(L657425439L
L0L
(lp3620
(lp3621
tp3622
a(L3971462626L
L0L
(lp3623
(lp3624
tp3625
a(L657425439L
L0L
(lp3626
(lp3627
tp3628
a(L1808515429L
L0L
(lp3629
(lp3630
tp3631
a(L4004422193L
L0L
(lp3632
(lp3633
tp3634
a(L3347778L
L0L
(lp3635
(lp3636
tp3637
a(L3360570486L
L0L
(lp3638
(lp3639
tp3640
atp3641
sI1074269420
(Vbootloader_read_bootloader_header
p3642
(lp3643
(L357175441L
L3785322319L
(lp3644
(lp3645
Vbootloader_flash_read
p3646
atp3647
a(L740409177L
L3785322319L
(lp3648
(lp3649
Vesp_log_early_timestamp
p3650
atp3651
a(L735741265L
L0L
(lp3652
(lp3653
tp3654
atp3655
sI1074237152
(Vbootloader_common_get_active_otadata
p3656
(lp3657
(L3317503532L
L0L
(lp3658
(lp3659
tp3660
a(L2503049265L
L1832448559L
(lp3661
(lp3662
Vbootloader_common_ota_select_valid
p3663
aVbootloader_common_ota_select_valid
p3664
aVbootloader_common_select_otadata
p3665
atp3666
a(L735741265L
L0L
(lp3667
(lp3668
tp3669
atp3670
sI1074244064
(Vwdt_hal_enable
p3671
(lp3672
(L2299130915L
L0L
(lp3673
(lp3674
tp3675
a(L165794138L
L0L
(lp3676
(lp3677
tp3678
a(L3360570486L
L0L
(lp3679
(lp3680
tp3681
a(L2847657174L
L0L
(lp3682
(lp3683
tp3684
atp3685
sI1074244576
(Vrtc_clk_32k_enable
p3686
(lp3687
(L753387299L
L0L
(lp3688
(lp3689
tp3690
a(L3776007933L
L3785322319L
(lp3691
(lp3692
Vrtc_clk_32k_enable_common
p3693
atp3694
a(L3496950L
L0L
(lp3695
(lp3696
tp3697
a(L4107296604L
L0L
(lp3698
(lp3699
tp3700
atp3701
sI1074269664
(Vesp_cpu_configure_region_protection
p3702
(lp3703
(L2370813982L
L0L
(lp3704
(lp3705
tp3706
a(L180431425L
L3785322319L
(lp3707
(lp3708
Vmpu_hal_set_region_access
p3709
atp3710
a(L2537388152L
L3785322319L
(lp3711
(lp3712
Vmpu_hal_set_region_access
p3713
atp3714
atp3715
sI1074239724
(Vbootloader_reset
p3716
(lp3717
(L454693784L
L3785322319L
(lp3718
(lp3719
Vbootloader_console_deinit
p3720
atp3721
a(L106L
L0L
(lp3722
(lp3723
tp3724
atp3725
sI1074267620
(Vcall_start_cpu0
p3726
(lp3727
(L1137852827L
L0L
(lp3728
(lp3729
tp3730
a(L549459388L
L0L
(lp3731
(lp3732
tp3733
a(L3212347974L
L3785322319L
(lp3734
(lp3735
Vbootloader_init
p3736
atp3737
a(L94425498L
L3785322319L
(lp3738
(lp3739
Vbootloader_reset
p3740
atp3741
a(L1122046408L
L0L
(lp3742
(lp3743
tp3744
a(L4099474112L
L0L
(lp3745
(lp3746
tp3747
a(L3015046664L
L3785322319L
(lp3748
(lp3749
Vbootloader_utility_load_partition_table
p3750
atp3751
a(L2761094216L
L3785322319L
(lp3752
(lp3753
Vesp_log_early_timestamp
p3754
atp3755
a(L405422123L
L3785322319L
(lp3756
(lp3757
Vbootloader_utility_get_selected_boot_partition
p3758
atp3759
a(L2055385849L
L3785322319L
(lp3760
(lp3761
Vbootloader_utility_load_boot_image
p3762
atp3763
atp3764
sI1074238440
(Vlog_invalid_app_partition
p3765
(lp3766
(L3521327925L
L0L
(lp3767
(lp3768
tp3769
a(L3028464L
L0L
(lp3770
(lp3771
tp3772
a(L464326025L
L3785322319L
(lp3773
(lp3774
Vesp_log_early_timestamp
p3775
atp3776
a(L3833270346L
L0L
(lp3777
(lp3778
tp3779
a(L3360570486L
L0L
(lp3780
(lp3781
tp3782
a(L4216513345L
L3785322319L
(lp3783
(lp3784
Vesp_log_early_timestamp
p3785
atp3786
a(L1654679790L
L3785322319L
(lp3787
(lp3788
Vesp_log_early_timestamp
p3789
atp3790
atp3791
sI1074239464
(Vbootloader_utility_get_selected_boot_partition
p3792
(lp3793
(L2938832293L
L0L
(lp3794
(lp3795
tp3796
a(L1390189567L
L0L
(lp3797
(lp3798
tp3799
a(L1928712320L
L3785322319L
(lp3800
(lp3801
Vesp_log_early_timestamp
p3802
atp3803
a(L194246498L
L0L
(lp3804
(lp3805
tp3806
a(L3360570486L
L0L
(lp3807
(lp3808
tp3809
a(L3118387733L
L3785322319L
(lp3810
(lp3811
Vbootloader_mmap
p3812
atp3813
a(L2911828621L
L3785322319L
(lp3814
(lp3815
Vesp_log_early_timestamp
p3816
atp3817
a(L2627911596L
L1880226080L
(lp3818
(lp3819
Vbootloader_munmap
p3820
aVbootloader_common_ota_select_invalid
p3821
atp3822
a(L2911028409L
L0L
(lp3823
(lp3824
tp3825
a(L726746649L
L3785322319L
(lp3826
(lp3827
Vbootloader_common_get_active_otadata
p3828
atp3829
a(L4179097382L
L0L
(lp3830
(lp3831
tp3832
a(L3111084448L
L3785322319L
(lp3833
(lp3834
Vbootloader_common_ota_select_invalid
p3835
atp3836
a(L2793942993L
L0L
(lp3837
(lp3838
tp3839
a(L1043744473L
L0L
(lp3840
(lp3841
tp3842
a(L2302032704L
L0L
(lp3843
(lp3844
tp3845
a(L1173788779L
L3785322319L
(lp3846
(lp3847
Vbootloader_common_ota_select_crc
p3848
atp3849
a(L4188515782L
L0L
(lp3850
(lp3851
tp3852
a(L1324800084L
L3785322319L
(lp3853
(lp3854
Vbootloader_common_ota_select_crc
p3855
atp3856
a(L1299866312L
L0L
(lp3857
(lp3858
tp3859
a(L1738594062L
L0L
(lp3860
(lp3861
tp3862
a(L3859137629L
L3785322319L
(lp3863
(lp3864
Vesp_log_early_timestamp
p3865
atp3866
a(L3833270346L
L0L
(lp3867
(lp3868
tp3869
a(L1641201884L
L0L
(lp3870
(lp3871
tp3872
a(L692137479L
L3785322319L
(lp3873
(lp3874
Vesp_log_early_timestamp
p3875
atp3876
atp3877
sI1074234612
(Vbootloader_common_get_chip_ver_pkg
p3878
(lp3879
(L994406025L
L0L
(lp3880
(lp3881
tp3882
atp3883
sI1074239988
(Vindex_to_partition
p3884
(lp3885
(L4066096119L
L0L
(lp3886
(lp3887
tp3888
a(L1101255660L
L0L
(lp3889
(lp3890
tp3891
a(L1955702725L
L0L
(lp3892
(lp3893
tp3894
a(L3698927993L
L0L
(lp3895
(lp3896
tp3897
a(L2808906342L
L0L
(lp3898
(lp3899
tp3900
a(L4211744375L
L0L
(lp3901
(lp3902
tp3903
a(L3097778015L
L0L
(lp3904
(lp3905
tp3906
a(L1816235430L
L0L
(lp3907
(lp3908
tp3909
a(L2179185678L
L0L
(lp3910
(lp3911
tp3912
a(L3369319173L
L0L
(lp3913
(lp3914
tp3915
atp3916
sI1074245104
(Vrtc_clk_cpu_freq_mhz_to_config
p3917
(lp3918
(L908718885L
L3785322319L
(lp3919
(lp3920
Vrtc_clk_xtal_freq_get
p3921
atp3922
a(L60460069L
L0L
(lp3923
(lp3924
tp3925
a(L3802072124L
L0L
(lp3926
(lp3927
tp3928
a(L3159006042L
L0L
(lp3929
(lp3930
tp3931
a(L3360570486L
L0L
(lp3932
(lp3933
tp3934
a(L895147205L
L0L
(lp3935
(lp3936
tp3937
a(L3970036657L
L0L
(lp3938
(lp3939
tp3940
a(L2731353429L
L0L
(lp3941
(lp3942
tp3943
a(L1555485793L
L0L
(lp3944
(lp3945
tp3946
a(L2258897023L
L0L
(lp3947
(lp3948
tp3949
a(L1947499251L
L0L
(lp3950
(lp3951
tp3952
a(L1306331021L
L0L
(lp3953
(lp3954
tp3955
atp3956
sI1074248444
(V_fini
p3957
(lp3958
(L3493042598L
L0L
(lp3959
(lp3960
tp3961
atp3962
sI1074236664
(Vefuse_hal_get_major_chip_version
p3963
(lp3964
(L3609358168L
L0L
(lp3965
(lp3966
tp3967
a(L894792960L
L0L
(lp3968
(lp3969
tp3970
a(L724635033L
L0L
(lp3971
(lp3972
tp3973
a(L3360570486L
L0L
(lp3974
(lp3975
tp3976
atp3977
sI1074236920
(Vbootloader_common_check_chip_validity
p3978
(lp3979
(L2080115690L
L0L
(lp3980
(lp3981
tp3982
a(L3154986995L
L3785322319L
(lp3983
(lp3984
Vesp_log_early_timestamp
p3985
atp3986
a(L1299867982L
L0L
(lp3987
(lp3988
tp3989
a(L3360570486L
L0L
(lp3990
(lp3991
tp3992
a(L521940037L
L3785322319L
(lp3993
(lp3994
Vefuse_hal_chip_revision
p3995
atp3996
a(L3630617448L
L0L
(lp3997
(lp3998
tp3999
a(L4252915848L
L3785322319L
(lp4000
(lp4001
Vesp_log_early_timestamp
p4002
atp4003
a(L3028464L
L0L
(lp4004
(lp4005
tp4006
a(L1797954754L
L0L
(lp4007
(lp4008
tp4009
a(L106L
L0L
(lp4010
(lp4011
tp4012
a(L3027019L
L0L
(lp4013
(lp4014
tp4015
a(L106L
L0L
(lp4016
(lp4017
tp4018
a(L147797478L
L3785322319L
(lp4019
(lp4020
Vesp_log_early_timestamp
p4021
atp4022
atp4023
ssS'functionsdups'
p4024
g11
((lp4025
tp4026
Rp4027
sS'immediatedups'
p4028
g11
((lp4029
tp4030
Rp4031
sS'functiondups'
p4032
g11
((lp4033
tp4034
Rp4035
sS'fuzzy'
p4036
(dp4037
L1536L
I1074240440
sL438947497L
I1074244812
sL430153639L
I1074235804
sL1340445289L
I1074235556
sL3538491111L
I1074244956
sL16208487L
I1074234656
sL1053780185L
I1074246744
sL1907123383L
I1074238776
sL1385214606L
I1074240932
sL3709764864L
I1074242240
sL1419132215L
I1074238032
sL2469233929L
I1074240228
sL4024375675L
I1074245408
sL701833459L
I1074268520
sL720751058L
I1074267728
sL2475522855L
I1074269628
sL99291719L
I1074245520
sL1260046007L
I1074238556
sL3897252859L
I1074238440
sL2154298582L
I1074267952
sL1065525808L
I1074236760
sL1766137975L
I1074238524
sL2547957225L
I1074242740
sL2272466760L
I1074245196
sL1188065553L
I1074237588
sL1350409532L
I1074240688
sL94556391L
I1074244984
sL3210669721L
I1074244576
sL1332800441L
I1074237152
sL1797050832L
I1074241404
sL2698973203L
I1074269264
sL4160102055L
I1074239724
sL4202185385L
I1074247008
sL1768086576L
I1074236272
sL4171975289L
I1074247304
sL1565254297L
I1074247604
sL1205407754L
I1074239748
sL2191698036L
I1074269492
sL3764456758L
I1074244356
sL3567877105L
I1074235168
sL3616640713L
I1074240520
sL1635528231L
I1074243620
sL1060788199L
I1074245104
sL4006207895L
I1074239156
sL4002350800L
I1074241620
sL3378232636L
I1074246248
sL737694352L
I1074247112
sL503029138L
I1074247056
sL1616763831L
I1074247692
sL424867129L
I1074247440
sL3834155367L
I1074240876
sL2405032630L
I1074267620
sL1302843222L
I1074269888
sL1299206787L
I1074239252
sL149533852L
I1074237328
sL3883282432L
I1074241492
sL1667054119L
I1074240080
sL1142841954L
I1074236920
sL2443330910L
I1074239464
sL206902443L
I1074237864
sL1070509616L
I1074244636
sL3408620885L
I1074269712
ssb.