ccopy_reg
_reconstructor
p0
(crizzo
RizzoSignature
p1
c__builtin__
object
p2
Ntp3
Rp4
(dp5
S'formal'
p6
(dp7
L2126724801L
I1074245072
sL442995044L
I1074238608
sL1694773767L
I1074245024
sL93833875L
I1074241736
sL1252191146L
I1074245188
sL1609740283L
I1074241176
sL1741170115L
I1074238012
sL2311459018L
I1074237268
sL3505757179L
I1074236632
sL1698945356L
I1074245640
sL1653080728L
I1074270336
sL4046735143L
I1074245216
sL278655628L
I1074244196
sL2555682115L
I1074247172
sL1237733855L
I1074238892
sL653593068L
I1074244228
sL2558618778L
I1074239912
sL4213015302L
I1074242968
sL72981575L
I1074237704
sL1371153316L
I1074268524
sL758249518L
I1074238032
sL3751472569L
I1074269716
sL2431287502L
I1074236996
sL3337736661L
I1074238280
sL2420455533L
I1074269400
sL176645037L
I1074241648
sL928253055L
I1074268764
sL2702580795L
I1074237388
sL3501332098L
I1074236672
sL1887641525L
I1074237288
sL2896295319L
I1074236768
sL3284957946L
I1074267620
sL1078524543L
I1074240304
sL823873575L
I1074246972
sL837487574L
I1074236444
sL1674148343L
I1074245364
sL2682232989L
I1074269668
sL2485902447L
I1074236608
sL568822944L
I1074239440
sL165977259L
I1074240708
sL2657572914L
I1074247864
sL2166402678L
I1074235700
sL1585823442L
I1074244296
sL1622896354L
I1074244324
sL3972718480L
I1074245668
sL2000651361L
I1074269496
sL1509716893L
I1074236740
sL2189223198L
I1074240232
sL2431788945L
I1074244776
sL1990489281L
I1074236872
sL3217171877L
I1074240932
sL4019831281L
I1074240764
sL3110364428L
I1074244396
sL2774633482L
I1074236428
sL2288462604L
I1074243000
sL4217692687L
I1074269892
sL3904551637L
I1074267956
sL2241706732L
I1074244616
sL3007247178L
I1074238808
sL1659447952L
I1074245456
sL4280955217L
I1074247700
sL530851108L
I1074244444
sL768348750L
I1074238840
sL3770174010L
I1074238692
sL1885637095L
I1074267732
sL3307282855L
I1074238172
sL172597710L
I1074236528
sL3783111156L
I1074240668
sL1197394391L
I1074247564
sL4281497016L
I1074240684
sL900401958L
I1074245308
sL3939485250L
I1074269632
sL1050504461L
I1074234620
sL114232154L
I1074243880
sL3140157629L
I1074270488
sL3786992943L
I1074238944
sL2672842185L
I1074238200
sL3380256487L
I1074235564
sL3881197257L
I1074241864
sL1799068580L
I1074242484
sL4038945309L
I1074235516
sL1919489481L
I1074245244
sL565114894L
I1074247952
sL3014104323L
I1074236916
sL3508768135L
I1074269252
sL483869042L
I1074239652
sL2626436395L
I1074236940
sL852804979L
I1074243268
sL3360578537L
I1074269268
sL21429742L
I1074236840
sL1468362029L
I1074245324
sL4079333773L
I1074247268
sL1366879953L
I1074269468
sL2737209228L
I1074234664
sL2617692077L
I1074239992
sL2997001746L
I1074237228
sL180164621L
I1074235176
sL134088271L
I1074247316
sL936185727L
I1074239324
sL1830125216L
I1074237464
sL868775037L
I1074244836
sL3524262074L
I1074245780
sL1845137996L
I1074240324
sL2819127986L
I1074236960
sL4192719963L
I1074245048
sL1877634603L
I1074270568
sL3009741229L
I1074246464
sL2771386086L
I1074269424
sL3262741161L
I1074236280
sL111045711L
I1074268468
sL4151459751L
I1074244896
sL2263182908L
I1074238192
sL4132511117L
I1074235812
sL1244364279L
I1074240472
sL3923166985L
I1074237756
sL3630163135L
I1074236756
sL188664287L
I1074235144
sL3487053371L
I1074244480
sL3080993856L
I1074247372
sL692536993L
I1074237360
sL4192270598L
I1074246508
sL3159231652L
I1074245596
sL1177097689L
I1074237304
sL1441898497L
I1074237496
sL1621098576L
I1074242984
sL4173412669L
I1074235464
sL4255149148L
I1074247004
sL16109064L
I1074241120
sL1703187579L
I1074239968
ssS'immediates'
p8
(dp9
sS'formaldups'
p10
c__builtin__
set
p11
((lp12
tp13
Rp14
sS'stringdups'
p15
g11
((lp16
tp17
Rp18
sS'fuzzydups'
p19
g11
((lp20
tp21
Rp22
sS'strings'
p23
(dp24
sS'functions'
p25
(dp26
I1074247172
(Vesp_rom_spiflash_read_status
p27
(lp28
(L862498644L
L0L
(lp29
(lp30
tp31
a(L2920495880L
L0L
(lp32
(lp33
tp34
a(L4159619641L
L0L
(lp35
(lp36
tp37
a(L2392720019L
L0L
(lp38
(lp39
tp40
a(L2258688487L
L0L
(lp41
(lp42
tp43
a(L4159619145L
L0L
(lp44
(lp45
tp46
a(L2375864471L
L0L
(lp47
(lp48
tp49
a(L3117156279L
L0L
(lp50
(lp51
tp52
a(L2123059967L
L0L
(lp53
(lp54
tp55
a(L582177370L
L0L
(lp56
(lp57
tp58
atp59
sI1074236672
(Vefuse_hal_get_major_chip_version
p60
(lp61
(L3609358168L
L0L
(lp62
(lp63
tp64
a(L894792960L
L0L
(lp65
(lp66
tp67
a(L724635033L
L0L
(lp68
(lp69
tp70
a(L3360570486L
L0L
(lp71
(lp72
tp73
atp74
sI1074248704
(V_fini
p75
(lp76
(L3493042598L
L0L
(lp77
(lp78
tp79
atp80
sI1074267136
(V_init
p81
(lp82
(L3493042598L
L0L
(lp83
(lp84
tp85
atp86
sI1074236940
(Vbootloader_common_ota_select_crc
p87
(lp88
(L3214440559L
L0L
(lp89
(lp90
tp91
atp92
sI1074236428
(Vesp_rom_set_cpu_ticks_per_us
p93
(lp94
(L4036660858L
L0L
(lp95
(lp96
tp97
atp98
sI1074237704
(Vbootloader_munmap
p99
(lp100
(L2004081002L
L0L
(lp101
(lp102
tp103
a(L3267444640L
L0L
(lp104
(lp105
tp106
a(L3360570486L
L0L
(lp107
(lp108
tp109
atp110
sI1074235144
(Vbootloader_execute_flash_command
p111
(lp112
(L2481595632L
L3785322319L
(lp113
(lp114
Vbootloader_flash_execute_command_common
p115
atp116
atp117
sI1074244616
(Vrtc_clk_cpu_freq_to_pll_mhz
p118
(lp119
(L3231135830L
L0L
(lp120
(lp121
tp122
a(L996653853L
L0L
(lp123
(lp124
tp125
a(L3209291584L
L1880226080L
(lp126
(lp127
Vesp_rom_set_cpu_ticks_per_us
p128
aVrtc_clk_wait_for_slow_cycle
p129
atp130
a(L4261338042L
L0L
(lp131
(lp132
tp133
a(L3284807114L
L0L
(lp134
(lp135
tp136
a(L94425498L
L3785322319L
(lp137
(lp138
Vabort
p139
atp140
a(L2258897019L
L0L
(lp141
(lp142
tp143
a(L1113742378L
L0L
(lp144
(lp145
tp146
a(L1306330990L
L0L
(lp147
(lp148
tp149
atp150
sI1074245640
(Vrtc_clk_apb_freq_update
p151
(lp152
(L2865891854L
L0L
(lp153
(lp154
tp155
atp156
sI1074270488
(Vrtc_vddsdio_set_config
p157
(lp158
(L1272545128L
L0L
(lp159
(lp160
tp161
atp162
sI1074247700
(Vesp_rom_spiflash_write
p163
(lp164
(L485549818L
L0L
(lp165
(lp166
tp167
a(L2258688483L
L0L
(lp168
(lp169
tp170
a(L3360570486L
L0L
(lp171
(lp172
tp173
a(L3368132847L
L0L
(lp174
(lp175
tp176
a(L3106685981L
L0L
(lp177
(lp178
tp179
a(L3488660639L
L3785322319L
(lp180
(lp181
Vesp_rom_spiflash_program_page_internal
p182
atp183
a(L3543402353L
L3785322319L
(lp184
(lp185
Vesp_rom_spiflash_program_page_internal
p186
atp187
a(L4222526342L
L0L
(lp188
(lp189
tp190
a(L2004208511L
L0L
(lp191
(lp192
tp193
a(L564470656L
L0L
(lp194
(lp195
tp196
a(L441922648L
L3785322319L
(lp197
(lp198
Vesp_rom_spiflash_program_page_internal
p199
atp200
a(L2302069176L
L0L
(lp201
(lp202
tp203
atp204
sI1074269468
(Vbootloader_check_bootloader_validity
p205
(lp206
(L2181726224L
L1880226080L
(lp207
(lp208
Vefuse_hal_chip_revision
p209
aVbootloader_common_check_chip_validity
p210
atp211
atp212
sI1074247952
(Vesp_rom_spiflash_read
p213
(lp214
(L3037842799L
L0L
(lp215
(lp216
tp217
a(L3096534804L
L0L
(lp218
(lp219
tp220
a(L2860271684L
L0L
(lp221
(lp222
tp223
a(L2355528925L
L0L
(lp224
(lp225
tp226
a(L106L
L0L
(lp227
(lp228
tp229
a(L633884026L
L0L
(lp230
(lp231
tp232
a(L106L
L0L
(lp233
(lp234
tp235
a(L3631604465L
L0L
(lp236
(lp237
tp238
a(L3610314264L
L0L
(lp239
(lp240
tp241
a(L1433557502L
L0L
(lp242
(lp243
tp244
a(L336550648L
L0L
(lp245
(lp246
tp247
a(L1502579834L
L0L
(lp248
(lp249
tp250
a(L106L
L0L
(lp251
(lp252
tp253
a(L1935240044L
L3785322319L
(lp254
(lp255
Vesp_rom_spiflash_wait_idle
p256
atp257
a(L3021737L
L0L
(lp258
(lp259
tp260
a(L106L
L0L
(lp261
(lp262
tp263
a(L1868280504L
L0L
(lp264
(lp265
tp266
a(L106L
L0L
(lp267
(lp268
tp269
a(L750281353L
L0L
(lp270
(lp271
tp272
a(L3897437082L
L0L
(lp273
(lp274
tp275
a(L4122060822L
L0L
(lp276
(lp277
tp278
a(L750554413L
L0L
(lp279
(lp280
tp281
a(L2989032L
L0L
(lp282
(lp283
tp284
a(L3819849625L
L0L
(lp285
(lp286
tp287
a(L700104760L
L0L
(lp288
(lp289
tp290
a(L1437144663L
L0L
(lp291
(lp292
tp293
a(L3901822060L
L0L
(lp294
(lp295
tp296
a(L2771746418L
L0L
(lp297
(lp298
tp299
a(L2921907736L
L0L
(lp300
(lp301
tp302
a(L4023125337L
L0L
(lp303
(lp304
tp305
a(L1560666412L
L0L
(lp306
(lp307
tp308
a(L2287305731L
L0L
(lp309
(lp310
tp311
a(L3639200796L
L0L
(lp312
(lp313
tp314
a(L3333707777L
L0L
(lp315
(lp316
tp317
a(L3251955268L
L0L
(lp318
(lp319
tp320
a(L3418540920L
L0L
(lp321
(lp322
tp323
a(L842254612L
L0L
(lp324
(lp325
tp326
a(L97689L
L0L
(lp327
(lp328
tp329
a(L2258897019L
L0L
(lp330
(lp331
tp332
a(L4014024819L
L0L
(lp333
(lp334
tp335
a(L3621567083L
L0L
(lp336
(lp337
tp338
atp339
sI1074234652
(Vesp_flash_encryption_enabled
p340
(lp341
(L376617603L
L3785322319L
(lp342
(lp343
Vefuse_hal_flash_encryption_enabled
p344
atp345
atp346
sI1074236444
(Vesp_rom_uart_tx_wait_idle
p347
(lp348
(L3784729872L
L0L
(lp349
(lp350
tp351
a(L1301079727L
L0L
(lp352
(lp353
tp354
a(L597952197L
L0L
(lp355
(lp356
tp357
a(L1971823332L
L0L
(lp358
(lp359
tp360
a(L3055926844L
L0L
(lp361
(lp362
tp363
a(L3360570486L
L0L
(lp364
(lp365
tp366
a(L3694491048L
L0L
(lp367
(lp368
tp369
a(L106L
L0L
(lp370
(lp371
tp372
atp373
sI1074269716
(Vrtc_clk_xtal_freq_estimate
p374
(lp375
(L1823831978L
L1880226080L
(lp376
(lp377
Vrtc_clk_8m_enabled
p378
aVrtc_clk_8md256_enabled
p379
atp380
a(L2449794434L
L3785322319L
(lp381
(lp382
Vrtc_clk_8m_enable
p383
atp384
a(L2770901918L
L3785322319L
(lp385
(lp386
Vrtc_clk_cal_ratio
p387
atp388
a(L3934977694L
L0L
(lp389
(lp390
tp391
a(L3955289886L
L0L
(lp392
(lp393
tp394
a(L920563618L
L3785322319L
(lp395
(lp396
Vesp_log_early_timestamp
p397
atp398
a(L2307427870L
L0L
(lp399
(lp400
tp401
a(L1281346514L
L3785322319L
(lp402
(lp403
Vrtc_clk_8m_enable
p404
atp405
a(L3909119106L
L0L
(lp406
(lp407
tp408
a(L2092614514L
L3785322319L
(lp409
(lp410
Vesp_log_early_timestamp
p411
atp412
a(L3304487880L
L0L
(lp413
(lp414
tp415
a(L1641150486L
L0L
(lp416
(lp417
tp418
a(L3939540676L
L3785322319L
(lp419
(lp420
Vesp_log_early_timestamp
p421
atp422
atp423
sI1074237464
(Vspi_to_esp_err
p424
(lp425
(L3502410875L
L0L
(lp426
(lp427
tp428
a(L2406094103L
L0L
(lp429
(lp430
tp431
a(L3952441574L
L0L
(lp432
(lp433
tp434
a(L3126521138L
L0L
(lp435
(lp436
tp437
atp438
sI1074245668
(Vrtc_clk_cpu_freq_to_xtal
p439
(lp440
(L767415990L
L3785322319L
(lp441
(lp442
Vesp_rom_set_cpu_ticks_per_us
p443
atp444
a(L94425498L
L3785322319L
(lp445
(lp446
Vabort
p447
atp448
a(L2173583649L
L3785322319L
(lp449
(lp450
Vrtc_clk_apb_freq_update
p451
atp452
a(L2258867230L
L0L
(lp453
(lp454
tp455
a(L1836076263L
L0L
(lp456
(lp457
tp458
atp459
sI1074244896
(Vrtc_clk_8m_enable
p460
(lp461
(L1120123870L
L0L
(lp462
(lp463
tp464
a(L3293652913L
L0L
(lp465
(lp466
tp467
a(L2151320156L
L0L
(lp468
(lp469
tp470
a(L2201080984L
L0L
(lp471
(lp472
tp473
a(L3360570486L
L0L
(lp474
(lp475
tp476
a(L1318267208L
L0L
(lp477
(lp478
tp479
a(L2762959360L
L0L
(lp480
(lp481
tp482
atp483
sI1074236960
(Vbootloader_common_ota_select_valid
p484
(lp485
(L1563399710L
L3785322319L
(lp486
(lp487
Vbootloader_common_ota_select_invalid
p488
atp489
a(L3814720849L
L3785322319L
(lp490
(lp491
Vbootloader_common_ota_select_crc
p492
atp493
a(L3360570486L
L0L
(lp494
(lp495
tp496
atp497
sI1074237228
(Vbootloader_common_get_active_otadata
p498
(lp499
(L3317503532L
L0L
(lp500
(lp501
tp502
a(L2503049265L
L1832448559L
(lp503
(lp504
Vbootloader_common_ota_select_valid
p505
aVbootloader_common_ota_select_valid
p506
aVbootloader_common_select_otadata
p507
atp508
a(L735741265L
L0L
(lp509
(lp510
tp511
atp512
sI1074244396
(Vmmu_hal_unmap_all
p513
(lp514
(L3831079974L
L0L
(lp515
(lp516
tp517
a(L2010554219L
L0L
(lp518
(lp519
tp520
a(L3268103L
L0L
(lp521
(lp522
tp523
a(L3212334523L
L0L
(lp524
(lp525
tp526
a(L2010554219L
L0L
(lp527
(lp528
tp529
a(L3360570486L
L0L
(lp530
(lp531
tp532
atp533
sI1074243880
(Vwdt_hal_config_stage
p534
(lp535
(L331558507L
L0L
(lp536
(lp537
tp538
a(L4279082939L
L0L
(lp539
(lp540
tp541
a(L93674324L
L0L
(lp542
(lp543
tp544
a(L2902417580L
L0L
(lp545
(lp546
tp547
a(L3516932951L
L0L
(lp548
(lp549
tp550
a(L3020187L
L0L
(lp551
(lp552
tp553
a(L94425498L
L3785322319L
(lp554
(lp555
Vabort
p556
atp557
a(L1952763401L
L0L
(lp558
(lp559
tp560
a(L3360570486L
L0L
(lp561
(lp562
tp563
a(L3577535380L
L0L
(lp564
(lp565
tp566
a(L4088839793L
L0L
(lp567
(lp568
tp569
a(L4278159418L
L0L
(lp570
(lp571
tp572
a(L93674324L
L0L
(lp573
(lp574
tp575
a(L3020204L
L0L
(lp576
(lp577
tp578
a(L848535651L
L0L
(lp579
(lp580
tp581
a(L3020187L
L0L
(lp582
(lp583
tp584
a(L106L
L0L
(lp585
(lp586
tp587
a(L2705154713L
L0L
(lp588
(lp589
tp590
a(L3499009150L
L0L
(lp591
(lp592
tp593
a(L1511360482L
L0L
(lp594
(lp595
tp596
atp597
sI1074240296
(Vbootloader_debug_buffer
p598
(lp599
(L2100504542L
L0L
(lp600
(lp601
tp602
atp603
sI1074235176
(Vbootloader_flash_unlock
p604
(lp605
(L485855552L
L3785322319L
(lp606
(lp607
Vesp_rom_spiflash_wait_idle
p608
atp609
a(L711923870L
L0L
(lp610
(lp611
tp612
a(L3507311156L
L3785322319L
(lp613
(lp614
Vbootloader_execute_flash_command
p615
atp616
a(L4103218025L
L0L
(lp617
(lp618
tp619
a(L2529045083L
L0L
(lp620
(lp621
tp622
a(L1175784077L
L1832448559L
(lp623
(lp624
Vesp_rom_spiflash_wait_idle
p625
aVbootloader_execute_flash_command
p626
aVbootloader_execute_flash_command
p627
atp628
a(L106L
L0L
(lp629
(lp630
tp631
a(L594961218L
L1880226080L
(lp632
(lp633
Vesp_rom_spiflash_wait_idle
p634
aVbootloader_execute_flash_command
p635
atp636
a(L2993202392L
L0L
(lp637
(lp638
tp639
a(L610618707L
L0L
(lp640
(lp641
tp642
a(L2843273676L
L0L
(lp643
(lp644
tp645
a(L192015437L
L0L
(lp646
(lp647
tp648
a(L3154322046L
L1880226080L
(lp649
(lp650
Vbootloader_execute_flash_command
p651
aVbootloader_execute_flash_command
p652
atp653
a(L1303560644L
L0L
(lp654
(lp655
tp656
a(L1711531685L
L1880226080L
(lp657
(lp658
Vbootloader_execute_flash_command
p659
aVbootloader_execute_flash_command
p660
atp661
a(L3658700047L
L0L
(lp662
(lp663
tp664
a(L3430607254L
L0L
(lp665
(lp666
tp667
a(L106L
L0L
(lp668
(lp669
tp670
a(L1876788132L
L1832448559L
(lp671
(lp672
Vesp_rom_spiflash_wait_idle
p673
aVbootloader_execute_flash_command
p674
aVbootloader_execute_flash_command
p675
atp676
atp677
sI1074234664
(Vbootloader_flash_execute_command_common
p678
(lp679
(L3865052895L
L0L
(lp680
(lp681
tp682
a(L3287175997L
L0L
(lp683
(lp684
tp685
a(L4121451103L
L3785322319L
(lp686
(lp687
V__assert_func
p688
atp689
a(L3021749L
L0L
(lp690
(lp691
tp692
a(L3999871943L
L0L
(lp693
(lp694
tp695
a(L543316797L
L0L
(lp696
(lp697
tp698
a(L2091933878L
L0L
(lp699
(lp700
tp701
a(L1702379862L
L0L
(lp702
(lp703
tp704
a(L3432464320L
L0L
(lp705
(lp706
tp707
a(L3539375712L
L0L
(lp708
(lp709
tp710
a(L3244449450L
L0L
(lp711
(lp712
tp713
a(L4233404408L
L0L
(lp714
(lp715
tp716
a(L2990329343L
L0L
(lp717
(lp718
tp719
a(L2051090536L
L0L
(lp720
(lp721
tp722
a(L3333696662L
L0L
(lp723
(lp724
tp725
a(L963425213L
L0L
(lp726
(lp727
tp728
a(L339491738L
L0L
(lp729
(lp730
tp731
a(L3360570486L
L0L
(lp732
(lp733
tp734
atp735
sI1074269496
(Vbootloader_config_wdt
p736
(lp737
(L4027912329L
L505859776L
(lp738
(lp739
Vwdt_hal_write_protect_disable
p740
aVwdt_hal_set_flashboot_en
p741
aVwdt_hal_write_protect_enable
p742
aVwdt_hal_init
p743
aVrtc_clk_slow_freq_get_hz
p744
aVwdt_hal_write_protect_disable
p745
aVwdt_hal_config_stage
p746
aVwdt_hal_enable
p747
aVwdt_hal_write_protect_enable
p748
aVwdt_hal_write_protect_disable
p749
aVwdt_hal_set_flashboot_en
p750
aVwdt_hal_write_protect_enable
p751
atp752
atp753
sI1074235700
(Vbootloader_flash_cs_timing_config
p754
(lp755
(L6299057L
L0L
(lp756
(lp757
tp758
atp759
sI1074240304
(Vbootloader_sha256_start
p760
(lp761
(L1796316433L
L0L
(lp762
(lp763
tp764
atp765
sI1074238012
(Vbootloader_flash_erase_sector
p766
(lp767
(L4129137686L
L1880226080L
(lp768
(lp769
Vesp_rom_spiflash_erase_sector
p770
aVspi_to_esp_err
p771
atp772
atp773
sI1074237756
(Vbootloader_flash_read
p774
(lp775
(L3022618172L
L0L
(lp776
(lp777
tp778
a(L4055923334L
L3785322319L
(lp779
(lp780
Vesp_log_early_timestamp
p781
atp782
a(L2780906736L
L0L
(lp783
(lp784
tp785
a(L1351513776L
L0L
(lp786
(lp787
tp788
a(L1486740491L
L0L
(lp789
(lp790
tp791
a(L814874742L
L3785322319L
(lp792
(lp793
Vesp_log_early_timestamp
p794
atp795
a(L3283691850L
L0L
(lp796
(lp797
tp798
a(L28820691L
L3785322319L
(lp799
(lp800
Vesp_log_early_timestamp
p801
atp802
a(L3020204L
L0L
(lp803
(lp804
tp805
a(L384130671L
L0L
(lp806
(lp807
tp808
a(L97422L
L0L
(lp809
(lp810
tp811
a(L228131341L
L0L
(lp812
(lp813
tp814
a(L578201018L
L0L
(lp815
(lp816
tp817
a(L1395497960L
L3785322319L
(lp818
(lp819
V__assert_func
p820
atp821
a(L180959520L
L0L
(lp822
(lp823
tp824
a(L3490223399L
L0L
(lp825
(lp826
tp827
a(L3249700916L
L1880226080L
(lp828
(lp829
Vesp_rom_spiflash_read
p830
aVspi_to_esp_err
p831
atp832
atp833
sI1074246972
(Vrtc_clk_cal_ratio
p834
(lp835
(L3466131841L
L3785322319L
(lp836
(lp837
Vrtc_clk_cal_internal
p838
atp839
atp840
sI1074267956
(Vbootloader_init
p841
(lp842
(L1256100286L
L3785322319L
(lp843
(lp844
Vbootloader_init_mem
p845
atp846
a(L496177411L
L0L
(lp847
(lp848
tp849
a(L2027378118L
L3785322319L
(lp850
(lp851
V__assert_func
p852
atp853
a(L408886226L
L0L
(lp854
(lp855
tp856
a(L2892662435L
L0L
(lp857
(lp858
tp859
a(L3813782018L
L0L
(lp860
(lp861
tp862
a(L3379255958L
L0L
(lp863
(lp864
tp865
a(L3027019L
L0L
(lp866
(lp867
tp868
a(L3949229104L
L0L
(lp869
(lp870
tp871
a(L4055793689L
L1832448559L
(lp872
(lp873
Vbootloader_clear_bss_section
p874
aVbootloader_common_vddsdio_configure
p875
aVbootloader_clock_get_rated_freq_mhz
p876
atp877
a(L106L
L0L
(lp878
(lp879
tp880
a(L87629889L
L1157885199L
(lp881
(lp882
Vbootloader_clock_configure
p883
aVbootloader_console_init
p884
aVbootloader_print_banner
p885
aVbootloader_flash_update_id
p886
aVbootloader_flash_xmc_startup
p887
atp888
a(L296996763L
L3785322319L
(lp889
(lp890
Vesp_log_early_timestamp
p891
atp892
a(L657010908L
L3785322319L
(lp893
(lp894
Vesp_log_early_timestamp
p895
atp896
a(L3360570486L
L0L
(lp897
(lp898
tp899
a(L2444883382L
L3785322319L
(lp900
(lp901
Vbootloader_read_bootloader_header
p902
atp903
a(L2444883382L
L3785322319L
(lp904
(lp905
Vbootloader_check_bootloader_validity
p906
atp907
a(L2444883382L
L3785322319L
(lp908
(lp909
Vbootloader_init_spi_flash
p910
atp911
a(L3638850911L
L0L
(lp912
(lp913
tp914
a(L254817508L
L0L
(lp915
(lp916
tp917
a(L93892250L
L0L
(lp918
(lp919
tp920
a(L2915015718L
L0L
(lp921
(lp922
tp923
a(L1634500369L
L1880226080L
(lp924
(lp925
Vbootloader_config_wdt
p926
aVbootloader_enable_random
p927
atp928
a(L1895147938L
L0L
(lp929
(lp930
tp931
a(L2680457259L
L0L
(lp932
(lp933
tp934
a(L3027019L
L0L
(lp935
(lp936
tp937
a(L97315L
L0L
(lp938
(lp939
tp940
a(L1442646668L
L3785322319L
(lp941
(lp942
Vesp_log_early_timestamp
p943
atp944
a(L4094931264L
L3785322319L
(lp945
(lp946
Vesp_log_early_timestamp
p947
atp948
a(L3164960223L
L0L
(lp949
(lp950
tp951
a(L1895147938L
L0L
(lp952
(lp953
tp954
a(L156585483L
L1880226080L
(lp955
(lp956
Vwdt_reset_info_dump
p957
aVwdt_reset_info_dump
p958
atp959
atp960
sI1074268468
(Vbootloader_common_vddsdio_configure
p961
(lp962
(L1829974089L
L3785322319L
(lp963
(lp964
Vrtc_vddsdio_get_config
p965
atp966
a(L2795064753L
L3785322319L
(lp967
(lp968
Vrtc_vddsdio_set_config
p969
atp970
a(L3360570486L
L0L
(lp971
(lp972
tp973
atp974
sI1074237496
(Vbootloader_mmap
p975
(lp976
(L1582260584L
L0L
(lp977
(lp978
tp979
a(L2788000689L
L3785322319L
(lp980
(lp981
Vesp_log_early_timestamp
p982
atp983
a(L2867263840L
L0L
(lp984
(lp985
tp986
a(L3729184599L
L0L
(lp987
(lp988
tp989
a(L1395749832L
L3785322319L
(lp990
(lp991
Vesp_log_early_timestamp
p992
atp993
a(L2258688482L
L0L
(lp994
(lp995
tp996
a(L3360570486L
L0L
(lp997
(lp998
tp999
a(L2975482014L
L0L
(lp1000
(lp1001
tp1002
a(L2855982355L
L0L
(lp1003
(lp1004
tp1005
a(L3688378814L
L3785322319L
(lp1006
(lp1007
Vesp_log_early_timestamp
p1008
atp1009
a(L528676506L
L3785322319L
(lp1010
(lp1011
Vesp_log_early_timestamp
p1012
atp1013
a(L3431118564L
L0L
(lp1014
(lp1015
tp1016
atp1017
sI1074240324
(Vbootloader_sha256_data
p1018
(lp1019
(L4066096136L
L0L
(lp1020
(lp1021
tp1022
a(L1556310480L
L0L
(lp1023
(lp1024
tp1025
a(L792144543L
L3785322319L
(lp1026
(lp1027
V__assert_func
p1028
atp1029
a(L498498478L
L0L
(lp1030
(lp1031
tp1032
a(L1601210315L
L0L
(lp1033
(lp1034
tp1035
a(L2910371777L
L0L
(lp1036
(lp1037
tp1038
a(L3360570486L
L0L
(lp1039
(lp1040
tp1041
a(L2562755902L
L0L
(lp1042
(lp1043
tp1044
a(L248495140L
L0L
(lp1045
(lp1046
tp1047
a(L1999684523L
L0L
(lp1048
(lp1049
tp1050
a(L387149844L
L0L
(lp1051
(lp1052
tp1053
a(L3533956503L
L0L
(lp1054
(lp1055
tp1056
a(L1394964493L
L0L
(lp1057
(lp1058
tp1059
a(L2337673140L
L0L
(lp1060
(lp1061
tp1062
a(L702738053L
L0L
(lp1063
(lp1064
tp1065
a(L3745004802L
L0L
(lp1066
(lp1067
tp1068
atp1069
sI1074236740
(Vefuse_hal_get_minor_chip_version
p1070
(lp1071
(L2721608854L
L0L
(lp1072
(lp1073
tp1074
atp1075
sI1074236996
(Vbootloader_common_check_chip_validity
p1076
(lp1077
(L2080115690L
L0L
(lp1078
(lp1079
tp1080
a(L101167642L
L3785322319L
(lp1081
(lp1082
Vesp_log_early_timestamp
p1083
atp1084
a(L1299867982L
L0L
(lp1085
(lp1086
tp1087
a(L3360570486L
L0L
(lp1088
(lp1089
tp1090
a(L521940037L
L3785322319L
(lp1091
(lp1092
Vefuse_hal_chip_revision
p1093
atp1094
a(L1521164372L
L0L
(lp1095
(lp1096
tp1097
a(L1652761108L
L3785322319L
(lp1098
(lp1099
Vesp_log_early_timestamp
p1100
atp1101
a(L3028464L
L0L
(lp1102
(lp1103
tp1104
a(L1797954754L
L0L
(lp1105
(lp1106
tp1107
a(L106L
L0L
(lp1108
(lp1109
tp1110
a(L3027019L
L0L
(lp1111
(lp1112
tp1113
a(L106L
L0L
(lp1114
(lp1115
tp1116
a(L2173180754L
L3785322319L
(lp1117
(lp1118
Vesp_log_early_timestamp
p1119
atp1120
atp1121
sI1074245188
(Vrtc_clk_slow_src_get
p1122
(lp1123
(L3614975411L
L0L
(lp1124
(lp1125
tp1126
a(L3020187L
L0L
(lp1127
(lp1128
tp1129
a(L2902417580L
L0L
(lp1130
(lp1131
tp1132
a(L2258688485L
L0L
(lp1133
(lp1134
tp1135
a(L3360570486L
L0L
(lp1136
(lp1137
tp1138
atp1139
sI1074246464
(Vrtc_clk_apb_freq_get
p1140
(lp1141
(L2710080441L
L0L
(lp1142
(lp1143
tp1144
atp1145
sI1074269252
(Vbootloader_flash_update_id
p1146
(lp1147
(L3587584986L
L3785322319L
(lp1148
(lp1149
Vbootloader_read_flash_id
p1150
atp1151
atp1152
sI1074241864
(Vprocess_segments
p1153
(lp1154
(L670742546L
L0L
(lp1155
(lp1156
tp1157
a(L1478361954L
L0L
(lp1158
(lp1159
tp1160
a(L3782401745L
L0L
(lp1161
(lp1162
tp1163
a(L106L
L0L
(lp1164
(lp1165
tp1166
a(L234202048L
L0L
(lp1167
(lp1168
tp1169
a(L3401417807L
L3785322319L
(lp1170
(lp1171
Vesp_log_early_timestamp
p1172
atp1173
a(L418370317L
L3785322319L
(lp1174
(lp1175
Vbootloader_flash_read
p1176
atp1177
a(L2551663929L
L3785322319L
(lp1178
(lp1179
Vesp_log_early_timestamp
p1180
atp1181
a(L464010095L
L0L
(lp1182
(lp1183
tp1184
a(L1890170661L
L0L
(lp1185
(lp1186
tp1187
a(L4138551778L
L3785322319L
(lp1188
(lp1189
Vbootloader_sha256_data
p1190
atp1191
a(L2440174491L
L0L
(lp1192
(lp1193
tp1194
a(L2258867228L
L0L
(lp1195
(lp1196
tp1197
a(L1653981967L
L0L
(lp1198
(lp1199
tp1200
a(L523560059L
L0L
(lp1201
(lp1202
tp1203
a(L2143438348L
L3785322319L
(lp1204
(lp1205
Vesp_log_early_timestamp
p1206
atp1207
a(L697294557L
L0L
(lp1208
(lp1209
tp1210
a(L1513442828L
L0L
(lp1211
(lp1212
tp1213
a(L2820217846L
L0L
(lp1214
(lp1215
tp1216
a(L606368755L
L0L
(lp1217
(lp1218
tp1219
a(L2626753793L
L0L
(lp1220
(lp1221
tp1222
a(L3945901960L
L3785322319L
(lp1223
(lp1224
Vesp_log_early_timestamp
p1225
atp1226
a(L2864902319L
L0L
(lp1227
(lp1228
tp1229
a(L2314103720L
L0L
(lp1230
(lp1231
tp1232
a(L2136754140L
L3785322319L
(lp1233
(lp1234
Vbootloader_mmap_get_free_pages
p1235
atp1236
a(L3028481L
L0L
(lp1237
(lp1238
tp1239
a(L3306817873L
L0L
(lp1240
(lp1241
tp1242
a(L2642187286L
L3785322319L
(lp1243
(lp1244
Vshould_load
p1245
atp1246
a(L3020204L
L0L
(lp1247
(lp1248
tp1249
a(L1879695069L
L3785322319L
(lp1250
(lp1251
Vverify_load_addresses
p1252
atp1253
a(L106L
L0L
(lp1254
(lp1255
tp1256
a(L113955750L
L0L
(lp1257
(lp1258
tp1259
a(L262831199L
L0L
(lp1260
(lp1261
tp1262
a(L4128104404L
L3785322319L
(lp1263
(lp1264
Vbootloader_mmap
p1265
atp1266
a(L1126783728L
L3785322319L
(lp1267
(lp1268
Vesp_log_early_timestamp
p1269
atp1270
a(L1727089337L
L0L
(lp1271
(lp1272
tp1273
a(L558627773L
L0L
(lp1274
(lp1275
tp1276
a(L2781308944L
L0L
(lp1277
(lp1278
tp1279
a(L1595421496L
L3785322319L
(lp1280
(lp1281
Vbootloader_munmap
p1282
atp1283
a(L1820299912L
L0L
(lp1284
(lp1285
tp1286
a(L2455000058L
L3785322319L
(lp1287
(lp1288
Vbootloader_fill_random
p1289
atp1290
a(L3277879431L
L0L
(lp1291
(lp1292
tp1293
a(L3281573515L
L0L
(lp1294
(lp1295
tp1296
a(L3450268858L
L0L
(lp1297
(lp1298
tp1299
a(L3021749L
L0L
(lp1300
(lp1301
tp1302
a(L3821106106L
L0L
(lp1303
(lp1304
tp1305
a(L2494883302L
L0L
(lp1306
(lp1307
tp1308
a(L2043449225L
L0L
(lp1309
(lp1310
tp1311
a(L2076355214L
L0L
(lp1312
(lp1313
tp1314
a(L301394602L
L0L
(lp1315
(lp1316
tp1317
a(L3018893270L
L0L
(lp1318
(lp1319
tp1320
a(L1224748769L
L0L
(lp1321
(lp1322
tp1323
a(L653501462L
L0L
(lp1324
(lp1325
tp1326
a(L3499111993L
L3785322319L
(lp1327
(lp1328
Vbootloader_sha256_data
p1329
atp1330
a(L90548756L
L0L
(lp1331
(lp1332
tp1333
a(L708495868L
L0L
(lp1334
(lp1335
tp1336
a(L2883900389L
L0L
(lp1337
(lp1338
tp1339
atp1340
sI1074238280
(Vbootloader_random_disable
p1341
(lp1342
(L3480345462L
L0L
(lp1343
(lp1344
tp1345
atp1346
sI1074235464
(Vbootloader_flash_read_sfdp
p1347
(lp1348
(L711701400L
L0L
(lp1349
(lp1350
tp1351
a(L3305374083L
L3785322319L
(lp1352
(lp1353
V__assert_func
p1354
atp1355
a(L3704332455L
L3785322319L
(lp1356
(lp1357
Vbootloader_flash_execute_command_common
p1358
atp1359
atp1360
sI1074236756
(Vesp_dport_access_reg_read
p1361
(lp1362
(L1099794772L
L0L
(lp1363
(lp1364
tp1365
atp1366
sI1074237268
(Vbootloader_common_reset_rtc_retain_mem
p1367
(lp1368
(L3756392397L
L0L
(lp1369
(lp1370
tp1371
atp1372
sI1074268764
(Vbootloader_random_enable
p1373
(lp1374
(L3678846225L
L0L
(lp1375
(lp1376
tp1377
atp1378
sI1074238032
(Vbootloader_flash_write
p1379
(lp1380
(L3770380603L
L0L
(lp1381
(lp1382
tp1383
a(L3460770298L
L3785322319L
(lp1384
(lp1385
Vesp_log_early_timestamp
p1386
atp1387
a(L3833270346L
L0L
(lp1388
(lp1389
tp1390
a(L1610445075L
L0L
(lp1391
(lp1392
tp1393
a(L735741265L
L0L
(lp1394
(lp1395
tp1396
a(L3291333414L
L0L
(lp1397
(lp1398
tp1399
a(L237710506L
L3785322319L
(lp1400
(lp1401
Vesp_log_early_timestamp
p1402
atp1403
a(L3283691850L
L0L
(lp1404
(lp1405
tp1406
a(L1606356731L
L3785322319L
(lp1407
(lp1408
Vesp_log_early_timestamp
p1409
atp1410
a(L3212356251L
L3785322319L
(lp1411
(lp1412
Vbootloader_flash_unlock
p1413
atp1414
a(L1799218633L
L0L
(lp1415
(lp1416
tp1417
a(L94425498L
L3785322319L
(lp1418
(lp1419
Vesp_rom_spiflash_write_encrypted
p1420
atp1421
a(L2927190544L
L3785322319L
(lp1422
(lp1423
Vspi_to_esp_err
p1424
atp1425
a(L2927190544L
L3785322319L
(lp1426
(lp1427
Vesp_rom_spiflash_write
p1428
atp1429
atp1430
sI1074245456
(Vrtc_clk_cpu_freq_get_config
p1431
(lp1432
(L280011010L
L0L
(lp1433
(lp1434
tp1435
a(L3020187L
L0L
(lp1436
(lp1437
tp1438
a(L3020187L
L0L
(lp1439
(lp1440
tp1441
a(L1848958943L
L3785322319L
(lp1442
(lp1443
Vrtc_clk_xtal_freq_get
p1444
atp1445
a(L3789795478L
L0L
(lp1446
(lp1447
tp1448
a(L609797205L
L1880226080L
(lp1449
(lp1450
Vesp_log_early_timestamp
p1451
aVabort
p1452
atp1453
a(L405094289L
L0L
(lp1454
(lp1455
tp1456
a(L3020187L
L0L
(lp1457
(lp1458
tp1459
a(L3028481L
L0L
(lp1460
(lp1461
tp1462
a(L38508693L
L0L
(lp1463
(lp1464
tp1465
a(L187152368L
L0L
(lp1466
(lp1467
tp1468
a(L1161083655L
L0L
(lp1469
(lp1470
tp1471
a(L1395485899L
L0L
(lp1472
(lp1473
tp1474
a(L2070600034L
L0L
(lp1475
(lp1476
tp1477
atp1478
sI1074239324
(Vset_actual_ota_seq
p1479
(lp1480
(L4094723830L
L0L
(lp1481
(lp1482
tp1483
a(L952758373L
L0L
(lp1484
(lp1485
tp1486
a(L561043264L
L1832448559L
(lp1487
(lp1488
Vbootloader_common_ota_select_crc
p1489
aVesp_flash_encryption_enabled
p1490
aVbootloader_flash_erase_sector
p1491
atp1492
a(L300669811L
L3785322319L
(lp1493
(lp1494
Vbootloader_flash_write
p1495
atp1496
a(L1168419475L
L3785322319L
(lp1497
(lp1498
Vesp_log_early_timestamp
p1499
atp1500
a(L889933560L
L1880226080L
(lp1501
(lp1502
Vindex_to_partition
p1503
aVbootloader_common_update_rtc_retain_mem
p1504
atp1505
atp1506
sI1074244444
(Vefuse_hal_get_rated_freq_mhz
p1507
(lp1508
(L3060225221L
L0L
(lp1509
(lp1510
tp1511
a(L338960367L
L0L
(lp1512
(lp1513
tp1514
a(L3360570486L
L0L
(lp1515
(lp1516
tp1517
atp1518
sI1074247004
(Vrtc_clk_wait_for_slow_cycle
p1519
(lp1520
(L615141761L
L0L
(lp1521
(lp1522
tp1523
a(L287687718L
L0L
(lp1524
(lp1525
tp1526
a(L3360570486L
L0L
(lp1527
(lp1528
tp1529
a(L717034245L
L0L
(lp1530
(lp1531
tp1532
a(L1300789833L
L0L
(lp1533
(lp1534
tp1535
a(L1259765481L
L0L
(lp1536
(lp1537
tp1538
a(L403487148L
L0L
(lp1539
(lp1540
tp1541
a(L257646523L
L3785322319L
(lp1542
(lp1543
Vesp_log_early_timestamp
p1544
atp1545
atp1546
sI1074267732
(Vwdt_reset_info_dump
p1547
(lp1548
(L4037458708L
L0L
(lp1549
(lp1550
tp1551
a(L522353410L
L0L
(lp1552
(lp1553
tp1554
a(L217258670L
L0L
(lp1555
(lp1556
tp1557
a(L1103285333L
L0L
(lp1558
(lp1559
tp1560
a(L4222762845L
L3785322319L
(lp1561
(lp1562
Vesp_log_early_timestamp
p1563
atp1564
a(L2967992533L
L0L
(lp1565
(lp1566
tp1567
a(L1493818067L
L0L
(lp1568
(lp1569
tp1570
a(L4025433257L
L3785322319L
(lp1571
(lp1572
Vesp_log_early_timestamp
p1573
atp1574
atp1575
sI1074268756
(Vbootloader_init_mem
p1576
(lp1577
(L1287383080L
L3785322319L
(lp1578
(lp1579
Vesp_cpu_configure_region_protection
p1580
atp1581
atp1582
sI1074269268
(Vbootloader_init_spi_flash
p1583
(lp1584
(L418951599L
L2485746240L
(lp1585
(lp1586
Vbootloader_flash_gpio_config
p1587
aVbootloader_flash_dummy_config
p1588
aVbootloader_flash_cs_timing_config
p1589
aVbootloader_flash_unlock
p1590
atp1591
a(L93674324L
L0L
(lp1592
(lp1593
tp1594
a(L3422553167L
L0L
(lp1595
(lp1596
tp1597
a(L1707909459L
L0L
(lp1598
(lp1599
tp1600
a(L1038322988L
L0L
(lp1601
(lp1602
tp1603
a(L1798808034L
L3785322319L
(lp1604
(lp1605
Vbootloader_enable_wp
p1606
atp1607
a(L3907331784L
L0L
(lp1608
(lp1609
tp1610
atp1611
sI1074238808
(Vtry_load_partition
p1612
(lp1613
(L1898493800L
L0L
(lp1614
(lp1615
tp1616
a(L2454209732L
L3785322319L
(lp1617
(lp1618
Vbootloader_load_image
p1619
atp1620
a(L3360570486L
L0L
(lp1621
(lp1622
tp1623
atp1624
sI1074270568
(Vmpu_hal_set_region_access
p1625
(lp1626
(L3538356822L
L0L
(lp1627
(lp1628
tp1629
a(L93674324L
L0L
(lp1630
(lp1631
tp1632
a(L2910371777L
L0L
(lp1633
(lp1634
tp1635
a(L3472092938L
L0L
(lp1636
(lp1637
tp1638
a(L3020187L
L0L
(lp1639
(lp1640
tp1641
a(L3360570486L
L0L
(lp1642
(lp1643
tp1644
a(L2258718273L
L0L
(lp1645
(lp1646
tp1647
a(L3446648619L
L0L
(lp1648
(lp1649
tp1650
a(L3739532189L
L0L
(lp1651
(lp1652
tp1653
a(L1300789895L
L0L
(lp1654
(lp1655
tp1656
atp1657
sI1074244196
(Vwdt_hal_write_protect_disable
p1658
(lp1659
(L167868156L
L0L
(lp1660
(lp1661
tp1662
a(L4195472003L
L0L
(lp1663
(lp1664
tp1665
a(L3360570486L
L0L
(lp1666
(lp1667
tp1668
a(L1210571996L
L0L
(lp1669
(lp1670
tp1671
atp1672
sI1074247268
(Vesp_rom_spiflash_wait_idle
p1673
(lp1674
(L3233077127L
L0L
(lp1675
(lp1676
tp1677
a(L2023766174L
L0L
(lp1678
(lp1679
tp1680
a(L2805935108L
L0L
(lp1681
(lp1682
tp1683
a(L3086959262L
L0L
(lp1684
(lp1685
tp1686
a(L4161019926L
L3785322319L
(lp1687
(lp1688
Vesp_rom_spiflash_read_status
p1689
atp1690
atp1691
sI1074268524
(Vbootloader_clock_configure
p1692
(lp1693
(L2559598596L
L1880226080L
(lp1694
(lp1695
Vesp_rom_uart_tx_wait_idle
p1696
aVefuse_hal_chip_revision
p1697
atp1698
a(L1714060431L
L0L
(lp1699
(lp1700
tp1701
a(L883406775L
L0L
(lp1702
(lp1703
tp1704
a(L106L
L0L
(lp1705
(lp1706
tp1707
a(L3646321382L
L1832448559L
(lp1708
(lp1709
Vrtc_clk_slow_src_get
p1710
aVrtc_clk_fast_src_get
p1711
aVrtc_clk_init
p1712
atp1713
a(L3297562552L
L0L
(lp1714
(lp1715
tp1716
a(L1624159269L
L3785322319L
(lp1717
(lp1718
Vrtc_clk_apb_freq_get
p1719
atp1720
a(L106L
L0L
(lp1721
(lp1722
tp1723
a(L106L
L0L
(lp1724
(lp1725
tp1726
atp1727
sI1074236768
(Vis_xmc_chip_strict
p1728
(lp1729
(L1286841609L
L0L
(lp1730
(lp1731
tp1732
a(L2234016759L
L0L
(lp1733
(lp1734
tp1735
a(L1069027148L
L0L
(lp1736
(lp1737
tp1738
a(L3021749L
L0L
(lp1739
(lp1740
tp1741
a(L1900148749L
L0L
(lp1742
(lp1743
tp1744
a(L1936875721L
L0L
(lp1745
(lp1746
tp1747
a(L3356166509L
L0L
(lp1748
(lp1749
tp1750
a(L1937769451L
L0L
(lp1751
(lp1752
tp1753
a(L2137658907L
L0L
(lp1754
(lp1755
tp1756
a(L4265949734L
L0L
(lp1757
(lp1758
tp1759
a(L3360570486L
L0L
(lp1760
(lp1761
tp1762
atp1763
sI1074241120
(Vbootloader_util_regions_overlap
p1764
(lp1765
(L2762640130L
L0L
(lp1766
(lp1767
tp1768
a(L3400746973L
L0L
(lp1769
(lp1770
tp1771
a(L1364132917L
L3785322319L
(lp1772
(lp1773
V__assert_func
p1774
atp1775
a(L97642L
L0L
(lp1776
(lp1777
tp1778
a(L695383512L
L0L
(lp1779
(lp1780
tp1781
a(L366123053L
L0L
(lp1782
(lp1783
tp1784
a(L2258867228L
L0L
(lp1785
(lp1786
tp1787
a(L1253626734L
L0L
(lp1788
(lp1789
tp1790
a(L2258897019L
L0L
(lp1791
(lp1792
tp1793
a(L3109269495L
L0L
(lp1794
(lp1795
tp1796
atp1797
sI1074245216
(Vrtc_clk_slow_freq_get_hz
p1798
(lp1799
(L1826267122L
L3785322319L
(lp1800
(lp1801
Vrtc_clk_slow_src_get
p1802
atp1803
a(L4012016713L
L0L
(lp1804
(lp1805
tp1806
a(L2412726711L
L0L
(lp1807
(lp1808
tp1809
a(L3360570486L
L0L
(lp1810
(lp1811
tp1812
atp1813
sI1074270560
(Vbootloader_print_banner
p1814
(lp1815
(L2100504542L
L0L
(lp1816
(lp1817
tp1818
atp1819
sI1074246508
(Vrtc_clk_cal_internal
p1820
(lp1821
(L1904931684L
L0L
(lp1822
(lp1823
tp1824
a(L2421903674L
L3785322319L
(lp1825
(lp1826
V__assert_func
p1827
atp1828
a(L1724413307L
L0L
(lp1829
(lp1830
tp1831
a(L1673513644L
L0L
(lp1832
(lp1833
tp1834
a(L1500553258L
L3785322319L
(lp1835
(lp1836
Vrtc_clk_slow_src_get
p1837
atp1838
a(L3008910671L
L0L
(lp1839
(lp1840
tp1841
a(L97689L
L0L
(lp1842
(lp1843
tp1844
a(L1557014956L
L0L
(lp1845
(lp1846
tp1847
a(L3028464L
L0L
(lp1848
(lp1849
tp1850
a(L3028481L
L0L
(lp1851
(lp1852
tp1853
a(L3450258573L
L0L
(lp1854
(lp1855
tp1856
a(L1186240394L
L3785322319L
(lp1857
(lp1858
Vrtc_clk_xtal_freq_get
p1859
atp1860
a(L2780079961L
L0L
(lp1861
(lp1862
tp1863
a(L165511576L
L0L
(lp1864
(lp1865
tp1866
a(L2988354105L
L3785322319L
(lp1867
(lp1868
Vesp_log_early_timestamp
p1869
atp1870
a(L2258688482L
L0L
(lp1871
(lp1872
tp1873
a(L3360570486L
L0L
(lp1874
(lp1875
tp1876
a(L3553505594L
L0L
(lp1877
(lp1878
tp1879
a(L403361192L
L0L
(lp1880
(lp1881
tp1882
a(L3243404432L
L3785322319L
(lp1883
(lp1884
Vrtc_clk_8m_enable
p1885
atp1886
a(L396069005L
L0L
(lp1887
(lp1888
tp1889
a(L321045487L
L0L
(lp1890
(lp1891
tp1892
a(L2910371777L
L0L
(lp1893
(lp1894
tp1895
a(L2902417580L
L0L
(lp1896
(lp1897
tp1898
a(L3485456994L
L0L
(lp1899
(lp1900
tp1901
a(L3020204L
L0L
(lp1902
(lp1903
tp1904
a(L4115984808L
L0L
(lp1905
(lp1906
tp1907
a(L3429540926L
L0L
(lp1908
(lp1909
tp1910
a(L3028464L
L0L
(lp1911
(lp1912
tp1913
a(L3693474891L
L3785322319L
(lp1914
(lp1915
Vrtc_clk_8m_enable
p1916
atp1917
atp1918
sI1074237288
(Vbootloader_common_get_rtc_retain_mem_partition
p1919
(lp1920
(L4195445342L
L3785322319L
(lp1921
(lp1922
Vis_retain_mem_valid
p1923
atp1924
atp1925
sI1074236528
(Vesp_rom_uart_set_clock_baudrate
p1926
(lp1927
(L2889646162L
L0L
(lp1928
(lp1929
tp1930
a(L2295279860L
L0L
(lp1931
(lp1932
tp1933
a(L2805931291L
L0L
(lp1934
(lp1935
tp1936
a(L2901979283L
L0L
(lp1937
(lp1938
tp1939
atp1940
sI1074241648
(Vprocess_appended_hash_and_sig
p1941
(lp1942
(L1668084157L
L0L
(lp1943
(lp1944
tp1945
a(L2910371777L
L0L
(lp1946
(lp1947
tp1948
a(L4285188111L
L0L
(lp1949
(lp1950
tp1951
a(L1151175705L
L0L
(lp1952
(lp1953
tp1954
a(L97689L
L0L
(lp1955
(lp1956
tp1957
a(L403034262L
L3785322319L
(lp1958
(lp1959
Vesp_log_early_timestamp
p1960
atp1961
a(L3620581759L
L0L
(lp1962
(lp1963
tp1964
a(L1464893571L
L3785322319L
(lp1965
(lp1966
Vbootloader_flash_read
p1967
atp1968
a(L735741265L
L0L
(lp1969
(lp1970
tp1971
atp1972
sI1074235516
(Vbootloader_read_flash_id
p1973
(lp1974
(L549578328L
L3785322319L
(lp1975
(lp1976
Vbootloader_execute_flash_command
p1977
atp1978
atp1979
sI1074245244
(Vrtc_clk_fast_src_set
p1980
(lp1981
(L240174743L
L0L
(lp1982
(lp1983
tp1984
a(L3020187L
L0L
(lp1985
(lp1986
tp1987
a(L3827921190L
L3785322319L
(lp1988
(lp1989
Vabort
p1990
atp1991
a(L2904656757L
L0L
(lp1992
(lp1993
tp1994
a(L2553436348L
L0L
(lp1995
(lp1996
tp1997
a(L300459962L
L0L
(lp1998
(lp1999
tp2000
atp2001
sI1074238840
(Vcache_ll_l1_enable_bus
p2002
(lp2003
(L1908488057L
L0L
(lp2004
(lp2005
tp2006
atp2007
sI1074236280
(Vbootloader_flash_dummy_config
p2008
(lp2009
(L379397211L
L0L
(lp2010
(lp2011
tp2012
a(L2761717557L
L0L
(lp2013
(lp2014
tp2015
a(L1849044936L
L0L
(lp2016
(lp2017
tp2018
a(L3702150741L
L0L
(lp2019
(lp2020
tp2021
a(L1010450057L
L0L
(lp2022
(lp2023
tp2024
a(L3020204L
L0L
(lp2025
(lp2026
tp2027
a(L1610443405L
L0L
(lp2028
(lp2029
tp2030
a(L4032120524L
L0L
(lp2031
(lp2032
tp2033
a(L2336993863L
L0L
(lp2034
(lp2035
tp2036
a(L1298875775L
L0L
(lp2037
(lp2038
tp2039
a(L3880393601L
L0L
(lp2040
(lp2041
tp2042
a(L3433671740L
L0L
(lp2043
(lp2044
tp2045
a(L1610443436L
L0L
(lp2046
(lp2047
tp2048
atp2049
sI1074237304
(Vbootloader_common_update_rtc_retain_mem
p2050
(lp2051
(L2958000229L
L0L
(lp2052
(lp2053
tp2054
a(L3212356251L
L3785322319L
(lp2055
(lp2056
Vis_retain_mem_valid
p2057
atp2058
a(L94425498L
L3785322319L
(lp2059
(lp2060
Vbootloader_common_reset_rtc_retain_mem
p2061
atp2062
a(L1469745300L
L0L
(lp2063
(lp2064
tp2065
a(L4141035440L
L0L
(lp2066
(lp2067
tp2068
a(L2902417580L
L0L
(lp2069
(lp2070
tp2071
a(L1045260328L
L0L
(lp2072
(lp2073
tp2074
a(L3738038928L
L3785322319L
(lp2075
(lp2076
Vupdate_rtc_retain_mem_crc
p2077
atp2078
atp2079
sI1074238596
(Vbootloader_clock_get_rated_freq_mhz
p2080
(lp2081
(L376617603L
L3785322319L
(lp2082
(lp2083
Vefuse_hal_get_rated_freq_mhz
p2084
atp2085
atp2086
sI1074244228
(Vwdt_hal_set_flashboot_en
p2087
(lp2088
(L2375320464L
L0L
(lp2089
(lp2090
tp2091
a(L3915867581L
L0L
(lp2092
(lp2093
tp2094
a(L3360570486L
L0L
(lp2095
(lp2096
tp2097
a(L874658030L
L0L
(lp2098
(lp2099
tp2100
atp2101
sI1074244480
(Vrtc_clk_32k_enable_common
p2102
(lp2103
(L2205349943L
L0L
(lp2104
(lp2105
tp2106
a(L97422L
L0L
(lp2107
(lp2108
tp2109
a(L2218417248L
L0L
(lp2110
(lp2111
tp2112
a(L3159391859L
L0L
(lp2113
(lp2114
tp2115
a(L51458120L
L0L
(lp2116
(lp2117
tp2118
atp2119
sI1074270336
(Vrtc_vddsdio_get_config
p2120
(lp2121
(L3060401973L
L0L
(lp2122
(lp2123
tp2124
a(L1750635626L
L0L
(lp2125
(lp2126
tp2127
a(L3193418487L
L0L
(lp2128
(lp2129
tp2130
a(L3955423747L
L0L
(lp2131
(lp2132
tp2133
a(L115635292L
L0L
(lp2134
(lp2135
tp2136
a(L896053863L
L0L
(lp2137
(lp2138
tp2139
a(L1306330959L
L0L
(lp2140
(lp2141
tp2142
a(L633314314L
L0L
(lp2143
(lp2144
tp2145
atp2146
sI1074247564
(Vesp_rom_spiflash_erase_sector
p2147
(lp2148
(L3580050503L
L0L
(lp2149
(lp2150
tp2151
a(L2258688483L
L0L
(lp2152
(lp2153
tp2154
a(L3360570486L
L0L
(lp2155
(lp2156
tp2157
a(L3212356251L
L3785322319L
(lp2158
(lp2159
Vesp_rom_spiflash_enable_write
p2160
atp2161
a(L184152988L
L0L
(lp2162
(lp2163
tp2164
a(L4158098977L
L3785322319L
(lp2165
(lp2166
Vesp_rom_spiflash_wait_idle
p2167
atp2168
a(L3333707777L
L0L
(lp2169
(lp2170
tp2171
a(L3582858798L
L3785322319L
(lp2172
(lp2173
Vesp_rom_spiflash_wait_idle
p2174
atp2175
atp2176
sI1074245780
(Vrtc_clk_cpu_freq_set_config
p2177
(lp2178
(L1146584477L
L3785322319L
(lp2179
(lp2180
Vrtc_clk_xtal_freq_get
p2181
atp2182
a(L2308773007L
L0L
(lp2183
(lp2184
tp2185
a(L3253451229L
L1880226080L
(lp2186
(lp2187
Vrtc_clk_cpu_freq_to_xtal
p2188
aVrtc_clk_wait_for_slow_cycle
p2189
atp2190
a(L2243645672L
L0L
(lp2191
(lp2192
tp2193
a(L4002786498L
L0L
(lp2194
(lp2195
tp2196
a(L2736411858L
L3785322319L
(lp2197
(lp2198
Vrtc_clk_cpu_freq_to_xtal
p2199
atp2200
a(L3360570486L
L0L
(lp2201
(lp2202
tp2203
a(L2755207760L
L1832448559L
(lp2204
(lp2205
Vrtc_clk_cpu_freq_to_xtal
p2206
aVrtc_clk_wait_for_slow_cycle
p2207
aVrtc_clk_bbpll_disable
p2208
atp2209
a(L3020187L
L0L
(lp2210
(lp2211
tp2212
a(L106L
L0L
(lp2213
(lp2214
tp2215
a(L2772727374L
L1880226080L
(lp2216
(lp2217
Vrtc_clk_wait_for_slow_cycle
p2218
aVrtc_clk_xtal_freq_get
p2219
atp2220
a(L106L
L0L
(lp2221
(lp2222
tp2223
a(L2142754731L
L0L
(lp2224
(lp2225
tp2226
a(L83268611L
L0L
(lp2227
(lp2228
tp2229
a(L106L
L0L
(lp2230
(lp2231
tp2232
a(L82345090L
L0L
(lp2233
(lp2234
tp2235
a(L106L
L0L
(lp2236
(lp2237
tp2238
a(L2258718273L
L0L
(lp2239
(lp2240
tp2241
a(L3298883534L
L0L
(lp2242
(lp2243
tp2244
a(L2581390155L
L0L
(lp2245
(lp2246
tp2247
a(L1217078683L
L3785322319L
(lp2248
(lp2249
Vrtc_clk_cpu_freq_to_pll_mhz
p2250
atp2251
a(L4234162596L
L0L
(lp2252
(lp2253
tp2254
a(L83268344L
L0L
(lp2255
(lp2256
tp2257
a(L82344823L
L0L
(lp2258
(lp2259
tp2260
a(L1569180676L
L0L
(lp2261
(lp2262
tp2263
a(L2258837488L
L0L
(lp2264
(lp2265
tp2266
a(L730161903L
L0L
(lp2267
(lp2268
tp2269
a(L1482311963L
L0L
(lp2270
(lp2271
tp2272
a(L133411965L
L0L
(lp2273
(lp2274
tp2275
a(L3673491036L
L0L
(lp2276
(lp2277
tp2278
a(L4197990447L
L0L
(lp2279
(lp2280
tp2281
a(L903154985L
L0L
(lp2282
(lp2283
tp2284
a(L3020187L
L0L
(lp2285
(lp2286
tp2287
a(L106L
L0L
(lp2288
(lp2289
tp2290
a(L2129017708L
L3785322319L
(lp2291
(lp2292
Vesp_rom_set_cpu_ticks_per_us
p2293
atp2294
atp2295
sI1074247316
(Vesp_rom_spiflash_enable_write
p2296
(lp2297
(L1919662718L
L3785322319L
(lp2298
(lp2299
Vesp_rom_spiflash_wait_idle
p2300
atp2301
a(L3333707777L
L0L
(lp2302
(lp2303
tp2304
a(L2258688484L
L0L
(lp2305
(lp2306
tp2307
a(L99543895L
L0L
(lp2308
(lp2309
tp2310
a(L2993202392L
L0L
(lp2311
(lp2312
tp2313
a(L725306768L
L3785322319L
(lp2314
(lp2315
Vesp_rom_spiflash_read_status
p2316
atp2317
atp2318
sI1074238608
(Vlog_invalid_app_partition
p2319
(lp2320
(L2707828686L
L0L
(lp2321
(lp2322
tp2323
a(L3028464L
L0L
(lp2324
(lp2325
tp2326
a(L2298485649L
L3785322319L
(lp2327
(lp2328
Vesp_log_early_timestamp
p2329
atp2330
a(L3833270346L
L0L
(lp2331
(lp2332
tp2333
a(L3360570486L
L0L
(lp2334
(lp2335
tp2336
a(L3570313202L
L3785322319L
(lp2337
(lp2338
Vesp_log_early_timestamp
p2339
atp2340
a(L116508190L
L3785322319L
(lp2341
(lp2342
Vesp_log_early_timestamp
p2343
atp2344
atp2345
sI1074240668
(Vbootloader_console_deinit
p2346
(lp2347
(L879327750L
L0L
(lp2348
(lp2349
tp2350
atp2351
sI1074241176
(Vverify_load_addresses
p2352
(lp2353
(L2764487219L
L0L
(lp2354
(lp2355
tp2356
a(L106L
L0L
(lp2357
(lp2358
tp2359
a(L97642L
L0L
(lp2360
(lp2361
tp2362
a(L401349707L
L3785322319L
(lp2363
(lp2364
V__assert_func
p2365
atp2366
a(L773568033L
L0L
(lp2367
(lp2368
tp2369
a(L106L
L0L
(lp2370
(lp2371
tp2372
a(L53649752L
L0L
(lp2373
(lp2374
tp2375
a(L106L
L0L
(lp2376
(lp2377
tp2378
a(L3392088506L
L3785322319L
(lp2379
(lp2380
Vbootloader_util_regions_overlap
p2381
atp2382
a(L1596539087L
L3785322319L
(lp2383
(lp2384
Vbootloader_util_regions_overlap
p2385
atp2386
a(L3028481L
L0L
(lp2387
(lp2388
tp2389
a(L2011976758L
L3785322319L
(lp2390
(lp2391
Vbootloader_util_regions_overlap
p2392
atp2393
a(L1403902876L
L0L
(lp2394
(lp2395
tp2396
a(L400238537L
L0L
(lp2397
(lp2398
tp2399
a(L1032381749L
L0L
(lp2400
(lp2401
tp2402
a(L2837304413L
L0L
(lp2403
(lp2404
tp2405
a(L677569396L
L3785322319L
(lp2406
(lp2407
Vverify_load_addresses
p2408
atp2409
a(L1351513776L
L0L
(lp2410
(lp2411
tp2412
a(L956755582L
L0L
(lp2413
(lp2414
tp2415
a(L1603226247L
L0L
(lp2416
(lp2417
tp2418
a(L2767000558L
L0L
(lp2419
(lp2420
tp2421
a(L106L
L0L
(lp2422
(lp2423
tp2424
a(L1777767126L
L0L
(lp2425
(lp2426
tp2427
a(L106L
L0L
(lp2428
(lp2429
tp2430
a(L150121615L
L3785322319L
(lp2431
(lp2432
Vbootloader_util_regions_overlap
p2433
atp2434
a(L3028481L
L0L
(lp2435
(lp2436
tp2437
a(L3042453782L
L3785322319L
(lp2438
(lp2439
Vbootloader_util_regions_overlap
p2440
atp2441
a(L2069068491L
L0L
(lp2442
(lp2443
tp2444
a(L4121884234L
L0L
(lp2445
(lp2446
tp2447
a(L2326486292L
L0L
(lp2448
(lp2449
tp2450
a(L2743341656L
L0L
(lp2451
(lp2452
tp2453
a(L182882711L
L0L
(lp2454
(lp2455
tp2456
a(L2755080247L
L0L
(lp2457
(lp2458
tp2459
a(L297163306L
L0L
(lp2460
(lp2461
tp2462
a(L1900059593L
L0L
(lp2463
(lp2464
tp2465
a(L279169397L
L0L
(lp2466
(lp2467
tp2468
a(L3628254031L
L0L
(lp2469
(lp2470
tp2471
a(L3929371936L
L0L
(lp2472
(lp2473
tp2474
a(L2805932663L
L0L
(lp2475
(lp2476
tp2477
a(L4072848040L
L0L
(lp2478
(lp2479
tp2480
a(L106L
L0L
(lp2481
(lp2482
tp2483
a(L955501318L
L0L
(lp2484
(lp2485
tp2486
a(L307917276L
L0L
(lp2487
(lp2488
tp2489
a(L3020204L
L0L
(lp2490
(lp2491
tp2492
a(L1684424925L
L3785322319L
(lp2493
(lp2494
Vesp_log_early_timestamp
p2495
atp2496
a(L1303560396L
L0L
(lp2497
(lp2498
tp2499
a(L955501194L
L0L
(lp2500
(lp2501
tp2502
a(L1303560427L
L0L
(lp2503
(lp2504
tp2505
atp2506
sI1074242968
(Vbootloader_load_image
p2507
(lp2508
(L1155870502L
L3785322319L
(lp2509
(lp2510
Vimage_load
p2511
atp2512
atp2513
sI1074235812
(Vbootloader_flash_gpio_config
p2514
(lp2515
(L3362256192L
L3785322319L
(lp2516
(lp2517
Vbootloader_common_get_chip_ver_pkg
p2518
atp2519
a(L106L
L0L
(lp2520
(lp2521
tp2522
a(L1998579353L
L0L
(lp2523
(lp2524
tp2525
a(L106L
L0L
(lp2526
(lp2527
tp2528
a(L961479410L
L0L
(lp2529
(lp2530
tp2531
a(L1365162803L
L0L
(lp2532
(lp2533
tp2534
a(L106L
L0L
(lp2535
(lp2536
tp2537
a(L4003626558L
L0L
(lp2538
(lp2539
tp2540
a(L2656511625L
L0L
(lp2541
(lp2542
tp2543
a(L3360570486L
L0L
(lp2544
(lp2545
tp2546
atp2547
sI1074239652
(Vbootloader_utility_get_selected_boot_partition
p2548
(lp2549
(L2938832293L
L0L
(lp2550
(lp2551
tp2552
a(L1429900970L
L0L
(lp2553
(lp2554
tp2555
a(L2132118532L
L3785322319L
(lp2556
(lp2557
Vesp_log_early_timestamp
p2558
atp2559
a(L194246498L
L0L
(lp2560
(lp2561
tp2562
a(L3360570486L
L0L
(lp2563
(lp2564
tp2565
a(L3118387733L
L3785322319L
(lp2566
(lp2567
Vbootloader_mmap
p2568
atp2569
a(L3538476793L
L3785322319L
(lp2570
(lp2571
Vesp_log_early_timestamp
p2572
atp2573
a(L3743520723L
L1880226080L
(lp2574
(lp2575
Vbootloader_munmap
p2576
aVbootloader_common_ota_select_invalid
p2577
atp2578
a(L2911028409L
L0L
(lp2579
(lp2580
tp2581
a(L726746649L
L3785322319L
(lp2582
(lp2583
Vbootloader_common_get_active_otadata
p2584
atp2585
a(L4179097382L
L0L
(lp2586
(lp2587
tp2588
a(L3111084448L
L3785322319L
(lp2589
(lp2590
Vbootloader_common_ota_select_invalid
p2591
atp2592
a(L2793942993L
L0L
(lp2593
(lp2594
tp2595
a(L1043744473L
L0L
(lp2596
(lp2597
tp2598
a(L2302032704L
L0L
(lp2599
(lp2600
tp2601
a(L1173788779L
L3785322319L
(lp2602
(lp2603
Vbootloader_common_ota_select_crc
p2604
atp2605
a(L4188515782L
L0L
(lp2606
(lp2607
tp2608
a(L1324800084L
L3785322319L
(lp2609
(lp2610
Vbootloader_common_ota_select_crc
p2611
atp2612
a(L1299866312L
L0L
(lp2613
(lp2614
tp2615
a(L423437054L
L0L
(lp2616
(lp2617
tp2618
a(L966299489L
L3785322319L
(lp2619
(lp2620
Vesp_log_early_timestamp
p2621
atp2622
a(L3833270346L
L0L
(lp2623
(lp2624
tp2625
a(L1641201884L
L0L
(lp2626
(lp2627
tp2628
a(L692138812L
L3785322319L
(lp2629
(lp2630
Vesp_log_early_timestamp
p2631
atp2632
atp2633
sI1074240932
(Vprocess_image_header
p2634
(lp2635
(L2473480412L
L3785322319L
(lp2636
(lp2637
Vbootloader_flash_read
p2638
atp2639
a(L3020204L
L0L
(lp2640
(lp2641
tp2642
a(L4205021202L
L0L
(lp2643
(lp2644
tp2645
a(L321261932L
L0L
(lp2646
(lp2647
tp2648
a(L1161397362L
L3785322319L
(lp2649
(lp2650
Vbootloader_sha256_start
p2651
atp2652
a(L2062774299L
L3785322319L
(lp2653
(lp2654
Vbootloader_sha256_data
p2655
atp2656
a(L1291118193L
L0L
(lp2657
(lp2658
tp2659
a(L3028481L
L0L
(lp2660
(lp2661
tp2662
a(L3928932211L
L3785322319L
(lp2663
(lp2664
Vesp_log_early_timestamp
p2665
atp2666
a(L3200754091L
L0L
(lp2667
(lp2668
tp2669
a(L2983970029L
L0L
(lp2670
(lp2671
tp2672
a(L4235213884L
L3785322319L
(lp2673
(lp2674
Vbootloader_common_check_chip_validity
p2675
atp2676
a(L4144303915L
L0L
(lp2677
(lp2678
tp2679
a(L3028481L
L0L
(lp2680
(lp2681
tp2682
a(L1506537174L
L3785322319L
(lp2683
(lp2684
Vesp_log_early_timestamp
p2685
atp2686
a(L2852701393L
L0L
(lp2687
(lp2688
tp2689
a(L2122516551L
L0L
(lp2690
(lp2691
tp2692
a(L3064492592L
L0L
(lp2693
(lp2694
tp2695
atp2696
sI1074245024
(Vrtc_clk_8m_enabled
p2697
(lp2698
(L2768211156L
L0L
(lp2699
(lp2700
tp2701
atp2702
sI1074240684
(V__assert_func
p2703
(lp2704
(L1224639954L
L0L
(lp2705
(lp2706
tp2707
a(L106L
L0L
(lp2708
(lp2709
tp2710
atp2711
sI1074238892
(Vcache_ll_l1_enable_bus
p2712
(lp2713
(L1408514293L
L0L
(lp2714
(lp2715
tp2716
atp2717
sI1074235564
(Vbootloader_flash_xmc_startup
p2718
(lp2719
(L2007527597L
L3785322319L
(lp2720
(lp2721
Vis_xmc_chip_strict
p2722
atp2723
a(L2258688482L
L0L
(lp2724
(lp2725
tp2726
a(L3360570486L
L0L
(lp2727
(lp2728
tp2729
a(L251913992L
L3785322319L
(lp2730
(lp2731
Vbootloader_flash_read_sfdp
p2732
atp2733
a(L3093183620L
L267944800L
(lp2734
(lp2735
Vbootloader_execute_flash_command
p2736
aVbootloader_execute_flash_command
p2737
aVbootloader_execute_flash_command
p2738
aVbootloader_execute_flash_command
p2739
aVbootloader_read_flash_id
p2740
aVis_xmc_chip_strict
p2741
atp2742
a(L3994954364L
L3785322319L
(lp2743
(lp2744
Vesp_log_early_timestamp
p2745
atp2746
atp2747
sI1074242984
(Vbootloader_load_image_no_verify
p2748
(lp2749
(L3412781509L
L3785322319L
(lp2750
(lp2751
Vimage_load
p2752
atp2753
atp2754
sI1074239912
(Vbootloader_utility_load_boot_image_from_deep_sleep
p2755
(lp2756
(L1240405543L
L0L
(lp2757
(lp2758
tp2759
a(L3212347974L
L3785322319L
(lp2760
(lp2761
Vbootloader_common_get_rtc_retain_mem_partition
p2762
atp2763
a(L392176478L
L3785322319L
(lp2764
(lp2765
Vbootloader_load_image_no_verify
p2766
atp2767
a(L4017103105L
L1880226080L
(lp2768
(lp2769
Vbootloader_common_update_rtc_retain_mem
p2770
aVload_image
p2771
atp2772
a(L1335915723L
L3785322319L
(lp2773
(lp2774
Vesp_log_early_timestamp
p2775
atp2776
a(L3360570486L
L0L
(lp2777
(lp2778
tp2779
atp2780
sI1074236840
(Vesp_log_early_timestamp
p2781
(lp2782
(L387765101L
L0L
(lp2783
(lp2784
tp2785
atp2786
sI1074244776
(Vrtc_clk_bbpll_disable
p2787
(lp2788
(L2963606657L
L0L
(lp2789
(lp2790
tp2791
a(L2472207241L
L0L
(lp2792
(lp2793
tp2794
a(L3360570486L
L0L
(lp2795
(lp2796
tp2797
atp2798
sI1074269624
(Vbootloader_enable_random
p2799
(lp2800
(L1287383080L
L3785322319L
(lp2801
(lp2802
Vbootloader_random_enable
p2803
atp2804
atp2805
sI1074242484
(Vimage_load
p2806
(lp2807
(L3048705773L
L0L
(lp2808
(lp2809
tp2810
a(L3463713141L
L0L
(lp2811
(lp2812
tp2813
a(L3309803581L
L0L
(lp2814
(lp2815
tp2816
a(L256049682L
L0L
(lp2817
(lp2818
tp2819
a(L1935188817L
L0L
(lp2820
(lp2821
tp2822
a(L3028481L
L0L
(lp2823
(lp2824
tp2825
a(L3021749L
L0L
(lp2826
(lp2827
tp2828
a(L106L
L0L
(lp2829
(lp2830
tp2831
a(L585264737L
L0L
(lp2832
(lp2833
tp2834
a(L1145291904L
L3785322319L
(lp2835
(lp2836
Vprocess_image_header
p2837
atp2838
a(L823859500L
L0L
(lp2839
(lp2840
tp2841
a(L3061291474L
L0L
(lp2842
(lp2843
tp2844
a(L4106474008L
L3785322319L
(lp2845
(lp2846
Vprocess_segments
p2847
atp2848
a(L3868840998L
L0L
(lp2849
(lp2850
tp2851
a(L2656707586L
L0L
(lp2852
(lp2853
tp2854
a(L1827898452L
L3785322319L
(lp2855
(lp2856
Vprocess_checksum
p2857
atp2858
a(L2214715179L
L3785322319L
(lp2859
(lp2860
Vprocess_appended_hash_and_sig
p2861
atp2862
a(L3028481L
L0L
(lp2863
(lp2864
tp2865
a(L2902417580L
L0L
(lp2866
(lp2867
tp2868
a(L3285560995L
L3785322319L
(lp2869
(lp2870
Vbootloader_sha256_finish
p2871
atp2872
a(L3946560000L
L0L
(lp2873
(lp2874
tp2875
a(L93674324L
L0L
(lp2876
(lp2877
tp2878
a(L3089461923L
L0L
(lp2879
(lp2880
tp2881
a(L772115669L
L0L
(lp2882
(lp2883
tp2884
a(L1179424413L
L0L
(lp2885
(lp2886
tp2887
a(L3928150917L
L0L
(lp2888
(lp2889
tp2890
a(L106L
L0L
(lp2891
(lp2892
tp2893
a(L3871473710L
L0L
(lp2894
(lp2895
tp2896
a(L3884726427L
L0L
(lp2897
(lp2898
tp2899
a(L106L
L0L
(lp2900
(lp2901
tp2902
a(L3020187L
L0L
(lp2903
(lp2904
tp2905
a(L2786583099L
L3785322319L
(lp2906
(lp2907
Vesp_log_early_timestamp
p2908
atp2909
a(L2868044067L
L0L
(lp2910
(lp2911
tp2912
a(L1179764900L
L0L
(lp2913
(lp2914
tp2915
a(L2332746046L
L3785322319L
(lp2916
(lp2917
Vbootloader_sha256_finish
p2918
atp2919
a(L4044057905L
L0L
(lp2920
(lp2921
tp2922
a(L3020204L
L0L
(lp2923
(lp2924
tp2925
a(L280617890L
L0L
(lp2926
(lp2927
tp2928
a(L106L
L0L
(lp2929
(lp2930
tp2931
a(L2088395453L
L1880226080L
(lp2932
(lp2933
Vbootloader_sha256_finish
p2934
aVbootloader_debug_buffer
p2935
atp2936
a(L3565807064L
L1880226080L
(lp2937
(lp2938
Vesp_log_early_timestamp
p2939
aVbootloader_debug_buffer
p2940
atp2941
a(L3741653406L
L3785322319L
(lp2942
(lp2943
Vshould_load
p2944
atp2945
a(L2764257181L
L0L
(lp2946
(lp2947
tp2948
a(L3338774213L
L0L
(lp2949
(lp2950
tp2951
a(L3464541874L
L0L
(lp2952
(lp2953
tp2954
a(L3349572949L
L0L
(lp2955
(lp2956
tp2957
a(L2192292519L
L0L
(lp2958
(lp2959
tp2960
a(L106L
L0L
(lp2961
(lp2962
tp2963
a(L26615924L
L0L
(lp2964
(lp2965
tp2966
a(L1299866312L
L0L
(lp2967
(lp2968
tp2969
a(L3010020263L
L0L
(lp2970
(lp2971
tp2972
atp2973
sI1074237360
(Vbootloader_common_ota_select_invalid
p2974
(lp2975
(L4027567199L
L0L
(lp2976
(lp2977
tp2978
a(L3397985842L
L0L
(lp2979
(lp2980
tp2981
a(L2258867228L
L0L
(lp2982
(lp2983
tp2984
a(L3785235668L
L0L
(lp2985
(lp2986
tp2987
atp2988
sI1074245308
(Vrtc_clk_fast_src_get
p2989
(lp2990
(L3424975406L
L0L
(lp2991
(lp2992
tp2993
atp2994
sI1074243000
(Vesp_partition_table_verify
p2995
(lp2996
(L3052823174L
L0L
(lp2997
(lp2998
tp2999
a(L3608875203L
L0L
(lp3000
(lp3001
tp3002
a(L1184829782L
L0L
(lp3003
(lp3004
tp3005
a(L3020204L
L0L
(lp3006
(lp3007
tp3008
a(L3048972566L
L3785322319L
(lp3009
(lp3010
Vesp_log_early_timestamp
p3011
atp3012
a(L1235012963L
L0L
(lp3013
(lp3014
tp3015
a(L3190337587L
L0L
(lp3016
(lp3017
tp3018
a(L2069928857L
L0L
(lp3019
(lp3020
tp3021
a(L2902417580L
L0L
(lp3022
(lp3023
tp3024
a(L4131835749L
L3785322319L
(lp3025
(lp3026
Vesp_log_early_timestamp
p3027
atp3028
a(L214783824L
L0L
(lp3029
(lp3030
tp3031
a(L3020204L
L0L
(lp3032
(lp3033
tp3034
a(L3020204L
L0L
(lp3035
(lp3036
tp3037
a(L410379634L
L3785322319L
(lp3038
(lp3039
Vesp_log_early_timestamp
p3040
atp3041
a(L3833270346L
L0L
(lp3042
(lp3043
tp3044
a(L1235012932L
L0L
(lp3045
(lp3046
tp3047
a(L1778868206L
L0L
(lp3048
(lp3049
tp3050
a(L3020204L
L0L
(lp3051
(lp3052
tp3053
a(L4131834292L
L3785322319L
(lp3054
(lp3055
Vesp_log_early_timestamp
p3056
atp3057
a(L1305407469L
L0L
(lp3058
(lp3059
tp3060
a(L1167861556L
L0L
(lp3061
(lp3062
tp3063
a(L818997085L
L0L
(lp3064
(lp3065
tp3066
a(L3360570486L
L0L
(lp3067
(lp3068
tp3069
a(L3020204L
L0L
(lp3070
(lp3071
tp3072
a(L367568193L
L3785322319L
(lp3073
(lp3074
Vesp_log_early_timestamp
p3075
atp3076
atp3077
sI1074245048
(Vrtc_clk_8md256_enabled
p3078
(lp3079
(L1923739285L
L0L
(lp3080
(lp3081
tp3082
atp3083
sI1074247864
(Vesp_rom_spiflash_write_encrypted
p3084
(lp3085
(L1944247967L
L0L
(lp3086
(lp3087
tp3088
a(L1327433108L
L0L
(lp3089
(lp3090
tp3091
a(L97689L
L0L
(lp3092
(lp3093
tp3094
a(L3061232074L
L0L
(lp3095
(lp3096
tp3097
a(L4090136808L
L0L
(lp3098
(lp3099
tp3100
a(L1309309703L
L3785322319L
(lp3101
(lp3102
Vesp_rom_spiflash_write
p3103
atp3104
a(L3714595156L
L0L
(lp3105
(lp3106
tp3107
a(L735741265L
L0L
(lp3108
(lp3109
tp3110
atp3111
sI1074243268
(Vwdt_hal_init
p3112
(lp3113
(L4172452265L
L0L
(lp3114
(lp3115
tp3116
a(L106L
L0L
(lp3117
(lp3118
tp3119
a(L2104868314L
L0L
(lp3120
(lp3121
tp3122
a(L3076988543L
L0L
(lp3123
(lp3124
tp3125
a(L3059148391L
L0L
(lp3126
(lp3127
tp3128
a(L3028464L
L0L
(lp3129
(lp3130
tp3131
a(L826407780L
L0L
(lp3132
(lp3133
tp3134
a(L3860501164L
L0L
(lp3135
(lp3136
tp3137
a(L2806468549L
L0L
(lp3138
(lp3139
tp3140
a(L3360570486L
L0L
(lp3141
(lp3142
tp3143
atp3144
sI1074240708
(Vabort
p3145
(lp3146
(L2850606941L
L0L
(lp3147
(lp3148
tp3149
a(L409471316L
L0L
(lp3150
(lp3151
tp3152
a(L106L
L0L
(lp3153
(lp3154
tp3155
atp3156
sI1074236608
(Vefuse_hal_chip_revision
p3157
(lp3158
(L2719302832L
L1880226080L
(lp3159
(lp3160
Vefuse_hal_get_major_chip_version
p3161
aVefuse_hal_get_minor_chip_version
p3162
atp3163
atp3164
sI1074269632
(Vbootloader_console_init
p3165
(lp3166
(L3761484553L
L1832448559L
(lp3167
(lp3168
Vesp_rom_uart_tx_wait_idle
p3169
aVrtc_clk_apb_freq_get
p3170
aVesp_rom_uart_set_clock_baudrate
p3171
atp3172
atp3173
sI1074237388
(Vbootloader_common_select_otadata
p3174
(lp3175
(L4071767857L
L0L
(lp3176
(lp3177
tp3178
a(L1999329187L
L0L
(lp3179
(lp3180
tp3181
a(L3846398843L
L0L
(lp3182
(lp3183
tp3184
a(L2501968171L
L0L
(lp3185
(lp3186
tp3187
a(L3360570486L
L0L
(lp3188
(lp3189
tp3190
a(L2045232488L
L0L
(lp3191
(lp3192
tp3193
a(L1243525916L
L0L
(lp3194
(lp3195
tp3196
a(L3094144427L
L0L
(lp3197
(lp3198
tp3199
a(L2399509845L
L0L
(lp3200
(lp3201
tp3202
a(L1641201884L
L0L
(lp3203
(lp3204
tp3205
atp3206
sI1074245324
(Vrtc_clk_xtal_freq_get
p3207
(lp3208
(L4181497304L
L0L
(lp3209
(lp3210
tp3211
a(L2847936993L
L0L
(lp3212
(lp3213
tp3214
a(L605647091L
L0L
(lp3215
(lp3216
tp3217
a(L3360570486L
L0L
(lp3218
(lp3219
tp3220
atp3221
sI1074247372
(Vesp_rom_spiflash_program_page_internal
p3222
(lp3223
(L2569069283L
L0L
(lp3224
(lp3225
tp3226
a(L2258688483L
L0L
(lp3227
(lp3228
tp3229
a(L3360570486L
L0L
(lp3230
(lp3231
tp3232
a(L1180216156L
L0L
(lp3233
(lp3234
tp3235
a(L4235661475L
L3785322319L
(lp3236
(lp3237
Vesp_rom_spiflash_wait_idle
p3238
atp3239
a(L1299866312L
L0L
(lp3240
(lp3241
tp3242
a(L3212356251L
L3785322319L
(lp3243
(lp3244
Vesp_rom_spiflash_enable_write
p3245
atp3246
a(L1426151147L
L0L
(lp3247
(lp3248
tp3249
a(L3120132727L
L0L
(lp3250
(lp3251
tp3252
a(L2953702749L
L0L
(lp3253
(lp3254
tp3255
a(L2989032L
L0L
(lp3256
(lp3257
tp3258
a(L1965622133L
L0L
(lp3259
(lp3260
tp3261
a(L3991828556L
L0L
(lp3262
(lp3263
tp3264
a(L1958113242L
L0L
(lp3265
(lp3266
tp3267
a(L106L
L0L
(lp3268
(lp3269
tp3270
a(L3112950080L
L0L
(lp3271
(lp3272
tp3273
a(L1868606439L
L0L
(lp3274
(lp3275
tp3276
a(L1008983780L
L0L
(lp3277
(lp3278
tp3279
a(L1933954923L
L0L
(lp3280
(lp3281
tp3282
a(L1147866918L
L0L
(lp3283
(lp3284
tp3285
a(L3871602522L
L0L
(lp3286
(lp3287
tp3288
atp3289
sI1074269892
(Vrtc_clk_init
p3290
(lp3291
(L1949755473L
L0L
(lp3292
(lp3293
tp3294
a(L42671777L
L3785322319L
(lp3295
(lp3296
Vrtc_clk_cpu_freq_to_xtal
p3297
atp3298
a(L4210699952L
L3785322319L
(lp3299
(lp3300
Vrtc_clk_xtal_freq_get
p3301
atp3302
a(L3028481L
L0L
(lp3303
(lp3304
tp3305
a(L4284274517L
L3785322319L
(lp3306
(lp3307
Vrtc_clk_xtal_freq_estimate
p3308
atp3309
a(L1165738187L
L3785322319L
(lp3310
(lp3311
Vesp_log_early_timestamp
p3312
atp3313
a(L3254275454L
L1157885199L
(lp3314
(lp3315
Vesp_rom_uart_tx_wait_idle
p3316
aVrtc_clk_xtal_freq_update
p3317
aVrtc_clk_apb_freq_update
p3318
aVrtc_clk_cpu_freq_get_config
p3319
aVrtc_clk_cpu_freq_mhz_to_config
p3320
atp3321
a(L1472250234L
L1880226080L
(lp3322
(lp3323
Vesp_log_early_timestamp
p3324
aVabort
p3325
atp3326
a(L2902417580L
L0L
(lp3327
(lp3328
tp3329
a(L1899970065L
L0L
(lp3330
(lp3331
tp3332
a(L377687546L
L3785322319L
(lp3333
(lp3334
Vrtc_clk_xtal_freq_estimate
p3335
atp3336
a(L1611917966L
L3785322319L
(lp3337
(lp3338
Vesp_log_early_timestamp
p3339
atp3340
a(L2242669021L
L3785322319L
(lp3341
(lp3342
Vrtc_clk_cpu_freq_set_config
p3343
atp3344
a(L912310138L
L3785322319L
(lp3345
(lp3346
Vrtc_clk_32k_enable
p3347
atp3348
a(L3191820416L
L1832448559L
(lp3349
(lp3350
Vrtc_clk_8m_enable
p3351
aVrtc_clk_fast_src_set
p3352
aVrtc_clk_slow_src_set
p3353
atp3354
a(L1232958848L
L0L
(lp3355
(lp3356
tp3357
atp3358
sI1074241736
(Vshould_load
p3359
(lp3360
(L3770366261L
L0L
(lp3361
(lp3362
tp3363
a(L1182990556L
L0L
(lp3364
(lp3365
tp3366
a(L169554709L
L0L
(lp3367
(lp3368
tp3369
a(L2306467100L
L0L
(lp3370
(lp3371
tp3372
a(L524505062L
L0L
(lp3373
(lp3374
tp3375
a(L2258897019L
L0L
(lp3376
(lp3377
tp3378
a(L3781799363L
L0L
(lp3379
(lp3380
tp3381
a(L3028464L
L0L
(lp3382
(lp3383
tp3384
a(L4130102292L
L0L
(lp3385
(lp3386
tp3387
a(L4277114872L
L0L
(lp3388
(lp3389
tp3390
a(L2824381917L
L0L
(lp3391
(lp3392
tp3393
a(L1243412227L
L0L
(lp3394
(lp3395
tp3396
a(L2011157548L
L0L
(lp3397
(lp3398
tp3399
a(L3126521138L
L0L
(lp3400
(lp3401
tp3402
a(L1305407438L
L0L
(lp3403
(lp3404
tp3405
a(L1305407469L
L0L
(lp3406
(lp3407
tp3408
atp3409
sI1074236872
(Vis_retain_mem_valid
p3410
(lp3411
(L3145564885L
L0L
(lp3412
(lp3413
tp3414
atp3415
sI1074244296
(Vwdt_hal_write_protect_enable
p3416
(lp3417
(L387778158L
L0L
(lp3418
(lp3419
tp3420
a(L4195472003L
L0L
(lp3421
(lp3422
tp3423
a(L3360570486L
L0L
(lp3424
(lp3425
tp3426
a(L802523425L
L0L
(lp3427
(lp3428
tp3429
atp3430
sI1074269400
(Vbootloader_clear_bss_section
p3431
(lp3432
(L1035474915L
L0L
(lp3433
(lp3434
tp3435
atp3436
sI1074239440
(Vbootloader_utility_load_partition_table
p3437
(lp3438
(L3128219304L
L3785322319L
(lp3439
(lp3440
Vbootloader_mmap
p3441
atp3442
a(L1655739003L
L3785322319L
(lp3443
(lp3444
Vesp_log_early_timestamp
p3445
atp3446
a(L2258688482L
L0L
(lp3447
(lp3448
tp3449
a(L3360570486L
L0L
(lp3450
(lp3451
tp3452
a(L255479872L
L3785322319L
(lp3453
(lp3454
Vesp_partition_table_verify
p3455
atp3456
a(L3613202002L
L0L
(lp3457
(lp3458
tp3459
a(L97642L
L0L
(lp3460
(lp3461
tp3462
a(L4248828323L
L3785322319L
(lp3463
(lp3464
Vbootloader_munmap
p3465
atp3466
a(L4036689553L
L3785322319L
(lp3467
(lp3468
Vesp_log_early_timestamp
p3469
atp3470
a(L3927622121L
L0L
(lp3471
(lp3472
tp3473
a(L3020187L
L0L
(lp3474
(lp3475
tp3476
a(L1532853611L
L0L
(lp3477
(lp3478
tp3479
a(L1036489382L
L0L
(lp3480
(lp3481
tp3482
a(L3020187L
L0L
(lp3483
(lp3484
tp3485
a(L2997988170L
L0L
(lp3486
(lp3487
tp3488
a(L529263765L
L0L
(lp3489
(lp3490
tp3491
a(L775434204L
L0L
(lp3492
(lp3493
tp3494
a(L3579705151L
L0L
(lp3495
(lp3496
tp3497
a(L2387139071L
L0L
(lp3498
(lp3499
tp3500
a(L1599920163L
L0L
(lp3501
(lp3502
tp3503
atp3504
sI1074245072
(Vrtc_clk_slow_src_set
p3505
(lp3506
(L1760266020L
L0L
(lp3507
(lp3508
tp3509
a(L3020187L
L0L
(lp3510
(lp3511
tp3512
a(L3028481L
L0L
(lp3513
(lp3514
tp3515
a(L487821223L
L0L
(lp3516
(lp3517
tp3518
a(L3229255077L
L0L
(lp3519
(lp3520
tp3521
a(L1851908495L
L0L
(lp3522
(lp3523
tp3524
a(L2729394930L
L0L
(lp3525
(lp3526
tp3527
a(L3138544334L
L0L
(lp3528
(lp3529
tp3530
a(L94425498L
L3785322319L
(lp3531
(lp3532
Vabort
p3533
atp3534
atp3535
sI1074238172
(Vbootloader_enable_wp
p3536
(lp3537
(L1117825804L
L3785322319L
(lp3538
(lp3539
Vbootloader_execute_flash_command
p3540
atp3541
atp3542
sI1074245596
(Vrtc_clk_xtal_freq_update
p3543
(lp3544
(L2605772993L
L0L
(lp3545
(lp3546
tp3547
a(L3509357017L
L0L
(lp3548
(lp3549
tp3550
a(L2266180931L
L0L
(lp3551
(lp3552
tp3553
atp3554
sI1074236632
(Vefuse_hal_flash_encryption_enabled
p3555
(lp3556
(L2932383536L
L0L
(lp3557
(lp3558
tp3559
a(L2910371777L
L0L
(lp3560
(lp3561
tp3562
a(L3360570486L
L0L
(lp3563
(lp3564
tp3565
a(L3016870L
L0L
(lp3566
(lp3567
tp3568
a(L3745038218L
L0L
(lp3569
(lp3570
tp3571
a(L957607403L
L0L
(lp3572
(lp3573
tp3574
atp3575
sI1074240472
(Vbootloader_sha256_finish
p3576
(lp3577
(L4066096136L
L0L
(lp3578
(lp3579
tp3580
a(L276446913L
L0L
(lp3581
(lp3582
tp3583
a(L792144543L
L3785322319L
(lp3584
(lp3585
V__assert_func
p3586
atp3587
a(L3020204L
L0L
(lp3588
(lp3589
tp3590
a(L1843692520L
L0L
(lp3591
(lp3592
tp3593
a(L2534656226L
L0L
(lp3594
(lp3595
tp3596
a(L1799405898L
L3785322319L
(lp3597
(lp3598
Vbootloader_sha256_data
p3599
atp3600
a(L1968575810L
L0L
(lp3601
(lp3602
tp3603
a(L2146378219L
L3785322319L
(lp3604
(lp3605
Vbootloader_sha256_data
p3606
atp3607
a(L2013840504L
L0L
(lp3608
(lp3609
tp3610
a(L657425439L
L0L
(lp3611
(lp3612
tp3613
a(L3128170966L
L0L
(lp3614
(lp3615
tp3616
a(L657425439L
L0L
(lp3617
(lp3618
tp3619
a(L2748668276L
L0L
(lp3620
(lp3621
tp3622
a(L1638329535L
L0L
(lp3623
(lp3624
tp3625
a(L3347778L
L0L
(lp3626
(lp3627
tp3628
a(L3360570486L
L0L
(lp3629
(lp3630
tp3631
atp3632
sI1074238692
(Vcache_ll_l1_get_bus
p3633
(lp3634
(L3823717336L
L0L
(lp3635
(lp3636
tp3637
a(L94425498L
L3785322319L
(lp3638
(lp3639
Vabort
p3640
atp3641
a(L3182782096L
L0L
(lp3642
(lp3643
tp3644
a(L3972142963L
L0L
(lp3645
(lp3646
tp3647
a(L892952750L
L0L
(lp3648
(lp3649
tp3650
a(L1182811810L
L0L
(lp3651
(lp3652
tp3653
a(L1101742417L
L0L
(lp3654
(lp3655
tp3656
a(L1100767927L
L0L
(lp3657
(lp3658
tp3659
a(L3360570486L
L0L
(lp3660
(lp3661
tp3662
a(L2748641547L
L0L
(lp3663
(lp3664
tp3665
a(L2882938163L
L0L
(lp3666
(lp3667
tp3668
a(L2927201858L
L0L
(lp3669
(lp3670
tp3671
a(L2258718273L
L0L
(lp3672
(lp3673
tp3674
a(L2580713941L
L0L
(lp3675
(lp3676
tp3677
a(L2752335631L
L0L
(lp3678
(lp3679
tp3680
a(L2756034985L
L0L
(lp3681
(lp3682
tp3683
a(L1641149277L
L0L
(lp3684
(lp3685
tp3686
a(L3251117380L
L0L
(lp3687
(lp3688
tp3689
a(L3027019L
L0L
(lp3690
(lp3691
tp3692
a(L1299866560L
L0L
(lp3693
(lp3694
tp3695
a(L1299866436L
L0L
(lp3696
(lp3697
tp3698
atp3699
sI1074244324
(Vwdt_hal_enable
p3700
(lp3701
(L2299130915L
L0L
(lp3702
(lp3703
tp3704
a(L165794138L
L0L
(lp3705
(lp3706
tp3707
a(L3360570486L
L0L
(lp3708
(lp3709
tp3710
a(L2847657174L
L0L
(lp3711
(lp3712
tp3713
atp3714
sI1074244836
(Vrtc_clk_32k_enable
p3715
(lp3716
(L753387299L
L0L
(lp3717
(lp3718
tp3719
a(L3776007933L
L3785322319L
(lp3720
(lp3721
Vrtc_clk_32k_enable_common
p3722
atp3723
a(L3496950L
L0L
(lp3724
(lp3725
tp3726
a(L3310643524L
L0L
(lp3727
(lp3728
tp3729
atp3730
sI1074239968
(Vbootloader_reset
p3731
(lp3732
(L2767708555L
L3785322319L
(lp3733
(lp3734
Vbootloader_console_deinit
p3735
atp3736
a(L106L
L0L
(lp3737
(lp3738
tp3739
atp3740
sI1074238944
(Vload_image
p3741
(lp3742
(L276015809L
L1880226080L
(lp3743
(lp3744
Vbootloader_random_disable
p3745
aVbootloader_ana_clock_glitch_reset_config
p3746
atp3747
a(L1373545544L
L0L
(lp3748
(lp3749
tp3750
a(L106L
L0L
(lp3751
(lp3752
tp3753
a(L4136011004L
L3758435744L
(lp3754
(lp3755
Vmmu_hal_unmap_all
p3756
aVcache_ll_l1_get_bus
p3757
aVcache_ll_l1_enable_bus
p3758
aVcache_ll_l1_get_bus
p3759
aVcache_ll_l1_enable_bus
p3760
aVcache_ll_l1_get_bus
p3761
aVcache_ll_l1_enable_bus
p3762
aVcache_ll_l1_get_bus
p3763
aVcache_ll_l1_enable_bus
p3764
aVbootloader_console_deinit
p3765
atp3766
a(L2993421526L
L0L
(lp3767
(lp3768
tp3769
a(L2902417580L
L0L
(lp3770
(lp3771
tp3772
a(L985163029L
L3785322319L
(lp3773
(lp3774
Vesp_log_early_timestamp
p3775
atp3776
a(L3455620645L
L0L
(lp3777
(lp3778
tp3779
a(L1265426453L
L0L
(lp3780
(lp3781
tp3782
a(L3020204L
L0L
(lp3783
(lp3784
tp3785
a(L2839508566L
L3785322319L
(lp3786
(lp3787
Vesp_log_early_timestamp
p3788
atp3789
a(L17153577L
L0L
(lp3790
(lp3791
tp3792
a(L2014464593L
L0L
(lp3793
(lp3794
tp3795
atp3796
sI1074267620
(Vcall_start_cpu0
p3797
(lp3798
(L1137852827L
L0L
(lp3799
(lp3800
tp3801
a(L549459388L
L0L
(lp3802
(lp3803
tp3804
a(L3212347974L
L3785322319L
(lp3805
(lp3806
Vbootloader_init
p3807
atp3808
a(L94425498L
L3785322319L
(lp3809
(lp3810
Vbootloader_reset
p3811
atp3812
a(L1122046408L
L0L
(lp3813
(lp3814
tp3815
a(L4099474112L
L0L
(lp3816
(lp3817
tp3818
a(L4004585570L
L1880226080L
(lp3819
(lp3820
Vbootloader_utility_load_boot_image_from_deep_sleep
p3821
aVbootloader_utility_load_partition_table
p3822
atp3823
a(L2761094216L
L3785322319L
(lp3824
(lp3825
Vesp_log_early_timestamp
p3826
atp3827
a(L736289835L
L3785322319L
(lp3828
(lp3829
Vbootloader_utility_get_selected_boot_partition
p3830
atp3831
a(L344825785L
L3785322319L
(lp3832
(lp3833
Vbootloader_utility_load_boot_image
p3834
atp3835
atp3836
sI1074269668
(Vesp_cpu_configure_region_protection
p3837
(lp3838
(L2370813982L
L0L
(lp3839
(lp3840
tp3841
a(L180431425L
L3785322319L
(lp3842
(lp3843
Vmpu_hal_set_region_access
p3844
atp3845
a(L2537388152L
L3785322319L
(lp3846
(lp3847
Vmpu_hal_set_region_access
p3848
atp3849
atp3850
sI1074240232
(Vindex_to_partition
p3851
(lp3852
(L4066096119L
L0L
(lp3853
(lp3854
tp3855
a(L1101255660L
L0L
(lp3856
(lp3857
tp3858
a(L1955702725L
L0L
(lp3859
(lp3860
tp3861
a(L3698927993L
L0L
(lp3862
(lp3863
tp3864
a(L2808906342L
L0L
(lp3865
(lp3866
tp3867
a(L4211744375L
L0L
(lp3868
(lp3869
tp3870
a(L3097778015L
L0L
(lp3871
(lp3872
tp3873
a(L1816235430L
L0L
(lp3874
(lp3875
tp3876
a(L2179185678L
L0L
(lp3877
(lp3878
tp3879
a(L3369319173L
L0L
(lp3880
(lp3881
tp3882
atp3883
sI1074236916
(Vupdate_rtc_retain_mem_crc
p3884
(lp3885
(L1324666654L
L0L
(lp3886
(lp3887
tp3888
atp3889
sI1074240756
(Vbootloader_ana_clock_glitch_reset_config
p3890
(lp3891
(L2100504542L
L0L
(lp3892
(lp3893
tp3894
atp3895
sI1074245364
(Vrtc_clk_cpu_freq_mhz_to_config
p3896
(lp3897
(L908718885L
L3785322319L
(lp3898
(lp3899
Vrtc_clk_xtal_freq_get
p3900
atp3901
a(L60460069L
L0L
(lp3902
(lp3903
tp3904
a(L3802072124L
L0L
(lp3905
(lp3906
tp3907
a(L3159006042L
L0L
(lp3908
(lp3909
tp3910
a(L3360570486L
L0L
(lp3911
(lp3912
tp3913
a(L895147205L
L0L
(lp3914
(lp3915
tp3916
a(L3970036657L
L0L
(lp3917
(lp3918
tp3919
a(L2731353429L
L0L
(lp3920
(lp3921
tp3922
a(L1555485793L
L0L
(lp3923
(lp3924
tp3925
a(L2258897023L
L0L
(lp3926
(lp3927
tp3928
a(L1947499251L
L0L
(lp3929
(lp3930
tp3931
a(L1306331021L
L0L
(lp3932
(lp3933
tp3934
atp3935
sI1074238192
(Vbootloader_mmap_get_free_pages
p3936
(lp3937
(L1496516875L
L0L
(lp3938
(lp3939
tp3940
atp3941
sI1074269424
(Vbootloader_read_bootloader_header
p3942
(lp3943
(L357175441L
L3785322319L
(lp3944
(lp3945
Vbootloader_flash_read
p3946
atp3947
a(L740409177L
L3785322319L
(lp3948
(lp3949
Vesp_log_early_timestamp
p3950
atp3951
a(L735741265L
L0L
(lp3952
(lp3953
tp3954
atp3955
sI1074240764
(Vprocess_checksum
p3956
(lp3957
(L255550803L
L0L
(lp3958
(lp3959
tp3960
a(L3028481L
L0L
(lp3961
(lp3962
tp3963
a(L186886970L
L0L
(lp3964
(lp3965
tp3966
a(L2902417580L
L0L
(lp3967
(lp3968
tp3969
a(L3028481L
L0L
(lp3970
(lp3971
tp3972
a(L2806308821L
L3785322319L
(lp3973
(lp3974
Vesp_log_early_timestamp
p3975
atp3976
a(L3620581759L
L0L
(lp3977
(lp3978
tp3979
a(L3236648107L
L3785322319L
(lp3980
(lp3981
Vbootloader_flash_read
p3982
atp3983
a(L735741265L
L0L
(lp3984
(lp3985
tp3986
a(L3020204L
L0L
(lp3987
(lp3988
tp3989
a(L2480703612L
L3785322319L
(lp3990
(lp3991
Vbootloader_sha256_data
p3992
atp3993
a(L3436105237L
L0L
(lp3994
(lp3995
tp3996
a(L106L
L0L
(lp3997
(lp3998
tp3999
atp4000
sI1074234620
(Vbootloader_common_get_chip_ver_pkg
p4001
(lp4002
(L994406025L
L0L
(lp4003
(lp4004
tp4005
atp4006
sI1074238200
(Vbootloader_fill_random
p4007
(lp4008
(L1731424088L
L0L
(lp4009
(lp4010
tp4011
a(L3305838944L
L3785322319L
(lp4012
(lp4013
V__assert_func
p4014
atp4015
a(L1882547218L
L0L
(lp4016
(lp4017
tp4018
a(L2910371777L
L0L
(lp4019
(lp4020
tp4021
a(L95634693L
L0L
(lp4022
(lp4023
tp4024
a(L3630908706L
L0L
(lp4025
(lp4026
tp4027
a(L160162640L
L0L
(lp4028
(lp4029
tp4030
a(L97689L
L0L
(lp4031
(lp4032
tp4033
a(L3360570486L
L0L
(lp4034
(lp4035
tp4036
atp4037
sI1074239992
(Vbootloader_utility_load_boot_image
p4038
(lp4039
(L1274108245L
L0L
(lp4040
(lp4041
tp4042
a(L2177418995L
L3785322319L
(lp4043
(lp4044
Vtry_load_partition
p4045
atp4046
a(L1305243774L
L3785322319L
(lp4047
(lp4048
Vload_image
p4049
atp4050
a(L1933091738L
L3785322319L
(lp4051
(lp4052
Vesp_log_early_timestamp
p4053
atp4054
a(L3827921190L
L3785322319L
(lp4055
(lp4056
Vbootloader_reset
p4057
atp4058
a(L1953693036L
L3785322319L
(lp4059
(lp4060
Vindex_to_partition
p4061
atp4062
a(L1204373741L
L3785322319L
(lp4063
(lp4064
Vtry_load_partition
p4065
atp4066
a(L1899865696L
L0L
(lp4067
(lp4068
tp4069
a(L2695355117L
L3785322319L
(lp4070
(lp4071
Vset_actual_ota_seq
p4072
atp4073
a(L1868897605L
L3785322319L
(lp4074
(lp4075
Vlog_invalid_app_partition
p4076
atp4077
a(L831650730L
L0L
(lp4078
(lp4079
tp4080
a(L3021737L
L0L
(lp4081
(lp4082
tp4083
a(L695456438L
L0L
(lp4084
(lp4085
tp4086
a(L1133226200L
L3785322319L
(lp4087
(lp4088
Vtry_load_partition
p4089
atp4090
a(L4152494764L
L3785322319L
(lp4091
(lp4092
Vesp_log_early_timestamp
p4093
atp4094
a(L2347390157L
L3785322319L
(lp4095
(lp4096
Vindex_to_partition
p4097
atp4098
a(L1204373741L
L3785322319L
(lp4099
(lp4100
Vtry_load_partition
p4101
atp4102
a(L3061261803L
L0L
(lp4103
(lp4104
tp4105
a(L3582858798L
L3785322319L
(lp4106
(lp4107
Vlog_invalid_app_partition
p4108
atp4109
a(L1237779208L
L3785322319L
(lp4110
(lp4111
Vesp_log_early_timestamp
p4112
atp4113
atp4114
ssS'functionsdups'
p4115
g11
((lp4116
tp4117
Rp4118
sS'immediatedups'
p4119
g11
((lp4120
tp4121
Rp4122
sS'functiondups'
p4123
g11
((lp4124
tp4125
Rp4126
sS'fuzzy'
p4127
(dp4128
L1536L
I1074240684
sL438947497L
I1074245072
sL430153639L
I1074235812
sL761339243L
I1074237304
sL1340445289L
I1074235564
sL3538491111L
I1074245216
sL16208487L
I1074234664
sL1053780185L
I1074247004
sL1907123383L
I1074238944
sL1385214606L
I1074241176
sL3709764864L
I1074242484
sL1419132215L
I1074238200
sL2469233929L
I1074240472
sL4024375675L
I1074245668
sL701833459L
I1074268524
sL720751058L
I1074267732
sL2475522855L
I1074269632
sL99291719L
I1074245780
sL1260046007L
I1074238692
sL1270034334L
I1074267620
sL3897252859L
I1074238608
sL2154298582L
I1074267956
sL1065525808L
I1074236768
sL1766137975L
I1074238808
sL2547957225L
I1074243000
sL2272466760L
I1074245456
sL1188065553L
I1074237756
sL1350409532L
I1074240932
sL1370949492L
I1074239912
sL94556391L
I1074245244
sL3210669721L
I1074244836
sL1332800441L
I1074237228
sL1797050832L
I1074241648
sL2698973203L
I1074269268
sL4160102055L
I1074239968
sL4202185385L
I1074247268
sL1768086576L
I1074236280
sL4171975289L
I1074247564
sL1565254297L
I1074247864
sL1205407754L
I1074239992
sL2191698036L
I1074269496
sL3764456758L
I1074244616
sL3567877105L
I1074235176
sL3616640713L
I1074240764
sL1635528231L
I1074243880
sL1060788199L
I1074245364
sL4002350800L
I1074241864
sL2800733194L
I1074239324
sL3378232636L
I1074246508
sL737694352L
I1074247372
sL503029138L
I1074247316
sL1616763831L
I1074247952
sL424867129L
I1074247700
sL3834155367L
I1074241120
sL1302843222L
I1074269892
sL1299206787L
I1074239440
sL149533852L
I1074237496
sL3883282432L
I1074241736
sL1667054119L
I1074240324
sL1142841954L
I1074236996
sL2443330910L
I1074239652
sL206902443L
I1074238032
sL1070509616L
I1074244896
sL3408620885L
I1074269716
ssb.