ccopy_reg
_reconstructor
p0
(crizzo
RizzoSignature
p1
c__builtin__
object
p2
Ntp3
Rp4
(dp5
S'formal'
p6
(dp7
L518040290L
I1074050568
sL1216484736L
I1074077096
sL414768571L
I1074071744
sL680803985L
I1074075772
sL1692525289L
I1074067616
sL479386267L
I1074075848
sL166757602L
I1074076352
sL713113753L
I1074069184
sL3640385505L
I1074069628
sL4213015302L
I1074073840
sL528835995L
I1074066484
sL181501390L
I1074075204
sL2899862779L
I1074071500
sL3192723304L
I1074069452
sL2089097123L
I1074068996
sL1703646892L
I1074075076
sL1033815993L
I1074072212
sL1000249270L
I1074068152
sL1527199534L
I1074073856
sL2626286496L
I1074066964
sL2702580795L
I1074068920
sL1088817352L
I1074072736
sL2221833562L
I1074071580
sL2896295319L
I1074068440
sL404621859L
I1074069988
sL3712206205L
I1074067992
sL1669261632L
I1074075820
sL2200604010L
I1074050552
sL2485902447L
I1074068324
sL3394440727L
I1074071664
sL340909086L
I1074069708
sL949834701L
I1074069620
sL2054103099L
I1074067656
sL837309628L
I1074075276
sL3064634364L
I1074050928
sL4234965562L
I1074076432
sL1530348641L
I1074077552
sL1222516873L
I1074071112
sL1121933447L
I1074069220
sL1407565756L
I1074067364
sL4036313551L
I1074074736
sL1754664909L
I1074075408
sL3463331891L
I1074072612
sL2531006654L
I1074067500
sL2189223198L
I1074071352
sL754173338L
I1074068544
sL597024766L
I1074050968
sL2124437708L
I1074051016
sL2035635257L
I1074076040
sL288608606L
I1074072524
sL1598285100L
I1074070040
sL158221855L
I1074075108
sL3007247178L
I1074069956
sL3362405148L
I1074077708
sL2393077723L
I1074049388
sL814161150L
I1074068408
sL3409491269L
I1074068512
sL3279215113L
I1074071968
sL2367154794L
I1074076296
sL3842791054L
I1074071448
sL3012062732L
I1074070520
sL3307282855L
I1074069600
sL2690686182L
I1074073356
sL1984983254L
I1074076624
sL1173643128L
I1074076908
sL1418454045L
I1074067800
sL3676500404L
I1074068388
sL783033392L
I1074067264
sL1829548688L
I1074076324
sL4038945309L
I1074067316
sL485312332L
I1074070828
sL391979512L
I1074067836
sL777954553L
I1074071632
sL3869050682L
I1074075176
sL1390296695L
I1074075732
sL1652900655L
I1074066472
sL3631376856L
I1074071800
sL2997001746L
I1074068852
sL1214651607L
I1074049896
sL2176971123L
I1074050764
sL3965384174L
I1074076936
sL1731280264L
I1074071720
sL2819127986L
I1074068564
sL632928259L
I1074068600
sL2506263519L
I1074050696
sL459284958L
I1074067784
sL941046953L
I1074071552
sL1877634603L
I1074051400
sL3217742863L
I1074069028
sL4083244966L
I1074050792
sL2575915073L
I1074070240
sL518806822L
I1074068348
sL3315866734L
I1074069872
sL1817239710L
I1074071424
sL2626302555L
I1074049496
sL462370395L
I1074077508
sL3897571461L
I1074069432
sL1179862661L
I1074074124
sL1911675686L
I1074070616
sL2160743709L
I1074077632
sL1962738467L
I1074076416
sL188664287L
I1074066932
sL1225951728L
I1074050096
sL692536993L
I1074068892
sL1835042955L
I1074071088
sL1953355905L
I1074050720
sL3315298167L
I1074068092
sL1009328580L
I1074072156
sL3228272027L
I1074076176
sL112362823L
I1074075308
sL3929953991L
I1074075640
sL4061069299L
I1074051324
ssS'immediates'
p8
(dp9
sS'formaldups'
p10
c__builtin__
set
p11
((lp12
tp13
Rp14
sS'stringdups'
p15
g11
((lp16
tp17
Rp18
sS'fuzzydups'
p19
g11
((lp20
tp21
Rp22
sS'strings'
p23
(dp24
sS'functions'
p25
(dp26
I1074068996
(Vspi_to_esp_err
p27
(lp28
(L670983779L
L0L
(lp29
(lp30
tp31
a(L3869634303L
L0L
(lp32
(lp33
tp34
a(L3952441574L
L0L
(lp35
(lp36
tp37
a(L3126521138L
L0L
(lp38
(lp39
tp40
atp41
sI1074049024
(V_init
p42
(lp43
(L3493042598L
L0L
(lp44
(lp45
tp46
atp47
sI1074071552
(Vbootloader_console_flush_usb
p48
(lp49
(L1877233224L
L0L
(lp50
(lp51
tp52
atp53
sI1074073856
(Vesp_partition_table_verify
p54
(lp55
(L695575487L
L0L
(lp56
(lp57
tp58
a(L1330620944L
L0L
(lp59
(lp60
tp61
a(L1184829782L
L0L
(lp62
(lp63
tp64
a(L3020204L
L0L
(lp65
(lp66
tp67
a(L2555762586L
L3785322319L
(lp68
(lp69
Vesp_log_early_timestamp
p70
atp71
a(L1235012963L
L0L
(lp72
(lp73
tp74
a(L3190337587L
L0L
(lp75
(lp76
tp77
a(L2069928857L
L0L
(lp78
(lp79
tp80
a(L2902417580L
L0L
(lp81
(lp82
tp83
a(L719232965L
L3785322319L
(lp84
(lp85
Vesp_log_early_timestamp
p86
atp87
a(L3396904163L
L0L
(lp88
(lp89
tp90
a(L3020204L
L0L
(lp91
(lp92
tp93
a(L3020204L
L0L
(lp94
(lp95
tp96
a(L1131579666L
L3785322319L
(lp97
(lp98
Vesp_log_early_timestamp
p99
atp100
a(L2291082030L
L0L
(lp101
(lp102
tp103
a(L1235012932L
L0L
(lp104
(lp105
tp106
a(L731294038L
L0L
(lp107
(lp108
tp109
a(L3020204L
L0L
(lp110
(lp111
tp112
a(L719231508L
L3785322319L
(lp113
(lp114
Vesp_log_early_timestamp
p115
atp116
a(L1305407469L
L0L
(lp117
(lp118
tp119
a(L1167861556L
L0L
(lp120
(lp121
tp122
a(L818997085L
L0L
(lp123
(lp124
tp125
a(L3360570486L
L0L
(lp126
(lp127
tp128
a(L3020204L
L0L
(lp129
(lp130
tp131
a(L2257927997L
L3785322319L
(lp132
(lp133
Vesp_log_early_timestamp
p134
atp135
atp136
sI1074076416
(Vrtc_clk_fast_src_get
p137
(lp138
(L1564284483L
L0L
(lp139
(lp140
tp141
atp142
sI1074073356
(Vimage_load
p143
(lp144
(L3048705773L
L0L
(lp145
(lp146
tp147
a(L3463713141L
L0L
(lp148
(lp149
tp150
a(L3309803581L
L0L
(lp151
(lp152
tp153
a(L256049682L
L0L
(lp154
(lp155
tp156
a(L1935188817L
L0L
(lp157
(lp158
tp159
a(L3028481L
L0L
(lp160
(lp161
tp162
a(L3021749L
L0L
(lp163
(lp164
tp165
a(L106L
L0L
(lp166
(lp167
tp168
a(L585264737L
L0L
(lp169
(lp170
tp171
a(L1145291904L
L3785322319L
(lp172
(lp173
Vprocess_image_header
p174
atp175
a(L823859500L
L0L
(lp176
(lp177
tp178
a(L3061291474L
L0L
(lp179
(lp180
tp181
a(L4106474008L
L3785322319L
(lp182
(lp183
Vprocess_segments
p184
atp185
a(L3868840998L
L0L
(lp186
(lp187
tp188
a(L1898988914L
L0L
(lp189
(lp190
tp191
a(L1827898452L
L3785322319L
(lp192
(lp193
Vprocess_checksum
p194
atp195
a(L2214715179L
L3785322319L
(lp196
(lp197
Vprocess_appended_hash_and_sig
p198
atp199
a(L3028481L
L0L
(lp200
(lp201
tp202
a(L2902417580L
L0L
(lp203
(lp204
tp205
a(L3285560995L
L3785322319L
(lp206
(lp207
Vbootloader_sha256_finish
p208
atp209
a(L3946560000L
L0L
(lp210
(lp211
tp212
a(L93674324L
L0L
(lp213
(lp214
tp215
a(L2754069582L
L0L
(lp216
(lp217
tp218
a(L772115669L
L0L
(lp219
(lp220
tp221
a(L1179424413L
L0L
(lp222
(lp223
tp224
a(L3928150917L
L0L
(lp225
(lp226
tp227
a(L106L
L0L
(lp228
(lp229
tp230
a(L3871473710L
L0L
(lp231
(lp232
tp233
a(L3884726427L
L0L
(lp234
(lp235
tp236
a(L106L
L0L
(lp237
(lp238
tp239
a(L3020187L
L0L
(lp240
(lp241
tp242
a(L573235004L
L3785322319L
(lp243
(lp244
Vesp_log_early_timestamp
p245
atp246
a(L2868044067L
L0L
(lp247
(lp248
tp249
a(L1179764900L
L0L
(lp250
(lp251
tp252
a(L2332746046L
L3785322319L
(lp253
(lp254
Vbootloader_sha256_finish
p255
atp256
a(L677888117L
L0L
(lp257
(lp258
tp259
a(L3020204L
L0L
(lp260
(lp261
tp262
a(L2566066226L
L0L
(lp263
(lp264
tp265
a(L106L
L0L
(lp266
(lp267
tp268
a(L1792384803L
L1880226080L
(lp269
(lp270
Vbootloader_sha256_finish
p271
aVbootloader_debug_buffer
p272
atp273
a(L3806761293L
L1880226080L
(lp274
(lp275
Vesp_log_early_timestamp
p276
aVbootloader_debug_buffer
p277
atp278
a(L3741653406L
L3785322319L
(lp279
(lp280
Vshould_load
p281
atp282
a(L2764257181L
L0L
(lp283
(lp284
tp285
a(L3338774213L
L0L
(lp286
(lp287
tp288
a(L3464541874L
L0L
(lp289
(lp290
tp291
a(L3349572949L
L0L
(lp292
(lp293
tp294
a(L2192292519L
L0L
(lp295
(lp296
tp297
a(L106L
L0L
(lp298
(lp299
tp300
a(L26615924L
L0L
(lp301
(lp302
tp303
a(L1299866312L
L0L
(lp304
(lp305
tp306
a(L3010020263L
L0L
(lp307
(lp308
tp309
atp310
sI1074074124
(Vwdt_hal_init
p311
(lp312
(L1879186413L
L0L
(lp313
(lp314
tp315
a(L106L
L0L
(lp316
(lp317
tp318
a(L2067450663L
L0L
(lp319
(lp320
tp321
a(L3076988543L
L0L
(lp322
(lp323
tp324
a(L974730331L
L0L
(lp325
(lp326
tp327
a(L3028464L
L0L
(lp328
(lp329
tp330
a(L3961427895L
L0L
(lp331
(lp332
tp333
a(L1498356537L
L0L
(lp334
(lp335
tp336
a(L234721192L
L0L
(lp337
(lp338
tp339
a(L3360570486L
L0L
(lp340
(lp341
tp342
atp343
sI1074077708
(Vrtc_clk_cpu_freq_mhz_to_config
p344
(lp345
(L3854884831L
L0L
(lp346
(lp347
tp348
a(L4277528218L
L0L
(lp349
(lp350
tp351
a(L1367519831L
L0L
(lp352
(lp353
tp354
a(L3788230391L
L0L
(lp355
(lp356
tp357
a(L895147205L
L0L
(lp358
(lp359
tp360
a(L3970036657L
L0L
(lp361
(lp362
tp363
a(L4143315884L
L0L
(lp364
(lp365
tp366
a(L3360570486L
L0L
(lp367
(lp368
tp369
a(L1298905570L
L0L
(lp370
(lp371
tp372
a(L3092964473L
L0L
(lp373
(lp374
tp375
a(L1611367019L
L0L
(lp376
(lp377
tp378
atp379
sI1074050568
(Vbootloader_init_spi_flash
p380
(lp381
(L3917097865L
L1832448559L
(lp382
(lp383
Vbootloader_flash_dummy_config
p384
aVbootloader_flash_cs_timing_config
p385
aVbootloader_flash_unlock
p386
atp387
a(L93674324L
L0L
(lp388
(lp389
tp390
a(L895716481L
L0L
(lp391
(lp392
tp393
a(L899410565L
L0L
(lp394
(lp395
tp396
a(L2258688483L
L0L
(lp397
(lp398
tp399
a(L1038322988L
L0L
(lp400
(lp401
tp402
a(L2251780888L
L1832448559L
(lp403
(lp404
Vcache_hal_disable
p405
aVcache_hal_enable
p406
aVbootloader_enable_wp
p407
atp408
a(L1951130533L
L0L
(lp409
(lp410
tp411
a(L1638256993L
L0L
(lp412
(lp413
tp414
a(L3401774120L
L0L
(lp415
(lp416
tp417
atp418
sI1074076936
(Vrtc_clk_cpu_freq_to_xtal
p419
(lp420
(L2761091885L
L3785322319L
(lp421
(lp422
Vrtc_clk_cpu_freq_get_config
p423
atp424
a(L94425498L
L3785322319L
(lp425
(lp426
Vabort
p427
atp428
a(L1231595631L
L3785322319L
(lp429
(lp430
Vrtc_clk_apb_freq_update
p431
atp432
a(L1977521424L
L0L
(lp433
(lp434
tp435
a(L3360570486L
L0L
(lp436
(lp437
tp438
atp439
sI1074066964
(Vbootloader_flash_unlock
p440
(lp441
(L3071288569L
L0L
(lp442
(lp443
tp444
a(L711923870L
L0L
(lp445
(lp446
tp447
a(L3574534388L
L3785322319L
(lp448
(lp449
Vbootloader_execute_flash_command
p450
atp451
a(L4103218025L
L0L
(lp452
(lp453
tp454
a(L2529045083L
L0L
(lp455
(lp456
tp457
a(L3943909171L
L1880226080L
(lp458
(lp459
Vbootloader_execute_flash_command
p460
aVbootloader_execute_flash_command
p461
atp462
a(L106L
L0L
(lp463
(lp464
tp465
a(L2605449000L
L3785322319L
(lp466
(lp467
Vbootloader_execute_flash_command
p468
atp469
a(L2993202392L
L0L
(lp470
(lp471
tp472
a(L610618707L
L0L
(lp473
(lp474
tp475
a(L2843273676L
L0L
(lp476
(lp477
tp478
a(L192015437L
L0L
(lp479
(lp480
tp481
a(L3154322046L
L1880226080L
(lp482
(lp483
Vbootloader_execute_flash_command
p484
aVbootloader_execute_flash_command
p485
atp486
a(L1303560644L
L0L
(lp487
(lp488
tp489
a(L1711531685L
L1880226080L
(lp490
(lp491
Vbootloader_execute_flash_command
p492
aVbootloader_execute_flash_command
p493
atp494
a(L3658700047L
L0L
(lp495
(lp496
tp497
a(L3430607254L
L0L
(lp498
(lp499
tp500
a(L106L
L0L
(lp501
(lp502
tp503
a(L3034518590L
L1880226080L
(lp504
(lp505
Vbootloader_execute_flash_command
p506
aVbootloader_execute_flash_command
p507
atp508
atp509
sI1074075408
(Vmmu_hal_map_region
p510
(lp511
(L2870226372L
L0L
(lp512
(lp513
tp514
a(L94425498L
L3785322319L
(lp515
(lp516
Vabort
p517
atp518
a(L2949962553L
L0L
(lp519
(lp520
tp521
a(L105669222L
L3785322319L
(lp522
(lp523
Vmmu_hal_check_valid_ext_vaddr_region
p524
atp525
a(L1513899266L
L0L
(lp526
(lp527
tp528
a(L97689L
L0L
(lp529
(lp530
tp531
a(L3360570486L
L0L
(lp532
(lp533
tp534
a(L1978526822L
L0L
(lp535
(lp536
tp537
a(L2450976846L
L0L
(lp538
(lp539
tp540
a(L3094828447L
L0L
(lp541
(lp542
tp543
a(L1892368849L
L0L
(lp544
(lp545
tp546
a(L966500491L
L0L
(lp547
(lp548
tp549
a(L3988043355L
L0L
(lp550
(lp551
tp552
a(L106L
L0L
(lp553
(lp554
tp555
a(L2312046976L
L0L
(lp556
(lp557
tp558
a(L813880729L
L0L
(lp559
(lp560
tp561
a(L3068186707L
L0L
(lp562
(lp563
tp564
a(L1900089167L
L0L
(lp565
(lp566
tp567
a(L3068186769L
L0L
(lp568
(lp569
tp570
a(L1377567792L
L0L
(lp571
(lp572
tp573
a(L1377563948L
L0L
(lp574
(lp575
tp576
atp577
sI1074076176
(Vrtc_clk_slow_src_set
p578
(lp579
(L3122271637L
L0L
(lp580
(lp581
tp582
a(L3020187L
L0L
(lp583
(lp584
tp585
a(L3028481L
L0L
(lp586
(lp587
tp588
a(L487821223L
L0L
(lp589
(lp590
tp591
a(L1368564154L
L0L
(lp592
(lp593
tp594
a(L1851908495L
L0L
(lp595
(lp596
tp597
a(L2437101294L
L0L
(lp598
(lp599
tp600
a(L3138544334L
L0L
(lp601
(lp602
tp603
a(L94425498L
L3785322319L
(lp604
(lp605
Vabort
p606
atp607
atp608
sI1074076432
(Vrtc_clk_cpu_freq_get_config
p609
(lp610
(L2921585997L
L0L
(lp611
(lp612
tp613
a(L106L
L0L
(lp614
(lp615
tp616
a(L3020187L
L0L
(lp617
(lp618
tp619
a(L3020187L
L0L
(lp620
(lp621
tp622
a(L1734389245L
L0L
(lp623
(lp624
tp625
a(L407599981L
L0L
(lp626
(lp627
tp628
a(L1942656762L
L0L
(lp629
(lp630
tp631
a(L3020187L
L0L
(lp632
(lp633
tp634
a(L3028481L
L0L
(lp635
(lp636
tp637
a(L1760149117L
L0L
(lp638
(lp639
tp640
a(L3002863877L
L0L
(lp641
(lp642
tp643
a(L753013042L
L0L
(lp644
(lp645
tp646
a(L3821177520L
L0L
(lp647
(lp648
tp649
a(L311811852L
L0L
(lp650
(lp651
tp652
a(L1367801369L
L0L
(lp653
(lp654
tp655
a(L2950071249L
L1880226080L
(lp656
(lp657
Vesp_log_early_timestamp
p658
aVabort
p659
atp660
a(L3807651886L
L0L
(lp661
(lp662
tp663
a(L103149500L
L0L
(lp664
(lp665
tp666
a(L187199457L
L0L
(lp667
(lp668
tp669
atp670
sI1074071580
(Vbootloader_console_write_one_char_usb
p671
(lp672
(L2716890682L
L0L
(lp673
(lp674
tp675
a(L1908255537L
L0L
(lp676
(lp677
tp678
a(L3827921190L
L3785322319L
(lp679
(lp680
Vbootloader_console_flush_usb
p681
atp682
a(L3360570486L
L0L
(lp683
(lp684
tp685
atp686
sI1074067992
(Vesp_rom_regi2c_read_mask
p687
(lp688
(L3674307446L
L0L
(lp689
(lp690
tp691
a(L563658097L
L3785322319L
(lp692
(lp693
V__assert_func
p694
atp695
a(L2794788681L
L3785322319L
(lp696
(lp697
Vi2c_rtc_enable_block
p698
atp699
a(L1073742234L
L0L
(lp700
(lp701
tp702
a(L389021895L
L0L
(lp703
(lp704
tp705
atp706
sI1074070040
(Vcache_ll_l1_get_bus
p707
(lp708
(L1777729036L
L0L
(lp709
(lp710
tp711
a(L106L
L0L
(lp712
(lp713
tp714
a(L3534449595L
L0L
(lp715
(lp716
tp717
a(L1513898687L
L0L
(lp718
(lp719
tp720
a(L1182811810L
L0L
(lp721
(lp722
tp723
a(L3488241844L
L0L
(lp724
(lp725
tp726
a(L1100767927L
L0L
(lp727
(lp728
tp729
a(L3360570486L
L0L
(lp730
(lp731
tp732
a(L3349559303L
L0L
(lp733
(lp734
tp735
a(L1016884014L
L0L
(lp736
(lp737
tp738
a(L892952750L
L0L
(lp739
(lp740
tp741
a(L2258688482L
L0L
(lp742
(lp743
tp744
a(L1288660500L
L0L
(lp745
(lp746
tp747
a(L2109407028L
L0L
(lp748
(lp749
tp750
a(L3819242659L
L0L
(lp751
(lp752
tp753
a(L514234161L
L0L
(lp754
(lp755
tp756
a(L892952750L
L0L
(lp757
(lp758
tp759
a(L2258688482L
L0L
(lp760
(lp761
tp762
a(L1236272457L
L0L
(lp763
(lp764
tp765
a(L1276022765L
L0L
(lp766
(lp767
tp768
a(L250971069L
L0L
(lp769
(lp770
tp771
a(L877585060L
L0L
(lp772
(lp773
tp774
a(L564104295L
L0L
(lp775
(lp776
tp777
a(L571492463L
L0L
(lp778
(lp779
tp780
a(L892952750L
L0L
(lp781
(lp782
tp783
a(L2258688482L
L0L
(lp784
(lp785
tp786
a(L3964709827L
L0L
(lp787
(lp788
tp789
a(L1110849529L
L0L
(lp790
(lp791
tp792
a(L2287156792L
L0L
(lp793
(lp794
tp795
a(L2130288524L
L0L
(lp796
(lp797
tp798
a(L2158917675L
L0L
(lp799
(lp800
tp801
a(L2202323162L
L0L
(lp802
(lp803
tp804
a(L203703717L
L0L
(lp805
(lp806
tp807
a(L2258688482L
L0L
(lp808
(lp809
tp810
a(L1294201434L
L0L
(lp811
(lp812
tp813
a(L4059034957L
L0L
(lp814
(lp815
tp816
a(L3827921190L
L3785322319L
(lp817
(lp818
Vabort
p819
atp820
a(L1299866374L
L0L
(lp821
(lp822
tp823
atp824
sI1074069028
(Vbootloader_mmap
p825
(lp826
(L2903758302L
L0L
(lp827
(lp828
tp829
a(L3275130933L
L3785322319L
(lp830
(lp831
Vesp_log_early_timestamp
p832
atp833
a(L2304066300L
L0L
(lp834
(lp835
tp836
a(L2520681538L
L0L
(lp837
(lp838
tp839
a(L3384200240L
L3785322319L
(lp840
(lp841
Vesp_log_early_timestamp
p842
atp843
a(L2258688482L
L0L
(lp844
(lp845
tp846
a(L3360570486L
L0L
(lp847
(lp848
tp849
a(L751356394L
L0L
(lp850
(lp851
tp852
a(L2744812182L
L3785322319L
(lp853
(lp854
Vesp_log_early_timestamp
p855
atp856
a(L208384006L
L1832448559L
(lp857
(lp858
Vcache_hal_disable
p859
aVmmu_hal_map_region
p860
aVcache_hal_enable
p861
atp862
atp863
sI1074072612
(Vshould_load
p864
(lp865
(L2404246613L
L0L
(lp866
(lp867
tp868
a(L1182990556L
L0L
(lp869
(lp870
tp871
a(L2664706294L
L0L
(lp872
(lp873
tp874
a(L2306467100L
L0L
(lp875
(lp876
tp877
a(L802386057L
L0L
(lp878
(lp879
tp880
a(L2258897019L
L0L
(lp881
(lp882
tp883
a(L3781799363L
L0L
(lp884
(lp885
tp886
a(L3028464L
L0L
(lp887
(lp888
tp889
a(L2960081665L
L0L
(lp890
(lp891
tp892
a(L1443461405L
L0L
(lp893
(lp894
tp895
a(L1289456037L
L0L
(lp896
(lp897
tp898
a(L1899864739L
L0L
(lp899
(lp900
tp901
a(L3458855836L
L0L
(lp902
(lp903
tp904
a(L3126521138L
L0L
(lp905
(lp906
tp907
a(L1305407438L
L0L
(lp908
(lp909
tp910
a(L1305407469L
L0L
(lp911
(lp912
tp913
atp914
sI1074068512
(Vesp_log_early_timestamp
p915
(lp916
(L3252000405L
L0L
(lp917
(lp918
tp919
atp920
sI1074067500
(Vbootloader_flash_cs_timing_config
p921
(lp922
(L2510790060L
L0L
(lp923
(lp924
tp925
atp926
sI1074070828
(Vbootloader_utility_get_selected_boot_partition
p927
(lp928
(L2938832293L
L0L
(lp929
(lp930
tp931
a(L2789083297L
L0L
(lp932
(lp933
tp934
a(L248080420L
L3785322319L
(lp935
(lp936
Vesp_log_early_timestamp
p937
atp938
a(L718794238L
L0L
(lp939
(lp940
tp941
a(L3360570486L
L0L
(lp942
(lp943
tp944
a(L3118387733L
L3785322319L
(lp945
(lp946
Vbootloader_mmap
p947
atp948
a(L225307417L
L3785322319L
(lp949
(lp950
Vesp_log_early_timestamp
p951
atp952
a(L57997360L
L1880226080L
(lp953
(lp954
Vbootloader_munmap
p955
aVbootloader_common_ota_select_invalid
p956
atp957
a(L2911028409L
L0L
(lp958
(lp959
tp960
a(L726746649L
L3785322319L
(lp961
(lp962
Vbootloader_common_get_active_otadata
p963
atp964
a(L4179097382L
L0L
(lp965
(lp966
tp967
a(L3111084448L
L3785322319L
(lp968
(lp969
Vbootloader_common_ota_select_invalid
p970
atp971
a(L2793942993L
L0L
(lp972
(lp973
tp974
a(L1043744473L
L0L
(lp975
(lp976
tp977
a(L2302032704L
L0L
(lp978
(lp979
tp980
a(L1173788779L
L3785322319L
(lp981
(lp982
Vbootloader_common_ota_select_crc
p983
atp984
a(L4188515782L
L0L
(lp985
(lp986
tp987
a(L1324800084L
L3785322319L
(lp988
(lp989
Vbootloader_common_ota_select_crc
p990
atp991
a(L1299866312L
L0L
(lp992
(lp993
tp994
a(L752847181L
L0L
(lp995
(lp996
tp997
a(L4240994711L
L3785322319L
(lp998
(lp999
Vesp_log_early_timestamp
p1000
atp1001
a(L2291082030L
L0L
(lp1002
(lp1003
tp1004
a(L1641201884L
L0L
(lp1005
(lp1006
tp1007
a(L3827160229L
L3785322319L
(lp1008
(lp1009
Vesp_log_early_timestamp
p1010
atp1011
atp1012
sI1074050088
(Vbootloader_init_mem
p1013
(lp1014
(L1287383080L
L3785322319L
(lp1015
(lp1016
Vesp_cpu_configure_region_protection
p1017
atp1018
atp1019
sI1074066472
(Vesp_flash_encryption_enabled
p1020
(lp1021
(L376617603L
L3785322319L
(lp1022
(lp1023
Vefuse_hal_flash_encryption_enabled
p1024
atp1025
atp1026
sI1074075176
(Vwdt_hal_write_protect_enable
p1027
(lp1028
(L387778158L
L0L
(lp1029
(lp1030
tp1031
a(L4195472050L
L0L
(lp1032
(lp1033
tp1034
a(L3360570486L
L0L
(lp1035
(lp1036
tp1037
a(L802523425L
L0L
(lp1038
(lp1039
tp1040
atp1041
sI1074066484
(Vbootloader_flash_execute_command_common
p1042
(lp1043
(L4095493370L
L0L
(lp1044
(lp1045
tp1046
a(L3910440893L
L0L
(lp1047
(lp1048
tp1049
a(L1015503554L
L3785322319L
(lp1050
(lp1051
V__assert_func
p1052
atp1053
a(L3021749L
L0L
(lp1054
(lp1055
tp1056
a(L1675511135L
L0L
(lp1057
(lp1058
tp1059
a(L4025000893L
L0L
(lp1060
(lp1061
tp1062
a(L3727127268L
L0L
(lp1063
(lp1064
tp1065
a(L3206699614L
L0L
(lp1066
(lp1067
tp1068
a(L2187111236L
L0L
(lp1069
(lp1070
tp1071
a(L3233085302L
L0L
(lp1072
(lp1073
tp1074
a(L2783488991L
L0L
(lp1075
(lp1076
tp1077
a(L1568710516L
L0L
(lp1078
(lp1079
tp1080
a(L3333696662L
L0L
(lp1081
(lp1082
tp1083
a(L2393546375L
L0L
(lp1084
(lp1085
tp1086
a(L1895563696L
L0L
(lp1087
(lp1088
tp1089
a(L3360570486L
L0L
(lp1090
(lp1091
tp1092
atp1093
sI1074050096
(Vbootloader_random_enable
p1094
(lp1095
(L2369254915L
L1157885199L
(lp1096
(lp1097
Vesp_rom_regi2c_write_mask
p1098
aVesp_rom_regi2c_write_mask
p1099
aVesp_rom_regi2c_write_mask
p1100
aVesp_rom_regi2c_write_mask
p1101
aVesp_rom_regi2c_write_mask
p1102
atp1103
atp1104
sI1074071088
(Vbootloader_reset
p1105
(lp1106
(L3438680015L
L3785322319L
(lp1107
(lp1108
Vbootloader_console_deinit
p1109
atp1110
a(L106L
L0L
(lp1111
(lp1112
tp1113
atp1114
sI1074071352
(Vindex_to_partition
p1115
(lp1116
(L4066096119L
L0L
(lp1117
(lp1118
tp1119
a(L1101255660L
L0L
(lp1120
(lp1121
tp1122
a(L1955702725L
L0L
(lp1123
(lp1124
tp1125
a(L3698927993L
L0L
(lp1126
(lp1127
tp1128
a(L2808906342L
L0L
(lp1129
(lp1130
tp1131
a(L4211744375L
L0L
(lp1132
(lp1133
tp1134
a(L3097778015L
L0L
(lp1135
(lp1136
tp1137
a(L1816235430L
L0L
(lp1138
(lp1139
tp1140
a(L2179185678L
L0L
(lp1141
(lp1142
tp1143
a(L3369319173L
L0L
(lp1144
(lp1145
tp1146
atp1147
sI1074075204
(Vwdt_hal_enable
p1148
(lp1149
(L2299130915L
L0L
(lp1150
(lp1151
tp1152
a(L3713735258L
L0L
(lp1153
(lp1154
tp1155
a(L3360570486L
L0L
(lp1156
(lp1157
tp1158
a(L2847657174L
L0L
(lp1159
(lp1160
tp1161
atp1162
sI1074077508
(Vrtc_clk_apb_freq_get
p1163
(lp1164
(L888770146L
L0L
(lp1165
(lp1166
tp1167
atp1168
sI1074051392
(Vbootloader_print_banner
p1169
(lp1170
(L2100504542L
L0L
(lp1171
(lp1172
tp1173
atp1174
sI1074067264
(Vbootloader_flash_read_sfdp
p1175
(lp1176
(L711701400L
L0L
(lp1177
(lp1178
tp1179
a(L2827281102L
L3785322319L
(lp1180
(lp1181
V__assert_func
p1182
atp1183
a(L3704332455L
L3785322319L
(lp1184
(lp1185
Vbootloader_flash_execute_command_common
p1186
atp1187
atp1188
sI1074068544
(Vbootloader_common_ota_select_crc
p1189
(lp1190
(L3592359259L
L0L
(lp1191
(lp1192
tp1193
atp1194
sI1074051400
(Vmpu_hal_set_region_access
p1195
(lp1196
(L3538356822L
L0L
(lp1197
(lp1198
tp1199
a(L93674324L
L0L
(lp1200
(lp1201
tp1202
a(L2910371777L
L0L
(lp1203
(lp1204
tp1205
a(L3472092938L
L0L
(lp1206
(lp1207
tp1208
a(L3020187L
L0L
(lp1209
(lp1210
tp1211
a(L3360570486L
L0L
(lp1212
(lp1213
tp1214
a(L2258718273L
L0L
(lp1215
(lp1216
tp1217
a(L3446648619L
L0L
(lp1218
(lp1219
tp1220
a(L3739532189L
L0L
(lp1221
(lp1222
tp1223
a(L1300789895L
L0L
(lp1224
(lp1225
tp1226
atp1227
sI1074067784
(Vbootloader_flash_dummy_config
p1228
(lp1229
(L799241116L
L1880226080L
(lp1230
(lp1231
Vbootloader_configure_spi_pins
p1232
aVbootloader_flash_set_dummy_out
p1233
atp1234
atp1235
sI1074071112
(Vbootloader_utility_load_boot_image
p1236
(lp1237
(L4275149201L
L0L
(lp1238
(lp1239
tp1240
a(L2177418995L
L3785322319L
(lp1241
(lp1242
Vtry_load_partition
p1243
atp1244
a(L1305243774L
L3785322319L
(lp1245
(lp1246
Vload_image
p1247
atp1248
a(L1788704598L
L3785322319L
(lp1249
(lp1250
Vesp_log_early_timestamp
p1251
atp1252
a(L3827921190L
L3785322319L
(lp1253
(lp1254
Vbootloader_reset
p1255
atp1256
a(L1953693036L
L3785322319L
(lp1257
(lp1258
Vindex_to_partition
p1259
atp1260
a(L1204373741L
L3785322319L
(lp1261
(lp1262
Vtry_load_partition
p1263
atp1264
a(L1899865696L
L0L
(lp1265
(lp1266
tp1267
a(L2695355117L
L3785322319L
(lp1268
(lp1269
Vset_actual_ota_seq
p1270
atp1271
a(L1868897605L
L3785322319L
(lp1272
(lp1273
Vlog_invalid_app_partition
p1274
atp1275
a(L831650730L
L0L
(lp1276
(lp1277
tp1278
a(L3021737L
L0L
(lp1279
(lp1280
tp1281
a(L695456438L
L0L
(lp1282
(lp1283
tp1284
a(L2514573031L
L3785322319L
(lp1285
(lp1286
Vtry_load_partition
p1287
atp1288
a(L1886713337L
L3785322319L
(lp1289
(lp1290
Vesp_log_early_timestamp
p1291
atp1292
a(L2347390157L
L3785322319L
(lp1293
(lp1294
Vindex_to_partition
p1295
atp1296
a(L1204373741L
L3785322319L
(lp1297
(lp1298
Vtry_load_partition
p1299
atp1300
a(L3061261803L
L0L
(lp1301
(lp1302
tp1303
a(L3582858798L
L3785322319L
(lp1304
(lp1305
Vlog_invalid_app_partition
p1306
atp1307
a(L273460633L
L3785322319L
(lp1308
(lp1309
Vesp_log_early_timestamp
p1310
atp1311
atp1312
sI1074068564
(Vbootloader_common_ota_select_valid
p1313
(lp1314
(L1563399710L
L3785322319L
(lp1315
(lp1316
Vbootloader_common_ota_select_invalid
p1317
atp1318
a(L3814720849L
L3785322319L
(lp1319
(lp1320
Vbootloader_common_ota_select_crc
p1321
atp1322
a(L3360570486L
L0L
(lp1323
(lp1324
tp1325
atp1326
sI1074075732
(Vcache_hal_disable
p1327
(lp1328
(L4037466985L
L0L
(lp1329
(lp1330
tp1331
a(L3571110857L
L0L
(lp1332
(lp1333
tp1334
a(L3028464L
L0L
(lp1335
(lp1336
tp1337
a(L3095007409L
L0L
(lp1338
(lp1339
tp1340
a(L3360570486L
L0L
(lp1341
(lp1342
tp1343
a(L1455949273L
L0L
(lp1344
(lp1345
tp1346
atp1347
sI1074071632
(Vbootloader_console_write_char_usb
p1348
(lp1349
(L753395559L
L0L
(lp1350
(lp1351
tp1352
a(L1333949065L
L3785322319L
(lp1353
(lp1354
Vbootloader_console_write_one_char_usb
p1355
atp1356
a(L2695355117L
L3785322319L
(lp1357
(lp1358
Vbootloader_console_write_one_char_usb
p1359
atp1360
a(L367642441L
L0L
(lp1361
(lp1362
tp1363
a(L3360570486L
L0L
(lp1364
(lp1365
tp1366
atp1367
sI1074072156
(Vbootloader_util_regions_overlap
p1368
(lp1369
(L2762640130L
L0L
(lp1370
(lp1371
tp1372
a(L2189996997L
L0L
(lp1373
(lp1374
tp1375
a(L348708037L
L3785322319L
(lp1376
(lp1377
V__assert_func
p1378
atp1379
a(L97642L
L0L
(lp1380
(lp1381
tp1382
a(L4029316817L
L0L
(lp1383
(lp1384
tp1385
a(L366123053L
L0L
(lp1386
(lp1387
tp1388
a(L2258867228L
L0L
(lp1389
(lp1390
tp1391
a(L1253626734L
L0L
(lp1392
(lp1393
tp1394
a(L2258897019L
L0L
(lp1395
(lp1396
tp1397
a(L3109269495L
L0L
(lp1398
(lp1399
tp1400
atp1401
sI1074067800
(Vesp_rom_install_channel_putc
p1402
(lp1403
(L487865505L
L0L
(lp1404
(lp1405
tp1406
a(L3020187L
L0L
(lp1407
(lp1408
tp1409
a(L3360570486L
L0L
(lp1410
(lp1411
tp1412
a(L1176670207L
L0L
(lp1413
(lp1414
tp1415
a(L3852944251L
L0L
(lp1416
(lp1417
tp1418
atp1419
sI1074070616
(Vbootloader_utility_load_partition_table
p1420
(lp1421
(L3128219304L
L3785322319L
(lp1422
(lp1423
Vbootloader_mmap
p1424
atp1425
a(L1359199551L
L3785322319L
(lp1426
(lp1427
Vesp_log_early_timestamp
p1428
atp1429
a(L2258688482L
L0L
(lp1430
(lp1431
tp1432
a(L3360570486L
L0L
(lp1433
(lp1434
tp1435
a(L255479872L
L3785322319L
(lp1436
(lp1437
Vesp_partition_table_verify
p1438
atp1439
a(L3613202002L
L0L
(lp1440
(lp1441
tp1442
a(L97642L
L0L
(lp1443
(lp1444
tp1445
a(L4248828323L
L3785322319L
(lp1446
(lp1447
Vbootloader_munmap
p1448
atp1449
a(L627916870L
L3785322319L
(lp1450
(lp1451
Vesp_log_early_timestamp
p1452
atp1453
a(L3927622121L
L0L
(lp1454
(lp1455
tp1456
a(L3020187L
L0L
(lp1457
(lp1458
tp1459
a(L1532853611L
L0L
(lp1460
(lp1461
tp1462
a(L1036489382L
L0L
(lp1463
(lp1464
tp1465
a(L3020187L
L0L
(lp1466
(lp1467
tp1468
a(L2997988170L
L0L
(lp1469
(lp1470
tp1471
a(L529263765L
L0L
(lp1472
(lp1473
tp1474
a(L775434204L
L0L
(lp1475
(lp1476
tp1477
a(L3579705151L
L0L
(lp1478
(lp1479
tp1480
a(L2387139071L
L0L
(lp1481
(lp1482
tp1483
a(L1599920163L
L0L
(lp1484
(lp1485
tp1486
atp1487
sI1074068324
(Vefuse_hal_chip_revision
p1488
(lp1489
(L2719302832L
L1880226080L
(lp1490
(lp1491
Vefuse_hal_get_major_chip_version
p1492
aVefuse_hal_get_minor_chip_version
p1493
atp1494
atp1495
sI1074077796
(V_fini
p1496
(lp1497
(L3493042598L
L0L
(lp1498
(lp1499
tp1500
atp1501
sI1074069600
(Vbootloader_enable_wp
p1502
(lp1503
(L1117825804L
L3785322319L
(lp1504
(lp1505
Vbootloader_execute_flash_command
p1506
atp1507
atp1508
sI1074049388
(Vcall_start_cpu0
p1509
(lp1510
(L3535106810L
L0L
(lp1511
(lp1512
tp1513
a(L2208066395L
L0L
(lp1514
(lp1515
tp1516
a(L3212347974L
L3785322319L
(lp1517
(lp1518
Vbootloader_init
p1519
atp1520
a(L94425498L
L3785322319L
(lp1521
(lp1522
Vbootloader_reset
p1523
atp1524
a(L3519300391L
L0L
(lp1525
(lp1526
tp1527
a(L1463113823L
L0L
(lp1528
(lp1529
tp1530
a(L3842745865L
L3785322319L
(lp1531
(lp1532
Vbootloader_utility_load_partition_table
p1533
atp1534
a(L3636149417L
L3785322319L
(lp1535
(lp1536
Vesp_log_early_timestamp
p1537
atp1538
a(L405422123L
L3785322319L
(lp1539
(lp1540
Vbootloader_utility_get_selected_boot_partition
p1541
atp1542
a(L364551738L
L3785322319L
(lp1543
(lp1544
Vbootloader_utility_load_boot_image
p1545
atp1546
atp1547
sI1074049896
(Vbootloader_clock_configure
p1548
(lp1549
(L3219777768L
L0L
(lp1550
(lp1551
tp1552
a(L106L
L0L
(lp1553
(lp1554
tp1555
a(L1883700232L
L1832448559L
(lp1556
(lp1557
Vrtc_clk_slow_src_get
p1558
aVrtc_clk_fast_src_get
p1559
aVrtc_clk_init
p1560
atp1561
a(L2017743936L
L0L
(lp1562
(lp1563
tp1564
a(L1257872883L
L3785322319L
(lp1565
(lp1566
Vrtc_clk_apb_freq_get
p1567
atp1568
a(L106L
L0L
(lp1569
(lp1570
tp1571
a(L106L
L0L
(lp1572
(lp1573
tp1574
atp1575
sI1074050920
(Vbootloader_enable_random
p1576
(lp1577
(L1287383080L
L3785322319L
(lp1578
(lp1579
Vbootloader_random_enable
p1580
atp1581
atp1582
sI1074067316
(Vbootloader_read_flash_id
p1583
(lp1584
(L549578328L
L3785322319L
(lp1585
(lp1586
Vbootloader_execute_flash_command
p1587
atp1588
atp1589
sI1074068852
(Vbootloader_common_get_active_otadata
p1590
(lp1591
(L3317503532L
L0L
(lp1592
(lp1593
tp1594
a(L2503049265L
L1832448559L
(lp1595
(lp1596
Vbootloader_common_ota_select_valid
p1597
aVbootloader_common_ota_select_valid
p1598
aVbootloader_common_select_otadata
p1599
atp1600
a(L735741265L
L0L
(lp1601
(lp1602
tp1603
atp1604
sI1074069620
(Vbootloader_mmap_get_free_pages
p1605
(lp1606
(L2526571665L
L0L
(lp1607
(lp1608
tp1609
atp1610
sI1074050928
(Vbootloader_console_init
p1611
(lp1612
(L446124218L
L1880226080L
(lp1613
(lp1614
Vrom_usb_cdc_set_descriptor_patch
p1615
aVesp_rom_install_channel_putc
p1616
atp1617
atp1618
sI1074069872
(Vlog_invalid_app_partition
p1619
(lp1620
(L2366608880L
L0L
(lp1621
(lp1622
tp1623
a(L3028464L
L0L
(lp1624
(lp1625
tp1626
a(L1570596807L
L3785322319L
(lp1627
(lp1628
Vesp_log_early_timestamp
p1629
atp1630
a(L2291082030L
L0L
(lp1631
(lp1632
tp1633
a(L3360570486L
L0L
(lp1634
(lp1635
tp1636
a(L3448492123L
L3785322319L
(lp1637
(lp1638
Vesp_log_early_timestamp
p1639
atp1640
a(L665575588L
L3785322319L
(lp1641
(lp1642
Vesp_log_early_timestamp
p1643
atp1644
atp1645
sI1074071664
(Vbootloader_console_deinit
p1646
(lp1647
(L1966344920L
L3785322319L
(lp1648
(lp1649
Vbootloader_console_flush_usb
p1650
atp1651
a(L3659864002L
L0L
(lp1652
(lp1653
tp1654
a(L1522044532L
L3785322319L
(lp1655
(lp1656
Vesp_rom_install_channel_putc
p1657
atp1658
atp1659
sI1074074736
(Vwdt_hal_config_stage
p1660
(lp1661
(L331558507L
L0L
(lp1662
(lp1663
tp1664
a(L4279082939L
L0L
(lp1665
(lp1666
tp1667
a(L93674324L
L0L
(lp1668
(lp1669
tp1670
a(L2902417580L
L0L
(lp1671
(lp1672
tp1673
a(L3600606865L
L0L
(lp1674
(lp1675
tp1676
a(L3020187L
L0L
(lp1677
(lp1678
tp1679
a(L94425498L
L3785322319L
(lp1680
(lp1681
Vabort
p1682
atp1683
a(L3733419676L
L0L
(lp1684
(lp1685
tp1686
a(L3496950L
L0L
(lp1687
(lp1688
tp1689
a(L3661246029L
L0L
(lp1690
(lp1691
tp1692
a(L3721848458L
L0L
(lp1693
(lp1694
tp1695
a(L4278159418L
L0L
(lp1696
(lp1697
tp1698
a(L93674324L
L0L
(lp1699
(lp1700
tp1701
a(L3020204L
L0L
(lp1702
(lp1703
tp1704
a(L38935064L
L0L
(lp1705
(lp1706
tp1707
a(L3020187L
L0L
(lp1708
(lp1709
tp1710
a(L106L
L0L
(lp1711
(lp1712
tp1713
a(L1895554126L
L0L
(lp1714
(lp1715
tp1716
a(L2200908304L
L0L
(lp1717
(lp1718
tp1719
a(L701759895L
L0L
(lp1720
(lp1721
tp1722
atp1723
sI1074077552
(Vrtc_clk_divider_set
p1724
(lp1725
(L4037466968L
L0L
(lp1726
(lp1727
tp1728
a(L94425498L
L3785322319L
(lp1729
(lp1730
Vabort
p1731
atp1732
a(L3164198975L
L0L
(lp1733
(lp1734
tp1735
atp1736
sI1074067836
(Vi2c_rtc_enable_block
p1737
(lp1738
(L2503104746L
L0L
(lp1739
(lp1740
tp1741
a(L3027019L
L0L
(lp1742
(lp1743
tp1744
a(L3245125502L
L0L
(lp1745
(lp1746
tp1747
a(L3245274457L
L0L
(lp1748
(lp1749
tp1750
a(L3360570486L
L0L
(lp1751
(lp1752
tp1753
a(L3246645110L
L0L
(lp1754
(lp1755
tp1756
a(L3461085952L
L0L
(lp1757
(lp1758
tp1759
a(L4112088884L
L0L
(lp1760
(lp1761
tp1762
a(L4214486373L
L0L
(lp1763
(lp1764
tp1765
a(L4214486497L
L0L
(lp1766
(lp1767
tp1768
a(L4214486621L
L0L
(lp1769
(lp1770
tp1771
atp1772
sI1074068092
(Vesp_rom_regi2c_write
p1773
(lp1774
(L954179282L
L3785322319L
(lp1775
(lp1776
Vi2c_rtc_enable_block
p1777
atp1778
a(L2400232953L
L0L
(lp1779
(lp1780
tp1781
a(L3360570486L
L0L
(lp1782
(lp1783
tp1784
atp1785
sI1074068348
(Vefuse_hal_flash_encryption_enabled
p1786
(lp1787
(L2344629656L
L0L
(lp1788
(lp1789
tp1790
a(L2910371777L
L0L
(lp1791
(lp1792
tp1793
a(L3360570486L
L0L
(lp1794
(lp1795
tp1796
a(L3016870L
L0L
(lp1797
(lp1798
tp1799
a(L3745038218L
L0L
(lp1800
(lp1801
tp1802
a(L957607403L
L0L
(lp1803
(lp1804
tp1805
atp1806
sI1074069628
(Vbootloader_fill_random
p1807
(lp1808
(L4084634528L
L0L
(lp1809
(lp1810
tp1811
a(L44892084L
L3785322319L
(lp1812
(lp1813
V__assert_func
p1814
atp1815
a(L1882547218L
L0L
(lp1816
(lp1817
tp1818
a(L2910371777L
L0L
(lp1819
(lp1820
tp1821
a(L95634693L
L0L
(lp1822
(lp1823
tp1824
a(L3630908706L
L0L
(lp1825
(lp1826
tp1827
a(L160162640L
L0L
(lp1828
(lp1829
tp1830
a(L97689L
L0L
(lp1831
(lp1832
tp1833
a(L3360570486L
L0L
(lp1834
(lp1835
tp1836
atp1837
sI1074075772
(Vcache_hal_enable
p1838
(lp1839
(L2962287708L
L0L
(lp1840
(lp1841
tp1842
a(L2059997673L
L0L
(lp1843
(lp1844
tp1845
a(L3450226664L
L0L
(lp1846
(lp1847
tp1848
a(L2350054837L
L0L
(lp1849
(lp1850
tp1851
a(L3360570486L
L0L
(lp1852
(lp1853
tp1854
a(L4132223317L
L0L
(lp1855
(lp1856
tp1857
atp1858
sI1074068600
(Vbootloader_common_check_chip_validity
p1859
(lp1860
(L2622756999L
L0L
(lp1861
(lp1862
tp1863
a(L1703882245L
L3785322319L
(lp1864
(lp1865
Vesp_log_early_timestamp
p1866
atp1867
a(L2313736105L
L0L
(lp1868
(lp1869
tp1870
a(L4014024819L
L0L
(lp1871
(lp1872
tp1873
a(L30175177L
L3785322319L
(lp1874
(lp1875
Vefuse_hal_chip_revision
p1876
atp1877
a(L1681792026L
L0L
(lp1878
(lp1879
tp1880
a(L3488037271L
L3785322319L
(lp1881
(lp1882
Vesp_log_early_timestamp
p1883
atp1884
a(L3028464L
L0L
(lp1885
(lp1886
tp1887
a(L1544449421L
L0L
(lp1888
(lp1889
tp1890
a(L106L
L0L
(lp1891
(lp1892
tp1893
a(L3027019L
L0L
(lp1894
(lp1895
tp1896
a(L106L
L0L
(lp1897
(lp1898
tp1899
a(L4152260072L
L0L
(lp1900
(lp1901
tp1902
a(L106L
L0L
(lp1903
(lp1904
tp1905
a(L1362790335L
L3785322319L
(lp1906
(lp1907
Vesp_log_early_timestamp
p1908
atp1909
atp1910
sI1074071416
(Vbootloader_debug_buffer
p1911
(lp1912
(L2100504542L
L0L
(lp1913
(lp1914
tp1915
atp1916
sI1074071424
(Vbootloader_sha256_start
p1917
(lp1918
(L3409806860L
L0L
(lp1919
(lp1920
tp1921
atp1922
sI1074075276
(Vmmu_hal_unmap_all
p1923
(lp1924
(L2146550898L
L0L
(lp1925
(lp1926
tp1927
a(L2796727275L
L0L
(lp1928
(lp1929
tp1930
a(L3360570486L
L0L
(lp1931
(lp1932
tp1933
atp1934
sI1074050696
(Vbootloader_clear_bss_section
p1935
(lp1936
(L4060060410L
L0L
(lp1937
(lp1938
tp1939
atp1940
sI1074076040
(Vrtc_clk_8m_enable
p1941
(lp1942
(L3612570329L
L0L
(lp1943
(lp1944
tp1945
a(L1069704813L
L0L
(lp1946
(lp1947
tp1948
a(L863574583L
L0L
(lp1949
(lp1950
tp1951
a(L1544283026L
L0L
(lp1952
(lp1953
tp1954
a(L3679981654L
L0L
(lp1955
(lp1956
tp1957
a(L15175261L
L0L
(lp1958
(lp1959
tp1960
a(L1019709726L
L0L
(lp1961
(lp1962
tp1963
atp1964
sI1074076296
(Vrtc_clk_slow_src_get
p1965
(lp1966
(L2325889800L
L0L
(lp1967
(lp1968
tp1969
a(L3020187L
L0L
(lp1970
(lp1971
tp1972
a(L2902417580L
L0L
(lp1973
(lp1974
tp1975
a(L2258688485L
L0L
(lp1976
(lp1977
tp1978
a(L3360570486L
L0L
(lp1979
(lp1980
tp1981
atp1982
sI1074072212
(Vverify_load_addresses
p1983
(lp1984
(L2763563698L
L0L
(lp1985
(lp1986
tp1987
a(L106L
L0L
(lp1988
(lp1989
tp1990
a(L97642L
L0L
(lp1991
(lp1992
tp1993
a(L2229690571L
L3785322319L
(lp1994
(lp1995
V__assert_func
p1996
atp1997
a(L1263861369L
L0L
(lp1998
(lp1999
tp2000
a(L2173223618L
L0L
(lp2001
(lp2002
tp2003
a(L106L
L0L
(lp2004
(lp2005
tp2006
a(L1150301858L
L3785322319L
(lp2007
(lp2008
Vbootloader_util_regions_overlap
p2009
atp2010
a(L939637262L
L3785322319L
(lp2011
(lp2012
Vbootloader_util_regions_overlap
p2013
atp2014
a(L2910371777L
L0L
(lp2015
(lp2016
tp2017
a(L1787150919L
L3785322319L
(lp2018
(lp2019
Vbootloader_util_regions_overlap
p2020
atp2021
a(L1351513776L
L0L
(lp2022
(lp2023
tp2024
a(L3350383445L
L0L
(lp2025
(lp2026
tp2027
a(L3946676L
L0L
(lp2028
(lp2029
tp2030
a(L106L
L0L
(lp2031
(lp2032
tp2033
a(L2703456438L
L3785322319L
(lp2034
(lp2035
Vbootloader_util_regions_overlap
p2036
atp2037
a(L3028481L
L0L
(lp2038
(lp2039
tp2040
a(L4004905437L
L3785322319L
(lp2041
(lp2042
Vbootloader_util_regions_overlap
p2043
atp2044
a(L1611368551L
L0L
(lp2045
(lp2046
tp2047
a(L4152062167L
L3785322319L
(lp2048
(lp2049
Vverify_load_addresses
p2050
atp2051
a(L3815011318L
L0L
(lp2052
(lp2053
tp2054
a(L514631567L
L0L
(lp2055
(lp2056
tp2057
a(L3929371936L
L0L
(lp2058
(lp2059
tp2060
a(L2768515748L
L0L
(lp2061
(lp2062
tp2063
a(L4072848040L
L0L
(lp2064
(lp2065
tp2066
a(L106L
L0L
(lp2067
(lp2068
tp2069
a(L4090485287L
L0L
(lp2070
(lp2071
tp2072
a(L270498420L
L0L
(lp2073
(lp2074
tp2075
a(L3020204L
L0L
(lp2076
(lp2077
tp2078
a(L3950116947L
L3785322319L
(lp2079
(lp2080
Vesp_log_early_timestamp
p2081
atp2082
a(L1303560396L
L0L
(lp2083
(lp2084
tp2085
a(L4090483954L
L0L
(lp2086
(lp2087
tp2088
a(L1303560427L
L0L
(lp2089
(lp2090
tp2091
atp2092
sI1074068892
(Vbootloader_common_ota_select_invalid
p2093
(lp2094
(L4027567199L
L0L
(lp2095
(lp2096
tp2097
a(L3397985842L
L0L
(lp2098
(lp2099
tp2100
a(L2258867228L
L0L
(lp2101
(lp2102
tp2103
a(L3785235668L
L0L
(lp2104
(lp2105
tp2106
atp2107
sI1074050968
(Vesp_cpu_configure_region_protection
p2108
(lp2109
(L4270504862L
L0L
(lp2110
(lp2111
tp2112
a(L180431425L
L3785322319L
(lp2113
(lp2114
Vmpu_hal_set_region_access
p2115
atp2116
a(L2537388152L
L3785322319L
(lp2117
(lp2118
Vmpu_hal_set_region_access
p2119
atp2120
atp2121
sI1074071448
(Vbootloader_sha256_data
p2122
(lp2123
(L1124031785L
L0L
(lp2124
(lp2125
tp2126
a(L1114960262L
L0L
(lp2127
(lp2128
tp2129
a(L374958604L
L3785322319L
(lp2130
(lp2131
V__assert_func
p2132
atp2133
a(L3301280463L
L0L
(lp2134
(lp2135
tp2136
a(L2634438984L
L0L
(lp2137
(lp2138
tp2139
a(L1043971475L
L0L
(lp2140
(lp2141
tp2142
atp2143
sI1074067364
(Vbootloader_flash_xmc_startup
p2144
(lp2145
(L3984755092L
L3785322319L
(lp2146
(lp2147
Vis_xmc_chip_strict
p2148
atp2149
a(L2258688482L
L0L
(lp2150
(lp2151
tp2152
a(L3360570486L
L0L
(lp2153
(lp2154
tp2155
a(L251913992L
L3785322319L
(lp2156
(lp2157
Vbootloader_flash_read_sfdp
p2158
atp2159
a(L4154487812L
L267944800L
(lp2160
(lp2161
Vbootloader_execute_flash_command
p2162
aVbootloader_execute_flash_command
p2163
aVbootloader_execute_flash_command
p2164
aVbootloader_execute_flash_command
p2165
aVbootloader_read_flash_id
p2166
aVis_xmc_chip_strict
p2167
atp2168
a(L4089388767L
L3785322319L
(lp2169
(lp2170
Vesp_log_early_timestamp
p2171
atp2172
atp2173
sI1074068388
(Vefuse_hal_get_major_chip_version
p2174
(lp2175
(L3396500073L
L0L
(lp2176
(lp2177
tp2178
atp2179
sI1074075300
(Vmmu_hal_init
p2180
(lp2181
(L1287383080L
L3785322319L
(lp2182
(lp2183
Vmmu_hal_unmap_all
p2184
atp2185
atp2186
sI1074076324
(Vrtc_clk_slow_freq_get_hz
p2187
(lp2188
(L1826267122L
L3785322319L
(lp2189
(lp2190
Vrtc_clk_slow_src_get
p2191
atp2192
a(L1728237570L
L0L
(lp2193
(lp2194
tp2195
a(L1109753584L
L0L
(lp2196
(lp2197
tp2198
a(L3360570486L
L0L
(lp2199
(lp2200
tp2201
atp2202
sI1074050720
(Vbootloader_read_bootloader_header
p2203
(lp2204
(L3220730061L
L3785322319L
(lp2205
(lp2206
Vbootloader_flash_read
p2207
atp2208
a(L3003857946L
L3785322319L
(lp2209
(lp2210
Vesp_log_early_timestamp
p2211
atp2212
a(L735741265L
L0L
(lp2213
(lp2214
tp2215
atp2216
sI1074067616
(Vbootloader_flash_set_dummy_out
p2217
(lp2218
(L1763025636L
L0L
(lp2219
(lp2220
tp2221
atp2222
sI1074071968
(Vprocess_image_header
p2223
(lp2224
(L3936861728L
L3785322319L
(lp2225
(lp2226
Vbootloader_flash_read
p2227
atp2228
a(L3020204L
L0L
(lp2229
(lp2230
tp2231
a(L4205021202L
L0L
(lp2232
(lp2233
tp2234
a(L321261932L
L0L
(lp2235
(lp2236
tp2237
a(L1161397362L
L3785322319L
(lp2238
(lp2239
Vbootloader_sha256_start
p2240
atp2241
a(L2062774299L
L3785322319L
(lp2242
(lp2243
Vbootloader_sha256_data
p2244
atp2245
a(L1291118193L
L0L
(lp2246
(lp2247
tp2248
a(L3028481L
L0L
(lp2249
(lp2250
tp2251
a(L1670499695L
L3785322319L
(lp2252
(lp2253
Vesp_log_early_timestamp
p2254
atp2255
a(L3163336514L
L0L
(lp2256
(lp2257
tp2258
a(L2983970029L
L0L
(lp2259
(lp2260
tp2261
a(L4235213884L
L3785322319L
(lp2262
(lp2263
Vbootloader_common_check_chip_validity
p2264
atp2265
a(L4144303915L
L0L
(lp2266
(lp2267
tp2268
a(L3028481L
L0L
(lp2269
(lp2270
tp2271
a(L1039920083L
L3785322319L
(lp2272
(lp2273
Vesp_log_early_timestamp
p2274
atp2275
a(L2852701393L
L0L
(lp2276
(lp2277
tp2278
a(L2122516551L
L0L
(lp2279
(lp2280
tp2281
a(L3064492592L
L0L
(lp2282
(lp2283
tp2284
atp2285
sI1074072736
(Vprocess_segments
p2286
(lp2287
(L670742546L
L0L
(lp2288
(lp2289
tp2290
a(L1478361954L
L0L
(lp2291
(lp2292
tp2293
a(L3782401745L
L0L
(lp2294
(lp2295
tp2296
a(L106L
L0L
(lp2297
(lp2298
tp2299
a(L234202048L
L0L
(lp2300
(lp2301
tp2302
a(L3507103598L
L3785322319L
(lp2303
(lp2304
Vesp_log_early_timestamp
p2305
atp2306
a(L4008360269L
L3785322319L
(lp2307
(lp2308
Vbootloader_flash_read
p2309
atp2310
a(L2694257142L
L3785322319L
(lp2311
(lp2312
Vesp_log_early_timestamp
p2313
atp2314
a(L464010095L
L0L
(lp2315
(lp2316
tp2317
a(L1890170661L
L0L
(lp2318
(lp2319
tp2320
a(L4138551778L
L3785322319L
(lp2321
(lp2322
Vbootloader_sha256_data
p2323
atp2324
a(L2133443362L
L0L
(lp2325
(lp2326
tp2327
a(L2258867228L
L0L
(lp2328
(lp2329
tp2330
a(L1653981967L
L0L
(lp2331
(lp2332
tp2333
a(L523560059L
L0L
(lp2334
(lp2335
tp2336
a(L4225057549L
L3785322319L
(lp2337
(lp2338
Vesp_log_early_timestamp
p2339
atp2340
a(L3832316966L
L0L
(lp2341
(lp2342
tp2343
a(L1263802934L
L0L
(lp2344
(lp2345
tp2346
a(L4212256713L
L0L
(lp2347
(lp2348
tp2349
a(L606368755L
L0L
(lp2350
(lp2351
tp2352
a(L2626753793L
L0L
(lp2353
(lp2354
tp2355
a(L4129125159L
L3785322319L
(lp2356
(lp2357
Vesp_log_early_timestamp
p2358
atp2359
a(L2864902319L
L0L
(lp2360
(lp2361
tp2362
a(L2314103720L
L0L
(lp2363
(lp2364
tp2365
a(L2136754140L
L3785322319L
(lp2366
(lp2367
Vbootloader_mmap_get_free_pages
p2368
atp2369
a(L3028481L
L0L
(lp2370
(lp2371
tp2372
a(L3306817873L
L0L
(lp2373
(lp2374
tp2375
a(L2642187286L
L3785322319L
(lp2376
(lp2377
Vshould_load
p2378
atp2379
a(L3020204L
L0L
(lp2380
(lp2381
tp2382
a(L1879695069L
L3785322319L
(lp2383
(lp2384
Vverify_load_addresses
p2385
atp2386
a(L106L
L0L
(lp2387
(lp2388
tp2389
a(L113955750L
L0L
(lp2390
(lp2391
tp2392
a(L262831199L
L0L
(lp2393
(lp2394
tp2395
a(L4128104404L
L3785322319L
(lp2396
(lp2397
Vbootloader_mmap
p2398
atp2399
a(L1124603825L
L3785322319L
(lp2400
(lp2401
Vesp_log_early_timestamp
p2402
atp2403
a(L1727089337L
L0L
(lp2404
(lp2405
tp2406
a(L1320112178L
L0L
(lp2407
(lp2408
tp2409
a(L1988494151L
L0L
(lp2410
(lp2411
tp2412
a(L1595421496L
L3785322319L
(lp2413
(lp2414
Vbootloader_munmap
p2415
atp2416
a(L1820299912L
L0L
(lp2417
(lp2418
tp2419
a(L2455000058L
L3785322319L
(lp2420
(lp2421
Vbootloader_fill_random
p2422
atp2423
a(L3277879431L
L0L
(lp2424
(lp2425
tp2426
a(L3281573515L
L0L
(lp2427
(lp2428
tp2429
a(L3450268858L
L0L
(lp2430
(lp2431
tp2432
a(L3021749L
L0L
(lp2433
(lp2434
tp2435
a(L3821106106L
L0L
(lp2436
(lp2437
tp2438
a(L2494883302L
L0L
(lp2439
(lp2440
tp2441
a(L2043449225L
L0L
(lp2442
(lp2443
tp2444
a(L4179129209L
L0L
(lp2445
(lp2446
tp2447
a(L301394602L
L0L
(lp2448
(lp2449
tp2450
a(L3018893270L
L0L
(lp2451
(lp2452
tp2453
a(L1224748769L
L0L
(lp2454
(lp2455
tp2456
a(L653501462L
L0L
(lp2457
(lp2458
tp2459
a(L3499111993L
L3785322319L
(lp2460
(lp2461
Vbootloader_sha256_data
p2462
atp2463
a(L90548756L
L0L
(lp2464
(lp2465
tp2466
a(L708495868L
L0L
(lp2467
(lp2468
tp2469
a(L2883900389L
L0L
(lp2470
(lp2471
tp2472
atp2473
sI1074075308
(Vmmu_hal_check_valid_ext_vaddr_region
p2474
(lp2475
(L3881432910L
L0L
(lp2476
(lp2477
tp2478
a(L3442888754L
L0L
(lp2479
(lp2480
tp2481
a(L3720287440L
L0L
(lp2482
(lp2483
tp2484
a(L3950438304L
L0L
(lp2485
(lp2486
tp2487
a(L1182811810L
L0L
(lp2488
(lp2489
tp2490
a(L743860465L
L0L
(lp2491
(lp2492
tp2493
a(L1183020347L
L0L
(lp2494
(lp2495
tp2496
a(L2509446030L
L0L
(lp2497
(lp2498
tp2499
a(L2348391256L
L0L
(lp2500
(lp2501
tp2502
a(L3016870L
L0L
(lp2503
(lp2504
tp2505
a(L3449464L
L0L
(lp2506
(lp2507
tp2508
a(L1183020347L
L0L
(lp2509
(lp2510
tp2511
a(L1925098409L
L0L
(lp2512
(lp2513
tp2514
a(L1182841601L
L0L
(lp2515
(lp2516
tp2517
a(L1237764201L
L0L
(lp2518
(lp2519
tp2520
a(L3360570486L
L0L
(lp2521
(lp2522
tp2523
atp2524
sI1074075820
(Vefuse_hal_get_mac
p2525
(lp2526
(L1941977576L
L0L
(lp2527
(lp2528
tp2529
atp2530
sI1074071720
(V__assert_func
p2531
(lp2532
(L3816155149L
L0L
(lp2533
(lp2534
tp2535
a(L106L
L0L
(lp2536
(lp2537
tp2538
atp2539
sI1074077096
(Vrtc_clk_cpu_freq_set_config
p2540
(lp2541
(L3386053777L
L0L
(lp2542
(lp2543
tp2544
a(L2308773007L
L0L
(lp2545
(lp2546
tp2547
a(L4025083134L
L3785322319L
(lp2548
(lp2549
Vrtc_clk_cpu_freq_to_xtal
p2550
atp2551
a(L1612672949L
L0L
(lp2552
(lp2553
tp2554
a(L2977209154L
L0L
(lp2555
(lp2556
tp2557
a(L2736411858L
L3785322319L
(lp2558
(lp2559
Vrtc_clk_cpu_freq_to_xtal
p2560
atp2561
a(L3360570486L
L0L
(lp2562
(lp2563
tp2564
a(L2954715499L
L3785322319L
(lp2565
(lp2566
Vrtc_clk_cpu_freq_to_xtal
p2567
atp2568
a(L2254895947L
L0L
(lp2569
(lp2570
tp2571
a(L3020187L
L0L
(lp2572
(lp2573
tp2574
a(L106L
L0L
(lp2575
(lp2576
tp2577
a(L2960292519L
L0L
(lp2578
(lp2579
tp2580
a(L3972819852L
L0L
(lp2581
(lp2582
tp2583
a(L106L
L0L
(lp2584
(lp2585
tp2586
a(L94425498L
L3785322319L
(lp2587
(lp2588
Vabort
p2589
atp2590
a(L4161029465L
L3785322319L
(lp2591
(lp2592
Vesp_rom_regi2c_write
p2593
atp2594
a(L2555545826L
L267944800L
(lp2595
(lp2596
Vesp_rom_regi2c_write
p2597
aVesp_rom_regi2c_write
p2598
aVesp_rom_regi2c_write_mask
p2599
aVesp_rom_regi2c_write_mask
p2600
aVesp_rom_regi2c_write
p2601
aVesp_rom_regi2c_write_mask
p2602
atp2603
a(L795507295L
L1880226080L
(lp2604
(lp2605
Vesp_rom_regi2c_write_mask
p2606
aVesp_rom_regi2c_read_mask
p2607
atp2608
a(L1388606159L
L3785322319L
(lp2609
(lp2610
Vrtc_clk_cpu_freq_to_pll_mhz
p2611
atp2612
a(L1212305965L
L3785322319L
(lp2613
(lp2614
Vesp_rom_regi2c_write
p2615
atp2616
a(L367702023L
L0L
(lp2617
(lp2618
tp2619
a(L3739994640L
L3785322319L
(lp2620
(lp2621
Vesp_log_early_timestamp
p2622
atp2623
a(L4238347245L
L0L
(lp2624
(lp2625
tp2626
a(L3020187L
L0L
(lp2627
(lp2628
tp2629
a(L106L
L0L
(lp2630
(lp2631
tp2632
a(L3615770441L
L3785322319L
(lp2633
(lp2634
V__assert_func
p2635
atp2636
atp2637
sI1074068152
(Vesp_rom_regi2c_write_mask
p2638
(lp2639
(L3373311251L
L0L
(lp2640
(lp2641
tp2642
a(L2461585074L
L3785322319L
(lp2643
(lp2644
V__assert_func
p2645
atp2646
a(L3949690519L
L3785322319L
(lp2647
(lp2648
Vi2c_rtc_enable_block
p2649
atp2650
a(L19855118L
L0L
(lp2651
(lp2652
tp2653
a(L1081335539L
L0L
(lp2654
(lp2655
tp2656
a(L3209579579L
L0L
(lp2657
(lp2658
tp2659
a(L3360570486L
L0L
(lp2660
(lp2661
tp2662
atp2663
sI1074068408
(Vefuse_hal_get_minor_chip_version
p2664
(lp2665
(L3327039263L
L0L
(lp2666
(lp2667
tp2668
atp2669
sI1074068920
(Vbootloader_common_select_otadata
p2670
(lp2671
(L4071767857L
L0L
(lp2672
(lp2673
tp2674
a(L1999329187L
L0L
(lp2675
(lp2676
tp2677
a(L3846398843L
L0L
(lp2678
(lp2679
tp2680
a(L2501968171L
L0L
(lp2681
(lp2682
tp2683
a(L3360570486L
L0L
(lp2684
(lp2685
tp2686
a(L2045232488L
L0L
(lp2687
(lp2688
tp2689
a(L1243525916L
L0L
(lp2690
(lp2691
tp2692
a(L3094144427L
L0L
(lp2693
(lp2694
tp2695
a(L2399509845L
L0L
(lp2696
(lp2697
tp2698
a(L1641201884L
L0L
(lp2699
(lp2700
tp2701
atp2702
sI1074069432
(Vbootloader_flash_erase_sector
p2703
(lp2704
(L1244262112L
L3785322319L
(lp2705
(lp2706
Vspi_to_esp_err
p2707
atp2708
atp2709
sI1074069956
(Vtry_load_partition
p2710
(lp2711
(L1898493800L
L0L
(lp2712
(lp2713
tp2714
a(L2454209732L
L3785322319L
(lp2715
(lp2716
Vbootloader_load_image
p2717
atp2718
a(L3360570486L
L0L
(lp2719
(lp2720
tp2721
atp2722
sI1074075076
(Vwdt_hal_write_protect_disable
p2723
(lp2724
(L2051577481L
L0L
(lp2725
(lp2726
tp2727
a(L4195472050L
L0L
(lp2728
(lp2729
tp2730
a(L3360570486L
L0L
(lp2731
(lp2732
tp2733
a(L1210571996L
L0L
(lp2734
(lp2735
tp2736
atp2737
sI1074069184
(Vbootloader_munmap
p2738
(lp2739
(L3864398594L
L0L
(lp2740
(lp2741
tp2742
a(L730133900L
L1880226080L
(lp2743
(lp2744
Vcache_hal_disable
p2745
aVmmu_hal_unmap_all
p2746
atp2747
a(L3360570486L
L0L
(lp2748
(lp2749
tp2750
atp2751
sI1074071744
(Vabort
p2752
(lp2753
(L1516066497L
L0L
(lp2754
(lp2755
tp2756
a(L409471316L
L0L
(lp2757
(lp2758
tp2759
a(L106L
L0L
(lp2760
(lp2761
tp2762
atp2763
sI1074076352
(Vrtc_clk_fast_src_set
p2764
(lp2765
(L1314537442L
L0L
(lp2766
(lp2767
tp2768
a(L3020187L
L0L
(lp2769
(lp2770
tp2771
a(L3827921190L
L3785322319L
(lp2772
(lp2773
Vabort
p2774
atp2775
a(L3176773362L
L0L
(lp2776
(lp2777
tp2778
a(L2261142712L
L0L
(lp2779
(lp2780
tp2781
a(L300459962L
L0L
(lp2782
(lp2783
tp2784
atp2785
sI1074077632
(Vrtc_clk_8m_divider_set
p2786
(lp2787
(L4037466968L
L0L
(lp2788
(lp2789
tp2790
a(L94425498L
L3785322319L
(lp2791
(lp2792
Vabort
p2793
atp2794
a(L729726404L
L0L
(lp2795
(lp2796
tp2797
atp2798
sI1074050764
(Vbootloader_check_bootloader_validity
p2799
(lp2800
(L539127372L
L1880226080L
(lp2801
(lp2802
Vefuse_hal_chip_revision
p2803
aVbootloader_common_check_chip_validity
p2804
atp2805
atp2806
sI1074069452
(Vbootloader_flash_write
p2807
(lp2808
(L3770380603L
L0L
(lp2809
(lp2810
tp2811
a(L916141019L
L3785322319L
(lp2812
(lp2813
Vesp_log_early_timestamp
p2814
atp2815
a(L2291082030L
L0L
(lp2816
(lp2817
tp2818
a(L1610445075L
L0L
(lp2819
(lp2820
tp2821
a(L735741265L
L0L
(lp2822
(lp2823
tp2824
a(L3291333414L
L0L
(lp2825
(lp2826
tp2827
a(L2788025001L
L3785322319L
(lp2828
(lp2829
Vesp_log_early_timestamp
p2830
atp2831
a(L3283691850L
L0L
(lp2832
(lp2833
tp2834
a(L1542606109L
L3785322319L
(lp2835
(lp2836
Vesp_log_early_timestamp
p2837
atp2838
a(L3212356251L
L3785322319L
(lp2839
(lp2840
Vbootloader_flash_unlock
p2841
atp2842
a(L4210907913L
L0L
(lp2843
(lp2844
tp2845
a(L1863178629L
L0L
(lp2846
(lp2847
tp2848
a(L2927190544L
L3785322319L
(lp2849
(lp2850
Vspi_to_esp_err
p2851
atp2852
a(L1427494425L
L0L
(lp2853
(lp2854
tp2855
atp2856
sI1074069708
(Vbootloader_random_disable
p2857
(lp2858
(L3198086692L
L1157885199L
(lp2859
(lp2860
Vesp_rom_regi2c_write_mask
p2861
aVesp_rom_regi2c_write_mask
p2862
aVesp_rom_regi2c_write_mask
p2863
aVesp_rom_regi2c_write_mask
p2864
aVesp_rom_regi2c_write_mask
p2865
atp2866
atp2867
sI1074071500
(Vbootloader_sha256_finish
p2868
(lp2869
(L2551432008L
L0L
(lp2870
(lp2871
tp2872
a(L1115916950L
L3785322319L
(lp2873
(lp2874
V__assert_func
p2875
atp2876
a(L1766200517L
L0L
(lp2877
(lp2878
tp2879
a(L2866616847L
L0L
(lp2880
(lp2881
tp2882
a(L3360570486L
L0L
(lp2883
(lp2884
tp2885
a(L1047390882L
L0L
(lp2886
(lp2887
tp2888
atp2889
sI1074072524
(Vprocess_appended_hash_and_sig
p2890
(lp2891
(L1668084157L
L0L
(lp2892
(lp2893
tp2894
a(L2910371777L
L0L
(lp2895
(lp2896
tp2897
a(L4285188111L
L0L
(lp2898
(lp2899
tp2900
a(L1151175705L
L0L
(lp2901
(lp2902
tp2903
a(L97689L
L0L
(lp2904
(lp2905
tp2906
a(L825015488L
L3785322319L
(lp2907
(lp2908
Vesp_log_early_timestamp
p2909
atp2910
a(L2460636872L
L0L
(lp2911
(lp2912
tp2913
a(L1464893571L
L3785322319L
(lp2914
(lp2915
Vbootloader_flash_read
p2916
atp2917
a(L735741265L
L0L
(lp2918
(lp2919
tp2920
atp2921
sI1074051016
(Vrtc_clk_init
p2922
(lp2923
(L1655422181L
L1157885199L
(lp2924
(lp2925
Vrtc_clk_divider_set
p2926
aVrtc_clk_8m_divider_set
p2927
aVrtc_clk_apb_freq_update
p2928
aVrtc_clk_cpu_freq_get_config
p2929
aVrtc_clk_cpu_freq_mhz_to_config
p2930
atp2931
a(L932610977L
L1880226080L
(lp2932
(lp2933
Vesp_log_early_timestamp
p2934
aVabort
p2935
atp2936
a(L1822348796L
L3785322319L
(lp2937
(lp2938
Vrtc_clk_cpu_freq_set_config
p2939
atp2940
a(L912310137L
L3785322319L
(lp2941
(lp2942
Vrtc_clk_32k_enable
p2943
atp2944
a(L638483776L
L1832448559L
(lp2945
(lp2946
Vrtc_clk_8m_enable
p2947
aVrtc_clk_fast_src_set
p2948
aVrtc_clk_slow_src_set
p2949
atp2950
a(L3088275258L
L0L
(lp2951
(lp2952
tp2953
atp2954
sI1074067656
(Vbootloader_configure_spi_pins
p2955
(lp2956
(L2404484338L
L0L
(lp2957
(lp2958
tp2959
a(L1203010559L
L0L
(lp2960
(lp2961
tp2962
a(L908902566L
L0L
(lp2963
(lp2964
tp2965
a(L836637403L
L0L
(lp2966
(lp2967
tp2968
a(L3027019L
L0L
(lp2969
(lp2970
tp2971
a(L3855764124L
L0L
(lp2972
(lp2973
tp2974
a(L3360570486L
L0L
(lp2975
(lp2976
tp2977
a(L2175499521L
L0L
(lp2978
(lp2979
tp2980
atp2981
sI1074075848
(Vrtc_clk_32k_enable
p2982
(lp2983
(L753387299L
L0L
(lp2984
(lp2985
tp2986
a(L3068762045L
L0L
(lp2987
(lp2988
tp2989
a(L3679981654L
L0L
(lp2990
(lp2991
tp2992
a(L1931822201L
L0L
(lp2993
(lp2994
tp2995
atp2996
sI1074076624
(Vrtc_clk_cpu_freq_to_pll_mhz
p2997
(lp2998
(L2709527252L
L3785322319L
(lp2999
(lp3000
Vrtc_clk_cpu_freq_get_config
p3001
atp3002
a(L1836987374L
L0L
(lp3003
(lp3004
tp3005
a(L529916030L
L0L
(lp3006
(lp3007
tp3008
a(L3755580090L
L0L
(lp3009
(lp3010
tp3011
a(L2570854281L
L0L
(lp3012
(lp3013
tp3014
a(L106L
L0L
(lp3015
(lp3016
tp3017
a(L1546614384L
L0L
(lp3018
(lp3019
tp3020
a(L2762074623L
L0L
(lp3021
(lp3022
tp3023
a(L106L
L0L
(lp3024
(lp3025
tp3026
a(L834740850L
L0L
(lp3027
(lp3028
tp3029
a(L2406153610L
L0L
(lp3030
(lp3031
tp3032
a(L331573046L
L0L
(lp3033
(lp3034
tp3035
a(L1964562777L
L0L
(lp3036
(lp3037
tp3038
a(L3360570486L
L0L
(lp3039
(lp3040
tp3041
a(L2195868912L
L0L
(lp3042
(lp3043
tp3044
a(L2311618619L
L0L
(lp3045
(lp3046
tp3047
a(L94425498L
L3785322319L
(lp3048
(lp3049
Vabort
p3050
atp3051
atp3052
sI1074049496
(Vbootloader_init
p3053
(lp3054
(L221487163L
L3785322319L
(lp3055
(lp3056
Vbootloader_init_mem
p3057
atp3058
a(L226871401L
L0L
(lp3059
(lp3060
tp3061
a(L2203381253L
L3785322319L
(lp3062
(lp3063
V__assert_func
p3064
atp3065
a(L1239889745L
L0L
(lp3066
(lp3067
tp3068
a(L2862523669L
L0L
(lp3069
(lp3070
tp3071
a(L947325520L
L665916544L
(lp3072
(lp3073
Vbootloader_clear_bss_section
p3074
aVbootloader_clock_configure
p3075
aVbootloader_console_init
p3076
aVbootloader_print_banner
p3077
aVcache_hal_init
p3078
aVmmu_hal_init
p3079
aVbootloader_flash_update_id
p3080
aVbootloader_flash_xmc_startup
p3081
atp3082
a(L3476826880L
L3785322319L
(lp3083
(lp3084
Vesp_log_early_timestamp
p3085
atp3086
a(L3360570486L
L0L
(lp3087
(lp3088
tp3089
a(L2444883382L
L3785322319L
(lp3090
(lp3091
Vbootloader_read_bootloader_header
p3092
atp3093
a(L2444883382L
L3785322319L
(lp3094
(lp3095
Vbootloader_check_bootloader_validity
p3096
atp3097
a(L2444883382L
L3785322319L
(lp3098
(lp3099
Vbootloader_init_spi_flash
p3100
atp3101
a(L1890374799L
L0L
(lp3102
(lp3103
tp3104
a(L58713700L
L0L
(lp3105
(lp3106
tp3107
a(L106L
L0L
(lp3108
(lp3109
tp3110
a(L485233847L
L0L
(lp3111
(lp3112
tp3113
a(L4140556378L
L3785322319L
(lp3114
(lp3115
Vesp_log_early_timestamp
p3116
atp3117
a(L493972181L
L0L
(lp3118
(lp3119
tp3120
a(L2191317533L
L3785322319L
(lp3121
(lp3122
Vesp_log_early_timestamp
p3123
atp3124
a(L3205924158L
L0L
(lp3125
(lp3126
tp3127
a(L1119432074L
L1880226080L
(lp3128
(lp3129
Vbootloader_config_wdt
p3130
aVbootloader_enable_random
p3131
atp3132
a(L2920611369L
L3785322319L
(lp3133
(lp3134
Vesp_log_early_timestamp
p3135
atp3136
atp3137
sI1074068440
(Vis_xmc_chip_strict
p3138
(lp3139
(L1286841609L
L0L
(lp3140
(lp3141
tp3142
a(L2234016759L
L0L
(lp3143
(lp3144
tp3145
a(L1069027148L
L0L
(lp3146
(lp3147
tp3148
a(L3021749L
L0L
(lp3149
(lp3150
tp3151
a(L1900148749L
L0L
(lp3152
(lp3153
tp3154
a(L1936875721L
L0L
(lp3155
(lp3156
tp3157
a(L3356166509L
L0L
(lp3158
(lp3159
tp3160
a(L1937769451L
L0L
(lp3161
(lp3162
tp3163
a(L2137658907L
L0L
(lp3164
(lp3165
tp3166
a(L4265949734L
L0L
(lp3167
(lp3168
tp3169
a(L3360570486L
L0L
(lp3170
(lp3171
tp3172
atp3173
sI1074069220
(Vbootloader_flash_read
p3174
(lp3175
(L308813434L
L0L
(lp3176
(lp3177
tp3178
a(L2080518204L
L3785322319L
(lp3179
(lp3180
Vesp_log_early_timestamp
p3181
atp3182
a(L1026594176L
L0L
(lp3183
(lp3184
tp3185
a(L1351513776L
L0L
(lp3186
(lp3187
tp3188
a(L1486740491L
L0L
(lp3189
(lp3190
tp3191
a(L587885928L
L3785322319L
(lp3192
(lp3193
Vesp_log_early_timestamp
p3194
atp3195
a(L3283691850L
L0L
(lp3196
(lp3197
tp3198
a(L1243870206L
L3785322319L
(lp3199
(lp3200
Vesp_log_early_timestamp
p3201
atp3202
a(L3020204L
L0L
(lp3203
(lp3204
tp3205
a(L2666016997L
L0L
(lp3206
(lp3207
tp3208
a(L97422L
L0L
(lp3209
(lp3210
tp3211
a(L1468429214L
L0L
(lp3212
(lp3213
tp3214
a(L1650368083L
L1832448559L
(lp3215
(lp3216
Vcache_hal_disable
p3217
aVmmu_hal_map_region
p3218
aVcache_hal_enable
p3219
atp3220
a(L644481934L
L0L
(lp3221
(lp3222
tp3223
a(L2360715651L
L1832448559L
(lp3224
(lp3225
Vcache_hal_disable
p3226
aVcache_hal_enable
p3227
aVspi_to_esp_err
p3228
atp3229
atp3230
sI1074069988
(Vcache_ll_l1_enable_bus
p3231
(lp3232
(L1509825078L
L0L
(lp3233
(lp3234
tp3235
atp3236
sI1074075108
(Vwdt_hal_set_flashboot_en
p3237
(lp3238
(L2375320464L
L0L
(lp3239
(lp3240
tp3241
a(L2209737333L
L0L
(lp3242
(lp3243
tp3244
a(L3360570486L
L0L
(lp3245
(lp3246
tp3247
a(L2020453996L
L0L
(lp3248
(lp3249
tp3250
atp3251
sI1074070240
(Vload_image
p3252
(lp3253
(L1160854804L
L1880226080L
(lp3254
(lp3255
Vbootloader_random_disable
p3256
aVbootloader_ana_clock_glitch_reset_config
p3257
atp3258
a(L3893505478L
L0L
(lp3259
(lp3260
tp3261
a(L106L
L0L
(lp3262
(lp3263
tp3264
a(L2702985794L
L3758435744L
(lp3265
(lp3266
Vcache_hal_disable
p3267
aVmmu_hal_unmap_all
p3268
aVmmu_hal_map_region
p3269
aVmmu_hal_map_region
p3270
aVcache_ll_l1_get_bus
p3271
aVcache_ll_l1_enable_bus
p3272
aVcache_ll_l1_get_bus
p3273
aVcache_ll_l1_enable_bus
p3274
aVcache_hal_enable
p3275
aVbootloader_console_deinit
p3276
atp3277
a(L2943304419L
L0L
(lp3278
(lp3279
tp3280
a(L2902417580L
L0L
(lp3281
(lp3282
tp3283
a(L3681666708L
L3785322319L
(lp3284
(lp3285
Vesp_log_early_timestamp
p3286
atp3287
a(L3972638412L
L0L
(lp3288
(lp3289
tp3290
a(L1205027435L
L0L
(lp3291
(lp3292
tp3293
a(L3020204L
L0L
(lp3294
(lp3295
tp3296
a(L967661932L
L3785322319L
(lp3297
(lp3298
Vesp_log_early_timestamp
p3299
atp3300
a(L3982722640L
L0L
(lp3301
(lp3302
tp3303
a(L2198938573L
L0L
(lp3304
(lp3305
tp3306
atp3307
sI1074076908
(Vrtc_clk_apb_freq_update
p3308
(lp3309
(L818846773L
L0L
(lp3310
(lp3311
tp3312
atp3313
sI1074050792
(Vbootloader_config_wdt
p3314
(lp3315
(L3855992586L
L505859776L
(lp3316
(lp3317
Vwdt_hal_write_protect_disable
p3318
aVwdt_hal_set_flashboot_en
p3319
aVwdt_hal_write_protect_enable
p3320
aVwdt_hal_init
p3321
aVrtc_clk_slow_freq_get_hz
p3322
aVwdt_hal_write_protect_disable
p3323
aVwdt_hal_config_stage
p3324
aVwdt_hal_enable
p3325
aVwdt_hal_write_protect_enable
p3326
aVwdt_hal_write_protect_disable
p3327
aVwdt_hal_set_flashboot_en
p3328
aVwdt_hal_write_protect_enable
p3329
atp3330
atp3331
sI1074066932
(Vbootloader_execute_flash_command
p3332
(lp3333
(L2481595632L
L3785322319L
(lp3334
(lp3335
Vbootloader_flash_execute_command_common
p3336
atp3337
atp3338
sI1074071792
(Vbootloader_ana_clock_glitch_reset_config
p3339
(lp3340
(L2100504542L
L0L
(lp3341
(lp3342
tp3343
atp3344
sI1074073840
(Vbootloader_load_image
p3345
(lp3346
(L1155870502L
L3785322319L
(lp3347
(lp3348
Vimage_load
p3349
atp3350
atp3351
sI1074051324
(Vrom_usb_cdc_set_descriptor_patch
p3352
(lp3353
(L3637839724L
L3785322319L
(lp3354
(lp3355
Vefuse_hal_get_mac
p3356
atp3357
a(L1517225701L
L0L
(lp3358
(lp3359
tp3360
a(L3621186219L
L0L
(lp3361
(lp3362
tp3363
a(L2817538290L
L0L
(lp3364
(lp3365
tp3366
a(L2504726965L
L0L
(lp3367
(lp3368
tp3369
a(L3358507144L
L0L
(lp3370
(lp3371
tp3372
a(L3637829635L
L0L
(lp3373
(lp3374
tp3375
atp3376
sI1074050552
(Vbootloader_flash_update_id
p3377
(lp3378
(L2905448710L
L3785322319L
(lp3379
(lp3380
Vbootloader_read_flash_id
p3381
atp3382
atp3383
sI1074070520
(Vset_actual_ota_seq
p3384
(lp3385
(L4094723830L
L0L
(lp3386
(lp3387
tp3388
a(L987544442L
L0L
(lp3389
(lp3390
tp3391
a(L2808002252L
L1832448559L
(lp3392
(lp3393
Vbootloader_common_ota_select_crc
p3394
aVesp_flash_encryption_enabled
p3395
aVbootloader_flash_erase_sector
p3396
atp3397
a(L3383023989L
L3785322319L
(lp3398
(lp3399
Vbootloader_flash_write
p3400
atp3401
a(L1540885201L
L3785322319L
(lp3402
(lp3403
Vesp_log_early_timestamp
p3404
atp3405
a(L3360570486L
L0L
(lp3406
(lp3407
tp3408
atp3409
sI1074071800
(Vprocess_checksum
p3410
(lp3411
(L3160771215L
L0L
(lp3412
(lp3413
tp3414
a(L3028481L
L0L
(lp3415
(lp3416
tp3417
a(L186886970L
L0L
(lp3418
(lp3419
tp3420
a(L2902417580L
L0L
(lp3421
(lp3422
tp3423
a(L3028481L
L0L
(lp3424
(lp3425
tp3426
a(L547876305L
L3785322319L
(lp3427
(lp3428
Vesp_log_early_timestamp
p3429
atp3430
a(L2460636872L
L0L
(lp3431
(lp3432
tp3433
a(L3236648107L
L3785322319L
(lp3434
(lp3435
Vbootloader_flash_read
p3436
atp3437
a(L735741265L
L0L
(lp3438
(lp3439
tp3440
a(L3020204L
L0L
(lp3441
(lp3442
tp3443
a(L2480703612L
L3785322319L
(lp3444
(lp3445
Vbootloader_sha256_data
p3446
atp3447
a(L3436105237L
L0L
(lp3448
(lp3449
tp3450
a(L106L
L0L
(lp3451
(lp3452
tp3453
atp3454
sI1074075640
(Vcache_hal_init
p3455
(lp3456
(L1236268821L
L0L
(lp3457
(lp3458
tp3459
atp3460
ssS'functionsdups'
p3461
g11
((lp3462
tp3463
Rp3464
sS'immediatedups'
p3465
g11
((lp3466
tp3467
Rp3468
sS'functiondups'
p3469
g11
((lp3470
tp3471
Rp3472
sS'fuzzy'
p3473
(dp3474
L1536L
I1074071720
sL438947497L
I1074076176
sL1667084889L
I1074071500
sL3121027072L
I1074067656
sL1993052482L
I1074068152
sL3806389737L
I1074051324
sL1442273406L
I1074069028
sL1735277287L
I1074069452
sL1340445289L
I1074067364
sL3538491111L
I1074076324
sL3786912423L
I1074070040
sL2983654095L
I1074076432
sL1907123383L
I1074070240
sL2991274576L
I1074076624
sL3709764864L
I1074073356
sL1419132215L
I1074069628
sL3220270544L
I1074075408
sL114144873L
I1074068092
sL4024375675L
I1074076936
sL452216018L
I1074049896
sL1991897232L
I1074071664
sL892119680L
I1074049496
sL852497120L
I1074050568
sL2542984738L
I1074068600
sL3897252859L
I1074069872
sL1852708444L
I1074077096
sL2547957225L
I1074073856
sL4155517583L
I1074069184
sL686877744L
I1074072212
sL1350409532L
I1074071968
sL3136542647L
I1074069220
sL1332800441L
I1074068852
sL1797050832L
I1074072524
sL4093721296L
I1074066964
sL4160102055L
I1074071088
sL1205407754L
I1074071112
sL2191698036L
I1074050792
sL3616640713L
I1074071800
sL1635528231L
I1074074736
sL4006207895L
I1074070520
sL4002350800L
I1074072736
sL3292745128L
I1074051016
sL2405032630L
I1074049388
sL3834155367L
I1074072156
sL567695527L
I1074071580
sL1299206787L
I1074070616
sL1667054119L
I1074066484
sL2443330910L
I1074070828
sL1070509616L
I1074076040
ssb.