ccopy_reg
_reconstructor
p0
(crizzo
RizzoSignature
p1
c__builtin__
object
p2
Ntp3
Rp4
(dp5
S'formal'
p6
(dp7
L2132642332L
I1074245356
sL2507534193L
I1074243400
sL2504164679L
I1074245708
sL3997757248L
I1074269712
sL1741170115L
I1074237944
sL1938993055L
I1074241680
sL3505757179L
I1074236724
sL1412552226L
I1074247084
sL3657255400L
I1074245436
sL2504328543L
I1074239692
sL4213015302L
I1074243116
sL3830240599L
I1074247116
sL1454943397L
I1074237964
sL1893576387L
I1074236524
sL1292366616L
I1074240336
sL2483835949L
I1074235908
sL307755126L
I1074237428
sL930173524L
I1074245184
sL748683193L
I1074248064
sL3954727839L
I1074269472
sL1969292365L
I1074269840
sL2702580795L
I1074237320
sL2161201919L
I1074238212
sL2568602422L
I1074237636
sL1616036989L
I1074246620
sL3501332098L
I1074236764
sL2896295319L
I1074236860
sL1293588012L
I1074268656
sL75996593L
I1074269740
sL1322217976L
I1074269804
sL1925543677L
I1074240700
sL1080753235L
I1074240356
sL1998378021L
I1074240504
sL870500059L
I1074242636
sL1716532329L
I1074244528
sL837487574L
I1074236536
sL1674148343L
I1074245476
sL2620173075L
I1074245892
sL1303047914L
I1074245568
sL3919037653L
I1074247484
sL2485902447L
I1074236700
sL2025618427L
I1074245300
sL1911632824L
I1074238724
sL2873562891L
I1074238540
sL2972806524L
I1074235644
sL1490076061L
I1074268416
sL3497139260L
I1074240716
sL1304966040L
I1074245420
sL4051279656L
I1074239324
sL1585823442L
I1074244428
sL1622896354L
I1074244456
sL2530222729L
I1074245008
sL1509716893L
I1074236832
sL2189223198L
I1074240264
sL814415336L
I1074269584
sL2348901739L
I1074241208
sL1301122278L
I1074237020
sL2180462214L
I1074247284
sL1056742531L
I1074236376
sL3371798918L
I1074269448
sL530851108L
I1074244556
sL1868159961L
I1074247812
sL4123293765L
I1074244888
sL1712221327L
I1074247976
sL676927194L
I1074268648
sL2334049178L
I1074240000
sL2013050233L
I1074247380
sL3307282855L
I1074238104
sL172597710L
I1074236620
sL789532551L
I1074269888
sL1048459762L
I1074245136
sL691524025L
I1074240740
sL1050504461L
I1074234700
sL1093247416L
I1074238132
sL3508034957L
I1074244948
sL599007265L
I1074267784
sL4291499100L
I1074247428
sL3969192450L
I1074268360
sL2536808105L
I1074269160
sL1687894276L
I1074244328
sL4038945309L
I1074235596
sL3612950013L
I1074238840
sL518463041L
I1074235796
sL1499400697L
I1074237688
sL21429742L
I1074236932
sL2737209228L
I1074234744
sL3570273892L
I1074238672
sL1552071464L
I1074244728
sL4020894724L
I1074241152
sL3490952637L
I1074244592
sL180164621L
I1074235256
sL2997001746L
I1074237252
sL2991020022L
I1074240964
sL2019861457L
I1074270660
sL1602802495L
I1074236964
sL2819127986L
I1074236984
sL2290174011L
I1074243132
sL1877634603L
I1074270732
sL3379108269L
I1074244012
sL3355390521L
I1074241768
sL3459889393L
I1074244360
sL3187263538L
I1074239204
sL2994899278L
I1074240024
sL3049417747L
I1074241896
sL628308650L
I1074238624
sL2263182908L
I1074238124
sL3344055947L
I1074247676
sL2541238439L
I1074270064
sL3630163135L
I1074236848
sL188664287L
I1074235224
sL2219538346L
I1074240796
sL2276418125L
I1074269144
sL252158690L
I1074270508
sL692536993L
I1074237292
sL729611412L
I1074245752
sL3795520467L
I1074246576
sL2216043004L
I1074245160
sL4226588931L
I1074269516
sL1754946927L
I1074245328
sL2518607080L
I1074237396
sL1397512119L
I1074245780
sL4173412669L
I1074235544
sL3018942732L
I1074267676
ssS'immediates'
p8
(dp9
sS'formaldups'
p10
c__builtin__
set
p11
((lp12
tp13
Rp14
sS'stringdups'
p15
g11
((lp16
tp17
Rp18
sS'fuzzydups'
p19
g11
((lp20
tp21
Rp22
sS'strings'
p23
(dp24
sS'functions'
p25
(dp26
I1074269448
(Vbootloader_clear_bss_section
p27
(lp28
(L292562491L
L0L
(lp29
(lp30
tp31
atp32
sI1074235908
(Vbootloader_flash_gpio_config
p33
(lp34
(L3362256192L
L3785322319L
(lp35
(lp36
Vbootloader_common_get_chip_ver_pkg
p37
atp38
a(L106L
L0L
(lp39
(lp40
tp41
a(L1998579353L
L0L
(lp42
(lp43
tp44
a(L106L
L0L
(lp45
(lp46
tp47
a(L1029428446L
L0L
(lp48
(lp49
tp50
a(L4242290324L
L0L
(lp51
(lp52
tp53
a(L106L
L0L
(lp54
(lp55
tp56
a(L4003626558L
L0L
(lp57
(lp58
tp59
a(L1553523094L
L0L
(lp60
(lp61
tp62
a(L3360570486L
L0L
(lp63
(lp64
tp65
atp66
sI1074236932
(Vesp_log_early_timestamp
p67
(lp68
(L387765101L
L0L
(lp69
(lp70
tp71
atp72
sI1074238212
(Vbootloader_random_disable
p73
(lp74
(L1556825775L
L0L
(lp75
(lp76
tp77
atp78
sI1074238724
(Vcache_ll_l1_get_bus
p79
(lp80
(L4279093598L
L0L
(lp81
(lp82
tp83
a(L94425498L
L3785322319L
(lp84
(lp85
Vabort
p86
atp87
a(L395366609L
L0L
(lp88
(lp89
tp90
a(L665283800L
L0L
(lp91
(lp92
tp93
a(L892952750L
L0L
(lp94
(lp95
tp96
a(L1182811810L
L0L
(lp97
(lp98
tp99
a(L4062036744L
L0L
(lp100
(lp101
tp102
a(L3360570486L
L0L
(lp103
(lp104
tp105
a(L3204017809L
L0L
(lp106
(lp107
tp108
a(L3007055246L
L0L
(lp109
(lp110
tp111
a(L3069752967L
L0L
(lp112
(lp113
tp114
a(L2258867228L
L0L
(lp115
(lp116
tp117
a(L1087012479L
L0L
(lp118
(lp119
tp120
a(L4059034926L
L0L
(lp121
(lp122
tp123
a(L3207711893L
L0L
(lp124
(lp125
tp126
a(L2756034985L
L0L
(lp127
(lp128
tp129
a(L1641149277L
L0L
(lp130
(lp131
tp132
a(L463701893L
L0L
(lp133
(lp134
tp135
a(L899412127L
L0L
(lp136
(lp137
tp138
a(L106L
L0L
(lp139
(lp140
tp141
a(L1299866436L
L0L
(lp142
(lp143
tp144
atp145
sI1074245892
(Vrtc_clk_cpu_freq_set_config
p146
(lp147
(L3084160080L
L3785322319L
(lp148
(lp149
Vrtc_clk_xtal_freq_get
p150
atp151
a(L2308773007L
L0L
(lp152
(lp153
tp154
a(L3253451229L
L1880226080L
(lp155
(lp156
Vrtc_clk_cpu_freq_to_xtal
p157
aVrtc_clk_wait_for_slow_cycle
p158
atp159
a(L2243645672L
L0L
(lp160
(lp161
tp162
a(L4002786498L
L0L
(lp163
(lp164
tp165
a(L2736411858L
L3785322319L
(lp166
(lp167
Vrtc_clk_cpu_freq_to_xtal
p168
atp169
a(L3360570486L
L0L
(lp170
(lp171
tp172
a(L2755207760L
L1832448559L
(lp173
(lp174
Vrtc_clk_cpu_freq_to_xtal
p175
aVrtc_clk_wait_for_slow_cycle
p176
aVrtc_clk_bbpll_disable
p177
atp178
a(L3020187L
L0L
(lp179
(lp180
tp181
a(L106L
L0L
(lp182
(lp183
tp184
a(L4044392622L
L1880226080L
(lp185
(lp186
Vrtc_clk_wait_for_slow_cycle
p187
aVrtc_clk_xtal_freq_get
p188
atp189
a(L106L
L0L
(lp190
(lp191
tp192
a(L2132119262L
L0L
(lp193
(lp194
tp195
a(L83268611L
L0L
(lp196
(lp197
tp198
a(L106L
L0L
(lp199
(lp200
tp201
a(L82345090L
L0L
(lp202
(lp203
tp204
a(L106L
L0L
(lp205
(lp206
tp207
a(L2258718273L
L0L
(lp208
(lp209
tp210
a(L3298883534L
L0L
(lp211
(lp212
tp213
a(L2653998096L
L0L
(lp214
(lp215
tp216
a(L1376254509L
L3785322319L
(lp217
(lp218
Vrtc_clk_cpu_freq_to_pll_mhz
p219
atp220
a(L4111066383L
L0L
(lp221
(lp222
tp223
a(L83268344L
L0L
(lp224
(lp225
tp226
a(L82344823L
L0L
(lp227
(lp228
tp229
a(L1569180676L
L0L
(lp230
(lp231
tp232
a(L2258837488L
L0L
(lp233
(lp234
tp235
a(L2981008074L
L0L
(lp236
(lp237
tp238
a(L1482311963L
L0L
(lp239
(lp240
tp241
a(L133411965L
L0L
(lp242
(lp243
tp244
a(L3673491036L
L0L
(lp245
(lp246
tp247
a(L4197990447L
L0L
(lp248
(lp249
tp250
a(L903154985L
L0L
(lp251
(lp252
tp253
a(L3020187L
L0L
(lp254
(lp255
tp256
a(L106L
L0L
(lp257
(lp258
tp259
a(L2132859274L
L3785322319L
(lp260
(lp261
Vesp_rom_set_cpu_ticks_per_us
p262
atp263
atp264
sI1074247428
(Vesp_rom_spiflash_enable_write
p265
(lp266
(L2042729930L
L3785322319L
(lp267
(lp268
Vesp_rom_spiflash_wait_idle
p269
atp270
a(L3333707777L
L0L
(lp271
(lp272
tp273
a(L2258688484L
L0L
(lp274
(lp275
tp276
a(L99543895L
L0L
(lp277
(lp278
tp279
a(L2993202392L
L0L
(lp280
(lp281
tp282
a(L34912299L
L3785322319L
(lp283
(lp284
Vesp_rom_spiflash_read_status
p285
atp286
atp287
sI1074270732
(Vmpu_hal_set_region_access
p288
(lp289
(L3538356822L
L0L
(lp290
(lp291
tp292
a(L93674324L
L0L
(lp293
(lp294
tp295
a(L2910371777L
L0L
(lp296
(lp297
tp298
a(L3472092938L
L0L
(lp299
(lp300
tp301
a(L3020187L
L0L
(lp302
(lp303
tp304
a(L3360570486L
L0L
(lp305
(lp306
tp307
a(L2258718273L
L0L
(lp308
(lp309
tp310
a(L3446648619L
L0L
(lp311
(lp312
tp313
a(L3739532189L
L0L
(lp314
(lp315
tp316
a(L1300789895L
L0L
(lp317
(lp318
tp319
atp320
sI1074240000
(Vbootloader_reset
p321
(lp322
(L2398861583L
L3785322319L
(lp323
(lp324
Vbootloader_console_deinit
p325
atp326
a(L106L
L0L
(lp327
(lp328
tp329
atp330
sI1074267136
(V_init
p331
(lp332
(L3493042598L
L0L
(lp333
(lp334
tp335
atp336
sI1074268416
(Vbootloader_clock_configure
p337
(lp338
(L2559598596L
L1880226080L
(lp339
(lp340
Vesp_rom_uart_tx_wait_idle
p341
aVefuse_hal_chip_revision
p342
atp343
a(L664527922L
L0L
(lp344
(lp345
tp346
a(L883406775L
L0L
(lp347
(lp348
tp349
a(L106L
L0L
(lp350
(lp351
tp352
a(L903513036L
L1832448559L
(lp353
(lp354
Vrtc_clk_slow_src_get
p355
aVrtc_clk_fast_src_get
p356
aVrtc_clk_init
p357
atp358
a(L3895022386L
L0L
(lp359
(lp360
tp361
a(L1538271816L
L3785322319L
(lp362
(lp363
Vrtc_clk_apb_freq_get
p364
atp365
a(L106L
L0L
(lp366
(lp367
tp368
a(L106L
L0L
(lp369
(lp370
tp371
atp372
sI1074237964
(Vbootloader_flash_write
p373
(lp374
(L3770380603L
L0L
(lp375
(lp376
tp377
a(L2547417610L
L3785322319L
(lp378
(lp379
Vesp_log_early_timestamp
p380
atp381
a(L3833270346L
L0L
(lp382
(lp383
tp384
a(L1610445075L
L0L
(lp385
(lp386
tp387
a(L735741265L
L0L
(lp388
(lp389
tp390
a(L3291333414L
L0L
(lp391
(lp392
tp393
a(L3508304306L
L3785322319L
(lp394
(lp395
Vesp_log_early_timestamp
p396
atp397
a(L3283691850L
L0L
(lp398
(lp399
tp400
a(L1591956746L
L3785322319L
(lp401
(lp402
Vesp_log_early_timestamp
p403
atp404
a(L3212356251L
L3785322319L
(lp405
(lp406
Vbootloader_flash_unlock
p407
atp408
a(L1799218633L
L0L
(lp409
(lp410
tp411
a(L94425498L
L3785322319L
(lp412
(lp413
Vesp_rom_spiflash_write_encrypted
p414
atp415
a(L2927190544L
L3785322319L
(lp416
(lp417
Vspi_to_esp_err
p418
atp419
a(L2927190544L
L3785322319L
(lp420
(lp421
Vesp_rom_spiflash_write
p422
atp423
atp424
sI1074240264
(Vindex_to_partition
p425
(lp426
(L4066096119L
L0L
(lp427
(lp428
tp429
a(L1101255660L
L0L
(lp430
(lp431
tp432
a(L1955702725L
L0L
(lp433
(lp434
tp435
a(L3698927993L
L0L
(lp436
(lp437
tp438
a(L2808906342L
L0L
(lp439
(lp440
tp441
a(L4211744375L
L0L
(lp442
(lp443
tp444
a(L3097778015L
L0L
(lp445
(lp446
tp447
a(L1816235430L
L0L
(lp448
(lp449
tp450
a(L2179185678L
L0L
(lp451
(lp452
tp453
a(L3369319173L
L0L
(lp454
(lp455
tp456
atp457
sI1074244360
(Vwdt_hal_set_flashboot_en
p458
(lp459
(L2375320464L
L0L
(lp460
(lp461
tp462
a(L3915867581L
L0L
(lp463
(lp464
tp465
a(L3360570486L
L0L
(lp466
(lp467
tp468
a(L1643092119L
L0L
(lp469
(lp470
tp471
atp472
sI1074240788
(Vbootloader_ana_clock_glitch_reset_config
p473
(lp474
(L2100504542L
L0L
(lp475
(lp476
tp477
atp478
sI1074267676
(Vcall_start_cpu0
p479
(lp480
(L1137852827L
L0L
(lp481
(lp482
tp483
a(L549459388L
L0L
(lp484
(lp485
tp486
a(L3212347974L
L3785322319L
(lp487
(lp488
Vbootloader_init
p489
atp490
a(L94425498L
L3785322319L
(lp491
(lp492
Vbootloader_reset
p493
atp494
a(L1122046408L
L0L
(lp495
(lp496
tp497
a(L4099474112L
L0L
(lp498
(lp499
tp500
a(L3015046664L
L3785322319L
(lp501
(lp502
Vbootloader_utility_load_partition_table
p503
atp504
a(L2761094216L
L3785322319L
(lp505
(lp506
Vesp_log_early_timestamp
p507
atp508
a(L405422123L
L3785322319L
(lp509
(lp510
Vbootloader_utility_get_selected_boot_partition
p511
atp512
a(L2055385849L
L3785322319L
(lp513
(lp514
Vbootloader_utility_load_boot_image
p515
atp516
atp517
sI1074245136
(Vrtc_clk_8m_enabled
p518
(lp519
(L850883783L
L0L
(lp520
(lp521
tp522
atp523
sI1074269712
(Vbootloader_enable_random
p524
(lp525
(L3834914336L
L1880226080L
(lp526
(lp527
Vesp_log_early_timestamp
p528
aVbootloader_random_enable
p529
atp530
atp531
sI1074236700
(Vefuse_hal_chip_revision
p532
(lp533
(L2719302832L
L1880226080L
(lp534
(lp535
Vefuse_hal_get_major_chip_version
p536
aVefuse_hal_get_minor_chip_version
p537
atp538
atp539
sI1074240796
(Vprocess_checksum
p540
(lp541
(L712647684L
L0L
(lp542
(lp543
tp544
a(L3028481L
L0L
(lp545
(lp546
tp547
a(L186886970L
L0L
(lp548
(lp549
tp550
a(L2902417580L
L0L
(lp551
(lp552
tp553
a(L3028481L
L0L
(lp554
(lp555
tp556
a(L1140379765L
L3785322319L
(lp557
(lp558
Vesp_log_early_timestamp
p559
atp560
a(L3620623082L
L0L
(lp561
(lp562
tp563
a(L3236648107L
L3785322319L
(lp564
(lp565
Vbootloader_flash_read
p566
atp567
a(L735741265L
L0L
(lp568
(lp569
tp570
a(L3020204L
L0L
(lp571
(lp572
tp573
a(L2480703612L
L3785322319L
(lp574
(lp575
Vbootloader_sha256_data
p576
atp577
a(L3436105237L
L0L
(lp578
(lp579
tp580
a(L106L
L0L
(lp581
(lp582
tp583
atp584
sI1074240024
(Vbootloader_utility_load_boot_image
p585
(lp586
(L2067566918L
L0L
(lp587
(lp588
tp589
a(L2177418995L
L3785322319L
(lp590
(lp591
Vtry_load_partition
p592
atp593
a(L1305243774L
L3785322319L
(lp594
(lp595
Vload_image
p596
atp597
a(L3575508230L
L3785322319L
(lp598
(lp599
Vesp_log_early_timestamp
p600
atp601
a(L3827921190L
L3785322319L
(lp602
(lp603
Vbootloader_reset
p604
atp605
a(L1953693036L
L3785322319L
(lp606
(lp607
Vindex_to_partition
p608
atp609
a(L1204373741L
L3785322319L
(lp610
(lp611
Vtry_load_partition
p612
atp613
a(L1899865696L
L0L
(lp614
(lp615
tp616
a(L2695355117L
L3785322319L
(lp617
(lp618
Vset_actual_ota_seq
p619
atp620
a(L1868897605L
L3785322319L
(lp621
(lp622
Vlog_invalid_app_partition
p623
atp624
a(L831650730L
L0L
(lp625
(lp626
tp627
a(L3021737L
L0L
(lp628
(lp629
tp630
a(L695456438L
L0L
(lp631
(lp632
tp633
a(L1148002536L
L3785322319L
(lp634
(lp635
Vtry_load_partition
p636
atp637
a(L4007721648L
L3785322319L
(lp638
(lp639
Vesp_log_early_timestamp
p640
atp641
a(L2347390157L
L3785322319L
(lp642
(lp643
Vindex_to_partition
p644
atp645
a(L1204373741L
L3785322319L
(lp646
(lp647
Vtry_load_partition
p648
atp649
a(L3061261803L
L0L
(lp650
(lp651
tp652
a(L3582858798L
L3785322319L
(lp653
(lp654
Vlog_invalid_app_partition
p655
atp656
a(L1679604283L
L3785322319L
(lp657
(lp658
Vesp_log_early_timestamp
p659
atp660
atp661
sI1074244888
(Vrtc_clk_bbpll_disable
p662
(lp663
(L4246749198L
L0L
(lp664
(lp665
tp666
a(L2472207241L
L0L
(lp667
(lp668
tp669
a(L3360570486L
L0L
(lp670
(lp671
tp672
atp673
sI1074236964
(Vbootloader_common_ota_select_crc
p674
(lp675
(L2530349931L
L0L
(lp676
(lp677
tp678
atp679
sI1074269740
(Vbootloader_print_banner
p680
(lp681
(L3290236286L
L1832448559L
(lp682
(lp683
Vesp_log_early_timestamp
p684
aVesp_log_early_timestamp
p685
aVesp_log_early_timestamp
p686
atp687
atp688
sI1074270508
(Vrtc_vddsdio_get_config
p689
(lp690
(L388387881L
L0L
(lp691
(lp692
tp693
a(L1750635626L
L0L
(lp694
(lp695
tp696
a(L3193418487L
L0L
(lp697
(lp698
tp699
a(L2802946622L
L0L
(lp700
(lp701
tp702
a(L115635292L
L0L
(lp703
(lp704
tp705
a(L896053863L
L0L
(lp706
(lp707
tp708
a(L1306330959L
L0L
(lp709
(lp710
tp711
a(L441284077L
L0L
(lp712
(lp713
tp714
atp715
sI1074269472
(Vbootloader_read_bootloader_header
p716
(lp717
(L1117659838L
L3785322319L
(lp718
(lp719
Vbootloader_flash_read
p720
atp721
a(L2176891929L
L3785322319L
(lp722
(lp723
Vesp_log_early_timestamp
p724
atp725
a(L735741265L
L0L
(lp726
(lp727
tp728
atp729
sI1074243116
(Vbootloader_load_image
p730
(lp731
(L1155870502L
L3785322319L
(lp732
(lp733
Vimage_load
p734
atp735
atp736
sI1074245420
(Vrtc_clk_fast_src_get
p737
(lp738
(L1547815195L
L0L
(lp739
(lp740
tp741
atp742
sI1074245160
(Vrtc_clk_8md256_enabled
p743
(lp744
(L6411912L
L0L
(lp745
(lp746
tp747
atp748
sI1074247976
(Vesp_rom_spiflash_write_encrypted
p749
(lp750
(L1944247967L
L0L
(lp751
(lp752
tp753
a(L1384352641L
L0L
(lp754
(lp755
tp756
a(L97689L
L0L
(lp757
(lp758
tp759
a(L3061232074L
L0L
(lp760
(lp761
tp762
a(L1637565147L
L0L
(lp763
(lp764
tp765
a(L1309309703L
L3785322319L
(lp766
(lp767
Vesp_rom_spiflash_write
p768
atp769
a(L3782958983L
L0L
(lp770
(lp771
tp772
a(L735741265L
L0L
(lp773
(lp774
tp775
atp776
sI1074236724
(Vefuse_hal_flash_encryption_enabled
p777
(lp778
(L2932383536L
L0L
(lp779
(lp780
tp781
a(L2910371777L
L0L
(lp782
(lp783
tp784
a(L3360570486L
L0L
(lp785
(lp786
tp787
a(L3016870L
L0L
(lp788
(lp789
tp790
a(L3745038218L
L0L
(lp791
(lp792
tp793
a(L957607403L
L0L
(lp794
(lp795
tp796
atp797
sI1074243132
(Vesp_partition_table_verify
p798
(lp799
(L3052823174L
L0L
(lp800
(lp801
tp802
a(L1341109787L
L0L
(lp803
(lp804
tp805
a(L1184829782L
L0L
(lp806
(lp807
tp808
a(L3020204L
L0L
(lp809
(lp810
tp811
a(L3170738237L
L3785322319L
(lp812
(lp813
Vesp_log_early_timestamp
p814
atp815
a(L1235012963L
L0L
(lp816
(lp817
tp818
a(L3190337587L
L0L
(lp819
(lp820
tp821
a(L2069928857L
L0L
(lp822
(lp823
tp824
a(L2902417580L
L0L
(lp825
(lp826
tp827
a(L4240560509L
L3785322319L
(lp828
(lp829
Vesp_log_early_timestamp
p830
atp831
a(L510839312L
L0L
(lp832
(lp833
tp834
a(L3020204L
L0L
(lp835
(lp836
tp837
a(L3020204L
L0L
(lp838
(lp839
tp840
a(L2215002226L
L3785322319L
(lp841
(lp842
Vesp_log_early_timestamp
p843
atp844
a(L3833270346L
L0L
(lp845
(lp846
tp847
a(L1235012932L
L0L
(lp848
(lp849
tp850
a(L1822327695L
L0L
(lp851
(lp852
tp853
a(L3020204L
L0L
(lp854
(lp855
tp856
a(L4240559796L
L3785322319L
(lp857
(lp858
Vesp_log_early_timestamp
p859
atp860
a(L1305407469L
L0L
(lp861
(lp862
tp863
a(L1167861556L
L0L
(lp864
(lp865
tp866
a(L818997085L
L0L
(lp867
(lp868
tp869
a(L3360570486L
L0L
(lp870
(lp871
tp872
a(L3020204L
L0L
(lp873
(lp874
tp875
a(L4142303994L
L3785322319L
(lp876
(lp877
Vesp_log_early_timestamp
p878
atp879
atp880
sI1074245436
(Vrtc_clk_xtal_freq_get
p881
(lp882
(L1141112989L
L0L
(lp883
(lp884
tp885
a(L2847936993L
L0L
(lp886
(lp887
tp888
a(L210824888L
L0L
(lp889
(lp890
tp891
a(L3360570486L
L0L
(lp892
(lp893
tp894
atp895
sI1074247484
(Vesp_rom_spiflash_program_page_internal
p896
(lp897
(L2569069283L
L0L
(lp898
(lp899
tp900
a(L2258688483L
L0L
(lp901
(lp902
tp903
a(L3360570486L
L0L
(lp904
(lp905
tp906
a(L2829044961L
L0L
(lp907
(lp908
tp909
a(L4235661475L
L3785322319L
(lp910
(lp911
Vesp_rom_spiflash_wait_idle
p912
atp913
a(L1299866312L
L0L
(lp914
(lp915
tp916
a(L3212356251L
L3785322319L
(lp917
(lp918
Vesp_rom_spiflash_enable_write
p919
atp920
a(L2699279454L
L0L
(lp921
(lp922
tp923
a(L1660321380L
L0L
(lp924
(lp925
tp926
a(L2953702749L
L0L
(lp927
(lp928
tp929
a(L2989032L
L0L
(lp930
(lp931
tp932
a(L1965622133L
L0L
(lp933
(lp934
tp935
a(L1468673061L
L0L
(lp936
(lp937
tp938
a(L1958113242L
L0L
(lp939
(lp940
tp941
a(L106L
L0L
(lp942
(lp943
tp944
a(L3112950080L
L0L
(lp945
(lp946
tp947
a(L1868606439L
L0L
(lp948
(lp949
tp950
a(L1008983191L
L0L
(lp951
(lp952
tp953
a(L1933954923L
L0L
(lp954
(lp955
tp956
a(L1147866918L
L0L
(lp957
(lp958
tp959
a(L3871602522L
L0L
(lp960
(lp961
tp962
atp963
sI1074236984
(Vbootloader_common_ota_select_valid
p964
(lp965
(L1563399710L
L3785322319L
(lp966
(lp967
Vbootloader_common_ota_select_invalid
p968
atp969
a(L3814720849L
L3785322319L
(lp970
(lp971
Vbootloader_common_ota_select_crc
p972
atp973
a(L3360570486L
L0L
(lp974
(lp975
tp976
atp977
sI1074237252
(Vbootloader_common_get_active_otadata
p978
(lp979
(L3317503532L
L0L
(lp980
(lp981
tp982
a(L2503049265L
L1832448559L
(lp983
(lp984
Vbootloader_common_ota_select_valid
p985
aVbootloader_common_ota_select_valid
p986
aVbootloader_common_select_otadata
p987
atp988
a(L735741265L
L0L
(lp989
(lp990
tp991
atp992
sI1074269516
(Vbootloader_check_bootloader_validity
p993
(lp994
(L2826918559L
L1832448559L
(lp995
(lp996
Vefuse_hal_chip_revision
p997
aVesp_log_early_timestamp
p998
aVbootloader_common_check_chip_validity
p999
atp1000
atp1001
sI1074245184
(Vrtc_clk_slow_src_set
p1002
(lp1003
(L3836139170L
L0L
(lp1004
(lp1005
tp1006
a(L3020187L
L0L
(lp1007
(lp1008
tp1009
a(L3028481L
L0L
(lp1010
(lp1011
tp1012
a(L487821223L
L0L
(lp1013
(lp1014
tp1015
a(L1352094866L
L0L
(lp1016
(lp1017
tp1018
a(L1851908495L
L0L
(lp1019
(lp1020
tp1021
a(L382170874L
L0L
(lp1022
(lp1023
tp1024
a(L3138544334L
L0L
(lp1025
(lp1026
tp1027
a(L94425498L
L3785322319L
(lp1028
(lp1029
Vabort
p1030
atp1031
atp1032
sI1074238528
(Vbootloader_clock_get_rated_freq_mhz
p1033
(lp1034
(L376617603L
L3785322319L
(lp1035
(lp1036
Vefuse_hal_get_rated_freq_mhz
p1037
atp1038
atp1039
sI1074245708
(Vrtc_clk_xtal_freq_update
p1040
(lp1041
(L1106391585L
L0L
(lp1042
(lp1043
tp1044
a(L3509357017L
L0L
(lp1045
(lp1046
tp1047
a(L2266180931L
L0L
(lp1048
(lp1049
tp1050
atp1051
sI1074234700
(Vbootloader_common_get_chip_ver_pkg
p1052
(lp1053
(L994406025L
L0L
(lp1054
(lp1055
tp1056
atp1057
sI1074238540
(Vlog_invalid_app_partition
p1058
(lp1059
(L3521327925L
L0L
(lp1060
(lp1061
tp1062
a(L3028464L
L0L
(lp1063
(lp1064
tp1065
a(L464326025L
L3785322319L
(lp1066
(lp1067
Vesp_log_early_timestamp
p1068
atp1069
a(L3833270346L
L0L
(lp1070
(lp1071
tp1072
a(L3360570486L
L0L
(lp1073
(lp1074
tp1075
a(L4216513345L
L3785322319L
(lp1076
(lp1077
Vesp_log_early_timestamp
p1078
atp1079
a(L1654679790L
L3785322319L
(lp1080
(lp1081
Vesp_log_early_timestamp
p1082
atp1083
atp1084
sI1074242636
(Vimage_load
p1085
(lp1086
(L3048705773L
L0L
(lp1087
(lp1088
tp1089
a(L3463713141L
L0L
(lp1090
(lp1091
tp1092
a(L3309803581L
L0L
(lp1093
(lp1094
tp1095
a(L256049682L
L0L
(lp1096
(lp1097
tp1098
a(L1935188817L
L0L
(lp1099
(lp1100
tp1101
a(L3028481L
L0L
(lp1102
(lp1103
tp1104
a(L3021749L
L0L
(lp1105
(lp1106
tp1107
a(L106L
L0L
(lp1108
(lp1109
tp1110
a(L585264737L
L0L
(lp1111
(lp1112
tp1113
a(L1145291904L
L3785322319L
(lp1114
(lp1115
Vprocess_image_header
p1116
atp1117
a(L823859500L
L0L
(lp1118
(lp1119
tp1120
a(L3061291474L
L0L
(lp1121
(lp1122
tp1123
a(L4106474008L
L3785322319L
(lp1124
(lp1125
Vprocess_segments
p1126
atp1127
a(L3868840998L
L0L
(lp1128
(lp1129
tp1130
a(L292970743L
L0L
(lp1131
(lp1132
tp1133
a(L1827898452L
L3785322319L
(lp1134
(lp1135
Vprocess_checksum
p1136
atp1137
a(L2214715179L
L3785322319L
(lp1138
(lp1139
Vprocess_appended_hash_and_sig
p1140
atp1141
a(L3028481L
L0L
(lp1142
(lp1143
tp1144
a(L2902417580L
L0L
(lp1145
(lp1146
tp1147
a(L3285560995L
L3785322319L
(lp1148
(lp1149
Vbootloader_sha256_finish
p1150
atp1151
a(L3946560000L
L0L
(lp1152
(lp1153
tp1154
a(L93674324L
L0L
(lp1155
(lp1156
tp1157
a(L2510919588L
L0L
(lp1158
(lp1159
tp1160
a(L772115669L
L0L
(lp1161
(lp1162
tp1163
a(L1179424413L
L0L
(lp1164
(lp1165
tp1166
a(L3928150917L
L0L
(lp1167
(lp1168
tp1169
a(L106L
L0L
(lp1170
(lp1171
tp1172
a(L3871473710L
L0L
(lp1173
(lp1174
tp1175
a(L3884726427L
L0L
(lp1176
(lp1177
tp1178
a(L106L
L0L
(lp1179
(lp1180
tp1181
a(L3020187L
L0L
(lp1182
(lp1183
tp1184
a(L1697049773L
L3785322319L
(lp1185
(lp1186
Vesp_log_early_timestamp
p1187
atp1188
a(L2868044067L
L0L
(lp1189
(lp1190
tp1191
a(L1179764900L
L0L
(lp1192
(lp1193
tp1194
a(L2332746046L
L3785322319L
(lp1195
(lp1196
Vbootloader_sha256_finish
p1197
atp1198
a(L1732382816L
L0L
(lp1199
(lp1200
tp1201
a(L3020204L
L0L
(lp1202
(lp1203
tp1204
a(L549190477L
L0L
(lp1205
(lp1206
tp1207
a(L106L
L0L
(lp1208
(lp1209
tp1210
a(L506242637L
L1880226080L
(lp1211
(lp1212
Vbootloader_sha256_finish
p1213
aVbootloader_debug_buffer
p1214
atp1215
a(L1919118407L
L1880226080L
(lp1216
(lp1217
Vesp_log_early_timestamp
p1218
aVbootloader_debug_buffer
p1219
atp1220
a(L3741653406L
L3785322319L
(lp1221
(lp1222
Vshould_load
p1223
atp1224
a(L2764257181L
L0L
(lp1225
(lp1226
tp1227
a(L3338774213L
L0L
(lp1228
(lp1229
tp1230
a(L3464541874L
L0L
(lp1231
(lp1232
tp1233
a(L3349572949L
L0L
(lp1234
(lp1235
tp1236
a(L2192292519L
L0L
(lp1237
(lp1238
tp1239
a(L106L
L0L
(lp1240
(lp1241
tp1242
a(L26615924L
L0L
(lp1243
(lp1244
tp1245
a(L1299866312L
L0L
(lp1246
(lp1247
tp1248
a(L3010020263L
L0L
(lp1249
(lp1250
tp1251
atp1252
sI1074244428
(Vwdt_hal_write_protect_enable
p1253
(lp1254
(L387778158L
L0L
(lp1255
(lp1256
tp1257
a(L4195472003L
L0L
(lp1258
(lp1259
tp1260
a(L3360570486L
L0L
(lp1261
(lp1262
tp1263
a(L802523425L
L0L
(lp1264
(lp1265
tp1266
atp1267
sI1074240328
(Vbootloader_debug_buffer
p1268
(lp1269
(L2100504542L
L0L
(lp1270
(lp1271
tp1272
atp1273
sI1074243400
(Vwdt_hal_init
p1274
(lp1275
(L3421398808L
L0L
(lp1276
(lp1277
tp1278
a(L106L
L0L
(lp1279
(lp1280
tp1281
a(L2104869658L
L0L
(lp1282
(lp1283
tp1284
a(L3076988543L
L0L
(lp1285
(lp1286
tp1287
a(L826654286L
L0L
(lp1288
(lp1289
tp1290
a(L3028464L
L0L
(lp1291
(lp1292
tp1293
a(L826450188L
L0L
(lp1294
(lp1295
tp1296
a(L2718477828L
L0L
(lp1297
(lp1298
tp1299
a(L4192844967L
L0L
(lp1300
(lp1301
tp1302
a(L3360570486L
L0L
(lp1303
(lp1304
tp1305
atp1306
sI1074244948
(Vrtc_clk_32k_enable
p1307
(lp1308
(L753387299L
L0L
(lp1309
(lp1310
tp1311
a(L3776007933L
L3785322319L
(lp1312
(lp1313
Vrtc_clk_32k_enable_common
p1314
atp1315
a(L3496950L
L0L
(lp1316
(lp1317
tp1318
a(L2999494823L
L0L
(lp1319
(lp1320
tp1321
atp1322
sI1074240336
(Vbootloader_sha256_start
p1323
(lp1324
(L4097873673L
L0L
(lp1325
(lp1326
tp1327
atp1328
sI1074239324
(Vbootloader_utility_load_partition_table
p1329
(lp1330
(L252002813L
L3785322319L
(lp1331
(lp1332
Vbootloader_mmap
p1333
atp1334
a(L955711428L
L3785322319L
(lp1335
(lp1336
Vesp_log_early_timestamp
p1337
atp1338
a(L2258688482L
L0L
(lp1339
(lp1340
tp1341
a(L3360570486L
L0L
(lp1342
(lp1343
tp1344
a(L2379286607L
L3785322319L
(lp1345
(lp1346
Vesp_partition_table_verify
p1347
atp1348
a(L273033190L
L3785322319L
(lp1349
(lp1350
Vesp_log_early_timestamp
p1351
atp1352
a(L2475738608L
L1880226080L
(lp1353
(lp1354
Vesp_log_early_timestamp
p1355
aVesp_log_early_timestamp
p1356
atp1357
a(L650140130L
L0L
(lp1358
(lp1359
tp1360
a(L2876000274L
L1880226080L
(lp1361
(lp1362
Vbootloader_munmap
p1363
aVesp_log_early_timestamp
p1364
atp1365
a(L521126897L
L0L
(lp1366
(lp1367
tp1368
a(L3028464L
L0L
(lp1369
(lp1370
tp1371
a(L106L
L0L
(lp1372
(lp1373
tp1374
a(L1403802538L
L0L
(lp1375
(lp1376
tp1377
a(L547659847L
L3785322319L
(lp1378
(lp1379
Vesp_log_early_timestamp
p1380
atp1381
a(L3990577774L
L0L
(lp1382
(lp1383
tp1384
a(L3020187L
L0L
(lp1385
(lp1386
tp1387
a(L2274806910L
L0L
(lp1388
(lp1389
tp1390
a(L4208503827L
L0L
(lp1391
(lp1392
tp1393
a(L1859218339L
L0L
(lp1394
(lp1395
tp1396
a(L2546691742L
L0L
(lp1397
(lp1398
tp1399
a(L3790342278L
L0L
(lp1400
(lp1401
tp1402
a(L106L
L0L
(lp1403
(lp1404
tp1405
a(L93674324L
L0L
(lp1406
(lp1407
tp1408
a(L1562060222L
L0L
(lp1409
(lp1410
tp1411
a(L1938133135L
L0L
(lp1412
(lp1413
tp1414
a(L1586995272L
L0L
(lp1415
(lp1416
tp1417
a(L106L
L0L
(lp1418
(lp1419
tp1420
a(L1590689356L
L0L
(lp1421
(lp1422
tp1423
a(L106L
L0L
(lp1424
(lp1425
tp1426
a(L568228547L
L0L
(lp1427
(lp1428
tp1429
atp1430
sI1074237020
(Vbootloader_common_check_chip_validity
p1431
(lp1432
(L2080115690L
L0L
(lp1433
(lp1434
tp1435
a(L3154986995L
L3785322319L
(lp1436
(lp1437
Vesp_log_early_timestamp
p1438
atp1439
a(L1299867982L
L0L
(lp1440
(lp1441
tp1442
a(L3360570486L
L0L
(lp1443
(lp1444
tp1445
a(L521940037L
L3785322319L
(lp1446
(lp1447
Vefuse_hal_chip_revision
p1448
atp1449
a(L3630617448L
L0L
(lp1450
(lp1451
tp1452
a(L4252915848L
L3785322319L
(lp1453
(lp1454
Vesp_log_early_timestamp
p1455
atp1456
a(L3028464L
L0L
(lp1457
(lp1458
tp1459
a(L1797954754L
L0L
(lp1460
(lp1461
tp1462
a(L106L
L0L
(lp1463
(lp1464
tp1465
a(L3027019L
L0L
(lp1466
(lp1467
tp1468
a(L106L
L0L
(lp1469
(lp1470
tp1471
a(L147797478L
L3785322319L
(lp1472
(lp1473
Vesp_log_early_timestamp
p1474
atp1475
atp1476
sI1074236764
(Vefuse_hal_get_major_chip_version
p1477
(lp1478
(L3609358168L
L0L
(lp1479
(lp1480
tp1481
a(L894792960L
L0L
(lp1482
(lp1483
tp1484
a(L724635033L
L0L
(lp1485
(lp1486
tp1487
a(L3360570486L
L0L
(lp1488
(lp1489
tp1490
atp1491
sI1074235224
(Vbootloader_execute_flash_command
p1492
(lp1493
(L2481595632L
L3785322319L
(lp1494
(lp1495
Vbootloader_flash_execute_command_common
p1496
atp1497
atp1498
sI1074240356
(Vbootloader_sha256_data
p1499
(lp1500
(L4066096136L
L0L
(lp1501
(lp1502
tp1503
a(L3841069648L
L0L
(lp1504
(lp1505
tp1506
a(L47191971L
L3785322319L
(lp1507
(lp1508
V__assert_func
p1509
atp1510
a(L498498478L
L0L
(lp1511
(lp1512
tp1513
a(L2285300943L
L0L
(lp1514
(lp1515
tp1516
a(L2910371777L
L0L
(lp1517
(lp1518
tp1519
a(L3360570486L
L0L
(lp1520
(lp1521
tp1522
a(L375846078L
L0L
(lp1523
(lp1524
tp1525
a(L248495140L
L0L
(lp1526
(lp1527
tp1528
a(L1731657511L
L0L
(lp1529
(lp1530
tp1531
a(L511229072L
L0L
(lp1532
(lp1533
tp1534
a(L3947759771L
L0L
(lp1535
(lp1536
tp1537
a(L1394964493L
L0L
(lp1538
(lp1539
tp1540
a(L2452189744L
L0L
(lp1541
(lp1542
tp1543
a(L702738177L
L0L
(lp1544
(lp1545
tp1546
a(L3745004802L
L0L
(lp1547
(lp1548
tp1549
atp1550
sI1074245476
(Vrtc_clk_cpu_freq_mhz_to_config
p1551
(lp1552
(L908718885L
L3785322319L
(lp1553
(lp1554
Vrtc_clk_xtal_freq_get
p1555
atp1556
a(L60460069L
L0L
(lp1557
(lp1558
tp1559
a(L3802072124L
L0L
(lp1560
(lp1561
tp1562
a(L3159006042L
L0L
(lp1563
(lp1564
tp1565
a(L3360570486L
L0L
(lp1566
(lp1567
tp1568
a(L895147205L
L0L
(lp1569
(lp1570
tp1571
a(L3970036657L
L0L
(lp1572
(lp1573
tp1574
a(L2731353429L
L0L
(lp1575
(lp1576
tp1577
a(L1555485793L
L0L
(lp1578
(lp1579
tp1580
a(L2258897023L
L0L
(lp1581
(lp1582
tp1583
a(L1947499251L
L0L
(lp1584
(lp1585
tp1586
a(L1306331021L
L0L
(lp1587
(lp1588
tp1589
atp1590
sI1074269804
(Vbootloader_console_init
p1591
(lp1592
(L3157901046L
L1832448559L
(lp1593
(lp1594
Vesp_rom_uart_tx_wait_idle
p1595
aVrtc_clk_apb_freq_get
p1596
aVesp_rom_uart_set_clock_baudrate
p1597
atp1598
atp1599
sI1074236524
(Vesp_rom_set_cpu_ticks_per_us
p1600
(lp1601
(L1865870295L
L0L
(lp1602
(lp1603
tp1604
atp1605
sI1074234732
(Vesp_flash_encryption_enabled
p1606
(lp1607
(L376617603L
L3785322319L
(lp1608
(lp1609
Vefuse_hal_flash_encryption_enabled
p1610
atp1611
atp1612
sI1074237292
(Vbootloader_common_ota_select_invalid
p1613
(lp1614
(L4027567199L
L0L
(lp1615
(lp1616
tp1617
a(L3397985842L
L0L
(lp1618
(lp1619
tp1620
a(L2258867228L
L0L
(lp1621
(lp1622
tp1623
a(L3785235668L
L0L
(lp1624
(lp1625
tp1626
atp1627
sI1074241896
(Vprocess_segments
p1628
(lp1629
(L1326203493L
L0L
(lp1630
(lp1631
tp1632
a(L1640778736L
L0L
(lp1633
(lp1634
tp1635
a(L3782401745L
L0L
(lp1636
(lp1637
tp1638
a(L106L
L0L
(lp1639
(lp1640
tp1641
a(L3028481L
L0L
(lp1642
(lp1643
tp1644
a(L4059164926L
L3785322319L
(lp1645
(lp1646
Vesp_log_early_timestamp
p1647
atp1648
a(L761135359L
L3785322319L
(lp1649
(lp1650
Vbootloader_flash_read
p1651
atp1652
a(L3061273537L
L3785322319L
(lp1653
(lp1654
Vesp_log_early_timestamp
p1655
atp1656
a(L3871473710L
L0L
(lp1657
(lp1658
tp1659
a(L219417435L
L0L
(lp1660
(lp1661
tp1662
a(L616767314L
L3785322319L
(lp1663
(lp1664
Vbootloader_sha256_data
p1665
atp1666
a(L707062298L
L0L
(lp1667
(lp1668
tp1669
a(L2258837437L
L0L
(lp1670
(lp1671
tp1672
a(L1764156528L
L0L
(lp1673
(lp1674
tp1675
a(L3028481L
L0L
(lp1676
(lp1677
tp1678
a(L3599960658L
L3785322319L
(lp1679
(lp1680
Vesp_log_early_timestamp
p1681
atp1682
a(L568253161L
L0L
(lp1683
(lp1684
tp1685
a(L4097494873L
L0L
(lp1686
(lp1687
tp1688
a(L3802069243L
L0L
(lp1689
(lp1690
tp1691
a(L1551906853L
L0L
(lp1692
(lp1693
tp1694
a(L2258867228L
L0L
(lp1695
(lp1696
tp1697
a(L2277415887L
L0L
(lp1698
(lp1699
tp1700
a(L3177376558L
L0L
(lp1701
(lp1702
tp1703
a(L3028481L
L0L
(lp1704
(lp1705
tp1706
a(L2430737179L
L3785322319L
(lp1707
(lp1708
Vesp_log_early_timestamp
p1709
atp1710
a(L2640606608L
L0L
(lp1711
(lp1712
tp1713
a(L3028481L
L0L
(lp1714
(lp1715
tp1716
a(L1304081855L
L3785322319L
(lp1717
(lp1718
Vesp_log_early_timestamp
p1719
atp1720
a(L3519399408L
L0L
(lp1721
(lp1722
tp1723
a(L2902417580L
L0L
(lp1724
(lp1725
tp1726
a(L2902417580L
L0L
(lp1727
(lp1728
tp1729
a(L1229952296L
L3785322319L
(lp1730
(lp1731
Vverify_load_addresses
p1732
atp1733
a(L3783935185L
L3785322319L
(lp1734
(lp1735
Vbootloader_mmap_get_free_pages
p1736
atp1737
a(L3028481L
L0L
(lp1738
(lp1739
tp1740
a(L224879076L
L0L
(lp1741
(lp1742
tp1743
a(L142590671L
L0L
(lp1744
(lp1745
tp1746
a(L3028481L
L0L
(lp1747
(lp1748
tp1749
a(L94425498L
L3785322319L
(lp1750
(lp1751
Vesp_log_early_timestamp
p1752
atp1753
a(L3796519849L
L0L
(lp1754
(lp1755
tp1756
a(L4085121624L
L3785322319L
(lp1757
(lp1758
Vshould_load
p1759
atp1760
a(L3028481L
L0L
(lp1761
(lp1762
tp1763
a(L3792294891L
L3785322319L
(lp1764
(lp1765
Vesp_log_early_timestamp
p1766
atp1767
a(L106L
L0L
(lp1768
(lp1769
tp1770
a(L3815630522L
L0L
(lp1771
(lp1772
tp1773
a(L1373549048L
L3785322319L
(lp1774
(lp1775
Vesp_log_early_timestamp
p1776
atp1777
a(L2629678223L
L0L
(lp1778
(lp1779
tp1780
a(L2684012095L
L0L
(lp1781
(lp1782
tp1783
a(L3357777304L
L3785322319L
(lp1784
(lp1785
Vbootloader_mmap
p1786
atp1787
a(L4263458314L
L3785322319L
(lp1788
(lp1789
Vesp_log_early_timestamp
p1790
atp1791
a(L1698460186L
L0L
(lp1792
(lp1793
tp1794
a(L1782084270L
L0L
(lp1795
(lp1796
tp1797
a(L1704402255L
L0L
(lp1798
(lp1799
tp1800
a(L1595421496L
L3785322319L
(lp1801
(lp1802
Vbootloader_munmap
p1803
atp1804
a(L2757579158L
L0L
(lp1805
(lp1806
tp1807
a(L2356270618L
L3785322319L
(lp1808
(lp1809
Vbootloader_fill_random
p1810
atp1811
a(L3277879431L
L0L
(lp1812
(lp1813
tp1814
a(L3281573515L
L0L
(lp1815
(lp1816
tp1817
a(L3450268858L
L0L
(lp1818
(lp1819
tp1820
a(L3021749L
L0L
(lp1821
(lp1822
tp1823
a(L322434465L
L0L
(lp1824
(lp1825
tp1826
a(L2494883302L
L0L
(lp1827
(lp1828
tp1829
a(L2902417580L
L0L
(lp1830
(lp1831
tp1832
a(L2333422927L
L0L
(lp1833
(lp1834
tp1835
a(L22854698L
L0L
(lp1836
(lp1837
tp1838
a(L1426980959L
L0L
(lp1839
(lp1840
tp1841
a(L1841482652L
L0L
(lp1842
(lp1843
tp1844
a(L653501462L
L0L
(lp1845
(lp1846
tp1847
a(L3310548426L
L3785322319L
(lp1848
(lp1849
Vbootloader_sha256_data
p1850
atp1851
a(L90548756L
L0L
(lp1852
(lp1853
tp1854
a(L708495868L
L0L
(lp1855
(lp1856
tp1857
a(L2364005371L
L0L
(lp1858
(lp1859
tp1860
atp1861
sI1074244456
(Vwdt_hal_enable
p1862
(lp1863
(L2299130915L
L0L
(lp1864
(lp1865
tp1866
a(L165794138L
L0L
(lp1867
(lp1868
tp1869
a(L3360570486L
L0L
(lp1870
(lp1871
tp1872
a(L2847657174L
L0L
(lp1873
(lp1874
tp1875
atp1876
sI1074247284
(Vesp_rom_spiflash_read_status
p1877
(lp1878
(L862498644L
L0L
(lp1879
(lp1880
tp1881
a(L37338588L
L0L
(lp1882
(lp1883
tp1884
a(L4159619641L
L0L
(lp1885
(lp1886
tp1887
a(L2392720019L
L0L
(lp1888
(lp1889
tp1890
a(L2258688487L
L0L
(lp1891
(lp1892
tp1893
a(L4159619145L
L0L
(lp1894
(lp1895
tp1896
a(L157279427L
L0L
(lp1897
(lp1898
tp1899
a(L3117156279L
L0L
(lp1900
(lp1901
tp1902
a(L2123059967L
L0L
(lp1903
(lp1904
tp1905
a(L582177370L
L0L
(lp1906
(lp1907
tp1908
atp1909
sI1074248816
(V_fini
p1910
(lp1911
(L3493042598L
L0L
(lp1912
(lp1913
tp1914
atp1915
sI1074270064
(Vrtc_clk_init
p1916
(lp1917
(L727467787L
L0L
(lp1918
(lp1919
tp1920
a(L42671777L
L3785322319L
(lp1921
(lp1922
Vrtc_clk_cpu_freq_to_xtal
p1923
atp1924
a(L2802857839L
L3785322319L
(lp1925
(lp1926
Vrtc_clk_xtal_freq_get
p1927
atp1928
a(L3028481L
L0L
(lp1929
(lp1930
tp1931
a(L4284274517L
L3785322319L
(lp1932
(lp1933
Vrtc_clk_xtal_freq_estimate
p1934
atp1935
a(L2193942290L
L3785322319L
(lp1936
(lp1937
Vesp_log_early_timestamp
p1938
atp1939
a(L853900298L
L1157885199L
(lp1940
(lp1941
Vesp_rom_uart_tx_wait_idle
p1942
aVrtc_clk_xtal_freq_update
p1943
aVrtc_clk_apb_freq_update
p1944
aVrtc_clk_cpu_freq_get_config
p1945
aVrtc_clk_cpu_freq_mhz_to_config
p1946
atp1947
a(L1519108212L
L1880226080L
(lp1948
(lp1949
Vesp_log_early_timestamp
p1950
aVabort
p1951
atp1952
a(L2902417580L
L0L
(lp1953
(lp1954
tp1955
a(L1899970065L
L0L
(lp1956
(lp1957
tp1958
a(L377687546L
L3785322319L
(lp1959
(lp1960
Vrtc_clk_xtal_freq_estimate
p1961
atp1962
a(L1011118415L
L3785322319L
(lp1963
(lp1964
Vesp_log_early_timestamp
p1965
atp1966
a(L1642886347L
L3785322319L
(lp1967
(lp1968
Vrtc_clk_cpu_freq_set_config
p1969
atp1970
a(L912310138L
L3785322319L
(lp1971
(lp1972
Vrtc_clk_32k_enable
p1973
atp1974
a(L3191820416L
L1832448559L
(lp1975
(lp1976
Vrtc_clk_8m_enable
p1977
aVrtc_clk_fast_src_set
p1978
aVrtc_clk_slow_src_set
p1979
atp1980
a(L1232958848L
L0L
(lp1981
(lp1982
tp1983
atp1984
sI1074236536
(Vesp_rom_uart_tx_wait_idle
p1985
(lp1986
(L3784729872L
L0L
(lp1987
(lp1988
tp1989
a(L1301079727L
L0L
(lp1990
(lp1991
tp1992
a(L597952197L
L0L
(lp1993
(lp1994
tp1995
a(L1971823332L
L0L
(lp1996
(lp1997
tp1998
a(L3055926844L
L0L
(lp1999
(lp2000
tp2001
a(L3360570486L
L0L
(lp2002
(lp2003
tp2004
a(L3694491048L
L0L
(lp2005
(lp2006
tp2007
a(L106L
L0L
(lp2008
(lp2009
tp2010
atp2011
sI1074234744
(Vbootloader_flash_execute_command_common
p2012
(lp2013
(L3865052895L
L0L
(lp2014
(lp2015
tp2016
a(L3287175997L
L0L
(lp2017
(lp2018
tp2019
a(L4121451103L
L3785322319L
(lp2020
(lp2021
V__assert_func
p2022
atp2023
a(L3021749L
L0L
(lp2024
(lp2025
tp2026
a(L3999871943L
L0L
(lp2027
(lp2028
tp2029
a(L543316797L
L0L
(lp2030
(lp2031
tp2032
a(L2091933878L
L0L
(lp2033
(lp2034
tp2035
a(L1702379862L
L0L
(lp2036
(lp2037
tp2038
a(L3432464320L
L0L
(lp2039
(lp2040
tp2041
a(L3539375712L
L0L
(lp2042
(lp2043
tp2044
a(L3244449450L
L0L
(lp2045
(lp2046
tp2047
a(L4233404408L
L0L
(lp2048
(lp2049
tp2050
a(L2990329343L
L0L
(lp2051
(lp2052
tp2053
a(L2051090536L
L0L
(lp2054
(lp2055
tp2056
a(L3333696662L
L0L
(lp2057
(lp2058
tp2059
a(L963425213L
L0L
(lp2060
(lp2061
tp2062
a(L339491738L
L0L
(lp2063
(lp2064
tp2065
a(L3360570486L
L0L
(lp2066
(lp2067
tp2068
atp2069
sI1074235256
(Vbootloader_flash_unlock
p2070
(lp2071
(L485855552L
L3785322319L
(lp2072
(lp2073
Vesp_rom_spiflash_wait_idle
p2074
atp2075
a(L711923870L
L0L
(lp2076
(lp2077
tp2078
a(L3507311156L
L3785322319L
(lp2079
(lp2080
Vbootloader_execute_flash_command
p2081
atp2082
a(L4103218025L
L0L
(lp2083
(lp2084
tp2085
a(L2529045083L
L0L
(lp2086
(lp2087
tp2088
a(L1175784077L
L1832448559L
(lp2089
(lp2090
Vesp_rom_spiflash_wait_idle
p2091
aVbootloader_execute_flash_command
p2092
aVbootloader_execute_flash_command
p2093
atp2094
a(L106L
L0L
(lp2095
(lp2096
tp2097
a(L594961218L
L1880226080L
(lp2098
(lp2099
Vesp_rom_spiflash_wait_idle
p2100
aVbootloader_execute_flash_command
p2101
atp2102
a(L2993202392L
L0L
(lp2103
(lp2104
tp2105
a(L610618707L
L0L
(lp2106
(lp2107
tp2108
a(L2843273676L
L0L
(lp2109
(lp2110
tp2111
a(L192015437L
L0L
(lp2112
(lp2113
tp2114
a(L3154322046L
L1880226080L
(lp2115
(lp2116
Vbootloader_execute_flash_command
p2117
aVbootloader_execute_flash_command
p2118
atp2119
a(L1303560644L
L0L
(lp2120
(lp2121
tp2122
a(L1711531685L
L1880226080L
(lp2123
(lp2124
Vbootloader_execute_flash_command
p2125
aVbootloader_execute_flash_command
p2126
atp2127
a(L3658700047L
L0L
(lp2128
(lp2129
tp2130
a(L3430607254L
L0L
(lp2131
(lp2132
tp2133
a(L106L
L0L
(lp2134
(lp2135
tp2136
a(L1876788132L
L1832448559L
(lp2137
(lp2138
Vesp_rom_spiflash_wait_idle
p2139
aVbootloader_execute_flash_command
p2140
aVbootloader_execute_flash_command
p2141
atp2142
atp2143
sI1074238840
(Vload_image
p2144
(lp2145
(L1570861251L
L1832448559L
(lp2146
(lp2147
Vesp_log_early_timestamp
p2148
aVbootloader_random_disable
p2149
aVbootloader_ana_clock_glitch_reset_config
p2150
atp2151
a(L2118498116L
L0L
(lp2152
(lp2153
tp2154
a(L106L
L0L
(lp2155
(lp2156
tp2157
a(L3729451407L
L267944800L
(lp2158
(lp2159
Vmmu_hal_unmap_all
p2160
aVcache_ll_l1_get_bus
p2161
aVcache_ll_l1_enable_bus
p2162
aVcache_ll_l1_get_bus
p2163
aVcache_ll_l1_enable_bus
p2164
aVbootloader_console_deinit
p2165
atp2166
a(L1675573264L
L0L
(lp2167
(lp2168
tp2169
a(L2902417580L
L0L
(lp2170
(lp2171
tp2172
a(L1527825284L
L3785322319L
(lp2173
(lp2174
Vesp_log_early_timestamp
p2175
atp2176
a(L2668023328L
L0L
(lp2177
(lp2178
tp2179
a(L2604509000L
L0L
(lp2180
(lp2181
tp2182
a(L3020204L
L0L
(lp2183
(lp2184
tp2185
a(L2696021539L
L3785322319L
(lp2186
(lp2187
Vesp_log_early_timestamp
p2188
atp2189
a(L263320866L
L0L
(lp2190
(lp2191
tp2192
a(L3049851575L
L0L
(lp2193
(lp2194
tp2195
atp2196
sI1074244728
(Vrtc_clk_cpu_freq_to_pll_mhz
p2197
(lp2198
(L3231135830L
L0L
(lp2199
(lp2200
tp2201
a(L174379536L
L0L
(lp2202
(lp2203
tp2204
a(L3557954139L
L1880226080L
(lp2205
(lp2206
Vesp_rom_set_cpu_ticks_per_us
p2207
aVrtc_clk_wait_for_slow_cycle
p2208
atp2209
a(L4243791143L
L0L
(lp2210
(lp2211
tp2212
a(L3284807114L
L0L
(lp2213
(lp2214
tp2215
a(L94425498L
L3785322319L
(lp2216
(lp2217
Vabort
p2218
atp2219
a(L2258897019L
L0L
(lp2220
(lp2221
tp2222
a(L1113742378L
L0L
(lp2223
(lp2224
tp2225
a(L1306330990L
L0L
(lp2226
(lp2227
tp2228
atp2229
sI1074245752
(Vrtc_clk_apb_freq_update
p2230
(lp2231
(L3678163707L
L0L
(lp2232
(lp2233
tp2234
atp2235
sI1074267784
(Vbootloader_init
p2236
(lp2237
(L499404346L
L3785322319L
(lp2238
(lp2239
Vbootloader_init_mem
p2240
atp2241
a(L1921727804L
L0L
(lp2242
(lp2243
tp2244
a(L2338855416L
L3785322319L
(lp2245
(lp2246
V__assert_func
p2247
atp2248
a(L429644902L
L0L
(lp2249
(lp2250
tp2251
a(L281413315L
L0L
(lp2252
(lp2253
tp2254
a(L3813782018L
L0L
(lp2255
(lp2256
tp2257
a(L55090837L
L0L
(lp2258
(lp2259
tp2260
a(L3027019L
L0L
(lp2261
(lp2262
tp2263
a(L100355376L
L0L
(lp2264
(lp2265
tp2266
a(L231109807L
L1832448559L
(lp2267
(lp2268
Vbootloader_clear_bss_section
p2269
aVbootloader_common_vddsdio_configure
p2270
aVbootloader_clock_get_rated_freq_mhz
p2271
atp2272
a(L1391560485L
L1157885199L
(lp2273
(lp2274
Vbootloader_clock_configure
p2275
aVbootloader_console_init
p2276
aVbootloader_print_banner
p2277
aVbootloader_flash_update_id
p2278
aVbootloader_flash_xmc_startup
p2279
atp2280
a(L3270457412L
L3785322319L
(lp2281
(lp2282
Vesp_log_early_timestamp
p2283
atp2284
a(L3161879045L
L3785322319L
(lp2285
(lp2286
Vesp_log_early_timestamp
p2287
atp2288
a(L3360570486L
L0L
(lp2289
(lp2290
tp2291
a(L2444883382L
L3785322319L
(lp2292
(lp2293
Vbootloader_read_bootloader_header
p2294
atp2295
a(L2444883382L
L3785322319L
(lp2296
(lp2297
Vbootloader_check_bootloader_validity
p2298
atp2299
a(L2444883382L
L3785322319L
(lp2300
(lp2301
Vbootloader_init_spi_flash
p2302
atp2303
a(L3396584159L
L0L
(lp2304
(lp2305
tp2306
a(L3289072036L
L0L
(lp2307
(lp2308
tp2309
a(L3016266L
L0L
(lp2310
(lp2311
tp2312
a(L106L
L0L
(lp2313
(lp2314
tp2315
a(L3027019L
L0L
(lp2316
(lp2317
tp2318
a(L106L
L0L
(lp2319
(lp2320
tp2321
a(L3436818407L
L1880226080L
(lp2322
(lp2323
Vbootloader_config_wdt
p2324
aVbootloader_enable_random
p2325
atp2326
a(L1895147938L
L0L
(lp2327
(lp2328
tp2329
a(L2303211161L
L0L
(lp2330
(lp2331
tp2332
a(L106L
L0L
(lp2333
(lp2334
tp2335
a(L3027019L
L0L
(lp2336
(lp2337
tp2338
a(L97315L
L0L
(lp2339
(lp2340
tp2341
a(L106L
L0L
(lp2342
(lp2343
tp2344
a(L2595712451L
L3785322319L
(lp2345
(lp2346
Vesp_log_early_timestamp
p2347
atp2348
a(L106L
L0L
(lp2349
(lp2350
tp2351
a(L130705695L
L0L
(lp2352
(lp2353
tp2354
a(L362903958L
L0L
(lp2355
(lp2356
tp2357
a(L3189889016L
L0L
(lp2358
(lp2359
tp2360
a(L362391907L
L0L
(lp2361
(lp2362
tp2363
a(L3618946093L
L3785322319L
(lp2364
(lp2365
Vesp_log_early_timestamp
p2366
atp2367
a(L722191531L
L0L
(lp2368
(lp2369
tp2370
a(L362903958L
L0L
(lp2371
(lp2372
tp2373
a(L106L
L0L
(lp2374
(lp2375
tp2376
a(L121140021L
L3785322319L
(lp2377
(lp2378
Vesp_log_early_timestamp
p2379
atp2380
a(L1773768914L
L3785322319L
(lp2381
(lp2382
Vesp_log_early_timestamp
p2383
atp2384
atp2385
sI1074247812
(Vesp_rom_spiflash_write
p2386
(lp2387
(L62871884L
L0L
(lp2388
(lp2389
tp2390
a(L2258688483L
L0L
(lp2391
(lp2392
tp2393
a(L3360570486L
L0L
(lp2394
(lp2395
tp2396
a(L3368132847L
L0L
(lp2397
(lp2398
tp2399
a(L3106685981L
L0L
(lp2400
(lp2401
tp2402
a(L3488660639L
L3785322319L
(lp2403
(lp2404
Vesp_rom_spiflash_program_page_internal
p2405
atp2406
a(L3543402353L
L3785322319L
(lp2407
(lp2408
Vesp_rom_spiflash_program_page_internal
p2409
atp2410
a(L4222526342L
L0L
(lp2411
(lp2412
tp2413
a(L2004208511L
L0L
(lp2414
(lp2415
tp2416
a(L564470656L
L0L
(lp2417
(lp2418
tp2419
a(L441922648L
L3785322319L
(lp2420
(lp2421
Vesp_rom_spiflash_program_page_internal
p2422
atp2423
a(L2302069176L
L0L
(lp2424
(lp2425
tp2426
atp2427
sI1074241152
(Vbootloader_util_regions_overlap
p2428
(lp2429
(L2762640130L
L0L
(lp2430
(lp2431
tp2432
a(L3265846077L
L0L
(lp2433
(lp2434
tp2435
a(L872085536L
L3785322319L
(lp2436
(lp2437
V__assert_func
p2438
atp2439
a(L97642L
L0L
(lp2440
(lp2441
tp2442
a(L808423032L
L0L
(lp2443
(lp2444
tp2445
a(L366123053L
L0L
(lp2446
(lp2447
tp2448
a(L2258867228L
L0L
(lp2449
(lp2450
tp2451
a(L1253626734L
L0L
(lp2452
(lp2453
tp2454
a(L2258897019L
L0L
(lp2455
(lp2456
tp2457
a(L3109269495L
L0L
(lp2458
(lp2459
tp2460
atp2461
sI1074248064
(Vesp_rom_spiflash_read
p2462
(lp2463
(L3103566547L
L0L
(lp2464
(lp2465
tp2466
a(L146874215L
L0L
(lp2467
(lp2468
tp2469
a(L2860271684L
L0L
(lp2470
(lp2471
tp2472
a(L2355528925L
L0L
(lp2473
(lp2474
tp2475
a(L106L
L0L
(lp2476
(lp2477
tp2478
a(L633884026L
L0L
(lp2479
(lp2480
tp2481
a(L106L
L0L
(lp2482
(lp2483
tp2484
a(L582979172L
L0L
(lp2485
(lp2486
tp2487
a(L558184504L
L0L
(lp2488
(lp2489
tp2490
a(L2033454123L
L0L
(lp2491
(lp2492
tp2493
a(L336550648L
L0L
(lp2494
(lp2495
tp2496
a(L2122946069L
L0L
(lp2497
(lp2498
tp2499
a(L106L
L0L
(lp2500
(lp2501
tp2502
a(L828100045L
L3785322319L
(lp2503
(lp2504
Vesp_rom_spiflash_wait_idle
p2505
atp2506
a(L3021737L
L0L
(lp2507
(lp2508
tp2509
a(L106L
L0L
(lp2510
(lp2511
tp2512
a(L1868280504L
L0L
(lp2513
(lp2514
tp2515
a(L106L
L0L
(lp2516
(lp2517
tp2518
a(L750281353L
L0L
(lp2519
(lp2520
tp2521
a(L3897437082L
L0L
(lp2522
(lp2523
tp2524
a(L4122060822L
L0L
(lp2525
(lp2526
tp2527
a(L3714080218L
L0L
(lp2528
(lp2529
tp2530
a(L2989032L
L0L
(lp2531
(lp2532
tp2533
a(L3819849625L
L0L
(lp2534
(lp2535
tp2536
a(L224514718L
L0L
(lp2537
(lp2538
tp2539
a(L893190794L
L0L
(lp2540
(lp2541
tp2542
a(L3901821471L
L0L
(lp2543
(lp2544
tp2545
a(L418095393L
L0L
(lp2546
(lp2547
tp2548
a(L2921907736L
L0L
(lp2549
(lp2550
tp2551
a(L4023125337L
L0L
(lp2552
(lp2553
tp2554
a(L1389476733L
L0L
(lp2555
(lp2556
tp2557
a(L3207784758L
L0L
(lp2558
(lp2559
tp2560
a(L1109930875L
L0L
(lp2561
(lp2562
tp2563
a(L3333707777L
L0L
(lp2564
(lp2565
tp2566
a(L3251955268L
L0L
(lp2567
(lp2568
tp2569
a(L3418540920L
L0L
(lp2570
(lp2571
tp2572
a(L910618439L
L0L
(lp2573
(lp2574
tp2575
a(L97689L
L0L
(lp2576
(lp2577
tp2578
a(L2258897019L
L0L
(lp2579
(lp2580
tp2581
a(L4014024819L
L0L
(lp2582
(lp2583
tp2584
a(L3621567083L
L0L
(lp2585
(lp2586
tp2587
atp2588
sI1074237320
(Vbootloader_common_select_otadata
p2589
(lp2590
(L4071767857L
L0L
(lp2591
(lp2592
tp2593
a(L1999329187L
L0L
(lp2594
(lp2595
tp2596
a(L3846398843L
L0L
(lp2597
(lp2598
tp2599
a(L2501968171L
L0L
(lp2600
(lp2601
tp2602
a(L3360570486L
L0L
(lp2603
(lp2604
tp2605
a(L2045232488L
L0L
(lp2606
(lp2607
tp2608
a(L1243525916L
L0L
(lp2609
(lp2610
tp2611
a(L3094144427L
L0L
(lp2612
(lp2613
tp2614
a(L2399509845L
L0L
(lp2615
(lp2616
tp2617
a(L1641201884L
L0L
(lp2618
(lp2619
tp2620
atp2621
sI1074235796
(Vbootloader_flash_cs_timing_config
p2622
(lp2623
(L1940014330L
L0L
(lp2624
(lp2625
tp2626
atp2627
sI1074245780
(Vrtc_clk_cpu_freq_to_xtal
p2628
(lp2629
(L767415990L
L3785322319L
(lp2630
(lp2631
Vesp_rom_set_cpu_ticks_per_us
p2632
atp2633
a(L94425498L
L3785322319L
(lp2634
(lp2635
Vabort
p2636
atp2637
a(L351179928L
L3785322319L
(lp2638
(lp2639
Vrtc_clk_apb_freq_update
p2640
atp2641
a(L2258867230L
L0L
(lp2642
(lp2643
tp2644
a(L164704077L
L0L
(lp2645
(lp2646
tp2647
atp2648
sI1074245008
(Vrtc_clk_8m_enable
p2649
(lp2650
(L1226398614L
L0L
(lp2651
(lp2652
tp2653
a(L1216742732L
L0L
(lp2654
(lp2655
tp2656
a(L2151320156L
L0L
(lp2657
(lp2658
tp2659
a(L711175840L
L0L
(lp2660
(lp2661
tp2662
a(L3360570486L
L0L
(lp2663
(lp2664
tp2665
a(L1318267208L
L0L
(lp2666
(lp2667
tp2668
a(L2724162565L
L0L
(lp2669
(lp2670
tp2671
atp2672
sI1074241680
(Vprocess_appended_hash_and_sig
p2673
(lp2674
(L1668084157L
L0L
(lp2675
(lp2676
tp2677
a(L2910371777L
L0L
(lp2678
(lp2679
tp2680
a(L4285188111L
L0L
(lp2681
(lp2682
tp2683
a(L1151175705L
L0L
(lp2684
(lp2685
tp2686
a(L97689L
L0L
(lp2687
(lp2688
tp2689
a(L3294304061L
L3785322319L
(lp2690
(lp2691
Vesp_log_early_timestamp
p2692
atp2693
a(L3620623082L
L0L
(lp2694
(lp2695
tp2696
a(L1464893571L
L3785322319L
(lp2697
(lp2698
Vbootloader_flash_read
p2699
atp2700
a(L735741265L
L0L
(lp2701
(lp2702
tp2703
atp2704
sI1074269584
(Vbootloader_config_wdt
p2705
(lp2706
(L1733203887L
L505859776L
(lp2707
(lp2708
Vwdt_hal_write_protect_disable
p2709
aVwdt_hal_set_flashboot_en
p2710
aVwdt_hal_write_protect_enable
p2711
aVwdt_hal_init
p2712
aVrtc_clk_slow_freq_get_hz
p2713
aVwdt_hal_write_protect_disable
p2714
aVwdt_hal_config_stage
p2715
aVwdt_hal_enable
p2716
aVwdt_hal_write_protect_enable
p2717
aVwdt_hal_write_protect_disable
p2718
aVwdt_hal_set_flashboot_en
p2719
aVwdt_hal_write_protect_enable
p2720
atp2721
atp2722
sI1074269840
(Vesp_cpu_configure_region_protection
p2723
(lp2724
(L2573504706L
L0L
(lp2725
(lp2726
tp2727
a(L180431425L
L3785322319L
(lp2728
(lp2729
Vmpu_hal_set_region_access
p2730
atp2731
a(L2537388152L
L3785322319L
(lp2732
(lp2733
Vmpu_hal_set_region_access
p2734
atp2735
atp2736
sI1074238104
(Vbootloader_enable_wp
p2737
(lp2738
(L1117825804L
L3785322319L
(lp2739
(lp2740
Vbootloader_execute_flash_command
p2741
atp2742
atp2743
sI1074235544
(Vbootloader_flash_read_sfdp
p2744
(lp2745
(L711701400L
L0L
(lp2746
(lp2747
tp2748
a(L3305374083L
L3785322319L
(lp2749
(lp2750
V__assert_func
p2751
atp2752
a(L3704332455L
L3785322319L
(lp2753
(lp2754
Vbootloader_flash_execute_command_common
p2755
atp2756
atp2757
sI1074236832
(Vefuse_hal_get_minor_chip_version
p2758
(lp2759
(L2721608854L
L0L
(lp2760
(lp2761
tp2762
atp2763
sI1074238624
(Vtry_load_partition
p2764
(lp2765
(L1263750142L
L0L
(lp2766
(lp2767
tp2768
a(L2258688482L
L0L
(lp2769
(lp2770
tp2771
a(L3360570486L
L0L
(lp2772
(lp2773
tp2774
a(L530241438L
L3785322319L
(lp2775
(lp2776
Vbootloader_load_image
p2777
atp2778
a(L2855648545L
L3785322319L
(lp2779
(lp2780
Vesp_log_early_timestamp
p2781
atp2782
atp2783
sI1074244012
(Vwdt_hal_config_stage
p2784
(lp2785
(L331558507L
L0L
(lp2786
(lp2787
tp2788
a(L4279082939L
L0L
(lp2789
(lp2790
tp2791
a(L93674324L
L0L
(lp2792
(lp2793
tp2794
a(L2902417580L
L0L
(lp2795
(lp2796
tp2797
a(L1485495983L
L0L
(lp2798
(lp2799
tp2800
a(L3020187L
L0L
(lp2801
(lp2802
tp2803
a(L94425498L
L3785322319L
(lp2804
(lp2805
Vabort
p2806
atp2807
a(L2718517169L
L0L
(lp2808
(lp2809
tp2810
a(L3360570486L
L0L
(lp2811
(lp2812
tp2813
a(L1996799187L
L0L
(lp2814
(lp2815
tp2816
a(L2771194801L
L0L
(lp2817
(lp2818
tp2819
a(L4278159418L
L0L
(lp2820
(lp2821
tp2822
a(L93674324L
L0L
(lp2823
(lp2824
tp2825
a(L3020204L
L0L
(lp2826
(lp2827
tp2828
a(L3391750594L
L0L
(lp2829
(lp2830
tp2831
a(L3020187L
L0L
(lp2832
(lp2833
tp2834
a(L106L
L0L
(lp2835
(lp2836
tp2837
a(L239610384L
L0L
(lp2838
(lp2839
tp2840
a(L831450820L
L0L
(lp2841
(lp2842
tp2843
a(L3340783449L
L0L
(lp2844
(lp2845
tp2846
atp2847
sI1074238124
(Vbootloader_mmap_get_free_pages
p2848
(lp2849
(L1496516875L
L0L
(lp2850
(lp2851
tp2852
atp2853
sI1074247084
(Vrtc_clk_cal_ratio
p2854
(lp2855
(L517834709L
L3785322319L
(lp2856
(lp2857
Vrtc_clk_cal_internal
p2858
atp2859
atp2860
sI1074238132
(Vbootloader_fill_random
p2861
(lp2862
(L387180576L
L0L
(lp2863
(lp2864
tp2865
a(L3718897L
L3785322319L
(lp2866
(lp2867
V__assert_func
p2868
atp2869
a(L1882547218L
L0L
(lp2870
(lp2871
tp2872
a(L2910371777L
L0L
(lp2873
(lp2874
tp2875
a(L95634693L
L0L
(lp2876
(lp2877
tp2878
a(L3630908706L
L0L
(lp2879
(lp2880
tp2881
a(L160162640L
L0L
(lp2882
(lp2883
tp2884
a(L97689L
L0L
(lp2885
(lp2886
tp2887
a(L3360570486L
L0L
(lp2888
(lp2889
tp2890
atp2891
sI1074245300
(Vrtc_clk_slow_src_get
p2892
(lp2893
(L3966094304L
L0L
(lp2894
(lp2895
tp2896
a(L3020187L
L0L
(lp2897
(lp2898
tp2899
a(L2902417580L
L0L
(lp2900
(lp2901
tp2902
a(L2258688485L
L0L
(lp2903
(lp2904
tp2905
a(L3360570486L
L0L
(lp2906
(lp2907
tp2908
atp2909
sI1074236848
(Vesp_dport_access_reg_read
p2910
(lp2911
(L1099794772L
L0L
(lp2912
(lp2913
tp2914
atp2915
sI1074244528
(Vmmu_hal_unmap_all
p2916
(lp2917
(L1381828061L
L0L
(lp2918
(lp2919
tp2920
a(L2010554219L
L0L
(lp2921
(lp2922
tp2923
a(L3360570486L
L0L
(lp2924
(lp2925
tp2926
atp2927
sI1074246576
(Vrtc_clk_apb_freq_get
p2928
(lp2929
(L756535420L
L0L
(lp2930
(lp2931
tp2932
atp2933
sI1074240700
(Vbootloader_console_deinit
p2934
(lp2935
(L615143355L
L0L
(lp2936
(lp2937
tp2938
atp2939
sI1074236860
(Vis_xmc_chip_strict
p2940
(lp2941
(L1286841609L
L0L
(lp2942
(lp2943
tp2944
a(L2234016759L
L0L
(lp2945
(lp2946
tp2947
a(L1069027148L
L0L
(lp2948
(lp2949
tp2950
a(L3021749L
L0L
(lp2951
(lp2952
tp2953
a(L1900148749L
L0L
(lp2954
(lp2955
tp2956
a(L1936875721L
L0L
(lp2957
(lp2958
tp2959
a(L3356166509L
L0L
(lp2960
(lp2961
tp2962
a(L1937769451L
L0L
(lp2963
(lp2964
tp2965
a(L2137658907L
L0L
(lp2966
(lp2967
tp2968
a(L4265949734L
L0L
(lp2969
(lp2970
tp2971
a(L3360570486L
L0L
(lp2972
(lp2973
tp2974
atp2975
sI1074241208
(Vverify_load_addresses
p2976
(lp2977
(L2764487219L
L0L
(lp2978
(lp2979
tp2980
a(L106L
L0L
(lp2981
(lp2982
tp2983
a(L97642L
L0L
(lp2984
(lp2985
tp2986
a(L647419855L
L3785322319L
(lp2987
(lp2988
V__assert_func
p2989
atp2990
a(L201043449L
L0L
(lp2991
(lp2992
tp2993
a(L106L
L0L
(lp2994
(lp2995
tp2996
a(L1895786824L
L0L
(lp2997
(lp2998
tp2999
a(L106L
L0L
(lp3000
(lp3001
tp3002
a(L3188534306L
L3785322319L
(lp3003
(lp3004
Vbootloader_util_regions_overlap
p3005
atp3006
a(L2858137167L
L3785322319L
(lp3007
(lp3008
Vbootloader_util_regions_overlap
p3009
atp3010
a(L3028481L
L0L
(lp3011
(lp3012
tp3013
a(L4197490978L
L3785322319L
(lp3014
(lp3015
Vbootloader_util_regions_overlap
p3016
atp3017
a(L4263116871L
L0L
(lp3018
(lp3019
tp3020
a(L524317765L
L0L
(lp3021
(lp3022
tp3023
a(L1032381749L
L0L
(lp3024
(lp3025
tp3026
a(L2837304413L
L0L
(lp3027
(lp3028
tp3029
a(L677569396L
L3785322319L
(lp3030
(lp3031
Vverify_load_addresses
p3032
atp3033
a(L1351513776L
L0L
(lp3034
(lp3035
tp3036
a(L956755582L
L0L
(lp3037
(lp3038
tp3039
a(L4269179826L
L0L
(lp3040
(lp3041
tp3042
a(L4254671302L
L0L
(lp3043
(lp3044
tp3045
a(L106L
L0L
(lp3046
(lp3047
tp3048
a(L791975622L
L0L
(lp3049
(lp3050
tp3051
a(L106L
L0L
(lp3052
(lp3053
tp3054
a(L3807273487L
L3785322319L
(lp3055
(lp3056
Vbootloader_util_regions_overlap
p3057
atp3058
a(L3028481L
L0L
(lp3059
(lp3060
tp3061
a(L838914198L
L3785322319L
(lp3062
(lp3063
Vbootloader_util_regions_overlap
p3064
atp3065
a(L4291728611L
L0L
(lp3066
(lp3067
tp3068
a(L108014158L
L0L
(lp3069
(lp3070
tp3071
a(L2764195728L
L0L
(lp3072
(lp3073
tp3074
a(L2743341656L
L0L
(lp3075
(lp3076
tp3077
a(L182882711L
L0L
(lp3078
(lp3079
tp3080
a(L3883470911L
L0L
(lp3081
(lp3082
tp3083
a(L297163306L
L0L
(lp3084
(lp3085
tp3086
a(L1900059593L
L0L
(lp3087
(lp3088
tp3089
a(L1086514145L
L0L
(lp3090
(lp3091
tp3092
a(L3742770635L
L0L
(lp3093
(lp3094
tp3095
a(L3929371936L
L0L
(lp3096
(lp3097
tp3098
a(L2805932787L
L0L
(lp3099
(lp3100
tp3101
a(L4072848040L
L0L
(lp3102
(lp3103
tp3104
a(L106L
L0L
(lp3105
(lp3106
tp3107
a(L955505162L
L0L
(lp3108
(lp3109
tp3110
a(L307917400L
L0L
(lp3111
(lp3112
tp3113
a(L3020204L
L0L
(lp3114
(lp3115
tp3116
a(L1932590102L
L3785322319L
(lp3117
(lp3118
Vesp_log_early_timestamp
p3119
atp3120
a(L1303560396L
L0L
(lp3121
(lp3122
tp3123
a(L955505038L
L0L
(lp3124
(lp3125
tp3126
a(L1303560427L
L0L
(lp3127
(lp3128
tp3129
atp3130
sI1074268360
(Vbootloader_common_vddsdio_configure
p3131
(lp3132
(L1829974089L
L3785322319L
(lp3133
(lp3134
Vrtc_vddsdio_get_config
p3135
atp3136
a(L1861601044L
L3785322319L
(lp3137
(lp3138
Vrtc_vddsdio_set_config
p3139
atp3140
a(L3360570486L
L0L
(lp3141
(lp3142
tp3143
atp3144
sI1074237636
(Vbootloader_munmap
p3145
(lp3146
(L1390725234L
L0L
(lp3147
(lp3148
tp3149
a(L1679328888L
L0L
(lp3150
(lp3151
tp3152
a(L3360570486L
L0L
(lp3153
(lp3154
tp3155
atp3156
sI1074240964
(Vprocess_image_header
p3157
(lp3158
(L1494855051L
L3785322319L
(lp3159
(lp3160
Vbootloader_flash_read
p3161
atp3162
a(L3020204L
L0L
(lp3163
(lp3164
tp3165
a(L4205021202L
L0L
(lp3166
(lp3167
tp3168
a(L321261932L
L0L
(lp3169
(lp3170
tp3171
a(L1161397362L
L3785322319L
(lp3172
(lp3173
Vbootloader_sha256_start
p3174
atp3175
a(L2062774299L
L3785322319L
(lp3176
(lp3177
Vbootloader_sha256_data
p3178
atp3179
a(L1291118193L
L0L
(lp3180
(lp3181
tp3182
a(L3028481L
L0L
(lp3183
(lp3184
tp3185
a(L2263003155L
L3785322319L
(lp3186
(lp3187
Vesp_log_early_timestamp
p3188
atp3189
a(L3200755424L
L0L
(lp3190
(lp3191
tp3192
a(L2983970029L
L0L
(lp3193
(lp3194
tp3195
a(L4235213884L
L3785322319L
(lp3196
(lp3197
Vbootloader_common_check_chip_validity
p3198
atp3199
a(L4144303915L
L0L
(lp3200
(lp3201
tp3202
a(L3028481L
L0L
(lp3203
(lp3204
tp3205
a(L961108534L
L3785322319L
(lp3206
(lp3207
Vesp_log_early_timestamp
p3208
atp3209
a(L2852701393L
L0L
(lp3210
(lp3211
tp3212
a(L2122516551L
L0L
(lp3213
(lp3214
tp3215
a(L3064492592L
L0L
(lp3216
(lp3217
tp3218
atp3219
sI1074245568
(Vrtc_clk_cpu_freq_get_config
p3220
(lp3221
(L2604396143L
L0L
(lp3222
(lp3223
tp3224
a(L3020187L
L0L
(lp3225
(lp3226
tp3227
a(L3020187L
L0L
(lp3228
(lp3229
tp3230
a(L2325136122L
L3785322319L
(lp3231
(lp3232
Vrtc_clk_xtal_freq_get
p3233
atp3234
a(L3789795478L
L0L
(lp3235
(lp3236
tp3237
a(L2453536501L
L1880226080L
(lp3238
(lp3239
Vesp_log_early_timestamp
p3240
aVabort
p3241
atp3242
a(L2004095108L
L0L
(lp3243
(lp3244
tp3245
a(L3020187L
L0L
(lp3246
(lp3247
tp3248
a(L3028481L
L0L
(lp3249
(lp3250
tp3251
a(L38508693L
L0L
(lp3252
(lp3253
tp3254
a(L187152368L
L0L
(lp3255
(lp3256
tp3257
a(L1161083655L
L0L
(lp3258
(lp3259
tp3260
a(L1395485899L
L0L
(lp3261
(lp3262
tp3263
a(L2070600034L
L0L
(lp3264
(lp3265
tp3266
atp3267
sI1074269888
(Vrtc_clk_xtal_freq_estimate
p3268
(lp3269
(L1823831978L
L1880226080L
(lp3270
(lp3271
Vrtc_clk_8m_enabled
p3272
aVrtc_clk_8md256_enabled
p3273
atp3274
a(L2449794434L
L3785322319L
(lp3275
(lp3276
Vrtc_clk_8m_enable
p3277
atp3278
a(L2568567204L
L3785322319L
(lp3279
(lp3280
Vrtc_clk_cal_ratio
p3281
atp3282
a(L3934977694L
L0L
(lp3283
(lp3284
tp3285
a(L3955289886L
L0L
(lp3286
(lp3287
tp3288
a(L655047802L
L3785322319L
(lp3289
(lp3290
Vesp_log_early_timestamp
p3291
atp3292
a(L2307427870L
L0L
(lp3293
(lp3294
tp3295
a(L1281346514L
L3785322319L
(lp3296
(lp3297
Vrtc_clk_8m_enable
p3298
atp3299
a(L3909119106L
L0L
(lp3300
(lp3301
tp3302
a(L2154705369L
L3785322319L
(lp3303
(lp3304
Vesp_log_early_timestamp
p3305
atp3306
a(L3304487880L
L0L
(lp3307
(lp3308
tp3309
a(L1641150486L
L0L
(lp3310
(lp3311
tp3312
a(L1045221861L
L3785322319L
(lp3313
(lp3314
Vesp_log_early_timestamp
p3315
atp3316
atp3317
sI1074236620
(Vesp_rom_uart_set_clock_baudrate
p3318
(lp3319
(L2889646162L
L0L
(lp3320
(lp3321
tp3322
a(L2295279860L
L0L
(lp3323
(lp3324
tp3325
a(L2805931291L
L0L
(lp3326
(lp3327
tp3328
a(L2901979283L
L0L
(lp3329
(lp3330
tp3331
atp3332
sI1074235596
(Vbootloader_read_flash_id
p3333
(lp3334
(L549578328L
L3785322319L
(lp3335
(lp3336
Vbootloader_execute_flash_command
p3337
atp3338
atp3339
sI1074239692
(Vbootloader_utility_get_selected_boot_partition
p3340
(lp3341
(L2938832293L
L0L
(lp3342
(lp3343
tp3344
a(L857317950L
L0L
(lp3345
(lp3346
tp3347
a(L3363685120L
L3785322319L
(lp3348
(lp3349
Vesp_log_early_timestamp
p3350
atp3351
a(L194246498L
L0L
(lp3352
(lp3353
tp3354
a(L3360570486L
L0L
(lp3355
(lp3356
tp3357
a(L3118387733L
L3785322319L
(lp3358
(lp3359
Vbootloader_mmap
p3360
atp3361
a(L2911809525L
L3785322319L
(lp3362
(lp3363
Vesp_log_early_timestamp
p3364
atp3365
a(L3605572256L
L1880226080L
(lp3366
(lp3367
Vbootloader_munmap
p3368
aVbootloader_common_ota_select_invalid
p3369
atp3370
a(L2911028409L
L0L
(lp3371
(lp3372
tp3373
a(L726754926L
L3785322319L
(lp3374
(lp3375
Vbootloader_common_get_active_otadata
p3376
atp3377
a(L106L
L0L
(lp3378
(lp3379
tp3380
a(L4179097382L
L0L
(lp3381
(lp3382
tp3383
a(L788494392L
L3785322319L
(lp3384
(lp3385
Vbootloader_common_ota_select_invalid
p3386
atp3387
a(L464911337L
L0L
(lp3388
(lp3389
tp3390
a(L2679612405L
L3785322319L
(lp3391
(lp3392
Vesp_log_early_timestamp
p3393
atp3394
a(L3833270346L
L0L
(lp3395
(lp3396
tp3397
a(L1641201884L
L0L
(lp3398
(lp3399
tp3400
a(L2752910511L
L3785322319L
(lp3401
(lp3402
Vesp_log_early_timestamp
p3403
atp3404
a(L2302032704L
L0L
(lp3405
(lp3406
tp3407
a(L1173788779L
L3785322319L
(lp3408
(lp3409
Vbootloader_common_ota_select_crc
p3410
atp3411
a(L4188515782L
L0L
(lp3412
(lp3413
tp3414
a(L1324800084L
L3785322319L
(lp3415
(lp3416
Vbootloader_common_ota_select_crc
p3417
atp3418
a(L1299866312L
L0L
(lp3419
(lp3420
tp3421
a(L1224297230L
L0L
(lp3422
(lp3423
tp3424
a(L2234034556L
L3785322319L
(lp3425
(lp3426
Vesp_log_early_timestamp
p3427
atp3428
a(L692119096L
L3785322319L
(lp3429
(lp3430
Vesp_log_early_timestamp
p3431
atp3432
atp3433
sI1074240716
(V__assert_func
p3434
(lp3435
(L2202676295L
L0L
(lp3436
(lp3437
tp3438
a(L106L
L0L
(lp3439
(lp3440
tp3441
atp3442
sI1074244556
(Vefuse_hal_get_rated_freq_mhz
p3443
(lp3444
(L3060225221L
L0L
(lp3445
(lp3446
tp3447
a(L338960367L
L0L
(lp3448
(lp3449
tp3450
a(L3360570486L
L0L
(lp3451
(lp3452
tp3453
atp3454
sI1074247116
(Vrtc_clk_wait_for_slow_cycle
p3455
(lp3456
(L863334013L
L0L
(lp3457
(lp3458
tp3459
a(L287687718L
L0L
(lp3460
(lp3461
tp3462
a(L3360570486L
L0L
(lp3463
(lp3464
tp3465
a(L2664777485L
L0L
(lp3466
(lp3467
tp3468
a(L1300789833L
L0L
(lp3469
(lp3470
tp3471
a(L1259765481L
L0L
(lp3472
(lp3473
tp3474
a(L682787097L
L0L
(lp3475
(lp3476
tp3477
a(L219004219L
L3785322319L
(lp3478
(lp3479
Vesp_log_early_timestamp
p3480
atp3481
atp3482
sI1074270660
(Vrtc_vddsdio_set_config
p3483
(lp3484
(L403113052L
L0L
(lp3485
(lp3486
tp3487
atp3488
sI1074269144
(Vbootloader_flash_update_id
p3489
(lp3490
(L1111819261L
L3785322319L
(lp3491
(lp3492
Vbootloader_read_flash_id
p3493
atp3494
atp3495
sI1074237396
(Vspi_to_esp_err
p3496
(lp3497
(L3481169892L
L0L
(lp3498
(lp3499
tp3500
a(L2420870439L
L0L
(lp3501
(lp3502
tp3503
a(L3952441574L
L0L
(lp3504
(lp3505
tp3506
a(L3126521138L
L0L
(lp3507
(lp3508
tp3509
atp3510
sI1074247380
(Vesp_rom_spiflash_wait_idle
p3511
(lp3512
(L3233077282L
L0L
(lp3513
(lp3514
tp3515
a(L2023766174L
L0L
(lp3516
(lp3517
tp3518
a(L2805935263L
L0L
(lp3519
(lp3520
tp3521
a(L3086959262L
L0L
(lp3522
(lp3523
tp3524
a(L4161019926L
L3785322319L
(lp3525
(lp3526
Vesp_rom_spiflash_read_status
p3527
atp3528
atp3529
sI1074238672
(Vcache_ll_l1_enable_bus
p3530
(lp3531
(L3215630455L
L0L
(lp3532
(lp3533
tp3534
atp3535
sI1074245328
(Vrtc_clk_slow_freq_get_hz
p3536
(lp3537
(L1826267122L
L3785322319L
(lp3538
(lp3539
Vrtc_clk_slow_src_get
p3540
atp3541
a(L4155162468L
L0L
(lp3542
(lp3543
tp3544
a(L2567825746L
L0L
(lp3545
(lp3546
tp3547
a(L3360570486L
L0L
(lp3548
(lp3549
tp3550
atp3551
sI1074246620
(Vrtc_clk_cal_internal
p3552
(lp3553
(L3164614328L
L0L
(lp3554
(lp3555
tp3556
a(L1035880206L
L3785322319L
(lp3557
(lp3558
V__assert_func
p3559
atp3560
a(L1752843054L
L0L
(lp3561
(lp3562
tp3563
a(L1673513644L
L0L
(lp3564
(lp3565
tp3566
a(L2411932162L
L3785322319L
(lp3567
(lp3568
Vrtc_clk_slow_src_get
p3569
atp3570
a(L3008910671L
L0L
(lp3571
(lp3572
tp3573
a(L97689L
L0L
(lp3574
(lp3575
tp3576
a(L1700160711L
L0L
(lp3577
(lp3578
tp3579
a(L3028464L
L0L
(lp3580
(lp3581
tp3582
a(L3028481L
L0L
(lp3583
(lp3584
tp3585
a(L3450258728L
L0L
(lp3586
(lp3587
tp3588
a(L966086371L
L3785322319L
(lp3589
(lp3590
Vrtc_clk_xtal_freq_get
p3591
atp3592
a(L2780079961L
L0L
(lp3593
(lp3594
tp3595
a(L3876563396L
L0L
(lp3596
(lp3597
tp3598
a(L770350265L
L3785322319L
(lp3599
(lp3600
Vesp_log_early_timestamp
p3601
atp3602
a(L2258688482L
L0L
(lp3603
(lp3604
tp3605
a(L3360570486L
L0L
(lp3606
(lp3607
tp3608
a(L3553505594L
L0L
(lp3609
(lp3610
tp3611
a(L403361192L
L0L
(lp3612
(lp3613
tp3614
a(L3243404432L
L3785322319L
(lp3615
(lp3616
Vrtc_clk_8m_enable
p3617
atp3618
a(L2116874105L
L0L
(lp3619
(lp3620
tp3621
a(L569203943L
L0L
(lp3622
(lp3623
tp3624
a(L2910371777L
L0L
(lp3625
(lp3626
tp3627
a(L2902417580L
L0L
(lp3628
(lp3629
tp3630
a(L96677711L
L0L
(lp3631
(lp3632
tp3633
a(L3020204L
L0L
(lp3634
(lp3635
tp3636
a(L2371312852L
L0L
(lp3637
(lp3638
tp3639
a(L3429540926L
L0L
(lp3640
(lp3641
tp3642
a(L3028464L
L0L
(lp3643
(lp3644
tp3645
a(L3436351672L
L3785322319L
(lp3646
(lp3647
Vrtc_clk_8m_enable
p3648
atp3649
atp3650
sI1074236376
(Vbootloader_flash_dummy_config
p3651
(lp3652
(L262000646L
L0L
(lp3653
(lp3654
tp3655
a(L2761717557L
L0L
(lp3656
(lp3657
tp3658
a(L1849044936L
L0L
(lp3659
(lp3660
tp3661
a(L708753936L
L0L
(lp3662
(lp3663
tp3664
a(L1010450057L
L0L
(lp3665
(lp3666
tp3667
a(L3020204L
L0L
(lp3668
(lp3669
tp3670
a(L1610443405L
L0L
(lp3671
(lp3672
tp3673
a(L4032120524L
L0L
(lp3674
(lp3675
tp3676
a(L2336993863L
L0L
(lp3677
(lp3678
tp3679
a(L1298875775L
L0L
(lp3680
(lp3681
tp3682
a(L3880393601L
L0L
(lp3683
(lp3684
tp3685
a(L3328946209L
L0L
(lp3686
(lp3687
tp3688
a(L1610443436L
L0L
(lp3689
(lp3690
tp3691
atp3692
sI1074268648
(Vbootloader_init_mem
p3693
(lp3694
(L1287383080L
L3785322319L
(lp3695
(lp3696
Vesp_cpu_configure_region_protection
p3697
atp3698
atp3699
sI1074269160
(Vbootloader_init_spi_flash
p3700
(lp3701
(L4161604356L
L2485746240L
(lp3702
(lp3703
Vbootloader_flash_gpio_config
p3704
aVbootloader_flash_dummy_config
p3705
aVbootloader_flash_cs_timing_config
p3706
aVbootloader_flash_unlock
p3707
atp3708
a(L579676381L
L0L
(lp3709
(lp3710
tp3711
a(L3566972032L
L0L
(lp3712
(lp3713
tp3714
a(L3201442055L
L0L
(lp3715
(lp3716
tp3717
a(L498638759L
L3785322319L
(lp3718
(lp3719
Vesp_log_early_timestamp
p3720
atp3721
a(L2091740620L
L0L
(lp3722
(lp3723
tp3724
a(L2095434704L
L0L
(lp3725
(lp3726
tp3727
a(L2135146107L
L0L
(lp3728
(lp3729
tp3730
a(L2120369275L
L0L
(lp3731
(lp3732
tp3733
a(L703426129L
L0L
(lp3734
(lp3735
tp3736
a(L3711868385L
L3785322319L
(lp3737
(lp3738
Vesp_log_early_timestamp
p3739
atp3740
a(L93674324L
L0L
(lp3741
(lp3742
tp3743
a(L2471937606L
L0L
(lp3744
(lp3745
tp3746
a(L3652859468L
L0L
(lp3747
(lp3748
tp3749
a(L460457925L
L0L
(lp3750
(lp3751
tp3752
a(L3660255913L
L0L
(lp3753
(lp3754
tp3755
a(L2893156605L
L3785322319L
(lp3756
(lp3757
Vesp_log_early_timestamp
p3758
atp3759
a(L93674324L
L0L
(lp3760
(lp3761
tp3762
a(L3422553167L
L0L
(lp3763
(lp3764
tp3765
a(L1707909459L
L0L
(lp3766
(lp3767
tp3768
a(L4101522284L
L0L
(lp3769
(lp3770
tp3771
a(L1080861552L
L3785322319L
(lp3772
(lp3773
Vbootloader_enable_wp
p3774
atp3775
a(L3907331784L
L0L
(lp3776
(lp3777
tp3778
atp3779
sI1074240740
(Vabort
p3780
(lp3781
(L1208920414L
L0L
(lp3782
(lp3783
tp3784
a(L409471316L
L0L
(lp3785
(lp3786
tp3787
a(L106L
L0L
(lp3788
(lp3789
tp3790
atp3791
sI1074239204
(Vset_actual_ota_seq
p3792
(lp3793
(L4094723830L
L0L
(lp3794
(lp3795
tp3796
a(L1430891504L
L0L
(lp3797
(lp3798
tp3799
a(L1983776888L
L1832448559L
(lp3800
(lp3801
Vbootloader_common_ota_select_crc
p3802
aVesp_flash_encryption_enabled
p3803
aVbootloader_flash_erase_sector
p3804
atp3805
a(L2768623893L
L3785322319L
(lp3806
(lp3807
Vbootloader_flash_write
p3808
atp3809
a(L382477689L
L3785322319L
(lp3810
(lp3811
Vesp_log_early_timestamp
p3812
atp3813
a(L3229381394L
L3785322319L
(lp3814
(lp3815
Vesp_log_early_timestamp
p3816
atp3817
a(L3360570486L
L0L
(lp3818
(lp3819
tp3820
atp3821
sI1074245356
(Vrtc_clk_fast_src_set
p3822
(lp3823
(L1486516746L
L0L
(lp3824
(lp3825
tp3826
a(L3020187L
L0L
(lp3827
(lp3828
tp3829
a(L3827921190L
L3785322319L
(lp3830
(lp3831
Vabort
p3832
atp3833
a(L2904656757L
L0L
(lp3834
(lp3835
tp3836
a(L206212292L
L0L
(lp3837
(lp3838
tp3839
a(L300459962L
L0L
(lp3840
(lp3841
tp3842
atp3843
sI1074244328
(Vwdt_hal_write_protect_disable
p3844
(lp3845
(L3345031483L
L0L
(lp3846
(lp3847
tp3848
a(L4195472003L
L0L
(lp3849
(lp3850
tp3851
a(L3360570486L
L0L
(lp3852
(lp3853
tp3854
a(L1210571996L
L0L
(lp3855
(lp3856
tp3857
atp3858
sI1074241768
(Vshould_load
p3859
(lp3860
(L2802480198L
L0L
(lp3861
(lp3862
tp3863
a(L1182990556L
L0L
(lp3864
(lp3865
tp3866
a(L388737285L
L0L
(lp3867
(lp3868
tp3869
a(L2306467100L
L0L
(lp3870
(lp3871
tp3872
a(L524505062L
L0L
(lp3873
(lp3874
tp3875
a(L2258897019L
L0L
(lp3876
(lp3877
tp3878
a(L3781799363L
L0L
(lp3879
(lp3880
tp3881
a(L3028464L
L0L
(lp3882
(lp3883
tp3884
a(L2640712828L
L0L
(lp3885
(lp3886
tp3887
a(L4277114872L
L0L
(lp3888
(lp3889
tp3890
a(L2824381917L
L0L
(lp3891
(lp3892
tp3893
a(L1243412227L
L0L
(lp3894
(lp3895
tp3896
a(L2011157548L
L0L
(lp3897
(lp3898
tp3899
a(L3126521138L
L0L
(lp3900
(lp3901
tp3902
a(L1305407438L
L0L
(lp3903
(lp3904
tp3905
a(L1305407469L
L0L
(lp3906
(lp3907
tp3908
atp3909
sI1074237428
(Vbootloader_mmap
p3910
(lp3911
(L1371566704L
L0L
(lp3912
(lp3913
tp3914
a(L2788000642L
L3785322319L
(lp3915
(lp3916
Vesp_log_early_timestamp
p3917
atp3918
a(L2867263840L
L0L
(lp3919
(lp3920
tp3921
a(L3729184599L
L0L
(lp3922
(lp3923
tp3924
a(L1917285873L
L3785322319L
(lp3925
(lp3926
Vesp_log_early_timestamp
p3927
atp3928
a(L2258688482L
L0L
(lp3929
(lp3930
tp3931
a(L3360570486L
L0L
(lp3932
(lp3933
tp3934
a(L3476478606L
L0L
(lp3935
(lp3936
tp3937
a(L2387608636L
L0L
(lp3938
(lp3939
tp3940
a(L2524678404L
L3785322319L
(lp3941
(lp3942
Vesp_log_early_timestamp
p3943
atp3944
a(L528675049L
L3785322319L
(lp3945
(lp3946
Vesp_log_early_timestamp
p3947
atp3948
a(L374681421L
L0L
(lp3949
(lp3950
tp3951
atp3952
sI1074244592
(Vrtc_clk_32k_enable_common
p3953
(lp3954
(L1305855959L
L0L
(lp3955
(lp3956
tp3957
a(L97422L
L0L
(lp3958
(lp3959
tp3960
a(L2218417248L
L0L
(lp3961
(lp3962
tp3963
a(L2675570080L
L0L
(lp3964
(lp3965
tp3966
a(L51458120L
L0L
(lp3967
(lp3968
tp3969
atp3970
sI1074268656
(Vbootloader_random_enable
p3971
(lp3972
(L2348780523L
L0L
(lp3973
(lp3974
tp3975
atp3976
sI1074235644
(Vbootloader_flash_xmc_startup
p3977
(lp3978
(L2007527597L
L3785322319L
(lp3979
(lp3980
Vis_xmc_chip_strict
p3981
atp3982
a(L2258688482L
L0L
(lp3983
(lp3984
tp3985
a(L3360570486L
L0L
(lp3986
(lp3987
tp3988
a(L2860324232L
L3785322319L
(lp3989
(lp3990
Vbootloader_flash_read_sfdp
p3991
atp3992
a(L335762040L
L2567856111L
(lp3993
(lp3994
Vesp_log_early_timestamp
p3995
aVbootloader_execute_flash_command
p3996
aVbootloader_execute_flash_command
p3997
aVbootloader_execute_flash_command
p3998
aVbootloader_execute_flash_command
p3999
aVbootloader_read_flash_id
p4000
aVis_xmc_chip_strict
p4001
atp4002
a(L664983568L
L3785322319L
(lp4003
(lp4004
Vesp_log_early_timestamp
p4005
atp4006
atp4007
sI1074247676
(Vesp_rom_spiflash_erase_sector
p4008
(lp4009
(L961165081L
L0L
(lp4010
(lp4011
tp4012
a(L2258688483L
L0L
(lp4013
(lp4014
tp4015
a(L3360570486L
L0L
(lp4016
(lp4017
tp4018
a(L3212356251L
L3785322319L
(lp4019
(lp4020
Vesp_rom_spiflash_enable_write
p4021
atp4022
a(L184152988L
L0L
(lp4023
(lp4024
tp4025
a(L3309930221L
L3785322319L
(lp4026
(lp4027
Vesp_rom_spiflash_wait_idle
p4028
atp4029
a(L3333707777L
L0L
(lp4030
(lp4031
tp4032
a(L3582858798L
L3785322319L
(lp4033
(lp4034
Vesp_rom_spiflash_wait_idle
p4035
atp4036
atp4037
sI1074237688
(Vbootloader_flash_read
p4038
(lp4039
(L3022618172L
L0L
(lp4040
(lp4041
tp4042
a(L3106937175L
L3785322319L
(lp4043
(lp4044
Vesp_log_early_timestamp
p4045
atp4046
a(L2780906736L
L0L
(lp4047
(lp4048
tp4049
a(L1351513776L
L0L
(lp4050
(lp4051
tp4052
a(L1486740491L
L0L
(lp4053
(lp4054
tp4055
a(L1039718061L
L3785322319L
(lp4056
(lp4057
Vesp_log_early_timestamp
p4058
atp4059
a(L3283691850L
L0L
(lp4060
(lp4061
tp4062
a(L1179571907L
L3785322319L
(lp4063
(lp4064
Vesp_log_early_timestamp
p4065
atp4066
a(L3020204L
L0L
(lp4067
(lp4068
tp4069
a(L384130671L
L0L
(lp4070
(lp4071
tp4072
a(L97422L
L0L
(lp4073
(lp4074
tp4075
a(L674456573L
L0L
(lp4076
(lp4077
tp4078
a(L1253319443L
L0L
(lp4079
(lp4080
tp4081
a(L2867857952L
L3785322319L
(lp4082
(lp4083
V__assert_func
p4084
atp4085
a(L2383244345L
L0L
(lp4086
(lp4087
tp4088
a(L3426608415L
L0L
(lp4089
(lp4090
tp4091
a(L3283247405L
L1880226080L
(lp4092
(lp4093
Vesp_rom_spiflash_read
p4094
aVspi_to_esp_err
p4095
atp4096
atp4097
sI1074237944
(Vbootloader_flash_erase_sector
p4098
(lp4099
(L4129137686L
L1880226080L
(lp4100
(lp4101
Vesp_rom_spiflash_erase_sector
p4102
aVspi_to_esp_err
p4103
atp4104
atp4105
sI1074240504
(Vbootloader_sha256_finish
p4106
(lp4107
(L4066096136L
L0L
(lp4108
(lp4109
tp4110
a(L2561206081L
L0L
(lp4111
(lp4112
tp4113
a(L47191971L
L3785322319L
(lp4114
(lp4115
V__assert_func
p4116
atp4117
a(L3020204L
L0L
(lp4118
(lp4119
tp4120
a(L858440172L
L0L
(lp4121
(lp4122
tp4123
a(L2534656226L
L0L
(lp4124
(lp4125
tp4126
a(L3707286214L
L3785322319L
(lp4127
(lp4128
Vbootloader_sha256_data
p4129
atp4130
a(L1349541058L
L0L
(lp4131
(lp4132
tp4133
a(L3058648051L
L3785322319L
(lp4134
(lp4135
Vbootloader_sha256_data
p4136
atp4137
a(L1394805752L
L0L
(lp4138
(lp4139
tp4140
a(L657425439L
L0L
(lp4141
(lp4142
tp4143
a(L3252250194L
L0L
(lp4144
(lp4145
tp4146
a(L657425439L
L0L
(lp4147
(lp4148
tp4149
a(L3055347493L
L0L
(lp4150
(lp4151
tp4152
a(L2194487991L
L0L
(lp4153
(lp4154
tp4155
a(L3347778L
L0L
(lp4156
(lp4157
tp4158
a(L3360570486L
L0L
(lp4159
(lp4160
tp4161
atp4162
ssS'functionsdups'
p4163
g11
((lp4164
tp4165
Rp4166
sS'immediatedups'
p4167
g11
((lp4168
tp4169
Rp4170
sS'functiondups'
p4171
g11
((lp4172
tp4173
Rp4174
sS'fuzzy'
p4175
(dp4176
L1536L
I1074240716
sL438947497L
I1074245184
sL430153639L
I1074235908
sL3538491111L
I1074245328
sL16208487L
I1074234744
sL1053780185L
I1074247116
sL2680783959L
I1074235644
sL1385214606L
I1074241208
sL3709764864L
I1074242636
sL3512578114L
I1074238624
sL1419132215L
I1074238132
sL1420005888L
I1074236724
sL2469233929L
I1074240504
sL4024375675L
I1074245780
sL701833459L
I1074268416
sL99291719L
I1074245892
sL1260046007L
I1074238724
sL3897252859L
I1074238540
sL3750957730L
I1074269160
sL1065525808L
I1074236860
sL2547957225L
I1074243132
sL1604071461L
I1074238840
sL2272466760L
I1074245568
sL2044047637L
I1074239324
sL1188065553L
I1074237688
sL1350409532L
I1074240964
sL94556391L
I1074245356
sL3210669721L
I1074244948
sL1332800441L
I1074237252
sL1797050832L
I1074241680
sL3190831358L
I1074239692
sL2828970830L
I1074239204
sL4160102055L
I1074240000
sL4202185385L
I1074247380
sL1768086576L
I1074236376
sL4171975289L
I1074247676
sL1565254297L
I1074247976
sL1205407754L
I1074240024
sL2191698036L
I1074269584
sL3764456758L
I1074244728
sL3567877105L
I1074235256
sL3616640713L
I1074240796
sL1635528231L
I1074244012
sL1060788199L
I1074245476
sL3378232636L
I1074246620
sL737694352L
I1074247484
sL503029138L
I1074247428
sL1616763831L
I1074248064
sL424867129L
I1074247812
sL3834155367L
I1074241152
sL2405032630L
I1074267676
sL1302843222L
I1074270064
sL149533852L
I1074237428
sL3883282432L
I1074241768
sL3110525840L
I1074241896
sL444519175L
I1074267784
sL1667054119L
I1074240356
sL1142841954L
I1074237020
sL206902443L
I1074237964
sL1070509616L
I1074245008
sL3408620885L
I1074269888
ssb.