ccopy_reg
_reconstructor
p0
(crizzo
RizzoSignature
p1
c__builtin__
object
p2
Ntp3
Rp4
(dp5
S'formal'
p6
(dp7
L1128390976L
I1074247008
sL604369933L
I1074241748
sL283422445L
I1074244496
sL1741170115L
I1074238100
sL3717889681L
I1074239508
sL3505757179L
I1074236880
sL3757289725L
I1074270036
sL867946411L
I1074236428
sL2227545555L
I1074269336
sL3977546755L
I1074245208
sL202407178L
I1074247408
sL1454943397L
I1074238120
sL1371153316L
I1074268540
sL307755126L
I1074237584
sL3278501709L
I1074238812
sL1263925363L
I1074245044
sL2420455533L
I1074269468
sL1959081198L
I1074240720
sL928253055L
I1074268780
sL2702580795L
I1074237476
sL3846506600L
I1074243896
sL2161201919L
I1074238368
sL2568602422L
I1074237792
sL2971452723L
I1074270656
sL3501332098L
I1074236920
sL2485229073L
I1074245800
sL4153343676L
I1074244412
sL612233294L
I1074238928
sL2896295319L
I1074237016
sL3834229695L
I1074270212
sL69447444L
I1074240696
sL2164546366L
I1074245328
sL837487574L
I1074236692
sL1674148343L
I1074245384
sL1312412423L
I1074248616
sL3004454229L
I1074241188
sL2485902447L
I1074236856
sL902150784L
I1074236476
sL2873562891L
I1074238696
sL57142571L
I1074244856
sL2694490583L
I1074241132
sL628342588L
I1074236624
sL674410365L
I1074248316
sL1458280123L
I1074245068
sL3034252424L
I1074241876
sL2166402678L
I1074235700
sL1057199957L
I1074242496
sL3216880875L
I1074245092
sL1585823442L
I1074244312
sL1622896354L
I1074244340
sL2000651361L
I1074269564
sL1257319854L
I1074243284
sL3129199843L
I1074236556
sL1509716893L
I1074236988
sL2189223198L
I1074240244
sL2668534884L
I1074245688
sL2774633482L
I1074236676
sL1301122278L
I1074237176
sL1152036801L
I1074245344
sL2824950028L
I1074244632
sL3904551637L
I1074267972
sL3007247178L
I1074238780
sL1973735901L
I1074241660
sL530851108L
I1074244460
sL1885637095L
I1074267748
sL3746397897L
I1074244212
sL3307282855L
I1074238260
sL172597710L
I1074236776
sL1040622986L
I1074245236
sL2262796883L
I1074247304
sL3939485250L
I1074269700
sL1050504461L
I1074234620
sL1071967860L
I1074239720
sL3916421375L
I1074248704
sL1093247416L
I1074238288
sL836728141L
I1074239412
sL3333318717L
I1074240776
sL3944659338L
I1074246500
sL1888032017L
I1074240316
sL3701322247L
I1074270808
sL3380256487L
I1074235564
sL4038945309L
I1074235516
sL1469789753L
I1074240336
sL3876253865L
I1074238980
sL1341808985L
I1074240680
sL3508768135L
I1074269268
sL1499400697L
I1074237844
sL21429742L
I1074237088
sL1366879953L
I1074269536
sL2737209228L
I1074234664
sL1569882425L
I1074247352
sL1412033415L
I1074246544
sL180164621L
I1074235176
sL2997001746L
I1074237408
sL1547809776L
I1074239032
sL2778050854L
I1074247208
sL3561698296L
I1074247600
sL2842524891L
I1074245264
sL1602802495L
I1074237120
sL1860696656L
I1074248452
sL2819127986L
I1074237140
sL209135561L
I1074240484
sL1877634603L
I1074270888
sL2411516799L
I1074236536
sL1928167467L
I1074247040
sL2771386086L
I1074269492
sL1423038721L
I1074239980
sL3262741161L
I1074236280
sL111045711L
I1074268484
sL3649526100L
I1074244244
sL4163357170L
I1074269284
sL3109370253L
I1074269988
sL2263182908L
I1074238280
sL4132511117L
I1074235812
sL3630163135L
I1074237004
sL188664287L
I1074235144
sL2144023337L
I1074240944
sL692536993L
I1074237448
sL275315584L
I1074244796
sL2402484188L
I1074243016
sL2669162231L
I1074236576
sL3393791417L
I1074244916
sL320780524L
I1074269736
sL2518607080L
I1074237552
sL3322869492L
I1074236516
sL1640931381L
I1074242980
sL1393727465L
I1074245476
sL4173412669L
I1074235464
sL440921530L
I1074240004
sL612796283L
I1074245616
sL707696595L
I1074245660
sL3018942732L
I1074267640
sL677806744L
I1074236452
ssS'immediates'
p8
(dp9
sS'formaldups'
p10
c__builtin__
set
p11
((lp12
tp13
Rp14
sS'stringdups'
p15
g11
((lp16
tp17
Rp18
sS'fuzzydups'
p19
g11
((lp20
tp21
Rp22
sS'strings'
p23
(dp24
sS'functions'
p25
(dp26
I1074236676
(Vesp_rom_set_cpu_ticks_per_us
p27
(lp28
(L4036660858L
L0L
(lp29
(lp30
tp31
atp32
sI1074238980
(Vcache_ll_l1_enable_bus
p33
(lp34
(L3703586533L
L0L
(lp35
(lp36
tp37
atp38
sI1074240004
(Vbootloader_utility_load_boot_image
p39
(lp40
(L3385398614L
L0L
(lp41
(lp42
tp43
a(L2177418995L
L3785322319L
(lp44
(lp45
Vtry_load_partition
p46
atp47
a(L1305243774L
L3785322319L
(lp48
(lp49
Vload_image
p50
atp51
a(L299665327L
L3785322319L
(lp52
(lp53
Vesp_log_early_timestamp
p54
atp55
a(L3827921190L
L3785322319L
(lp56
(lp57
Vbootloader_reset
p58
atp59
a(L1953693036L
L3785322319L
(lp60
(lp61
Vindex_to_partition
p62
atp63
a(L1204373741L
L3785322319L
(lp64
(lp65
Vtry_load_partition
p66
atp67
a(L1899865696L
L0L
(lp68
(lp69
tp70
a(L2695355117L
L3785322319L
(lp71
(lp72
Vset_actual_ota_seq
p73
atp74
a(L1868897605L
L3785322319L
(lp75
(lp76
Vlog_invalid_app_partition
p77
atp78
a(L831650730L
L0L
(lp79
(lp80
tp81
a(L3021737L
L0L
(lp82
(lp83
tp84
a(L695456438L
L0L
(lp85
(lp86
tp87
a(L1148002536L
L3785322319L
(lp88
(lp89
Vtry_load_partition
p90
atp91
a(L2590723623L
L3785322319L
(lp92
(lp93
Vesp_log_early_timestamp
p94
atp95
a(L2347390157L
L3785322319L
(lp96
(lp97
Vindex_to_partition
p98
atp99
a(L1204373741L
L3785322319L
(lp100
(lp101
Vtry_load_partition
p102
atp103
a(L3061261803L
L0L
(lp104
(lp105
tp106
a(L3582858798L
L3785322319L
(lp107
(lp108
Vlog_invalid_app_partition
p109
atp110
a(L3663038107L
L3785322319L
(lp111
(lp112
Vesp_log_early_timestamp
p113
atp114
atp115
sI1074248452
(Vesp_rom_spiflash_write
p116
(lp117
(L2694827234L
L0L
(lp118
(lp119
tp120
a(L2258688483L
L0L
(lp121
(lp122
tp123
a(L3360570486L
L0L
(lp124
(lp125
tp126
a(L3368132847L
L0L
(lp127
(lp128
tp129
a(L3106685981L
L0L
(lp130
(lp131
tp132
a(L3488660639L
L3785322319L
(lp133
(lp134
Vesp_rom_spiflash_program_page_internal
p135
atp136
a(L3543402353L
L3785322319L
(lp137
(lp138
Vesp_rom_spiflash_program_page_internal
p139
atp140
a(L4222526342L
L0L
(lp141
(lp142
tp143
a(L2004208511L
L0L
(lp144
(lp145
tp146
a(L564470656L
L0L
(lp147
(lp148
tp149
a(L441922648L
L3785322319L
(lp150
(lp151
Vesp_rom_spiflash_program_page_internal
p152
atp153
a(L2302069176L
L0L
(lp154
(lp155
tp156
atp157
sI1074240768
(Vbootloader_ana_clock_glitch_reset_config
p158
(lp159
(L2100504542L
L0L
(lp160
(lp161
tp162
atp163
sI1074248704
(Vesp_rom_spiflash_read
p164
(lp165
(L122051239L
L0L
(lp166
(lp167
tp168
a(L683755812L
L0L
(lp169
(lp170
tp171
a(L2860271684L
L0L
(lp172
(lp173
tp174
a(L2355528925L
L0L
(lp175
(lp176
tp177
a(L106L
L0L
(lp178
(lp179
tp180
a(L633884026L
L0L
(lp181
(lp182
tp183
a(L106L
L0L
(lp184
(lp185
tp186
a(L2316447457L
L0L
(lp187
(lp188
tp189
a(L3610314264L
L0L
(lp190
(lp191
tp192
a(L1433557502L
L0L
(lp193
(lp194
tp195
a(L336550648L
L0L
(lp196
(lp197
tp198
a(L4102960242L
L0L
(lp199
(lp200
tp201
a(L106L
L0L
(lp202
(lp203
tp204
a(L1192948261L
L3785322319L
(lp205
(lp206
Vesp_rom_spiflash_wait_idle
p207
atp208
a(L3021737L
L0L
(lp209
(lp210
tp211
a(L106L
L0L
(lp212
(lp213
tp214
a(L1868280504L
L0L
(lp215
(lp216
tp217
a(L106L
L0L
(lp218
(lp219
tp220
a(L750281353L
L0L
(lp221
(lp222
tp223
a(L3897437082L
L0L
(lp224
(lp225
tp226
a(L4122060822L
L0L
(lp227
(lp228
tp229
a(L3484749597L
L0L
(lp230
(lp231
tp232
a(L2989032L
L0L
(lp233
(lp234
tp235
a(L3819849625L
L0L
(lp236
(lp237
tp238
a(L700104760L
L0L
(lp239
(lp240
tp241
a(L1437144663L
L0L
(lp242
(lp243
tp244
a(L3901822060L
L0L
(lp245
(lp246
tp247
a(L3269367394L
L0L
(lp248
(lp249
tp250
a(L2921907736L
L0L
(lp251
(lp252
tp253
a(L4023125337L
L0L
(lp254
(lp255
tp256
a(L741743900L
L0L
(lp257
(lp258
tp259
a(L2006047731L
L0L
(lp260
(lp261
tp262
a(L570945036L
L0L
(lp263
(lp264
tp265
a(L3333707777L
L0L
(lp266
(lp267
tp268
a(L3251955268L
L0L
(lp269
(lp270
tp271
a(L3418540920L
L0L
(lp272
(lp273
tp274
a(L4223869220L
L0L
(lp275
(lp276
tp277
a(L97689L
L0L
(lp278
(lp279
tp280
a(L2258897019L
L0L
(lp281
(lp282
tp283
a(L4014024819L
L0L
(lp284
(lp285
tp286
a(L3621567083L
L0L
(lp287
(lp288
tp289
atp290
sI1074267136
(V_init
p291
(lp292
(L3493042598L
L0L
(lp293
(lp294
tp295
atp296
sI1074236428
(Vbootloader_read_status_8b_rdsr
p297
(lp298
(L1945786777L
L3785322319L
(lp299
(lp300
Vbootloader_execute_flash_command
p301
atp302
atp303
sI1074269700
(Vbootloader_console_init
p304
(lp305
(L3761484553L
L1832448559L
(lp306
(lp307
Vesp_rom_uart_tx_wait_idle
p308
aVrtc_clk_apb_freq_get
p309
aVesp_rom_uart_set_clock_baudrate
p310
atp311
atp312
sI1074270212
(Vrtc_clk_init
p313
(lp314
(L2172870157L
L0L
(lp315
(lp316
tp317
a(L42671777L
L3785322319L
(lp318
(lp319
Vrtc_clk_cpu_freq_to_xtal
p320
atp321
a(L3624132643L
L3785322319L
(lp322
(lp323
Vrtc_clk_xtal_freq_get
p324
atp325
a(L3028481L
L0L
(lp326
(lp327
tp328
a(L4284274517L
L3785322319L
(lp329
(lp330
Vrtc_clk_xtal_freq_estimate
p331
atp332
a(L755739346L
L3785322319L
(lp333
(lp334
Vesp_log_early_timestamp
p335
atp336
a(L3727923489L
L1157885199L
(lp337
(lp338
Vesp_rom_uart_tx_wait_idle
p339
aVrtc_clk_xtal_freq_update
p340
aVrtc_clk_apb_freq_update
p341
aVrtc_clk_cpu_freq_get_config
p342
aVrtc_clk_cpu_freq_mhz_to_config
p343
atp344
a(L3662401972L
L1880226080L
(lp345
(lp346
Vesp_log_early_timestamp
p347
aVabort
p348
atp349
a(L2902417580L
L0L
(lp350
(lp351
tp352
a(L1899970065L
L0L
(lp353
(lp354
tp355
a(L377687546L
L3785322319L
(lp356
(lp357
Vrtc_clk_xtal_freq_estimate
p358
atp359
a(L88995215L
L3785322319L
(lp360
(lp361
Vesp_log_early_timestamp
p362
atp363
a(L2917774984L
L3785322319L
(lp364
(lp365
Vrtc_clk_cpu_freq_set_config
p366
atp367
a(L912310138L
L3785322319L
(lp368
(lp369
Vrtc_clk_32k_enable
p370
atp371
a(L3191820416L
L1832448559L
(lp372
(lp373
Vrtc_clk_8m_enable
p374
aVrtc_clk_fast_src_set
p375
aVrtc_clk_slow_src_set
p376
atp377
a(L1232958848L
L0L
(lp378
(lp379
tp380
atp381
sI1074237448
(Vbootloader_common_ota_select_invalid
p382
(lp383
(L4027567199L
L0L
(lp384
(lp385
tp386
a(L3397985842L
L0L
(lp387
(lp388
tp389
a(L2258867228L
L0L
(lp390
(lp391
tp392
a(L3785235668L
L0L
(lp393
(lp394
tp395
atp396
sI1074235144
(Vbootloader_execute_flash_command
p397
(lp398
(L2481595632L
L3785322319L
(lp399
(lp400
Vbootloader_flash_execute_command_common
p401
atp402
atp403
sI1074240776
(Vprocess_checksum
p404
(lp405
(L4101821460L
L0L
(lp406
(lp407
tp408
a(L3028481L
L0L
(lp409
(lp410
tp411
a(L186886970L
L0L
(lp412
(lp413
tp414
a(L2902417580L
L0L
(lp415
(lp416
tp417
a(L3028481L
L0L
(lp418
(lp419
tp420
a(L1018688397L
L3785322319L
(lp421
(lp422
Vesp_log_early_timestamp
p423
atp424
a(L3620582131L
L0L
(lp425
(lp426
tp427
a(L3236648107L
L3785322319L
(lp428
(lp429
Vbootloader_flash_read
p430
atp431
a(L735741265L
L0L
(lp432
(lp433
tp434
a(L3020204L
L0L
(lp435
(lp436
tp437
a(L2480703612L
L3785322319L
(lp438
(lp439
Vbootloader_sha256_data
p440
atp441
a(L3436105237L
L0L
(lp442
(lp443
tp444
a(L106L
L0L
(lp445
(lp446
tp447
atp448
sI1074245384
(Vrtc_clk_cpu_freq_mhz_to_config
p449
(lp450
(L908718885L
L3785322319L
(lp451
(lp452
Vrtc_clk_xtal_freq_get
p453
atp454
a(L60460069L
L0L
(lp455
(lp456
tp457
a(L3802072124L
L0L
(lp458
(lp459
tp460
a(L3159006042L
L0L
(lp461
(lp462
tp463
a(L3360570486L
L0L
(lp464
(lp465
tp466
a(L895147205L
L0L
(lp467
(lp468
tp469
a(L3970036657L
L0L
(lp470
(lp471
tp472
a(L2731353429L
L0L
(lp473
(lp474
tp475
a(L1555485793L
L0L
(lp476
(lp477
tp478
a(L2258897023L
L0L
(lp479
(lp480
tp481
a(L1947499251L
L0L
(lp482
(lp483
tp484
a(L1306331021L
L0L
(lp485
(lp486
tp487
atp488
sI1074239508
(Vbootloader_utility_load_partition_table
p489
(lp490
(L3128219304L
L3785322319L
(lp491
(lp492
Vbootloader_mmap
p493
atp494
a(L770149735L
L3785322319L
(lp495
(lp496
Vesp_log_early_timestamp
p497
atp498
a(L2258688482L
L0L
(lp499
(lp500
tp501
a(L3360570486L
L0L
(lp502
(lp503
tp504
a(L255479872L
L3785322319L
(lp505
(lp506
Vesp_partition_table_verify
p507
atp508
a(L3613202002L
L0L
(lp509
(lp510
tp511
a(L97642L
L0L
(lp512
(lp513
tp514
a(L4248828323L
L3785322319L
(lp515
(lp516
Vbootloader_munmap
p517
atp518
a(L3398923045L
L3785322319L
(lp519
(lp520
Vesp_log_early_timestamp
p521
atp522
a(L3927622121L
L0L
(lp523
(lp524
tp525
a(L3020187L
L0L
(lp526
(lp527
tp528
a(L1532853611L
L0L
(lp529
(lp530
tp531
a(L1036489382L
L0L
(lp532
(lp533
tp534
a(L3020187L
L0L
(lp535
(lp536
tp537
a(L2997988170L
L0L
(lp538
(lp539
tp540
a(L529263765L
L0L
(lp541
(lp542
tp543
a(L775434204L
L0L
(lp544
(lp545
tp546
a(L3579705151L
L0L
(lp547
(lp548
tp549
a(L2387139071L
L0L
(lp550
(lp551
tp552
a(L1599920163L
L0L
(lp553
(lp554
tp555
atp556
sI1074236692
(Vesp_rom_uart_tx_wait_idle
p557
(lp558
(L3784729872L
L0L
(lp559
(lp560
tp561
a(L1301079727L
L0L
(lp562
(lp563
tp564
a(L597952197L
L0L
(lp565
(lp566
tp567
a(L1971823332L
L0L
(lp568
(lp569
tp570
a(L3055926844L
L0L
(lp571
(lp572
tp573
a(L3360570486L
L0L
(lp574
(lp575
tp576
a(L3694491048L
L0L
(lp577
(lp578
tp579
a(L106L
L0L
(lp580
(lp581
tp582
atp583
sI1074269468
(Vbootloader_clear_bss_section
p584
(lp585
(L1035474915L
L0L
(lp586
(lp587
tp588
atp589
sI1074234652
(Vesp_flash_encryption_enabled
p590
(lp591
(L376617603L
L3785322319L
(lp592
(lp593
Vefuse_hal_flash_encryption_enabled
p594
atp595
atp596
sI1074245660
(Vrtc_clk_apb_freq_update
p597
(lp598
(L1720241949L
L0L
(lp599
(lp600
tp601
atp602
sI1074244632
(Vrtc_clk_cpu_freq_to_pll_mhz
p603
(lp604
(L3917427464L
L0L
(lp605
(lp606
tp607
a(L2942567840L
L0L
(lp608
(lp609
tp610
a(L2425932381L
L1880226080L
(lp611
(lp612
Vesp_rom_set_cpu_ticks_per_us
p613
aVrtc_clk_wait_for_slow_cycle
p614
atp615
a(L3816240193L
L0L
(lp616
(lp617
tp618
a(L3293824299L
L0L
(lp619
(lp620
tp621
a(L94425498L
L3785322319L
(lp622
(lp623
Vabort
p624
atp625
a(L1611366926L
L0L
(lp626
(lp627
tp628
a(L1611366957L
L0L
(lp629
(lp630
tp631
atp632
sI1074269736
(Vbootloader_enable_qio_mode
p633
(lp634
(L2525881860L
L3785322319L
(lp635
(lp636
Vesp_rom_spiflash_wait_idle
p637
atp638
a(L2573281202L
L0L
(lp639
(lp640
tp641
a(L78057494L
L0L
(lp642
(lp643
tp644
a(L3289196298L
L0L
(lp645
(lp646
tp647
a(L92660513L
L0L
(lp648
(lp649
tp650
a(L734887214L
L3785322319L
(lp651
(lp652
Vesp_rom_spiflash_wait_idle
p653
atp654
a(L3562429912L
L1880226080L
(lp655
(lp656
Vbootloader_execute_flash_command
p657
aVesp_rom_spiflash_wait_idle
p658
atp659
a(L736183098L
L3785322319L
(lp660
(lp661
Vesp_log_early_timestamp
p662
atp663
a(L3360570486L
L0L
(lp664
(lp665
tp666
a(L4010807712L
L1880226080L
(lp667
(lp668
Vesp_rom_spiflash_config_readmode
p669
aVbootloader_flash_get_wp_pin
p670
atp671
atp672
sI1074237476
(Vbootloader_common_select_otadata
p673
(lp674
(L4071767857L
L0L
(lp675
(lp676
tp677
a(L1999329187L
L0L
(lp678
(lp679
tp680
a(L3846398843L
L0L
(lp681
(lp682
tp683
a(L2501968171L
L0L
(lp684
(lp685
tp686
a(L3360570486L
L0L
(lp687
(lp688
tp689
a(L2045232488L
L0L
(lp690
(lp691
tp692
a(L1243525916L
L0L
(lp693
(lp694
tp695
a(L3094144427L
L0L
(lp696
(lp697
tp698
a(L2399509845L
L0L
(lp699
(lp700
tp701
a(L1641201884L
L0L
(lp702
(lp703
tp704
atp705
sI1074236452
(Vbootloader_read_status_8b_rdsr2
p706
(lp707
(L3746738790L
L3785322319L
(lp708
(lp709
Vbootloader_execute_flash_command
p710
atp711
atp712
sI1074269988
(Vesp_cpu_configure_region_protection
p713
(lp714
(L3630570892L
L0L
(lp715
(lp716
tp717
a(L180431425L
L3785322319L
(lp718
(lp719
Vmpu_hal_set_region_access
p720
atp721
a(L2537388152L
L3785322319L
(lp722
(lp723
Vmpu_hal_set_region_access
p724
atp725
atp726
sI1074235176
(Vbootloader_flash_unlock
p727
(lp728
(L485855552L
L3785322319L
(lp729
(lp730
Vesp_rom_spiflash_wait_idle
p731
atp732
a(L711923870L
L0L
(lp733
(lp734
tp735
a(L3507311156L
L3785322319L
(lp736
(lp737
Vbootloader_execute_flash_command
p738
atp739
a(L4103218025L
L0L
(lp740
(lp741
tp742
a(L2529045083L
L0L
(lp743
(lp744
tp745
a(L1175784077L
L1832448559L
(lp746
(lp747
Vesp_rom_spiflash_wait_idle
p748
aVbootloader_execute_flash_command
p749
aVbootloader_execute_flash_command
p750
atp751
a(L106L
L0L
(lp752
(lp753
tp754
a(L594961218L
L1880226080L
(lp755
(lp756
Vesp_rom_spiflash_wait_idle
p757
aVbootloader_execute_flash_command
p758
atp759
a(L2993202392L
L0L
(lp760
(lp761
tp762
a(L610618707L
L0L
(lp763
(lp764
tp765
a(L2843273676L
L0L
(lp766
(lp767
tp768
a(L192015437L
L0L
(lp769
(lp770
tp771
a(L3154322046L
L1880226080L
(lp772
(lp773
Vbootloader_execute_flash_command
p774
aVbootloader_execute_flash_command
p775
atp776
a(L1303560644L
L0L
(lp777
(lp778
tp779
a(L1711531685L
L1880226080L
(lp780
(lp781
Vbootloader_execute_flash_command
p782
aVbootloader_execute_flash_command
p783
atp784
a(L3658700047L
L0L
(lp785
(lp786
tp787
a(L3430607254L
L0L
(lp788
(lp789
tp790
a(L106L
L0L
(lp791
(lp792
tp793
a(L1876788132L
L1832448559L
(lp794
(lp795
Vesp_rom_spiflash_wait_idle
p796
aVbootloader_execute_flash_command
p797
aVbootloader_execute_flash_command
p798
atp799
atp800
sI1074234664
(Vbootloader_flash_execute_command_common
p801
(lp802
(L3865052895L
L0L
(lp803
(lp804
tp805
a(L3287175997L
L0L
(lp806
(lp807
tp808
a(L4121451103L
L3785322319L
(lp809
(lp810
V__assert_func
p811
atp812
a(L3021749L
L0L
(lp813
(lp814
tp815
a(L3999871943L
L0L
(lp816
(lp817
tp818
a(L543316797L
L0L
(lp819
(lp820
tp821
a(L2091933878L
L0L
(lp822
(lp823
tp824
a(L1702379862L
L0L
(lp825
(lp826
tp827
a(L3432464320L
L0L
(lp828
(lp829
tp830
a(L3539375712L
L0L
(lp831
(lp832
tp833
a(L3244449450L
L0L
(lp834
(lp835
tp836
a(L4233404408L
L0L
(lp837
(lp838
tp839
a(L2990329343L
L0L
(lp840
(lp841
tp842
a(L2051090536L
L0L
(lp843
(lp844
tp845
a(L3333696662L
L0L
(lp846
(lp847
tp848
a(L963425213L
L0L
(lp849
(lp850
tp851
a(L339491738L
L0L
(lp852
(lp853
tp854
a(L3360570486L
L0L
(lp855
(lp856
tp857
atp858
sI1074247208
(Vesp_rom_spiflash_read_status
p859
(lp860
(L862498644L
L0L
(lp861
(lp862
tp863
a(L3115852441L
L0L
(lp864
(lp865
tp866
a(L4159619641L
L0L
(lp867
(lp868
tp869
a(L2392720019L
L0L
(lp870
(lp871
tp872
a(L2258688487L
L0L
(lp873
(lp874
tp875
a(L4159619145L
L0L
(lp876
(lp877
tp878
a(L2068157350L
L0L
(lp879
(lp880
tp881
a(L3117156279L
L0L
(lp882
(lp883
tp884
a(L2123059967L
L0L
(lp885
(lp886
tp887
a(L582177370L
L0L
(lp888
(lp889
tp890
atp891
sI1074244916
(Vrtc_clk_8m_enable
p892
(lp893
(L2066255070L
L0L
(lp894
(lp895
tp896
a(L958512770L
L0L
(lp897
(lp898
tp899
a(L2151320156L
L0L
(lp900
(lp901
tp902
a(L2201080984L
L0L
(lp903
(lp904
tp905
a(L3360570486L
L0L
(lp906
(lp907
tp908
a(L1318267208L
L0L
(lp909
(lp910
tp911
a(L142324239L
L0L
(lp912
(lp913
tp914
atp915
sI1074240308
(Vbootloader_debug_buffer
p916
(lp917
(L2100504542L
L0L
(lp918
(lp919
tp920
atp921
sI1074238260
(Vbootloader_enable_wp
p922
(lp923
(L1117825804L
L3785322319L
(lp924
(lp925
Vbootloader_execute_flash_command
p926
atp927
atp928
sI1074235700
(Vbootloader_flash_cs_timing_config
p929
(lp930
(L6299057L
L0L
(lp931
(lp932
tp933
atp934
sI1074244412
(Vmmu_hal_unmap_all
p935
(lp936
(L3251987510L
L0L
(lp937
(lp938
tp939
a(L2010554219L
L0L
(lp940
(lp941
tp942
a(L3268103L
L0L
(lp943
(lp944
tp945
a(L3212334523L
L0L
(lp946
(lp947
tp948
a(L2010554219L
L0L
(lp949
(lp950
tp951
a(L3360570486L
L0L
(lp952
(lp953
tp954
atp955
sI1074240316
(Vbootloader_sha256_start
p956
(lp957
(L1535180675L
L0L
(lp958
(lp959
tp960
atp961
sI1074238780
(Vtry_load_partition
p962
(lp963
(L1898493800L
L0L
(lp964
(lp965
tp966
a(L2454209732L
L3785322319L
(lp967
(lp968
Vbootloader_load_image
p969
atp970
a(L3360570486L
L0L
(lp971
(lp972
tp973
atp974
sI1074236988
(Vefuse_hal_get_minor_chip_version
p975
(lp976
(L2721608854L
L0L
(lp977
(lp978
tp979
atp980
sI1074236476
(Vbootloader_read_status_16b_rdsr_rdsr2
p981
(lp982
(L2652824119L
L1880226080L
(lp983
(lp984
Vbootloader_execute_flash_command
p985
aVbootloader_execute_flash_command
p986
atp987
atp988
sI1074269492
(Vbootloader_read_bootloader_header
p989
(lp990
(L357175441L
L3785322319L
(lp991
(lp992
Vbootloader_flash_read
p993
atp994
a(L740409177L
L3785322319L
(lp995
(lp996
Vesp_log_early_timestamp
p997
atp998
a(L735741265L
L0L
(lp999
(lp1000
tp1001
atp1002
sI1074239032
(Vload_image
p1003
(lp1004
(L276015809L
L1880226080L
(lp1005
(lp1006
Vbootloader_random_disable
p1007
aVbootloader_ana_clock_glitch_reset_config
p1008
atp1009
a(L1373545544L
L0L
(lp1010
(lp1011
tp1012
a(L106L
L0L
(lp1013
(lp1014
tp1015
a(L856849463L
L3758435744L
(lp1016
(lp1017
Vmmu_hal_unmap_all
p1018
aVcache_ll_l1_get_bus
p1019
aVcache_ll_l1_enable_bus
p1020
aVcache_ll_l1_get_bus
p1021
aVcache_ll_l1_enable_bus
p1022
aVcache_ll_l1_get_bus
p1023
aVcache_ll_l1_enable_bus
p1024
aVcache_ll_l1_get_bus
p1025
aVcache_ll_l1_enable_bus
p1026
aVbootloader_console_deinit
p1027
atp1028
a(L2366773478L
L0L
(lp1029
(lp1030
tp1031
a(L2902417580L
L0L
(lp1032
(lp1033
tp1034
a(L3087200444L
L3785322319L
(lp1035
(lp1036
Vesp_log_early_timestamp
p1037
atp1038
a(L3455620645L
L0L
(lp1039
(lp1040
tp1041
a(L3193235534L
L0L
(lp1042
(lp1043
tp1044
a(L3020204L
L0L
(lp1045
(lp1046
tp1047
a(L646578685L
L3785322319L
(lp1048
(lp1049
Vesp_log_early_timestamp
p1050
atp1051
a(L17153577L
L0L
(lp1052
(lp1053
tp1054
a(L2014464593L
L0L
(lp1055
(lp1056
tp1057
atp1058
sI1074243896
(Vwdt_hal_config_stage
p1059
(lp1060
(L331558507L
L0L
(lp1061
(lp1062
tp1063
a(L4279082939L
L0L
(lp1064
(lp1065
tp1066
a(L93674324L
L0L
(lp1067
(lp1068
tp1069
a(L2902417580L
L0L
(lp1070
(lp1071
tp1072
a(L177760103L
L0L
(lp1073
(lp1074
tp1075
a(L3020187L
L0L
(lp1076
(lp1077
tp1078
a(L94425498L
L3785322319L
(lp1079
(lp1080
Vabort
p1081
atp1082
a(L583583424L
L0L
(lp1083
(lp1084
tp1085
a(L3360570486L
L0L
(lp1086
(lp1087
tp1088
a(L952154508L
L0L
(lp1089
(lp1090
tp1091
a(L1012758146L
L0L
(lp1092
(lp1093
tp1094
a(L4278159418L
L0L
(lp1095
(lp1096
tp1097
a(L93674324L
L0L
(lp1098
(lp1099
tp1100
a(L3020204L
L0L
(lp1101
(lp1102
tp1103
a(L2067421300L
L0L
(lp1104
(lp1105
tp1106
a(L3020187L
L0L
(lp1107
(lp1108
tp1109
a(L106L
L0L
(lp1110
(lp1111
tp1112
a(L3660949161L
L0L
(lp1113
(lp1114
tp1115
a(L873628278L
L0L
(lp1116
(lp1117
tp1118
a(L2016454155L
L0L
(lp1119
(lp1120
tp1121
atp1122
sI1074245688
(Vrtc_clk_cpu_freq_to_xtal
p1123
(lp1124
(L767415990L
L3785322319L
(lp1125
(lp1126
Vesp_rom_set_cpu_ticks_per_us
p1127
atp1128
a(L94425498L
L3785322319L
(lp1129
(lp1130
Vabort
p1131
atp1132
a(L3009354280L
L3785322319L
(lp1133
(lp1134
Vrtc_clk_apb_freq_update
p1135
atp1136
a(L2258867230L
L0L
(lp1137
(lp1138
tp1139
a(L4206120353L
L0L
(lp1140
(lp1141
tp1142
atp1143
sI1074237004
(Vesp_dport_access_reg_read
p1144
(lp1145
(L1099794772L
L0L
(lp1146
(lp1147
tp1148
atp1149
sI1074267972
(Vbootloader_init
p1150
(lp1151
(L1256100286L
L3785322319L
(lp1152
(lp1153
Vbootloader_init_mem
p1154
atp1155
a(L496177411L
L0L
(lp1156
(lp1157
tp1158
a(L2027378118L
L3785322319L
(lp1159
(lp1160
V__assert_func
p1161
atp1162
a(L408886226L
L0L
(lp1163
(lp1164
tp1165
a(L2892662435L
L0L
(lp1166
(lp1167
tp1168
a(L3813782018L
L0L
(lp1169
(lp1170
tp1171
a(L3379255958L
L0L
(lp1172
(lp1173
tp1174
a(L3027019L
L0L
(lp1175
(lp1176
tp1177
a(L3949229104L
L0L
(lp1178
(lp1179
tp1180
a(L4055793689L
L1832448559L
(lp1181
(lp1182
Vbootloader_clear_bss_section
p1183
aVbootloader_common_vddsdio_configure
p1184
aVbootloader_clock_get_rated_freq_mhz
p1185
atp1186
a(L106L
L0L
(lp1187
(lp1188
tp1189
a(L87629889L
L1157885199L
(lp1190
(lp1191
Vbootloader_clock_configure
p1192
aVbootloader_console_init
p1193
aVbootloader_print_banner
p1194
aVbootloader_flash_update_id
p1195
aVbootloader_flash_xmc_startup
p1196
atp1197
a(L296996763L
L3785322319L
(lp1198
(lp1199
Vesp_log_early_timestamp
p1200
atp1201
a(L657010908L
L3785322319L
(lp1202
(lp1203
Vesp_log_early_timestamp
p1204
atp1205
a(L3360570486L
L0L
(lp1206
(lp1207
tp1208
a(L2444883382L
L3785322319L
(lp1209
(lp1210
Vbootloader_read_bootloader_header
p1211
atp1212
a(L2444883382L
L3785322319L
(lp1213
(lp1214
Vbootloader_check_bootloader_validity
p1215
atp1216
a(L2444883382L
L3785322319L
(lp1217
(lp1218
Vbootloader_init_spi_flash
p1219
atp1220
a(L3638850911L
L0L
(lp1221
(lp1222
tp1223
a(L254817508L
L0L
(lp1224
(lp1225
tp1226
a(L93892250L
L0L
(lp1227
(lp1228
tp1229
a(L2915015718L
L0L
(lp1230
(lp1231
tp1232
a(L1634500369L
L1880226080L
(lp1233
(lp1234
Vbootloader_config_wdt
p1235
aVbootloader_enable_random
p1236
atp1237
a(L1895147938L
L0L
(lp1238
(lp1239
tp1240
a(L2680457259L
L0L
(lp1241
(lp1242
tp1243
a(L3027019L
L0L
(lp1244
(lp1245
tp1246
a(L97315L
L0L
(lp1247
(lp1248
tp1249
a(L1442646668L
L3785322319L
(lp1250
(lp1251
Vesp_log_early_timestamp
p1252
atp1253
a(L4094931264L
L3785322319L
(lp1254
(lp1255
Vesp_log_early_timestamp
p1256
atp1257
a(L3164960223L
L0L
(lp1258
(lp1259
tp1260
a(L1895147938L
L0L
(lp1261
(lp1262
tp1263
a(L156585483L
L1880226080L
(lp1264
(lp1265
Vwdt_reset_info_dump
p1266
aVwdt_reset_info_dump
p1267
atp1268
atp1269
sI1074268484
(Vbootloader_common_vddsdio_configure
p1270
(lp1271
(L1829974089L
L3785322319L
(lp1272
(lp1273
Vrtc_vddsdio_get_config
p1274
atp1275
a(L2795064753L
L3785322319L
(lp1276
(lp1277
Vrtc_vddsdio_set_config
p1278
atp1279
a(L3360570486L
L0L
(lp1280
(lp1281
tp1282
atp1283
sI1074238280
(Vbootloader_mmap_get_free_pages
p1284
(lp1285
(L1496516875L
L0L
(lp1286
(lp1287
tp1288
atp1289
sI1074235464
(Vbootloader_flash_read_sfdp
p1290
(lp1291
(L711701400L
L0L
(lp1292
(lp1293
tp1294
a(L3305374083L
L3785322319L
(lp1295
(lp1296
V__assert_func
p1297
atp1298
a(L3704332455L
L3785322319L
(lp1299
(lp1300
Vbootloader_flash_execute_command_common
p1301
atp1302
atp1303
sI1074270808
(Vrtc_vddsdio_set_config
p1304
(lp1305
(L609012702L
L0L
(lp1306
(lp1307
tp1308
atp1309
sI1074241876
(Vprocess_segments
p1310
(lp1311
(L670742546L
L0L
(lp1312
(lp1313
tp1314
a(L1478361954L
L0L
(lp1315
(lp1316
tp1317
a(L3782401745L
L0L
(lp1318
(lp1319
tp1320
a(L106L
L0L
(lp1321
(lp1322
tp1323
a(L234202048L
L0L
(lp1324
(lp1325
tp1326
a(L3871898660L
L3785322319L
(lp1327
(lp1328
Vesp_log_early_timestamp
p1329
atp1330
a(L418370317L
L3785322319L
(lp1331
(lp1332
Vbootloader_flash_read
p1333
atp1334
a(L1355216156L
L3785322319L
(lp1335
(lp1336
Vesp_log_early_timestamp
p1337
atp1338
a(L464010095L
L0L
(lp1339
(lp1340
tp1341
a(L1890170661L
L0L
(lp1342
(lp1343
tp1344
a(L4138551778L
L3785322319L
(lp1345
(lp1346
Vbootloader_sha256_data
p1347
atp1348
a(L2440174491L
L0L
(lp1349
(lp1350
tp1351
a(L2258867228L
L0L
(lp1352
(lp1353
tp1354
a(L1653981967L
L0L
(lp1355
(lp1356
tp1357
a(L523560059L
L0L
(lp1358
(lp1359
tp1360
a(L3544088471L
L3785322319L
(lp1361
(lp1362
Vesp_log_early_timestamp
p1363
atp1364
a(L697294929L
L0L
(lp1365
(lp1366
tp1367
a(L922578675L
L0L
(lp1368
(lp1369
tp1370
a(L3241605606L
L0L
(lp1371
(lp1372
tp1373
a(L606368755L
L0L
(lp1374
(lp1375
tp1376
a(L2626753793L
L0L
(lp1377
(lp1378
tp1379
a(L4233846116L
L3785322319L
(lp1380
(lp1381
Vesp_log_early_timestamp
p1382
atp1383
a(L2864902319L
L0L
(lp1384
(lp1385
tp1386
a(L2314103720L
L0L
(lp1387
(lp1388
tp1389
a(L2136754140L
L3785322319L
(lp1390
(lp1391
Vbootloader_mmap_get_free_pages
p1392
atp1393
a(L3028481L
L0L
(lp1394
(lp1395
tp1396
a(L3306817873L
L0L
(lp1397
(lp1398
tp1399
a(L2642187286L
L3785322319L
(lp1400
(lp1401
Vshould_load
p1402
atp1403
a(L3020204L
L0L
(lp1404
(lp1405
tp1406
a(L1879695069L
L3785322319L
(lp1407
(lp1408
Vverify_load_addresses
p1409
atp1410
a(L106L
L0L
(lp1411
(lp1412
tp1413
a(L113955750L
L0L
(lp1414
(lp1415
tp1416
a(L262831199L
L0L
(lp1417
(lp1418
tp1419
a(L4128104404L
L3785322319L
(lp1420
(lp1421
Vbootloader_mmap
p1422
atp1423
a(L3489357484L
L3785322319L
(lp1424
(lp1425
Vesp_log_early_timestamp
p1426
atp1427
a(L1727089337L
L0L
(lp1428
(lp1429
tp1430
a(L1873784781L
L0L
(lp1431
(lp1432
tp1433
a(L2229288460L
L0L
(lp1434
(lp1435
tp1436
a(L1595421496L
L3785322319L
(lp1437
(lp1438
Vbootloader_munmap
p1439
atp1440
a(L1820299912L
L0L
(lp1441
(lp1442
tp1443
a(L2455000058L
L3785322319L
(lp1444
(lp1445
Vbootloader_fill_random
p1446
atp1447
a(L3277879431L
L0L
(lp1448
(lp1449
tp1450
a(L3281573515L
L0L
(lp1451
(lp1452
tp1453
a(L3450268858L
L0L
(lp1454
(lp1455
tp1456
a(L3021749L
L0L
(lp1457
(lp1458
tp1459
a(L3821106106L
L0L
(lp1460
(lp1461
tp1462
a(L2494883302L
L0L
(lp1463
(lp1464
tp1465
a(L2043449225L
L0L
(lp1466
(lp1467
tp1468
a(L2534421630L
L0L
(lp1469
(lp1470
tp1471
a(L301394602L
L0L
(lp1472
(lp1473
tp1474
a(L3018893270L
L0L
(lp1475
(lp1476
tp1477
a(L1224748769L
L0L
(lp1478
(lp1479
tp1480
a(L653501462L
L0L
(lp1481
(lp1482
tp1483
a(L3499111993L
L3785322319L
(lp1484
(lp1485
Vbootloader_sha256_data
p1486
atp1487
a(L90548756L
L0L
(lp1488
(lp1489
tp1490
a(L708495868L
L0L
(lp1491
(lp1492
tp1493
a(L2883900389L
L0L
(lp1494
(lp1495
tp1496
atp1497
sI1074240336
(Vbootloader_sha256_data
p1498
(lp1499
(L4066096136L
L0L
(lp1500
(lp1501
tp1502
a(L3197877865L
L0L
(lp1503
(lp1504
tp1505
a(L3627025138L
L3785322319L
(lp1506
(lp1507
V__assert_func
p1508
atp1509
a(L498498478L
L0L
(lp1510
(lp1511
tp1512
a(L2462865950L
L0L
(lp1513
(lp1514
tp1515
a(L2910371777L
L0L
(lp1516
(lp1517
tp1518
a(L3360570486L
L0L
(lp1519
(lp1520
tp1521
a(L1911737285L
L0L
(lp1522
(lp1523
tp1524
a(L248495140L
L0L
(lp1525
(lp1526
tp1527
a(L2750781904L
L0L
(lp1528
(lp1529
tp1530
a(L1230441504L
L0L
(lp1531
(lp1532
tp1533
a(L3963406674L
L0L
(lp1534
(lp1535
tp1536
a(L1394964493L
L0L
(lp1537
(lp1538
tp1539
a(L2290573569L
L0L
(lp1540
(lp1541
tp1542
a(L702738026L
L0L
(lp1543
(lp1544
tp1545
a(L3745004802L
L0L
(lp1546
(lp1547
tp1548
atp1549
sI1074238288
(Vbootloader_fill_random
p1550
(lp1551
(L387180576L
L0L
(lp1552
(lp1553
tp1554
a(L3718897L
L3785322319L
(lp1555
(lp1556
V__assert_func
p1557
atp1558
a(L1882547218L
L0L
(lp1559
(lp1560
tp1561
a(L2910371777L
L0L
(lp1562
(lp1563
tp1564
a(L95634693L
L0L
(lp1565
(lp1566
tp1567
a(L3630908706L
L0L
(lp1568
(lp1569
tp1570
a(L160162640L
L0L
(lp1571
(lp1572
tp1573
a(L97689L
L0L
(lp1574
(lp1575
tp1576
a(L3360570486L
L0L
(lp1577
(lp1578
tp1579
atp1580
sI1074238812
(Vcache_ll_l1_get_bus
p1581
(lp1582
(L2721956783L
L0L
(lp1583
(lp1584
tp1585
a(L94425498L
L3785322319L
(lp1586
(lp1587
Vabort
p1588
atp1589
a(L3175393928L
L0L
(lp1590
(lp1591
tp1592
a(L3440284994L
L0L
(lp1593
(lp1594
tp1595
a(L892952750L
L0L
(lp1596
(lp1597
tp1598
a(L1182811810L
L0L
(lp1599
(lp1600
tp1601
a(L1101742417L
L0L
(lp1602
(lp1603
tp1604
a(L1100767927L
L0L
(lp1605
(lp1606
tp1607
a(L3360570486L
L0L
(lp1608
(lp1609
tp1610
a(L2727400564L
L0L
(lp1611
(lp1612
tp1613
a(L2882938163L
L0L
(lp1614
(lp1615
tp1616
a(L2927201858L
L0L
(lp1617
(lp1618
tp1619
a(L2258718273L
L0L
(lp1620
(lp1621
tp1622
a(L2580713941L
L0L
(lp1623
(lp1624
tp1625
a(L2767111967L
L0L
(lp1626
(lp1627
tp1628
a(L2748646817L
L0L
(lp1629
(lp1630
tp1631
a(L1641149277L
L0L
(lp1632
(lp1633
tp1634
a(L3207711893L
L0L
(lp1635
(lp1636
tp1637
a(L3027019L
L0L
(lp1638
(lp1639
tp1640
a(L1299866560L
L0L
(lp1641
(lp1642
tp1643
a(L1299866436L
L0L
(lp1644
(lp1645
tp1646
atp1647
sI1074269268
(Vbootloader_flash_update_id
p1648
(lp1649
(L3587584986L
L3785322319L
(lp1650
(lp1651
Vbootloader_read_flash_id
p1652
atp1653
atp1654
sI1074270036
(Vrtc_clk_xtal_freq_estimate
p1655
(lp1656
(L1823831978L
L1880226080L
(lp1657
(lp1658
Vrtc_clk_8m_enabled
p1659
aVrtc_clk_8md256_enabled
p1660
atp1661
a(L2449794434L
L3785322319L
(lp1662
(lp1663
Vrtc_clk_8m_enable
p1664
atp1665
a(L3093391525L
L3785322319L
(lp1666
(lp1667
Vrtc_clk_cal_ratio
p1668
atp1669
a(L3934977694L
L0L
(lp1670
(lp1671
tp1672
a(L3955289886L
L0L
(lp1673
(lp1674
tp1675
a(L1739583546L
L3785322319L
(lp1676
(lp1677
Vesp_log_early_timestamp
p1678
atp1679
a(L2307427870L
L0L
(lp1680
(lp1681
tp1682
a(L1281346514L
L3785322319L
(lp1683
(lp1684
Vrtc_clk_8m_enable
p1685
atp1686
a(L3909119106L
L0L
(lp1687
(lp1688
tp1689
a(L3925180849L
L3785322319L
(lp1690
(lp1691
Vesp_log_early_timestamp
p1692
atp1693
a(L3304487880L
L0L
(lp1694
(lp1695
tp1696
a(L1641150486L
L0L
(lp1697
(lp1698
tp1699
a(L2164845356L
L3785322319L
(lp1700
(lp1701
Vesp_log_early_timestamp
p1702
atp1703
atp1704
sI1074237016
(Vis_xmc_chip_strict
p1705
(lp1706
(L1286841609L
L0L
(lp1707
(lp1708
tp1709
a(L2234016759L
L0L
(lp1710
(lp1711
tp1712
a(L1069027148L
L0L
(lp1713
(lp1714
tp1715
a(L3021749L
L0L
(lp1716
(lp1717
tp1718
a(L1900148749L
L0L
(lp1719
(lp1720
tp1721
a(L1936875721L
L0L
(lp1722
(lp1723
tp1724
a(L3356166509L
L0L
(lp1725
(lp1726
tp1727
a(L1937769451L
L0L
(lp1728
(lp1729
tp1730
a(L2137658907L
L0L
(lp1731
(lp1732
tp1733
a(L4265949734L
L0L
(lp1734
(lp1735
tp1736
a(L3360570486L
L0L
(lp1737
(lp1738
tp1739
atp1740
sI1074245208
(Vrtc_clk_slow_src_get
p1741
(lp1742
(L3437445307L
L0L
(lp1743
(lp1744
tp1745
a(L3020187L
L0L
(lp1746
(lp1747
tp1748
a(L2902417580L
L0L
(lp1749
(lp1750
tp1751
a(L2258688485L
L0L
(lp1752
(lp1753
tp1754
a(L3360570486L
L0L
(lp1755
(lp1756
tp1757
atp1758
sI1074236516
(Vbootloader_write_status_8b_wrsr
p1759
(lp1760
(L3692606543L
L3785322319L
(lp1761
(lp1762
Vbootloader_execute_flash_command
p1763
atp1764
atp1765
sI1074245476
(Vrtc_clk_cpu_freq_get_config
p1766
(lp1767
(L1857478154L
L0L
(lp1768
(lp1769
tp1770
a(L3020187L
L0L
(lp1771
(lp1772
tp1773
a(L3020187L
L0L
(lp1774
(lp1775
tp1776
a(L3219192648L
L3785322319L
(lp1777
(lp1778
Vrtc_clk_xtal_freq_get
p1779
atp1780
a(L3789795478L
L0L
(lp1781
(lp1782
tp1783
a(L1205645677L
L1880226080L
(lp1784
(lp1785
Vesp_log_early_timestamp
p1786
aVabort
p1787
atp1788
a(L3781116297L
L0L
(lp1789
(lp1790
tp1791
a(L3020187L
L0L
(lp1792
(lp1793
tp1794
a(L3028481L
L0L
(lp1795
(lp1796
tp1797
a(L38508693L
L0L
(lp1798
(lp1799
tp1800
a(L187152368L
L0L
(lp1801
(lp1802
tp1803
a(L1161083655L
L0L
(lp1804
(lp1805
tp1806
a(L1395485899L
L0L
(lp1807
(lp1808
tp1809
a(L2070600034L
L0L
(lp1810
(lp1811
tp1812
atp1813
sI1074246500
(Vrtc_clk_apb_freq_get
p1814
(lp1815
(L2902813935L
L0L
(lp1816
(lp1817
tp1818
atp1819
sI1074268780
(Vbootloader_random_enable
p1820
(lp1821
(L3678846225L
L0L
(lp1822
(lp1823
tp1824
atp1825
sI1074237792
(Vbootloader_munmap
p1826
(lp1827
(L1390725234L
L0L
(lp1828
(lp1829
tp1830
a(L1679328888L
L0L
(lp1831
(lp1832
tp1833
a(L3360570486L
L0L
(lp1834
(lp1835
tp1836
atp1837
sI1074247008
(Vrtc_clk_cal_ratio
p1838
(lp1839
(L606352554L
L3785322319L
(lp1840
(lp1841
Vrtc_clk_cal_internal
p1842
atp1843
atp1844
sI1074269536
(Vbootloader_check_bootloader_validity
p1845
(lp1846
(L2181726224L
L1880226080L
(lp1847
(lp1848
Vefuse_hal_chip_revision
p1849
aVbootloader_common_check_chip_validity
p1850
atp1851
atp1852
sI1074241132
(Vbootloader_util_regions_overlap
p1853
(lp1854
(L2762640130L
L0L
(lp1855
(lp1856
tp1857
a(L3455000357L
L0L
(lp1858
(lp1859
tp1860
a(L591145840L
L3785322319L
(lp1861
(lp1862
V__assert_func
p1863
atp1864
a(L97642L
L0L
(lp1865
(lp1866
tp1867
a(L294748017L
L0L
(lp1868
(lp1869
tp1870
a(L366123053L
L0L
(lp1871
(lp1872
tp1873
a(L2258867228L
L0L
(lp1874
(lp1875
tp1876
a(L1253626734L
L0L
(lp1877
(lp1878
tp1879
a(L2258897019L
L0L
(lp1880
(lp1881
tp1882
a(L3109269495L
L0L
(lp1883
(lp1884
tp1885
atp1886
sI1074244460
(Vefuse_hal_get_rated_freq_mhz
p1887
(lp1888
(L3060225221L
L0L
(lp1889
(lp1890
tp1891
a(L338960367L
L0L
(lp1892
(lp1893
tp1894
a(L3360570486L
L0L
(lp1895
(lp1896
tp1897
atp1898
sI1074267748
(Vwdt_reset_info_dump
p1899
(lp1900
(L4037458708L
L0L
(lp1901
(lp1902
tp1903
a(L522353410L
L0L
(lp1904
(lp1905
tp1906
a(L217258670L
L0L
(lp1907
(lp1908
tp1909
a(L1103285333L
L0L
(lp1910
(lp1911
tp1912
a(L4222762845L
L3785322319L
(lp1913
(lp1914
Vesp_log_early_timestamp
p1915
atp1916
a(L2967992533L
L0L
(lp1917
(lp1918
tp1919
a(L1493818067L
L0L
(lp1920
(lp1921
tp1922
a(L4025433257L
L3785322319L
(lp1923
(lp1924
Vesp_log_early_timestamp
p1925
atp1926
atp1927
sI1074268772
(Vbootloader_init_mem
p1928
(lp1929
(L1287383080L
L3785322319L
(lp1930
(lp1931
Vesp_cpu_configure_region_protection
p1932
atp1933
atp1934
sI1074269284
(Vbootloader_flash_get_wp_pin
p1935
(lp1936
(L2601977293L
L3785322319L
(lp1937
(lp1938
Vbootloader_common_get_chip_ver_pkg
p1939
atp1940
a(L93674324L
L0L
(lp1941
(lp1942
tp1943
a(L295626217L
L0L
(lp1944
(lp1945
tp1946
a(L2258688531L
L0L
(lp1947
(lp1948
tp1949
a(L3360570486L
L0L
(lp1950
(lp1951
tp1952
a(L937283203L
L0L
(lp1953
(lp1954
tp1955
a(L1641149339L
L0L
(lp1956
(lp1957
tp1958
a(L846431812L
L3785322319L
(lp1959
(lp1960
Vefuse_hal_chip_revision
p1961
atp1962
a(L1299866529L
L0L
(lp1963
(lp1964
tp1965
atp1966
sI1074236776
(Vesp_rom_uart_set_clock_baudrate
p1967
(lp1968
(L2889646162L
L0L
(lp1969
(lp1970
tp1971
a(L2295279860L
L0L
(lp1972
(lp1973
tp1974
a(L2805931291L
L0L
(lp1975
(lp1976
tp1977
a(L2901979283L
L0L
(lp1978
(lp1979
tp1980
atp1981
sI1074244212
(Vwdt_hal_write_protect_disable
p1982
(lp1983
(L1657773300L
L0L
(lp1984
(lp1985
tp1986
a(L4195472003L
L0L
(lp1987
(lp1988
tp1989
a(L3360570486L
L0L
(lp1990
(lp1991
tp1992
a(L1210571996L
L0L
(lp1993
(lp1994
tp1995
atp1996
sI1074245236
(Vrtc_clk_slow_freq_get_hz
p1997
(lp1998
(L1826267122L
L3785322319L
(lp1999
(lp2000
Vrtc_clk_slow_src_get
p2001
atp2002
a(L4026793049L
L0L
(lp2003
(lp2004
tp2005
a(L2943901344L
L0L
(lp2006
(lp2007
tp2008
a(L3360570486L
L0L
(lp2009
(lp2010
tp2011
atp2012
sI1074268540
(Vbootloader_clock_configure
p2013
(lp2014
(L2559598596L
L1880226080L
(lp2015
(lp2016
Vesp_rom_uart_tx_wait_idle
p2017
aVefuse_hal_chip_revision
p2018
atp2019
a(L1714060431L
L0L
(lp2020
(lp2021
tp2022
a(L883406775L
L0L
(lp2023
(lp2024
tp2025
a(L106L
L0L
(lp2026
(lp2027
tp2028
a(L3646321382L
L1832448559L
(lp2029
(lp2030
Vrtc_clk_slow_src_get
p2031
aVrtc_clk_fast_src_get
p2032
aVrtc_clk_init
p2033
atp2034
a(L3297562552L
L0L
(lp2035
(lp2036
tp2037
a(L1624159269L
L3785322319L
(lp2038
(lp2039
Vrtc_clk_apb_freq_get
p2040
atp2041
a(L106L
L0L
(lp2042
(lp2043
tp2044
a(L106L
L0L
(lp2045
(lp2046
tp2047
atp2048
sI1074269564
(Vbootloader_config_wdt
p2049
(lp2050
(L4027912329L
L505859776L
(lp2051
(lp2052
Vwdt_hal_write_protect_disable
p2053
aVwdt_hal_set_flashboot_en
p2054
aVwdt_hal_write_protect_enable
p2055
aVwdt_hal_init
p2056
aVrtc_clk_slow_freq_get_hz
p2057
aVwdt_hal_write_protect_disable
p2058
aVwdt_hal_config_stage
p2059
aVwdt_hal_enable
p2060
aVwdt_hal_write_protect_enable
p2061
aVwdt_hal_write_protect_disable
p2062
aVwdt_hal_set_flashboot_en
p2063
aVwdt_hal_write_protect_enable
p2064
atp2065
atp2066
sI1074237552
(Vspi_to_esp_err
p2067
(lp2068
(L3481169892L
L0L
(lp2069
(lp2070
tp2071
a(L2420870439L
L0L
(lp2072
(lp2073
tp2074
a(L3952441574L
L0L
(lp2075
(lp2076
tp2077
a(L3126521138L
L0L
(lp2078
(lp2079
tp2080
atp2081
sI1074235516
(Vbootloader_read_flash_id
p2082
(lp2083
(L549578328L
L3785322319L
(lp2084
(lp2085
Vbootloader_execute_flash_command
p2086
atp2087
atp2088
sI1074241660
(Vprocess_appended_hash_and_sig
p2089
(lp2090
(L1668084157L
L0L
(lp2091
(lp2092
tp2093
a(L2910371777L
L0L
(lp2094
(lp2095
tp2096
a(L4285188111L
L0L
(lp2097
(lp2098
tp2099
a(L1151175705L
L0L
(lp2100
(lp2101
tp2102
a(L97689L
L0L
(lp2103
(lp2104
tp2105
a(L2803448398L
L3785322319L
(lp2106
(lp2107
Vesp_log_early_timestamp
p2108
atp2109
a(L3620582131L
L0L
(lp2110
(lp2111
tp2112
a(L1464893571L
L3785322319L
(lp2113
(lp2114
Vbootloader_flash_read
p2115
atp2116
a(L735741265L
L0L
(lp2117
(lp2118
tp2119
atp2120
sI1074248316
(Vesp_rom_spiflash_erase_sector
p2121
(lp2122
(L91597871L
L0L
(lp2123
(lp2124
tp2125
a(L2258688483L
L0L
(lp2126
(lp2127
tp2128
a(L3360570486L
L0L
(lp2129
(lp2130
tp2131
a(L3212356251L
L3785322319L
(lp2132
(lp2133
Vesp_rom_spiflash_enable_write
p2134
atp2135
a(L184152988L
L0L
(lp2136
(lp2137
tp2138
a(L805356210L
L3785322319L
(lp2139
(lp2140
Vesp_rom_spiflash_wait_idle
p2141
atp2142
a(L3333707777L
L0L
(lp2143
(lp2144
tp2145
a(L3582858798L
L3785322319L
(lp2146
(lp2147
Vesp_rom_spiflash_wait_idle
p2148
atp2149
atp2150
sI1074236280
(Vbootloader_flash_dummy_config
p2151
(lp2152
(L379397211L
L0L
(lp2153
(lp2154
tp2155
a(L2761717557L
L0L
(lp2156
(lp2157
tp2158
a(L1849044936L
L0L
(lp2159
(lp2160
tp2161
a(L3702150741L
L0L
(lp2162
(lp2163
tp2164
a(L1010450057L
L0L
(lp2165
(lp2166
tp2167
a(L3020204L
L0L
(lp2168
(lp2169
tp2170
a(L1610443405L
L0L
(lp2171
(lp2172
tp2173
a(L4032120524L
L0L
(lp2174
(lp2175
tp2176
a(L2336993863L
L0L
(lp2177
(lp2178
tp2179
a(L1298875775L
L0L
(lp2180
(lp2181
tp2182
a(L3880393601L
L0L
(lp2183
(lp2184
tp2185
a(L3433671740L
L0L
(lp2186
(lp2187
tp2188
a(L1610443436L
L0L
(lp2189
(lp2190
tp2191
atp2192
sI1074236536
(Vbootloader_write_status_8b_wrsr2
p2193
(lp2194
(L3772914914L
L3785322319L
(lp2195
(lp2196
Vbootloader_execute_flash_command
p2197
atp2198
atp2199
sI1074247040
(Vrtc_clk_wait_for_slow_cycle
p2200
(lp2201
(L1915709519L
L0L
(lp2202
(lp2203
tp2204
a(L287687718L
L0L
(lp2205
(lp2206
tp2207
a(L3360570486L
L0L
(lp2208
(lp2209
tp2210
a(L717034245L
L0L
(lp2211
(lp2212
tp2213
a(L1300789833L
L0L
(lp2214
(lp2215
tp2216
a(L1259765481L
L0L
(lp2217
(lp2218
tp2219
a(L3674080948L
L0L
(lp2220
(lp2221
tp2222
a(L2501170394L
L3785322319L
(lp2223
(lp2224
Vesp_log_early_timestamp
p2225
atp2226
atp2227
sI1074236556
(Vbootloader_write_status_16b_wrsr
p2228
(lp2229
(L1235576642L
L3785322319L
(lp2230
(lp2231
Vbootloader_execute_flash_command
p2232
atp2233
atp2234
sI1074247304
(Vesp_rom_spiflash_wait_idle
p2235
(lp2236
(L3233075895L
L0L
(lp2237
(lp2238
tp2239
a(L2023766174L
L0L
(lp2240
(lp2241
tp2242
a(L2805933915L
L0L
(lp2243
(lp2244
tp2245
a(L3086959262L
L0L
(lp2246
(lp2247
tp2248
a(L4161019926L
L3785322319L
(lp2249
(lp2250
Vesp_rom_spiflash_read_status
p2251
atp2252
atp2253
sI1074269336
(Vbootloader_init_spi_flash
p2254
(lp2255
(L34104537L
L1157885199L
(lp2256
(lp2257
Vbootloader_flash_gpio_config
p2258
aVbootloader_flash_dummy_config
p2259
aVbootloader_flash_cs_timing_config
p2260
aVbootloader_flash_unlock
p2261
aVbootloader_enable_qio_mode
p2262
atp2263
a(L93674324L
L0L
(lp2264
(lp2265
tp2266
a(L3422553167L
L0L
(lp2267
(lp2268
tp2269
a(L1707909459L
L0L
(lp2270
(lp2271
tp2272
a(L1038322988L
L0L
(lp2273
(lp2274
tp2275
a(L1798808034L
L3785322319L
(lp2276
(lp2277
Vbootloader_enable_wp
p2278
atp2279
a(L3907331784L
L0L
(lp2280
(lp2281
tp2282
atp2283
sI1074238100
(Vbootloader_flash_erase_sector
p2284
(lp2285
(L4129137686L
L1880226080L
(lp2286
(lp2287
Vesp_rom_spiflash_erase_sector
p2288
aVspi_to_esp_err
p2289
atp2290
atp2291
sI1074237844
(Vbootloader_flash_read
p2292
(lp2293
(L3022618172L
L0L
(lp2294
(lp2295
tp2296
a(L3106937175L
L3785322319L
(lp2297
(lp2298
Vesp_log_early_timestamp
p2299
atp2300
a(L2780906736L
L0L
(lp2301
(lp2302
tp2303
a(L1351513776L
L0L
(lp2304
(lp2305
tp2306
a(L1486740491L
L0L
(lp2307
(lp2308
tp2309
a(L1039718061L
L3785322319L
(lp2310
(lp2311
Vesp_log_early_timestamp
p2312
atp2313
a(L3283691850L
L0L
(lp2314
(lp2315
tp2316
a(L1179571907L
L3785322319L
(lp2317
(lp2318
Vesp_log_early_timestamp
p2319
atp2320
a(L3020204L
L0L
(lp2321
(lp2322
tp2323
a(L384130671L
L0L
(lp2324
(lp2325
tp2326
a(L97422L
L0L
(lp2327
(lp2328
tp2329
a(L674456573L
L0L
(lp2330
(lp2331
tp2332
a(L1253319443L
L0L
(lp2333
(lp2334
tp2335
a(L2867857952L
L3785322319L
(lp2336
(lp2337
V__assert_func
p2338
atp2339
a(L2383244345L
L0L
(lp2340
(lp2341
tp2342
a(L3426608415L
L0L
(lp2343
(lp2344
tp2345
a(L3283247405L
L1880226080L
(lp2346
(lp2347
Vesp_rom_spiflash_read
p2348
aVspi_to_esp_err
p2349
atp2350
atp2351
sI1074244244
(Vwdt_hal_set_flashboot_en
p2352
(lp2353
(L2375320464L
L0L
(lp2354
(lp2355
tp2356
a(L3915867581L
L0L
(lp2357
(lp2358
tp2359
a(L3360570486L
L0L
(lp2360
(lp2361
tp2362
a(L2321842085L
L0L
(lp2363
(lp2364
tp2365
atp2366
sI1074237584
(Vbootloader_mmap
p2367
(lp2368
(L1371566704L
L0L
(lp2369
(lp2370
tp2371
a(L2788000642L
L3785322319L
(lp2372
(lp2373
Vesp_log_early_timestamp
p2374
atp2375
a(L2867263840L
L0L
(lp2376
(lp2377
tp2378
a(L3729184599L
L0L
(lp2379
(lp2380
tp2381
a(L1917285873L
L3785322319L
(lp2382
(lp2383
Vesp_log_early_timestamp
p2384
atp2385
a(L2258688482L
L0L
(lp2386
(lp2387
tp2388
a(L3360570486L
L0L
(lp2389
(lp2390
tp2391
a(L3476478606L
L0L
(lp2392
(lp2393
tp2394
a(L2387608636L
L0L
(lp2395
(lp2396
tp2397
a(L2524678404L
L3785322319L
(lp2398
(lp2399
Vesp_log_early_timestamp
p2400
atp2401
a(L528675049L
L3785322319L
(lp2402
(lp2403
Vesp_log_early_timestamp
p2404
atp2405
a(L374681421L
L0L
(lp2406
(lp2407
tp2408
atp2409
sI1074244496
(Vrtc_clk_32k_enable_common
p2410
(lp2411
(L2746647295L
L0L
(lp2412
(lp2413
tp2414
a(L97422L
L0L
(lp2415
(lp2416
tp2417
a(L2218417248L
L0L
(lp2418
(lp2419
tp2420
a(L3252746339L
L0L
(lp2421
(lp2422
tp2423
a(L51458120L
L0L
(lp2424
(lp2425
tp2426
atp2427
sI1074245264
(Vrtc_clk_fast_src_set
p2428
(lp2429
(L1730079887L
L0L
(lp2430
(lp2431
tp2432
a(L3020187L
L0L
(lp2433
(lp2434
tp2435
a(L3827921190L
L3785322319L
(lp2436
(lp2437
Vabort
p2438
atp2439
a(L2904656757L
L0L
(lp2440
(lp2441
tp2442
a(L2553436348L
L0L
(lp2443
(lp2444
tp2445
a(L300459962L
L0L
(lp2446
(lp2447
tp2448
atp2449
sI1074246544
(Vrtc_clk_cal_internal
p2450
(lp2451
(L1883690701L
L0L
(lp2452
(lp2453
tp2454
a(L4291081187L
L3785322319L
(lp2455
(lp2456
V__assert_func
p2457
atp2458
a(L1221653875L
L0L
(lp2459
(lp2460
tp2461
a(L1673513644L
L0L
(lp2462
(lp2463
tp2464
a(L3601390570L
L3785322319L
(lp2465
(lp2466
Vrtc_clk_slow_src_get
p2467
atp2468
a(L3008910671L
L0L
(lp2469
(lp2470
tp2471
a(L97689L
L0L
(lp2472
(lp2473
tp2474
a(L1571791292L
L0L
(lp2475
(lp2476
tp2477
a(L3028464L
L0L
(lp2478
(lp2479
tp2480
a(L3028481L
L0L
(lp2481
(lp2482
tp2483
a(L3450258550L
L0L
(lp2484
(lp2485
tp2486
a(L3417078051L
L3785322319L
(lp2487
(lp2488
Vrtc_clk_xtal_freq_get
p2489
atp2490
a(L2780079961L
L0L
(lp2491
(lp2492
tp2493
a(L3317863055L
L0L
(lp2494
(lp2495
tp2496
a(L3530616353L
L3785322319L
(lp2497
(lp2498
Vesp_log_early_timestamp
p2499
atp2500
a(L2258688482L
L0L
(lp2501
(lp2502
tp2503
a(L3360570486L
L0L
(lp2504
(lp2505
tp2506
a(L3553505594L
L0L
(lp2507
(lp2508
tp2509
a(L403361192L
L0L
(lp2510
(lp2511
tp2512
a(L3243404432L
L3785322319L
(lp2513
(lp2514
Vrtc_clk_8m_enable
p2515
atp2516
a(L4087406995L
L0L
(lp2517
(lp2518
tp2519
a(L321045487L
L0L
(lp2520
(lp2521
tp2522
a(L2910371777L
L0L
(lp2523
(lp2524
tp2525
a(L2902417580L
L0L
(lp2526
(lp2527
tp2528
a(L3322757994L
L0L
(lp2529
(lp2530
tp2531
a(L3020204L
L0L
(lp2532
(lp2533
tp2534
a(L3584126839L
L0L
(lp2535
(lp2536
tp2537
a(L3429540926L
L0L
(lp2538
(lp2539
tp2540
a(L3028464L
L0L
(lp2541
(lp2542
tp2543
a(L3412887891L
L3785322319L
(lp2544
(lp2545
Vrtc_clk_8m_enable
p2546
atp2547
atp2548
sI1074270888
(Vmpu_hal_set_region_access
p2549
(lp2550
(L3538356822L
L0L
(lp2551
(lp2552
tp2553
a(L93674324L
L0L
(lp2554
(lp2555
tp2556
a(L2910371777L
L0L
(lp2557
(lp2558
tp2559
a(L3472092938L
L0L
(lp2560
(lp2561
tp2562
a(L3020187L
L0L
(lp2563
(lp2564
tp2565
a(L3360570486L
L0L
(lp2566
(lp2567
tp2568
a(L2258718273L
L0L
(lp2569
(lp2570
tp2571
a(L3446648619L
L0L
(lp2572
(lp2573
tp2574
a(L3739532189L
L0L
(lp2575
(lp2576
tp2577
a(L1300789895L
L0L
(lp2578
(lp2579
tp2580
atp2581
sI1074235812
(Vbootloader_flash_gpio_config
p2582
(lp2583
(L3362256192L
L3785322319L
(lp2584
(lp2585
Vbootloader_common_get_chip_ver_pkg
p2586
atp2587
a(L106L
L0L
(lp2588
(lp2589
tp2590
a(L1998579353L
L0L
(lp2591
(lp2592
tp2593
a(L106L
L0L
(lp2594
(lp2595
tp2596
a(L961479410L
L0L
(lp2597
(lp2598
tp2599
a(L1365162803L
L0L
(lp2600
(lp2601
tp2602
a(L106L
L0L
(lp2603
(lp2604
tp2605
a(L4003626558L
L0L
(lp2606
(lp2607
tp2608
a(L2656511625L
L0L
(lp2609
(lp2610
tp2611
a(L3360570486L
L0L
(lp2612
(lp2613
tp2614
atp2615
sI1074241188
(Vverify_load_addresses
p2616
(lp2617
(L2764487219L
L0L
(lp2618
(lp2619
tp2620
a(L106L
L0L
(lp2621
(lp2622
tp2623
a(L97642L
L0L
(lp2624
(lp2625
tp2626
a(L1636190398L
L3785322319L
(lp2627
(lp2628
V__assert_func
p2629
atp2630
a(L2689564968L
L0L
(lp2631
(lp2632
tp2633
a(L106L
L0L
(lp2634
(lp2635
tp2636
a(L955403079L
L0L
(lp2637
(lp2638
tp2639
a(L106L
L0L
(lp2640
(lp2641
tp2642
a(L1931809410L
L3785322319L
(lp2643
(lp2644
Vbootloader_util_regions_overlap
p2645
atp2646
a(L3220103854L
L3785322319L
(lp2647
(lp2648
Vbootloader_util_regions_overlap
p2649
atp2650
a(L3028481L
L0L
(lp2651
(lp2652
tp2653
a(L2903799537L
L3785322319L
(lp2654
(lp2655
Vbootloader_util_regions_overlap
p2656
atp2657
a(L505363446L
L0L
(lp2658
(lp2659
tp2660
a(L3735510773L
L0L
(lp2661
(lp2662
tp2663
a(L1032381749L
L0L
(lp2664
(lp2665
tp2666
a(L2837304413L
L0L
(lp2667
(lp2668
tp2669
a(L677569396L
L3785322319L
(lp2670
(lp2671
Vverify_load_addresses
p2672
atp2673
a(L1351513776L
L0L
(lp2674
(lp2675
tp2676
a(L956755582L
L0L
(lp2677
(lp2678
tp2679
a(L77090330L
L0L
(lp2680
(lp2681
tp2682
a(L2955059068L
L0L
(lp2683
(lp2684
tp2685
a(L106L
L0L
(lp2686
(lp2687
tp2688
a(L3995462789L
L0L
(lp2689
(lp2690
tp2691
a(L106L
L0L
(lp2692
(lp2693
tp2694
a(L1749436142L
L3785322319L
(lp2695
(lp2696
Vbootloader_util_regions_overlap
p2697
atp2698
a(L3028481L
L0L
(lp2699
(lp2700
tp2701
a(L33969334L
L3785322319L
(lp2702
(lp2703
Vbootloader_util_regions_overlap
p2704
atp2705
a(L157157218L
L0L
(lp2706
(lp2707
tp2708
a(L2724588951L
L0L
(lp2709
(lp2710
tp2711
a(L3541235553L
L0L
(lp2712
(lp2713
tp2714
a(L2743341656L
L0L
(lp2715
(lp2716
tp2717
a(L182882711L
L0L
(lp2718
(lp2719
tp2720
a(L3951887390L
L0L
(lp2721
(lp2722
tp2723
a(L297163306L
L0L
(lp2724
(lp2725
tp2726
a(L1900059593L
L0L
(lp2727
(lp2728
tp2729
a(L2880328952L
L0L
(lp2730
(lp2731
tp2732
a(L3603318964L
L0L
(lp2733
(lp2734
tp2735
a(L3929371936L
L0L
(lp2736
(lp2737
tp2738
a(L2805932675L
L0L
(lp2739
(lp2740
tp2741
a(L4072848040L
L0L
(lp2742
(lp2743
tp2744
a(L106L
L0L
(lp2745
(lp2746
tp2747
a(L955501690L
L0L
(lp2748
(lp2749
tp2750
a(L307917249L
L0L
(lp2751
(lp2752
tp2753
a(L3020204L
L0L
(lp2754
(lp2755
tp2756
a(L2129027389L
L3785322319L
(lp2757
(lp2758
Vesp_log_early_timestamp
p2759
atp2760
a(L1303560396L
L0L
(lp2761
(lp2762
tp2763
a(L955500357L
L0L
(lp2764
(lp2765
tp2766
a(L1303560427L
L0L
(lp2767
(lp2768
tp2769
atp2770
sI1074242980
(Vbootloader_load_image
p2771
(lp2772
(L347771561L
L3785322319L
(lp2773
(lp2774
Vimage_load
p2775
atp2776
atp2777
sI1074237088
(Vesp_log_early_timestamp
p2778
(lp2779
(L387765101L
L0L
(lp2780
(lp2781
tp2782
atp2783
sI1074236576
(Vbootloader_read_status_8b_xmc25qu64a
p2784
(lp2785
(L3332904159L
L2485746240L
(lp2786
(lp2787
Vbootloader_execute_flash_command
p2788
aVesp_rom_spiflash_wait_idle
p2789
aVbootloader_execute_flash_command
p2790
aVbootloader_execute_flash_command
p2791
atp2792
atp2793
sI1074238368
(Vbootloader_random_disable
p2794
(lp2795
(L1556825775L
L0L
(lp2796
(lp2797
tp2798
atp2799
sI1074270880
(Vbootloader_print_banner
p2800
(lp2801
(L2100504542L
L0L
(lp2802
(lp2803
tp2804
atp2805
sI1074235564
(Vbootloader_flash_xmc_startup
p2806
(lp2807
(L2007527597L
L3785322319L
(lp2808
(lp2809
Vis_xmc_chip_strict
p2810
atp2811
a(L2258688482L
L0L
(lp2812
(lp2813
tp2814
a(L3360570486L
L0L
(lp2815
(lp2816
tp2817
a(L251913992L
L3785322319L
(lp2818
(lp2819
Vbootloader_flash_read_sfdp
p2820
atp2821
a(L3093183620L
L267944800L
(lp2822
(lp2823
Vbootloader_execute_flash_command
p2824
aVbootloader_execute_flash_command
p2825
aVbootloader_execute_flash_command
p2826
aVbootloader_execute_flash_command
p2827
aVbootloader_read_flash_id
p2828
aVis_xmc_chip_strict
p2829
atp2830
a(L3994954364L
L3785322319L
(lp2831
(lp2832
Vesp_log_early_timestamp
p2833
atp2834
atp2835
sI1074238120
(Vbootloader_flash_write
p2836
(lp2837
(L3770380603L
L0L
(lp2838
(lp2839
tp2840
a(L2547417610L
L3785322319L
(lp2841
(lp2842
Vesp_log_early_timestamp
p2843
atp2844
a(L3833270346L
L0L
(lp2845
(lp2846
tp2847
a(L1610445075L
L0L
(lp2848
(lp2849
tp2850
a(L735741265L
L0L
(lp2851
(lp2852
tp2853
a(L3291333414L
L0L
(lp2854
(lp2855
tp2856
a(L3508304306L
L3785322319L
(lp2857
(lp2858
Vesp_log_early_timestamp
p2859
atp2860
a(L3283691850L
L0L
(lp2861
(lp2862
tp2863
a(L1591956746L
L3785322319L
(lp2864
(lp2865
Vesp_log_early_timestamp
p2866
atp2867
a(L3212356251L
L3785322319L
(lp2868
(lp2869
Vbootloader_flash_unlock
p2870
atp2871
a(L1799218633L
L0L
(lp2872
(lp2873
tp2874
a(L94425498L
L3785322319L
(lp2875
(lp2876
Vesp_rom_spiflash_write_encrypted
p2877
atp2878
a(L2927190544L
L3785322319L
(lp2879
(lp2880
Vspi_to_esp_err
p2881
atp2882
a(L2927190544L
L3785322319L
(lp2883
(lp2884
Vesp_rom_spiflash_write
p2885
atp2886
atp2887
sI1074240680
(Vbootloader_console_deinit
p2888
(lp2889
(L211274347L
L0L
(lp2890
(lp2891
tp2892
atp2893
sI1074245800
(Vrtc_clk_cpu_freq_set_config
p2894
(lp2895
(L3746964885L
L3785322319L
(lp2896
(lp2897
Vrtc_clk_xtal_freq_get
p2898
atp2899
a(L2308773007L
L0L
(lp2900
(lp2901
tp2902
a(L3253451229L
L1880226080L
(lp2903
(lp2904
Vrtc_clk_cpu_freq_to_xtal
p2905
aVrtc_clk_wait_for_slow_cycle
p2906
atp2907
a(L2243645672L
L0L
(lp2908
(lp2909
tp2910
a(L4002786498L
L0L
(lp2911
(lp2912
tp2913
a(L2736411858L
L3785322319L
(lp2914
(lp2915
Vrtc_clk_cpu_freq_to_xtal
p2916
atp2917
a(L3360570486L
L0L
(lp2918
(lp2919
tp2920
a(L2755207760L
L1832448559L
(lp2921
(lp2922
Vrtc_clk_cpu_freq_to_xtal
p2923
aVrtc_clk_wait_for_slow_cycle
p2924
aVrtc_clk_bbpll_disable
p2925
atp2926
a(L3020187L
L0L
(lp2927
(lp2928
tp2929
a(L106L
L0L
(lp2930
(lp2931
tp2932
a(L3094553237L
L1880226080L
(lp2933
(lp2934
Vrtc_clk_wait_for_slow_cycle
p2935
aVrtc_clk_xtal_freq_get
p2936
atp2937
a(L106L
L0L
(lp2938
(lp2939
tp2940
a(L3500865084L
L0L
(lp2941
(lp2942
tp2943
a(L83268611L
L0L
(lp2944
(lp2945
tp2946
a(L106L
L0L
(lp2947
(lp2948
tp2949
a(L82345090L
L0L
(lp2950
(lp2951
tp2952
a(L106L
L0L
(lp2953
(lp2954
tp2955
a(L2258718273L
L0L
(lp2956
(lp2957
tp2958
a(L3298883534L
L0L
(lp2959
(lp2960
tp2961
a(L4039217794L
L0L
(lp2962
(lp2963
tp2964
a(L1853369065L
L3785322319L
(lp2965
(lp2966
Vrtc_clk_cpu_freq_to_pll_mhz
p2967
atp2968
a(L3850253366L
L0L
(lp2969
(lp2970
tp2971
a(L83268344L
L0L
(lp2972
(lp2973
tp2974
a(L82344823L
L0L
(lp2975
(lp2976
tp2977
a(L1569180676L
L0L
(lp2978
(lp2979
tp2980
a(L2258837488L
L0L
(lp2981
(lp2982
tp2983
a(L2973145752L
L0L
(lp2984
(lp2985
tp2986
a(L1482311963L
L0L
(lp2987
(lp2988
tp2989
a(L133411965L
L0L
(lp2990
(lp2991
tp2992
a(L3673491036L
L0L
(lp2993
(lp2994
tp2995
a(L4197990447L
L0L
(lp2996
(lp2997
tp2998
a(L903154985L
L0L
(lp2999
(lp3000
tp3001
a(L3020187L
L0L
(lp3002
(lp3003
tp3004
a(L106L
L0L
(lp3005
(lp3006
tp3007
a(L829561200L
L3785322319L
(lp3008
(lp3009
Vesp_rom_set_cpu_ticks_per_us
p3010
atp3011
atp3012
sI1074248616
(Vesp_rom_spiflash_write_encrypted
p3013
(lp3014
(L1944247967L
L0L
(lp3015
(lp3016
tp3017
a(L3102130565L
L0L
(lp3018
(lp3019
tp3020
a(L97689L
L0L
(lp3021
(lp3022
tp3023
a(L3061232074L
L0L
(lp3024
(lp3025
tp3026
a(L1414961215L
L0L
(lp3027
(lp3028
tp3029
a(L1309309703L
L3785322319L
(lp3030
(lp3031
Vesp_rom_spiflash_write
p3032
atp3033
a(L332980548L
L0L
(lp3034
(lp3035
tp3036
a(L735741265L
L0L
(lp3037
(lp3038
tp3039
atp3040
sI1074239412
(Vset_actual_ota_seq
p3041
(lp3042
(L4094723830L
L0L
(lp3043
(lp3044
tp3045
a(L3473028212L
L0L
(lp3046
(lp3047
tp3048
a(L2298406097L
L1832448559L
(lp3049
(lp3050
Vbootloader_common_ota_select_crc
p3051
aVesp_flash_encryption_enabled
p3052
aVbootloader_flash_erase_sector
p3053
atp3054
a(L3383023989L
L3785322319L
(lp3055
(lp3056
Vbootloader_flash_write
p3057
atp3058
a(L2105144810L
L3785322319L
(lp3059
(lp3060
Vesp_log_early_timestamp
p3061
atp3062
a(L3360570486L
L0L
(lp3063
(lp3064
tp3065
atp3066
sI1074245044
(Vrtc_clk_8m_enabled
p3067
(lp3068
(L525412044L
L0L
(lp3069
(lp3070
tp3071
atp3072
sI1074240944
(Vprocess_image_header
p3073
(lp3074
(L3641676667L
L3785322319L
(lp3075
(lp3076
Vbootloader_flash_read
p3077
atp3078
a(L3020204L
L0L
(lp3079
(lp3080
tp3081
a(L4205021202L
L0L
(lp3082
(lp3083
tp3084
a(L321261932L
L0L
(lp3085
(lp3086
tp3087
a(L1161397362L
L3785322319L
(lp3088
(lp3089
Vbootloader_sha256_start
p3090
atp3091
a(L2062774299L
L3785322319L
(lp3092
(lp3093
Vbootloader_sha256_data
p3094
atp3095
a(L1291118193L
L0L
(lp3096
(lp3097
tp3098
a(L3028481L
L0L
(lp3099
(lp3100
tp3101
a(L2141311787L
L3785322319L
(lp3102
(lp3103
Vesp_log_early_timestamp
p3104
atp3105
a(L3200754103L
L0L
(lp3106
(lp3107
tp3108
a(L2983970029L
L0L
(lp3109
(lp3110
tp3111
a(L4235213884L
L3785322319L
(lp3112
(lp3113
Vbootloader_common_check_chip_validity
p3114
atp3115
a(L4144303915L
L0L
(lp3116
(lp3117
tp3118
a(L3028481L
L0L
(lp3119
(lp3120
tp3121
a(L1467082135L
L3785322319L
(lp3122
(lp3123
Vesp_log_early_timestamp
p3124
atp3125
a(L2852701393L
L0L
(lp3126
(lp3127
tp3128
a(L2122516551L
L0L
(lp3129
(lp3130
tp3131
a(L3064492592L
L0L
(lp3132
(lp3133
tp3134
atp3135
sI1074247600
(Vesp_rom_spiflash_config_readmode
p3136
(lp3137
(L2433196889L
L0L
(lp3138
(lp3139
tp3140
a(L3905548590L
L0L
(lp3141
(lp3142
tp3143
a(L2805933915L
L0L
(lp3144
(lp3145
tp3146
a(L3249937672L
L0L
(lp3147
(lp3148
tp3149
a(L100406193L
L0L
(lp3150
(lp3151
tp3152
a(L93837694L
L0L
(lp3153
(lp3154
tp3155
a(L106L
L0L
(lp3156
(lp3157
tp3158
a(L1990698639L
L0L
(lp3159
(lp3160
tp3161
a(L2312969165L
L0L
(lp3162
(lp3163
tp3164
a(L2318350296L
L0L
(lp3165
(lp3166
tp3167
a(L3439637950L
L0L
(lp3168
(lp3169
tp3170
a(L106L
L0L
(lp3171
(lp3172
tp3173
a(L2875799945L
L0L
(lp3174
(lp3175
tp3176
a(L2890097920L
L0L
(lp3177
(lp3178
tp3179
a(L2122757262L
L0L
(lp3180
(lp3181
tp3182
a(L106L
L0L
(lp3183
(lp3184
tp3185
a(L2317061491L
L0L
(lp3186
(lp3187
tp3188
a(L847977116L
L0L
(lp3189
(lp3190
tp3191
a(L106L
L0L
(lp3192
(lp3193
tp3194
a(L2101345911L
L0L
(lp3195
(lp3196
tp3197
a(L1410067931L
L0L
(lp3198
(lp3199
tp3200
a(L3016870L
L0L
(lp3201
(lp3202
tp3203
a(L2265292021L
L0L
(lp3204
(lp3205
tp3206
a(L2954937953L
L0L
(lp3207
(lp3208
tp3209
a(L3304852550L
L0L
(lp3210
(lp3211
tp3212
a(L2882642734L
L0L
(lp3213
(lp3214
tp3215
a(L2993202392L
L0L
(lp3216
(lp3217
tp3218
a(L3304854015L
L0L
(lp3219
(lp3220
tp3221
a(L388859830L
L0L
(lp3222
(lp3223
tp3224
a(L2639626355L
L0L
(lp3225
(lp3226
tp3227
a(L473748105L
L0L
(lp3228
(lp3229
tp3230
a(L175703409L
L0L
(lp3231
(lp3232
tp3233
atp3234
sI1074244796
(Vrtc_clk_bbpll_disable
p3235
(lp3236
(L2787270248L
L0L
(lp3237
(lp3238
tp3239
a(L2472207241L
L0L
(lp3240
(lp3241
tp3242
a(L3360570486L
L0L
(lp3243
(lp3244
tp3245
atp3246
sI1074240696
(V__assert_func
p3247
(lp3248
(L3015227614L
L0L
(lp3249
(lp3250
tp3251
a(L106L
L0L
(lp3252
(lp3253
tp3254
atp3255
sI1074236856
(Vefuse_hal_chip_revision
p3256
(lp3257
(L2719302832L
L1880226080L
(lp3258
(lp3259
Vefuse_hal_get_major_chip_version
p3260
aVefuse_hal_get_minor_chip_version
p3261
atp3262
atp3263
sI1074247352
(Vesp_rom_spiflash_enable_write
p3264
(lp3265
(L4099434165L
L3785322319L
(lp3266
(lp3267
Vesp_rom_spiflash_wait_idle
p3268
atp3269
a(L3333707777L
L0L
(lp3270
(lp3271
tp3272
a(L2258688484L
L0L
(lp3273
(lp3274
tp3275
a(L99543895L
L0L
(lp3276
(lp3277
tp3278
a(L2993202392L
L0L
(lp3279
(lp3280
tp3281
a(L2783731080L
L3785322319L
(lp3282
(lp3283
Vesp_rom_spiflash_read_status
p3284
atp3285
atp3286
sI1074237120
(Vbootloader_common_ota_select_crc
p3287
(lp3288
(L2530349931L
L0L
(lp3289
(lp3290
tp3291
atp3292
sI1074242496
(Vimage_load
p3293
(lp3294
(L3048705773L
L0L
(lp3295
(lp3296
tp3297
a(L3463713141L
L0L
(lp3298
(lp3299
tp3300
a(L3309803581L
L0L
(lp3301
(lp3302
tp3303
a(L256049682L
L0L
(lp3304
(lp3305
tp3306
a(L1935188817L
L0L
(lp3307
(lp3308
tp3309
a(L3028481L
L0L
(lp3310
(lp3311
tp3312
a(L3021749L
L0L
(lp3313
(lp3314
tp3315
a(L106L
L0L
(lp3316
(lp3317
tp3318
a(L585264737L
L0L
(lp3319
(lp3320
tp3321
a(L1145291904L
L3785322319L
(lp3322
(lp3323
Vprocess_image_header
p3324
atp3325
a(L823859500L
L0L
(lp3326
(lp3327
tp3328
a(L3061291474L
L0L
(lp3329
(lp3330
tp3331
a(L4106474008L
L3785322319L
(lp3332
(lp3333
Vprocess_segments
p3334
atp3335
a(L3868840998L
L0L
(lp3336
(lp3337
tp3338
a(L2462932903L
L0L
(lp3339
(lp3340
tp3341
a(L1827898452L
L3785322319L
(lp3342
(lp3343
Vprocess_checksum
p3344
atp3345
a(L2214715179L
L3785322319L
(lp3346
(lp3347
Vprocess_appended_hash_and_sig
p3348
atp3349
a(L3028481L
L0L
(lp3350
(lp3351
tp3352
a(L2902417580L
L0L
(lp3353
(lp3354
tp3355
a(L3285560995L
L3785322319L
(lp3356
(lp3357
Vbootloader_sha256_finish
p3358
atp3359
a(L3946560000L
L0L
(lp3360
(lp3361
tp3362
a(L93674324L
L0L
(lp3363
(lp3364
tp3365
a(L843241619L
L0L
(lp3366
(lp3367
tp3368
a(L772115669L
L0L
(lp3369
(lp3370
tp3371
a(L1179424413L
L0L
(lp3372
(lp3373
tp3374
a(L3928150917L
L0L
(lp3375
(lp3376
tp3377
a(L106L
L0L
(lp3378
(lp3379
tp3380
a(L3871473710L
L0L
(lp3381
(lp3382
tp3383
a(L3884726427L
L0L
(lp3384
(lp3385
tp3386
a(L106L
L0L
(lp3387
(lp3388
tp3389
a(L3020187L
L0L
(lp3390
(lp3391
tp3392
a(L2886058719L
L3785322319L
(lp3393
(lp3394
Vesp_log_early_timestamp
p3395
atp3396
a(L2868044067L
L0L
(lp3397
(lp3398
tp3399
a(L1179764900L
L0L
(lp3400
(lp3401
tp3402
a(L2332746046L
L3785322319L
(lp3403
(lp3404
Vbootloader_sha256_finish
p3405
atp3406
a(L3847544400L
L0L
(lp3407
(lp3408
tp3409
a(L3020204L
L0L
(lp3410
(lp3411
tp3412
a(L1090351773L
L0L
(lp3413
(lp3414
tp3415
a(L106L
L0L
(lp3416
(lp3417
tp3418
a(L3947452664L
L1880226080L
(lp3419
(lp3420
Vbootloader_sha256_finish
p3421
aVbootloader_debug_buffer
p3422
atp3423
a(L161886071L
L1880226080L
(lp3424
(lp3425
Vesp_log_early_timestamp
p3426
aVbootloader_debug_buffer
p3427
atp3428
a(L3741653406L
L3785322319L
(lp3429
(lp3430
Vshould_load
p3431
atp3432
a(L2764257181L
L0L
(lp3433
(lp3434
tp3435
a(L3338774213L
L0L
(lp3436
(lp3437
tp3438
a(L3464541874L
L0L
(lp3439
(lp3440
tp3441
a(L3349572949L
L0L
(lp3442
(lp3443
tp3444
a(L2192292519L
L0L
(lp3445
(lp3446
tp3447
a(L106L
L0L
(lp3448
(lp3449
tp3450
a(L26615924L
L0L
(lp3451
(lp3452
tp3453
a(L1299866312L
L0L
(lp3454
(lp3455
tp3456
a(L3010020263L
L0L
(lp3457
(lp3458
tp3459
atp3460
sI1074270656
(Vrtc_vddsdio_get_config
p3461
(lp3462
(L1610764203L
L0L
(lp3463
(lp3464
tp3465
a(L1750635626L
L0L
(lp3466
(lp3467
tp3468
a(L3193418487L
L0L
(lp3469
(lp3470
tp3471
a(L1025262168L
L0L
(lp3472
(lp3473
tp3474
a(L115635292L
L0L
(lp3475
(lp3476
tp3477
a(L896053863L
L0L
(lp3478
(lp3479
tp3480
a(L1306330959L
L0L
(lp3481
(lp3482
tp3483
a(L1345122439L
L0L
(lp3484
(lp3485
tp3486
atp3487
sI1074245068
(Vrtc_clk_8md256_enabled
p3488
(lp3489
(L3975907469L
L0L
(lp3490
(lp3491
tp3492
atp3493
sI1074243016
(Vesp_partition_table_verify
p3494
(lp3495
(L3052823174L
L0L
(lp3496
(lp3497
tp3498
a(L2293836972L
L0L
(lp3499
(lp3500
tp3501
a(L1184829782L
L0L
(lp3502
(lp3503
tp3504
a(L3020204L
L0L
(lp3505
(lp3506
tp3507
a(L3784844030L
L3785322319L
(lp3508
(lp3509
Vesp_log_early_timestamp
p3510
atp3511
a(L1235012963L
L0L
(lp3512
(lp3513
tp3514
a(L3190337587L
L0L
(lp3515
(lp3516
tp3517
a(L2069928857L
L0L
(lp3518
(lp3519
tp3520
a(L2902417580L
L0L
(lp3521
(lp3522
tp3523
a(L3505186244L
L3785322319L
(lp3524
(lp3525
Vesp_log_early_timestamp
p3526
atp3527
a(L2249653215L
L0L
(lp3528
(lp3529
tp3530
a(L3020204L
L0L
(lp3531
(lp3532
tp3533
a(L3020204L
L0L
(lp3534
(lp3535
tp3536
a(L1637091147L
L3785322319L
(lp3537
(lp3538
Vesp_log_early_timestamp
p3539
atp3540
a(L3833270346L
L0L
(lp3541
(lp3542
tp3543
a(L1235012932L
L0L
(lp3544
(lp3545
tp3546
a(L706222816L
L0L
(lp3547
(lp3548
tp3549
a(L3020204L
L0L
(lp3550
(lp3551
tp3552
a(L3505186740L
L3785322319L
(lp3553
(lp3554
Vesp_log_early_timestamp
p3555
atp3556
a(L1305407469L
L0L
(lp3557
(lp3558
tp3559
a(L1167861556L
L0L
(lp3560
(lp3561
tp3562
a(L818997085L
L0L
(lp3563
(lp3564
tp3565
a(L3360570486L
L0L
(lp3566
(lp3567
tp3568
a(L3020204L
L0L
(lp3569
(lp3570
tp3571
a(L1704747097L
L3785322319L
(lp3572
(lp3573
Vesp_log_early_timestamp
p3574
atp3575
atp3576
sI1074241748
(Vshould_load
p3577
(lp3578
(L831996828L
L0L
(lp3579
(lp3580
tp3581
a(L1182990556L
L0L
(lp3582
(lp3583
tp3584
a(L388737285L
L0L
(lp3585
(lp3586
tp3587
a(L2306467100L
L0L
(lp3588
(lp3589
tp3590
a(L524505062L
L0L
(lp3591
(lp3592
tp3593
a(L2258897019L
L0L
(lp3594
(lp3595
tp3596
a(L3781799363L
L0L
(lp3597
(lp3598
tp3599
a(L3028464L
L0L
(lp3600
(lp3601
tp3602
a(L11641708L
L0L
(lp3603
(lp3604
tp3605
a(L4277114872L
L0L
(lp3606
(lp3607
tp3608
a(L2824381917L
L0L
(lp3609
(lp3610
tp3611
a(L1243412227L
L0L
(lp3612
(lp3613
tp3614
a(L2011157548L
L0L
(lp3615
(lp3616
tp3617
a(L3126521138L
L0L
(lp3618
(lp3619
tp3620
a(L1305407438L
L0L
(lp3621
(lp3622
tp3623
a(L1305407469L
L0L
(lp3624
(lp3625
tp3626
atp3627
sI1074237140
(Vbootloader_common_ota_select_valid
p3628
(lp3629
(L1563399710L
L3785322319L
(lp3630
(lp3631
Vbootloader_common_ota_select_invalid
p3632
atp3633
a(L3814720849L
L3785322319L
(lp3634
(lp3635
Vbootloader_common_ota_select_crc
p3636
atp3637
a(L3360570486L
L0L
(lp3638
(lp3639
tp3640
atp3641
sI1074243284
(Vwdt_hal_init
p3642
(lp3643
(L3917715720L
L0L
(lp3644
(lp3645
tp3646
a(L106L
L0L
(lp3647
(lp3648
tp3649
a(L2104868267L
L0L
(lp3650
(lp3651
tp3652
a(L3076988543L
L0L
(lp3653
(lp3654
tp3655
a(L3434404005L
L0L
(lp3656
(lp3657
tp3658
a(L3028464L
L0L
(lp3659
(lp3660
tp3661
a(L826407067L
L0L
(lp3662
(lp3663
tp3664
a(L883365564L
L0L
(lp3665
(lp3666
tp3667
a(L3556634787L
L0L
(lp3668
(lp3669
tp3670
a(L3360570486L
L0L
(lp3671
(lp3672
tp3673
atp3674
sI1074238928
(Vcache_ll_l1_enable_bus
p3675
(lp3676
(L3709595376L
L0L
(lp3677
(lp3678
tp3679
atp3680
sI1074236624
(Vbootloader_write_status_8b_xmc25qu64a
p3681
(lp3682
(L3733976495L
L1157885199L
(lp3683
(lp3684
Vbootloader_execute_flash_command
p3685
aVesp_rom_spiflash_wait_idle
p3686
aVbootloader_execute_flash_command
p3687
aVesp_rom_spiflash_wait_idle
p3688
aVbootloader_execute_flash_command
p3689
atp3690
atp3691
sI1074236880
(Vefuse_hal_flash_encryption_enabled
p3692
(lp3693
(L2932383536L
L0L
(lp3694
(lp3695
tp3696
a(L2910371777L
L0L
(lp3697
(lp3698
tp3699
a(L3360570486L
L0L
(lp3700
(lp3701
tp3702
a(L3016870L
L0L
(lp3703
(lp3704
tp3705
a(L3745038218L
L0L
(lp3706
(lp3707
tp3708
a(L957607403L
L0L
(lp3709
(lp3710
tp3711
atp3712
sI1074240720
(Vabort
p3713
(lp3714
(L2210763366L
L0L
(lp3715
(lp3716
tp3717
a(L409471316L
L0L
(lp3718
(lp3719
tp3720
a(L106L
L0L
(lp3721
(lp3722
tp3723
atp3724
sI1074245328
(Vrtc_clk_fast_src_get
p3725
(lp3726
(L322270006L
L0L
(lp3727
(lp3728
tp3729
atp3730
sI1074238684
(Vbootloader_clock_get_rated_freq_mhz
p3731
(lp3732
(L376617603L
L3785322319L
(lp3733
(lp3734
Vefuse_hal_get_rated_freq_mhz
p3735
atp3736
atp3737
sI1074244312
(Vwdt_hal_write_protect_enable
p3738
(lp3739
(L387778158L
L0L
(lp3740
(lp3741
tp3742
a(L4195472003L
L0L
(lp3743
(lp3744
tp3745
a(L3360570486L
L0L
(lp3746
(lp3747
tp3748
a(L802523425L
L0L
(lp3749
(lp3750
tp3751
atp3752
sI1074240484
(Vbootloader_sha256_finish
p3753
(lp3754
(L4066096136L
L0L
(lp3755
(lp3756
tp3757
a(L1918014298L
L0L
(lp3758
(lp3759
tp3760
a(L3627025138L
L3785322319L
(lp3761
(lp3762
V__assert_func
p3763
atp3764
a(L3020204L
L0L
(lp3765
(lp3766
tp3767
a(L1140538619L
L0L
(lp3768
(lp3769
tp3770
a(L2534656226L
L0L
(lp3771
(lp3772
tp3773
a(L2746554839L
L3785322319L
(lp3774
(lp3775
Vbootloader_sha256_data
p3776
atp3777
a(L2437171593L
L0L
(lp3778
(lp3779
tp3780
a(L770086497L
L3785322319L
(lp3781
(lp3782
Vbootloader_sha256_data
p3783
atp3784
a(L2482436287L
L0L
(lp3785
(lp3786
tp3787
a(L657425439L
L0L
(lp3788
(lp3789
tp3790
a(L3971462626L
L0L
(lp3791
(lp3792
tp3793
a(L657425439L
L0L
(lp3794
(lp3795
tp3796
a(L1808515429L
L0L
(lp3797
(lp3798
tp3799
a(L4004422193L
L0L
(lp3800
(lp3801
tp3802
a(L3347778L
L0L
(lp3803
(lp3804
tp3805
a(L3360570486L
L0L
(lp3806
(lp3807
tp3808
atp3809
sI1074245092
(Vrtc_clk_slow_src_set
p3810
(lp3811
(L841441661L
L0L
(lp3812
(lp3813
tp3814
a(L3020187L
L0L
(lp3815
(lp3816
tp3817
a(L3028481L
L0L
(lp3818
(lp3819
tp3820
a(L487821223L
L0L
(lp3821
(lp3822
tp3823
a(L126549677L
L0L
(lp3824
(lp3825
tp3826
a(L1851908495L
L0L
(lp3827
(lp3828
tp3829
a(L2729394930L
L0L
(lp3830
(lp3831
tp3832
a(L3138544334L
L0L
(lp3833
(lp3834
tp3835
a(L94425498L
L3785322319L
(lp3836
(lp3837
Vabort
p3838
atp3839
atp3840
sI1074237408
(Vbootloader_common_get_active_otadata
p3841
(lp3842
(L3317503532L
L0L
(lp3843
(lp3844
tp3845
a(L2503049265L
L1832448559L
(lp3846
(lp3847
Vbootloader_common_ota_select_valid
p3848
aVbootloader_common_ota_select_valid
p3849
aVbootloader_common_select_otadata
p3850
atp3851
a(L735741265L
L0L
(lp3852
(lp3853
tp3854
atp3855
sI1074245344
(Vrtc_clk_xtal_freq_get
p3856
(lp3857
(L2814399712L
L0L
(lp3858
(lp3859
tp3860
a(L2847936993L
L0L
(lp3861
(lp3862
tp3863
a(L1251847234L
L0L
(lp3864
(lp3865
tp3866
a(L3360570486L
L0L
(lp3867
(lp3868
tp3869
atp3870
sI1074239980
(Vbootloader_reset
p3871
(lp3872
(L454693784L
L3785322319L
(lp3873
(lp3874
Vbootloader_console_deinit
p3875
atp3876
a(L106L
L0L
(lp3877
(lp3878
tp3879
atp3880
sI1074238696
(Vlog_invalid_app_partition
p3881
(lp3882
(L3521327925L
L0L
(lp3883
(lp3884
tp3885
a(L3028464L
L0L
(lp3886
(lp3887
tp3888
a(L464326025L
L3785322319L
(lp3889
(lp3890
Vesp_log_early_timestamp
p3891
atp3892
a(L3833270346L
L0L
(lp3893
(lp3894
tp3895
a(L3360570486L
L0L
(lp3896
(lp3897
tp3898
a(L4216513345L
L3785322319L
(lp3899
(lp3900
Vesp_log_early_timestamp
p3901
atp3902
a(L1654679790L
L3785322319L
(lp3903
(lp3904
Vesp_log_early_timestamp
p3905
atp3906
atp3907
sI1074239720
(Vbootloader_utility_get_selected_boot_partition
p3908
(lp3909
(L2938832293L
L0L
(lp3910
(lp3911
tp3912
a(L1390189567L
L0L
(lp3913
(lp3914
tp3915
a(L1928712320L
L3785322319L
(lp3916
(lp3917
Vesp_log_early_timestamp
p3918
atp3919
a(L194246498L
L0L
(lp3920
(lp3921
tp3922
a(L3360570486L
L0L
(lp3923
(lp3924
tp3925
a(L3118387733L
L3785322319L
(lp3926
(lp3927
Vbootloader_mmap
p3928
atp3929
a(L2911828621L
L3785322319L
(lp3930
(lp3931
Vesp_log_early_timestamp
p3932
atp3933
a(L2627911596L
L1880226080L
(lp3934
(lp3935
Vbootloader_munmap
p3936
aVbootloader_common_ota_select_invalid
p3937
atp3938
a(L2911028409L
L0L
(lp3939
(lp3940
tp3941
a(L726746649L
L3785322319L
(lp3942
(lp3943
Vbootloader_common_get_active_otadata
p3944
atp3945
a(L4179097382L
L0L
(lp3946
(lp3947
tp3948
a(L3111084448L
L3785322319L
(lp3949
(lp3950
Vbootloader_common_ota_select_invalid
p3951
atp3952
a(L2793942993L
L0L
(lp3953
(lp3954
tp3955
a(L1043744473L
L0L
(lp3956
(lp3957
tp3958
a(L2302032704L
L0L
(lp3959
(lp3960
tp3961
a(L1173788779L
L3785322319L
(lp3962
(lp3963
Vbootloader_common_ota_select_crc
p3964
atp3965
a(L4188515782L
L0L
(lp3966
(lp3967
tp3968
a(L1324800084L
L3785322319L
(lp3969
(lp3970
Vbootloader_common_ota_select_crc
p3971
atp3972
a(L1299866312L
L0L
(lp3973
(lp3974
tp3975
a(L1738594062L
L0L
(lp3976
(lp3977
tp3978
a(L3859137629L
L3785322319L
(lp3979
(lp3980
Vesp_log_early_timestamp
p3981
atp3982
a(L3833270346L
L0L
(lp3983
(lp3984
tp3985
a(L1641201884L
L0L
(lp3986
(lp3987
tp3988
a(L692137479L
L3785322319L
(lp3989
(lp3990
Vesp_log_early_timestamp
p3991
atp3992
atp3993
sI1074267640
(Vcall_start_cpu0
p3994
(lp3995
(L1137852827L
L0L
(lp3996
(lp3997
tp3998
a(L549459388L
L0L
(lp3999
(lp4000
tp4001
a(L3212347974L
L3785322319L
(lp4002
(lp4003
Vbootloader_init
p4004
atp4005
a(L94425498L
L3785322319L
(lp4006
(lp4007
Vbootloader_reset
p4008
atp4009
a(L1122046408L
L0L
(lp4010
(lp4011
tp4012
a(L4099474112L
L0L
(lp4013
(lp4014
tp4015
a(L3015046664L
L3785322319L
(lp4016
(lp4017
Vbootloader_utility_load_partition_table
p4018
atp4019
a(L2761094216L
L3785322319L
(lp4020
(lp4021
Vesp_log_early_timestamp
p4022
atp4023
a(L405422123L
L3785322319L
(lp4024
(lp4025
Vbootloader_utility_get_selected_boot_partition
p4026
atp4027
a(L2055385849L
L3785322319L
(lp4028
(lp4029
Vbootloader_utility_load_boot_image
p4030
atp4031
atp4032
sI1074244340
(Vwdt_hal_enable
p4033
(lp4034
(L2299130915L
L0L
(lp4035
(lp4036
tp4037
a(L165794138L
L0L
(lp4038
(lp4039
tp4040
a(L3360570486L
L0L
(lp4041
(lp4042
tp4043
a(L2847657174L
L0L
(lp4044
(lp4045
tp4046
atp4047
sI1074240244
(Vindex_to_partition
p4048
(lp4049
(L4066096119L
L0L
(lp4050
(lp4051
tp4052
a(L1101255660L
L0L
(lp4053
(lp4054
tp4055
a(L1955702725L
L0L
(lp4056
(lp4057
tp4058
a(L3698927993L
L0L
(lp4059
(lp4060
tp4061
a(L2808906342L
L0L
(lp4062
(lp4063
tp4064
a(L4211744375L
L0L
(lp4065
(lp4066
tp4067
a(L3097778015L
L0L
(lp4068
(lp4069
tp4070
a(L1816235430L
L0L
(lp4071
(lp4072
tp4073
a(L2179185678L
L0L
(lp4074
(lp4075
tp4076
a(L3369319173L
L0L
(lp4077
(lp4078
tp4079
atp4080
sI1074269692
(Vbootloader_enable_random
p4081
(lp4082
(L1287383080L
L3785322319L
(lp4083
(lp4084
Vbootloader_random_enable
p4085
atp4086
atp4087
sI1074245616
(Vrtc_clk_xtal_freq_update
p4088
(lp4089
(L4131331546L
L0L
(lp4090
(lp4091
tp4092
a(L3509357017L
L0L
(lp4093
(lp4094
tp4095
a(L2266180931L
L0L
(lp4096
(lp4097
tp4098
atp4099
sI1074247408
(Vesp_rom_spiflash_program_page_internal
p4100
(lp4101
(L2569069283L
L0L
(lp4102
(lp4103
tp4104
a(L2258688483L
L0L
(lp4105
(lp4106
tp4107
a(L3360570486L
L0L
(lp4108
(lp4109
tp4110
a(L2757683300L
L0L
(lp4111
(lp4112
tp4113
a(L4235661475L
L3785322319L
(lp4114
(lp4115
Vesp_rom_spiflash_wait_idle
p4116
atp4117
a(L1299866312L
L0L
(lp4118
(lp4119
tp4120
a(L3212356251L
L3785322319L
(lp4121
(lp4122
Vesp_rom_spiflash_enable_write
p4123
atp4124
a(L2861339156L
L0L
(lp4125
(lp4126
tp4127
a(L1023242343L
L0L
(lp4128
(lp4129
tp4130
a(L2953702749L
L0L
(lp4131
(lp4132
tp4133
a(L2989032L
L0L
(lp4134
(lp4135
tp4136
a(L1965622133L
L0L
(lp4137
(lp4138
tp4139
a(L2606475588L
L0L
(lp4140
(lp4141
tp4142
a(L1958113242L
L0L
(lp4143
(lp4144
tp4145
a(L106L
L0L
(lp4146
(lp4147
tp4148
a(L3112950080L
L0L
(lp4149
(lp4150
tp4151
a(L1868606439L
L0L
(lp4152
(lp4153
tp4154
a(L1008983796L
L0L
(lp4155
(lp4156
tp4157
a(L1933954923L
L0L
(lp4158
(lp4159
tp4160
a(L1147866918L
L0L
(lp4161
(lp4162
tp4163
a(L3871602522L
L0L
(lp4164
(lp4165
tp4166
atp4167
sI1074249456
(V_fini
p4168
(lp4169
(L3493042598L
L0L
(lp4170
(lp4171
tp4172
atp4173
sI1074234620
(Vbootloader_common_get_chip_ver_pkg
p4174
(lp4175
(L994406025L
L0L
(lp4176
(lp4177
tp4178
atp4179
sI1074236920
(Vefuse_hal_get_major_chip_version
p4180
(lp4181
(L3609358168L
L0L
(lp4182
(lp4183
tp4184
a(L894792960L
L0L
(lp4185
(lp4186
tp4187
a(L724635033L
L0L
(lp4188
(lp4189
tp4190
a(L3360570486L
L0L
(lp4191
(lp4192
tp4193
atp4194
sI1074237176
(Vbootloader_common_check_chip_validity
p4195
(lp4196
(L2080115690L
L0L
(lp4197
(lp4198
tp4199
a(L3154986995L
L3785322319L
(lp4200
(lp4201
Vesp_log_early_timestamp
p4202
atp4203
a(L1299867982L
L0L
(lp4204
(lp4205
tp4206
a(L3360570486L
L0L
(lp4207
(lp4208
tp4209
a(L521940037L
L3785322319L
(lp4210
(lp4211
Vefuse_hal_chip_revision
p4212
atp4213
a(L3630617448L
L0L
(lp4214
(lp4215
tp4216
a(L4252915848L
L3785322319L
(lp4217
(lp4218
Vesp_log_early_timestamp
p4219
atp4220
a(L3028464L
L0L
(lp4221
(lp4222
tp4223
a(L1797954754L
L0L
(lp4224
(lp4225
tp4226
a(L106L
L0L
(lp4227
(lp4228
tp4229
a(L3027019L
L0L
(lp4230
(lp4231
tp4232
a(L106L
L0L
(lp4233
(lp4234
tp4235
a(L147797478L
L3785322319L
(lp4236
(lp4237
Vesp_log_early_timestamp
p4238
atp4239
atp4240
sI1074244856
(Vrtc_clk_32k_enable
p4241
(lp4242
(L753387299L
L0L
(lp4243
(lp4244
tp4245
a(L3776007933L
L3785322319L
(lp4246
(lp4247
Vrtc_clk_32k_enable_common
p4248
atp4249
a(L3496950L
L0L
(lp4250
(lp4251
tp4252
a(L4107296604L
L0L
(lp4253
(lp4254
tp4255
atp4256
ssS'functionsdups'
p4257
g11
((lp4258
tp4259
Rp4260
sS'immediatedups'
p4261
g11
((lp4262
tp4263
Rp4264
sS'functiondups'
p4265
g11
((lp4266
tp4267
Rp4268
sS'fuzzy'
p4269
(dp4270
L1536L
I1074240696
sL438947497L
I1074245092
sL430153639L
I1074235812
sL1694124286L
I1074236624
sL3107765941L
I1074269736
sL1340445289L
I1074235564
sL4237058048L
I1074247600
sL3538491111L
I1074245236
sL16208487L
I1074234664
sL1053780185L
I1074247040
sL1907123383L
I1074239032
sL1385214606L
I1074241188
sL3709764864L
I1074242496
sL4051103209L
I1074269336
sL1419132215L
I1074238288
sL2469233929L
I1074240484
sL4024375675L
I1074245688
sL701833459L
I1074268540
sL720751058L
I1074267748
sL2475522855L
I1074269700
sL99291719L
I1074245800
sL1260046007L
I1074238812
sL1924373790L
I1074269284
sL3897252859L
I1074238696
sL2154298582L
I1074267972
sL1065525808L
I1074237016
sL1766137975L
I1074238780
sL2547957225L
I1074243016
sL2272466760L
I1074245476
sL1188065553L
I1074237844
sL1350409532L
I1074240944
sL94556391L
I1074245264
sL3210669721L
I1074244856
sL1332800441L
I1074237408
sL1797050832L
I1074241660
sL4160102055L
I1074239980
sL4202185385L
I1074247304
sL1768086576L
I1074236280
sL4171975289L
I1074248316
sL1565254297L
I1074248616
sL1205407754L
I1074240004
sL2191698036L
I1074269564
sL3567877105L
I1074235176
sL3616640713L
I1074240776
sL1635528231L
I1074243896
sL2892380730L
I1074244632
sL1060788199L
I1074245384
sL4006207895L
I1074239412
sL4002350800L
I1074241876
sL3378232636L
I1074246544
sL737694352L
I1074247408
sL503029138L
I1074247352
sL1616763831L
I1074248704
sL424867129L
I1074248452
sL3791345684L
I1074236576
sL3834155367L
I1074241132
sL2405032630L
I1074267640
sL1302843222L
I1074270212
sL1299206787L
I1074239508
sL149533852L
I1074237584
sL3883282432L
I1074241748
sL1667054119L
I1074240336
sL1142841954L
I1074237176
sL2443330910L
I1074239720
sL206902443L
I1074238120
sL1070509616L
I1074244916
sL3408620885L
I1074270036
ssb.