ccopy_reg
_reconstructor
p0
(crizzo
RizzoSignature
p1
c__builtin__
object
p2
Ntp3
Rp4
(dp5
S'formal'
p6
(dp7
L3012851605L
I1074245272
sL2661323685L
I1074244860
sL3499362194L
I1074245012
sL3218140631L
I1074234632
sL922921736L
I1074269848
sL1741170115L
I1074237808
sL3630481007L
I1074241596
sL3180242563L
I1074247280
sL3505757179L
I1074236592
sL766812602L
I1074269940
sL2654504747L
I1074236832
sL2729442491L
I1074239956
sL3709803269L
I1074270644
sL37145645L
I1074239932
sL4213015302L
I1074242948
sL108261224L
I1074247664
sL2963219391L
I1074238484
sL3522602967L
I1074247232
sL2825911886L
I1074247916
sL1569590703L
I1074270796
sL2420455533L
I1074269584
sL913986897L
I1074236632
sL1436480437L
I1074244444
sL2702580795L
I1074237188
sL72594300L
I1074235508
sL1773759112L
I1074241044
sL895106670L
I1074269876
sL2896295319L
I1074236728
sL598392220L
I1074238648
sL4025639365L
I1074245288
sL277832120L
I1074247828
sL3310030960L
I1074237996
sL438165286L
I1074268792
sL2569709078L
I1074237296
sL1674148343L
I1074245328
sL1825687022L
I1074239268
sL3382671069L
I1074245604
sL2485902447L
I1074236568
sL4256320254L
I1074246472
sL1585823442L
I1074244260
sL1622896354L
I1074244288
sL851198950L
I1074246428
sL1509716893L
I1074236700
sL2189223198L
I1074240196
sL2958342454L
I1074243232
sL653677717L
I1074236800
sL1980514409L
I1074245744
sL2722395949L
I1074236240
sL1236706783L
I1074238400
sL2056920310L
I1074244740
sL2124385010L
I1074240624
sL2249731702L
I1074245632
sL3584346073L
I1074240640
sL2516717951L
I1074245208
sL468811407L
I1074240996
sL530851108L
I1074244408
sL2778178071L
I1074244800
sL1786518269L
I1074245420
sL1885637095L
I1074267808
sL676927194L
I1074268784
sL3307282855L
I1074237968
sL1981305503L
I1074244160
sL3783111156L
I1074240588
sL73580264L
I1074247136
sL1101961250L
I1074268496
sL2329516116L
I1074245180
sL1050504461L
I1074234588
sL3105876367L
I1074247528
sL3624676508L
I1074270024
sL3723829862L
I1074235124
sL1542469732L
I1074269720
sL3107845285L
I1074239148
sL3478652865L
I1074247336
sL287141254L
I1074269976
sL3305814933L
I1074241724
sL4038945309L
I1074235460
sL2902954919L
I1074246936
sL2712747794L
I1074240604
sL2206563874L
I1074237264
sL3627203742L
I1074235660
sL2101888485L
I1074268552
sL2997001746L
I1074237120
sL3904982384L
I1074243844
sL1835584976L
I1074236888
sL529551912L
I1074238072
sL2819127986L
I1074236852
sL3537562471L
I1074238600
sL4153894184L
I1074269280
sL2079729974L
I1074235412
sL1877634603L
I1074270868
sL3878910193L
I1074236488
sL255566335L
I1074240268
sL1212966281L
I1074268032
sL352581834L
I1074237828
sL492342417L
I1074245152
sL296550246L
I1074238752
sL3832437923L
I1074244988
sL349616664L
I1074238700
sL1547372011L
I1074244192
sL2913879166L
I1074244580
sL1829420760L
I1074239632
sL3552954134L
I1074240424
sL3072464116L
I1074240288
sL511692713L
I1074269652
sL1488016745L
I1074237504
sL533534484L
I1074240808
sL2263182908L
I1074237988
sL1080520894L
I1074245560
sL3100146451L
I1074269296
sL671823316L
I1074246968
sL3630163135L
I1074236716
sL3185210683L
I1074235772
sL188664287L
I1074235092
sL692536993L
I1074237160
sL446991950L
I1074236388
sL4135655533L
I1074237556
sL17381862L
I1074236404
sL2574881416L
I1074242964
sL983379048L
I1074270200
sL414117975L
I1074241508
sL4258192951L
I1074244360
sL11700553L
I1074269608
sL1484526209L
I1074242464
sL3018942732L
I1074267700
sL2220375974L
I1074245036
ssS'immediates'
p8
(dp9
sS'formaldups'
p10
c__builtin__
set
p11
((lp12
tp13
Rp14
sS'stringdups'
p15
g11
((lp16
tp17
Rp18
sS'fuzzydups'
p19
g11
((lp20
tp21
Rp22
sS'strings'
p23
(dp24
sS'functions'
p25
(dp26
I1074243844
(Vwdt_hal_config_stage
p27
(lp28
(L331558507L
L0L
(lp29
(lp30
tp31
a(L4279082939L
L0L
(lp32
(lp33
tp34
a(L93674324L
L0L
(lp35
(lp36
tp37
a(L2902417580L
L0L
(lp38
(lp39
tp40
a(L2231438964L
L0L
(lp41
(lp42
tp43
a(L3020187L
L0L
(lp44
(lp45
tp46
a(L94425498L
L3785322319L
(lp47
(lp48
Vabort
p49
atp50
a(L364249652L
L0L
(lp51
(lp52
tp53
a(L3360570486L
L0L
(lp54
(lp55
tp56
a(L2292041393L
L0L
(lp57
(lp58
tp59
a(L2352645031L
L0L
(lp60
(lp61
tp62
a(L4278159418L
L0L
(lp63
(lp64
tp65
a(L93674324L
L0L
(lp66
(lp67
tp68
a(L3020204L
L0L
(lp69
(lp70
tp71
a(L2320486048L
L0L
(lp72
(lp73
tp74
a(L3020187L
L0L
(lp75
(lp76
tp77
a(L106L
L0L
(lp78
(lp79
tp80
a(L1419660726L
L0L
(lp81
(lp82
tp83
a(L1126693026L
L0L
(lp84
(lp85
tp86
a(L2720219678L
L0L
(lp87
(lp88
tp89
atp90
sI1074240260
(Vbootloader_debug_buffer
p91
(lp92
(L2100504542L
L0L
(lp93
(lp94
tp95
atp96
sI1074237188
(Vbootloader_common_select_otadata
p97
(lp98
(L4071767857L
L0L
(lp99
(lp100
tp101
a(L1999329187L
L0L
(lp102
(lp103
tp104
a(L3846398843L
L0L
(lp105
(lp106
tp107
a(L2501968171L
L0L
(lp108
(lp109
tp110
a(L3360570486L
L0L
(lp111
(lp112
tp113
a(L2045232488L
L0L
(lp114
(lp115
tp116
a(L1243525916L
L0L
(lp117
(lp118
tp119
a(L3094144427L
L0L
(lp120
(lp121
tp122
a(L2399509845L
L0L
(lp123
(lp124
tp125
a(L1641201884L
L0L
(lp126
(lp127
tp128
atp129
sI1074245632
(Vrtc_clk_cpu_freq_to_xtal
p130
(lp131
(L767415990L
L3785322319L
(lp132
(lp133
Vesp_rom_set_cpu_ticks_per_us
p134
atp135
a(L94425498L
L3785322319L
(lp136
(lp137
Vabort
p138
atp139
a(L2871946030L
L3785322319L
(lp140
(lp141
Vrtc_clk_apb_freq_update
p142
atp143
a(L2258867230L
L0L
(lp144
(lp145
tp146
a(L3835132690L
L0L
(lp147
(lp148
tp149
atp150
sI1074267136
(V_init
p151
(lp152
(L3493042598L
L0L
(lp153
(lp154
tp155
atp156
sI1074235660
(Vbootloader_flash_cs_timing_config
p157
(lp158
(L2456307126L
L0L
(lp159
(lp160
tp161
atp162
sI1074240268
(Vbootloader_sha256_start
p163
(lp164
(L891639094L
L0L
(lp165
(lp166
tp167
atp168
sI1074234632
(Vbootloader_flash_execute_command_common
p169
(lp170
(L3865052895L
L0L
(lp171
(lp172
tp173
a(L3633206334L
L3785322319L
(lp174
(lp175
V__assert_func
p176
atp177
a(L3027019L
L0L
(lp178
(lp179
tp180
a(L3739069824L
L0L
(lp181
(lp182
tp183
a(L2091933878L
L0L
(lp184
(lp185
tp186
a(L1702379862L
L0L
(lp187
(lp188
tp189
a(L1175553313L
L0L
(lp190
(lp191
tp192
a(L1104868223L
L0L
(lp193
(lp194
tp195
a(L3244449450L
L0L
(lp196
(lp197
tp198
a(L2379058871L
L0L
(lp199
(lp200
tp201
a(L2990329343L
L0L
(lp202
(lp203
tp204
a(L2753686375L
L0L
(lp205
(lp206
tp207
a(L3333696662L
L0L
(lp208
(lp209
tp210
a(L963425213L
L0L
(lp211
(lp212
tp213
a(L339491738L
L0L
(lp214
(lp215
tp216
a(L3360570486L
L0L
(lp217
(lp218
tp219
atp220
sI1074244360
(Vmmu_hal_unmap_all
p221
(lp222
(L2950361091L
L0L
(lp223
(lp224
tp225
a(L2010554219L
L0L
(lp226
(lp227
tp228
a(L3268103L
L0L
(lp229
(lp230
tp231
a(L3212334523L
L0L
(lp232
(lp233
tp234
a(L2010554219L
L0L
(lp235
(lp236
tp237
a(L3360570486L
L0L
(lp238
(lp239
tp240
atp241
sI1074269720
(Vbootloader_config_wdt
p242
(lp243
(L4205306329L
L505859776L
(lp244
(lp245
Vwdt_hal_write_protect_disable
p246
aVwdt_hal_set_flashboot_en
p247
aVwdt_hal_write_protect_enable
p248
aVwdt_hal_init
p249
aVrtc_clk_slow_freq_get_hz
p250
aVwdt_hal_write_protect_disable
p251
aVwdt_hal_config_stage
p252
aVwdt_hal_enable
p253
aVwdt_hal_write_protect_enable
p254
aVwdt_hal_write_protect_disable
p255
aVwdt_hal_set_flashboot_en
p256
aVwdt_hal_write_protect_enable
p257
atp258
atp259
sI1074269976
(Vesp_cpu_configure_region_protection
p260
(lp261
(L983946694L
L0L
(lp262
(lp263
tp264
a(L180431425L
L3785322319L
(lp265
(lp266
Vmpu_hal_set_region_access
p267
atp268
a(L2537388152L
L3785322319L
(lp269
(lp270
Vmpu_hal_set_region_access
p271
atp272
atp273
sI1074241044
(Vverify_load_addresses
p274
(lp275
(L2764487219L
L0L
(lp276
(lp277
tp278
a(L106L
L0L
(lp279
(lp280
tp281
a(L97642L
L0L
(lp282
(lp283
tp284
a(L1673361534L
L3785322319L
(lp285
(lp286
V__assert_func
p287
atp288
a(L3855533876L
L0L
(lp289
(lp290
tp291
a(L106L
L0L
(lp292
(lp293
tp294
a(L3279495833L
L0L
(lp295
(lp296
tp297
a(L106L
L0L
(lp298
(lp299
tp300
a(L3450859549L
L3785322319L
(lp301
(lp302
Vbootloader_util_regions_overlap
p303
atp304
a(L3854341078L
L3785322319L
(lp305
(lp306
Vbootloader_util_regions_overlap
p307
atp308
a(L3028481L
L0L
(lp309
(lp310
tp311
a(L683672555L
L3785322319L
(lp312
(lp313
Vbootloader_util_regions_overlap
p314
atp315
a(L1284431958L
L0L
(lp316
(lp317
tp318
a(L3704490966L
L0L
(lp319
(lp320
tp321
a(L1032381749L
L0L
(lp322
(lp323
tp324
a(L2837304413L
L0L
(lp325
(lp326
tp327
a(L677569396L
L3785322319L
(lp328
(lp329
Vverify_load_addresses
p330
atp331
a(L1351513776L
L0L
(lp332
(lp333
tp334
a(L956755582L
L0L
(lp335
(lp336
tp337
a(L2012750617L
L0L
(lp338
(lp339
tp340
a(L702181936L
L0L
(lp341
(lp342
tp343
a(L106L
L0L
(lp344
(lp345
tp346
a(L2671990032L
L0L
(lp347
(lp348
tp349
a(L106L
L0L
(lp350
(lp351
tp352
a(L2684822550L
L3785322319L
(lp353
(lp354
Vbootloader_util_regions_overlap
p355
atp356
a(L3028481L
L0L
(lp357
(lp358
tp359
a(L3652804893L
L3785322319L
(lp360
(lp361
Vbootloader_util_regions_overlap
p362
atp363
a(L3792143158L
L0L
(lp364
(lp365
tp366
a(L506830998L
L0L
(lp367
(lp368
tp369
a(L4167784487L
L0L
(lp370
(lp371
tp372
a(L2743341656L
L0L
(lp373
(lp374
tp375
a(L182882711L
L0L
(lp376
(lp377
tp378
a(L2861835415L
L0L
(lp379
(lp380
tp381
a(L297163306L
L0L
(lp382
(lp383
tp384
a(L1900059593L
L0L
(lp385
(lp386
tp387
a(L3722767394L
L0L
(lp388
(lp389
tp390
a(L4272871689L
L0L
(lp391
(lp392
tp393
a(L3929371936L
L0L
(lp394
(lp395
tp396
a(L2805933337L
L0L
(lp397
(lp398
tp399
a(L4072848040L
L0L
(lp400
(lp401
tp402
a(L106L
L0L
(lp403
(lp404
tp405
a(L955463250L
L0L
(lp406
(lp407
tp408
a(L307916009L
L0L
(lp409
(lp410
tp411
a(L3020204L
L0L
(lp412
(lp413
tp414
a(L224479232L
L3785322319L
(lp415
(lp416
Vesp_log_early_timestamp
p417
atp418
a(L1303560396L
L0L
(lp419
(lp420
tp421
a(L955461917L
L0L
(lp422
(lp423
tp424
a(L1303560427L
L0L
(lp425
(lp426
tp427
atp428
sI1074238484
(Vcache_ll_l1_get_bus
p429
(lp430
(L2621292994L
L0L
(lp431
(lp432
tp433
a(L94425498L
L3785322319L
(lp434
(lp435
Vabort
p436
atp437
a(L1980357754L
L0L
(lp438
(lp439
tp440
a(L2123447497L
L0L
(lp441
(lp442
tp443
a(L892952750L
L0L
(lp444
(lp445
tp446
a(L1182811810L
L0L
(lp447
(lp448
tp449
a(L1101742417L
L0L
(lp450
(lp451
tp452
a(L1100767927L
L0L
(lp453
(lp454
tp455
a(L3360570486L
L0L
(lp456
(lp457
tp458
a(L1546217205L
L0L
(lp459
(lp460
tp461
a(L2882938163L
L0L
(lp462
(lp463
tp464
a(L2927201858L
L0L
(lp465
(lp466
tp467
a(L2258718273L
L0L
(lp468
(lp469
tp470
a(L2580713941L
L0L
(lp471
(lp472
tp473
a(L1549911289L
L0L
(lp474
(lp475
tp476
a(L1553610643L
L0L
(lp477
(lp478
tp479
a(L1641149277L
L0L
(lp480
(lp481
tp482
a(L2048693038L
L0L
(lp483
(lp484
tp485
a(L3027019L
L0L
(lp486
(lp487
tp488
a(L1299866560L
L0L
(lp489
(lp490
tp491
a(L1299866436L
L0L
(lp492
(lp493
tp494
atp495
sI1074235412
(Vbootloader_flash_read_sfdp
p496
(lp497
(L2754474584L
L0L
(lp498
(lp499
tp500
a(L3633206334L
L3785322319L
(lp501
(lp502
V__assert_func
p503
atp504
a(L3062415783L
L3785322319L
(lp505
(lp506
Vbootloader_flash_execute_command_common
p507
atp508
atp509
sI1074237968
(Vbootloader_enable_wp
p510
(lp511
(L1117825804L
L3785322319L
(lp512
(lp513
Vbootloader_execute_flash_command
p514
atp515
atp516
sI1074236700
(Vefuse_hal_get_minor_chip_version
p517
(lp518
(L2721608854L
L0L
(lp519
(lp520
tp521
atp522
sI1074246428
(Vrtc_clk_apb_freq_get
p523
(lp524
(L2636417636L
L0L
(lp525
(lp526
tp527
atp528
sI1074246936
(Vrtc_clk_cal_ratio
p529
(lp530
(L3600145347L
L3785322319L
(lp531
(lp532
Vrtc_clk_cal_internal
p533
atp534
atp535
sI1074239268
(Vbootloader_utility_load_partition_table
p536
(lp537
(L2298349392L
L3785322319L
(lp538
(lp539
Vbootloader_mmap
p540
atp541
a(L686531227L
L3785322319L
(lp542
(lp543
Vesp_log_early_timestamp
p544
atp545
a(L2258688482L
L0L
(lp546
(lp547
tp548
a(L3360570486L
L0L
(lp549
(lp550
tp551
a(L2379286607L
L3785322319L
(lp552
(lp553
Vesp_partition_table_verify
p554
atp555
a(L2849877871L
L3785322319L
(lp556
(lp557
Vesp_log_early_timestamp
p558
atp559
a(L4211819985L
L1880226080L
(lp560
(lp561
Vesp_log_early_timestamp
p562
aVesp_log_early_timestamp
p563
atp564
a(L650140130L
L0L
(lp565
(lp566
tp567
a(L2207383553L
L1880226080L
(lp568
(lp569
Vbootloader_munmap
p570
aVesp_log_early_timestamp
p571
atp572
a(L521126897L
L0L
(lp573
(lp574
tp575
a(L3028464L
L0L
(lp576
(lp577
tp578
a(L106L
L0L
(lp579
(lp580
tp581
a(L1403803240L
L0L
(lp582
(lp583
tp584
a(L1935085114L
L3785322319L
(lp585
(lp586
Vesp_log_early_timestamp
p587
atp588
a(L3990577774L
L0L
(lp589
(lp590
tp591
a(L3020187L
L0L
(lp592
(lp593
tp594
a(L2900954148L
L0L
(lp595
(lp596
tp597
a(L4208524845L
L0L
(lp598
(lp599
tp600
a(L1859238148L
L0L
(lp601
(lp602
tp603
a(L2546688487L
L0L
(lp604
(lp605
tp606
a(L3751554396L
L0L
(lp607
(lp608
tp609
a(L106L
L0L
(lp610
(lp611
tp612
a(L93674324L
L0L
(lp613
(lp614
tp615
a(L1501107836L
L0L
(lp616
(lp617
tp618
a(L1938154897L
L0L
(lp619
(lp620
tp621
a(L1526042886L
L0L
(lp622
(lp623
tp624
a(L106L
L0L
(lp625
(lp626
tp627
a(L1529736970L
L0L
(lp628
(lp629
tp630
a(L106L
L0L
(lp631
(lp632
tp633
a(L568225292L
L0L
(lp634
(lp635
tp636
atp637
sI1074237988
(Vbootloader_mmap_get_free_pages
p638
(lp639
(L1496516875L
L0L
(lp640
(lp641
tp642
atp643
sI1074240288
(Vbootloader_sha256_data
p644
(lp645
(L4066096136L
L0L
(lp646
(lp647
tp648
a(L345118590L
L3785322319L
(lp649
(lp650
V__assert_func
p651
atp652
a(L2660360796L
L0L
(lp653
(lp654
tp655
a(L801000852L
L0L
(lp656
(lp657
tp658
a(L2910371777L
L0L
(lp659
(lp660
tp661
a(L3360570486L
L0L
(lp662
(lp663
tp664
a(L248495140L
L0L
(lp665
(lp666
tp667
a(L1248587142L
L0L
(lp668
(lp669
tp670
a(L137072431L
L0L
(lp671
(lp672
tp673
a(L3104506332L
L0L
(lp674
(lp675
tp676
a(L1394964493L
L0L
(lp677
(lp678
tp679
a(L2326590888L
L0L
(lp680
(lp681
tp682
a(L702738104L
L0L
(lp683
(lp684
tp685
a(L3745004802L
L0L
(lp686
(lp687
tp688
atp689
sI1074238752
(Vload_image
p690
(lp691
(L3216123114L
L1832448559L
(lp692
(lp693
Vesp_log_early_timestamp
p694
aVbootloader_random_disable
p695
aVbootloader_ana_clock_glitch_reset_config
p696
atp697
a(L2261049225L
L0L
(lp698
(lp699
tp700
a(L106L
L0L
(lp701
(lp702
tp703
a(L3627000415L
L3758435744L
(lp704
(lp705
Vmmu_hal_unmap_all
p706
aVcache_ll_l1_get_bus
p707
aVcache_ll_l1_enable_bus
p708
aVcache_ll_l1_get_bus
p709
aVcache_ll_l1_enable_bus
p710
aVcache_ll_l1_get_bus
p711
aVcache_ll_l1_enable_bus
p712
aVcache_ll_l1_get_bus
p713
aVcache_ll_l1_enable_bus
p714
aVbootloader_console_deinit
p715
atp716
a(L4036949574L
L0L
(lp717
(lp718
tp719
a(L2902417580L
L0L
(lp720
(lp721
tp722
a(L3837209534L
L3785322319L
(lp723
(lp724
Vesp_log_early_timestamp
p725
atp726
a(L2552261596L
L0L
(lp727
(lp728
tp729
a(L2263135719L
L0L
(lp730
(lp731
tp732
a(L3020204L
L0L
(lp733
(lp734
tp735
a(L710438493L
L3785322319L
(lp736
(lp737
Vesp_log_early_timestamp
p738
atp739
a(L3291469664L
L0L
(lp740
(lp741
tp742
a(L2591655545L
L0L
(lp743
(lp744
tp745
atp746
sI1074245152
(Vrtc_clk_slow_src_get
p747
(lp748
(L2301410294L
L0L
(lp749
(lp750
tp751
a(L3020187L
L0L
(lp752
(lp753
tp754
a(L2902417580L
L0L
(lp755
(lp756
tp757
a(L2258688485L
L0L
(lp758
(lp759
tp760
a(L3360570486L
L0L
(lp761
(lp762
tp763
atp764
sI1074236716
(Vesp_dport_access_reg_read
p765
(lp766
(L1099794772L
L0L
(lp767
(lp768
tp769
atp770
sI1074237996
(Vbootloader_fill_random
p771
(lp772
(L384353371L
L0L
(lp773
(lp774
tp775
a(L725424157L
L3785322319L
(lp776
(lp777
V__assert_func
p778
atp779
a(L1882547218L
L0L
(lp780
(lp781
tp782
a(L2910371777L
L0L
(lp783
(lp784
tp785
a(L3923099622L
L0L
(lp786
(lp787
tp788
a(L1882212677L
L0L
(lp789
(lp790
tp791
a(L4060264420L
L0L
(lp792
(lp793
tp794
a(L97689L
L0L
(lp795
(lp796
tp797
a(L3360570486L
L0L
(lp798
(lp799
tp800
atp801
sI1074245420
(Vrtc_clk_cpu_freq_get_config
p802
(lp803
(L738978821L
L0L
(lp804
(lp805
tp806
a(L3020187L
L0L
(lp807
(lp808
tp809
a(L3020187L
L0L
(lp810
(lp811
tp812
a(L263435604L
L3785322319L
(lp813
(lp814
Vrtc_clk_xtal_freq_get
p815
atp816
a(L3789795478L
L0L
(lp817
(lp818
tp819
a(L2690742820L
L1880226080L
(lp820
(lp821
Vesp_log_early_timestamp
p822
aVabort
p823
atp824
a(L142805038L
L0L
(lp825
(lp826
tp827
a(L3020187L
L0L
(lp828
(lp829
tp830
a(L3028481L
L0L
(lp831
(lp832
tp833
a(L38508693L
L0L
(lp834
(lp835
tp836
a(L187152368L
L0L
(lp837
(lp838
tp839
a(L1161083655L
L0L
(lp840
(lp841
tp842
a(L1395485899L
L0L
(lp843
(lp844
tp845
a(L2070600034L
L0L
(lp846
(lp847
tp848
atp849
sI1074240808
(Vprocess_image_header
p850
(lp851
(L3376634125L
L3785322319L
(lp852
(lp853
Vbootloader_flash_read
p854
atp855
a(L3020204L
L0L
(lp856
(lp857
tp858
a(L4205021202L
L0L
(lp859
(lp860
tp861
a(L321261932L
L0L
(lp862
(lp863
tp864
a(L1161397362L
L3785322319L
(lp865
(lp866
Vbootloader_sha256_start
p867
atp868
a(L2062774299L
L3785322319L
(lp869
(lp870
Vbootloader_sha256_data
p871
atp872
a(L1291118193L
L0L
(lp873
(lp874
tp875
a(L3028481L
L0L
(lp876
(lp877
tp878
a(L1713658460L
L3785322319L
(lp879
(lp880
Vesp_log_early_timestamp
p881
atp882
a(L3200754103L
L0L
(lp883
(lp884
tp885
a(L2983970029L
L0L
(lp886
(lp887
tp888
a(L4235213884L
L3785322319L
(lp889
(lp890
Vbootloader_common_check_chip_validity
p891
atp892
a(L4144303915L
L0L
(lp893
(lp894
tp895
a(L3028481L
L0L
(lp896
(lp897
tp898
a(L1094730886L
L3785322319L
(lp899
(lp900
Vesp_log_early_timestamp
p901
atp902
a(L2852701393L
L0L
(lp903
(lp904
tp905
a(L2122516551L
L0L
(lp906
(lp907
tp908
a(L3064492592L
L0L
(lp909
(lp910
tp911
atp912
sI1074241596
(Vshould_load
p913
(lp914
(L1277277799L
L0L
(lp915
(lp916
tp917
a(L1182990556L
L0L
(lp918
(lp919
tp920
a(L2059372431L
L0L
(lp921
(lp922
tp923
a(L2306467100L
L0L
(lp924
(lp925
tp926
a(L3466162661L
L0L
(lp927
(lp928
tp929
a(L2258897019L
L0L
(lp930
(lp931
tp932
a(L3781799363L
L0L
(lp933
(lp934
tp935
a(L3028464L
L0L
(lp936
(lp937
tp938
a(L1244813828L
L0L
(lp939
(lp940
tp941
a(L4277114872L
L0L
(lp942
(lp943
tp944
a(L2824381917L
L0L
(lp945
(lp946
tp947
a(L1243412227L
L0L
(lp948
(lp949
tp950
a(L2011157548L
L0L
(lp951
(lp952
tp953
a(L3126521138L
L0L
(lp954
(lp955
tp956
a(L1305407438L
L0L
(lp957
(lp958
tp959
a(L1305407469L
L0L
(lp960
(lp961
tp962
atp963
sI1074245180
(Vrtc_clk_slow_freq_get_hz
p964
(lp965
(L1826267122L
L3785322319L
(lp966
(lp967
Vrtc_clk_slow_src_get
p968
atp969
a(L3979693478L
L0L
(lp970
(lp971
tp972
a(L236701076L
L0L
(lp973
(lp974
tp975
a(L3360570486L
L0L
(lp976
(lp977
tp978
atp979
sI1074267700
(Vcall_start_cpu0
p980
(lp981
(L1137852827L
L0L
(lp982
(lp983
tp984
a(L549459388L
L0L
(lp985
(lp986
tp987
a(L3212347974L
L3785322319L
(lp988
(lp989
Vbootloader_init
p990
atp991
a(L94425498L
L3785322319L
(lp992
(lp993
Vbootloader_reset
p994
atp995
a(L1122046408L
L0L
(lp996
(lp997
tp998
a(L4099474112L
L0L
(lp999
(lp1000
tp1001
a(L3015046664L
L3785322319L
(lp1002
(lp1003
Vbootloader_utility_load_partition_table
p1004
atp1005
a(L2761094216L
L3785322319L
(lp1006
(lp1007
Vesp_log_early_timestamp
p1008
atp1009
a(L405422123L
L3785322319L
(lp1010
(lp1011
Vbootloader_utility_get_selected_boot_partition
p1012
atp1013
a(L2055385849L
L3785322319L
(lp1014
(lp1015
Vbootloader_utility_load_boot_image
p1016
atp1017
atp1018
sI1074244408
(Vefuse_hal_get_rated_freq_mhz
p1019
(lp1020
(L3060225221L
L0L
(lp1021
(lp1022
tp1023
a(L338960367L
L0L
(lp1024
(lp1025
tp1026
a(L3360570486L
L0L
(lp1027
(lp1028
tp1029
atp1030
sI1074236728
(Vis_xmc_chip_strict
p1031
(lp1032
(L1286841609L
L0L
(lp1033
(lp1034
tp1035
a(L2234016759L
L0L
(lp1036
(lp1037
tp1038
a(L1069027148L
L0L
(lp1039
(lp1040
tp1041
a(L3021749L
L0L
(lp1042
(lp1043
tp1044
a(L1900148749L
L0L
(lp1045
(lp1046
tp1047
a(L1936875721L
L0L
(lp1048
(lp1049
tp1050
a(L3356166509L
L0L
(lp1051
(lp1052
tp1053
a(L1937769451L
L0L
(lp1054
(lp1055
tp1056
a(L2137658907L
L0L
(lp1057
(lp1058
tp1059
a(L4265949734L
L0L
(lp1060
(lp1061
tp1062
a(L3360570486L
L0L
(lp1063
(lp1064
tp1065
atp1066
sI1074246968
(Vrtc_clk_wait_for_slow_cycle
p1067
(lp1068
(L1866663546L
L0L
(lp1069
(lp1070
tp1071
a(L287687718L
L0L
(lp1072
(lp1073
tp1074
a(L3360570486L
L0L
(lp1075
(lp1076
tp1077
a(L1222592870L
L0L
(lp1078
(lp1079
tp1080
a(L1300789833L
L0L
(lp1081
(lp1082
tp1083
a(L1259765481L
L0L
(lp1084
(lp1085
tp1086
a(L1827433135L
L0L
(lp1087
(lp1088
tp1089
a(L3791567466L
L3785322319L
(lp1090
(lp1091
Vesp_log_early_timestamp
p1092
atp1093
atp1094
sI1074270024
(Vrtc_clk_xtal_freq_estimate
p1095
(lp1096
(L1823831978L
L1880226080L
(lp1097
(lp1098
Vrtc_clk_8m_enabled
p1099
aVrtc_clk_8md256_enabled
p1100
atp1101
a(L2449794434L
L3785322319L
(lp1102
(lp1103
Vrtc_clk_8m_enable
p1104
atp1105
a(L1966491341L
L3785322319L
(lp1106
(lp1107
Vrtc_clk_cal_ratio
p1108
atp1109
a(L3934977694L
L0L
(lp1110
(lp1111
tp1112
a(L3955289886L
L0L
(lp1113
(lp1114
tp1115
a(L1413317154L
L3785322319L
(lp1116
(lp1117
Vesp_log_early_timestamp
p1118
atp1119
a(L2307427870L
L0L
(lp1120
(lp1121
tp1122
a(L1281346514L
L3785322319L
(lp1123
(lp1124
Vrtc_clk_8m_enable
p1125
atp1126
a(L3909119106L
L0L
(lp1127
(lp1128
tp1129
a(L972150258L
L3785322319L
(lp1130
(lp1131
Vesp_log_early_timestamp
p1132
atp1133
a(L3304487880L
L0L
(lp1134
(lp1135
tp1136
a(L1641150486L
L0L
(lp1137
(lp1138
tp1139
a(L353205316L
L3785322319L
(lp1140
(lp1141
Vesp_log_early_timestamp
p1142
atp1143
atp1144
sI1074235460
(Vbootloader_read_flash_id
p1145
(lp1146
(L549578328L
L3785322319L
(lp1147
(lp1148
Vbootloader_execute_flash_command
p1149
atp1150
atp1151
sI1074270796
(Vrtc_vddsdio_set_config
p1152
(lp1153
(L2084816981L
L0L
(lp1154
(lp1155
tp1156
atp1157
sI1074244160
(Vwdt_hal_write_protect_disable
p1158
(lp1159
(L3464977689L
L0L
(lp1160
(lp1161
tp1162
a(L4195472003L
L0L
(lp1163
(lp1164
tp1165
a(L3360570486L
L0L
(lp1166
(lp1167
tp1168
a(L1210571996L
L0L
(lp1169
(lp1170
tp1171
atp1172
sI1074237504
(Vbootloader_munmap
p1173
(lp1174
(L3768586525L
L0L
(lp1175
(lp1176
tp1177
a(L2484800714L
L0L
(lp1178
(lp1179
tp1180
a(L3360570486L
L0L
(lp1181
(lp1182
tp1183
atp1184
sI1074247232
(Vesp_rom_spiflash_wait_idle
p1185
(lp1186
(L3233075856L
L0L
(lp1187
(lp1188
tp1189
a(L2023766174L
L0L
(lp1190
(lp1191
tp1192
a(L2805933837L
L0L
(lp1193
(lp1194
tp1195
a(L3086959262L
L0L
(lp1196
(lp1197
tp1198
a(L4161019926L
L3785322319L
(lp1199
(lp1200
Vesp_rom_spiflash_read_status
p1201
atp1202
atp1203
sI1074240588
(Vbootloader_console_deinit
p1204
(lp1205
(L879327750L
L0L
(lp1206
(lp1207
tp1208
atp1209
sI1074236488
(Vesp_rom_uart_set_clock_baudrate
p1210
(lp1211
(L2388756879L
L0L
(lp1212
(lp1213
tp1214
a(L1146419736L
L0L
(lp1215
(lp1216
tp1217
a(L2805930071L
L0L
(lp1218
(lp1219
tp1220
a(L2933002736L
L0L
(lp1221
(lp1222
tp1223
atp1224
sI1074246472
(Vrtc_clk_cal_internal
p1225
(lp1226
(L1894772953L
L0L
(lp1227
(lp1228
tp1229
a(L1673361534L
L3785322319L
(lp1230
(lp1231
V__assert_func
p1232
atp1233
a(L1135453528L
L0L
(lp1234
(lp1235
tp1236
a(L1673513644L
L0L
(lp1237
(lp1238
tp1239
a(L1024090278L
L3785322319L
(lp1240
(lp1241
Vrtc_clk_slow_src_get
p1242
atp1243
a(L918245519L
L0L
(lp1244
(lp1245
tp1246
a(L97689L
L0L
(lp1247
(lp1248
tp1249
a(L1524691721L
L0L
(lp1250
(lp1251
tp1252
a(L3028464L
L0L
(lp1253
(lp1254
tp1255
a(L3028481L
L0L
(lp1256
(lp1257
tp1258
a(L3450259306L
L0L
(lp1259
(lp1260
tp1261
a(L1105058895L
L3785322319L
(lp1262
(lp1263
Vrtc_clk_xtal_freq_get
p1264
atp1265
a(L2780079961L
L0L
(lp1266
(lp1267
tp1268
a(L1753859478L
L0L
(lp1269
(lp1270
tp1271
a(L2271067562L
L3785322319L
(lp1272
(lp1273
Vesp_log_early_timestamp
p1274
atp1275
a(L2258688482L
L0L
(lp1276
(lp1277
tp1278
a(L3360570486L
L0L
(lp1279
(lp1280
tp1281
a(L3553505594L
L0L
(lp1282
(lp1283
tp1284
a(L403361192L
L0L
(lp1285
(lp1286
tp1287
a(L3243404432L
L3785322319L
(lp1288
(lp1289
Vrtc_clk_8m_enable
p1290
atp1291
a(L2099217941L
L0L
(lp1292
(lp1293
tp1294
a(L3654398766L
L0L
(lp1295
(lp1296
tp1297
a(L2910371777L
L0L
(lp1298
(lp1299
tp1300
a(L2902417580L
L0L
(lp1301
(lp1302
tp1303
a(L2773648869L
L0L
(lp1304
(lp1305
tp1306
a(L3020204L
L0L
(lp1307
(lp1308
tp1309
a(L3414384934L
L0L
(lp1310
(lp1311
tp1312
a(L3429540926L
L0L
(lp1313
(lp1314
tp1315
a(L3028464L
L0L
(lp1316
(lp1317
tp1318
a(L3539648590L
L3785322319L
(lp1319
(lp1320
Vrtc_clk_8m_enable
p1321
atp1322
atp1323
sI1074236240
(Vbootloader_flash_dummy_config
p1324
(lp1325
(L4070739128L
L0L
(lp1326
(lp1327
tp1328
a(L2761717557L
L0L
(lp1329
(lp1330
tp1331
a(L1849044936L
L0L
(lp1332
(lp1333
tp1334
a(L4223246558L
L0L
(lp1335
(lp1336
tp1337
a(L1077456810L
L0L
(lp1338
(lp1339
tp1340
a(L3020204L
L0L
(lp1341
(lp1342
tp1343
a(L1610443405L
L0L
(lp1344
(lp1345
tp1346
a(L4032120524L
L0L
(lp1347
(lp1348
tp1349
a(L2336993863L
L0L
(lp1350
(lp1351
tp1352
a(L1298875775L
L0L
(lp1353
(lp1354
tp1355
a(L3880393601L
L0L
(lp1356
(lp1357
tp1358
a(L4256558450L
L0L
(lp1359
(lp1360
tp1361
a(L1610443436L
L0L
(lp1362
(lp1363
tp1364
atp1365
sI1074237264
(Vspi_to_esp_err
p1366
(lp1367
(L3448846657L
L0L
(lp1368
(lp1369
tp1370
a(L2352529885L
L0L
(lp1371
(lp1372
tp1373
a(L3952441574L
L0L
(lp1374
(lp1375
tp1376
a(L3126521138L
L0L
(lp1377
(lp1378
tp1379
atp1380
sI1074268496
(Vbootloader_common_vddsdio_configure
p1381
(lp1382
(L1829974089L
L3785322319L
(lp1383
(lp1384
Vrtc_vddsdio_get_config
p1385
atp1386
a(L2114506235L
L3785322319L
(lp1387
(lp1388
Vrtc_vddsdio_set_config
p1389
atp1390
a(L3360570486L
L0L
(lp1391
(lp1392
tp1393
atp1394
sI1074240604
(Vabort
p1395
(lp1396
(L1419737882L
L0L
(lp1397
(lp1398
tp1399
a(L409471316L
L0L
(lp1400
(lp1401
tp1402
a(L106L
L0L
(lp1403
(lp1404
tp1405
atp1406
sI1074244444
(Vrtc_clk_32k_enable_common
p1407
(lp1408
(L2202248472L
L0L
(lp1409
(lp1410
tp1411
a(L97422L
L0L
(lp1412
(lp1413
tp1414
a(L2218417248L
L0L
(lp1415
(lp1416
tp1417
a(L2388918L
L0L
(lp1418
(lp1419
tp1420
a(L51458120L
L0L
(lp1421
(lp1422
tp1423
atp1424
sI1074245208
(Vrtc_clk_fast_src_set
p1425
(lp1426
(L3537284276L
L0L
(lp1427
(lp1428
tp1429
a(L3020187L
L0L
(lp1430
(lp1431
tp1432
a(L3827921190L
L3785322319L
(lp1433
(lp1434
Vabort
p1435
atp1436
a(L3159393302L
L0L
(lp1437
(lp1438
tp1439
a(L3058994973L
L0L
(lp1440
(lp1441
tp1442
a(L300459962L
L0L
(lp1443
(lp1444
tp1445
atp1446
sI1074244192
(Vwdt_hal_set_flashboot_en
p1447
(lp1448
(L2375320464L
L0L
(lp1449
(lp1450
tp1451
a(L3915867581L
L0L
(lp1452
(lp1453
tp1454
a(L3360570486L
L0L
(lp1455
(lp1456
tp1457
a(L1006576409L
L0L
(lp1458
(lp1459
tp1460
atp1461
sI1074269280
(Vbootloader_flash_update_id
p1462
(lp1463
(L4282082956L
L3785322319L
(lp1464
(lp1465
Vbootloader_read_flash_id
p1466
atp1467
atp1468
sI1074247528
(Vesp_rom_spiflash_erase_sector
p1469
(lp1470
(L2535942608L
L0L
(lp1471
(lp1472
tp1473
a(L2258688483L
L0L
(lp1474
(lp1475
tp1476
a(L3360570486L
L0L
(lp1477
(lp1478
tp1479
a(L3212356251L
L3785322319L
(lp1480
(lp1481
Vesp_rom_spiflash_enable_write
p1482
atp1483
a(L184152988L
L0L
(lp1484
(lp1485
tp1486
a(L2609415013L
L3785322319L
(lp1487
(lp1488
Vesp_rom_spiflash_wait_idle
p1489
atp1490
a(L3333707777L
L0L
(lp1491
(lp1492
tp1493
a(L3582858798L
L3785322319L
(lp1494
(lp1495
Vesp_rom_spiflash_wait_idle
p1496
atp1497
atp1498
sI1074268792
(Vbootloader_random_enable
p1499
(lp1500
(L3704461591L
L0L
(lp1501
(lp1502
tp1503
atp1504
sI1074235508
(Vbootloader_flash_xmc_startup
p1505
(lp1506
(L1656727660L
L3785322319L
(lp1507
(lp1508
Vis_xmc_chip_strict
p1509
atp1510
a(L2258688482L
L0L
(lp1511
(lp1512
tp1513
a(L3360570486L
L0L
(lp1514
(lp1515
tp1516
a(L2860324232L
L3785322319L
(lp1517
(lp1518
Vbootloader_flash_read_sfdp
p1519
atp1520
a(L322684782L
L2567856111L
(lp1521
(lp1522
Vesp_log_early_timestamp
p1523
aVbootloader_execute_flash_command
p1524
aVbootloader_execute_flash_command
p1525
aVbootloader_execute_flash_command
p1526
aVbootloader_execute_flash_command
p1527
aVbootloader_read_flash_id
p1528
aVis_xmc_chip_strict
p1529
atp1530
a(L3800846350L
L3785322319L
(lp1531
(lp1532
Vesp_log_early_timestamp
p1533
atp1534
atp1535
sI1074237556
(Vbootloader_flash_read
p1536
(lp1537
(L3022618172L
L0L
(lp1538
(lp1539
tp1540
a(L733561467L
L3785322319L
(lp1541
(lp1542
Vesp_log_early_timestamp
p1543
atp1544
a(L3956097761L
L0L
(lp1545
(lp1546
tp1547
a(L1351513776L
L0L
(lp1548
(lp1549
tp1550
a(L1486740491L
L0L
(lp1551
(lp1552
tp1553
a(L479515145L
L3785322319L
(lp1554
(lp1555
Vesp_log_early_timestamp
p1556
atp1557
a(L3283691850L
L0L
(lp1558
(lp1559
tp1560
a(L3988428390L
L3785322319L
(lp1561
(lp1562
Vesp_log_early_timestamp
p1563
atp1564
a(L3020204L
L0L
(lp1565
(lp1566
tp1567
a(L384130671L
L0L
(lp1568
(lp1569
tp1570
a(L97422L
L0L
(lp1571
(lp1572
tp1573
a(L2721327391L
L0L
(lp1574
(lp1575
tp1576
a(L3887263962L
L0L
(lp1577
(lp1578
tp1579
a(L3633206334L
L3785322319L
(lp1580
(lp1581
V__assert_func
p1582
atp1583
a(L1294274528L
L0L
(lp1584
(lp1585
tp1586
a(L654783252L
L0L
(lp1587
(lp1588
tp1589
a(L1628342975L
L1880226080L
(lp1590
(lp1591
Vesp_rom_spiflash_read
p1592
aVspi_to_esp_err
p1593
atp1594
atp1595
sI1074237296
(Vbootloader_mmap
p1596
(lp1597
(L2692475355L
L0L
(lp1598
(lp1599
tp1600
a(L3019116710L
L3785322319L
(lp1601
(lp1602
Vesp_log_early_timestamp
p1603
atp1604
a(L2494912591L
L0L
(lp1605
(lp1606
tp1607
a(L3729184599L
L0L
(lp1608
(lp1609
tp1610
a(L2937582406L
L3785322319L
(lp1611
(lp1612
Vesp_log_early_timestamp
p1613
atp1614
a(L2258688482L
L0L
(lp1615
(lp1616
tp1617
a(L3360570486L
L0L
(lp1618
(lp1619
tp1620
a(L2233111192L
L0L
(lp1621
(lp1622
tp1623
a(L2779670649L
L0L
(lp1624
(lp1625
tp1626
a(L637397226L
L3785322319L
(lp1627
(lp1628
Vesp_log_early_timestamp
p1629
atp1630
a(L3398305861L
L3785322319L
(lp1631
(lp1632
Vesp_log_early_timestamp
p1633
atp1634
a(L2157512850L
L0L
(lp1635
(lp1636
tp1637
atp1638
sI1074237808
(Vbootloader_flash_erase_sector
p1639
(lp1640
(L4129137686L
L1880226080L
(lp1641
(lp1642
Vesp_rom_spiflash_erase_sector
p1643
aVspi_to_esp_err
p1644
atp1645
atp1646
sI1074240624
(V__assert_func
p1647
(lp1648
(L3493042536L
L0L
(lp1649
(lp1650
tp1651
a(L106L
L0L
(lp1652
(lp1653
tp1654
atp1655
sI1074245744
(Vrtc_clk_cpu_freq_set_config
p1656
(lp1657
(L175217786L
L3785322319L
(lp1658
(lp1659
Vrtc_clk_xtal_freq_get
p1660
atp1661
a(L2308773007L
L0L
(lp1662
(lp1663
tp1664
a(L3253451229L
L1880226080L
(lp1665
(lp1666
Vrtc_clk_cpu_freq_to_xtal
p1667
aVrtc_clk_wait_for_slow_cycle
p1668
atp1669
a(L2243645672L
L0L
(lp1670
(lp1671
tp1672
a(L4002786498L
L0L
(lp1673
(lp1674
tp1675
a(L2736411858L
L3785322319L
(lp1676
(lp1677
Vrtc_clk_cpu_freq_to_xtal
p1678
atp1679
a(L3360570486L
L0L
(lp1680
(lp1681
tp1682
a(L2755207760L
L1832448559L
(lp1683
(lp1684
Vrtc_clk_cpu_freq_to_xtal
p1685
aVrtc_clk_wait_for_slow_cycle
p1686
aVrtc_clk_bbpll_disable
p1687
atp1688
a(L3020187L
L0L
(lp1689
(lp1690
tp1691
a(L106L
L0L
(lp1692
(lp1693
tp1694
a(L1609718354L
L1880226080L
(lp1695
(lp1696
Vrtc_clk_wait_for_slow_cycle
p1697
aVrtc_clk_xtal_freq_get
p1698
atp1699
a(L106L
L0L
(lp1700
(lp1701
tp1702
a(L2091512352L
L0L
(lp1703
(lp1704
tp1705
a(L83268611L
L0L
(lp1706
(lp1707
tp1708
a(L106L
L0L
(lp1709
(lp1710
tp1711
a(L82345090L
L0L
(lp1712
(lp1713
tp1714
a(L106L
L0L
(lp1715
(lp1716
tp1717
a(L2258718273L
L0L
(lp1718
(lp1719
tp1720
a(L3298883534L
L0L
(lp1721
(lp1722
tp1723
a(L664284150L
L0L
(lp1724
(lp1725
tp1726
a(L1979756370L
L3785322319L
(lp1727
(lp1728
Vrtc_clk_cpu_freq_to_pll_mhz
p1729
atp1730
a(L2893462552L
L0L
(lp1731
(lp1732
tp1733
a(L83268344L
L0L
(lp1734
(lp1735
tp1736
a(L82344823L
L0L
(lp1737
(lp1738
tp1739
a(L1569180676L
L0L
(lp1740
(lp1741
tp1742
a(L2258837488L
L0L
(lp1743
(lp1744
tp1745
a(L1429417892L
L0L
(lp1746
(lp1747
tp1748
a(L1482311963L
L0L
(lp1749
(lp1750
tp1751
a(L133411965L
L0L
(lp1752
(lp1753
tp1754
a(L3673491036L
L0L
(lp1755
(lp1756
tp1757
a(L4197990447L
L0L
(lp1758
(lp1759
tp1760
a(L903154985L
L0L
(lp1761
(lp1762
tp1763
a(L3020187L
L0L
(lp1764
(lp1765
tp1766
a(L106L
L0L
(lp1767
(lp1768
tp1769
a(L2767061269L
L3785322319L
(lp1770
(lp1771
Vesp_rom_set_cpu_ticks_per_us
p1772
atp1773
atp1774
sI1074247280
(Vesp_rom_spiflash_enable_write
p1775
(lp1776
(L678773340L
L3785322319L
(lp1777
(lp1778
Vesp_rom_spiflash_wait_idle
p1779
atp1780
a(L3333707777L
L0L
(lp1781
(lp1782
tp1783
a(L2258688484L
L0L
(lp1784
(lp1785
tp1786
a(L99543895L
L0L
(lp1787
(lp1788
tp1789
a(L2993202392L
L0L
(lp1790
(lp1791
tp1792
a(L2950567577L
L3785322319L
(lp1793
(lp1794
Vesp_rom_spiflash_read_status
p1795
atp1796
atp1797
sI1074268784
(Vbootloader_init_mem
p1798
(lp1799
(L1287383080L
L3785322319L
(lp1800
(lp1801
Vesp_cpu_configure_region_protection
p1802
atp1803
atp1804
sI1074269296
(Vbootloader_init_spi_flash
p1805
(lp1806
(L88497861L
L2485746240L
(lp1807
(lp1808
Vbootloader_flash_gpio_config
p1809
aVbootloader_flash_dummy_config
p1810
aVbootloader_flash_cs_timing_config
p1811
aVbootloader_flash_unlock
p1812
atp1813
a(L581285095L
L0L
(lp1814
(lp1815
tp1816
a(L3602989351L
L0L
(lp1817
(lp1818
tp1819
a(L3201442070L
L0L
(lp1820
(lp1821
tp1822
a(L1536284483L
L3785322319L
(lp1823
(lp1824
Vesp_log_early_timestamp
p1825
atp1826
a(L2163775258L
L0L
(lp1827
(lp1828
tp1829
a(L2145304838L
L0L
(lp1830
(lp1831
tp1832
a(L2148998922L
L0L
(lp1833
(lp1834
tp1835
a(L2192403913L
L0L
(lp1836
(lp1837
tp1838
a(L703426168L
L0L
(lp1839
(lp1840
tp1841
a(L3933729186L
L3785322319L
(lp1842
(lp1843
Vesp_log_early_timestamp
p1844
atp1845
a(L93674324L
L0L
(lp1846
(lp1847
tp1848
a(L3152496124L
L0L
(lp1849
(lp1850
tp1851
a(L3688876787L
L0L
(lp1852
(lp1853
tp1854
a(L460458390L
L0L
(lp1855
(lp1856
tp1857
a(L3710126047L
L0L
(lp1858
(lp1859
tp1860
a(L3380165558L
L3785322319L
(lp1861
(lp1862
Vesp_log_early_timestamp
p1863
atp1864
a(L93674324L
L0L
(lp1865
(lp1866
tp1867
a(L3422553167L
L0L
(lp1868
(lp1869
tp1870
a(L1707909459L
L0L
(lp1871
(lp1872
tp1873
a(L4101522284L
L0L
(lp1874
(lp1875
tp1876
a(L3238264318L
L3785322319L
(lp1877
(lp1878
Vbootloader_enable_wp
p1879
atp1880
a(L3907331784L
L0L
(lp1881
(lp1882
tp1883
atp1884
sI1074235772
(Vbootloader_flash_gpio_config
p1885
(lp1886
(L3362256192L
L3785322319L
(lp1887
(lp1888
Vbootloader_common_get_chip_ver_pkg
p1889
atp1890
a(L106L
L0L
(lp1891
(lp1892
tp1893
a(L1998579353L
L0L
(lp1894
(lp1895
tp1896
a(L106L
L0L
(lp1897
(lp1898
tp1899
a(L2501381032L
L0L
(lp1900
(lp1901
tp1902
a(L228595622L
L0L
(lp1903
(lp1904
tp1905
a(L106L
L0L
(lp1906
(lp1907
tp1908
a(L4003626558L
L0L
(lp1909
(lp1910
tp1911
a(L2967330379L
L0L
(lp1912
(lp1913
tp1914
a(L3360570486L
L0L
(lp1915
(lp1916
tp1917
atp1918
sI1074244988
(Vrtc_clk_8m_enabled
p1919
(lp1920
(L1545899633L
L0L
(lp1921
(lp1922
tp1923
atp1924
sI1074238072
(Vbootloader_random_disable
p1925
(lp1926
(L1384470766L
L0L
(lp1927
(lp1928
tp1929
atp1930
sI1074240632
(Vbootloader_ana_clock_glitch_reset_config
p1931
(lp1932
(L2100504542L
L0L
(lp1933
(lp1934
tp1935
atp1936
sI1074268552
(Vbootloader_clock_configure
p1937
(lp1938
(L2559598596L
L1880226080L
(lp1939
(lp1940
Vesp_rom_uart_tx_wait_idle
p1941
aVefuse_hal_chip_revision
p1942
atp1943
a(L3622990976L
L0L
(lp1944
(lp1945
tp1946
a(L883406775L
L0L
(lp1947
(lp1948
tp1949
a(L106L
L0L
(lp1950
(lp1951
tp1952
a(L3699011961L
L1832448559L
(lp1953
(lp1954
Vrtc_clk_slow_src_get
p1955
aVrtc_clk_fast_src_get
p1956
aVrtc_clk_init
p1957
atp1958
a(L2668487100L
L0L
(lp1959
(lp1960
tp1961
a(L1574289135L
L3785322319L
(lp1962
(lp1963
Vrtc_clk_apb_freq_get
p1964
atp1965
a(L106L
L0L
(lp1966
(lp1967
tp1968
a(L106L
L0L
(lp1969
(lp1970
tp1971
atp1972
sI1074242948
(Vbootloader_load_image
p1973
(lp1974
(L1155870502L
L3785322319L
(lp1975
(lp1976
Vimage_load
p1977
atp1978
atp1979
sI1074237828
(Vbootloader_flash_write
p1980
(lp1981
(L3770380603L
L0L
(lp1982
(lp1983
tp1984
a(L3141665407L
L3785322319L
(lp1985
(lp1986
Vesp_log_early_timestamp
p1987
atp1988
a(L3405617019L
L0L
(lp1989
(lp1990
tp1991
a(L1610445075L
L0L
(lp1992
(lp1993
tp1994
a(L735741265L
L0L
(lp1995
(lp1996
tp1997
a(L3291333414L
L0L
(lp1998
(lp1999
tp2000
a(L1474342789L
L3785322319L
(lp2001
(lp2002
Vesp_log_early_timestamp
p2003
atp2004
a(L3283691850L
L0L
(lp2005
(lp2006
tp2007
a(L2144126284L
L3785322319L
(lp2008
(lp2009
Vesp_log_early_timestamp
p2010
atp2011
a(L3212356251L
L3785322319L
(lp2012
(lp2013
Vbootloader_flash_unlock
p2014
atp2015
a(L1799218633L
L0L
(lp2016
(lp2017
tp2018
a(L94425498L
L3785322319L
(lp2019
(lp2020
Vesp_rom_spiflash_write_encrypted
p2021
atp2022
a(L2927190544L
L3785322319L
(lp2023
(lp2024
Vspi_to_esp_err
p2025
atp2026
a(L2927190544L
L3785322319L
(lp2027
(lp2028
Vesp_rom_spiflash_write
p2029
atp2030
atp2031
sI1074244740
(Vrtc_clk_bbpll_disable
p2032
(lp2033
(L1400940843L
L0L
(lp2034
(lp2035
tp2036
a(L2472207241L
L0L
(lp2037
(lp2038
tp2039
a(L3360570486L
L0L
(lp2040
(lp2041
tp2042
atp2043
sI1074240640
(Vprocess_checksum
p2044
(lp2045
(L3912175042L
L0L
(lp2046
(lp2047
tp2048
a(L3028481L
L0L
(lp2049
(lp2050
tp2051
a(L186886970L
L0L
(lp2052
(lp2053
tp2054
a(L2902417580L
L0L
(lp2055
(lp2056
tp2057
a(L3028481L
L0L
(lp2058
(lp2059
tp2060
a(L591035070L
L3785322319L
(lp2061
(lp2062
Vesp_log_early_timestamp
p2063
atp2064
a(L3620582131L
L0L
(lp2065
(lp2066
tp2067
a(L3236648107L
L3785322319L
(lp2068
(lp2069
Vbootloader_flash_read
p2070
atp2071
a(L735741265L
L0L
(lp2072
(lp2073
tp2074
a(L3020204L
L0L
(lp2075
(lp2076
tp2077
a(L2480703612L
L3785322319L
(lp2078
(lp2079
Vbootloader_sha256_data
p2080
atp2081
a(L3436105237L
L0L
(lp2082
(lp2083
tp2084
a(L106L
L0L
(lp2085
(lp2086
tp2087
atp2088
sI1074236800
(Vesp_log_early_timestamp
p2089
(lp2090
(L3746684919L
L0L
(lp2091
(lp2092
tp2093
atp2094
sI1074268032
(Vbootloader_init
p2095
(lp2096
(L4146787564L
L3785322319L
(lp2097
(lp2098
Vbootloader_init_mem
p2099
atp2100
a(L2400269246L
L3785322319L
(lp2101
(lp2102
V__assert_func
p2103
atp2104
a(L3267416370L
L0L
(lp2105
(lp2106
tp2107
a(L3813776748L
L0L
(lp2108
(lp2109
tp2110
a(L3021749L
L0L
(lp2111
(lp2112
tp2113
a(L4055793689L
L1832448559L
(lp2114
(lp2115
Vbootloader_clear_bss_section
p2116
aVbootloader_common_vddsdio_configure
p2117
aVbootloader_clock_get_rated_freq_mhz
p2118
atp2119
a(L106L
L0L
(lp2120
(lp2121
tp2122
a(L3931020842L
L1157885199L
(lp2123
(lp2124
Vbootloader_clock_configure
p2125
aVbootloader_console_init
p2126
aVbootloader_print_banner
p2127
aVbootloader_flash_update_id
p2128
aVbootloader_flash_xmc_startup
p2129
atp2130
a(L708883811L
L3785322319L
(lp2131
(lp2132
Vesp_log_early_timestamp
p2133
atp2134
a(L2169198423L
L3785322319L
(lp2135
(lp2136
Vesp_log_early_timestamp
p2137
atp2138
a(L3360570486L
L0L
(lp2139
(lp2140
tp2141
a(L2444883382L
L3785322319L
(lp2142
(lp2143
Vbootloader_read_bootloader_header
p2144
atp2145
a(L2444883382L
L3785322319L
(lp2146
(lp2147
Vbootloader_check_bootloader_validity
p2148
atp2149
a(L2444883382L
L3785322319L
(lp2150
(lp2151
Vbootloader_init_spi_flash
p2152
atp2153
a(L3638850911L
L0L
(lp2154
(lp2155
tp2156
a(L254817508L
L0L
(lp2157
(lp2158
tp2159
a(L93892250L
L0L
(lp2160
(lp2161
tp2162
a(L2915015718L
L0L
(lp2163
(lp2164
tp2165
a(L2025930503L
L1880226080L
(lp2166
(lp2167
Vbootloader_config_wdt
p2168
aVbootloader_enable_random
p2169
atp2170
a(L1895147938L
L0L
(lp2171
(lp2172
tp2173
a(L2680457259L
L0L
(lp2174
(lp2175
tp2176
a(L3027019L
L0L
(lp2177
(lp2178
tp2179
a(L97315L
L0L
(lp2180
(lp2181
tp2182
a(L2374206106L
L3785322319L
(lp2183
(lp2184
Vesp_log_early_timestamp
p2185
atp2186
a(L545117447L
L3785322319L
(lp2187
(lp2188
Vesp_log_early_timestamp
p2189
atp2190
a(L3164960223L
L0L
(lp2191
(lp2192
tp2193
a(L1895147938L
L0L
(lp2194
(lp2195
tp2196
a(L156585483L
L1880226080L
(lp2197
(lp2198
Vwdt_reset_info_dump
p2199
aVwdt_reset_info_dump
p2200
atp2201
atp2202
sI1074238600
(Vtry_load_partition
p2203
(lp2204
(L1263750142L
L0L
(lp2205
(lp2206
tp2207
a(L2258688482L
L0L
(lp2208
(lp2209
tp2210
a(L3360570486L
L0L
(lp2211
(lp2212
tp2213
a(L530241438L
L3785322319L
(lp2214
(lp2215
Vbootloader_load_image
p2216
atp2217
a(L2442931754L
L3785322319L
(lp2218
(lp2219
Vesp_log_early_timestamp
p2220
atp2221
atp2222
sI1074269848
(Vbootloader_enable_random
p2223
(lp2224
(L1856463551L
L1880226080L
(lp2225
(lp2226
Vesp_log_early_timestamp
p2227
aVbootloader_random_enable
p2228
atp2229
atp2230
sI1074242964
(Vesp_partition_table_verify
p2231
(lp2232
(L2098594279L
L0L
(lp2233
(lp2234
tp2235
a(L1859517624L
L0L
(lp2236
(lp2237
tp2238
a(L1184829782L
L0L
(lp2239
(lp2240
tp2241
a(L3020204L
L0L
(lp2242
(lp2243
tp2244
a(L1569570279L
L3785322319L
(lp2245
(lp2246
Vesp_log_early_timestamp
p2247
atp2248
a(L1235012963L
L0L
(lp2249
(lp2250
tp2251
a(L3190337587L
L0L
(lp2252
(lp2253
tp2254
a(L2069928857L
L0L
(lp2255
(lp2256
tp2257
a(L2902417580L
L0L
(lp2258
(lp2259
tp2260
a(L3623577868L
L3785322319L
(lp2261
(lp2262
Vesp_log_early_timestamp
p2263
atp2264
a(L403005402L
L0L
(lp2265
(lp2266
tp2267
a(L3020204L
L0L
(lp2268
(lp2269
tp2270
a(L3020204L
L0L
(lp2271
(lp2272
tp2273
a(L948173610L
L3785322319L
(lp2274
(lp2275
Vesp_log_early_timestamp
p2276
atp2277
a(L3405617019L
L0L
(lp2278
(lp2279
tp2280
a(L1235012932L
L0L
(lp2281
(lp2282
tp2283
a(L3237549791L
L0L
(lp2284
(lp2285
tp2286
a(L3020204L
L0L
(lp2287
(lp2288
tp2289
a(L3623577620L
L3785322319L
(lp2290
(lp2291
Vesp_log_early_timestamp
p2292
atp2293
a(L1305407469L
L0L
(lp2294
(lp2295
tp2296
a(L1167861556L
L0L
(lp2297
(lp2298
tp2299
a(L818997085L
L0L
(lp2300
(lp2301
tp2302
a(L3360570486L
L0L
(lp2303
(lp2304
tp2305
a(L3020204L
L0L
(lp2306
(lp2307
tp2308
a(L1750737552L
L3785322319L
(lp2309
(lp2310
Vesp_log_early_timestamp
p2311
atp2312
atp2313
sI1074245012
(Vrtc_clk_8md256_enabled
p2314
(lp2315
(L701427762L
L0L
(lp2316
(lp2317
tp2318
atp2319
sI1074247828
(Vesp_rom_spiflash_write_encrypted
p2320
(lp2321
(L1944247967L
L0L
(lp2322
(lp2323
tp2324
a(L2915781010L
L0L
(lp2325
(lp2326
tp2327
a(L97689L
L0L
(lp2328
(lp2329
tp2330
a(L3061232074L
L0L
(lp2331
(lp2332
tp2333
a(L3831971370L
L0L
(lp2334
(lp2335
tp2336
a(L1309309703L
L3785322319L
(lp2337
(lp2338
Vesp_rom_spiflash_write
p2339
atp2340
a(L3495740438L
L0L
(lp2341
(lp2342
tp2343
a(L735741265L
L0L
(lp2344
(lp2345
tp2346
atp2347
sI1074239632
(Vbootloader_utility_get_selected_boot_partition
p2348
(lp2349
(L2938832293L
L0L
(lp2350
(lp2351
tp2352
a(L760348245L
L0L
(lp2353
(lp2354
tp2355
a(L3539823421L
L3785322319L
(lp2356
(lp2357
Vesp_log_early_timestamp
p2358
atp2359
a(L2265429905L
L0L
(lp2360
(lp2361
tp2362
a(L3360570486L
L0L
(lp2363
(lp2364
tp2365
a(L3118387733L
L3785322319L
(lp2366
(lp2367
Vbootloader_mmap
p2368
atp2369
a(L469960906L
L3785322319L
(lp2370
(lp2371
Vesp_log_early_timestamp
p2372
atp2373
a(L1246129762L
L1880226080L
(lp2374
(lp2375
Vbootloader_munmap
p2376
aVbootloader_common_ota_select_invalid
p2377
atp2378
a(L2911028409L
L0L
(lp2379
(lp2380
tp2381
a(L726754926L
L3785322319L
(lp2382
(lp2383
Vbootloader_common_get_active_otadata
p2384
atp2385
a(L106L
L0L
(lp2386
(lp2387
tp2388
a(L4179097382L
L0L
(lp2389
(lp2390
tp2391
a(L788494392L
L3785322319L
(lp2392
(lp2393
Vbootloader_common_ota_select_invalid
p2394
atp2395
a(L2511257916L
L0L
(lp2396
(lp2397
tp2398
a(L1019317811L
L3785322319L
(lp2399
(lp2400
Vesp_log_early_timestamp
p2401
atp2402
a(L3405617019L
L0L
(lp2403
(lp2404
tp2405
a(L1641201884L
L0L
(lp2406
(lp2407
tp2408
a(L2956398375L
L3785322319L
(lp2409
(lp2410
Vesp_log_early_timestamp
p2411
atp2412
a(L2302032704L
L0L
(lp2413
(lp2414
tp2415
a(L1173788779L
L3785322319L
(lp2416
(lp2417
Vbootloader_common_ota_select_crc
p2418
atp2419
a(L4188515782L
L0L
(lp2420
(lp2421
tp2422
a(L1324800084L
L3785322319L
(lp2423
(lp2424
Vbootloader_common_ota_select_crc
p2425
atp2426
a(L1299866312L
L0L
(lp2427
(lp2428
tp2429
a(L1123633441L
L0L
(lp2430
(lp2431
tp2432
a(L2799280422L
L3785322319L
(lp2433
(lp2434
Vesp_log_early_timestamp
p2435
atp2436
a(L692117050L
L3785322319L
(lp2437
(lp2438
Vesp_log_early_timestamp
p2439
atp2440
atp2441
sI1074269584
(Vbootloader_clear_bss_section
p2442
(lp2443
(L1035474915L
L0L
(lp2444
(lp2445
tp2446
atp2447
sI1074270868
(Vmpu_hal_set_region_access
p2448
(lp2449
(L3538356822L
L0L
(lp2450
(lp2451
tp2452
a(L93674324L
L0L
(lp2453
(lp2454
tp2455
a(L2910371777L
L0L
(lp2456
(lp2457
tp2458
a(L3472092938L
L0L
(lp2459
(lp2460
tp2461
a(L3020187L
L0L
(lp2462
(lp2463
tp2464
a(L3360570486L
L0L
(lp2465
(lp2466
tp2467
a(L2258718273L
L0L
(lp2468
(lp2469
tp2470
a(L3446648619L
L0L
(lp2471
(lp2472
tp2473
a(L3739532189L
L0L
(lp2474
(lp2475
tp2476
a(L1300789895L
L0L
(lp2477
(lp2478
tp2479
atp2480
sI1074236568
(Vefuse_hal_chip_revision
p2481
(lp2482
(L2719302832L
L1880226080L
(lp2483
(lp2484
Vefuse_hal_get_major_chip_version
p2485
aVefuse_hal_get_minor_chip_version
p2486
atp2487
atp2488
sI1074245272
(Vrtc_clk_fast_src_get
p2489
(lp2490
(L3809282993L
L0L
(lp2491
(lp2492
tp2493
atp2494
sI1074269608
(Vbootloader_read_bootloader_header
p2495
(lp2496
(L3615137935L
L3785322319L
(lp2497
(lp2498
Vbootloader_flash_read
p2499
atp2500
a(L1895101362L
L3785322319L
(lp2501
(lp2502
Vesp_log_early_timestamp
p2503
atp2504
a(L735741265L
L0L
(lp2505
(lp2506
tp2507
atp2508
sI1074244260
(Vwdt_hal_write_protect_enable
p2509
(lp2510
(L387778158L
L0L
(lp2511
(lp2512
tp2513
a(L4195472003L
L0L
(lp2514
(lp2515
tp2516
a(L3360570486L
L0L
(lp2517
(lp2518
tp2519
a(L802523425L
L0L
(lp2520
(lp2521
tp2522
atp2523
sI1074243232
(Vwdt_hal_init
p2524
(lp2525
(L1374091546L
L0L
(lp2526
(lp2527
tp2528
a(L106L
L0L
(lp2529
(lp2530
tp2531
a(L2104868240L
L0L
(lp2532
(lp2533
tp2534
a(L3076988543L
L0L
(lp2535
(lp2536
tp2537
a(L58053793L
L0L
(lp2538
(lp2539
tp2540
a(L3028464L
L0L
(lp2541
(lp2542
tp2543
a(L826407439L
L0L
(lp2544
(lp2545
tp2546
a(L172437961L
L0L
(lp2547
(lp2548
tp2549
a(L920085371L
L0L
(lp2550
(lp2551
tp2552
a(L3360570486L
L0L
(lp2553
(lp2554
tp2555
atp2556
sI1074242464
(Vimage_load
p2557
(lp2558
(L3048705773L
L0L
(lp2559
(lp2560
tp2561
a(L3463713141L
L0L
(lp2562
(lp2563
tp2564
a(L3309803581L
L0L
(lp2565
(lp2566
tp2567
a(L256049682L
L0L
(lp2568
(lp2569
tp2570
a(L1935188817L
L0L
(lp2571
(lp2572
tp2573
a(L3028481L
L0L
(lp2574
(lp2575
tp2576
a(L3021749L
L0L
(lp2577
(lp2578
tp2579
a(L106L
L0L
(lp2580
(lp2581
tp2582
a(L585264737L
L0L
(lp2583
(lp2584
tp2585
a(L1145291904L
L3785322319L
(lp2586
(lp2587
Vprocess_image_header
p2588
atp2589
a(L823859500L
L0L
(lp2590
(lp2591
tp2592
a(L3061291474L
L0L
(lp2593
(lp2594
tp2595
a(L4106474008L
L3785322319L
(lp2596
(lp2597
Vprocess_segments
p2598
atp2599
a(L3868840998L
L0L
(lp2600
(lp2601
tp2602
a(L2462932903L
L0L
(lp2603
(lp2604
tp2605
a(L1827898452L
L3785322319L
(lp2606
(lp2607
Vprocess_checksum
p2608
atp2609
a(L2214715179L
L3785322319L
(lp2610
(lp2611
Vprocess_appended_hash_and_sig
p2612
atp2613
a(L3028481L
L0L
(lp2614
(lp2615
tp2616
a(L2902417580L
L0L
(lp2617
(lp2618
tp2619
a(L3285560995L
L3785322319L
(lp2620
(lp2621
Vbootloader_sha256_finish
p2622
atp2623
a(L3946560000L
L0L
(lp2624
(lp2625
tp2626
a(L93674324L
L0L
(lp2627
(lp2628
tp2629
a(L218440614L
L0L
(lp2630
(lp2631
tp2632
a(L772115669L
L0L
(lp2633
(lp2634
tp2635
a(L1179424413L
L0L
(lp2636
(lp2637
tp2638
a(L3928150917L
L0L
(lp2639
(lp2640
tp2641
a(L106L
L0L
(lp2642
(lp2643
tp2644
a(L3871473710L
L0L
(lp2645
(lp2646
tp2647
a(L3884726427L
L0L
(lp2648
(lp2649
tp2650
a(L106L
L0L
(lp2651
(lp2652
tp2653
a(L3020187L
L0L
(lp2654
(lp2655
tp2656
a(L3209502773L
L3785322319L
(lp2657
(lp2658
Vesp_log_early_timestamp
p2659
atp2660
a(L2868044067L
L0L
(lp2661
(lp2662
tp2663
a(L1179764900L
L0L
(lp2664
(lp2665
tp2666
a(L2332746046L
L3785322319L
(lp2667
(lp2668
Vbootloader_sha256_finish
p2669
atp2670
a(L2671017698L
L0L
(lp2671
(lp2672
tp2673
a(L3020204L
L0L
(lp2674
(lp2675
tp2676
a(L1090351773L
L0L
(lp2677
(lp2678
tp2679
a(L106L
L0L
(lp2680
(lp2681
tp2682
a(L161342551L
L1880226080L
(lp2683
(lp2684
Vbootloader_sha256_finish
p2685
aVbootloader_debug_buffer
p2686
atp2687
a(L2011487920L
L1880226080L
(lp2688
(lp2689
Vesp_log_early_timestamp
p2690
aVbootloader_debug_buffer
p2691
atp2692
a(L3741653406L
L3785322319L
(lp2693
(lp2694
Vshould_load
p2695
atp2696
a(L2764257181L
L0L
(lp2697
(lp2698
tp2699
a(L3338774213L
L0L
(lp2700
(lp2701
tp2702
a(L3464541874L
L0L
(lp2703
(lp2704
tp2705
a(L3349572949L
L0L
(lp2706
(lp2707
tp2708
a(L2192292519L
L0L
(lp2709
(lp2710
tp2711
a(L106L
L0L
(lp2712
(lp2713
tp2714
a(L26615924L
L0L
(lp2715
(lp2716
tp2717
a(L1299866312L
L0L
(lp2718
(lp2719
tp2720
a(L3010020263L
L0L
(lp2721
(lp2722
tp2723
atp2724
sI1074236832
(Vbootloader_common_ota_select_crc
p2725
(lp2726
(L1722842528L
L0L
(lp2727
(lp2728
tp2729
atp2730
sI1074267808
(Vwdt_reset_info_dump
p2731
(lp2732
(L4037458708L
L0L
(lp2733
(lp2734
tp2735
a(L522353410L
L0L
(lp2736
(lp2737
tp2738
a(L217258670L
L0L
(lp2739
(lp2740
tp2741
a(L1103285333L
L0L
(lp2742
(lp2743
tp2744
a(L4222762845L
L3785322319L
(lp2745
(lp2746
Vesp_log_early_timestamp
p2747
atp2748
a(L2967992533L
L0L
(lp2749
(lp2750
tp2751
a(L1493818067L
L0L
(lp2752
(lp2753
tp2754
a(L4025433257L
L3785322319L
(lp2755
(lp2756
Vesp_log_early_timestamp
p2757
atp2758
atp2759
sI1074245036
(Vrtc_clk_slow_src_set
p2760
(lp2761
(L4286871946L
L0L
(lp2762
(lp2763
tp2764
a(L3020187L
L0L
(lp2765
(lp2766
tp2767
a(L3028481L
L0L
(lp2768
(lp2769
tp2770
a(L487821223L
L0L
(lp2771
(lp2772
tp2773
a(L3613562664L
L0L
(lp2774
(lp2775
tp2776
a(L1851908495L
L0L
(lp2777
(lp2778
tp2779
a(L3234953555L
L0L
(lp2780
(lp2781
tp2782
a(L3138544334L
L0L
(lp2783
(lp2784
tp2785
a(L94425498L
L3785322319L
(lp2786
(lp2787
Vabort
p2788
atp2789
atp2790
sI1074239148
(Vset_actual_ota_seq
p2791
(lp2792
(L4094723830L
L0L
(lp2793
(lp2794
tp2795
a(L766408818L
L0L
(lp2796
(lp2797
tp2798
a(L3072878217L
L1832448559L
(lp2799
(lp2800
Vbootloader_common_ota_select_crc
p2801
aVesp_flash_encryption_enabled
p2802
aVbootloader_flash_erase_sector
p2803
atp2804
a(L2768623893L
L3785322319L
(lp2805
(lp2806
Vbootloader_flash_write
p2807
atp2808
a(L1335691585L
L3785322319L
(lp2809
(lp2810
Vesp_log_early_timestamp
p2811
atp2812
a(L26878489L
L3785322319L
(lp2813
(lp2814
Vesp_log_early_timestamp
p2815
atp2816
a(L3360570486L
L0L
(lp2817
(lp2818
tp2819
atp2820
sI1074240424
(Vbootloader_sha256_finish
p2821
(lp2822
(L4066096136L
L0L
(lp2823
(lp2824
tp2825
a(L345118590L
L3785322319L
(lp2826
(lp2827
V__assert_func
p2828
atp2829
a(L3020204L
L0L
(lp2830
(lp2831
tp2832
a(L168705781L
L0L
(lp2833
(lp2834
tp2835
a(L2534656226L
L0L
(lp2836
(lp2837
tp2838
a(L1306786885L
L3785322319L
(lp2839
(lp2840
Vbootloader_sha256_data
p2841
atp2842
a(L3614704369L
L3785322319L
(lp2843
(lp2844
Vbootloader_sha256_data
p2845
atp2846
a(L702738053L
L0L
(lp2847
(lp2848
tp2849
a(L1073745055L
L0L
(lp2850
(lp2851
tp2852
a(L3025646294L
L0L
(lp2853
(lp2854
tp2855
a(L1073745055L
L0L
(lp2856
(lp2857
tp2858
a(L633324431L
L0L
(lp2859
(lp2860
tp2861
a(L1609058778L
L0L
(lp2862
(lp2863
tp2864
a(L3347778L
L0L
(lp2865
(lp2866
tp2867
a(L3360570486L
L0L
(lp2868
(lp2869
tp2870
atp2871
sI1074245288
(Vrtc_clk_xtal_freq_get
p2872
(lp2873
(L1958541723L
L0L
(lp2874
(lp2875
tp2876
a(L2847936993L
L0L
(lp2877
(lp2878
tp2879
a(L2262744573L
L0L
(lp2880
(lp2881
tp2882
a(L3360570486L
L0L
(lp2883
(lp2884
tp2885
atp2886
sI1074247336
(Vesp_rom_spiflash_program_page_internal
p2887
(lp2888
(L2569069283L
L0L
(lp2889
(lp2890
tp2891
a(L2258688483L
L0L
(lp2892
(lp2893
tp2894
a(L3360570486L
L0L
(lp2895
(lp2896
tp2897
a(L544721843L
L0L
(lp2898
(lp2899
tp2900
a(L4235661475L
L3785322319L
(lp2901
(lp2902
Vesp_rom_spiflash_wait_idle
p2903
atp2904
a(L1299866312L
L0L
(lp2905
(lp2906
tp2907
a(L3212356251L
L3785322319L
(lp2908
(lp2909
Vesp_rom_spiflash_enable_write
p2910
atp2911
a(L1814121011L
L0L
(lp2912
(lp2913
tp2914
a(L2456573518L
L0L
(lp2915
(lp2916
tp2917
a(L2953702749L
L0L
(lp2918
(lp2919
tp2920
a(L2989032L
L0L
(lp2921
(lp2922
tp2923
a(L1965622133L
L0L
(lp2924
(lp2925
tp2926
a(L804475105L
L0L
(lp2927
(lp2928
tp2929
a(L1958113242L
L0L
(lp2930
(lp2931
tp2932
a(L106L
L0L
(lp2933
(lp2934
tp2935
a(L3112950080L
L0L
(lp2936
(lp2937
tp2938
a(L1868606439L
L0L
(lp2939
(lp2940
tp2941
a(L1008982509L
L0L
(lp2942
(lp2943
tp2944
a(L1933954923L
L0L
(lp2945
(lp2946
tp2947
a(L1147866918L
L0L
(lp2948
(lp2949
tp2950
a(L3871602522L
L0L
(lp2951
(lp2952
tp2953
atp2954
sI1074236852
(Vbootloader_common_ota_select_valid
p2955
(lp2956
(L1563399710L
L3785322319L
(lp2957
(lp2958
Vbootloader_common_ota_select_invalid
p2959
atp2960
a(L3814720849L
L3785322319L
(lp2961
(lp2962
Vbootloader_common_ota_select_crc
p2963
atp2964
a(L3360570486L
L0L
(lp2965
(lp2966
tp2967
atp2968
sI1074238388
(Vbootloader_clock_get_rated_freq_mhz
p2969
(lp2970
(L376617603L
L3785322319L
(lp2971
(lp2972
Vefuse_hal_get_rated_freq_mhz
p2973
atp2974
atp2975
sI1074236592
(Vefuse_hal_flash_encryption_enabled
p2976
(lp2977
(L2932383536L
L0L
(lp2978
(lp2979
tp2980
a(L2910371777L
L0L
(lp2981
(lp2982
tp2983
a(L3360570486L
L0L
(lp2984
(lp2985
tp2986
a(L3016870L
L0L
(lp2987
(lp2988
tp2989
a(L3745038218L
L0L
(lp2990
(lp2991
tp2992
a(L957607403L
L0L
(lp2993
(lp2994
tp2995
atp2996
sI1074241724
(Vprocess_segments
p2997
(lp2998
(L1326203493L
L0L
(lp2999
(lp3000
tp3001
a(L1640778736L
L0L
(lp3002
(lp3003
tp3004
a(L3782401745L
L0L
(lp3005
(lp3006
tp3007
a(L106L
L0L
(lp3008
(lp3009
tp3010
a(L3028481L
L0L
(lp3011
(lp3012
tp3013
a(L1013762446L
L3785322319L
(lp3014
(lp3015
Vesp_log_early_timestamp
p3016
atp3017
a(L761135359L
L3785322319L
(lp3018
(lp3019
Vbootloader_flash_read
p3020
atp3021
a(L2391599792L
L3785322319L
(lp3022
(lp3023
Vesp_log_early_timestamp
p3024
atp3025
a(L3871473710L
L0L
(lp3026
(lp3027
tp3028
a(L219417435L
L0L
(lp3029
(lp3030
tp3031
a(L616767314L
L3785322319L
(lp3032
(lp3033
Vbootloader_sha256_data
p3034
atp3035
a(L356262361L
L0L
(lp3036
(lp3037
tp3038
a(L2258837437L
L0L
(lp3039
(lp3040
tp3041
a(L1764156528L
L0L
(lp3042
(lp3043
tp3044
a(L3028481L
L0L
(lp3045
(lp3046
tp3047
a(L2309044393L
L3785322319L
(lp3048
(lp3049
Vesp_log_early_timestamp
p3050
atp3051
a(L568212210L
L0L
(lp3052
(lp3053
tp3054
a(L1610713606L
L0L
(lp3055
(lp3056
tp3057
a(L3802069243L
L0L
(lp3058
(lp3059
tp3060
a(L3406913627L
L0L
(lp3061
(lp3062
tp3063
a(L2258867228L
L0L
(lp3064
(lp3065
tp3066
a(L2277415887L
L0L
(lp3067
(lp3068
tp3069
a(L3177376558L
L0L
(lp3070
(lp3071
tp3072
a(L3028481L
L0L
(lp3073
(lp3074
tp3075
a(L3680301995L
L3785322319L
(lp3076
(lp3077
Vesp_log_early_timestamp
p3078
atp3079
a(L2640606608L
L0L
(lp3080
(lp3081
tp3082
a(L3028481L
L0L
(lp3083
(lp3084
tp3085
a(L1304081646L
L3785322319L
(lp3086
(lp3087
Vesp_log_early_timestamp
p3088
atp3089
a(L1729677366L
L0L
(lp3090
(lp3091
tp3092
a(L2902417580L
L0L
(lp3093
(lp3094
tp3095
a(L2902417580L
L0L
(lp3096
(lp3097
tp3098
a(L1229952296L
L3785322319L
(lp3099
(lp3100
Vverify_load_addresses
p3101
atp3102
a(L3783935185L
L3785322319L
(lp3103
(lp3104
Vbootloader_mmap_get_free_pages
p3105
atp3106
a(L3028481L
L0L
(lp3107
(lp3108
tp3109
a(L224879076L
L0L
(lp3110
(lp3111
tp3112
a(L142590671L
L0L
(lp3113
(lp3114
tp3115
a(L3028481L
L0L
(lp3116
(lp3117
tp3118
a(L94425498L
L3785322319L
(lp3119
(lp3120
Vesp_log_early_timestamp
p3121
atp3122
a(L1579391488L
L0L
(lp3123
(lp3124
tp3125
a(L4085121624L
L3785322319L
(lp3126
(lp3127
Vshould_load
p3128
atp3129
a(L3028481L
L0L
(lp3130
(lp3131
tp3132
a(L3599279002L
L3785322319L
(lp3133
(lp3134
Vesp_log_early_timestamp
p3135
atp3136
a(L106L
L0L
(lp3137
(lp3138
tp3139
a(L3815630522L
L0L
(lp3140
(lp3141
tp3142
a(L1373543034L
L3785322319L
(lp3143
(lp3144
Vesp_log_early_timestamp
p3145
atp3146
a(L2629678223L
L0L
(lp3147
(lp3148
tp3149
a(L2684012095L
L0L
(lp3150
(lp3151
tp3152
a(L3357777304L
L3785322319L
(lp3153
(lp3154
Vbootloader_mmap
p3155
atp3156
a(L3593784569L
L3785322319L
(lp3157
(lp3158
Vesp_log_early_timestamp
p3159
atp3160
a(L1698460186L
L0L
(lp3161
(lp3162
tp3163
a(L1405061996L
L0L
(lp3164
(lp3165
tp3166
a(L3258701453L
L0L
(lp3167
(lp3168
tp3169
a(L1595421496L
L3785322319L
(lp3170
(lp3171
Vbootloader_munmap
p3172
atp3173
a(L2757579158L
L0L
(lp3174
(lp3175
tp3176
a(L2356270618L
L3785322319L
(lp3177
(lp3178
Vbootloader_fill_random
p3179
atp3180
a(L3277879431L
L0L
(lp3181
(lp3182
tp3183
a(L3281573515L
L0L
(lp3184
(lp3185
tp3186
a(L3450268858L
L0L
(lp3187
(lp3188
tp3189
a(L3021749L
L0L
(lp3190
(lp3191
tp3192
a(L322434465L
L0L
(lp3193
(lp3194
tp3195
a(L2494883302L
L0L
(lp3196
(lp3197
tp3198
a(L2902417580L
L0L
(lp3199
(lp3200
tp3201
a(L1074334929L
L0L
(lp3202
(lp3203
tp3204
a(L22854698L
L0L
(lp3205
(lp3206
tp3207
a(L1426980959L
L0L
(lp3208
(lp3209
tp3210
a(L1841482652L
L0L
(lp3211
(lp3212
tp3213
a(L653501462L
L0L
(lp3214
(lp3215
tp3216
a(L3310548426L
L3785322319L
(lp3217
(lp3218
Vbootloader_sha256_data
p3219
atp3220
a(L90548756L
L0L
(lp3221
(lp3222
tp3223
a(L708495868L
L0L
(lp3224
(lp3225
tp3226
a(L2364005371L
L0L
(lp3227
(lp3228
tp3229
atp3230
sI1074239932
(Vbootloader_reset
p3231
(lp3232
(L2439093183L
L3785322319L
(lp3233
(lp3234
Vbootloader_console_deinit
p3235
atp3236
a(L106L
L0L
(lp3237
(lp3238
tp3239
atp3240
sI1074269876
(Vbootloader_print_banner
p3241
(lp3242
(L2775670725L
L1832448559L
(lp3243
(lp3244
Vesp_log_early_timestamp
p3245
aVesp_log_early_timestamp
p3246
aVesp_log_early_timestamp
p3247
atp3248
atp3249
sI1074270644
(Vrtc_vddsdio_get_config
p3250
(lp3251
(L4035437090L
L0L
(lp3252
(lp3253
tp3254
a(L1750635626L
L0L
(lp3255
(lp3256
tp3257
a(L3193418487L
L0L
(lp3258
(lp3259
tp3260
a(L3890725296L
L0L
(lp3261
(lp3262
tp3263
a(L115635292L
L0L
(lp3264
(lp3265
tp3266
a(L896053863L
L0L
(lp3267
(lp3268
tp3269
a(L1306330959L
L0L
(lp3270
(lp3271
tp3272
a(L1539502327L
L0L
(lp3273
(lp3274
tp3275
atp3276
sI1074238648
(Vcache_ll_l1_enable_bus
p3277
(lp3278
(L3088700875L
L0L
(lp3279
(lp3280
tp3281
atp3282
sI1074245560
(Vrtc_clk_xtal_freq_update
p3283
(lp3284
(L2840783994L
L0L
(lp3285
(lp3286
tp3287
a(L3509357017L
L0L
(lp3288
(lp3289
tp3290
a(L2266180931L
L0L
(lp3291
(lp3292
tp3293
atp3294
sI1074240196
(Vindex_to_partition
p3295
(lp3296
(L4066096119L
L0L
(lp3297
(lp3298
tp3299
a(L1101255660L
L0L
(lp3300
(lp3301
tp3302
a(L1955702725L
L0L
(lp3303
(lp3304
tp3305
a(L3698927993L
L0L
(lp3306
(lp3307
tp3308
a(L2808906342L
L0L
(lp3309
(lp3310
tp3311
a(L4211744375L
L0L
(lp3312
(lp3313
tp3314
a(L3097778015L
L0L
(lp3315
(lp3316
tp3317
a(L1816235430L
L0L
(lp3318
(lp3319
tp3320
a(L2179185678L
L0L
(lp3321
(lp3322
tp3323
a(L3369319173L
L0L
(lp3324
(lp3325
tp3326
atp3327
sI1074238400
(Vlog_invalid_app_partition
p3328
(lp3329
(L2071005384L
L0L
(lp3330
(lp3331
tp3332
a(L3028464L
L0L
(lp3333
(lp3334
tp3335
a(L3524958324L
L3785322319L
(lp3336
(lp3337
Vesp_log_early_timestamp
p3338
atp3339
a(L3405617019L
L0L
(lp3340
(lp3341
tp3342
a(L3360570486L
L0L
(lp3343
(lp3344
tp3345
a(L371232687L
L3785322319L
(lp3346
(lp3347
Vesp_log_early_timestamp
p3348
atp3349
a(L686434403L
L3785322319L
(lp3350
(lp3351
Vesp_log_early_timestamp
p3352
atp3353
atp3354
sI1074237120
(Vbootloader_common_get_active_otadata
p3355
(lp3356
(L3317503532L
L0L
(lp3357
(lp3358
tp3359
a(L2503049265L
L1832448559L
(lp3360
(lp3361
Vbootloader_common_ota_select_valid
p3362
aVbootloader_common_ota_select_valid
p3363
aVbootloader_common_select_otadata
p3364
atp3365
a(L735741265L
L0L
(lp3366
(lp3367
tp3368
atp3369
sI1074244288
(Vwdt_hal_enable
p3370
(lp3371
(L2299130915L
L0L
(lp3372
(lp3373
tp3374
a(L165794138L
L0L
(lp3375
(lp3376
tp3377
a(L3360570486L
L0L
(lp3378
(lp3379
tp3380
a(L2847657174L
L0L
(lp3381
(lp3382
tp3383
atp3384
sI1074244800
(Vrtc_clk_32k_enable
p3385
(lp3386
(L753387299L
L0L
(lp3387
(lp3388
tp3389
a(L3776007933L
L3785322319L
(lp3390
(lp3391
Vrtc_clk_32k_enable_common
p3392
atp3393
a(L3496950L
L0L
(lp3394
(lp3395
tp3396
a(L3252477872L
L0L
(lp3397
(lp3398
tp3399
atp3400
sI1074235092
(Vbootloader_execute_flash_command
p3401
(lp3402
(L2481595632L
L3785322319L
(lp3403
(lp3404
Vbootloader_flash_execute_command_common
p3405
atp3406
atp3407
sI1074239956
(Vbootloader_utility_load_boot_image
p3408
(lp3409
(L389607556L
L0L
(lp3410
(lp3411
tp3412
a(L2177418995L
L3785322319L
(lp3413
(lp3414
Vtry_load_partition
p3415
atp3416
a(L1305243774L
L3785322319L
(lp3417
(lp3418
Vload_image
p3419
atp3420
a(L2008924314L
L3785322319L
(lp3421
(lp3422
Vesp_log_early_timestamp
p3423
atp3424
a(L3827921190L
L3785322319L
(lp3425
(lp3426
Vbootloader_reset
p3427
atp3428
a(L1953693036L
L3785322319L
(lp3429
(lp3430
Vindex_to_partition
p3431
atp3432
a(L1204373741L
L3785322319L
(lp3433
(lp3434
Vtry_load_partition
p3435
atp3436
a(L1899865696L
L0L
(lp3437
(lp3438
tp3439
a(L2695355117L
L3785322319L
(lp3440
(lp3441
Vset_actual_ota_seq
p3442
atp3443
a(L1868897605L
L3785322319L
(lp3444
(lp3445
Vlog_invalid_app_partition
p3446
atp3447
a(L831650730L
L0L
(lp3448
(lp3449
tp3450
a(L3021737L
L0L
(lp3451
(lp3452
tp3453
a(L695456438L
L0L
(lp3454
(lp3455
tp3456
a(L1047338747L
L3785322319L
(lp3457
(lp3458
Vtry_load_partition
p3459
atp3460
a(L3158237729L
L3785322319L
(lp3461
(lp3462
Vesp_log_early_timestamp
p3463
atp3464
a(L2347390157L
L3785322319L
(lp3465
(lp3466
Vindex_to_partition
p3467
atp3468
a(L1204373741L
L3785322319L
(lp3469
(lp3470
Vtry_load_partition
p3471
atp3472
a(L3061261803L
L0L
(lp3473
(lp3474
tp3475
a(L3582858798L
L3785322319L
(lp3476
(lp3477
Vlog_invalid_app_partition
p3478
atp3479
a(L2431301870L
L3785322319L
(lp3480
(lp3481
Vesp_log_early_timestamp
p3482
atp3483
atp3484
sI1074245328
(Vrtc_clk_cpu_freq_mhz_to_config
p3485
(lp3486
(L908718885L
L3785322319L
(lp3487
(lp3488
Vrtc_clk_xtal_freq_get
p3489
atp3490
a(L60460069L
L0L
(lp3491
(lp3492
tp3493
a(L3802072124L
L0L
(lp3494
(lp3495
tp3496
a(L3159006042L
L0L
(lp3497
(lp3498
tp3499
a(L3360570486L
L0L
(lp3500
(lp3501
tp3502
a(L895147205L
L0L
(lp3503
(lp3504
tp3505
a(L3970036657L
L0L
(lp3506
(lp3507
tp3508
a(L2731353429L
L0L
(lp3509
(lp3510
tp3511
a(L1555485793L
L0L
(lp3512
(lp3513
tp3514
a(L2258897023L
L0L
(lp3515
(lp3516
tp3517
a(L1947499251L
L0L
(lp3518
(lp3519
tp3520
a(L1306331021L
L0L
(lp3521
(lp3522
tp3523
atp3524
sI1074234588
(Vbootloader_common_get_chip_ver_pkg
p3525
(lp3526
(L994406025L
L0L
(lp3527
(lp3528
tp3529
atp3530
sI1074248668
(V_fini
p3531
(lp3532
(L3493042598L
L0L
(lp3533
(lp3534
tp3535
atp3536
sI1074269652
(Vbootloader_check_bootloader_validity
p3537
(lp3538
(L2279373600L
L1832448559L
(lp3539
(lp3540
Vefuse_hal_chip_revision
p3541
aVesp_log_early_timestamp
p3542
aVbootloader_common_check_chip_validity
p3543
atp3544
atp3545
sI1074236888
(Vbootloader_common_check_chip_validity
p3546
(lp3547
(L2080115690L
L0L
(lp3548
(lp3549
tp3550
a(L973862084L
L3785322319L
(lp3551
(lp3552
Vesp_log_early_timestamp
p3553
atp3554
a(L1299867982L
L0L
(lp3555
(lp3556
tp3557
a(L3360570486L
L0L
(lp3558
(lp3559
tp3560
a(L521940037L
L3785322319L
(lp3561
(lp3562
Vefuse_hal_chip_revision
p3563
atp3564
a(L979601822L
L0L
(lp3565
(lp3566
tp3567
a(L405354417L
L3785322319L
(lp3568
(lp3569
Vesp_log_early_timestamp
p3570
atp3571
a(L3028464L
L0L
(lp3572
(lp3573
tp3574
a(L1797954754L
L0L
(lp3575
(lp3576
tp3577
a(L106L
L0L
(lp3578
(lp3579
tp3580
a(L3027019L
L0L
(lp3581
(lp3582
tp3583
a(L106L
L0L
(lp3584
(lp3585
tp3586
a(L1587399339L
L3785322319L
(lp3587
(lp3588
Vesp_log_early_timestamp
p3589
atp3590
atp3591
sI1074236632
(Vefuse_hal_get_major_chip_version
p3592
(lp3593
(L3640428443L
L0L
(lp3594
(lp3595
tp3596
a(L894792960L
L0L
(lp3597
(lp3598
tp3599
a(L724635033L
L0L
(lp3600
(lp3601
tp3602
a(L3360570486L
L0L
(lp3603
(lp3604
tp3605
atp3606
sI1074236388
(Vesp_rom_set_cpu_ticks_per_us
p3607
(lp3608
(L2389371922L
L0L
(lp3609
(lp3610
tp3611
atp3612
sI1074240996
(Vbootloader_util_regions_overlap
p3613
(lp3614
(L2762640130L
L0L
(lp3615
(lp3616
tp3617
a(L345118590L
L3785322319L
(lp3618
(lp3619
V__assert_func
p3620
atp3621
a(L97472L
L0L
(lp3622
(lp3623
tp3624
a(L366123053L
L0L
(lp3625
(lp3626
tp3627
a(L2258867228L
L0L
(lp3628
(lp3629
tp3630
a(L1253626734L
L0L
(lp3631
(lp3632
tp3633
a(L2258897019L
L0L
(lp3634
(lp3635
tp3636
a(L3109269495L
L0L
(lp3637
(lp3638
tp3639
atp3640
sI1074241508
(Vprocess_appended_hash_and_sig
p3641
(lp3642
(L1668084157L
L0L
(lp3643
(lp3644
tp3645
a(L2910371777L
L0L
(lp3646
(lp3647
tp3648
a(L4285188111L
L0L
(lp3649
(lp3650
tp3651
a(L1151175705L
L0L
(lp3652
(lp3653
tp3654
a(L97689L
L0L
(lp3655
(lp3656
tp3657
a(L775049645L
L3785322319L
(lp3658
(lp3659
Vesp_log_early_timestamp
p3660
atp3661
a(L3620582131L
L0L
(lp3662
(lp3663
tp3664
a(L1464893571L
L3785322319L
(lp3665
(lp3666
Vbootloader_flash_read
p3667
atp3668
a(L735741265L
L0L
(lp3669
(lp3670
tp3671
atp3672
sI1074244580
(Vrtc_clk_cpu_freq_to_pll_mhz
p3673
(lp3674
(L3231135830L
L0L
(lp3675
(lp3676
tp3677
a(L488398266L
L0L
(lp3678
(lp3679
tp3680
a(L3384306167L
L1880226080L
(lp3681
(lp3682
Vesp_rom_set_cpu_ticks_per_us
p3683
aVrtc_clk_wait_for_slow_cycle
p3684
atp3685
a(L4260295357L
L0L
(lp3686
(lp3687
tp3688
a(L3284807114L
L0L
(lp3689
(lp3690
tp3691
a(L94425498L
L3785322319L
(lp3692
(lp3693
Vabort
p3694
atp3695
a(L2258897019L
L0L
(lp3696
(lp3697
tp3698
a(L1113742378L
L0L
(lp3699
(lp3700
tp3701
a(L1306330990L
L0L
(lp3702
(lp3703
tp3704
atp3705
sI1074245604
(Vrtc_clk_apb_freq_update
p3706
(lp3707
(L3529424280L
L0L
(lp3708
(lp3709
tp3710
atp3711
sI1074247136
(Vesp_rom_spiflash_read_status
p3712
(lp3713
(L1706970515L
L0L
(lp3714
(lp3715
tp3716
a(L708839050L
L0L
(lp3717
(lp3718
tp3719
a(L4159619641L
L0L
(lp3720
(lp3721
tp3722
a(L2392720019L
L0L
(lp3723
(lp3724
tp3725
a(L2258688487L
L0L
(lp3726
(lp3727
tp3728
a(L4159619145L
L0L
(lp3729
(lp3730
tp3731
a(L1695806101L
L0L
(lp3732
(lp3733
tp3734
a(L3117156279L
L0L
(lp3735
(lp3736
tp3737
a(L2123059967L
L0L
(lp3738
(lp3739
tp3740
a(L582177370L
L0L
(lp3741
(lp3742
tp3743
atp3744
sI1074238700
(Vcache_ll_l1_enable_bus
p3745
(lp3746
(L2588727111L
L0L
(lp3747
(lp3748
tp3749
atp3750
sI1074247916
(Vesp_rom_spiflash_read
p3751
(lp3752
(L2880198499L
L0L
(lp3753
(lp3754
tp3755
a(L1380468239L
L0L
(lp3756
(lp3757
tp3758
a(L2860271684L
L0L
(lp3759
(lp3760
tp3761
a(L2326899774L
L0L
(lp3762
(lp3763
tp3764
a(L106L
L0L
(lp3765
(lp3766
tp3767
a(L633884026L
L0L
(lp3768
(lp3769
tp3770
a(L106L
L0L
(lp3771
(lp3772
tp3773
a(L895857466L
L0L
(lp3774
(lp3775
tp3776
a(L914646042L
L0L
(lp3777
(lp3778
tp3779
a(L1742525277L
L0L
(lp3780
(lp3781
tp3782
a(L336550648L
L0L
(lp3783
(lp3784
tp3785
a(L710544003L
L0L
(lp3786
(lp3787
tp3788
a(L106L
L0L
(lp3789
(lp3790
tp3791
a(L2191910899L
L3785322319L
(lp3792
(lp3793
Vesp_rom_spiflash_wait_idle
p3794
atp3795
a(L3021737L
L0L
(lp3796
(lp3797
tp3798
a(L106L
L0L
(lp3799
(lp3800
tp3801
a(L1868280504L
L0L
(lp3802
(lp3803
tp3804
a(L106L
L0L
(lp3805
(lp3806
tp3807
a(L750281353L
L0L
(lp3808
(lp3809
tp3810
a(L3897437082L
L0L
(lp3811
(lp3812
tp3813
a(L4122060822L
L0L
(lp3814
(lp3815
tp3816
a(L4206869316L
L0L
(lp3817
(lp3818
tp3819
a(L2989032L
L0L
(lp3820
(lp3821
tp3822
a(L3819849625L
L0L
(lp3823
(lp3824
tp3825
a(L423991740L
L0L
(lp3826
(lp3827
tp3828
a(L1379886361L
L0L
(lp3829
(lp3830
tp3831
a(L3901821998L
L0L
(lp3832
(lp3833
tp3834
a(L2148183239L
L0L
(lp3835
(lp3836
tp3837
a(L2921907736L
L0L
(lp3838
(lp3839
tp3840
a(L4277861882L
L0L
(lp3841
(lp3842
tp3843
a(L778900295L
L0L
(lp3844
(lp3845
tp3846
a(L882838924L
L0L
(lp3847
(lp3848
tp3849
a(L157158236L
L0L
(lp3850
(lp3851
tp3852
a(L3333707777L
L0L
(lp3853
(lp3854
tp3855
a(L3251955268L
L0L
(lp3856
(lp3857
tp3858
a(L3418540920L
L0L
(lp3859
(lp3860
tp3861
a(L2798183837L
L0L
(lp3862
(lp3863
tp3864
a(L97689L
L0L
(lp3865
(lp3866
tp3867
a(L2258897019L
L0L
(lp3868
(lp3869
tp3870
a(L4014024819L
L0L
(lp3871
(lp3872
tp3873
a(L3621567083L
L0L
(lp3874
(lp3875
tp3876
atp3877
sI1074237160
(Vbootloader_common_ota_select_invalid
p3878
(lp3879
(L4027567199L
L0L
(lp3880
(lp3881
tp3882
a(L3397985842L
L0L
(lp3883
(lp3884
tp3885
a(L2258867228L
L0L
(lp3886
(lp3887
tp3888
a(L3785235668L
L0L
(lp3889
(lp3890
tp3891
atp3892
sI1074270200
(Vrtc_clk_init
p3893
(lp3894
(L2142877565L
L0L
(lp3895
(lp3896
tp3897
a(L42671777L
L3785322319L
(lp3898
(lp3899
Vrtc_clk_cpu_freq_to_xtal
p3900
atp3901
a(L744803561L
L3785322319L
(lp3902
(lp3903
Vrtc_clk_xtal_freq_get
p3904
atp3905
a(L3028481L
L0L
(lp3906
(lp3907
tp3908
a(L4284274517L
L3785322319L
(lp3909
(lp3910
Vrtc_clk_xtal_freq_estimate
p3911
atp3912
a(L3940619242L
L3785322319L
(lp3913
(lp3914
Vesp_log_early_timestamp
p3915
atp3916
a(L3873390257L
L1157885199L
(lp3917
(lp3918
Vesp_rom_uart_tx_wait_idle
p3919
aVrtc_clk_xtal_freq_update
p3920
aVrtc_clk_apb_freq_update
p3921
aVrtc_clk_cpu_freq_get_config
p3922
aVrtc_clk_cpu_freq_mhz_to_config
p3923
atp3924
a(L660546363L
L1880226080L
(lp3925
(lp3926
Vesp_log_early_timestamp
p3927
aVabort
p3928
atp3929
a(L2902417580L
L0L
(lp3930
(lp3931
tp3932
a(L1899970065L
L0L
(lp3933
(lp3934
tp3935
a(L377687546L
L3785322319L
(lp3936
(lp3937
Vrtc_clk_xtal_freq_estimate
p3938
atp3939
a(L1692378767L
L3785322319L
(lp3940
(lp3941
Vesp_log_early_timestamp
p3942
atp3943
a(L3044765537L
L3785322319L
(lp3944
(lp3945
Vrtc_clk_cpu_freq_set_config
p3946
atp3947
a(L912310138L
L3785322319L
(lp3948
(lp3949
Vrtc_clk_32k_enable
p3950
atp3951
a(L3191820416L
L1832448559L
(lp3952
(lp3953
Vrtc_clk_8m_enable
p3954
aVrtc_clk_fast_src_set
p3955
aVrtc_clk_slow_src_set
p3956
atp3957
a(L1232958848L
L0L
(lp3958
(lp3959
tp3960
atp3961
sI1074236404
(Vesp_rom_uart_tx_wait_idle
p3962
(lp3963
(L1021306907L
L0L
(lp3964
(lp3965
tp3966
a(L1301079727L
L0L
(lp3967
(lp3968
tp3969
a(L597952197L
L0L
(lp3970
(lp3971
tp3972
a(L1971823332L
L0L
(lp3973
(lp3974
tp3975
a(L3055926844L
L0L
(lp3976
(lp3977
tp3978
a(L3360570486L
L0L
(lp3979
(lp3980
tp3981
a(L3694491048L
L0L
(lp3982
(lp3983
tp3984
a(L106L
L0L
(lp3985
(lp3986
tp3987
atp3988
sI1074235124
(Vbootloader_flash_unlock
p3989
(lp3990
(L2389315647L
L3785322319L
(lp3991
(lp3992
Vesp_rom_spiflash_wait_idle
p3993
atp3994
a(L711923870L
L0L
(lp3995
(lp3996
tp3997
a(L3507311156L
L3785322319L
(lp3998
(lp3999
Vbootloader_execute_flash_command
p4000
atp4001
a(L4103218025L
L0L
(lp4002
(lp4003
tp4004
a(L2529045083L
L0L
(lp4005
(lp4006
tp4007
a(L1175784077L
L1832448559L
(lp4008
(lp4009
Vesp_rom_spiflash_wait_idle
p4010
aVbootloader_execute_flash_command
p4011
aVbootloader_execute_flash_command
p4012
atp4013
a(L106L
L0L
(lp4014
(lp4015
tp4016
a(L594961218L
L1880226080L
(lp4017
(lp4018
Vesp_rom_spiflash_wait_idle
p4019
aVbootloader_execute_flash_command
p4020
atp4021
a(L2993202392L
L0L
(lp4022
(lp4023
tp4024
a(L610618707L
L0L
(lp4025
(lp4026
tp4027
a(L2843273676L
L0L
(lp4028
(lp4029
tp4030
a(L192015437L
L0L
(lp4031
(lp4032
tp4033
a(L3154322046L
L1880226080L
(lp4034
(lp4035
Vbootloader_execute_flash_command
p4036
aVbootloader_execute_flash_command
p4037
atp4038
a(L1303560644L
L0L
(lp4039
(lp4040
tp4041
a(L1711531685L
L1880226080L
(lp4042
(lp4043
Vbootloader_execute_flash_command
p4044
aVbootloader_execute_flash_command
p4045
atp4046
a(L3658700047L
L0L
(lp4047
(lp4048
tp4049
a(L3430607254L
L0L
(lp4050
(lp4051
tp4052
a(L106L
L0L
(lp4053
(lp4054
tp4055
a(L1876788132L
L1832448559L
(lp4056
(lp4057
Vesp_rom_spiflash_wait_idle
p4058
aVbootloader_execute_flash_command
p4059
aVbootloader_execute_flash_command
p4060
atp4061
atp4062
sI1074247664
(Vesp_rom_spiflash_write
p4063
(lp4064
(L1766950979L
L0L
(lp4065
(lp4066
tp4067
a(L2258688483L
L0L
(lp4068
(lp4069
tp4070
a(L3360570486L
L0L
(lp4071
(lp4072
tp4073
a(L3368132847L
L0L
(lp4074
(lp4075
tp4076
a(L3106685981L
L0L
(lp4077
(lp4078
tp4079
a(L3488660639L
L3785322319L
(lp4080
(lp4081
Vesp_rom_spiflash_program_page_internal
p4082
atp4083
a(L3543402353L
L3785322319L
(lp4084
(lp4085
Vesp_rom_spiflash_program_page_internal
p4086
atp4087
a(L4222526342L
L0L
(lp4088
(lp4089
tp4090
a(L2004208511L
L0L
(lp4091
(lp4092
tp4093
a(L564470656L
L0L
(lp4094
(lp4095
tp4096
a(L441922648L
L3785322319L
(lp4097
(lp4098
Vesp_rom_spiflash_program_page_internal
p4099
atp4100
a(L2302069176L
L0L
(lp4101
(lp4102
tp4103
atp4104
sI1074244860
(Vrtc_clk_8m_enable
p4105
(lp4106
(L3352547926L
L0L
(lp4107
(lp4108
tp4109
a(L3044523087L
L0L
(lp4110
(lp4111
tp4112
a(L2151320156L
L0L
(lp4113
(lp4114
tp4115
a(L458270649L
L0L
(lp4116
(lp4117
tp4118
a(L3360570486L
L0L
(lp4119
(lp4120
tp4121
a(L1318267208L
L0L
(lp4122
(lp4123
tp4124
a(L3842183074L
L0L
(lp4125
(lp4126
tp4127
atp4128
sI1074234620
(Vesp_flash_encryption_enabled
p4129
(lp4130
(L376617603L
L3785322319L
(lp4131
(lp4132
Vefuse_hal_flash_encryption_enabled
p4133
atp4134
atp4135
sI1074269940
(Vbootloader_console_init
p4136
(lp4137
(L1075309405L
L1832448559L
(lp4138
(lp4139
Vesp_rom_uart_tx_wait_idle
p4140
aVrtc_clk_apb_freq_get
p4141
aVesp_rom_uart_set_clock_baudrate
p4142
atp4143
atp4144
ssS'functionsdups'
p4145
g11
((lp4146
tp4147
Rp4148
sS'immediatedups'
p4149
g11
((lp4150
tp4151
Rp4152
sS'functiondups'
p4153
g11
((lp4154
tp4155
Rp4156
sS'fuzzy'
p4157
(dp4158
L1536L
I1074240624
sL438947497L
I1074245036
sL430153639L
I1074235772
sL2438816089L
I1074240288
sL3538491111L
I1074245180
sL2945086745L
I1074234632
sL1053780185L
I1074246968
sL2919036513L
I1074238752
sL2680783959L
I1074235508
sL1385214606L
I1074241044
sL3709764864L
I1074242464
sL3512578114L
I1074238600
sL1419132215L
I1074237996
sL45778457L
I1074240996
sL4024375675L
I1074245632
sL701833459L
I1074268552
sL720751058L
I1074267808
sL99291719L
I1074245744
sL1260046007L
I1074238484
sL3897252859L
I1074238400
sL3750957730L
I1074269296
sL1065525808L
I1074236728
sL2547957225L
I1074242964
sL2272466760L
I1074245420
sL2893418569L
I1074240424
sL2044047637L
I1074239268
sL1188065553L
I1074237556
sL1350409532L
I1074240808
sL94556391L
I1074245208
sL3210669721L
I1074244800
sL1332800441L
I1074237120
sL1797050832L
I1074241508
sL3190831358L
I1074239632
sL2828970830L
I1074239148
sL4160102055L
I1074239932
sL4202185385L
I1074247232
sL1768086576L
I1074236240
sL4171975289L
I1074247528
sL1565254297L
I1074247828
sL1205407754L
I1074239956
sL2191698036L
I1074269720
sL3764456758L
I1074244580
sL3567877105L
I1074235124
sL3616640713L
I1074240640
sL1635528231L
I1074243844
sL1060788199L
I1074245328
sL3378232636L
I1074246472
sL737694352L
I1074247336
sL503029138L
I1074247280
sL1616763831L
I1074247916
sL424867129L
I1074247664
sL2076791716L
I1074268032
sL2405032630L
I1074267700
sL1302843222L
I1074270200
sL149533852L
I1074237296
sL3883282432L
I1074241596
sL3110525840L
I1074241724
sL1142841954L
I1074236888
sL206902443L
I1074237828
sL1070509616L
I1074244860
sL3408620885L
I1074270024
ssb.