ccopy_reg
_reconstructor
p0
(crizzo
RizzoSignature
p1
c__builtin__
object
p2
Ntp3
Rp4
(dp5
S'formal'
p6
(dp7
L2606191187L
I1074246000
sL2808813164L
I1074240884
sL1207862518L
I1074240592
sL3285171398L
I1074243488
sL2972557863L
I1074270096
sL1741170115L
I1074237960
sL3817488769L
I1074247192
sL3505757179L
I1074236740
sL3196142229L
I1074237704
sL76329880L
I1074245816
sL3873375177L
I1074269920
sL1237733855L
I1074238856
sL1674242515L
I1074248084
sL1602897552L
I1074239788
sL4213015302L
I1074243204
sL1371153316L
I1074268624
sL3597077880L
I1074236536
sL2483835949L
I1074235920
sL3230852531L
I1074238228
sL3045680040L
I1074245056
sL2431287502L
I1074237036
sL3982985539L
I1074269724
sL1387443604L
I1074243220
sL693028457L
I1074240424
sL2479159267L
I1074246684
sL2420455533L
I1074269656
sL3326929765L
I1074240088
sL54072848L
I1074245888
sL711787332L
I1074269792
sL928253055L
I1074268864
sL2702580795L
I1074237336
sL412821684L
I1074236780
sL2666198494L
I1074245116
sL2896295319L
I1074236876
sL1039406786L
I1074270272
sL4248316673L
I1074269948
sL1674148343L
I1074245584
sL3929482102L
I1074245544
sL2485902447L
I1074236716
sL3944712277L
I1074240444
sL2972806524L
I1074235656
sL1859518617L
I1074241856
sL372308320L
I1074245528
sL235029585L
I1074239304
sL4257908639L
I1074244100
sL1585823442L
I1074244516
sL1622896354L
I1074244544
sL2546030491L
I1074245244
sL3723052726L
I1074241296
sL873235283L
I1074245676
sL3126675517L
I1074247920
sL1509716893L
I1074236848
sL2189223198L
I1074240352
sL3977154411L
I1074270716
sL288400730L
I1074244836
sL885876642L
I1074236636
sL2903897210L
I1074241768
sL3904551637L
I1074268056
sL2878670564L
I1074248172
sL4260505216L
I1074247784
sL396192741L
I1074238148
sL3562592288L
I1074270048
sL1056742531L
I1074236388
sL530851108L
I1074244664
sL768348750L
I1074238804
sL426984944L
I1074236948
sL1885637095L
I1074267832
sL676927194L
I1074268856
sL2945163535L
I1074240112
sL3307282855L
I1074238120
sL749418531L
I1074244448
sL3432634640L
I1074242724
sL911764690L
I1074237652
sL1730519976L
I1074247592
sL1050504461L
I1074234712
sL3494179029L
I1074245860
sL493357820L
I1074245292
sL2543988023L
I1074240828
sL1753891612L
I1074247392
sL4129683902L
I1074270868
sL4038945309L
I1074235608
sL4176386638L
I1074241052
sL3676018875L
I1074244996
sL1830628543L
I1074244616
sL773546680L
I1074238908
sL3508768135L
I1074269352
sL518463041L
I1074235808
sL2626436395L
I1074236980
sL2737209228L
I1074234756
sL547013175L
I1074237444
sL2749301872L
I1074269368
sL180164621L
I1074235268
sL2997001746L
I1074237268
sL2576935212L
I1074245408
sL903496812L
I1074246728
sL647977256L
I1074245436
sL2252333703L
I1074247536
sL2819127986L
I1074237000
sL359006682L
I1074270012
sL1877634603L
I1074270940
sL3518743416L
I1074238556
sL3310923163L
I1074238756
sL3255476431L
I1074241984
sL4163372517L
I1074236552
sL2805324261L
I1074245268
sL2785860572L
I1074238640
sL111045711L
I1074268568
sL1882398944L
I1074244700
sL1736345773L
I1074247224
sL404293581L
I1074237412
sL1487010937L
I1074245464
sL2263182908L
I1074238140
sL700866072L
I1074237980
sL3630163135L
I1074236864
sL188664287L
I1074235236
sL782838600L
I1074240788
sL4225037361L
I1074269680
sL692536993L
I1074237308
sL3075360168L
I1074241240
sL144857933L
I1074240804
sL3570521636L
I1074244416
sL4173412669L
I1074235556
sL2802549751L
I1074239424
sL3018942732L
I1074267724
sL3224825289L
I1074247488
ssS'immediates'
p8
(dp9
sS'formaldups'
p10
c__builtin__
set
p11
((lp12
tp13
Rp14
sS'stringdups'
p15
g11
((lp16
tp17
Rp18
sS'fuzzydups'
p19
g11
((lp20
tp21
Rp22
sS'strings'
p23
(dp24
sS'functions'
p25
(dp26
I1074244100
(Vwdt_hal_config_stage
p27
(lp28
(L331558507L
L0L
(lp29
(lp30
tp31
a(L4279082939L
L0L
(lp32
(lp33
tp34
a(L93674324L
L0L
(lp35
(lp36
tp37
a(L2902417580L
L0L
(lp38
(lp39
tp40
a(L980402310L
L0L
(lp41
(lp42
tp43
a(L3020187L
L0L
(lp44
(lp45
tp46
a(L94425498L
L3785322319L
(lp47
(lp48
Vabort
p49
atp50
a(L3649029602L
L0L
(lp51
(lp52
tp53
a(L3360570486L
L0L
(lp54
(lp55
tp56
a(L1041004739L
L0L
(lp57
(lp58
tp59
a(L1101608377L
L0L
(lp60
(lp61
tp62
a(L4278159418L
L0L
(lp63
(lp64
tp65
a(L93674324L
L0L
(lp66
(lp67
tp68
a(L3020204L
L0L
(lp69
(lp70
tp71
a(L1722164170L
L0L
(lp72
(lp73
tp74
a(L3020187L
L0L
(lp75
(lp76
tp77
a(L106L
L0L
(lp78
(lp79
tp80
a(L4029484007L
L0L
(lp81
(lp82
tp83
a(L528371148L
L0L
(lp84
(lp85
tp86
a(L2121897800L
L0L
(lp87
(lp88
tp89
atp90
sI1074237444
(Vbootloader_mmap
p91
(lp92
(L3624397292L
L0L
(lp93
(lp94
tp95
a(L2788000646L
L3785322319L
(lp96
(lp97
Vesp_log_early_timestamp
p98
atp99
a(L2867263840L
L0L
(lp100
(lp101
tp102
a(L3729184599L
L0L
(lp103
(lp104
tp105
a(L4116781276L
L3785322319L
(lp106
(lp107
Vesp_log_early_timestamp
p108
atp109
a(L2258688482L
L0L
(lp110
(lp111
tp112
a(L3360570486L
L0L
(lp113
(lp114
tp115
a(L702749218L
L0L
(lp116
(lp117
tp118
a(L1580888500L
L0L
(lp119
(lp120
tp121
a(L3746164654L
L3785322319L
(lp122
(lp123
Vesp_log_early_timestamp
p124
atp125
a(L528675173L
L3785322319L
(lp126
(lp127
Vesp_log_early_timestamp
p128
atp129
a(L113283320L
L0L
(lp130
(lp131
tp132
atp133
sI1074245888
(Vrtc_clk_cpu_freq_to_xtal
p134
(lp135
(L767415990L
L3785322319L
(lp136
(lp137
Vesp_rom_set_cpu_ticks_per_us
p138
atp139
a(L94425498L
L3785322319L
(lp140
(lp141
Vabort
p142
atp143
a(L3663383984L
L3785322319L
(lp144
(lp145
Vrtc_clk_apb_freq_update
p146
atp147
a(L2258867230L
L0L
(lp148
(lp149
tp150
a(L2113643508L
L0L
(lp151
(lp152
tp153
atp154
sI1074267136
(V_init
p155
(lp156
(L3493042598L
L0L
(lp157
(lp158
tp159
atp160
sI1074237704
(Vbootloader_flash_read
p161
(lp162
(L3022618172L
L0L
(lp163
(lp164
tp165
a(L172086619L
L3785322319L
(lp166
(lp167
Vesp_log_early_timestamp
p168
atp169
a(L2780906736L
L0L
(lp170
(lp171
tp172
a(L1351513776L
L0L
(lp173
(lp174
tp175
a(L1486740491L
L0L
(lp176
(lp177
tp178
a(L1179571938L
L3785322319L
(lp179
(lp180
Vesp_log_early_timestamp
p181
atp182
a(L3283691850L
L0L
(lp183
(lp184
tp185
a(L814874711L
L3785322319L
(lp186
(lp187
Vesp_log_early_timestamp
p188
atp189
a(L3020204L
L0L
(lp190
(lp191
tp192
a(L384130671L
L0L
(lp193
(lp194
tp195
a(L97422L
L0L
(lp196
(lp197
tp198
a(L1190291857L
L0L
(lp199
(lp200
tp201
a(L2961856275L
L0L
(lp202
(lp203
tp204
a(L2830805255L
L3785322319L
(lp205
(lp206
V__assert_func
p207
atp208
a(L1539897528L
L0L
(lp209
(lp210
tp211
a(L1310932259L
L0L
(lp212
(lp213
tp214
a(L1672348752L
L1880226080L
(lp215
(lp216
Vesp_rom_spiflash_read
p217
aVspi_to_esp_err
p218
atp219
atp220
sI1074237960
(Vbootloader_flash_erase_sector
p221
(lp222
(L4129137686L
L1880226080L
(lp223
(lp224
Vesp_rom_spiflash_erase_sector
p225
aVspi_to_esp_err
p226
atp227
atp228
sI1074235656
(Vbootloader_flash_xmc_startup
p229
(lp230
(L2007527597L
L3785322319L
(lp231
(lp232
Vis_xmc_chip_strict
p233
atp234
a(L2258688482L
L0L
(lp235
(lp236
tp237
a(L3360570486L
L0L
(lp238
(lp239
tp240
a(L2860324232L
L3785322319L
(lp241
(lp242
Vbootloader_flash_read_sfdp
p243
atp244
a(L335762040L
L2567856111L
(lp245
(lp246
Vesp_log_early_timestamp
p247
aVbootloader_execute_flash_command
p248
aVbootloader_execute_flash_command
p249
aVbootloader_execute_flash_command
p250
aVbootloader_execute_flash_command
p251
aVbootloader_read_flash_id
p252
aVis_xmc_chip_strict
p253
atp254
a(L664983568L
L3785322319L
(lp255
(lp256
Vesp_log_early_timestamp
p257
atp258
atp259
sI1074244616
(Vmmu_hal_unmap_all
p260
(lp261
(L2696866292L
L0L
(lp262
(lp263
tp264
a(L2010554219L
L0L
(lp265
(lp266
tp267
a(L3268103L
L0L
(lp268
(lp269
tp270
a(L3212334523L
L0L
(lp271
(lp272
tp273
a(L2010554219L
L0L
(lp274
(lp275
tp276
a(L3360570486L
L0L
(lp277
(lp278
tp279
atp280
sI1074240788
(Vbootloader_console_deinit
p281
(lp282
(L4005071210L
L0L
(lp283
(lp284
tp285
atp286
sI1074236948
(Vesp_log_early_timestamp
p287
(lp288
(L3733265409L
L0L
(lp289
(lp290
tp291
atp292
sI1074238228
(Vbootloader_random_disable
p293
(lp294
(L2825582328L
L0L
(lp295
(lp296
tp297
atp298
sI1074269724
(Vbootloader_check_bootloader_validity
p299
(lp300
(L2960652984L
L1832448559L
(lp301
(lp302
Vefuse_hal_chip_revision
p303
aVesp_log_early_timestamp
p304
aVbootloader_common_check_chip_validity
p305
atp306
atp307
sI1074235920
(Vbootloader_flash_gpio_config
p308
(lp309
(L3362256192L
L3785322319L
(lp310
(lp311
Vbootloader_common_get_chip_ver_pkg
p312
atp313
a(L106L
L0L
(lp314
(lp315
tp316
a(L1998579353L
L0L
(lp317
(lp318
tp319
a(L106L
L0L
(lp320
(lp321
tp322
a(L1029428446L
L0L
(lp323
(lp324
tp325
a(L4242290324L
L0L
(lp326
(lp327
tp328
a(L106L
L0L
(lp329
(lp330
tp331
a(L4003626558L
L0L
(lp332
(lp333
tp334
a(L1553523094L
L0L
(lp335
(lp336
tp337
a(L3360570486L
L0L
(lp338
(lp339
tp340
atp341
sI1074241296
(Vverify_load_addresses
p342
(lp343
(L2764487219L
L0L
(lp344
(lp345
tp346
a(L106L
L0L
(lp347
(lp348
tp349
a(L97642L
L0L
(lp350
(lp351
tp352
a(L1494945664L
L3785322319L
(lp353
(lp354
V__assert_func
p355
atp356
a(L791907602L
L0L
(lp357
(lp358
tp359
a(L106L
L0L
(lp360
(lp361
tp362
a(L1722779441L
L0L
(lp363
(lp364
tp365
a(L106L
L0L
(lp366
(lp367
tp368
a(L4043008515L
L3785322319L
(lp369
(lp370
Vbootloader_util_regions_overlap
p371
atp372
a(L631732150L
L3785322319L
(lp373
(lp374
Vbootloader_util_regions_overlap
p375
atp376
a(L3028481L
L0L
(lp377
(lp378
tp379
a(L3615101466L
L3785322319L
(lp380
(lp381
Vbootloader_util_regions_overlap
p382
atp383
a(L1726430751L
L0L
(lp384
(lp385
tp386
a(L1086512205L
L0L
(lp387
(lp388
tp389
a(L1032381749L
L0L
(lp390
(lp391
tp392
a(L2837304413L
L0L
(lp393
(lp394
tp395
a(L677569396L
L3785322319L
(lp396
(lp397
Vverify_load_addresses
p398
atp399
a(L1351513776L
L0L
(lp400
(lp401
tp402
a(L956755582L
L0L
(lp403
(lp404
tp405
a(L2358736322L
L0L
(lp406
(lp407
tp408
a(L29144270L
L0L
(lp409
(lp410
tp411
a(L106L
L0L
(lp412
(lp413
tp414
a(L759382056L
L0L
(lp415
(lp416
tp417
a(L106L
L0L
(lp418
(lp419
tp420
a(L1713182710L
L3785322319L
(lp421
(lp422
Vbootloader_util_regions_overlap
p423
atp424
a(L3028481L
L0L
(lp425
(lp426
tp427
a(L2080057853L
L3785322319L
(lp428
(lp429
Vbootloader_util_regions_overlap
p430
atp431
a(L684954403L
L0L
(lp432
(lp433
tp434
a(L2861826135L
L0L
(lp435
(lp436
tp437
a(L160035736L
L0L
(lp438
(lp439
tp440
a(L2743341656L
L0L
(lp441
(lp442
tp443
a(L182882711L
L0L
(lp444
(lp445
tp446
a(L3836858920L
L0L
(lp447
(lp448
tp449
a(L297163306L
L0L
(lp450
(lp451
tp452
a(L1900059593L
L0L
(lp453
(lp454
tp455
a(L562398217L
L0L
(lp456
(lp457
tp458
a(L3786176122L
L0L
(lp459
(lp460
tp461
a(L3929371936L
L0L
(lp462
(lp463
tp464
a(L2805932810L
L0L
(lp465
(lp466
tp467
a(L4072848040L
L0L
(lp468
(lp469
tp470
a(L106L
L0L
(lp471
(lp472
tp473
a(L955482811L
L0L
(lp474
(lp475
tp476
a(L307917408L
L0L
(lp477
(lp478
tp479
a(L3020204L
L0L
(lp480
(lp481
tp482
a(L2240503318L
L3785322319L
(lp483
(lp484
Vesp_log_early_timestamp
p485
atp486
a(L1303560396L
L0L
(lp487
(lp488
tp489
a(L955506495L
L0L
(lp490
(lp491
tp492
a(L1303560427L
L0L
(lp493
(lp494
tp495
atp496
sI1074237980
(Vbootloader_flash_write
p497
(lp498
(L3770380603L
L0L
(lp499
(lp500
tp501
a(L2615366646L
L3785322319L
(lp502
(lp503
Vesp_log_early_timestamp
p504
atp505
a(L3833270346L
L0L
(lp506
(lp507
tp508
a(L1610445075L
L0L
(lp509
(lp510
tp511
a(L735741265L
L0L
(lp512
(lp513
tp514
a(L3291333414L
L0L
(lp515
(lp516
tp517
a(L1873007406L
L3785322319L
(lp518
(lp519
Vesp_log_early_timestamp
p520
atp521
a(L3283691850L
L0L
(lp522
(lp523
tp524
a(L2141475974L
L3785322319L
(lp525
(lp526
Vesp_log_early_timestamp
p527
atp528
a(L3212356251L
L3785322319L
(lp529
(lp530
Vbootloader_flash_unlock
p531
atp532
a(L1799218633L
L0L
(lp533
(lp534
tp535
a(L94425498L
L3785322319L
(lp536
(lp537
Vesp_rom_spiflash_write_encrypted
p538
atp539
a(L2927190544L
L3785322319L
(lp540
(lp541
Vspi_to_esp_err
p542
atp543
a(L2927190544L
L3785322319L
(lp544
(lp545
Vesp_rom_spiflash_write
p546
atp547
atp548
sI1074241052
(Vprocess_image_header
p549
(lp550
(L2432434428L
L3785322319L
(lp551
(lp552
Vbootloader_flash_read
p553
atp554
a(L3020204L
L0L
(lp555
(lp556
tp557
a(L4205021202L
L0L
(lp558
(lp559
tp560
a(L321261932L
L0L
(lp561
(lp562
tp563
a(L1161397362L
L3785322319L
(lp564
(lp565
Vbootloader_sha256_start
p566
atp567
a(L2062774299L
L3785322319L
(lp568
(lp569
Vbootloader_sha256_data
p570
atp571
a(L1291118193L
L0L
(lp572
(lp573
tp574
a(L3028481L
L0L
(lp575
(lp576
tp577
a(L2263077458L
L3785322319L
(lp578
(lp579
Vesp_log_early_timestamp
p580
atp581
a(L3200755447L
L0L
(lp582
(lp583
tp584
a(L2983970029L
L0L
(lp585
(lp586
tp587
a(L4235213884L
L3785322319L
(lp588
(lp589
Vbootloader_common_check_chip_validity
p590
atp591
a(L4144303915L
L0L
(lp592
(lp593
tp594
a(L3028481L
L0L
(lp595
(lp596
tp597
a(L355256751L
L3785322319L
(lp598
(lp599
Vesp_log_early_timestamp
p600
atp601
a(L2852701393L
L0L
(lp602
(lp603
tp604
a(L2122516551L
L0L
(lp605
(lp606
tp607
a(L3064492592L
L0L
(lp608
(lp609
tp610
atp611
sI1074246684
(Vrtc_clk_apb_freq_get
p612
(lp613
(L3659315454L
L0L
(lp614
(lp615
tp616
atp617
sI1074247192
(Vrtc_clk_cal_ratio
p618
(lp619
(L3871281096L
L3785322319L
(lp620
(lp621
Vrtc_clk_cal_internal
p622
atp623
atp624
sI1074240804
(V__assert_func
p625
(lp626
(L1697582622L
L0L
(lp627
(lp628
tp629
a(L106L
L0L
(lp630
(lp631
tp632
atp633
sI1074238756
(Vtry_load_partition
p634
(lp635
(L1263750142L
L0L
(lp636
(lp637
tp638
a(L2258688482L
L0L
(lp639
(lp640
tp641
a(L3360570486L
L0L
(lp642
(lp643
tp644
a(L530241438L
L3785322319L
(lp645
(lp646
Vbootloader_load_image
p647
atp648
a(L3010049260L
L3785322319L
(lp649
(lp650
Vesp_log_early_timestamp
p651
atp652
atp653
sI1074245408
(Vrtc_clk_slow_src_get
p654
(lp655
(L807162021L
L0L
(lp656
(lp657
tp658
a(L3020187L
L0L
(lp659
(lp660
tp661
a(L2902417580L
L0L
(lp662
(lp663
tp664
a(L2258688485L
L0L
(lp665
(lp666
tp667
a(L3360570486L
L0L
(lp668
(lp669
tp670
atp671
sI1074239788
(Vbootloader_utility_get_selected_boot_partition
p672
(lp673
(L2938832293L
L0L
(lp674
(lp675
tp676
a(L842541614L
L0L
(lp677
(lp678
tp679
a(L893151972L
L3785322319L
(lp680
(lp681
Vesp_log_early_timestamp
p682
atp683
a(L194246498L
L0L
(lp684
(lp685
tp686
a(L3360570486L
L0L
(lp687
(lp688
tp689
a(L3118387733L
L3785322319L
(lp690
(lp691
Vbootloader_mmap
p692
atp693
a(L2621379218L
L3785322319L
(lp694
(lp695
Vesp_log_early_timestamp
p696
atp697
a(L3321522761L
L1880226080L
(lp698
(lp699
Vbootloader_munmap
p700
aVbootloader_common_ota_select_invalid
p701
atp702
a(L2911028409L
L0L
(lp703
(lp704
tp705
a(L726754926L
L3785322319L
(lp706
(lp707
Vbootloader_common_get_active_otadata
p708
atp709
a(L106L
L0L
(lp710
(lp711
tp712
a(L4179097382L
L0L
(lp713
(lp714
tp715
a(L788494392L
L3785322319L
(lp716
(lp717
Vbootloader_common_ota_select_invalid
p718
atp719
a(L4189674197L
L0L
(lp720
(lp721
tp722
a(L4436812L
L3785322319L
(lp723
(lp724
Vesp_log_early_timestamp
p725
atp726
a(L3833270346L
L0L
(lp727
(lp728
tp729
a(L1641201884L
L0L
(lp730
(lp731
tp732
a(L211630783L
L3785322319L
(lp733
(lp734
Vesp_log_early_timestamp
p735
atp736
a(L2302032704L
L0L
(lp737
(lp738
tp739
a(L1173788779L
L3785322319L
(lp740
(lp741
Vbootloader_common_ota_select_crc
p742
atp743
a(L4188515782L
L0L
(lp744
(lp745
tp746
a(L1324800084L
L3785322319L
(lp747
(lp748
Vbootloader_common_ota_select_crc
p749
atp750
a(L1299866312L
L0L
(lp751
(lp752
tp753
a(L1205826810L
L0L
(lp754
(lp755
tp756
a(L2799281972L
L3785322319L
(lp757
(lp758
Vesp_log_early_timestamp
p759
atp760
a(L692120553L
L3785322319L
(lp761
(lp762
Vesp_log_early_timestamp
p763
atp764
atp765
sI1074236716
(Vefuse_hal_chip_revision
p766
(lp767
(L2719302832L
L1880226080L
(lp768
(lp769
Vefuse_hal_get_major_chip_version
p770
aVefuse_hal_get_minor_chip_version
p771
atp772
atp773
sI1074245676
(Vrtc_clk_cpu_freq_get_config
p774
(lp775
(L3722895476L
L0L
(lp776
(lp777
tp778
a(L3020187L
L0L
(lp779
(lp780
tp781
a(L3020187L
L0L
(lp782
(lp783
tp784
a(L2648070573L
L3785322319L
(lp785
(lp786
Vrtc_clk_xtal_freq_get
p787
atp788
a(L3789795478L
L0L
(lp789
(lp790
tp791
a(L1195264405L
L1880226080L
(lp792
(lp793
Vesp_log_early_timestamp
p794
aVabort
p795
atp796
a(L1347439071L
L0L
(lp797
(lp798
tp799
a(L3020187L
L0L
(lp800
(lp801
tp802
a(L3028481L
L0L
(lp803
(lp804
tp805
a(L38508693L
L0L
(lp806
(lp807
tp808
a(L187152368L
L0L
(lp809
(lp810
tp811
a(L1161083655L
L0L
(lp812
(lp813
tp814
a(L1395485899L
L0L
(lp815
(lp816
tp817
a(L2070600034L
L0L
(lp818
(lp819
tp820
atp821
sI1074236980
(Vbootloader_common_ota_select_crc
p822
(lp823
(L3214440559L
L0L
(lp824
(lp825
tp826
atp827
sI1074270012
(Vbootloader_console_init
p828
(lp829
(L2486688275L
L1832448559L
(lp830
(lp831
Vesp_rom_uart_tx_wait_idle
p832
aVrtc_clk_apb_freq_get
p833
aVesp_rom_uart_set_clock_baudrate
p834
atp835
atp836
sI1074240828
(Vabort
p837
(lp838
(L56968919L
L0L
(lp839
(lp840
tp841
a(L409471316L
L0L
(lp842
(lp843
tp844
a(L106L
L0L
(lp845
(lp846
tp847
atp848
sI1074245436
(Vrtc_clk_slow_freq_get_hz
p849
(lp850
(L1826267122L
L3785322319L
(lp851
(lp852
Vrtc_clk_slow_src_get
p853
atp854
a(L4180097535L
L0L
(lp855
(lp856
tp857
a(L4004331653L
L0L
(lp858
(lp859
tp860
a(L3360570486L
L0L
(lp861
(lp862
tp863
atp864
sI1074244664
(Vefuse_hal_get_rated_freq_mhz
p865
(lp866
(L3060225221L
L0L
(lp867
(lp868
tp869
a(L338960367L
L0L
(lp870
(lp871
tp872
a(L3360570486L
L0L
(lp873
(lp874
tp875
atp876
sI1074247224
(Vrtc_clk_wait_for_slow_cycle
p877
(lp878
(L1979977371L
L0L
(lp879
(lp880
tp881
a(L287687718L
L0L
(lp882
(lp883
tp884
a(L3360570486L
L0L
(lp885
(lp886
tp887
a(L2664777485L
L0L
(lp888
(lp889
tp890
a(L1300789833L
L0L
(lp891
(lp892
tp893
a(L1259765481L
L0L
(lp894
(lp895
tp896
a(L2529434910L
L0L
(lp897
(lp898
tp899
a(L299865058L
L3785322319L
(lp900
(lp901
Vesp_log_early_timestamp
p902
atp903
atp904
sI1074236740
(Vefuse_hal_flash_encryption_enabled
p905
(lp906
(L2932383536L
L0L
(lp907
(lp908
tp909
a(L2910371777L
L0L
(lp910
(lp911
tp912
a(L3360570486L
L0L
(lp913
(lp914
tp915
a(L3016870L
L0L
(lp916
(lp917
tp918
a(L3745038218L
L0L
(lp919
(lp920
tp921
a(L957607403L
L0L
(lp922
(lp923
tp924
atp925
sI1074267724
(Vcall_start_cpu0
p926
(lp927
(L1137852827L
L0L
(lp928
(lp929
tp930
a(L549459388L
L0L
(lp931
(lp932
tp933
a(L3212347974L
L3785322319L
(lp934
(lp935
Vbootloader_init
p936
atp937
a(L94425498L
L3785322319L
(lp938
(lp939
Vbootloader_reset
p940
atp941
a(L1122046408L
L0L
(lp942
(lp943
tp944
a(L4099474112L
L0L
(lp945
(lp946
tp947
a(L3015046664L
L3785322319L
(lp948
(lp949
Vbootloader_utility_load_partition_table
p950
atp951
a(L2761094216L
L3785322319L
(lp952
(lp953
Vesp_log_early_timestamp
p954
atp955
a(L405422123L
L3785322319L
(lp956
(lp957
Vbootloader_utility_get_selected_boot_partition
p958
atp959
a(L2055385849L
L3785322319L
(lp960
(lp961
Vbootloader_utility_load_boot_image
p962
atp963
atp964
sI1074244416
(Vwdt_hal_write_protect_disable
p965
(lp966
(L2029874475L
L0L
(lp967
(lp968
tp969
a(L4195472003L
L0L
(lp970
(lp971
tp972
a(L3360570486L
L0L
(lp973
(lp974
tp975
a(L1210571996L
L0L
(lp976
(lp977
tp978
atp979
sI1074241856
(Vshould_load
p980
(lp981
(L2248753231L
L0L
(lp982
(lp983
tp984
a(L1182990556L
L0L
(lp985
(lp986
tp987
a(L1188500889L
L0L
(lp988
(lp989
tp990
a(L2306467100L
L0L
(lp991
(lp992
tp993
a(L524505062L
L0L
(lp994
(lp995
tp996
a(L2258897019L
L0L
(lp997
(lp998
tp999
a(L3781799363L
L0L
(lp1000
(lp1001
tp1002
a(L3028464L
L0L
(lp1003
(lp1004
tp1005
a(L2798417532L
L0L
(lp1006
(lp1007
tp1008
a(L4277114872L
L0L
(lp1009
(lp1010
tp1011
a(L2824381917L
L0L
(lp1012
(lp1013
tp1014
a(L1243412227L
L0L
(lp1015
(lp1016
tp1017
a(L2011157548L
L0L
(lp1018
(lp1019
tp1020
a(L3126521138L
L0L
(lp1021
(lp1022
tp1023
a(L1305407438L
L0L
(lp1024
(lp1025
tp1026
a(L1305407469L
L0L
(lp1027
(lp1028
tp1029
atp1030
sI1074247488
(Vesp_rom_spiflash_wait_idle
p1031
(lp1032
(L3233077333L
L0L
(lp1033
(lp1034
tp1035
a(L2023766174L
L0L
(lp1036
(lp1037
tp1038
a(L2805934546L
L0L
(lp1039
(lp1040
tp1041
a(L3086959262L
L0L
(lp1042
(lp1043
tp1044
a(L4161019926L
L3785322319L
(lp1045
(lp1046
Vesp_rom_spiflash_read_status
p1047
atp1048
atp1049
sI1074270272
(Vrtc_clk_init
p1050
(lp1051
(L2294715062L
L0L
(lp1052
(lp1053
tp1054
a(L42671777L
L3785322319L
(lp1055
(lp1056
Vrtc_clk_cpu_freq_to_xtal
p1057
atp1058
a(L221492645L
L3785322319L
(lp1059
(lp1060
Vrtc_clk_xtal_freq_get
p1061
atp1062
a(L3028481L
L0L
(lp1063
(lp1064
tp1065
a(L4284274517L
L3785322319L
(lp1066
(lp1067
Vrtc_clk_xtal_freq_estimate
p1068
atp1069
a(L2705677258L
L3785322319L
(lp1070
(lp1071
Vesp_log_early_timestamp
p1072
atp1073
a(L633981439L
L1157885199L
(lp1074
(lp1075
Vesp_rom_uart_tx_wait_idle
p1076
aVrtc_clk_xtal_freq_update
p1077
aVrtc_clk_apb_freq_update
p1078
aVrtc_clk_cpu_freq_get_config
p1079
aVrtc_clk_cpu_freq_mhz_to_config
p1080
atp1081
a(L48371412L
L1880226080L
(lp1082
(lp1083
Vesp_log_early_timestamp
p1084
aVabort
p1085
atp1086
a(L2902417580L
L0L
(lp1087
(lp1088
tp1089
a(L1899970065L
L0L
(lp1090
(lp1091
tp1092
a(L377687546L
L3785322319L
(lp1093
(lp1094
Vrtc_clk_xtal_freq_estimate
p1095
atp1096
a(L2146549143L
L3785322319L
(lp1097
(lp1098
Vesp_log_early_timestamp
p1099
atp1100
a(L4134099358L
L3785322319L
(lp1101
(lp1102
Vrtc_clk_cpu_freq_set_config
p1103
atp1104
a(L912310138L
L3785322319L
(lp1105
(lp1106
Vrtc_clk_32k_enable
p1107
atp1108
a(L3191820416L
L1832448559L
(lp1109
(lp1110
Vrtc_clk_8m_enable
p1111
aVrtc_clk_fast_src_set
p1112
aVrtc_clk_slow_src_set
p1113
atp1114
a(L1232958848L
L0L
(lp1115
(lp1116
tp1117
atp1118
sI1074237000
(Vbootloader_common_ota_select_valid
p1119
(lp1120
(L1563399710L
L3785322319L
(lp1121
(lp1122
Vbootloader_common_ota_select_invalid
p1123
atp1124
a(L3814720849L
L3785322319L
(lp1125
(lp1126
Vbootloader_common_ota_select_crc
p1127
atp1128
a(L3360570486L
L0L
(lp1129
(lp1130
tp1131
atp1132
sI1074239304
(Vset_actual_ota_seq
p1133
(lp1134
(L4094723830L
L0L
(lp1135
(lp1136
tp1137
a(L2573507321L
L0L
(lp1138
(lp1139
tp1140
a(L3461827603L
L1832448559L
(lp1141
(lp1142
Vbootloader_common_ota_select_crc
p1143
aVesp_flash_encryption_enabled
p1144
aVbootloader_flash_erase_sector
p1145
atp1146
a(L2768623893L
L3785322319L
(lp1147
(lp1148
Vbootloader_flash_write
p1149
atp1150
a(L1288271209L
L3785322319L
(lp1151
(lp1152
Vesp_log_early_timestamp
p1153
atp1154
a(L2939835162L
L3785322319L
(lp1155
(lp1156
Vesp_log_early_timestamp
p1157
atp1158
a(L3360570486L
L0L
(lp1159
(lp1160
tp1161
atp1162
sI1074246728
(Vrtc_clk_cal_internal
p1163
(lp1164
(L3211713899L
L0L
(lp1165
(lp1166
tp1167
a(L3248315554L
L3785322319L
(lp1168
(lp1169
V__assert_func
p1170
atp1171
a(L1839043401L
L0L
(lp1172
(lp1173
tp1174
a(L1673513644L
L0L
(lp1175
(lp1176
tp1177
a(L1829177773L
L3785322319L
(lp1178
(lp1179
Vrtc_clk_slow_src_get
p1180
atp1181
a(L3008910671L
L0L
(lp1182
(lp1183
tp1184
a(L97689L
L0L
(lp1185
(lp1186
tp1187
a(L1725095778L
L0L
(lp1188
(lp1189
tp1190
a(L3028464L
L0L
(lp1191
(lp1192
tp1193
a(L3028481L
L0L
(lp1194
(lp1195
tp1196
a(L3450258779L
L0L
(lp1197
(lp1198
tp1199
a(L204864475L
L3785322319L
(lp1200
(lp1201
Vrtc_clk_xtal_freq_get
p1202
atp1203
a(L2780079961L
L0L
(lp1204
(lp1205
tp1206
a(L3609124145L
L0L
(lp1207
(lp1208
tp1209
a(L827207193L
L3785322319L
(lp1210
(lp1211
Vesp_log_early_timestamp
p1212
atp1213
a(L2258688482L
L0L
(lp1214
(lp1215
tp1216
a(L3360570486L
L0L
(lp1217
(lp1218
tp1219
a(L3553505594L
L0L
(lp1220
(lp1221
tp1222
a(L403361192L
L0L
(lp1223
(lp1224
tp1225
a(L3243404432L
L3785322319L
(lp1226
(lp1227
Vrtc_clk_8m_enable
p1228
atp1229
a(L1960044254L
L0L
(lp1230
(lp1231
tp1232
a(L569203943L
L0L
(lp1233
(lp1234
tp1235
a(L2910371777L
L0L
(lp1236
(lp1237
tp1238
a(L2902417580L
L0L
(lp1239
(lp1240
tp1241
a(L645786836L
L0L
(lp1242
(lp1243
tp1244
a(L3020204L
L0L
(lp1245
(lp1246
tp1247
a(L2235519328L
L0L
(lp1248
(lp1249
tp1250
a(L3429540926L
L0L
(lp1251
(lp1252
tp1253
a(L3028464L
L0L
(lp1254
(lp1255
tp1256
a(L3309590973L
L3785322319L
(lp1257
(lp1258
Vrtc_clk_8m_enable
p1259
atp1260
atp1261
sI1074237268
(Vbootloader_common_get_active_otadata
p1262
(lp1263
(L3317503532L
L0L
(lp1264
(lp1265
tp1266
a(L2503049265L
L1832448559L
(lp1267
(lp1268
Vbootloader_common_ota_select_valid
p1269
aVbootloader_common_ota_select_valid
p1270
aVbootloader_common_select_otadata
p1271
atp1272
a(L735741265L
L0L
(lp1273
(lp1274
tp1275
atp1276
sI1074238804
(Vcache_ll_l1_enable_bus
p1277
(lp1278
(L1908488057L
L0L
(lp1279
(lp1280
tp1281
atp1282
sI1074240592
(Vbootloader_sha256_finish
p1283
(lp1284
(L4066096136L
L0L
(lp1285
(lp1286
tp1287
a(L3125987449L
L0L
(lp1288
(lp1289
tp1290
a(L3884092851L
L3785322319L
(lp1291
(lp1292
V__assert_func
p1293
atp1294
a(L3020204L
L0L
(lp1295
(lp1296
tp1297
a(L1816853500L
L0L
(lp1298
(lp1299
tp1300
a(L2534656226L
L0L
(lp1301
(lp1302
tp1303
a(L551614134L
L3785322319L
(lp1304
(lp1305
Vbootloader_sha256_data
p1306
atp1307
a(L3281735505L
L0L
(lp1308
(lp1309
tp1310
a(L841302101L
L3785322319L
(lp1311
(lp1312
Vbootloader_sha256_data
p1313
atp1314
a(L3768329152L
L0L
(lp1315
(lp1316
tp1317
a(L657425439L
L0L
(lp1318
(lp1319
tp1320
a(L3930848034L
L0L
(lp1321
(lp1322
tp1323
a(L657425439L
L0L
(lp1324
(lp1325
tp1326
a(L4116699460L
L0L
(lp1327
(lp1328
tp1329
a(L3511307343L
L0L
(lp1330
(lp1331
tp1332
a(L3347778L
L0L
(lp1333
(lp1334
tp1335
a(L3360570486L
L0L
(lp1336
(lp1337
tp1338
atp1339
sI1074238544
(Vbootloader_clock_get_rated_freq_mhz
p1340
(lp1341
(L376617603L
L3785322319L
(lp1342
(lp1343
Vefuse_hal_get_rated_freq_mhz
p1344
atp1345
atp1346
sI1074238556
(Vlog_invalid_app_partition
p1347
(lp1348
(L3121159614L
L0L
(lp1349
(lp1350
tp1351
a(L3028464L
L0L
(lp1352
(lp1353
tp1354
a(L1381405837L
L3785322319L
(lp1355
(lp1356
Vesp_log_early_timestamp
p1357
atp1358
a(L3833270346L
L0L
(lp1359
(lp1360
tp1361
a(L3360570486L
L0L
(lp1362
(lp1363
tp1364
a(L3430459325L
L3785322319L
(lp1365
(lp1366
Vesp_log_early_timestamp
p1367
atp1368
a(L3309219235L
L3785322319L
(lp1369
(lp1370
Vesp_log_early_timestamp
p1371
atp1372
atp1373
sI1074244700
(Vrtc_clk_32k_enable_common
p1374
(lp1375
(L493234424L
L0L
(lp1376
(lp1377
tp1378
a(L97422L
L0L
(lp1379
(lp1380
tp1381
a(L2218417248L
L0L
(lp1382
(lp1383
tp1384
a(L3638412133L
L0L
(lp1385
(lp1386
tp1387
a(L51458120L
L0L
(lp1388
(lp1389
tp1390
atp1391
sI1074240088
(Vbootloader_reset
p1392
(lp1393
(L1083704575L
L3785322319L
(lp1394
(lp1395
Vbootloader_console_deinit
p1396
atp1397
a(L106L
L0L
(lp1398
(lp1399
tp1400
atp1401
sI1074234712
(Vbootloader_common_get_chip_ver_pkg
p1402
(lp1403
(L994406025L
L0L
(lp1404
(lp1405
tp1406
atp1407
sI1074245464
(Vrtc_clk_fast_src_set
p1408
(lp1409
(L3974279653L
L0L
(lp1410
(lp1411
tp1412
a(L3020187L
L0L
(lp1413
(lp1414
tp1415
a(L3827921190L
L3785322319L
(lp1416
(lp1417
Vabort
p1418
atp1419
a(L2904656757L
L0L
(lp1420
(lp1421
tp1422
a(L206212292L
L0L
(lp1423
(lp1424
tp1425
a(L300459962L
L0L
(lp1426
(lp1427
tp1428
atp1429
sI1074235236
(Vbootloader_execute_flash_command
p1430
(lp1431
(L2481595632L
L3785322319L
(lp1432
(lp1433
Vbootloader_flash_execute_command_common
p1434
atp1435
atp1436
sI1074240352
(Vindex_to_partition
p1437
(lp1438
(L4066096119L
L0L
(lp1439
(lp1440
tp1441
a(L1101255660L
L0L
(lp1442
(lp1443
tp1444
a(L1955702725L
L0L
(lp1445
(lp1446
tp1447
a(L3698927993L
L0L
(lp1448
(lp1449
tp1450
a(L2808906342L
L0L
(lp1451
(lp1452
tp1453
a(L4211744375L
L0L
(lp1454
(lp1455
tp1456
a(L3097778015L
L0L
(lp1457
(lp1458
tp1459
a(L1816235430L
L0L
(lp1460
(lp1461
tp1462
a(L2179185678L
L0L
(lp1463
(lp1464
tp1465
a(L3369319173L
L0L
(lp1466
(lp1467
tp1468
atp1469
sI1074244448
(Vwdt_hal_set_flashboot_en
p1470
(lp1471
(L2375320464L
L0L
(lp1472
(lp1473
tp1474
a(L3915867581L
L0L
(lp1475
(lp1476
tp1477
a(L3360570486L
L0L
(lp1478
(lp1479
tp1480
a(L1860344008L
L0L
(lp1481
(lp1482
tp1483
atp1484
sI1074269792
(Vbootloader_config_wdt
p1485
(lp1486
(L3738756377L
L505859776L
(lp1487
(lp1488
Vwdt_hal_write_protect_disable
p1489
aVwdt_hal_set_flashboot_en
p1490
aVwdt_hal_write_protect_enable
p1491
aVwdt_hal_init
p1492
aVrtc_clk_slow_freq_get_hz
p1493
aVwdt_hal_write_protect_disable
p1494
aVwdt_hal_config_stage
p1495
aVwdt_hal_enable
p1496
aVwdt_hal_write_protect_enable
p1497
aVwdt_hal_write_protect_disable
p1498
aVwdt_hal_set_flashboot_en
p1499
aVwdt_hal_write_protect_enable
p1500
atp1501
atp1502
sI1074270048
(Vesp_cpu_configure_region_protection
p1503
(lp1504
(L1698042428L
L0L
(lp1505
(lp1506
tp1507
a(L180431425L
L3785322319L
(lp1508
(lp1509
Vmpu_hal_set_region_access
p1510
atp1511
a(L2537388152L
L3785322319L
(lp1512
(lp1513
Vmpu_hal_set_region_access
p1514
atp1515
atp1516
sI1074237036
(Vbootloader_common_check_chip_validity
p1517
(lp1518
(L2080115690L
L0L
(lp1519
(lp1520
tp1521
a(L101167642L
L3785322319L
(lp1522
(lp1523
Vesp_log_early_timestamp
p1524
atp1525
a(L1299867982L
L0L
(lp1526
(lp1527
tp1528
a(L3360570486L
L0L
(lp1529
(lp1530
tp1531
a(L521940037L
L3785322319L
(lp1532
(lp1533
Vefuse_hal_chip_revision
p1534
atp1535
a(L1521164372L
L0L
(lp1536
(lp1537
tp1538
a(L1652761108L
L3785322319L
(lp1539
(lp1540
Vesp_log_early_timestamp
p1541
atp1542
a(L3028464L
L0L
(lp1543
(lp1544
tp1545
a(L1797954754L
L0L
(lp1546
(lp1547
tp1548
a(L106L
L0L
(lp1549
(lp1550
tp1551
a(L3027019L
L0L
(lp1552
(lp1553
tp1554
a(L106L
L0L
(lp1555
(lp1556
tp1557
a(L2173180754L
L3785322319L
(lp1558
(lp1559
Vesp_log_early_timestamp
p1560
atp1561
atp1562
sI1074236780
(Vefuse_hal_get_major_chip_version
p1563
(lp1564
(L503352333L
L0L
(lp1565
(lp1566
tp1567
a(L894792960L
L0L
(lp1568
(lp1569
tp1570
a(L724635033L
L0L
(lp1571
(lp1572
tp1573
a(L3360570486L
L0L
(lp1574
(lp1575
tp1576
atp1577
sI1074240876
(Vbootloader_ana_clock_glitch_reset_config
p1578
(lp1579
(L2100504542L
L0L
(lp1580
(lp1581
tp1582
atp1583
sI1074247784
(Vesp_rom_spiflash_erase_sector
p1584
(lp1585
(L209754944L
L0L
(lp1586
(lp1587
tp1588
a(L2258688483L
L0L
(lp1589
(lp1590
tp1591
a(L3360570486L
L0L
(lp1592
(lp1593
tp1594
a(L3212356251L
L3785322319L
(lp1595
(lp1596
Vesp_rom_spiflash_enable_write
p1597
atp1598
a(L184152988L
L0L
(lp1599
(lp1600
tp1601
a(L675211730L
L3785322319L
(lp1602
(lp1603
Vesp_rom_spiflash_wait_idle
p1604
atp1605
a(L3333707777L
L0L
(lp1606
(lp1607
tp1608
a(L3582858798L
L3785322319L
(lp1609
(lp1610
Vesp_rom_spiflash_wait_idle
p1611
atp1612
atp1613
sI1074240884
(Vprocess_checksum
p1614
(lp1615
(L4225894707L
L0L
(lp1616
(lp1617
tp1618
a(L3028481L
L0L
(lp1619
(lp1620
tp1621
a(L186886970L
L0L
(lp1622
(lp1623
tp1624
a(L2902417580L
L0L
(lp1625
(lp1626
tp1627
a(L3028481L
L0L
(lp1628
(lp1629
tp1630
a(L404508301L
L3785322319L
(lp1631
(lp1632
Vesp_log_early_timestamp
p1633
atp1634
a(L3620623795L
L0L
(lp1635
(lp1636
tp1637
a(L3236648107L
L3785322319L
(lp1638
(lp1639
Vbootloader_flash_read
p1640
atp1641
a(L735741265L
L0L
(lp1642
(lp1643
tp1644
a(L3020204L
L0L
(lp1645
(lp1646
tp1647
a(L2480703612L
L3785322319L
(lp1648
(lp1649
Vbootloader_sha256_data
p1650
atp1651
a(L3436105237L
L0L
(lp1652
(lp1653
tp1654
a(L106L
L0L
(lp1655
(lp1656
tp1657
atp1658
sI1074240112
(Vbootloader_utility_load_boot_image
p1659
(lp1660
(L1375294773L
L0L
(lp1661
(lp1662
tp1663
a(L2177418995L
L3785322319L
(lp1664
(lp1665
Vtry_load_partition
p1666
atp1667
a(L1305243774L
L3785322319L
(lp1668
(lp1669
Vload_image
p1670
atp1671
a(L1481893282L
L3785322319L
(lp1672
(lp1673
Vesp_log_early_timestamp
p1674
atp1675
a(L3827921190L
L3785322319L
(lp1676
(lp1677
Vbootloader_reset
p1678
atp1679
a(L1953693036L
L3785322319L
(lp1680
(lp1681
Vindex_to_partition
p1682
atp1683
a(L1204373741L
L3785322319L
(lp1684
(lp1685
Vtry_load_partition
p1686
atp1687
a(L1899865696L
L0L
(lp1688
(lp1689
tp1690
a(L2695355117L
L3785322319L
(lp1691
(lp1692
Vset_actual_ota_seq
p1693
atp1694
a(L1868897605L
L3785322319L
(lp1695
(lp1696
Vlog_invalid_app_partition
p1697
atp1698
a(L831650730L
L0L
(lp1699
(lp1700
tp1701
a(L3021737L
L0L
(lp1702
(lp1703
tp1704
a(L695456438L
L0L
(lp1705
(lp1706
tp1707
a(L1129532116L
L3785322319L
(lp1708
(lp1709
Vtry_load_partition
p1710
atp1711
a(L4022121633L
L3785322319L
(lp1712
(lp1713
Vesp_log_early_timestamp
p1714
atp1715
a(L2347390157L
L3785322319L
(lp1716
(lp1717
Vindex_to_partition
p1718
atp1719
a(L1204373741L
L3785322319L
(lp1720
(lp1721
Vtry_load_partition
p1722
atp1723
a(L3061261803L
L0L
(lp1724
(lp1725
tp1726
a(L3582858798L
L3785322319L
(lp1727
(lp1728
Vlog_invalid_app_partition
p1729
atp1730
a(L1285752117L
L3785322319L
(lp1731
(lp1732
Vesp_log_early_timestamp
p1733
atp1734
atp1735
sI1074246000
(Vrtc_clk_cpu_freq_set_config
p1736
(lp1737
(L2360939883L
L3785322319L
(lp1738
(lp1739
Vrtc_clk_xtal_freq_get
p1740
atp1741
a(L2308773007L
L0L
(lp1742
(lp1743
tp1744
a(L3253451229L
L1880226080L
(lp1745
(lp1746
Vrtc_clk_cpu_freq_to_xtal
p1747
aVrtc_clk_wait_for_slow_cycle
p1748
atp1749
a(L2243645672L
L0L
(lp1750
(lp1751
tp1752
a(L4002786498L
L0L
(lp1753
(lp1754
tp1755
a(L2736411858L
L3785322319L
(lp1756
(lp1757
Vrtc_clk_cpu_freq_to_xtal
p1758
atp1759
a(L3360570486L
L0L
(lp1760
(lp1761
tp1762
a(L2755207760L
L1832448559L
(lp1763
(lp1764
Vrtc_clk_cpu_freq_to_xtal
p1765
aVrtc_clk_wait_for_slow_cycle
p1766
aVrtc_clk_bbpll_disable
p1767
atp1768
a(L3020187L
L0L
(lp1769
(lp1770
tp1771
a(L106L
L0L
(lp1772
(lp1773
tp1774
a(L4047963807L
L1880226080L
(lp1775
(lp1776
Vrtc_clk_wait_for_slow_cycle
p1777
aVrtc_clk_xtal_freq_get
p1778
atp1779
a(L106L
L0L
(lp1780
(lp1781
tp1782
a(L2760149137L
L0L
(lp1783
(lp1784
tp1785
a(L83268611L
L0L
(lp1786
(lp1787
tp1788
a(L106L
L0L
(lp1789
(lp1790
tp1791
a(L82345090L
L0L
(lp1792
(lp1793
tp1794
a(L106L
L0L
(lp1795
(lp1796
tp1797
a(L2258718273L
L0L
(lp1798
(lp1799
tp1800
a(L3298883534L
L0L
(lp1801
(lp1802
tp1803
a(L3342915645L
L0L
(lp1804
(lp1805
tp1806
a(L1001325447L
L3785322319L
(lp1807
(lp1808
Vrtc_clk_cpu_freq_to_pll_mhz
p1809
atp1810
a(L4211651074L
L0L
(lp1811
(lp1812
tp1813
a(L83268344L
L0L
(lp1814
(lp1815
tp1816
a(L82344823L
L0L
(lp1817
(lp1818
tp1819
a(L1569180676L
L0L
(lp1820
(lp1821
tp1822
a(L2258837488L
L0L
(lp1823
(lp1824
tp1825
a(L2862615613L
L0L
(lp1826
(lp1827
tp1828
a(L1482311963L
L0L
(lp1829
(lp1830
tp1831
a(L133411965L
L0L
(lp1832
(lp1833
tp1834
a(L3673491036L
L0L
(lp1835
(lp1836
tp1837
a(L4197990447L
L0L
(lp1838
(lp1839
tp1840
a(L903154985L
L0L
(lp1841
(lp1842
tp1843
a(L3020187L
L0L
(lp1844
(lp1845
tp1846
a(L106L
L0L
(lp1847
(lp1848
tp1849
a(L1614513146L
L3785322319L
(lp1850
(lp1851
Vesp_rom_set_cpu_ticks_per_us
p1852
atp1853
atp1854
sI1074247536
(Vesp_rom_spiflash_enable_write
p1855
(lp1856
(L1607061878L
L3785322319L
(lp1857
(lp1858
Vesp_rom_spiflash_wait_idle
p1859
atp1860
a(L3333707777L
L0L
(lp1861
(lp1862
tp1863
a(L2258688484L
L0L
(lp1864
(lp1865
tp1866
a(L99543895L
L0L
(lp1867
(lp1868
tp1869
a(L2993202392L
L0L
(lp1870
(lp1871
tp1872
a(L374468446L
L3785322319L
(lp1873
(lp1874
Vesp_rom_spiflash_read_status
p1875
atp1876
atp1877
sI1074237308
(Vbootloader_common_ota_select_invalid
p1878
(lp1879
(L4027567199L
L0L
(lp1880
(lp1881
tp1882
a(L3397985842L
L0L
(lp1883
(lp1884
tp1885
a(L2258867228L
L0L
(lp1886
(lp1887
tp1888
a(L3785235668L
L0L
(lp1889
(lp1890
tp1891
atp1892
sI1074245244
(Vrtc_clk_8m_enabled
p1893
(lp1894
(L4125363490L
L0L
(lp1895
(lp1896
tp1897
atp1898
sI1074234744
(Vesp_flash_encryption_enabled
p1899
(lp1900
(L376617603L
L3785322319L
(lp1901
(lp1902
Vefuse_hal_flash_encryption_enabled
p1903
atp1904
atp1905
sI1074236536
(Vesp_rom_set_cpu_ticks_per_us
p1906
(lp1907
(L2370326522L
L0L
(lp1908
(lp1909
tp1910
atp1911
sI1074243204
(Vbootloader_load_image
p1912
(lp1913
(L1155870502L
L3785322319L
(lp1914
(lp1915
Vimage_load
p1916
atp1917
atp1918
sI1074235268
(Vbootloader_flash_unlock
p1919
(lp1920
(L485855552L
L3785322319L
(lp1921
(lp1922
Vesp_rom_spiflash_wait_idle
p1923
atp1924
a(L711923870L
L0L
(lp1925
(lp1926
tp1927
a(L3507311156L
L3785322319L
(lp1928
(lp1929
Vbootloader_execute_flash_command
p1930
atp1931
a(L4103218025L
L0L
(lp1932
(lp1933
tp1934
a(L2529045083L
L0L
(lp1935
(lp1936
tp1937
a(L1175784077L
L1832448559L
(lp1938
(lp1939
Vesp_rom_spiflash_wait_idle
p1940
aVbootloader_execute_flash_command
p1941
aVbootloader_execute_flash_command
p1942
atp1943
a(L106L
L0L
(lp1944
(lp1945
tp1946
a(L594961218L
L1880226080L
(lp1947
(lp1948
Vesp_rom_spiflash_wait_idle
p1949
aVbootloader_execute_flash_command
p1950
atp1951
a(L2993202392L
L0L
(lp1952
(lp1953
tp1954
a(L610618707L
L0L
(lp1955
(lp1956
tp1957
a(L2843273676L
L0L
(lp1958
(lp1959
tp1960
a(L192015437L
L0L
(lp1961
(lp1962
tp1963
a(L3154322046L
L1880226080L
(lp1964
(lp1965
Vbootloader_execute_flash_command
p1966
aVbootloader_execute_flash_command
p1967
atp1968
a(L1303560644L
L0L
(lp1969
(lp1970
tp1971
a(L1711531685L
L1880226080L
(lp1972
(lp1973
Vbootloader_execute_flash_command
p1974
aVbootloader_execute_flash_command
p1975
atp1976
a(L3658700047L
L0L
(lp1977
(lp1978
tp1979
a(L3430607254L
L0L
(lp1980
(lp1981
tp1982
a(L106L
L0L
(lp1983
(lp1984
tp1985
a(L1876788132L
L1832448559L
(lp1986
(lp1987
Vesp_rom_spiflash_wait_idle
p1988
aVbootloader_execute_flash_command
p1989
aVbootloader_execute_flash_command
p1990
atp1991
atp1992
sI1074234756
(Vbootloader_flash_execute_command_common
p1993
(lp1994
(L3865052895L
L0L
(lp1995
(lp1996
tp1997
a(L3287175997L
L0L
(lp1998
(lp1999
tp2000
a(L4121451103L
L3785322319L
(lp2001
(lp2002
V__assert_func
p2003
atp2004
a(L3021749L
L0L
(lp2005
(lp2006
tp2007
a(L3999871943L
L0L
(lp2008
(lp2009
tp2010
a(L543316797L
L0L
(lp2011
(lp2012
tp2013
a(L2091933878L
L0L
(lp2014
(lp2015
tp2016
a(L1702379862L
L0L
(lp2017
(lp2018
tp2019
a(L3432464320L
L0L
(lp2020
(lp2021
tp2022
a(L3539375712L
L0L
(lp2023
(lp2024
tp2025
a(L3244449450L
L0L
(lp2026
(lp2027
tp2028
a(L4233404408L
L0L
(lp2029
(lp2030
tp2031
a(L2990329343L
L0L
(lp2032
(lp2033
tp2034
a(L2051090536L
L0L
(lp2035
(lp2036
tp2037
a(L3333696662L
L0L
(lp2038
(lp2039
tp2040
a(L963425213L
L0L
(lp2041
(lp2042
tp2043
a(L339491738L
L0L
(lp2044
(lp2045
tp2046
a(L3360570486L
L0L
(lp2047
(lp2048
tp2049
atp2050
sI1074244996
(Vrtc_clk_bbpll_disable
p2051
(lp2052
(L3905321210L
L0L
(lp2053
(lp2054
tp2055
a(L2472207241L
L0L
(lp2056
(lp2057
tp2058
a(L3360570486L
L0L
(lp2059
(lp2060
tp2061
atp2062
sI1074236552
(Vesp_rom_uart_tx_wait_idle
p2063
(lp2064
(L2849601099L
L0L
(lp2065
(lp2066
tp2067
a(L1301079727L
L0L
(lp2068
(lp2069
tp2070
a(L597952197L
L0L
(lp2071
(lp2072
tp2073
a(L1971823332L
L0L
(lp2074
(lp2075
tp2076
a(L3055926844L
L0L
(lp2077
(lp2078
tp2079
a(L3360570486L
L0L
(lp2080
(lp2081
tp2082
a(L3694491048L
L0L
(lp2083
(lp2084
tp2085
a(L106L
L0L
(lp2086
(lp2087
tp2088
atp2089
sI1074238856
(Vcache_ll_l1_enable_bus
p2090
(lp2091
(L1408514293L
L0L
(lp2092
(lp2093
tp2094
atp2095
sI1074268056
(Vbootloader_init
p2096
(lp2097
(L1256100286L
L3785322319L
(lp2098
(lp2099
Vbootloader_init_mem
p2100
atp2101
a(L496177411L
L0L
(lp2102
(lp2103
tp2104
a(L2027378118L
L3785322319L
(lp2105
(lp2106
V__assert_func
p2107
atp2108
a(L408886226L
L0L
(lp2109
(lp2110
tp2111
a(L2892662435L
L0L
(lp2112
(lp2113
tp2114
a(L3813782018L
L0L
(lp2115
(lp2116
tp2117
a(L3379255958L
L0L
(lp2118
(lp2119
tp2120
a(L3027019L
L0L
(lp2121
(lp2122
tp2123
a(L3949229104L
L0L
(lp2124
(lp2125
tp2126
a(L4055793689L
L1832448559L
(lp2127
(lp2128
Vbootloader_clear_bss_section
p2129
aVbootloader_common_vddsdio_configure
p2130
aVbootloader_clock_get_rated_freq_mhz
p2131
atp2132
a(L106L
L0L
(lp2133
(lp2134
tp2135
a(L87629889L
L1157885199L
(lp2136
(lp2137
Vbootloader_clock_configure
p2138
aVbootloader_console_init
p2139
aVbootloader_print_banner
p2140
aVbootloader_flash_update_id
p2141
aVbootloader_flash_xmc_startup
p2142
atp2143
a(L296996763L
L3785322319L
(lp2144
(lp2145
Vesp_log_early_timestamp
p2146
atp2147
a(L657010908L
L3785322319L
(lp2148
(lp2149
Vesp_log_early_timestamp
p2150
atp2151
a(L3360570486L
L0L
(lp2152
(lp2153
tp2154
a(L2444883382L
L3785322319L
(lp2155
(lp2156
Vbootloader_read_bootloader_header
p2157
atp2158
a(L2444883382L
L3785322319L
(lp2159
(lp2160
Vbootloader_check_bootloader_validity
p2161
atp2162
a(L2444883382L
L3785322319L
(lp2163
(lp2164
Vbootloader_init_spi_flash
p2165
atp2166
a(L3638850911L
L0L
(lp2167
(lp2168
tp2169
a(L254817508L
L0L
(lp2170
(lp2171
tp2172
a(L93892250L
L0L
(lp2173
(lp2174
tp2175
a(L2915015718L
L0L
(lp2176
(lp2177
tp2178
a(L1634500369L
L1880226080L
(lp2179
(lp2180
Vbootloader_config_wdt
p2181
aVbootloader_enable_random
p2182
atp2183
a(L1895147938L
L0L
(lp2184
(lp2185
tp2186
a(L2680457259L
L0L
(lp2187
(lp2188
tp2189
a(L3027019L
L0L
(lp2190
(lp2191
tp2192
a(L97315L
L0L
(lp2193
(lp2194
tp2195
a(L1442646668L
L3785322319L
(lp2196
(lp2197
Vesp_log_early_timestamp
p2198
atp2199
a(L4094931264L
L3785322319L
(lp2200
(lp2201
Vesp_log_early_timestamp
p2202
atp2203
a(L3164960223L
L0L
(lp2204
(lp2205
tp2206
a(L1895147938L
L0L
(lp2207
(lp2208
tp2209
a(L156585483L
L1880226080L
(lp2210
(lp2211
Vwdt_reset_info_dump
p2212
aVwdt_reset_info_dump
p2213
atp2214
atp2215
sI1074268568
(Vbootloader_common_vddsdio_configure
p2216
(lp2217
(L1829974089L
L3785322319L
(lp2218
(lp2219
Vrtc_vddsdio_get_config
p2220
atp2221
a(L2795064753L
L3785322319L
(lp2222
(lp2223
Vrtc_vddsdio_set_config
p2224
atp2225
a(L3360570486L
L0L
(lp2226
(lp2227
tp2228
atp2229
sI1074243220
(Vesp_partition_table_verify
p2230
(lp2231
(L3052823174L
L0L
(lp2232
(lp2233
tp2234
a(L1787509322L
L0L
(lp2235
(lp2236
tp2237
a(L1184829782L
L0L
(lp2238
(lp2239
tp2240
a(L3020204L
L0L
(lp2241
(lp2242
tp2243
a(L2512375030L
L3785322319L
(lp2244
(lp2245
Vesp_log_early_timestamp
p2246
atp2247
a(L1235012963L
L0L
(lp2248
(lp2249
tp2250
a(L3190337587L
L0L
(lp2251
(lp2252
tp2253
a(L2069928857L
L0L
(lp2254
(lp2255
tp2256
a(L2902417580L
L0L
(lp2257
(lp2258
tp2259
a(L1997576908L
L3785322319L
(lp2260
(lp2261
Vesp_log_early_timestamp
p2262
atp2263
a(L1535212808L
L0L
(lp2264
(lp2265
tp2266
a(L3020204L
L0L
(lp2267
(lp2268
tp2269
a(L3020204L
L0L
(lp2270
(lp2271
tp2272
a(L757174634L
L3785322319L
(lp2273
(lp2274
Vesp_log_early_timestamp
p2275
atp2276
a(L3833270346L
L0L
(lp2277
(lp2278
tp2279
a(L1235012932L
L0L
(lp2280
(lp2281
tp2282
a(L3307599839L
L0L
(lp2283
(lp2284
tp2285
a(L3020204L
L0L
(lp2286
(lp2287
tp2288
a(L1997576660L
L3785322319L
(lp2289
(lp2290
Vesp_log_early_timestamp
p2291
atp2292
a(L1305407469L
L0L
(lp2293
(lp2294
tp2295
a(L1167861556L
L0L
(lp2296
(lp2297
tp2298
a(L818997085L
L0L
(lp2299
(lp2300
tp2301
a(L3360570486L
L0L
(lp2302
(lp2303
tp2304
a(L3020204L
L0L
(lp2305
(lp2306
tp2307
a(L912913761L
L3785322319L
(lp2308
(lp2309
Vesp_log_early_timestamp
p2310
atp2311
atp2312
sI1074245268
(Vrtc_clk_8md256_enabled
p2313
(lp2314
(L3280891619L
L0L
(lp2315
(lp2316
tp2317
atp2318
sI1074248084
(Vesp_rom_spiflash_write_encrypted
p2319
(lp2320
(L1944247967L
L0L
(lp2321
(lp2322
tp2323
a(L484831750L
L0L
(lp2324
(lp2325
tp2326
a(L97689L
L0L
(lp2327
(lp2328
tp2329
a(L3061232074L
L0L
(lp2330
(lp2331
tp2332
a(L364518710L
L0L
(lp2333
(lp2334
tp2335
a(L1309309703L
L3785322319L
(lp2336
(lp2337
Vesp_rom_spiflash_write
p2338
atp2339
a(L1246748027L
L0L
(lp2340
(lp2341
tp2342
a(L735741265L
L0L
(lp2343
(lp2344
tp2345
atp2346
sI1074270096
(Vrtc_clk_xtal_freq_estimate
p2347
(lp2348
(L1823831978L
L1880226080L
(lp2349
(lp2350
Vrtc_clk_8m_enabled
p2351
aVrtc_clk_8md256_enabled
p2352
atp2353
a(L2449794434L
L3785322319L
(lp2354
(lp2355
Vrtc_clk_8m_enable
p2356
atp2357
a(L853245806L
L3785322319L
(lp2358
(lp2359
Vrtc_clk_cal_ratio
p2360
atp2361
a(L3934977694L
L0L
(lp2362
(lp2363
tp2364
a(L3955289886L
L0L
(lp2365
(lp2366
tp2367
a(L2836128282L
L3785322319L
(lp2368
(lp2369
Vesp_log_early_timestamp
p2370
atp2371
a(L2307427870L
L0L
(lp2372
(lp2373
tp2374
a(L1281346514L
L3785322319L
(lp2375
(lp2376
Vrtc_clk_8m_enable
p2377
atp2378
a(L3909119106L
L0L
(lp2379
(lp2380
tp2381
a(L609099921L
L3785322319L
(lp2382
(lp2383
Vesp_log_early_timestamp
p2384
atp2385
a(L3304487880L
L0L
(lp2386
(lp2387
tp2388
a(L1641150486L
L0L
(lp2389
(lp2390
tp2391
a(L2362505285L
L3785322319L
(lp2392
(lp2393
Vesp_log_early_timestamp
p2394
atp2395
atp2396
sI1074270868
(Vrtc_vddsdio_set_config
p2397
(lp2398
(L2761419615L
L0L
(lp2399
(lp2400
tp2401
atp2402
sI1074237336
(Vbootloader_common_select_otadata
p2403
(lp2404
(L4071767857L
L0L
(lp2405
(lp2406
tp2407
a(L1999329187L
L0L
(lp2408
(lp2409
tp2410
a(L3846398843L
L0L
(lp2411
(lp2412
tp2413
a(L2501968171L
L0L
(lp2414
(lp2415
tp2416
a(L3360570486L
L0L
(lp2417
(lp2418
tp2419
a(L2045232488L
L0L
(lp2420
(lp2421
tp2422
a(L1243525916L
L0L
(lp2423
(lp2424
tp2425
a(L3094144427L
L0L
(lp2426
(lp2427
tp2428
a(L2399509845L
L0L
(lp2429
(lp2430
tp2431
a(L1641201884L
L0L
(lp2432
(lp2433
tp2434
atp2435
sI1074245528
(Vrtc_clk_fast_src_get
p2436
(lp2437
(L2355769504L
L0L
(lp2438
(lp2439
tp2440
atp2441
sI1074269352
(Vbootloader_flash_update_id
p2442
(lp2443
(L3587584986L
L3785322319L
(lp2444
(lp2445
Vbootloader_read_flash_id
p2446
atp2447
atp2448
sI1074235556
(Vbootloader_flash_read_sfdp
p2449
(lp2450
(L711701400L
L0L
(lp2451
(lp2452
tp2453
a(L3305374083L
L3785322319L
(lp2454
(lp2455
V__assert_func
p2456
atp2457
a(L3704332455L
L3785322319L
(lp2458
(lp2459
Vbootloader_flash_execute_command_common
p2460
atp2461
atp2462
sI1074242724
(Vimage_load
p2463
(lp2464
(L3048705773L
L0L
(lp2465
(lp2466
tp2467
a(L3463713141L
L0L
(lp2468
(lp2469
tp2470
a(L3309803581L
L0L
(lp2471
(lp2472
tp2473
a(L256049682L
L0L
(lp2474
(lp2475
tp2476
a(L1935188817L
L0L
(lp2477
(lp2478
tp2479
a(L3028481L
L0L
(lp2480
(lp2481
tp2482
a(L3021749L
L0L
(lp2483
(lp2484
tp2485
a(L106L
L0L
(lp2486
(lp2487
tp2488
a(L585264737L
L0L
(lp2489
(lp2490
tp2491
a(L1145291904L
L3785322319L
(lp2492
(lp2493
Vprocess_image_header
p2494
atp2495
a(L823859500L
L0L
(lp2496
(lp2497
tp2498
a(L3061291474L
L0L
(lp2499
(lp2500
tp2501
a(L4106474008L
L3785322319L
(lp2502
(lp2503
Vprocess_segments
p2504
atp2505
a(L3868840998L
L0L
(lp2506
(lp2507
tp2508
a(L2539156582L
L0L
(lp2509
(lp2510
tp2511
a(L1827898452L
L3785322319L
(lp2512
(lp2513
Vprocess_checksum
p2514
atp2515
a(L2214715179L
L3785322319L
(lp2516
(lp2517
Vprocess_appended_hash_and_sig
p2518
atp2519
a(L3028481L
L0L
(lp2520
(lp2521
tp2522
a(L2902417580L
L0L
(lp2523
(lp2524
tp2525
a(L3285560995L
L3785322319L
(lp2526
(lp2527
Vbootloader_sha256_finish
p2528
atp2529
a(L3946560000L
L0L
(lp2530
(lp2531
tp2532
a(L93674324L
L0L
(lp2533
(lp2534
tp2535
a(L1697897005L
L0L
(lp2536
(lp2537
tp2538
a(L772115669L
L0L
(lp2539
(lp2540
tp2541
a(L1179424413L
L0L
(lp2542
(lp2543
tp2544
a(L3928150917L
L0L
(lp2545
(lp2546
tp2547
a(L106L
L0L
(lp2548
(lp2549
tp2550
a(L3871473710L
L0L
(lp2551
(lp2552
tp2553
a(L3884726427L
L0L
(lp2554
(lp2555
tp2556
a(L106L
L0L
(lp2557
(lp2558
tp2559
a(L3020187L
L0L
(lp2560
(lp2561
tp2562
a(L1154787525L
L3785322319L
(lp2563
(lp2564
Vesp_log_early_timestamp
p2565
atp2566
a(L2868044067L
L0L
(lp2567
(lp2568
tp2569
a(L1179764900L
L0L
(lp2570
(lp2571
tp2572
a(L2332746046L
L3785322319L
(lp2573
(lp2574
Vbootloader_sha256_finish
p2575
atp2576
a(L2040089937L
L0L
(lp2577
(lp2578
tp2579
a(L3020204L
L0L
(lp2580
(lp2581
tp2582
a(L2321110974L
L0L
(lp2583
(lp2584
tp2585
a(L106L
L0L
(lp2586
(lp2587
tp2588
a(L4011122867L
L1880226080L
(lp2589
(lp2590
Vbootloader_sha256_finish
p2591
aVbootloader_debug_buffer
p2592
atp2593
a(L4175189927L
L1880226080L
(lp2594
(lp2595
Vesp_log_early_timestamp
p2596
aVbootloader_debug_buffer
p2597
atp2598
a(L3741653406L
L3785322319L
(lp2599
(lp2600
Vshould_load
p2601
atp2602
a(L2764257181L
L0L
(lp2603
(lp2604
tp2605
a(L3338774213L
L0L
(lp2606
(lp2607
tp2608
a(L3464541874L
L0L
(lp2609
(lp2610
tp2611
a(L3349572949L
L0L
(lp2612
(lp2613
tp2614
a(L2192292519L
L0L
(lp2615
(lp2616
tp2617
a(L106L
L0L
(lp2618
(lp2619
tp2620
a(L26615924L
L0L
(lp2621
(lp2622
tp2623
a(L1299866312L
L0L
(lp2624
(lp2625
tp2626
a(L3010020263L
L0L
(lp2627
(lp2628
tp2629
atp2630
sI1074244516
(Vwdt_hal_write_protect_enable
p2631
(lp2632
(L387778158L
L0L
(lp2633
(lp2634
tp2635
a(L4195472003L
L0L
(lp2636
(lp2637
tp2638
a(L3360570486L
L0L
(lp2639
(lp2640
tp2641
a(L802523425L
L0L
(lp2642
(lp2643
tp2644
atp2645
sI1074243488
(Vwdt_hal_init
p2646
(lp2647
(L584362441L
L0L
(lp2648
(lp2649
tp2650
a(L106L
L0L
(lp2651
(lp2652
tp2653
a(L2104869666L
L0L
(lp2654
(lp2655
tp2656
a(L3076988543L
L0L
(lp2657
(lp2658
tp2659
a(L3642440310L
L0L
(lp2660
(lp2661
tp2662
a(L3028464L
L0L
(lp2663
(lp2664
tp2665
a(L826451645L
L0L
(lp2666
(lp2667
tp2668
a(L2196941787L
L0L
(lp2669
(lp2670
tp2671
a(L26809647L
L0L
(lp2672
(lp2673
tp2674
a(L3360570486L
L0L
(lp2675
(lp2676
tp2677
atp2678
sI1074240416
(Vbootloader_debug_buffer
p2679
(lp2680
(L2100504542L
L0L
(lp2681
(lp2682
tp2683
atp2684
sI1074235808
(Vbootloader_flash_cs_timing_config
p2685
(lp2686
(L1940014330L
L0L
(lp2687
(lp2688
tp2689
atp2690
sI1074245292
(Vrtc_clk_slow_src_set
p2691
(lp2692
(L351921003L
L0L
(lp2693
(lp2694
tp2695
a(L3020187L
L0L
(lp2696
(lp2697
tp2698
a(L3028481L
L0L
(lp2699
(lp2700
tp2701
a(L487821223L
L0L
(lp2702
(lp2703
tp2704
a(L2160049175L
L0L
(lp2705
(lp2706
tp2707
a(L1851908495L
L0L
(lp2708
(lp2709
tp2710
a(L382170874L
L0L
(lp2711
(lp2712
tp2713
a(L3138544334L
L0L
(lp2714
(lp2715
tp2716
a(L94425498L
L3785322319L
(lp2717
(lp2718
Vabort
p2719
atp2720
atp2721
sI1074238120
(Vbootloader_enable_wp
p2722
(lp2723
(L1117825804L
L3785322319L
(lp2724
(lp2725
Vbootloader_execute_flash_command
p2726
atp2727
atp2728
sI1074240424
(Vbootloader_sha256_start
p2729
(lp2730
(L260677377L
L0L
(lp2731
(lp2732
tp2733
atp2734
sI1074245544
(Vrtc_clk_xtal_freq_get
p2735
(lp2736
(L1996970978L
L0L
(lp2737
(lp2738
tp2739
a(L2847936993L
L0L
(lp2740
(lp2741
tp2742
a(L2568986948L
L0L
(lp2743
(lp2744
tp2745
a(L3360570486L
L0L
(lp2746
(lp2747
tp2748
atp2749
sI1074247592
(Vesp_rom_spiflash_program_page_internal
p2750
(lp2751
(L2569069283L
L0L
(lp2752
(lp2753
tp2754
a(L2258688483L
L0L
(lp2755
(lp2756
tp2757
a(L3360570486L
L0L
(lp2758
(lp2759
tp2760
a(L328133326L
L0L
(lp2761
(lp2762
tp2763
a(L4235661475L
L3785322319L
(lp2764
(lp2765
Vesp_rom_spiflash_wait_idle
p2766
atp2767
a(L1299866312L
L0L
(lp2768
(lp2769
tp2770
a(L3212356251L
L3785322319L
(lp2771
(lp2772
Vesp_rom_spiflash_enable_write
p2773
atp2774
a(L1757758545L
L0L
(lp2775
(lp2776
tp2777
a(L3222092521L
L0L
(lp2778
(lp2779
tp2780
a(L2953702749L
L0L
(lp2781
(lp2782
tp2783
a(L2989032L
L0L
(lp2784
(lp2785
tp2786
a(L1965622133L
L0L
(lp2787
(lp2788
tp2789
a(L2236003503L
L0L
(lp2790
(lp2791
tp2792
a(L1958113242L
L0L
(lp2793
(lp2794
tp2795
a(L106L
L0L
(lp2796
(lp2797
tp2798
a(L3112950080L
L0L
(lp2799
(lp2800
tp2801
a(L1868606439L
L0L
(lp2802
(lp2803
tp2804
a(L1008983218L
L0L
(lp2805
(lp2806
tp2807
a(L1933954923L
L0L
(lp2808
(lp2809
tp2810
a(L1147866918L
L0L
(lp2811
(lp2812
tp2813
a(L3871602522L
L0L
(lp2814
(lp2815
tp2816
atp2817
sI1074267832
(Vwdt_reset_info_dump
p2818
(lp2819
(L4037458708L
L0L
(lp2820
(lp2821
tp2822
a(L522353410L
L0L
(lp2823
(lp2824
tp2825
a(L217258670L
L0L
(lp2826
(lp2827
tp2828
a(L1103285333L
L0L
(lp2829
(lp2830
tp2831
a(L4222762845L
L3785322319L
(lp2832
(lp2833
Vesp_log_early_timestamp
p2834
atp2835
a(L2967992533L
L0L
(lp2836
(lp2837
tp2838
a(L1493818067L
L0L
(lp2839
(lp2840
tp2841
a(L4025433257L
L3785322319L
(lp2842
(lp2843
Vesp_log_early_timestamp
p2844
atp2845
atp2846
sI1074268856
(Vbootloader_init_mem
p2847
(lp2848
(L1287383080L
L3785322319L
(lp2849
(lp2850
Vesp_cpu_configure_region_protection
p2851
atp2852
atp2853
sI1074269368
(Vbootloader_init_spi_flash
p2854
(lp2855
(L1156132900L
L2485746240L
(lp2856
(lp2857
Vbootloader_flash_gpio_config
p2858
aVbootloader_flash_dummy_config
p2859
aVbootloader_flash_cs_timing_config
p2860
aVbootloader_flash_unlock
p2861
atp2862
a(L582446944L
L0L
(lp2863
(lp2864
tp2865
a(L3652859485L
L0L
(lp2866
(lp2867
tp2868
a(L3201442148L
L0L
(lp2869
(lp2870
tp2871
a(L1305670861L
L3785322319L
(lp2872
(lp2873
Vesp_log_early_timestamp
p2874
atp2875
a(L2177628073L
L0L
(lp2876
(lp2877
tp2878
a(L2181322157L
L0L
(lp2879
(lp2880
tp2881
a(L2221033560L
L0L
(lp2882
(lp2883
tp2884
a(L2206256728L
L0L
(lp2885
(lp2886
tp2887
a(L703426222L
L0L
(lp2888
(lp2889
tp2890
a(L706396929L
L3785322319L
(lp2891
(lp2892
Vesp_log_early_timestamp
p2893
atp2894
a(L93674324L
L0L
(lp2895
(lp2896
tp2897
a(L3405401315L
L0L
(lp2898
(lp2899
tp2900
a(L3738746921L
L0L
(lp2901
(lp2902
tp2903
a(L460460808L
L0L
(lp2904
(lp2905
tp2906
a(L3746143366L
L0L
(lp2907
(lp2908
tp2909
a(L650365607L
L3785322319L
(lp2910
(lp2911
Vesp_log_early_timestamp
p2912
atp2913
a(L93674324L
L0L
(lp2914
(lp2915
tp2916
a(L3422553167L
L0L
(lp2917
(lp2918
tp2919
a(L1707909459L
L0L
(lp2920
(lp2921
tp2922
a(L4101522284L
L0L
(lp2923
(lp2924
tp2925
a(L246698275L
L3785322319L
(lp2926
(lp2927
Vbootloader_enable_wp
p2928
atp2929
a(L3907331784L
L0L
(lp2930
(lp2931
tp2932
atp2933
sI1074236848
(Vefuse_hal_get_minor_chip_version
p2934
(lp2935
(L2721608854L
L0L
(lp2936
(lp2937
tp2938
atp2939
sI1074238640
(Vcache_ll_l1_get_bus
p2940
(lp2941
(L3820023252L
L0L
(lp2942
(lp2943
tp2944
a(L94425498L
L3785322319L
(lp2945
(lp2946
Vabort
p2947
atp2948
a(L3179088012L
L0L
(lp2949
(lp2950
tp2951
a(L3485549502L
L0L
(lp2952
(lp2953
tp2954
a(L892952750L
L0L
(lp2955
(lp2956
tp2957
a(L1182811810L
L0L
(lp2958
(lp2959
tp2960
a(L1101742417L
L0L
(lp2961
(lp2962
tp2963
a(L1100767927L
L0L
(lp2964
(lp2965
tp2966
a(L3360570486L
L0L
(lp2967
(lp2968
tp2969
a(L2767111967L
L0L
(lp2970
(lp2971
tp2972
a(L2882938163L
L0L
(lp2973
(lp2974
tp2975
a(L2927201858L
L0L
(lp2976
(lp2977
tp2978
a(L2258718273L
L0L
(lp2979
(lp2980
tp2981
a(L2580713941L
L0L
(lp2982
(lp2983
tp2984
a(L2748641547L
L0L
(lp2985
(lp2986
tp2987
a(L2752340901L
L0L
(lp2988
(lp2989
tp2990
a(L1641149277L
L0L
(lp2991
(lp2992
tp2993
a(L3211405977L
L0L
(lp2994
(lp2995
tp2996
a(L3027019L
L0L
(lp2997
(lp2998
tp2999
a(L1299866560L
L0L
(lp3000
(lp3001
tp3002
a(L1299866436L
L0L
(lp3003
(lp3004
tp3005
atp3006
sI1074240444
(Vbootloader_sha256_data
p3007
(lp3008
(L4066096136L
L0L
(lp3009
(lp3010
tp3011
a(L110883720L
L0L
(lp3012
(lp3013
tp3014
a(L3884092851L
L3785322319L
(lp3015
(lp3016
V__assert_func
p3017
atp3018
a(L498498478L
L0L
(lp3019
(lp3020
tp3021
a(L534463199L
L0L
(lp3022
(lp3023
tp3024
a(L2910371777L
L0L
(lp3025
(lp3026
tp3027
a(L3360570486L
L0L
(lp3028
(lp3029
tp3030
a(L1788837773L
L0L
(lp3031
(lp3032
tp3033
a(L248495140L
L0L
(lp3034
(lp3035
tp3036
a(L106045974L
L0L
(lp3037
(lp3038
tp3039
a(L4275021735L
L0L
(lp3040
(lp3041
tp3042
a(L814105420L
L0L
(lp3043
(lp3044
tp3045
a(L1394964493L
L0L
(lp3046
(lp3047
tp3048
a(L2437413408L
L0L
(lp3049
(lp3050
tp3051
a(L702738185L
L0L
(lp3052
(lp3053
tp3054
a(L3745004802L
L0L
(lp3055
(lp3056
tp3057
atp3058
sI1074238908
(Vload_image
p3059
(lp3060
(L4055976749L
L1832448559L
(lp3061
(lp3062
Vesp_log_early_timestamp
p3063
aVbootloader_random_disable
p3064
aVbootloader_ana_clock_glitch_reset_config
p3065
atp3066
a(L2261049225L
L0L
(lp3067
(lp3068
tp3069
a(L106L
L0L
(lp3070
(lp3071
tp3072
a(L452592812L
L3758435744L
(lp3073
(lp3074
Vmmu_hal_unmap_all
p3075
aVcache_ll_l1_get_bus
p3076
aVcache_ll_l1_enable_bus
p3077
aVcache_ll_l1_get_bus
p3078
aVcache_ll_l1_enable_bus
p3079
aVcache_ll_l1_get_bus
p3080
aVcache_ll_l1_enable_bus
p3081
aVcache_ll_l1_get_bus
p3082
aVcache_ll_l1_enable_bus
p3083
aVbootloader_console_deinit
p3084
atp3085
a(L1385141500L
L0L
(lp3086
(lp3087
tp3088
a(L2902417580L
L0L
(lp3089
(lp3090
tp3091
a(L4167095070L
L3785322319L
(lp3092
(lp3093
Vesp_log_early_timestamp
p3094
atp3095
a(L2552261596L
L0L
(lp3096
(lp3097
tp3098
a(L70617440L
L0L
(lp3099
(lp3100
tp3101
a(L3020204L
L0L
(lp3102
(lp3103
tp3104
a(L1040324029L
L3785322319L
(lp3105
(lp3106
Vesp_log_early_timestamp
p3107
atp3108
a(L3291469664L
L0L
(lp3109
(lp3110
tp3111
a(L2591655545L
L0L
(lp3112
(lp3113
tp3114
atp3115
sI1074238140
(Vbootloader_mmap_get_free_pages
p3116
(lp3117
(L1496516875L
L0L
(lp3118
(lp3119
tp3120
atp3121
sI1074245816
(Vrtc_clk_xtal_freq_update
p3122
(lp3123
(L1600643482L
L0L
(lp3124
(lp3125
tp3126
a(L3509357017L
L0L
(lp3127
(lp3128
tp3129
a(L2266180931L
L0L
(lp3130
(lp3131
tp3132
atp3133
sI1074238148
(Vbootloader_fill_random
p3134
(lp3135
(L1233865241L
L0L
(lp3136
(lp3137
tp3138
a(L3569542132L
L3785322319L
(lp3139
(lp3140
V__assert_func
p3141
atp3142
a(L1882547218L
L0L
(lp3143
(lp3144
tp3145
a(L2910371777L
L0L
(lp3146
(lp3147
tp3148
a(L95634693L
L0L
(lp3149
(lp3150
tp3151
a(L3630908706L
L0L
(lp3152
(lp3153
tp3154
a(L160162640L
L0L
(lp3155
(lp3156
tp3157
a(L97689L
L0L
(lp3158
(lp3159
tp3160
a(L3360570486L
L0L
(lp3161
(lp3162
tp3163
atp3164
sI1074241984
(Vprocess_segments
p3165
(lp3166
(L1326203493L
L0L
(lp3167
(lp3168
tp3169
a(L1640778736L
L0L
(lp3170
(lp3171
tp3172
a(L3782401745L
L0L
(lp3173
(lp3174
tp3175
a(L106L
L0L
(lp3176
(lp3177
tp3178
a(L3028481L
L0L
(lp3179
(lp3180
tp3181
a(L1742099198L
L3785322319L
(lp3182
(lp3183
Vesp_log_early_timestamp
p3184
atp3185
a(L761135359L
L3785322319L
(lp3186
(lp3187
Vbootloader_flash_read
p3188
atp3189
a(L3061347840L
L3785322319L
(lp3190
(lp3191
Vesp_log_early_timestamp
p3192
atp3193
a(L3871473710L
L0L
(lp3194
(lp3195
tp3196
a(L219417435L
L0L
(lp3197
(lp3198
tp3199
a(L616767314L
L3785322319L
(lp3200
(lp3201
Vbootloader_sha256_data
p3202
atp3203
a(L707062298L
L0L
(lp3204
(lp3205
tp3206
a(L2258837437L
L0L
(lp3207
(lp3208
tp3209
a(L1764156528L
L0L
(lp3210
(lp3211
tp3212
a(L3028481L
L0L
(lp3213
(lp3214
tp3215
a(L254329145L
L3785322319L
(lp3216
(lp3217
Vesp_log_early_timestamp
p3218
atp3219
a(L568253874L
L0L
(lp3220
(lp3221
tp3222
a(L2349343057L
L0L
(lp3223
(lp3224
tp3225
a(L3802069243L
L0L
(lp3226
(lp3227
tp3228
a(L3794462993L
L0L
(lp3229
(lp3230
tp3231
a(L2258867228L
L0L
(lp3232
(lp3233
tp3234
a(L2277415887L
L0L
(lp3235
(lp3236
tp3237
a(L3177376558L
L0L
(lp3238
(lp3239
tp3240
a(L3028481L
L0L
(lp3241
(lp3242
tp3243
a(L113671451L
L3785322319L
(lp3244
(lp3245
Vesp_log_early_timestamp
p3246
atp3247
a(L2640606608L
L0L
(lp3248
(lp3249
tp3250
a(L3028481L
L0L
(lp3251
(lp3252
tp3253
a(L1304081863L
L3785322319L
(lp3254
(lp3255
Vesp_log_early_timestamp
p3256
atp3257
a(L3312579080L
L0L
(lp3258
(lp3259
tp3260
a(L2902417580L
L0L
(lp3261
(lp3262
tp3263
a(L2902417580L
L0L
(lp3264
(lp3265
tp3266
a(L1229952296L
L3785322319L
(lp3267
(lp3268
Vverify_load_addresses
p3269
atp3270
a(L3783935185L
L3785322319L
(lp3271
(lp3272
Vbootloader_mmap_get_free_pages
p3273
atp3274
a(L3028481L
L0L
(lp3275
(lp3276
tp3277
a(L224879076L
L0L
(lp3278
(lp3279
tp3280
a(L142590671L
L0L
(lp3281
(lp3282
tp3283
a(L3028481L
L0L
(lp3284
(lp3285
tp3286
a(L94425498L
L3785322319L
(lp3287
(lp3288
Vesp_log_early_timestamp
p3289
atp3290
a(L2482970521L
L0L
(lp3291
(lp3292
tp3293
a(L4085121624L
L3785322319L
(lp3294
(lp3295
Vshould_load
p3296
atp3297
a(L3028481L
L0L
(lp3298
(lp3299
tp3300
a(L3799683059L
L3785322319L
(lp3301
(lp3302
Vesp_log_early_timestamp
p3303
atp3304
a(L106L
L0L
(lp3305
(lp3306
tp3307
a(L3815630522L
L0L
(lp3308
(lp3309
tp3310
a(L1373549761L
L3785322319L
(lp3311
(lp3312
Vesp_log_early_timestamp
p3313
atp3314
a(L2629678223L
L0L
(lp3315
(lp3316
tp3317
a(L2684012095L
L0L
(lp3318
(lp3319
tp3320
a(L3357777304L
L3785322319L
(lp3321
(lp3322
Vbootloader_mmap
p3323
atp3324
a(L4263532617L
L3785322319L
(lp3325
(lp3326
Vesp_log_early_timestamp
p3327
atp3328
a(L1698460186L
L0L
(lp3329
(lp3330
tp3331
a(L719832453L
L0L
(lp3332
(lp3333
tp3334
a(L642150438L
L0L
(lp3335
(lp3336
tp3337
a(L1595421496L
L3785322319L
(lp3338
(lp3339
Vbootloader_munmap
p3340
atp3341
a(L2757579158L
L0L
(lp3342
(lp3343
tp3344
a(L2356270618L
L3785322319L
(lp3345
(lp3346
Vbootloader_fill_random
p3347
atp3348
a(L3277879431L
L0L
(lp3349
(lp3350
tp3351
a(L3281573515L
L0L
(lp3352
(lp3353
tp3354
a(L3450268858L
L0L
(lp3355
(lp3356
tp3357
a(L3021749L
L0L
(lp3358
(lp3359
tp3360
a(L322434465L
L0L
(lp3361
(lp3362
tp3363
a(L2494883302L
L0L
(lp3364
(lp3365
tp3366
a(L2902417580L
L0L
(lp3367
(lp3368
tp3369
a(L2991893400L
L0L
(lp3370
(lp3371
tp3372
a(L22854698L
L0L
(lp3373
(lp3374
tp3375
a(L1426980959L
L0L
(lp3376
(lp3377
tp3378
a(L1841482652L
L0L
(lp3379
(lp3380
tp3381
a(L653501462L
L0L
(lp3382
(lp3383
tp3384
a(L3310548426L
L3785322319L
(lp3385
(lp3386
Vbootloader_sha256_data
p3387
atp3388
a(L90548756L
L0L
(lp3389
(lp3390
tp3391
a(L708495868L
L0L
(lp3392
(lp3393
tp3394
a(L2364005371L
L0L
(lp3395
(lp3396
tp3397
atp3398
sI1074239424
(Vbootloader_utility_load_partition_table
p3399
(lp3400
(L500494664L
L3785322319L
(lp3401
(lp3402
Vbootloader_mmap
p3403
atp3404
a(L649959027L
L3785322319L
(lp3405
(lp3406
Vesp_log_early_timestamp
p3407
atp3408
a(L2258688482L
L0L
(lp3409
(lp3410
tp3411
a(L3360570486L
L0L
(lp3412
(lp3413
tp3414
a(L2379286607L
L3785322319L
(lp3415
(lp3416
Vesp_partition_table_verify
p3417
atp3418
a(L1285285103L
L3785322319L
(lp3419
(lp3420
Vesp_log_early_timestamp
p3421
atp3422
a(L529589784L
L1880226080L
(lp3423
(lp3424
Vesp_log_early_timestamp
p3425
aVesp_log_early_timestamp
p3426
atp3427
a(L650140130L
L0L
(lp3428
(lp3429
tp3430
a(L1145912169L
L1880226080L
(lp3431
(lp3432
Vbootloader_munmap
p3433
aVesp_log_early_timestamp
p3434
atp3435
a(L521126897L
L0L
(lp3436
(lp3437
tp3438
a(L3028464L
L0L
(lp3439
(lp3440
tp3441
a(L106L
L0L
(lp3442
(lp3443
tp3444
a(L1403802546L
L0L
(lp3445
(lp3446
tp3447
a(L3362706168L
L3785322319L
(lp3448
(lp3449
Vesp_log_early_timestamp
p3450
atp3451
a(L3990577774L
L0L
(lp3452
(lp3453
tp3454
a(L3020187L
L0L
(lp3455
(lp3456
tp3457
a(L2318212397L
L0L
(lp3458
(lp3459
tp3460
a(L4208504540L
L0L
(lp3461
(lp3462
tp3463
a(L1859217843L
L0L
(lp3464
(lp3465
tp3466
a(L2546691246L
L0L
(lp3467
(lp3468
tp3469
a(L3797730446L
L0L
(lp3470
(lp3471
tp3472
a(L106L
L0L
(lp3473
(lp3474
tp3475
a(L93674324L
L0L
(lp3476
(lp3477
tp3478
a(L1583301205L
L0L
(lp3479
(lp3480
tp3481
a(L1938133383L
L0L
(lp3482
(lp3483
tp3484
a(L1630400759L
L0L
(lp3485
(lp3486
tp3487
a(L106L
L0L
(lp3488
(lp3489
tp3490
a(L924830715L
L0L
(lp3491
(lp3492
tp3493
a(L106L
L0L
(lp3494
(lp3495
tp3496
a(L568204987L
L0L
(lp3497
(lp3498
tp3499
atp3500
sI1074236864
(Vesp_dport_access_reg_read
p3501
(lp3502
(L1099794772L
L0L
(lp3503
(lp3504
tp3505
atp3506
sI1074244544
(Vwdt_hal_enable
p3507
(lp3508
(L2299130915L
L0L
(lp3509
(lp3510
tp3511
a(L165794138L
L0L
(lp3512
(lp3513
tp3514
a(L3360570486L
L0L
(lp3515
(lp3516
tp3517
a(L2847657174L
L0L
(lp3518
(lp3519
tp3520
atp3521
sI1074245056
(Vrtc_clk_32k_enable
p3522
(lp3523
(L753387299L
L0L
(lp3524
(lp3525
tp3526
a(L3776007933L
L3785322319L
(lp3527
(lp3528
Vrtc_clk_32k_enable_common
p3529
atp3530
a(L3496950L
L0L
(lp3531
(lp3532
tp3533
a(L2215760449L
L0L
(lp3534
(lp3535
tp3536
atp3537
sI1074268864
(Vbootloader_random_enable
p3538
(lp3539
(L3678846225L
L0L
(lp3540
(lp3541
tp3542
atp3543
sI1074236876
(Vis_xmc_chip_strict
p3544
(lp3545
(L1286841609L
L0L
(lp3546
(lp3547
tp3548
a(L2234016759L
L0L
(lp3549
(lp3550
tp3551
a(L1069027148L
L0L
(lp3552
(lp3553
tp3554
a(L3021749L
L0L
(lp3555
(lp3556
tp3557
a(L1900148749L
L0L
(lp3558
(lp3559
tp3560
a(L1936875721L
L0L
(lp3561
(lp3562
tp3563
a(L3356166509L
L0L
(lp3564
(lp3565
tp3566
a(L1937769451L
L0L
(lp3567
(lp3568
tp3569
a(L2137658907L
L0L
(lp3570
(lp3571
tp3572
a(L4265949734L
L0L
(lp3573
(lp3574
tp3575
a(L3360570486L
L0L
(lp3576
(lp3577
tp3578
atp3579
sI1074269656
(Vbootloader_clear_bss_section
p3580
(lp3581
(L1035474915L
L0L
(lp3582
(lp3583
tp3584
atp3585
sI1074237652
(Vbootloader_munmap
p3586
(lp3587
(L1697403118L
L0L
(lp3588
(lp3589
tp3590
a(L3761142808L
L0L
(lp3591
(lp3592
tp3593
a(L3360570486L
L0L
(lp3594
(lp3595
tp3596
atp3597
sI1074270940
(Vmpu_hal_set_region_access
p3598
(lp3599
(L3538356822L
L0L
(lp3600
(lp3601
tp3602
a(L93674324L
L0L
(lp3603
(lp3604
tp3605
a(L2910371777L
L0L
(lp3606
(lp3607
tp3608
a(L3472092938L
L0L
(lp3609
(lp3610
tp3611
a(L3020187L
L0L
(lp3612
(lp3613
tp3614
a(L3360570486L
L0L
(lp3615
(lp3616
tp3617
a(L2258718273L
L0L
(lp3618
(lp3619
tp3620
a(L3446648619L
L0L
(lp3621
(lp3622
tp3623
a(L3739532189L
L0L
(lp3624
(lp3625
tp3626
a(L1300789895L
L0L
(lp3627
(lp3628
tp3629
atp3630
sI1074245584
(Vrtc_clk_cpu_freq_mhz_to_config
p3631
(lp3632
(L908718885L
L3785322319L
(lp3633
(lp3634
Vrtc_clk_xtal_freq_get
p3635
atp3636
a(L60460069L
L0L
(lp3637
(lp3638
tp3639
a(L3802072124L
L0L
(lp3640
(lp3641
tp3642
a(L3159006042L
L0L
(lp3643
(lp3644
tp3645
a(L3360570486L
L0L
(lp3646
(lp3647
tp3648
a(L895147205L
L0L
(lp3649
(lp3650
tp3651
a(L3970036657L
L0L
(lp3652
(lp3653
tp3654
a(L2731353429L
L0L
(lp3655
(lp3656
tp3657
a(L1555485793L
L0L
(lp3658
(lp3659
tp3660
a(L2258897023L
L0L
(lp3661
(lp3662
tp3663
a(L1947499251L
L0L
(lp3664
(lp3665
tp3666
a(L1306331021L
L0L
(lp3667
(lp3668
tp3669
atp3670
sI1074268624
(Vbootloader_clock_configure
p3671
(lp3672
(L2559598596L
L1880226080L
(lp3673
(lp3674
Vesp_rom_uart_tx_wait_idle
p3675
aVefuse_hal_chip_revision
p3676
atp3677
a(L1714060431L
L0L
(lp3678
(lp3679
tp3680
a(L883406775L
L0L
(lp3681
(lp3682
tp3683
a(L106L
L0L
(lp3684
(lp3685
tp3686
a(L3646321382L
L1832448559L
(lp3687
(lp3688
Vrtc_clk_slow_src_get
p3689
aVrtc_clk_fast_src_get
p3690
aVrtc_clk_init
p3691
atp3692
a(L3297562552L
L0L
(lp3693
(lp3694
tp3695
a(L1624159269L
L3785322319L
(lp3696
(lp3697
Vrtc_clk_apb_freq_get
p3698
atp3699
a(L106L
L0L
(lp3700
(lp3701
tp3702
a(L106L
L0L
(lp3703
(lp3704
tp3705
atp3706
sI1074236636
(Vesp_rom_uart_set_clock_baudrate
p3707
(lp3708
(L2319441726L
L0L
(lp3709
(lp3710
tp3711
a(L2334991263L
L0L
(lp3712
(lp3713
tp3714
a(L2805931295L
L0L
(lp3715
(lp3716
tp3717
a(L1916726935L
L0L
(lp3718
(lp3719
tp3720
atp3721
sI1074248924
(V_fini
p3722
(lp3723
(L3493042598L
L0L
(lp3724
(lp3725
tp3726
atp3727
sI1074241240
(Vbootloader_util_regions_overlap
p3728
(lp3729
(L2762640130L
L0L
(lp3730
(lp3731
tp3732
a(L2198512677L
L0L
(lp3733
(lp3734
tp3735
a(L2217655633L
L3785322319L
(lp3736
(lp3737
V__assert_func
p3738
atp3739
a(L97642L
L0L
(lp3740
(lp3741
tp3742
a(L996187529L
L0L
(lp3743
(lp3744
tp3745
a(L366123053L
L0L
(lp3746
(lp3747
tp3748
a(L2258867228L
L0L
(lp3749
(lp3750
tp3751
a(L1253626734L
L0L
(lp3752
(lp3753
tp3754
a(L2258897019L
L0L
(lp3755
(lp3756
tp3757
a(L3109269495L
L0L
(lp3758
(lp3759
tp3760
atp3761
sI1074235608
(Vbootloader_read_flash_id
p3762
(lp3763
(L549578328L
L3785322319L
(lp3764
(lp3765
Vbootloader_execute_flash_command
p3766
atp3767
atp3768
sI1074237412
(Vspi_to_esp_err
p3769
(lp3770
(L3520881295L
L0L
(lp3771
(lp3772
tp3773
a(L2402400019L
L0L
(lp3774
(lp3775
tp3776
a(L3952441574L
L0L
(lp3777
(lp3778
tp3779
a(L3126521138L
L0L
(lp3780
(lp3781
tp3782
atp3783
sI1074236388
(Vbootloader_flash_dummy_config
p3784
(lp3785
(L262000646L
L0L
(lp3786
(lp3787
tp3788
a(L2761717557L
L0L
(lp3789
(lp3790
tp3791
a(L1849044936L
L0L
(lp3792
(lp3793
tp3794
a(L708753936L
L0L
(lp3795
(lp3796
tp3797
a(L1010450057L
L0L
(lp3798
(lp3799
tp3800
a(L3020204L
L0L
(lp3801
(lp3802
tp3803
a(L1610443405L
L0L
(lp3804
(lp3805
tp3806
a(L4032120524L
L0L
(lp3807
(lp3808
tp3809
a(L2336993863L
L0L
(lp3810
(lp3811
tp3812
a(L1298875775L
L0L
(lp3813
(lp3814
tp3815
a(L3880393601L
L0L
(lp3816
(lp3817
tp3818
a(L3328946209L
L0L
(lp3819
(lp3820
tp3821
a(L1610443436L
L0L
(lp3822
(lp3823
tp3824
atp3825
sI1074244836
(Vrtc_clk_cpu_freq_to_pll_mhz
p3826
(lp3827
(L3231135830L
L0L
(lp3828
(lp3829
tp3830
a(L3143442795L
L0L
(lp3831
(lp3832
tp3833
a(L2573072299L
L1880226080L
(lp3834
(lp3835
Vesp_rom_set_cpu_ticks_per_us
p3836
aVrtc_clk_wait_for_slow_cycle
p3837
atp3838
a(L4244595500L
L0L
(lp3839
(lp3840
tp3841
a(L3284807114L
L0L
(lp3842
(lp3843
tp3844
a(L94425498L
L3785322319L
(lp3845
(lp3846
Vabort
p3847
atp3848
a(L2258897019L
L0L
(lp3849
(lp3850
tp3851
a(L1113742378L
L0L
(lp3852
(lp3853
tp3854
a(L1306330990L
L0L
(lp3855
(lp3856
tp3857
atp3858
sI1074245860
(Vrtc_clk_apb_freq_update
p3859
(lp3860
(L187277447L
L0L
(lp3861
(lp3862
tp3863
atp3864
sI1074247392
(Vesp_rom_spiflash_read_status
p3865
(lp3866
(L862498644L
L0L
(lp3867
(lp3868
tp3869
a(L986368687L
L0L
(lp3870
(lp3871
tp3872
a(L4159619641L
L0L
(lp3873
(lp3874
tp3875
a(L2392720019L
L0L
(lp3876
(lp3877
tp3878
a(L2258688487L
L0L
(lp3879
(lp3880
tp3881
a(L4159619145L
L0L
(lp3882
(lp3883
tp3884
a(L718391887L
L0L
(lp3885
(lp3886
tp3887
a(L3117156279L
L0L
(lp3888
(lp3889
tp3890
a(L2123059967L
L0L
(lp3891
(lp3892
tp3893
a(L582177370L
L0L
(lp3894
(lp3895
tp3896
atp3897
sI1074269920
(Vbootloader_enable_random
p3898
(lp3899
(L1236070240L
L1880226080L
(lp3900
(lp3901
Vesp_log_early_timestamp
p3902
aVbootloader_random_enable
p3903
atp3904
atp3905
sI1074248172
(Vesp_rom_spiflash_read
p3906
(lp3907
(L965113627L
L0L
(lp3908
(lp3909
tp3910
a(L2445587266L
L0L
(lp3911
(lp3912
tp3913
a(L2860271684L
L0L
(lp3914
(lp3915
tp3916
a(L2355528925L
L0L
(lp3917
(lp3918
tp3919
a(L106L
L0L
(lp3920
(lp3921
tp3922
a(L633884026L
L0L
(lp3923
(lp3924
tp3925
a(L106L
L0L
(lp3926
(lp3927
tp3928
a(L2817836888L
L0L
(lp3929
(lp3930
tp3931
a(L4180853104L
L0L
(lp3932
(lp3933
tp3934
a(L2027830512L
L0L
(lp3935
(lp3936
tp3937
a(L336550648L
L0L
(lp3938
(lp3939
tp3940
a(L2716935240L
L0L
(lp3941
(lp3942
tp3943
a(L106L
L0L
(lp3944
(lp3945
tp3946
a(L3721909221L
L3785322319L
(lp3947
(lp3948
Vesp_rom_spiflash_wait_idle
p3949
atp3950
a(L3021737L
L0L
(lp3951
(lp3952
tp3953
a(L106L
L0L
(lp3954
(lp3955
tp3956
a(L1868280504L
L0L
(lp3957
(lp3958
tp3959
a(L106L
L0L
(lp3960
(lp3961
tp3962
a(L750281353L
L0L
(lp3963
(lp3964
tp3965
a(L3897437082L
L0L
(lp3966
(lp3967
tp3968
a(L4122060822L
L0L
(lp3969
(lp3970
tp3971
a(L274970911L
L0L
(lp3972
(lp3973
tp3974
a(L2989032L
L0L
(lp3975
(lp3976
tp3977
a(L3819849625L
L0L
(lp3978
(lp3979
tp3980
a(L1660957140L
L0L
(lp3981
(lp3982
tp3983
a(L918125861L
L0L
(lp3984
(lp3985
tp3986
a(L3901821459L
L0L
(lp3987
(lp3988
tp3989
a(L2938794773L
L0L
(lp3990
(lp3991
tp3992
a(L2921907736L
L0L
(lp3993
(lp3994
tp3995
a(L4023125337L
L0L
(lp3996
(lp3997
tp3998
a(L1444843363L
L0L
(lp3999
(lp4000
tp4001
a(L849357610L
L0L
(lp4002
(lp4003
tp4004
a(L3803956571L
L0L
(lp4005
(lp4006
tp4007
a(L3333707777L
L0L
(lp4008
(lp4009
tp4010
a(L3251955268L
L0L
(lp4011
(lp4012
tp4013
a(L3418540920L
L0L
(lp4014
(lp4015
tp4016
a(L2322125794L
L0L
(lp4017
(lp4018
tp4019
a(L97689L
L0L
(lp4020
(lp4021
tp4022
a(L2258897019L
L0L
(lp4023
(lp4024
tp4025
a(L4014024819L
L0L
(lp4026
(lp4027
tp4028
a(L3621567083L
L0L
(lp4029
(lp4030
tp4031
atp4032
sI1074241768
(Vprocess_appended_hash_and_sig
p4033
(lp4034
(L1668084157L
L0L
(lp4035
(lp4036
tp4037
a(L2910371777L
L0L
(lp4038
(lp4039
tp4040
a(L4285188111L
L0L
(lp4041
(lp4042
tp4043
a(L1151175705L
L0L
(lp4044
(lp4045
tp4046
a(L97689L
L0L
(lp4047
(lp4048
tp4049
a(L4177371989L
L3785322319L
(lp4050
(lp4051
Vesp_log_early_timestamp
p4052
atp4053
a(L3620623795L
L0L
(lp4054
(lp4055
tp4056
a(L1464893571L
L3785322319L
(lp4057
(lp4058
Vbootloader_flash_read
p4059
atp4060
a(L735741265L
L0L
(lp4061
(lp4062
tp4063
atp4064
sI1074269948
(Vbootloader_print_banner
p4065
(lp4066
(L2664228546L
L1832448559L
(lp4067
(lp4068
Vesp_log_early_timestamp
p4069
aVesp_log_early_timestamp
p4070
aVesp_log_early_timestamp
p4071
atp4072
atp4073
sI1074270716
(Vrtc_vddsdio_get_config
p4074
(lp4075
(L1816791340L
L0L
(lp4076
(lp4077
tp4078
a(L1750635626L
L0L
(lp4079
(lp4080
tp4081
a(L3193418487L
L0L
(lp4082
(lp4083
tp4084
a(L1456856705L
L0L
(lp4085
(lp4086
tp4087
a(L115635292L
L0L
(lp4088
(lp4089
tp4090
a(L896053863L
L0L
(lp4091
(lp4092
tp4093
a(L1306330959L
L0L
(lp4094
(lp4095
tp4096
a(L2332659952L
L0L
(lp4097
(lp4098
tp4099
atp4100
sI1074247920
(Vesp_rom_spiflash_write
p4101
(lp4102
(L1985805747L
L0L
(lp4103
(lp4104
tp4105
a(L2258688483L
L0L
(lp4106
(lp4107
tp4108
a(L3360570486L
L0L
(lp4109
(lp4110
tp4111
a(L3368132847L
L0L
(lp4112
(lp4113
tp4114
a(L3106685981L
L0L
(lp4115
(lp4116
tp4117
a(L3488660639L
L3785322319L
(lp4118
(lp4119
Vesp_rom_spiflash_program_page_internal
p4120
atp4121
a(L3543402353L
L3785322319L
(lp4122
(lp4123
Vesp_rom_spiflash_program_page_internal
p4124
atp4125
a(L4222526342L
L0L
(lp4126
(lp4127
tp4128
a(L2004208511L
L0L
(lp4129
(lp4130
tp4131
a(L564470656L
L0L
(lp4132
(lp4133
tp4134
a(L441922648L
L3785322319L
(lp4135
(lp4136
Vesp_rom_spiflash_program_page_internal
p4137
atp4138
a(L2302069176L
L0L
(lp4139
(lp4140
tp4141
atp4142
sI1074269680
(Vbootloader_read_bootloader_header
p4143
(lp4144
(L1999135233L
L3785322319L
(lp4145
(lp4146
Vbootloader_flash_read
p4147
atp4148
a(L63714649L
L3785322319L
(lp4149
(lp4150
Vesp_log_early_timestamp
p4151
atp4152
a(L735741265L
L0L
(lp4153
(lp4154
tp4155
atp4156
sI1074245116
(Vrtc_clk_8m_enable
p4157
(lp4158
(L717560374L
L0L
(lp4159
(lp4160
tp4161
a(L4093063488L
L0L
(lp4162
(lp4163
tp4164
a(L2151320156L
L0L
(lp4165
(lp4166
tp4167
a(L711175840L
L0L
(lp4168
(lp4169
tp4170
a(L3360570486L
L0L
(lp4171
(lp4172
tp4173
a(L1318267208L
L0L
(lp4174
(lp4175
tp4176
a(L3974092177L
L0L
(lp4177
(lp4178
tp4179
atp4180
ssS'functionsdups'
p4181
g11
((lp4182
tp4183
Rp4184
sS'immediatedups'
p4185
g11
((lp4186
tp4187
Rp4188
sS'functiondups'
p4189
g11
((lp4190
tp4191
Rp4192
sS'fuzzy'
p4193
(dp4194
L1536L
I1074240804
sL438947497L
I1074245292
sL430153639L
I1074235920
sL3538491111L
I1074245436
sL16208487L
I1074234756
sL1053780185L
I1074247224
sL2919036513L
I1074238908
sL2680783959L
I1074235656
sL1385214606L
I1074241296
sL3709764864L
I1074242724
sL3512578114L
I1074238756
sL1419132215L
I1074238148
sL2469233929L
I1074240592
sL4024375675L
I1074245888
sL701833459L
I1074268624
sL720751058L
I1074267832
sL99291719L
I1074246000
sL1260046007L
I1074238640
sL3897252859L
I1074238556
sL2154298582L
I1074268056
sL3750957730L
I1074269368
sL1065525808L
I1074236876
sL2547957225L
I1074243220
sL2272466760L
I1074245676
sL2044047637L
I1074239424
sL1188065553L
I1074237704
sL1350409532L
I1074241052
sL94556391L
I1074245464
sL3210669721L
I1074245056
sL1332800441L
I1074237268
sL1797050832L
I1074241768
sL3190831358L
I1074239788
sL2828970830L
I1074239304
sL4160102055L
I1074240088
sL4202185385L
I1074247488
sL1768086576L
I1074236388
sL4171975289L
I1074247784
sL1565254297L
I1074248084
sL1205407754L
I1074240112
sL2191698036L
I1074269792
sL3764456758L
I1074244836
sL3567877105L
I1074235268
sL3616640713L
I1074240884
sL1635528231L
I1074244100
sL1060788199L
I1074245584
sL3378232636L
I1074246728
sL737694352L
I1074247592
sL503029138L
I1074247536
sL1616763831L
I1074248172
sL424867129L
I1074247920
sL3834155367L
I1074241240
sL2405032630L
I1074267724
sL1302843222L
I1074270272
sL149533852L
I1074237444
sL3883282432L
I1074241856
sL3110525840L
I1074241984
sL1667054119L
I1074240444
sL1142841954L
I1074237036
sL206902443L
I1074237980
sL1070509616L
I1074245116
sL3408620885L
I1074270096
ssb.