ccopy_reg
_reconstructor
p0
(crizzo
RizzoSignature
p1
c__builtin__
object
p2
Ntp3
Rp4
(dp5
S'formal'
p6
(dp7
L2606191187L
I1074246000
sL2808813164L
I1074240884
sL1207862518L
I1074240592
sL3285171398L
I1074243488
sL1741170115L
I1074237960
sL3817488769L
I1074247192
sL3505757179L
I1074236740
sL3196142229L
I1074237704
sL76329880L
I1074245816
sL1237733855L
I1074238856
sL1674242515L
I1074248084
sL4048906572L
I1074267868
sL1602897552L
I1074239788
sL4213015302L
I1074243204
sL3597077880L
I1074236536
sL2483835949L
I1074235920
sL3230852531L
I1074238228
sL3045680040L
I1074245056
sL2431287502L
I1074237036
sL1387443604L
I1074243220
sL693028457L
I1074240424
sL2479159267L
I1074246684
sL3326929765L
I1074240088
sL54072848L
I1074245888
sL2702580795L
I1074237336
sL412821684L
I1074236780
sL2666198494L
I1074245116
sL2896295319L
I1074236876
sL1674148343L
I1074245584
sL3929482102L
I1074245544
sL2485902447L
I1074236716
sL3944712277L
I1074240444
sL2972806524L
I1074235656
sL1859518617L
I1074241856
sL372308320L
I1074245528
sL235029585L
I1074239304
sL4257908639L
I1074244100
sL1585823442L
I1074244516
sL1622896354L
I1074244544
sL2546030491L
I1074245244
sL817958557L
I1074270132
sL3723052726L
I1074241296
sL873235283L
I1074245676
sL3126675517L
I1074247920
sL1509716893L
I1074236848
sL2189223198L
I1074240352
sL288400730L
I1074244836
sL885876642L
I1074236636
sL2903897210L
I1074241768
sL2878670564L
I1074248172
sL4260505216L
I1074247784
sL282629802L
I1074269016
sL396192741L
I1074238148
sL1056742531L
I1074236388
sL530851108L
I1074244664
sL768348750L
I1074238804
sL426984944L
I1074236948
sL676927194L
I1074269248
sL1522853447L
I1074269744
sL2945163535L
I1074240112
sL3307282855L
I1074238120
sL749418531L
I1074244448
sL2710526727L
I1074268224
sL3432634640L
I1074242724
sL911764690L
I1074237652
sL740409515L
I1074267936
sL3513348579L
I1074268004
sL1730519976L
I1074247592
sL3531290101L
I1074267840
sL1050504461L
I1074234712
sL3494179029L
I1074245860
sL1615827934L
I1074270048
sL493357820L
I1074245292
sL2543988023L
I1074240828
sL1753891612L
I1074247392
sL3674128744L
I1074268448
sL4038945309L
I1074235608
sL4176386638L
I1074241052
sL3676018875L
I1074244996
sL1830628543L
I1074244616
sL773546680L
I1074238908
sL518463041L
I1074235808
sL2626436395L
I1074236980
sL614063665L
I1074268960
sL2737209228L
I1074234756
sL547013175L
I1074237444
sL1131663582L
I1074270904
sL180164621L
I1074235268
sL2997001746L
I1074237268
sL2576935212L
I1074245408
sL903496812L
I1074246728
sL647977256L
I1074245436
sL2252333703L
I1074247536
sL2819127986L
I1074237000
sL1877634603L
I1074270976
sL3518743416L
I1074238556
sL3310923163L
I1074238756
sL3730494878L
I1074239424
sL3255476431L
I1074241984
sL4163372517L
I1074236552
sL3928820706L
I1074270308
sL2805324261L
I1074245268
sL2785860572L
I1074238640
sL1882398944L
I1074244700
sL1736345773L
I1074247224
sL2810302546L
I1074270084
sL404293581L
I1074237412
sL1487010937L
I1074245464
sL2263182908L
I1074238140
sL3819074680L
I1074268160
sL700866072L
I1074237980
sL3630163135L
I1074236864
sL188664287L
I1074235236
sL782838600L
I1074240788
sL2472062905L
I1074268132
sL692536993L
I1074237308
sL3075360168L
I1074241240
sL2935708439L
I1074267892
sL973383401L
I1074269256
sL144857933L
I1074240804
sL1386685779L
I1074269760
sL3570521636L
I1074244416
sL1725098792L
I1074270752
sL4173412669L
I1074235556
sL3018942732L
I1074267732
sL3224825289L
I1074247488
ssS'immediates'
p8
(dp9
sS'formaldups'
p10
c__builtin__
set
p11
((lp12
tp13
Rp14
sS'stringdups'
p15
g11
((lp16
tp17
Rp18
sS'fuzzydups'
p19
g11
((lp20
tp21
Rp22
sS'strings'
p23
(dp24
sS'functions'
p25
(dp26
I1074244100
(Vwdt_hal_config_stage
p27
(lp28
(L331558507L
L0L
(lp29
(lp30
tp31
a(L4279082939L
L0L
(lp32
(lp33
tp34
a(L93674324L
L0L
(lp35
(lp36
tp37
a(L2902417580L
L0L
(lp38
(lp39
tp40
a(L980402310L
L0L
(lp41
(lp42
tp43
a(L3020187L
L0L
(lp44
(lp45
tp46
a(L94425498L
L3785322319L
(lp47
(lp48
Vabort
p49
atp50
a(L3649029602L
L0L
(lp51
(lp52
tp53
a(L3360570486L
L0L
(lp54
(lp55
tp56
a(L1041004739L
L0L
(lp57
(lp58
tp59
a(L1101608377L
L0L
(lp60
(lp61
tp62
a(L4278159418L
L0L
(lp63
(lp64
tp65
a(L93674324L
L0L
(lp66
(lp67
tp68
a(L3020204L
L0L
(lp69
(lp70
tp71
a(L1722164170L
L0L
(lp72
(lp73
tp74
a(L3020187L
L0L
(lp75
(lp76
tp77
a(L106L
L0L
(lp78
(lp79
tp80
a(L4029484007L
L0L
(lp81
(lp82
tp83
a(L528371148L
L0L
(lp84
(lp85
tp86
a(L2121897800L
L0L
(lp87
(lp88
tp89
atp90
sI1074237444
(Vbootloader_mmap
p91
(lp92
(L3624397292L
L0L
(lp93
(lp94
tp95
a(L2788000646L
L3785322319L
(lp96
(lp97
Vesp_log_early_timestamp
p98
atp99
a(L2867263840L
L0L
(lp100
(lp101
tp102
a(L3729184599L
L0L
(lp103
(lp104
tp105
a(L4116781276L
L3785322319L
(lp106
(lp107
Vesp_log_early_timestamp
p108
atp109
a(L2258688482L
L0L
(lp110
(lp111
tp112
a(L3360570486L
L0L
(lp113
(lp114
tp115
a(L702749218L
L0L
(lp116
(lp117
tp118
a(L1580888500L
L0L
(lp119
(lp120
tp121
a(L3746164654L
L3785322319L
(lp122
(lp123
Vesp_log_early_timestamp
p124
atp125
a(L528675173L
L3785322319L
(lp126
(lp127
Vesp_log_early_timestamp
p128
atp129
a(L113283320L
L0L
(lp130
(lp131
tp132
atp133
sI1074245888
(Vrtc_clk_cpu_freq_to_xtal
p134
(lp135
(L767415990L
L3785322319L
(lp136
(lp137
Vesp_rom_set_cpu_ticks_per_us
p138
atp139
a(L94425498L
L3785322319L
(lp140
(lp141
Vabort
p142
atp143
a(L3663383984L
L3785322319L
(lp144
(lp145
Vrtc_clk_apb_freq_update
p146
atp147
a(L2258867230L
L0L
(lp148
(lp149
tp150
a(L2113643508L
L0L
(lp151
(lp152
tp153
atp154
sI1074267136
(V_init
p155
(lp156
(L3493042598L
L0L
(lp157
(lp158
tp159
atp160
sI1074268160
(Vbootloader_print_banner
p161
(lp162
(L1309123829L
L1832448559L
(lp163
(lp164
Vesp_log_early_timestamp
p165
aVesp_log_early_timestamp
p166
aVesp_log_early_timestamp
p167
atp168
atp169
sI1074270976
(Vmpu_hal_set_region_access
p170
(lp171
(L3538356822L
L0L
(lp172
(lp173
tp174
a(L93674324L
L0L
(lp175
(lp176
tp177
a(L2910371777L
L0L
(lp178
(lp179
tp180
a(L3472092938L
L0L
(lp181
(lp182
tp183
a(L3020187L
L0L
(lp184
(lp185
tp186
a(L3360570486L
L0L
(lp187
(lp188
tp189
a(L2258718273L
L0L
(lp190
(lp191
tp192
a(L3446648619L
L0L
(lp193
(lp194
tp195
a(L3739532189L
L0L
(lp196
(lp197
tp198
a(L1300789895L
L0L
(lp199
(lp200
tp201
atp202
sI1074237704
(Vbootloader_flash_read
p203
(lp204
(L3022618172L
L0L
(lp205
(lp206
tp207
a(L172086619L
L3785322319L
(lp208
(lp209
Vesp_log_early_timestamp
p210
atp211
a(L2780906736L
L0L
(lp212
(lp213
tp214
a(L1351513776L
L0L
(lp215
(lp216
tp217
a(L1486740491L
L0L
(lp218
(lp219
tp220
a(L1179571938L
L3785322319L
(lp221
(lp222
Vesp_log_early_timestamp
p223
atp224
a(L3283691850L
L0L
(lp225
(lp226
tp227
a(L814874711L
L3785322319L
(lp228
(lp229
Vesp_log_early_timestamp
p230
atp231
a(L3020204L
L0L
(lp232
(lp233
tp234
a(L384130671L
L0L
(lp235
(lp236
tp237
a(L97422L
L0L
(lp238
(lp239
tp240
a(L1190291857L
L0L
(lp241
(lp242
tp243
a(L2961856275L
L0L
(lp244
(lp245
tp246
a(L2830805255L
L3785322319L
(lp247
(lp248
V__assert_func
p249
atp250
a(L1539897528L
L0L
(lp251
(lp252
tp253
a(L1310932259L
L0L
(lp254
(lp255
tp256
a(L1672348752L
L1880226080L
(lp257
(lp258
Vesp_rom_spiflash_read
p259
aVspi_to_esp_err
p260
atp261
atp262
sI1074237960
(Vbootloader_flash_erase_sector
p263
(lp264
(L4129137686L
L1880226080L
(lp265
(lp266
Vesp_rom_spiflash_erase_sector
p267
aVspi_to_esp_err
p268
atp269
atp270
sI1074235656
(Vbootloader_flash_xmc_startup
p271
(lp272
(L2007527597L
L3785322319L
(lp273
(lp274
Vis_xmc_chip_strict
p275
atp276
a(L2258688482L
L0L
(lp277
(lp278
tp279
a(L3360570486L
L0L
(lp280
(lp281
tp282
a(L2860324232L
L3785322319L
(lp283
(lp284
Vbootloader_flash_read_sfdp
p285
atp286
a(L335762040L
L2567856111L
(lp287
(lp288
Vesp_log_early_timestamp
p289
aVbootloader_execute_flash_command
p290
aVbootloader_execute_flash_command
p291
aVbootloader_execute_flash_command
p292
aVbootloader_execute_flash_command
p293
aVbootloader_read_flash_id
p294
aVis_xmc_chip_strict
p295
atp296
a(L664983568L
L3785322319L
(lp297
(lp298
Vesp_log_early_timestamp
p299
atp300
atp301
sI1074244616
(Vmmu_hal_unmap_all
p302
(lp303
(L2696866292L
L0L
(lp304
(lp305
tp306
a(L2010554219L
L0L
(lp307
(lp308
tp309
a(L3268103L
L0L
(lp310
(lp311
tp312
a(L3212334523L
L0L
(lp313
(lp314
tp315
a(L2010554219L
L0L
(lp316
(lp317
tp318
a(L3360570486L
L0L
(lp319
(lp320
tp321
atp322
sI1074240788
(Vbootloader_console_deinit
p323
(lp324
(L4005071210L
L0L
(lp325
(lp326
tp327
atp328
sI1074236948
(Vesp_log_early_timestamp
p329
(lp330
(L3733265409L
L0L
(lp331
(lp332
tp333
atp334
sI1074238228
(Vbootloader_random_disable
p335
(lp336
(L2825582328L
L0L
(lp337
(lp338
tp339
atp340
sI1074235920
(Vbootloader_flash_gpio_config
p341
(lp342
(L3362256192L
L3785322319L
(lp343
(lp344
Vbootloader_common_get_chip_ver_pkg
p345
atp346
a(L106L
L0L
(lp347
(lp348
tp349
a(L1998579353L
L0L
(lp350
(lp351
tp352
a(L106L
L0L
(lp353
(lp354
tp355
a(L1029428446L
L0L
(lp356
(lp357
tp358
a(L4242290324L
L0L
(lp359
(lp360
tp361
a(L106L
L0L
(lp362
(lp363
tp364
a(L4003626558L
L0L
(lp365
(lp366
tp367
a(L1553523094L
L0L
(lp368
(lp369
tp370
a(L3360570486L
L0L
(lp371
(lp372
tp373
atp374
sI1074241296
(Vverify_load_addresses
p375
(lp376
(L2764487219L
L0L
(lp377
(lp378
tp379
a(L106L
L0L
(lp380
(lp381
tp382
a(L97642L
L0L
(lp383
(lp384
tp385
a(L1494945664L
L3785322319L
(lp386
(lp387
V__assert_func
p388
atp389
a(L791907602L
L0L
(lp390
(lp391
tp392
a(L106L
L0L
(lp393
(lp394
tp395
a(L1722779441L
L0L
(lp396
(lp397
tp398
a(L106L
L0L
(lp399
(lp400
tp401
a(L4043008515L
L3785322319L
(lp402
(lp403
Vbootloader_util_regions_overlap
p404
atp405
a(L631732150L
L3785322319L
(lp406
(lp407
Vbootloader_util_regions_overlap
p408
atp409
a(L3028481L
L0L
(lp410
(lp411
tp412
a(L3615101466L
L3785322319L
(lp413
(lp414
Vbootloader_util_regions_overlap
p415
atp416
a(L1726430751L
L0L
(lp417
(lp418
tp419
a(L1086512205L
L0L
(lp420
(lp421
tp422
a(L1032381749L
L0L
(lp423
(lp424
tp425
a(L2837304413L
L0L
(lp426
(lp427
tp428
a(L677569396L
L3785322319L
(lp429
(lp430
Vverify_load_addresses
p431
atp432
a(L1351513776L
L0L
(lp433
(lp434
tp435
a(L956755582L
L0L
(lp436
(lp437
tp438
a(L2358736322L
L0L
(lp439
(lp440
tp441
a(L29144270L
L0L
(lp442
(lp443
tp444
a(L106L
L0L
(lp445
(lp446
tp447
a(L759382056L
L0L
(lp448
(lp449
tp450
a(L106L
L0L
(lp451
(lp452
tp453
a(L1713182710L
L3785322319L
(lp454
(lp455
Vbootloader_util_regions_overlap
p456
atp457
a(L3028481L
L0L
(lp458
(lp459
tp460
a(L2080057853L
L3785322319L
(lp461
(lp462
Vbootloader_util_regions_overlap
p463
atp464
a(L684954403L
L0L
(lp465
(lp466
tp467
a(L2861826135L
L0L
(lp468
(lp469
tp470
a(L160035736L
L0L
(lp471
(lp472
tp473
a(L2743341656L
L0L
(lp474
(lp475
tp476
a(L182882711L
L0L
(lp477
(lp478
tp479
a(L3836858920L
L0L
(lp480
(lp481
tp482
a(L297163306L
L0L
(lp483
(lp484
tp485
a(L1900059593L
L0L
(lp486
(lp487
tp488
a(L562398217L
L0L
(lp489
(lp490
tp491
a(L3786176122L
L0L
(lp492
(lp493
tp494
a(L3929371936L
L0L
(lp495
(lp496
tp497
a(L2805932810L
L0L
(lp498
(lp499
tp500
a(L4072848040L
L0L
(lp501
(lp502
tp503
a(L106L
L0L
(lp504
(lp505
tp506
a(L955482811L
L0L
(lp507
(lp508
tp509
a(L307917408L
L0L
(lp510
(lp511
tp512
a(L3020204L
L0L
(lp513
(lp514
tp515
a(L2240503318L
L3785322319L
(lp516
(lp517
Vesp_log_early_timestamp
p518
atp519
a(L1303560396L
L0L
(lp520
(lp521
tp522
a(L955506495L
L0L
(lp523
(lp524
tp525
a(L1303560427L
L0L
(lp526
(lp527
tp528
atp529
sI1074237980
(Vbootloader_flash_write
p530
(lp531
(L3770380603L
L0L
(lp532
(lp533
tp534
a(L2615366646L
L3785322319L
(lp535
(lp536
Vesp_log_early_timestamp
p537
atp538
a(L3833270346L
L0L
(lp539
(lp540
tp541
a(L1610445075L
L0L
(lp542
(lp543
tp544
a(L735741265L
L0L
(lp545
(lp546
tp547
a(L3291333414L
L0L
(lp548
(lp549
tp550
a(L1873007406L
L3785322319L
(lp551
(lp552
Vesp_log_early_timestamp
p553
atp554
a(L3283691850L
L0L
(lp555
(lp556
tp557
a(L2141475974L
L3785322319L
(lp558
(lp559
Vesp_log_early_timestamp
p560
atp561
a(L3212356251L
L3785322319L
(lp562
(lp563
Vbootloader_flash_unlock
p564
atp565
a(L1799218633L
L0L
(lp566
(lp567
tp568
a(L94425498L
L3785322319L
(lp569
(lp570
Vesp_rom_spiflash_write_encrypted
p571
atp572
a(L2927190544L
L3785322319L
(lp573
(lp574
Vspi_to_esp_err
p575
atp576
a(L2927190544L
L3785322319L
(lp577
(lp578
Vesp_rom_spiflash_write
p579
atp580
atp581
sI1074241052
(Vprocess_image_header
p582
(lp583
(L2432434428L
L3785322319L
(lp584
(lp585
Vbootloader_flash_read
p586
atp587
a(L3020204L
L0L
(lp588
(lp589
tp590
a(L4205021202L
L0L
(lp591
(lp592
tp593
a(L321261932L
L0L
(lp594
(lp595
tp596
a(L1161397362L
L3785322319L
(lp597
(lp598
Vbootloader_sha256_start
p599
atp600
a(L2062774299L
L3785322319L
(lp601
(lp602
Vbootloader_sha256_data
p603
atp604
a(L1291118193L
L0L
(lp605
(lp606
tp607
a(L3028481L
L0L
(lp608
(lp609
tp610
a(L2263077458L
L3785322319L
(lp611
(lp612
Vesp_log_early_timestamp
p613
atp614
a(L3200755447L
L0L
(lp615
(lp616
tp617
a(L2983970029L
L0L
(lp618
(lp619
tp620
a(L4235213884L
L3785322319L
(lp621
(lp622
Vbootloader_common_check_chip_validity
p623
atp624
a(L4144303915L
L0L
(lp625
(lp626
tp627
a(L3028481L
L0L
(lp628
(lp629
tp630
a(L355256751L
L3785322319L
(lp631
(lp632
Vesp_log_early_timestamp
p633
atp634
a(L2852701393L
L0L
(lp635
(lp636
tp637
a(L2122516551L
L0L
(lp638
(lp639
tp640
a(L3064492592L
L0L
(lp641
(lp642
tp643
atp644
sI1074246684
(Vrtc_clk_apb_freq_get
p645
(lp646
(L3659315454L
L0L
(lp647
(lp648
tp649
atp650
sI1074247192
(Vrtc_clk_cal_ratio
p651
(lp652
(L3871281096L
L3785322319L
(lp653
(lp654
Vrtc_clk_cal_internal
p655
atp656
atp657
sI1074240804
(V__assert_func
p658
(lp659
(L1697582622L
L0L
(lp660
(lp661
tp662
a(L106L
L0L
(lp663
(lp664
tp665
atp666
sI1074238756
(Vtry_load_partition
p667
(lp668
(L1263750142L
L0L
(lp669
(lp670
tp671
a(L2258688482L
L0L
(lp672
(lp673
tp674
a(L3360570486L
L0L
(lp675
(lp676
tp677
a(L530241438L
L3785322319L
(lp678
(lp679
Vbootloader_load_image
p680
atp681
a(L3010049260L
L3785322319L
(lp682
(lp683
Vesp_log_early_timestamp
p684
atp685
atp686
sI1074245408
(Vrtc_clk_slow_src_get
p687
(lp688
(L807162021L
L0L
(lp689
(lp690
tp691
a(L3020187L
L0L
(lp692
(lp693
tp694
a(L2902417580L
L0L
(lp695
(lp696
tp697
a(L2258688485L
L0L
(lp698
(lp699
tp700
a(L3360570486L
L0L
(lp701
(lp702
tp703
atp704
sI1074267936
(Vbootloader_check_bootloader_validity
p705
(lp706
(L2819555464L
L1832448559L
(lp707
(lp708
Vefuse_hal_chip_revision
p709
aVesp_log_early_timestamp
p710
aVbootloader_common_check_chip_validity
p711
atp712
atp713
sI1074268448
(Vbootloader_init
p714
(lp715
(L2692060401L
L3785322319L
(lp716
(lp717
Vbootloader_init_mem
p718
atp719
a(L2257573091L
L0L
(lp720
(lp721
tp722
a(L1494621136L
L3785322319L
(lp723
(lp724
V__assert_func
p725
atp726
a(L4126189388L
L0L
(lp727
(lp728
tp729
a(L1661353667L
L0L
(lp730
(lp731
tp732
a(L3813782018L
L0L
(lp733
(lp734
tp735
a(L1706618237L
L0L
(lp736
(lp737
tp738
a(L3027019L
L0L
(lp739
(lp740
tp741
a(L2193211729L
L0L
(lp742
(lp743
tp744
a(L4055793689L
L1832448559L
(lp745
(lp746
Vbootloader_clear_bss_section
p747
aVbootloader_common_vddsdio_configure
p748
aVbootloader_clock_get_rated_freq_mhz
p749
atp750
a(L106L
L0L
(lp751
(lp752
tp753
a(L834610944L
L1157885199L
(lp754
(lp755
Vbootloader_clock_configure
p756
aVbootloader_console_init
p757
aV__wrap_bootloader_print_banner
p758
aVbootloader_flash_update_id
p759
aVbootloader_flash_xmc_startup
p760
atp761
a(L2733596764L
L3785322319L
(lp762
(lp763
Vesp_log_early_timestamp
p764
atp765
a(L1140227845L
L3785322319L
(lp766
(lp767
Vesp_log_early_timestamp
p768
atp769
a(L3360570486L
L0L
(lp770
(lp771
tp772
a(L2444883382L
L3785322319L
(lp773
(lp774
Vbootloader_read_bootloader_header
p775
atp776
a(L2444883382L
L3785322319L
(lp777
(lp778
Vbootloader_check_bootloader_validity
p779
atp780
a(L2444883382L
L3785322319L
(lp781
(lp782
Vbootloader_init_spi_flash
p783
atp784
a(L3638850911L
L0L
(lp785
(lp786
tp787
a(L254817508L
L0L
(lp788
(lp789
tp790
a(L93892250L
L0L
(lp791
(lp792
tp793
a(L2915015718L
L0L
(lp794
(lp795
tp796
a(L3453998209L
L1880226080L
(lp797
(lp798
Vbootloader_config_wdt
p799
aVbootloader_enable_random
p800
atp801
a(L1895147938L
L0L
(lp802
(lp803
tp804
a(L2680457259L
L0L
(lp805
(lp806
tp807
a(L3027019L
L0L
(lp808
(lp809
tp810
a(L97315L
L0L
(lp811
(lp812
tp813
a(L2197542740L
L3785322319L
(lp814
(lp815
Vesp_log_early_timestamp
p816
atp817
a(L1816026177L
L3785322319L
(lp818
(lp819
Vesp_log_early_timestamp
p820
atp821
a(L3164960223L
L0L
(lp822
(lp823
tp824
a(L1895147938L
L0L
(lp825
(lp826
tp827
a(L156585483L
L1880226080L
(lp828
(lp829
Vwdt_reset_info_dump
p830
aVwdt_reset_info_dump
p831
atp832
atp833
sI1074268960
(Vbootloader_common_vddsdio_configure
p834
(lp835
(L1829974089L
L3785322319L
(lp836
(lp837
Vrtc_vddsdio_get_config
p838
atp839
a(L2868800857L
L3785322319L
(lp840
(lp841
Vrtc_vddsdio_set_config
p842
atp843
a(L3360570486L
L0L
(lp844
(lp845
tp846
atp847
sI1074270752
(Vrtc_vddsdio_get_config
p848
(lp849
(L2124394532L
L0L
(lp850
(lp851
tp852
a(L1750635626L
L0L
(lp853
(lp854
tp855
a(L3193418487L
L0L
(lp856
(lp857
tp858
a(L2993332018L
L0L
(lp859
(lp860
tp861
a(L115635292L
L0L
(lp862
(lp863
tp864
a(L896053863L
L0L
(lp865
(lp866
tp867
a(L1306330959L
L0L
(lp868
(lp869
tp870
a(L2800419577L
L0L
(lp871
(lp872
tp873
atp874
sI1074239788
(Vbootloader_utility_get_selected_boot_partition
p875
(lp876
(L2938832293L
L0L
(lp877
(lp878
tp879
a(L842541614L
L0L
(lp880
(lp881
tp882
a(L893151972L
L3785322319L
(lp883
(lp884
Vesp_log_early_timestamp
p885
atp886
a(L194246498L
L0L
(lp887
(lp888
tp889
a(L3360570486L
L0L
(lp890
(lp891
tp892
a(L3118387733L
L3785322319L
(lp893
(lp894
Vbootloader_mmap
p895
atp896
a(L2621379218L
L3785322319L
(lp897
(lp898
Vesp_log_early_timestamp
p899
atp900
a(L3321522761L
L1880226080L
(lp901
(lp902
Vbootloader_munmap
p903
aVbootloader_common_ota_select_invalid
p904
atp905
a(L2911028409L
L0L
(lp906
(lp907
tp908
a(L726754926L
L3785322319L
(lp909
(lp910
Vbootloader_common_get_active_otadata
p911
atp912
a(L106L
L0L
(lp913
(lp914
tp915
a(L4179097382L
L0L
(lp916
(lp917
tp918
a(L788494392L
L3785322319L
(lp919
(lp920
Vbootloader_common_ota_select_invalid
p921
atp922
a(L4189674197L
L0L
(lp923
(lp924
tp925
a(L4436812L
L3785322319L
(lp926
(lp927
Vesp_log_early_timestamp
p928
atp929
a(L3833270346L
L0L
(lp930
(lp931
tp932
a(L1641201884L
L0L
(lp933
(lp934
tp935
a(L211630783L
L3785322319L
(lp936
(lp937
Vesp_log_early_timestamp
p938
atp939
a(L2302032704L
L0L
(lp940
(lp941
tp942
a(L1173788779L
L3785322319L
(lp943
(lp944
Vbootloader_common_ota_select_crc
p945
atp946
a(L4188515782L
L0L
(lp947
(lp948
tp949
a(L1324800084L
L3785322319L
(lp950
(lp951
Vbootloader_common_ota_select_crc
p952
atp953
a(L1299866312L
L0L
(lp954
(lp955
tp956
a(L1205826810L
L0L
(lp957
(lp958
tp959
a(L2799281972L
L3785322319L
(lp960
(lp961
Vesp_log_early_timestamp
p962
atp963
a(L692120553L
L3785322319L
(lp964
(lp965
Vesp_log_early_timestamp
p966
atp967
atp968
sI1074236716
(Vefuse_hal_chip_revision
p969
(lp970
(L2719302832L
L1880226080L
(lp971
(lp972
Vefuse_hal_get_major_chip_version
p973
aVefuse_hal_get_minor_chip_version
p974
atp975
atp976
sI1074245676
(Vrtc_clk_cpu_freq_get_config
p977
(lp978
(L3722895476L
L0L
(lp979
(lp980
tp981
a(L3020187L
L0L
(lp982
(lp983
tp984
a(L3020187L
L0L
(lp985
(lp986
tp987
a(L2648070573L
L3785322319L
(lp988
(lp989
Vrtc_clk_xtal_freq_get
p990
atp991
a(L3789795478L
L0L
(lp992
(lp993
tp994
a(L1195264405L
L1880226080L
(lp995
(lp996
Vesp_log_early_timestamp
p997
aVabort
p998
atp999
a(L1347439071L
L0L
(lp1000
(lp1001
tp1002
a(L3020187L
L0L
(lp1003
(lp1004
tp1005
a(L3028481L
L0L
(lp1006
(lp1007
tp1008
a(L38508693L
L0L
(lp1009
(lp1010
tp1011
a(L187152368L
L0L
(lp1012
(lp1013
tp1014
a(L1161083655L
L0L
(lp1015
(lp1016
tp1017
a(L1395485899L
L0L
(lp1018
(lp1019
tp1020
a(L2070600034L
L0L
(lp1021
(lp1022
tp1023
atp1024
sI1074236980
(Vbootloader_common_ota_select_crc
p1025
(lp1026
(L3214440559L
L0L
(lp1027
(lp1028
tp1029
atp1030
sI1074269744
(Vbootloader_flash_update_id
p1031
(lp1032
(L3527139755L
L3785322319L
(lp1033
(lp1034
Vbootloader_read_flash_id
p1035
atp1036
atp1037
sI1074240828
(Vabort
p1038
(lp1039
(L56968919L
L0L
(lp1040
(lp1041
tp1042
a(L409471316L
L0L
(lp1043
(lp1044
tp1045
a(L106L
L0L
(lp1046
(lp1047
tp1048
atp1049
sI1074245436
(Vrtc_clk_slow_freq_get_hz
p1050
(lp1051
(L1826267122L
L3785322319L
(lp1052
(lp1053
Vrtc_clk_slow_src_get
p1054
atp1055
a(L4180097535L
L0L
(lp1056
(lp1057
tp1058
a(L4004331653L
L0L
(lp1059
(lp1060
tp1061
a(L3360570486L
L0L
(lp1062
(lp1063
tp1064
atp1065
sI1074244664
(Vefuse_hal_get_rated_freq_mhz
p1066
(lp1067
(L3060225221L
L0L
(lp1068
(lp1069
tp1070
a(L338960367L
L0L
(lp1071
(lp1072
tp1073
a(L3360570486L
L0L
(lp1074
(lp1075
tp1076
atp1077
sI1074247224
(Vrtc_clk_wait_for_slow_cycle
p1078
(lp1079
(L1979977371L
L0L
(lp1080
(lp1081
tp1082
a(L287687718L
L0L
(lp1083
(lp1084
tp1085
a(L3360570486L
L0L
(lp1086
(lp1087
tp1088
a(L2664777485L
L0L
(lp1089
(lp1090
tp1091
a(L1300789833L
L0L
(lp1092
(lp1093
tp1094
a(L1259765481L
L0L
(lp1095
(lp1096
tp1097
a(L2529434910L
L0L
(lp1098
(lp1099
tp1100
a(L299865058L
L3785322319L
(lp1101
(lp1102
Vesp_log_early_timestamp
p1103
atp1104
atp1105
sI1074269256
(Vbootloader_random_enable
p1106
(lp1107
(L3275065946L
L0L
(lp1108
(lp1109
tp1110
atp1111
sI1074236740
(Vefuse_hal_flash_encryption_enabled
p1112
(lp1113
(L2932383536L
L0L
(lp1114
(lp1115
tp1116
a(L2910371777L
L0L
(lp1117
(lp1118
tp1119
a(L3360570486L
L0L
(lp1120
(lp1121
tp1122
a(L3016870L
L0L
(lp1123
(lp1124
tp1125
a(L3745038218L
L0L
(lp1126
(lp1127
tp1128
a(L957607403L
L0L
(lp1129
(lp1130
tp1131
atp1132
sI1074244416
(Vwdt_hal_write_protect_disable
p1133
(lp1134
(L2029874475L
L0L
(lp1135
(lp1136
tp1137
a(L4195472003L
L0L
(lp1138
(lp1139
tp1140
a(L3360570486L
L0L
(lp1141
(lp1142
tp1143
a(L1210571996L
L0L
(lp1144
(lp1145
tp1146
atp1147
sI1074241856
(Vshould_load
p1148
(lp1149
(L2248753231L
L0L
(lp1150
(lp1151
tp1152
a(L1182990556L
L0L
(lp1153
(lp1154
tp1155
a(L1188500889L
L0L
(lp1156
(lp1157
tp1158
a(L2306467100L
L0L
(lp1159
(lp1160
tp1161
a(L524505062L
L0L
(lp1162
(lp1163
tp1164
a(L2258897019L
L0L
(lp1165
(lp1166
tp1167
a(L3781799363L
L0L
(lp1168
(lp1169
tp1170
a(L3028464L
L0L
(lp1171
(lp1172
tp1173
a(L2798417532L
L0L
(lp1174
(lp1175
tp1176
a(L4277114872L
L0L
(lp1177
(lp1178
tp1179
a(L2824381917L
L0L
(lp1180
(lp1181
tp1182
a(L1243412227L
L0L
(lp1183
(lp1184
tp1185
a(L2011157548L
L0L
(lp1186
(lp1187
tp1188
a(L3126521138L
L0L
(lp1189
(lp1190
tp1191
a(L1305407438L
L0L
(lp1192
(lp1193
tp1194
a(L1305407469L
L0L
(lp1195
(lp1196
tp1197
atp1198
sI1074247488
(Vesp_rom_spiflash_wait_idle
p1199
(lp1200
(L3233077333L
L0L
(lp1201
(lp1202
tp1203
a(L2023766174L
L0L
(lp1204
(lp1205
tp1206
a(L2805934546L
L0L
(lp1207
(lp1208
tp1209
a(L3086959262L
L0L
(lp1210
(lp1211
tp1212
a(L4161019926L
L3785322319L
(lp1213
(lp1214
Vesp_rom_spiflash_read_status
p1215
atp1216
atp1217
sI1074268224
(Vwdt_reset_info_dump
p1218
(lp1219
(L4037458708L
L0L
(lp1220
(lp1221
tp1222
a(L963040125L
L0L
(lp1223
(lp1224
tp1225
a(L217258670L
L0L
(lp1226
(lp1227
tp1228
a(L1103285333L
L0L
(lp1229
(lp1230
tp1231
a(L251684989L
L3785322319L
(lp1232
(lp1233
Vesp_log_early_timestamp
p1234
atp1235
a(L2967992533L
L0L
(lp1236
(lp1237
tp1238
a(L2769793334L
L0L
(lp1239
(lp1240
tp1241
a(L2718964290L
L3785322319L
(lp1242
(lp1243
Vesp_log_early_timestamp
p1244
atp1245
atp1246
sI1074269248
(Vbootloader_init_mem
p1247
(lp1248
(L1287383080L
L3785322319L
(lp1249
(lp1250
Vesp_cpu_configure_region_protection
p1251
atp1252
atp1253
sI1074269760
(Vbootloader_init_spi_flash
p1254
(lp1255
(L4279108957L
L2485746240L
(lp1256
(lp1257
Vbootloader_flash_gpio_config
p1258
aVbootloader_flash_dummy_config
p1259
aVbootloader_flash_cs_timing_config
p1260
aVbootloader_flash_unlock
p1261
atp1262
a(L586021864L
L0L
(lp1263
(lp1264
tp1265
a(L3785846509L
L0L
(lp1266
(lp1267
tp1268
a(L3201442229L
L0L
(lp1269
(lp1270
tp1271
a(L2274339469L
L3785322319L
(lp1272
(lp1273
Vesp_log_early_timestamp
p1274
atp1275
a(L3404987482L
L0L
(lp1276
(lp1277
tp1278
a(L3408681566L
L0L
(lp1279
(lp1280
tp1281
a(L3412375650L
L0L
(lp1282
(lp1283
tp1284
a(L3433616137L
L0L
(lp1285
(lp1286
tp1287
a(L703427575L
L0L
(lp1288
(lp1289
tp1290
a(L3821359798L
L3785322319L
(lp1291
(lp1292
Vesp_log_early_timestamp
p1293
atp1294
a(L93674324L
L0L
(lp1295
(lp1296
tp1297
a(L1781786964L
L0L
(lp1298
(lp1299
tp1300
a(L693303538L
L0L
(lp1301
(lp1302
tp1303
a(L460500798L
L0L
(lp1304
(lp1305
tp1306
a(L678535479L
L0L
(lp1307
(lp1308
tp1309
a(L2462230754L
L3785322319L
(lp1310
(lp1311
Vesp_log_early_timestamp
p1312
atp1313
a(L93674324L
L0L
(lp1314
(lp1315
tp1316
a(L3422553167L
L0L
(lp1317
(lp1318
tp1319
a(L1707909459L
L0L
(lp1320
(lp1321
tp1322
a(L4101522284L
L0L
(lp1323
(lp1324
tp1325
a(L2483889129L
L3785322319L
(lp1326
(lp1327
Vbootloader_enable_wp
p1328
atp1329
a(L3907331784L
L0L
(lp1330
(lp1331
tp1332
atp1333
sI1074237000
(Vbootloader_common_ota_select_valid
p1334
(lp1335
(L1563399710L
L3785322319L
(lp1336
(lp1337
Vbootloader_common_ota_select_invalid
p1338
atp1339
a(L3814720849L
L3785322319L
(lp1340
(lp1341
Vbootloader_common_ota_select_crc
p1342
atp1343
a(L3360570486L
L0L
(lp1344
(lp1345
tp1346
atp1347
sI1074239304
(Vset_actual_ota_seq
p1348
(lp1349
(L4094723830L
L0L
(lp1350
(lp1351
tp1352
a(L2573507321L
L0L
(lp1353
(lp1354
tp1355
a(L3461827603L
L1832448559L
(lp1356
(lp1357
Vbootloader_common_ota_select_crc
p1358
aVesp_flash_encryption_enabled
p1359
aVbootloader_flash_erase_sector
p1360
atp1361
a(L2768623893L
L3785322319L
(lp1362
(lp1363
Vbootloader_flash_write
p1364
atp1365
a(L1288271209L
L3785322319L
(lp1366
(lp1367
Vesp_log_early_timestamp
p1368
atp1369
a(L2939835162L
L3785322319L
(lp1370
(lp1371
Vesp_log_early_timestamp
p1372
atp1373
a(L3360570486L
L0L
(lp1374
(lp1375
tp1376
atp1377
sI1074246728
(Vrtc_clk_cal_internal
p1378
(lp1379
(L3211713899L
L0L
(lp1380
(lp1381
tp1382
a(L3248315554L
L3785322319L
(lp1383
(lp1384
V__assert_func
p1385
atp1386
a(L1839043401L
L0L
(lp1387
(lp1388
tp1389
a(L1673513644L
L0L
(lp1390
(lp1391
tp1392
a(L1829177773L
L3785322319L
(lp1393
(lp1394
Vrtc_clk_slow_src_get
p1395
atp1396
a(L3008910671L
L0L
(lp1397
(lp1398
tp1399
a(L97689L
L0L
(lp1400
(lp1401
tp1402
a(L1725095778L
L0L
(lp1403
(lp1404
tp1405
a(L3028464L
L0L
(lp1406
(lp1407
tp1408
a(L3028481L
L0L
(lp1409
(lp1410
tp1411
a(L3450258779L
L0L
(lp1412
(lp1413
tp1414
a(L204864475L
L3785322319L
(lp1415
(lp1416
Vrtc_clk_xtal_freq_get
p1417
atp1418
a(L2780079961L
L0L
(lp1419
(lp1420
tp1421
a(L3609124145L
L0L
(lp1422
(lp1423
tp1424
a(L827207193L
L3785322319L
(lp1425
(lp1426
Vesp_log_early_timestamp
p1427
atp1428
a(L2258688482L
L0L
(lp1429
(lp1430
tp1431
a(L3360570486L
L0L
(lp1432
(lp1433
tp1434
a(L3553505594L
L0L
(lp1435
(lp1436
tp1437
a(L403361192L
L0L
(lp1438
(lp1439
tp1440
a(L3243404432L
L3785322319L
(lp1441
(lp1442
Vrtc_clk_8m_enable
p1443
atp1444
a(L1960044254L
L0L
(lp1445
(lp1446
tp1447
a(L569203943L
L0L
(lp1448
(lp1449
tp1450
a(L2910371777L
L0L
(lp1451
(lp1452
tp1453
a(L2902417580L
L0L
(lp1454
(lp1455
tp1456
a(L645786836L
L0L
(lp1457
(lp1458
tp1459
a(L3020204L
L0L
(lp1460
(lp1461
tp1462
a(L2235519328L
L0L
(lp1463
(lp1464
tp1465
a(L3429540926L
L0L
(lp1466
(lp1467
tp1468
a(L3028464L
L0L
(lp1469
(lp1470
tp1471
a(L3309590973L
L3785322319L
(lp1472
(lp1473
Vrtc_clk_8m_enable
p1474
atp1475
atp1476
sI1074269016
(Vbootloader_clock_configure
p1477
(lp1478
(L2559598596L
L1880226080L
(lp1479
(lp1480
Vesp_rom_uart_tx_wait_idle
p1481
aVefuse_hal_chip_revision
p1482
atp1483
a(L3816159775L
L0L
(lp1484
(lp1485
tp1486
a(L883406775L
L0L
(lp1487
(lp1488
tp1489
a(L106L
L0L
(lp1490
(lp1491
tp1492
a(L455243551L
L1832448559L
(lp1493
(lp1494
Vrtc_clk_slow_src_get
p1495
aVrtc_clk_fast_src_get
p1496
aVrtc_clk_init
p1497
atp1498
a(L2130959495L
L0L
(lp1499
(lp1500
tp1501
a(L1070046669L
L3785322319L
(lp1502
(lp1503
Vrtc_clk_apb_freq_get
p1504
atp1505
a(L106L
L0L
(lp1506
(lp1507
tp1508
a(L106L
L0L
(lp1509
(lp1510
tp1511
atp1512
sI1074237268
(Vbootloader_common_get_active_otadata
p1513
(lp1514
(L3317503532L
L0L
(lp1515
(lp1516
tp1517
a(L2503049265L
L1832448559L
(lp1518
(lp1519
Vbootloader_common_ota_select_valid
p1520
aVbootloader_common_ota_select_valid
p1521
aVbootloader_common_select_otadata
p1522
atp1523
a(L735741265L
L0L
(lp1524
(lp1525
tp1526
atp1527
sI1074238804
(Vcache_ll_l1_enable_bus
p1528
(lp1529
(L1908488057L
L0L
(lp1530
(lp1531
tp1532
atp1533
sI1074240592
(Vbootloader_sha256_finish
p1534
(lp1535
(L4066096136L
L0L
(lp1536
(lp1537
tp1538
a(L3125987449L
L0L
(lp1539
(lp1540
tp1541
a(L3884092851L
L3785322319L
(lp1542
(lp1543
V__assert_func
p1544
atp1545
a(L3020204L
L0L
(lp1546
(lp1547
tp1548
a(L1816853500L
L0L
(lp1549
(lp1550
tp1551
a(L2534656226L
L0L
(lp1552
(lp1553
tp1554
a(L551614134L
L3785322319L
(lp1555
(lp1556
Vbootloader_sha256_data
p1557
atp1558
a(L3281735505L
L0L
(lp1559
(lp1560
tp1561
a(L841302101L
L3785322319L
(lp1562
(lp1563
Vbootloader_sha256_data
p1564
atp1565
a(L3768329152L
L0L
(lp1566
(lp1567
tp1568
a(L657425439L
L0L
(lp1569
(lp1570
tp1571
a(L3930848034L
L0L
(lp1572
(lp1573
tp1574
a(L657425439L
L0L
(lp1575
(lp1576
tp1577
a(L4116699460L
L0L
(lp1578
(lp1579
tp1580
a(L3511307343L
L0L
(lp1581
(lp1582
tp1583
a(L3347778L
L0L
(lp1584
(lp1585
tp1586
a(L3360570486L
L0L
(lp1587
(lp1588
tp1589
atp1590
sI1074238544
(Vbootloader_clock_get_rated_freq_mhz
p1591
(lp1592
(L376617603L
L3785322319L
(lp1593
(lp1594
Vefuse_hal_get_rated_freq_mhz
p1595
atp1596
atp1597
sI1074238556
(Vlog_invalid_app_partition
p1598
(lp1599
(L3121159614L
L0L
(lp1600
(lp1601
tp1602
a(L3028464L
L0L
(lp1603
(lp1604
tp1605
a(L1381405837L
L3785322319L
(lp1606
(lp1607
Vesp_log_early_timestamp
p1608
atp1609
a(L3833270346L
L0L
(lp1610
(lp1611
tp1612
a(L3360570486L
L0L
(lp1613
(lp1614
tp1615
a(L3430459325L
L3785322319L
(lp1616
(lp1617
Vesp_log_early_timestamp
p1618
atp1619
a(L3309219235L
L3785322319L
(lp1620
(lp1621
Vesp_log_early_timestamp
p1622
atp1623
atp1624
sI1074244700
(Vrtc_clk_32k_enable_common
p1625
(lp1626
(L493234424L
L0L
(lp1627
(lp1628
tp1629
a(L97422L
L0L
(lp1630
(lp1631
tp1632
a(L2218417248L
L0L
(lp1633
(lp1634
tp1635
a(L3638412133L
L0L
(lp1636
(lp1637
tp1638
a(L51458120L
L0L
(lp1639
(lp1640
tp1641
atp1642
sI1074267732
(Vcall_start_cpu0
p1643
(lp1644
(L1137852827L
L0L
(lp1645
(lp1646
tp1647
a(L549459388L
L0L
(lp1648
(lp1649
tp1650
a(L3212347974L
L3785322319L
(lp1651
(lp1652
Vbootloader_init
p1653
atp1654
a(L94425498L
L3785322319L
(lp1655
(lp1656
Vbootloader_reset
p1657
atp1658
a(L1122046408L
L0L
(lp1659
(lp1660
tp1661
a(L4099474112L
L0L
(lp1662
(lp1663
tp1664
a(L3015046664L
L3785322319L
(lp1665
(lp1666
Vbootloader_utility_load_partition_table
p1667
atp1668
a(L2761094216L
L3785322319L
(lp1669
(lp1670
Vesp_log_early_timestamp
p1671
atp1672
a(L405422123L
L3785322319L
(lp1673
(lp1674
Vbootloader_utility_get_selected_boot_partition
p1675
atp1676
a(L2055385849L
L3785322319L
(lp1677
(lp1678
Vbootloader_utility_load_boot_image
p1679
atp1680
atp1681
sI1074240088
(Vbootloader_reset
p1682
(lp1683
(L1083704575L
L3785322319L
(lp1684
(lp1685
Vbootloader_console_deinit
p1686
atp1687
a(L106L
L0L
(lp1688
(lp1689
tp1690
atp1691
sI1074234712
(Vbootloader_common_get_chip_ver_pkg
p1692
(lp1693
(L994406025L
L0L
(lp1694
(lp1695
tp1696
atp1697
sI1074245464
(Vrtc_clk_fast_src_set
p1698
(lp1699
(L3974279653L
L0L
(lp1700
(lp1701
tp1702
a(L3020187L
L0L
(lp1703
(lp1704
tp1705
a(L3827921190L
L3785322319L
(lp1706
(lp1707
Vabort
p1708
atp1709
a(L2904656757L
L0L
(lp1710
(lp1711
tp1712
a(L206212292L
L0L
(lp1713
(lp1714
tp1715
a(L300459962L
L0L
(lp1716
(lp1717
tp1718
atp1719
sI1074235236
(Vbootloader_execute_flash_command
p1720
(lp1721
(L2481595632L
L3785322319L
(lp1722
(lp1723
Vbootloader_flash_execute_command_common
p1724
atp1725
atp1726
sI1074240352
(Vindex_to_partition
p1727
(lp1728
(L4066096119L
L0L
(lp1729
(lp1730
tp1731
a(L1101255660L
L0L
(lp1732
(lp1733
tp1734
a(L1955702725L
L0L
(lp1735
(lp1736
tp1737
a(L3698927993L
L0L
(lp1738
(lp1739
tp1740
a(L2808906342L
L0L
(lp1741
(lp1742
tp1743
a(L4211744375L
L0L
(lp1744
(lp1745
tp1746
a(L3097778015L
L0L
(lp1747
(lp1748
tp1749
a(L1816235430L
L0L
(lp1750
(lp1751
tp1752
a(L2179185678L
L0L
(lp1753
(lp1754
tp1755
a(L3369319173L
L0L
(lp1756
(lp1757
tp1758
atp1759
sI1074244448
(Vwdt_hal_set_flashboot_en
p1760
(lp1761
(L2375320464L
L0L
(lp1762
(lp1763
tp1764
a(L3915867581L
L0L
(lp1765
(lp1766
tp1767
a(L3360570486L
L0L
(lp1768
(lp1769
tp1770
a(L1860344008L
L0L
(lp1771
(lp1772
tp1773
atp1774
sI1074270048
(Vbootloader_console_init
p1775
(lp1776
(L3491145755L
L1832448559L
(lp1777
(lp1778
Vesp_rom_uart_tx_wait_idle
p1779
aVrtc_clk_apb_freq_get
p1780
aVesp_rom_uart_set_clock_baudrate
p1781
atp1782
atp1783
sI1074237036
(Vbootloader_common_check_chip_validity
p1784
(lp1785
(L2080115690L
L0L
(lp1786
(lp1787
tp1788
a(L101167642L
L3785322319L
(lp1789
(lp1790
Vesp_log_early_timestamp
p1791
atp1792
a(L1299867982L
L0L
(lp1793
(lp1794
tp1795
a(L3360570486L
L0L
(lp1796
(lp1797
tp1798
a(L521940037L
L3785322319L
(lp1799
(lp1800
Vefuse_hal_chip_revision
p1801
atp1802
a(L1521164372L
L0L
(lp1803
(lp1804
tp1805
a(L1652761108L
L3785322319L
(lp1806
(lp1807
Vesp_log_early_timestamp
p1808
atp1809
a(L3028464L
L0L
(lp1810
(lp1811
tp1812
a(L1797954754L
L0L
(lp1813
(lp1814
tp1815
a(L106L
L0L
(lp1816
(lp1817
tp1818
a(L3027019L
L0L
(lp1819
(lp1820
tp1821
a(L106L
L0L
(lp1822
(lp1823
tp1824
a(L2173180754L
L3785322319L
(lp1825
(lp1826
Vesp_log_early_timestamp
p1827
atp1828
atp1829
sI1074236780
(Vefuse_hal_get_major_chip_version
p1830
(lp1831
(L503352333L
L0L
(lp1832
(lp1833
tp1834
a(L894792960L
L0L
(lp1835
(lp1836
tp1837
a(L724635033L
L0L
(lp1838
(lp1839
tp1840
a(L3360570486L
L0L
(lp1841
(lp1842
tp1843
atp1844
sI1074240876
(Vbootloader_ana_clock_glitch_reset_config
p1845
(lp1846
(L2100504542L
L0L
(lp1847
(lp1848
tp1849
atp1850
sI1074268004
(Vbootloader_config_wdt
p1851
(lp1852
(L1723741440L
L505859776L
(lp1853
(lp1854
Vwdt_hal_write_protect_disable
p1855
aVwdt_hal_set_flashboot_en
p1856
aVwdt_hal_write_protect_enable
p1857
aVwdt_hal_init
p1858
aVrtc_clk_slow_freq_get_hz
p1859
aVwdt_hal_write_protect_disable
p1860
aVwdt_hal_config_stage
p1861
aVwdt_hal_enable
p1862
aVwdt_hal_write_protect_enable
p1863
aVwdt_hal_write_protect_disable
p1864
aVwdt_hal_set_flashboot_en
p1865
aVwdt_hal_write_protect_enable
p1866
atp1867
atp1868
sI1074270308
(Vrtc_clk_init
p1869
(lp1870
(L4193800167L
L0L
(lp1871
(lp1872
tp1873
a(L42671777L
L3785322319L
(lp1874
(lp1875
Vrtc_clk_cpu_freq_to_xtal
p1876
atp1877
a(L1494342933L
L3785322319L
(lp1878
(lp1879
Vrtc_clk_xtal_freq_get
p1880
atp1881
a(L3028481L
L0L
(lp1882
(lp1883
tp1884
a(L4284274517L
L3785322319L
(lp1885
(lp1886
Vrtc_clk_xtal_freq_estimate
p1887
atp1888
a(L3990153130L
L3785322319L
(lp1889
(lp1890
Vesp_log_early_timestamp
p1891
atp1892
a(L417456623L
L1157885199L
(lp1893
(lp1894
Vesp_rom_uart_tx_wait_idle
p1895
aVrtc_clk_xtal_freq_update
p1896
aVrtc_clk_apb_freq_update
p1897
aVrtc_clk_cpu_freq_get_config
p1898
aVrtc_clk_cpu_freq_mhz_to_config
p1899
atp1900
a(L3975022459L
L1880226080L
(lp1901
(lp1902
Vesp_log_early_timestamp
p1903
aVabort
p1904
atp1905
a(L2902417580L
L0L
(lp1906
(lp1907
tp1908
a(L1899970065L
L0L
(lp1909
(lp1910
tp1911
a(L377687546L
L3785322319L
(lp1912
(lp1913
Vrtc_clk_xtal_freq_estimate
p1914
atp1915
a(L996809423L
L3785322319L
(lp1916
(lp1917
Vesp_log_early_timestamp
p1918
atp1919
a(L1975034047L
L3785322319L
(lp1920
(lp1921
Vrtc_clk_cpu_freq_set_config
p1922
atp1923
a(L912310138L
L3785322319L
(lp1924
(lp1925
Vrtc_clk_32k_enable
p1926
atp1927
a(L3191820416L
L1832448559L
(lp1928
(lp1929
Vrtc_clk_8m_enable
p1930
aVrtc_clk_fast_src_set
p1931
aVrtc_clk_slow_src_set
p1932
atp1933
a(L1232958848L
L0L
(lp1934
(lp1935
tp1936
atp1937
sI1074247784
(Vesp_rom_spiflash_erase_sector
p1938
(lp1939
(L209754944L
L0L
(lp1940
(lp1941
tp1942
a(L2258688483L
L0L
(lp1943
(lp1944
tp1945
a(L3360570486L
L0L
(lp1946
(lp1947
tp1948
a(L3212356251L
L3785322319L
(lp1949
(lp1950
Vesp_rom_spiflash_enable_write
p1951
atp1952
a(L184152988L
L0L
(lp1953
(lp1954
tp1955
a(L675211730L
L3785322319L
(lp1956
(lp1957
Vesp_rom_spiflash_wait_idle
p1958
atp1959
a(L3333707777L
L0L
(lp1960
(lp1961
tp1962
a(L3582858798L
L3785322319L
(lp1963
(lp1964
Vesp_rom_spiflash_wait_idle
p1965
atp1966
atp1967
sI1074240884
(Vprocess_checksum
p1968
(lp1969
(L4225894707L
L0L
(lp1970
(lp1971
tp1972
a(L3028481L
L0L
(lp1973
(lp1974
tp1975
a(L186886970L
L0L
(lp1976
(lp1977
tp1978
a(L2902417580L
L0L
(lp1979
(lp1980
tp1981
a(L3028481L
L0L
(lp1982
(lp1983
tp1984
a(L404508301L
L3785322319L
(lp1985
(lp1986
Vesp_log_early_timestamp
p1987
atp1988
a(L3620623795L
L0L
(lp1989
(lp1990
tp1991
a(L3236648107L
L3785322319L
(lp1992
(lp1993
Vbootloader_flash_read
p1994
atp1995
a(L735741265L
L0L
(lp1996
(lp1997
tp1998
a(L3020204L
L0L
(lp1999
(lp2000
tp2001
a(L2480703612L
L3785322319L
(lp2002
(lp2003
Vbootloader_sha256_data
p2004
atp2005
a(L3436105237L
L0L
(lp2006
(lp2007
tp2008
a(L106L
L0L
(lp2009
(lp2010
tp2011
atp2012
sI1074240112
(Vbootloader_utility_load_boot_image
p2013
(lp2014
(L1375294773L
L0L
(lp2015
(lp2016
tp2017
a(L2177418995L
L3785322319L
(lp2018
(lp2019
Vtry_load_partition
p2020
atp2021
a(L1305243774L
L3785322319L
(lp2022
(lp2023
Vload_image
p2024
atp2025
a(L1481893282L
L3785322319L
(lp2026
(lp2027
Vesp_log_early_timestamp
p2028
atp2029
a(L3827921190L
L3785322319L
(lp2030
(lp2031
Vbootloader_reset
p2032
atp2033
a(L1953693036L
L3785322319L
(lp2034
(lp2035
Vindex_to_partition
p2036
atp2037
a(L1204373741L
L3785322319L
(lp2038
(lp2039
Vtry_load_partition
p2040
atp2041
a(L1899865696L
L0L
(lp2042
(lp2043
tp2044
a(L2695355117L
L3785322319L
(lp2045
(lp2046
Vset_actual_ota_seq
p2047
atp2048
a(L1868897605L
L3785322319L
(lp2049
(lp2050
Vlog_invalid_app_partition
p2051
atp2052
a(L831650730L
L0L
(lp2053
(lp2054
tp2055
a(L3021737L
L0L
(lp2056
(lp2057
tp2058
a(L695456438L
L0L
(lp2059
(lp2060
tp2061
a(L1129532116L
L3785322319L
(lp2062
(lp2063
Vtry_load_partition
p2064
atp2065
a(L4022121633L
L3785322319L
(lp2066
(lp2067
Vesp_log_early_timestamp
p2068
atp2069
a(L2347390157L
L3785322319L
(lp2070
(lp2071
Vindex_to_partition
p2072
atp2073
a(L1204373741L
L3785322319L
(lp2074
(lp2075
Vtry_load_partition
p2076
atp2077
a(L3061261803L
L0L
(lp2078
(lp2079
tp2080
a(L3582858798L
L3785322319L
(lp2081
(lp2082
Vlog_invalid_app_partition
p2083
atp2084
a(L1285752117L
L3785322319L
(lp2085
(lp2086
Vesp_log_early_timestamp
p2087
atp2088
atp2089
sI1074246000
(Vrtc_clk_cpu_freq_set_config
p2090
(lp2091
(L2360939883L
L3785322319L
(lp2092
(lp2093
Vrtc_clk_xtal_freq_get
p2094
atp2095
a(L2308773007L
L0L
(lp2096
(lp2097
tp2098
a(L3253451229L
L1880226080L
(lp2099
(lp2100
Vrtc_clk_cpu_freq_to_xtal
p2101
aVrtc_clk_wait_for_slow_cycle
p2102
atp2103
a(L2243645672L
L0L
(lp2104
(lp2105
tp2106
a(L4002786498L
L0L
(lp2107
(lp2108
tp2109
a(L2736411858L
L3785322319L
(lp2110
(lp2111
Vrtc_clk_cpu_freq_to_xtal
p2112
atp2113
a(L3360570486L
L0L
(lp2114
(lp2115
tp2116
a(L2755207760L
L1832448559L
(lp2117
(lp2118
Vrtc_clk_cpu_freq_to_xtal
p2119
aVrtc_clk_wait_for_slow_cycle
p2120
aVrtc_clk_bbpll_disable
p2121
atp2122
a(L3020187L
L0L
(lp2123
(lp2124
tp2125
a(L106L
L0L
(lp2126
(lp2127
tp2128
a(L4047963807L
L1880226080L
(lp2129
(lp2130
Vrtc_clk_wait_for_slow_cycle
p2131
aVrtc_clk_xtal_freq_get
p2132
atp2133
a(L106L
L0L
(lp2134
(lp2135
tp2136
a(L2760149137L
L0L
(lp2137
(lp2138
tp2139
a(L83268611L
L0L
(lp2140
(lp2141
tp2142
a(L106L
L0L
(lp2143
(lp2144
tp2145
a(L82345090L
L0L
(lp2146
(lp2147
tp2148
a(L106L
L0L
(lp2149
(lp2150
tp2151
a(L2258718273L
L0L
(lp2152
(lp2153
tp2154
a(L3298883534L
L0L
(lp2155
(lp2156
tp2157
a(L3342915645L
L0L
(lp2158
(lp2159
tp2160
a(L1001325447L
L3785322319L
(lp2161
(lp2162
Vrtc_clk_cpu_freq_to_pll_mhz
p2163
atp2164
a(L4211651074L
L0L
(lp2165
(lp2166
tp2167
a(L83268344L
L0L
(lp2168
(lp2169
tp2170
a(L82344823L
L0L
(lp2171
(lp2172
tp2173
a(L1569180676L
L0L
(lp2174
(lp2175
tp2176
a(L2258837488L
L0L
(lp2177
(lp2178
tp2179
a(L2862615613L
L0L
(lp2180
(lp2181
tp2182
a(L1482311963L
L0L
(lp2183
(lp2184
tp2185
a(L133411965L
L0L
(lp2186
(lp2187
tp2188
a(L3673491036L
L0L
(lp2189
(lp2190
tp2191
a(L4197990447L
L0L
(lp2192
(lp2193
tp2194
a(L903154985L
L0L
(lp2195
(lp2196
tp2197
a(L3020187L
L0L
(lp2198
(lp2199
tp2200
a(L106L
L0L
(lp2201
(lp2202
tp2203
a(L1614513146L
L3785322319L
(lp2204
(lp2205
Vesp_rom_set_cpu_ticks_per_us
p2206
atp2207
atp2208
sI1074247536
(Vesp_rom_spiflash_enable_write
p2209
(lp2210
(L1607061878L
L3785322319L
(lp2211
(lp2212
Vesp_rom_spiflash_wait_idle
p2213
atp2214
a(L3333707777L
L0L
(lp2215
(lp2216
tp2217
a(L2258688484L
L0L
(lp2218
(lp2219
tp2220
a(L99543895L
L0L
(lp2221
(lp2222
tp2223
a(L2993202392L
L0L
(lp2224
(lp2225
tp2226
a(L374468446L
L3785322319L
(lp2227
(lp2228
Vesp_rom_spiflash_read_status
p2229
atp2230
atp2231
sI1074237308
(Vbootloader_common_ota_select_invalid
p2232
(lp2233
(L4027567199L
L0L
(lp2234
(lp2235
tp2236
a(L3397985842L
L0L
(lp2237
(lp2238
tp2239
a(L2258867228L
L0L
(lp2240
(lp2241
tp2242
a(L3785235668L
L0L
(lp2243
(lp2244
tp2245
atp2246
sI1074245244
(Vrtc_clk_8m_enabled
p2247
(lp2248
(L4125363490L
L0L
(lp2249
(lp2250
tp2251
atp2252
sI1074234744
(Vesp_flash_encryption_enabled
p2253
(lp2254
(L376617603L
L3785322319L
(lp2255
(lp2256
Vefuse_hal_flash_encryption_enabled
p2257
atp2258
atp2259
sI1074236536
(Vesp_rom_set_cpu_ticks_per_us
p2260
(lp2261
(L2370326522L
L0L
(lp2262
(lp2263
tp2264
atp2265
sI1074243204
(Vbootloader_load_image
p2266
(lp2267
(L1155870502L
L3785322319L
(lp2268
(lp2269
Vimage_load
p2270
atp2271
atp2272
sI1074235268
(Vbootloader_flash_unlock
p2273
(lp2274
(L485855552L
L3785322319L
(lp2275
(lp2276
Vesp_rom_spiflash_wait_idle
p2277
atp2278
a(L711923870L
L0L
(lp2279
(lp2280
tp2281
a(L3507311156L
L3785322319L
(lp2282
(lp2283
Vbootloader_execute_flash_command
p2284
atp2285
a(L4103218025L
L0L
(lp2286
(lp2287
tp2288
a(L2529045083L
L0L
(lp2289
(lp2290
tp2291
a(L1175784077L
L1832448559L
(lp2292
(lp2293
Vesp_rom_spiflash_wait_idle
p2294
aVbootloader_execute_flash_command
p2295
aVbootloader_execute_flash_command
p2296
atp2297
a(L106L
L0L
(lp2298
(lp2299
tp2300
a(L594961218L
L1880226080L
(lp2301
(lp2302
Vesp_rom_spiflash_wait_idle
p2303
aVbootloader_execute_flash_command
p2304
atp2305
a(L2993202392L
L0L
(lp2306
(lp2307
tp2308
a(L610618707L
L0L
(lp2309
(lp2310
tp2311
a(L2843273676L
L0L
(lp2312
(lp2313
tp2314
a(L192015437L
L0L
(lp2315
(lp2316
tp2317
a(L3154322046L
L1880226080L
(lp2318
(lp2319
Vbootloader_execute_flash_command
p2320
aVbootloader_execute_flash_command
p2321
atp2322
a(L1303560644L
L0L
(lp2323
(lp2324
tp2325
a(L1711531685L
L1880226080L
(lp2326
(lp2327
Vbootloader_execute_flash_command
p2328
aVbootloader_execute_flash_command
p2329
atp2330
a(L3658700047L
L0L
(lp2331
(lp2332
tp2333
a(L3430607254L
L0L
(lp2334
(lp2335
tp2336
a(L106L
L0L
(lp2337
(lp2338
tp2339
a(L1876788132L
L1832448559L
(lp2340
(lp2341
Vesp_rom_spiflash_wait_idle
p2342
aVbootloader_execute_flash_command
p2343
aVbootloader_execute_flash_command
p2344
atp2345
atp2346
sI1074234756
(Vbootloader_flash_execute_command_common
p2347
(lp2348
(L3865052895L
L0L
(lp2349
(lp2350
tp2351
a(L3287175997L
L0L
(lp2352
(lp2353
tp2354
a(L4121451103L
L3785322319L
(lp2355
(lp2356
V__assert_func
p2357
atp2358
a(L3021749L
L0L
(lp2359
(lp2360
tp2361
a(L3999871943L
L0L
(lp2362
(lp2363
tp2364
a(L543316797L
L0L
(lp2365
(lp2366
tp2367
a(L2091933878L
L0L
(lp2368
(lp2369
tp2370
a(L1702379862L
L0L
(lp2371
(lp2372
tp2373
a(L3432464320L
L0L
(lp2374
(lp2375
tp2376
a(L3539375712L
L0L
(lp2377
(lp2378
tp2379
a(L3244449450L
L0L
(lp2380
(lp2381
tp2382
a(L4233404408L
L0L
(lp2383
(lp2384
tp2385
a(L2990329343L
L0L
(lp2386
(lp2387
tp2388
a(L2051090536L
L0L
(lp2389
(lp2390
tp2391
a(L3333696662L
L0L
(lp2392
(lp2393
tp2394
a(L963425213L
L0L
(lp2395
(lp2396
tp2397
a(L339491738L
L0L
(lp2398
(lp2399
tp2400
a(L3360570486L
L0L
(lp2401
(lp2402
tp2403
atp2404
sI1074244996
(Vrtc_clk_bbpll_disable
p2405
(lp2406
(L3905321210L
L0L
(lp2407
(lp2408
tp2409
a(L2472207241L
L0L
(lp2410
(lp2411
tp2412
a(L3360570486L
L0L
(lp2413
(lp2414
tp2415
atp2416
sI1074270084
(Vesp_cpu_configure_region_protection
p2417
(lp2418
(L3263616706L
L0L
(lp2419
(lp2420
tp2421
a(L180431425L
L3785322319L
(lp2422
(lp2423
Vmpu_hal_set_region_access
p2424
atp2425
a(L2537388152L
L3785322319L
(lp2426
(lp2427
Vmpu_hal_set_region_access
p2428
atp2429
atp2430
sI1074236552
(Vesp_rom_uart_tx_wait_idle
p2431
(lp2432
(L2849601099L
L0L
(lp2433
(lp2434
tp2435
a(L1301079727L
L0L
(lp2436
(lp2437
tp2438
a(L597952197L
L0L
(lp2439
(lp2440
tp2441
a(L1971823332L
L0L
(lp2442
(lp2443
tp2444
a(L3055926844L
L0L
(lp2445
(lp2446
tp2447
a(L3360570486L
L0L
(lp2448
(lp2449
tp2450
a(L3694491048L
L0L
(lp2451
(lp2452
tp2453
a(L106L
L0L
(lp2454
(lp2455
tp2456
atp2457
sI1074238856
(Vcache_ll_l1_enable_bus
p2458
(lp2459
(L1408514293L
L0L
(lp2460
(lp2461
tp2462
atp2463
sI1074243220
(Vesp_partition_table_verify
p2464
(lp2465
(L3052823174L
L0L
(lp2466
(lp2467
tp2468
a(L1787509322L
L0L
(lp2469
(lp2470
tp2471
a(L1184829782L
L0L
(lp2472
(lp2473
tp2474
a(L3020204L
L0L
(lp2475
(lp2476
tp2477
a(L2512375030L
L3785322319L
(lp2478
(lp2479
Vesp_log_early_timestamp
p2480
atp2481
a(L1235012963L
L0L
(lp2482
(lp2483
tp2484
a(L3190337587L
L0L
(lp2485
(lp2486
tp2487
a(L2069928857L
L0L
(lp2488
(lp2489
tp2490
a(L2902417580L
L0L
(lp2491
(lp2492
tp2493
a(L1997576908L
L3785322319L
(lp2494
(lp2495
Vesp_log_early_timestamp
p2496
atp2497
a(L1535212808L
L0L
(lp2498
(lp2499
tp2500
a(L3020204L
L0L
(lp2501
(lp2502
tp2503
a(L3020204L
L0L
(lp2504
(lp2505
tp2506
a(L757174634L
L3785322319L
(lp2507
(lp2508
Vesp_log_early_timestamp
p2509
atp2510
a(L3833270346L
L0L
(lp2511
(lp2512
tp2513
a(L1235012932L
L0L
(lp2514
(lp2515
tp2516
a(L3307599839L
L0L
(lp2517
(lp2518
tp2519
a(L3020204L
L0L
(lp2520
(lp2521
tp2522
a(L1997576660L
L3785322319L
(lp2523
(lp2524
Vesp_log_early_timestamp
p2525
atp2526
a(L1305407469L
L0L
(lp2527
(lp2528
tp2529
a(L1167861556L
L0L
(lp2530
(lp2531
tp2532
a(L818997085L
L0L
(lp2533
(lp2534
tp2535
a(L3360570486L
L0L
(lp2536
(lp2537
tp2538
a(L3020204L
L0L
(lp2539
(lp2540
tp2541
a(L912913761L
L3785322319L
(lp2542
(lp2543
Vesp_log_early_timestamp
p2544
atp2545
atp2546
sI1074245268
(Vrtc_clk_8md256_enabled
p2547
(lp2548
(L3280891619L
L0L
(lp2549
(lp2550
tp2551
atp2552
sI1074248084
(Vesp_rom_spiflash_write_encrypted
p2553
(lp2554
(L1944247967L
L0L
(lp2555
(lp2556
tp2557
a(L484831750L
L0L
(lp2558
(lp2559
tp2560
a(L97689L
L0L
(lp2561
(lp2562
tp2563
a(L3061232074L
L0L
(lp2564
(lp2565
tp2566
a(L364518710L
L0L
(lp2567
(lp2568
tp2569
a(L1309309703L
L3785322319L
(lp2570
(lp2571
Vesp_rom_spiflash_write
p2572
atp2573
a(L1246748027L
L0L
(lp2574
(lp2575
tp2576
a(L735741265L
L0L
(lp2577
(lp2578
tp2579
atp2580
sI1074237336
(Vbootloader_common_select_otadata
p2581
(lp2582
(L4071767857L
L0L
(lp2583
(lp2584
tp2585
a(L1999329187L
L0L
(lp2586
(lp2587
tp2588
a(L3846398843L
L0L
(lp2589
(lp2590
tp2591
a(L2501968171L
L0L
(lp2592
(lp2593
tp2594
a(L3360570486L
L0L
(lp2595
(lp2596
tp2597
a(L2045232488L
L0L
(lp2598
(lp2599
tp2600
a(L1243525916L
L0L
(lp2601
(lp2602
tp2603
a(L3094144427L
L0L
(lp2604
(lp2605
tp2606
a(L2399509845L
L0L
(lp2607
(lp2608
tp2609
a(L1641201884L
L0L
(lp2610
(lp2611
tp2612
atp2613
sI1074245528
(Vrtc_clk_fast_src_get
p2614
(lp2615
(L2355769504L
L0L
(lp2616
(lp2617
tp2618
atp2619
sI1074235556
(Vbootloader_flash_read_sfdp
p2620
(lp2621
(L711701400L
L0L
(lp2622
(lp2623
tp2624
a(L3305374083L
L3785322319L
(lp2625
(lp2626
V__assert_func
p2627
atp2628
a(L3704332455L
L3785322319L
(lp2629
(lp2630
Vbootloader_flash_execute_command_common
p2631
atp2632
atp2633
sI1074242724
(Vimage_load
p2634
(lp2635
(L3048705773L
L0L
(lp2636
(lp2637
tp2638
a(L3463713141L
L0L
(lp2639
(lp2640
tp2641
a(L3309803581L
L0L
(lp2642
(lp2643
tp2644
a(L256049682L
L0L
(lp2645
(lp2646
tp2647
a(L1935188817L
L0L
(lp2648
(lp2649
tp2650
a(L3028481L
L0L
(lp2651
(lp2652
tp2653
a(L3021749L
L0L
(lp2654
(lp2655
tp2656
a(L106L
L0L
(lp2657
(lp2658
tp2659
a(L585264737L
L0L
(lp2660
(lp2661
tp2662
a(L1145291904L
L3785322319L
(lp2663
(lp2664
Vprocess_image_header
p2665
atp2666
a(L823859500L
L0L
(lp2667
(lp2668
tp2669
a(L3061291474L
L0L
(lp2670
(lp2671
tp2672
a(L4106474008L
L3785322319L
(lp2673
(lp2674
Vprocess_segments
p2675
atp2676
a(L3868840998L
L0L
(lp2677
(lp2678
tp2679
a(L2539156582L
L0L
(lp2680
(lp2681
tp2682
a(L1827898452L
L3785322319L
(lp2683
(lp2684
Vprocess_checksum
p2685
atp2686
a(L2214715179L
L3785322319L
(lp2687
(lp2688
Vprocess_appended_hash_and_sig
p2689
atp2690
a(L3028481L
L0L
(lp2691
(lp2692
tp2693
a(L2902417580L
L0L
(lp2694
(lp2695
tp2696
a(L3285560995L
L3785322319L
(lp2697
(lp2698
Vbootloader_sha256_finish
p2699
atp2700
a(L3946560000L
L0L
(lp2701
(lp2702
tp2703
a(L93674324L
L0L
(lp2704
(lp2705
tp2706
a(L1697897005L
L0L
(lp2707
(lp2708
tp2709
a(L772115669L
L0L
(lp2710
(lp2711
tp2712
a(L1179424413L
L0L
(lp2713
(lp2714
tp2715
a(L3928150917L
L0L
(lp2716
(lp2717
tp2718
a(L106L
L0L
(lp2719
(lp2720
tp2721
a(L3871473710L
L0L
(lp2722
(lp2723
tp2724
a(L3884726427L
L0L
(lp2725
(lp2726
tp2727
a(L106L
L0L
(lp2728
(lp2729
tp2730
a(L3020187L
L0L
(lp2731
(lp2732
tp2733
a(L1154787525L
L3785322319L
(lp2734
(lp2735
Vesp_log_early_timestamp
p2736
atp2737
a(L2868044067L
L0L
(lp2738
(lp2739
tp2740
a(L1179764900L
L0L
(lp2741
(lp2742
tp2743
a(L2332746046L
L3785322319L
(lp2744
(lp2745
Vbootloader_sha256_finish
p2746
atp2747
a(L2040089937L
L0L
(lp2748
(lp2749
tp2750
a(L3020204L
L0L
(lp2751
(lp2752
tp2753
a(L2321110974L
L0L
(lp2754
(lp2755
tp2756
a(L106L
L0L
(lp2757
(lp2758
tp2759
a(L4011122867L
L1880226080L
(lp2760
(lp2761
Vbootloader_sha256_finish
p2762
aVbootloader_debug_buffer
p2763
atp2764
a(L4175189927L
L1880226080L
(lp2765
(lp2766
Vesp_log_early_timestamp
p2767
aVbootloader_debug_buffer
p2768
atp2769
a(L3741653406L
L3785322319L
(lp2770
(lp2771
Vshould_load
p2772
atp2773
a(L2764257181L
L0L
(lp2774
(lp2775
tp2776
a(L3338774213L
L0L
(lp2777
(lp2778
tp2779
a(L3464541874L
L0L
(lp2780
(lp2781
tp2782
a(L3349572949L
L0L
(lp2783
(lp2784
tp2785
a(L2192292519L
L0L
(lp2786
(lp2787
tp2788
a(L106L
L0L
(lp2789
(lp2790
tp2791
a(L26615924L
L0L
(lp2792
(lp2793
tp2794
a(L1299866312L
L0L
(lp2795
(lp2796
tp2797
a(L3010020263L
L0L
(lp2798
(lp2799
tp2800
atp2801
sI1074244516
(Vwdt_hal_write_protect_enable
p2802
(lp2803
(L387778158L
L0L
(lp2804
(lp2805
tp2806
a(L4195472003L
L0L
(lp2807
(lp2808
tp2809
a(L3360570486L
L0L
(lp2810
(lp2811
tp2812
a(L802523425L
L0L
(lp2813
(lp2814
tp2815
atp2816
sI1074243488
(Vwdt_hal_init
p2817
(lp2818
(L584362441L
L0L
(lp2819
(lp2820
tp2821
a(L106L
L0L
(lp2822
(lp2823
tp2824
a(L2104869666L
L0L
(lp2825
(lp2826
tp2827
a(L3076988543L
L0L
(lp2828
(lp2829
tp2830
a(L3642440310L
L0L
(lp2831
(lp2832
tp2833
a(L3028464L
L0L
(lp2834
(lp2835
tp2836
a(L826451645L
L0L
(lp2837
(lp2838
tp2839
a(L2196941787L
L0L
(lp2840
(lp2841
tp2842
a(L26809647L
L0L
(lp2843
(lp2844
tp2845
a(L3360570486L
L0L
(lp2846
(lp2847
tp2848
atp2849
sI1074240416
(Vbootloader_debug_buffer
p2850
(lp2851
(L2100504542L
L0L
(lp2852
(lp2853
tp2854
atp2855
sI1074235808
(Vbootloader_flash_cs_timing_config
p2856
(lp2857
(L1940014330L
L0L
(lp2858
(lp2859
tp2860
atp2861
sI1074245292
(Vrtc_clk_slow_src_set
p2862
(lp2863
(L351921003L
L0L
(lp2864
(lp2865
tp2866
a(L3020187L
L0L
(lp2867
(lp2868
tp2869
a(L3028481L
L0L
(lp2870
(lp2871
tp2872
a(L487821223L
L0L
(lp2873
(lp2874
tp2875
a(L2160049175L
L0L
(lp2876
(lp2877
tp2878
a(L1851908495L
L0L
(lp2879
(lp2880
tp2881
a(L382170874L
L0L
(lp2882
(lp2883
tp2884
a(L3138544334L
L0L
(lp2885
(lp2886
tp2887
a(L94425498L
L3785322319L
(lp2888
(lp2889
Vabort
p2890
atp2891
atp2892
sI1074238120
(Vbootloader_enable_wp
p2893
(lp2894
(L1117825804L
L3785322319L
(lp2895
(lp2896
Vbootloader_execute_flash_command
p2897
atp2898
atp2899
sI1074240424
(Vbootloader_sha256_start
p2900
(lp2901
(L260677377L
L0L
(lp2902
(lp2903
tp2904
atp2905
sI1074245544
(Vrtc_clk_xtal_freq_get
p2906
(lp2907
(L1996970978L
L0L
(lp2908
(lp2909
tp2910
a(L2847936993L
L0L
(lp2911
(lp2912
tp2913
a(L2568986948L
L0L
(lp2914
(lp2915
tp2916
a(L3360570486L
L0L
(lp2917
(lp2918
tp2919
atp2920
sI1074247592
(Vesp_rom_spiflash_program_page_internal
p2921
(lp2922
(L2569069283L
L0L
(lp2923
(lp2924
tp2925
a(L2258688483L
L0L
(lp2926
(lp2927
tp2928
a(L3360570486L
L0L
(lp2929
(lp2930
tp2931
a(L328133326L
L0L
(lp2932
(lp2933
tp2934
a(L4235661475L
L3785322319L
(lp2935
(lp2936
Vesp_rom_spiflash_wait_idle
p2937
atp2938
a(L1299866312L
L0L
(lp2939
(lp2940
tp2941
a(L3212356251L
L3785322319L
(lp2942
(lp2943
Vesp_rom_spiflash_enable_write
p2944
atp2945
a(L1757758545L
L0L
(lp2946
(lp2947
tp2948
a(L3222092521L
L0L
(lp2949
(lp2950
tp2951
a(L2953702749L
L0L
(lp2952
(lp2953
tp2954
a(L2989032L
L0L
(lp2955
(lp2956
tp2957
a(L1965622133L
L0L
(lp2958
(lp2959
tp2960
a(L2236003503L
L0L
(lp2961
(lp2962
tp2963
a(L1958113242L
L0L
(lp2964
(lp2965
tp2966
a(L106L
L0L
(lp2967
(lp2968
tp2969
a(L3112950080L
L0L
(lp2970
(lp2971
tp2972
a(L1868606439L
L0L
(lp2973
(lp2974
tp2975
a(L1008983218L
L0L
(lp2976
(lp2977
tp2978
a(L1933954923L
L0L
(lp2979
(lp2980
tp2981
a(L1147866918L
L0L
(lp2982
(lp2983
tp2984
a(L3871602522L
L0L
(lp2985
(lp2986
tp2987
atp2988
sI1074270904
(Vrtc_vddsdio_set_config
p2989
(lp2990
(L2225365591L
L0L
(lp2991
(lp2992
tp2993
atp2994
sI1074236848
(Vefuse_hal_get_minor_chip_version
p2995
(lp2996
(L2721608854L
L0L
(lp2997
(lp2998
tp2999
atp3000
sI1074238640
(Vcache_ll_l1_get_bus
p3001
(lp3002
(L3820023252L
L0L
(lp3003
(lp3004
tp3005
a(L94425498L
L3785322319L
(lp3006
(lp3007
Vabort
p3008
atp3009
a(L3179088012L
L0L
(lp3010
(lp3011
tp3012
a(L3485549502L
L0L
(lp3013
(lp3014
tp3015
a(L892952750L
L0L
(lp3016
(lp3017
tp3018
a(L1182811810L
L0L
(lp3019
(lp3020
tp3021
a(L1101742417L
L0L
(lp3022
(lp3023
tp3024
a(L1100767927L
L0L
(lp3025
(lp3026
tp3027
a(L3360570486L
L0L
(lp3028
(lp3029
tp3030
a(L2767111967L
L0L
(lp3031
(lp3032
tp3033
a(L2882938163L
L0L
(lp3034
(lp3035
tp3036
a(L2927201858L
L0L
(lp3037
(lp3038
tp3039
a(L2258718273L
L0L
(lp3040
(lp3041
tp3042
a(L2580713941L
L0L
(lp3043
(lp3044
tp3045
a(L2748641547L
L0L
(lp3046
(lp3047
tp3048
a(L2752340901L
L0L
(lp3049
(lp3050
tp3051
a(L1641149277L
L0L
(lp3052
(lp3053
tp3054
a(L3211405977L
L0L
(lp3055
(lp3056
tp3057
a(L3027019L
L0L
(lp3058
(lp3059
tp3060
a(L1299866560L
L0L
(lp3061
(lp3062
tp3063
a(L1299866436L
L0L
(lp3064
(lp3065
tp3066
atp3067
sI1074240444
(Vbootloader_sha256_data
p3068
(lp3069
(L4066096136L
L0L
(lp3070
(lp3071
tp3072
a(L110883720L
L0L
(lp3073
(lp3074
tp3075
a(L3884092851L
L3785322319L
(lp3076
(lp3077
V__assert_func
p3078
atp3079
a(L498498478L
L0L
(lp3080
(lp3081
tp3082
a(L534463199L
L0L
(lp3083
(lp3084
tp3085
a(L2910371777L
L0L
(lp3086
(lp3087
tp3088
a(L3360570486L
L0L
(lp3089
(lp3090
tp3091
a(L1788837773L
L0L
(lp3092
(lp3093
tp3094
a(L248495140L
L0L
(lp3095
(lp3096
tp3097
a(L106045974L
L0L
(lp3098
(lp3099
tp3100
a(L4275021735L
L0L
(lp3101
(lp3102
tp3103
a(L814105420L
L0L
(lp3104
(lp3105
tp3106
a(L1394964493L
L0L
(lp3107
(lp3108
tp3109
a(L2437413408L
L0L
(lp3110
(lp3111
tp3112
a(L702738185L
L0L
(lp3113
(lp3114
tp3115
a(L3745004802L
L0L
(lp3116
(lp3117
tp3118
atp3119
sI1074238908
(Vload_image
p3120
(lp3121
(L4055976749L
L1832448559L
(lp3122
(lp3123
Vesp_log_early_timestamp
p3124
aVbootloader_random_disable
p3125
aVbootloader_ana_clock_glitch_reset_config
p3126
atp3127
a(L2261049225L
L0L
(lp3128
(lp3129
tp3130
a(L106L
L0L
(lp3131
(lp3132
tp3133
a(L452592812L
L3758435744L
(lp3134
(lp3135
Vmmu_hal_unmap_all
p3136
aVcache_ll_l1_get_bus
p3137
aVcache_ll_l1_enable_bus
p3138
aVcache_ll_l1_get_bus
p3139
aVcache_ll_l1_enable_bus
p3140
aVcache_ll_l1_get_bus
p3141
aVcache_ll_l1_enable_bus
p3142
aVcache_ll_l1_get_bus
p3143
aVcache_ll_l1_enable_bus
p3144
aVbootloader_console_deinit
p3145
atp3146
a(L1385141500L
L0L
(lp3147
(lp3148
tp3149
a(L2902417580L
L0L
(lp3150
(lp3151
tp3152
a(L4167095070L
L3785322319L
(lp3153
(lp3154
Vesp_log_early_timestamp
p3155
atp3156
a(L2552261596L
L0L
(lp3157
(lp3158
tp3159
a(L70617440L
L0L
(lp3160
(lp3161
tp3162
a(L3020204L
L0L
(lp3163
(lp3164
tp3165
a(L1040324029L
L3785322319L
(lp3166
(lp3167
Vesp_log_early_timestamp
p3168
atp3169
a(L3291469664L
L0L
(lp3170
(lp3171
tp3172
a(L2591655545L
L0L
(lp3173
(lp3174
tp3175
atp3176
sI1074238140
(Vbootloader_mmap_get_free_pages
p3177
(lp3178
(L1496516875L
L0L
(lp3179
(lp3180
tp3181
atp3182
sI1074270132
(Vrtc_clk_xtal_freq_estimate
p3183
(lp3184
(L1823831978L
L1880226080L
(lp3185
(lp3186
Vrtc_clk_8m_enabled
p3187
aVrtc_clk_8md256_enabled
p3188
atp3189
a(L2449794434L
L3785322319L
(lp3190
(lp3191
Vrtc_clk_8m_enable
p3192
atp3193
a(L629364653L
L3785322319L
(lp3194
(lp3195
Vrtc_clk_cal_ratio
p3196
atp3197
a(L3934977694L
L0L
(lp3198
(lp3199
tp3200
a(L3955289886L
L0L
(lp3201
(lp3202
tp3203
a(L2593710842L
L3785322319L
(lp3204
(lp3205
Vesp_log_early_timestamp
p3206
atp3207
a(L2307427870L
L0L
(lp3208
(lp3209
tp3210
a(L1281346514L
L3785322319L
(lp3211
(lp3212
Vrtc_clk_8m_enable
p3213
atp3214
a(L3909119106L
L0L
(lp3215
(lp3216
tp3217
a(L818590410L
L3785322319L
(lp3218
(lp3219
Vesp_log_early_timestamp
p3220
atp3221
a(L3304487880L
L0L
(lp3222
(lp3223
tp3224
a(L1641150486L
L0L
(lp3225
(lp3226
tp3227
a(L668377196L
L3785322319L
(lp3228
(lp3229
Vesp_log_early_timestamp
p3230
atp3231
atp3232
sI1074245816
(Vrtc_clk_xtal_freq_update
p3233
(lp3234
(L1600643482L
L0L
(lp3235
(lp3236
tp3237
a(L3509357017L
L0L
(lp3238
(lp3239
tp3240
a(L2266180931L
L0L
(lp3241
(lp3242
tp3243
atp3244
sI1074238148
(Vbootloader_fill_random
p3245
(lp3246
(L1233865241L
L0L
(lp3247
(lp3248
tp3249
a(L3569542132L
L3785322319L
(lp3250
(lp3251
V__assert_func
p3252
atp3253
a(L1882547218L
L0L
(lp3254
(lp3255
tp3256
a(L2910371777L
L0L
(lp3257
(lp3258
tp3259
a(L95634693L
L0L
(lp3260
(lp3261
tp3262
a(L3630908706L
L0L
(lp3263
(lp3264
tp3265
a(L160162640L
L0L
(lp3266
(lp3267
tp3268
a(L97689L
L0L
(lp3269
(lp3270
tp3271
a(L3360570486L
L0L
(lp3272
(lp3273
tp3274
atp3275
sI1074241984
(Vprocess_segments
p3276
(lp3277
(L1326203493L
L0L
(lp3278
(lp3279
tp3280
a(L1640778736L
L0L
(lp3281
(lp3282
tp3283
a(L3782401745L
L0L
(lp3284
(lp3285
tp3286
a(L106L
L0L
(lp3287
(lp3288
tp3289
a(L3028481L
L0L
(lp3290
(lp3291
tp3292
a(L1742099198L
L3785322319L
(lp3293
(lp3294
Vesp_log_early_timestamp
p3295
atp3296
a(L761135359L
L3785322319L
(lp3297
(lp3298
Vbootloader_flash_read
p3299
atp3300
a(L3061347840L
L3785322319L
(lp3301
(lp3302
Vesp_log_early_timestamp
p3303
atp3304
a(L3871473710L
L0L
(lp3305
(lp3306
tp3307
a(L219417435L
L0L
(lp3308
(lp3309
tp3310
a(L616767314L
L3785322319L
(lp3311
(lp3312
Vbootloader_sha256_data
p3313
atp3314
a(L707062298L
L0L
(lp3315
(lp3316
tp3317
a(L2258837437L
L0L
(lp3318
(lp3319
tp3320
a(L1764156528L
L0L
(lp3321
(lp3322
tp3323
a(L3028481L
L0L
(lp3324
(lp3325
tp3326
a(L254329145L
L3785322319L
(lp3327
(lp3328
Vesp_log_early_timestamp
p3329
atp3330
a(L568253874L
L0L
(lp3331
(lp3332
tp3333
a(L2349343057L
L0L
(lp3334
(lp3335
tp3336
a(L3802069243L
L0L
(lp3337
(lp3338
tp3339
a(L3794462993L
L0L
(lp3340
(lp3341
tp3342
a(L2258867228L
L0L
(lp3343
(lp3344
tp3345
a(L2277415887L
L0L
(lp3346
(lp3347
tp3348
a(L3177376558L
L0L
(lp3349
(lp3350
tp3351
a(L3028481L
L0L
(lp3352
(lp3353
tp3354
a(L113671451L
L3785322319L
(lp3355
(lp3356
Vesp_log_early_timestamp
p3357
atp3358
a(L2640606608L
L0L
(lp3359
(lp3360
tp3361
a(L3028481L
L0L
(lp3362
(lp3363
tp3364
a(L1304081863L
L3785322319L
(lp3365
(lp3366
Vesp_log_early_timestamp
p3367
atp3368
a(L3312579080L
L0L
(lp3369
(lp3370
tp3371
a(L2902417580L
L0L
(lp3372
(lp3373
tp3374
a(L2902417580L
L0L
(lp3375
(lp3376
tp3377
a(L1229952296L
L3785322319L
(lp3378
(lp3379
Vverify_load_addresses
p3380
atp3381
a(L3783935185L
L3785322319L
(lp3382
(lp3383
Vbootloader_mmap_get_free_pages
p3384
atp3385
a(L3028481L
L0L
(lp3386
(lp3387
tp3388
a(L224879076L
L0L
(lp3389
(lp3390
tp3391
a(L142590671L
L0L
(lp3392
(lp3393
tp3394
a(L3028481L
L0L
(lp3395
(lp3396
tp3397
a(L94425498L
L3785322319L
(lp3398
(lp3399
Vesp_log_early_timestamp
p3400
atp3401
a(L2482970521L
L0L
(lp3402
(lp3403
tp3404
a(L4085121624L
L3785322319L
(lp3405
(lp3406
Vshould_load
p3407
atp3408
a(L3028481L
L0L
(lp3409
(lp3410
tp3411
a(L3799683059L
L3785322319L
(lp3412
(lp3413
Vesp_log_early_timestamp
p3414
atp3415
a(L106L
L0L
(lp3416
(lp3417
tp3418
a(L3815630522L
L0L
(lp3419
(lp3420
tp3421
a(L1373549761L
L3785322319L
(lp3422
(lp3423
Vesp_log_early_timestamp
p3424
atp3425
a(L2629678223L
L0L
(lp3426
(lp3427
tp3428
a(L2684012095L
L0L
(lp3429
(lp3430
tp3431
a(L3357777304L
L3785322319L
(lp3432
(lp3433
Vbootloader_mmap
p3434
atp3435
a(L4263532617L
L3785322319L
(lp3436
(lp3437
Vesp_log_early_timestamp
p3438
atp3439
a(L1698460186L
L0L
(lp3440
(lp3441
tp3442
a(L719832453L
L0L
(lp3443
(lp3444
tp3445
a(L642150438L
L0L
(lp3446
(lp3447
tp3448
a(L1595421496L
L3785322319L
(lp3449
(lp3450
Vbootloader_munmap
p3451
atp3452
a(L2757579158L
L0L
(lp3453
(lp3454
tp3455
a(L2356270618L
L3785322319L
(lp3456
(lp3457
Vbootloader_fill_random
p3458
atp3459
a(L3277879431L
L0L
(lp3460
(lp3461
tp3462
a(L3281573515L
L0L
(lp3463
(lp3464
tp3465
a(L3450268858L
L0L
(lp3466
(lp3467
tp3468
a(L3021749L
L0L
(lp3469
(lp3470
tp3471
a(L322434465L
L0L
(lp3472
(lp3473
tp3474
a(L2494883302L
L0L
(lp3475
(lp3476
tp3477
a(L2902417580L
L0L
(lp3478
(lp3479
tp3480
a(L2991893400L
L0L
(lp3481
(lp3482
tp3483
a(L22854698L
L0L
(lp3484
(lp3485
tp3486
a(L1426980959L
L0L
(lp3487
(lp3488
tp3489
a(L1841482652L
L0L
(lp3490
(lp3491
tp3492
a(L653501462L
L0L
(lp3493
(lp3494
tp3495
a(L3310548426L
L3785322319L
(lp3496
(lp3497
Vbootloader_sha256_data
p3498
atp3499
a(L90548756L
L0L
(lp3500
(lp3501
tp3502
a(L708495868L
L0L
(lp3503
(lp3504
tp3505
a(L2364005371L
L0L
(lp3506
(lp3507
tp3508
atp3509
sI1074239424
(Vbootloader_utility_load_partition_table
p3510
(lp3511
(L3976765673L
L3785322319L
(lp3512
(lp3513
Vbootloader_mmap
p3514
atp3515
a(L649959027L
L3785322319L
(lp3516
(lp3517
Vesp_log_early_timestamp
p3518
atp3519
a(L2258688482L
L0L
(lp3520
(lp3521
tp3522
a(L3360570486L
L0L
(lp3523
(lp3524
tp3525
a(L2379286607L
L3785322319L
(lp3526
(lp3527
Vesp_partition_table_verify
p3528
atp3529
a(L1285285103L
L3785322319L
(lp3530
(lp3531
Vesp_log_early_timestamp
p3532
atp3533
a(L529589784L
L1880226080L
(lp3534
(lp3535
Vesp_log_early_timestamp
p3536
aVesp_log_early_timestamp
p3537
atp3538
a(L650140130L
L0L
(lp3539
(lp3540
tp3541
a(L1145912169L
L1880226080L
(lp3542
(lp3543
Vbootloader_munmap
p3544
aVesp_log_early_timestamp
p3545
atp3546
a(L521126897L
L0L
(lp3547
(lp3548
tp3549
a(L3028464L
L0L
(lp3550
(lp3551
tp3552
a(L106L
L0L
(lp3553
(lp3554
tp3555
a(L1403802546L
L0L
(lp3556
(lp3557
tp3558
a(L3362706168L
L3785322319L
(lp3559
(lp3560
Vesp_log_early_timestamp
p3561
atp3562
a(L3990577774L
L0L
(lp3563
(lp3564
tp3565
a(L3020187L
L0L
(lp3566
(lp3567
tp3568
a(L2318212397L
L0L
(lp3569
(lp3570
tp3571
a(L4208504540L
L0L
(lp3572
(lp3573
tp3574
a(L1859217843L
L0L
(lp3575
(lp3576
tp3577
a(L2546691246L
L0L
(lp3578
(lp3579
tp3580
a(L3797730446L
L0L
(lp3581
(lp3582
tp3583
a(L106L
L0L
(lp3584
(lp3585
tp3586
a(L93674324L
L0L
(lp3587
(lp3588
tp3589
a(L1583301205L
L0L
(lp3590
(lp3591
tp3592
a(L1938133383L
L0L
(lp3593
(lp3594
tp3595
a(L1630400759L
L0L
(lp3596
(lp3597
tp3598
a(L106L
L0L
(lp3599
(lp3600
tp3601
a(L924830715L
L0L
(lp3602
(lp3603
tp3604
a(L106L
L0L
(lp3605
(lp3606
tp3607
a(L568204987L
L0L
(lp3608
(lp3609
tp3610
atp3611
sI1074236864
(Vesp_dport_access_reg_read
p3612
(lp3613
(L1099794772L
L0L
(lp3614
(lp3615
tp3616
atp3617
sI1074244544
(Vwdt_hal_enable
p3618
(lp3619
(L2299130915L
L0L
(lp3620
(lp3621
tp3622
a(L165794138L
L0L
(lp3623
(lp3624
tp3625
a(L3360570486L
L0L
(lp3626
(lp3627
tp3628
a(L2847657174L
L0L
(lp3629
(lp3630
tp3631
atp3632
sI1074245056
(Vrtc_clk_32k_enable
p3633
(lp3634
(L753387299L
L0L
(lp3635
(lp3636
tp3637
a(L3776007933L
L3785322319L
(lp3638
(lp3639
Vrtc_clk_32k_enable_common
p3640
atp3641
a(L3496950L
L0L
(lp3642
(lp3643
tp3644
a(L2215760449L
L0L
(lp3645
(lp3646
tp3647
atp3648
sI1074267840
(V__wrap_bootloader_print_banner
p3649
(lp3650
(L2574317570L
L1880226080L
(lp3651
(lp3652
Vbootloader_print_banner
p3653
aVesp_log_early_timestamp
p3654
atp3655
atp3656
sI1074236876
(Vis_xmc_chip_strict
p3657
(lp3658
(L1286841609L
L0L
(lp3659
(lp3660
tp3661
a(L2234016759L
L0L
(lp3662
(lp3663
tp3664
a(L1069027148L
L0L
(lp3665
(lp3666
tp3667
a(L3021749L
L0L
(lp3668
(lp3669
tp3670
a(L1900148749L
L0L
(lp3671
(lp3672
tp3673
a(L1936875721L
L0L
(lp3674
(lp3675
tp3676
a(L3356166509L
L0L
(lp3677
(lp3678
tp3679
a(L1937769451L
L0L
(lp3680
(lp3681
tp3682
a(L2137658907L
L0L
(lp3683
(lp3684
tp3685
a(L4265949734L
L0L
(lp3686
(lp3687
tp3688
a(L3360570486L
L0L
(lp3689
(lp3690
tp3691
atp3692
sI1074237652
(Vbootloader_munmap
p3693
(lp3694
(L1697403118L
L0L
(lp3695
(lp3696
tp3697
a(L3761142808L
L0L
(lp3698
(lp3699
tp3700
a(L3360570486L
L0L
(lp3701
(lp3702
tp3703
atp3704
sI1074267868
(Vbootloader_clear_bss_section
p3705
(lp3706
(L2601397228L
L0L
(lp3707
(lp3708
tp3709
atp3710
sI1074245584
(Vrtc_clk_cpu_freq_mhz_to_config
p3711
(lp3712
(L908718885L
L3785322319L
(lp3713
(lp3714
Vrtc_clk_xtal_freq_get
p3715
atp3716
a(L60460069L
L0L
(lp3717
(lp3718
tp3719
a(L3802072124L
L0L
(lp3720
(lp3721
tp3722
a(L3159006042L
L0L
(lp3723
(lp3724
tp3725
a(L3360570486L
L0L
(lp3726
(lp3727
tp3728
a(L895147205L
L0L
(lp3729
(lp3730
tp3731
a(L3970036657L
L0L
(lp3732
(lp3733
tp3734
a(L2731353429L
L0L
(lp3735
(lp3736
tp3737
a(L1555485793L
L0L
(lp3738
(lp3739
tp3740
a(L2258897023L
L0L
(lp3741
(lp3742
tp3743
a(L1947499251L
L0L
(lp3744
(lp3745
tp3746
a(L1306331021L
L0L
(lp3747
(lp3748
tp3749
atp3750
sI1074236636
(Vesp_rom_uart_set_clock_baudrate
p3751
(lp3752
(L2319441726L
L0L
(lp3753
(lp3754
tp3755
a(L2334991263L
L0L
(lp3756
(lp3757
tp3758
a(L2805931295L
L0L
(lp3759
(lp3760
tp3761
a(L1916726935L
L0L
(lp3762
(lp3763
tp3764
atp3765
sI1074248924
(V_fini
p3766
(lp3767
(L3493042598L
L0L
(lp3768
(lp3769
tp3770
atp3771
sI1074241240
(Vbootloader_util_regions_overlap
p3772
(lp3773
(L2762640130L
L0L
(lp3774
(lp3775
tp3776
a(L2198512677L
L0L
(lp3777
(lp3778
tp3779
a(L2217655633L
L3785322319L
(lp3780
(lp3781
V__assert_func
p3782
atp3783
a(L97642L
L0L
(lp3784
(lp3785
tp3786
a(L996187529L
L0L
(lp3787
(lp3788
tp3789
a(L366123053L
L0L
(lp3790
(lp3791
tp3792
a(L2258867228L
L0L
(lp3793
(lp3794
tp3795
a(L1253626734L
L0L
(lp3796
(lp3797
tp3798
a(L2258897019L
L0L
(lp3799
(lp3800
tp3801
a(L3109269495L
L0L
(lp3802
(lp3803
tp3804
atp3805
sI1074235608
(Vbootloader_read_flash_id
p3806
(lp3807
(L549578328L
L3785322319L
(lp3808
(lp3809
Vbootloader_execute_flash_command
p3810
atp3811
atp3812
sI1074237412
(Vspi_to_esp_err
p3813
(lp3814
(L3520881295L
L0L
(lp3815
(lp3816
tp3817
a(L2402400019L
L0L
(lp3818
(lp3819
tp3820
a(L3952441574L
L0L
(lp3821
(lp3822
tp3823
a(L3126521138L
L0L
(lp3824
(lp3825
tp3826
atp3827
sI1074236388
(Vbootloader_flash_dummy_config
p3828
(lp3829
(L262000646L
L0L
(lp3830
(lp3831
tp3832
a(L2761717557L
L0L
(lp3833
(lp3834
tp3835
a(L1849044936L
L0L
(lp3836
(lp3837
tp3838
a(L708753936L
L0L
(lp3839
(lp3840
tp3841
a(L1010450057L
L0L
(lp3842
(lp3843
tp3844
a(L3020204L
L0L
(lp3845
(lp3846
tp3847
a(L1610443405L
L0L
(lp3848
(lp3849
tp3850
a(L4032120524L
L0L
(lp3851
(lp3852
tp3853
a(L2336993863L
L0L
(lp3854
(lp3855
tp3856
a(L1298875775L
L0L
(lp3857
(lp3858
tp3859
a(L3880393601L
L0L
(lp3860
(lp3861
tp3862
a(L3328946209L
L0L
(lp3863
(lp3864
tp3865
a(L1610443436L
L0L
(lp3866
(lp3867
tp3868
atp3869
sI1074244836
(Vrtc_clk_cpu_freq_to_pll_mhz
p3870
(lp3871
(L3231135830L
L0L
(lp3872
(lp3873
tp3874
a(L3143442795L
L0L
(lp3875
(lp3876
tp3877
a(L2573072299L
L1880226080L
(lp3878
(lp3879
Vesp_rom_set_cpu_ticks_per_us
p3880
aVrtc_clk_wait_for_slow_cycle
p3881
atp3882
a(L4244595500L
L0L
(lp3883
(lp3884
tp3885
a(L3284807114L
L0L
(lp3886
(lp3887
tp3888
a(L94425498L
L3785322319L
(lp3889
(lp3890
Vabort
p3891
atp3892
a(L2258897019L
L0L
(lp3893
(lp3894
tp3895
a(L1113742378L
L0L
(lp3896
(lp3897
tp3898
a(L1306330990L
L0L
(lp3899
(lp3900
tp3901
atp3902
sI1074245860
(Vrtc_clk_apb_freq_update
p3903
(lp3904
(L187277447L
L0L
(lp3905
(lp3906
tp3907
atp3908
sI1074247392
(Vesp_rom_spiflash_read_status
p3909
(lp3910
(L862498644L
L0L
(lp3911
(lp3912
tp3913
a(L986368687L
L0L
(lp3914
(lp3915
tp3916
a(L4159619641L
L0L
(lp3917
(lp3918
tp3919
a(L2392720019L
L0L
(lp3920
(lp3921
tp3922
a(L2258688487L
L0L
(lp3923
(lp3924
tp3925
a(L4159619145L
L0L
(lp3926
(lp3927
tp3928
a(L718391887L
L0L
(lp3929
(lp3930
tp3931
a(L3117156279L
L0L
(lp3932
(lp3933
tp3934
a(L2123059967L
L0L
(lp3935
(lp3936
tp3937
a(L582177370L
L0L
(lp3938
(lp3939
tp3940
atp3941
sI1074248172
(Vesp_rom_spiflash_read
p3942
(lp3943
(L965113627L
L0L
(lp3944
(lp3945
tp3946
a(L2445587266L
L0L
(lp3947
(lp3948
tp3949
a(L2860271684L
L0L
(lp3950
(lp3951
tp3952
a(L2355528925L
L0L
(lp3953
(lp3954
tp3955
a(L106L
L0L
(lp3956
(lp3957
tp3958
a(L633884026L
L0L
(lp3959
(lp3960
tp3961
a(L106L
L0L
(lp3962
(lp3963
tp3964
a(L2817836888L
L0L
(lp3965
(lp3966
tp3967
a(L4180853104L
L0L
(lp3968
(lp3969
tp3970
a(L2027830512L
L0L
(lp3971
(lp3972
tp3973
a(L336550648L
L0L
(lp3974
(lp3975
tp3976
a(L2716935240L
L0L
(lp3977
(lp3978
tp3979
a(L106L
L0L
(lp3980
(lp3981
tp3982
a(L3721909221L
L3785322319L
(lp3983
(lp3984
Vesp_rom_spiflash_wait_idle
p3985
atp3986
a(L3021737L
L0L
(lp3987
(lp3988
tp3989
a(L106L
L0L
(lp3990
(lp3991
tp3992
a(L1868280504L
L0L
(lp3993
(lp3994
tp3995
a(L106L
L0L
(lp3996
(lp3997
tp3998
a(L750281353L
L0L
(lp3999
(lp4000
tp4001
a(L3897437082L
L0L
(lp4002
(lp4003
tp4004
a(L4122060822L
L0L
(lp4005
(lp4006
tp4007
a(L274970911L
L0L
(lp4008
(lp4009
tp4010
a(L2989032L
L0L
(lp4011
(lp4012
tp4013
a(L3819849625L
L0L
(lp4014
(lp4015
tp4016
a(L1660957140L
L0L
(lp4017
(lp4018
tp4019
a(L918125861L
L0L
(lp4020
(lp4021
tp4022
a(L3901821459L
L0L
(lp4023
(lp4024
tp4025
a(L2938794773L
L0L
(lp4026
(lp4027
tp4028
a(L2921907736L
L0L
(lp4029
(lp4030
tp4031
a(L4023125337L
L0L
(lp4032
(lp4033
tp4034
a(L1444843363L
L0L
(lp4035
(lp4036
tp4037
a(L849357610L
L0L
(lp4038
(lp4039
tp4040
a(L3803956571L
L0L
(lp4041
(lp4042
tp4043
a(L3333707777L
L0L
(lp4044
(lp4045
tp4046
a(L3251955268L
L0L
(lp4047
(lp4048
tp4049
a(L3418540920L
L0L
(lp4050
(lp4051
tp4052
a(L2322125794L
L0L
(lp4053
(lp4054
tp4055
a(L97689L
L0L
(lp4056
(lp4057
tp4058
a(L2258897019L
L0L
(lp4059
(lp4060
tp4061
a(L4014024819L
L0L
(lp4062
(lp4063
tp4064
a(L3621567083L
L0L
(lp4065
(lp4066
tp4067
atp4068
sI1074268132
(Vbootloader_enable_random
p4069
(lp4070
(L1129619000L
L1880226080L
(lp4071
(lp4072
Vesp_log_early_timestamp
p4073
aVbootloader_random_enable
p4074
atp4075
atp4076
sI1074241768
(Vprocess_appended_hash_and_sig
p4077
(lp4078
(L1668084157L
L0L
(lp4079
(lp4080
tp4081
a(L2910371777L
L0L
(lp4082
(lp4083
tp4084
a(L4285188111L
L0L
(lp4085
(lp4086
tp4087
a(L1151175705L
L0L
(lp4088
(lp4089
tp4090
a(L97689L
L0L
(lp4091
(lp4092
tp4093
a(L4177371989L
L3785322319L
(lp4094
(lp4095
Vesp_log_early_timestamp
p4096
atp4097
a(L3620623795L
L0L
(lp4098
(lp4099
tp4100
a(L1464893571L
L3785322319L
(lp4101
(lp4102
Vbootloader_flash_read
p4103
atp4104
a(L735741265L
L0L
(lp4105
(lp4106
tp4107
atp4108
sI1074247920
(Vesp_rom_spiflash_write
p4109
(lp4110
(L1985805747L
L0L
(lp4111
(lp4112
tp4113
a(L2258688483L
L0L
(lp4114
(lp4115
tp4116
a(L3360570486L
L0L
(lp4117
(lp4118
tp4119
a(L3368132847L
L0L
(lp4120
(lp4121
tp4122
a(L3106685981L
L0L
(lp4123
(lp4124
tp4125
a(L3488660639L
L3785322319L
(lp4126
(lp4127
Vesp_rom_spiflash_program_page_internal
p4128
atp4129
a(L3543402353L
L3785322319L
(lp4130
(lp4131
Vesp_rom_spiflash_program_page_internal
p4132
atp4133
a(L4222526342L
L0L
(lp4134
(lp4135
tp4136
a(L2004208511L
L0L
(lp4137
(lp4138
tp4139
a(L564470656L
L0L
(lp4140
(lp4141
tp4142
a(L441922648L
L3785322319L
(lp4143
(lp4144
Vesp_rom_spiflash_program_page_internal
p4145
atp4146
a(L2302069176L
L0L
(lp4147
(lp4148
tp4149
atp4150
sI1074245116
(Vrtc_clk_8m_enable
p4151
(lp4152
(L717560374L
L0L
(lp4153
(lp4154
tp4155
a(L4093063488L
L0L
(lp4156
(lp4157
tp4158
a(L2151320156L
L0L
(lp4159
(lp4160
tp4161
a(L711175840L
L0L
(lp4162
(lp4163
tp4164
a(L3360570486L
L0L
(lp4165
(lp4166
tp4167
a(L1318267208L
L0L
(lp4168
(lp4169
tp4170
a(L3974092177L
L0L
(lp4171
(lp4172
tp4173
atp4174
sI1074267892
(Vbootloader_read_bootloader_header
p4175
(lp4176
(L3545847984L
L3785322319L
(lp4177
(lp4178
Vbootloader_flash_read
p4179
atp4180
a(L405853977L
L3785322319L
(lp4181
(lp4182
Vesp_log_early_timestamp
p4183
atp4184
a(L735741265L
L0L
(lp4185
(lp4186
tp4187
atp4188
ssS'functionsdups'
p4189
g11
((lp4190
tp4191
Rp4192
sS'immediatedups'
p4193
g11
((lp4194
tp4195
Rp4196
sS'functiondups'
p4197
g11
((lp4198
tp4199
Rp4200
sS'fuzzy'
p4201
(dp4202
L1536L
I1074240804
sL438947497L
I1074245292
sL430153639L
I1074235920
sL3538491111L
I1074245436
sL16208487L
I1074234756
sL1053780185L
I1074247224
sL2919036513L
I1074238908
sL2680783959L
I1074235656
sL1385214606L
I1074241296
sL3709764864L
I1074242724
sL3512578114L
I1074238756
sL1419132215L
I1074238148
sL2469233929L
I1074240592
sL4024375675L
I1074245888
sL701833459L
I1074269016
sL720751058L
I1074268224
sL99291719L
I1074246000
sL1260046007L
I1074238640
sL3897252859L
I1074238556
sL2154298582L
I1074268448
sL3750957730L
I1074269760
sL1065525808L
I1074236876
sL2547957225L
I1074243220
sL2272466760L
I1074245676
sL2044047637L
I1074239424
sL1188065553L
I1074237704
sL1350409532L
I1074241052
sL94556391L
I1074245464
sL3210669721L
I1074245056
sL1332800441L
I1074237268
sL1797050832L
I1074241768
sL3190831358L
I1074239788
sL2828970830L
I1074239304
sL4160102055L
I1074240088
sL4202185385L
I1074247488
sL1768086576L
I1074236388
sL4171975289L
I1074247784
sL1565254297L
I1074248084
sL1205407754L
I1074240112
sL2191698036L
I1074268004
sL3764456758L
I1074244836
sL3567877105L
I1074235268
sL3616640713L
I1074240884
sL1635528231L
I1074244100
sL1060788199L
I1074245584
sL3378232636L
I1074246728
sL737694352L
I1074247592
sL503029138L
I1074247536
sL1616763831L
I1074248172
sL424867129L
I1074247920
sL3834155367L
I1074241240
sL2405032630L
I1074267732
sL1302843222L
I1074270308
sL149533852L
I1074237444
sL3883282432L
I1074241856
sL3110525840L
I1074241984
sL1667054119L
I1074240444
sL1142841954L
I1074237036
sL206902443L
I1074237980
sL1070509616L
I1074245116
sL3408620885L
I1074270132
ssb.