ccopy_reg
_reconstructor
p0
(crizzo
RizzoSignature
p1
c__builtin__
object
p2
Ntp3
Rp4
(dp5
S'formal'
p6
(dp7
L3073145898L
I1074248392
sL2972557863L
I1074270096
sL1741170115L
I1074238136
sL3505757179L
I1074236756
sL3691688964L
I1074247532
sL3873375177L
I1074269920
sL2532409321L
I1074246168
sL1237733855L
I1074238932
sL1396834648L
I1074247700
sL2683518953L
I1074247796
sL4213015302L
I1074243496
sL779644773L
I1074241096
sL4207120861L
I1074248228
sL1371153316L
I1074268624
sL3597077880L
I1074236552
sL956556060L
I1074237588
sL3242679640L
I1074240404
sL2483835949L
I1074235936
sL1554186368L
I1074247036
sL3982985539L
I1074269724
sL545260967L
I1074237392
sL2420455533L
I1074269656
sL711787332L
I1074269792
sL928253055L
I1074268864
sL2936901665L
I1074237412
sL2702580795L
I1074237512
sL412821684L
I1074236796
sL98826705L
I1074247900
sL2897186972L
I1074240884
sL2896295319L
I1074236892
sL3284957946L
I1074267724
sL1039406786L
I1074270272
sL4248316673L
I1074269948
sL1674148343L
I1074245892
sL2710219957L
I1074246308
sL852924053L
I1074238324
sL2485902447L
I1074236732
sL2829752047L
I1074238732
sL80666504L
I1074248092
sL2972806524L
I1074235672
sL1757965957L
I1074248480
sL1598433544L
I1074245552
sL2571709190L
I1074239084
sL444818387L
I1074245364
sL174618170L
I1074243016
sL1132938192L
I1074238984
sL1585823442L
I1074244824
sL985434084L
I1074242148
sL1622896354L
I1074244852
sL1453011649L
I1074239980
sL1509716893L
I1074236864
sL3714689288L
I1074243528
sL985941158L
I1074237828
sL2189223198L
I1074240644
sL1735967003L
I1074244924
sL2869430636L
I1074247500
sL3977154411L
I1074270716
sL4048656439L
I1074239480
sL227907582L
I1074240716
sL2157292283L
I1074246124
sL885876642L
I1074236652
sL712004097L
I1074237064
sL3796064567L
I1074242276
sL3562592288L
I1074270048
sL1956542436L
I1074245144
sL637937789L
I1074245600
sL1056742531L
I1074236404
sL3079130887L
I1074242060
sL530851108L
I1074244972
sL426984944L
I1074236964
sL1949952954L
I1074238816
sL1885637095L
I1074267836
sL676927194L
I1074268856
sL3001905256L
I1074240736
sL3307282855L
I1074238296
sL3954831423L
I1074244408
sL3171430787L
I1074245744
sL17816706L
I1074237040
sL3121002891L
I1074245716
sL148750930L
I1074237428
sL1050504461L
I1074234728
sL1877120625L
I1074245576
sL3870456869L
I1074236996
sL1573392735L
I1074246196
sL4129683902L
I1074270868
sL1405366361L
I1074239616
sL2561507891L
I1074246992
sL4038945309L
I1074235624
sL3508768135L
I1074269352
sL518463041L
I1074235824
sL2737209228L
I1074234772
sL1125632954L
I1074241588
sL706082744L
I1074245008
sL2749301872L
I1074269368
sL180164621L
I1074235284
sL2997001746L
I1074237352
sL2457595594L
I1074245304
sL3009585623L
I1074237120
sL622532270L
I1074241344
sL2777552441L
I1074240380
sL2819127986L
I1074237084
sL359006682L
I1074270012
sL1877634603L
I1074270940
sL3128164016L
I1074247844
sL285470662L
I1074244756
sL2245260824L
I1074240280
sL3339529670L
I1074268060
sL101983704L
I1074237880
sL4163372517L
I1074236568
sL2824071325L
I1074241176
sL111045711L
I1074268568
sL2263182908L
I1074238316
sL3878797038L
I1074243796
sL3630163135L
I1074236880
sL2355043774L
I1074238404
sL2547128115L
I1074238156
sL936464688L
I1074237620
sL188664287L
I1074235252
sL4225037361L
I1074269680
sL692536993L
I1074237484
sL3828320200L
I1074241120
sL3199653468L
I1074245984
sL815653232L
I1074245852
sL3825772262L
I1074244724
sL1621098576L
I1074243512
sL2305533339L
I1074245772
sL3902393197L
I1074241080
sL2842228112L
I1074245836
sL4173412669L
I1074235572
sL763831419L
I1074241532
sL3230324342L
I1074245424
sL801329980L
I1074239032
ssS'immediates'
p8
(dp9
sS'formaldups'
p10
c__builtin__
set
p11
((lp12
tp13
Rp14
sS'stringdups'
p15
g11
((lp16
tp17
Rp18
sS'fuzzydups'
p19
g11
((lp20
tp21
Rp22
sS'strings'
p23
(dp24
sS'functions'
p25
(dp26
I1074245892
(Vrtc_clk_cpu_freq_mhz_to_config
p27
(lp28
(L908718885L
L3785322319L
(lp29
(lp30
Vrtc_clk_xtal_freq_get
p31
atp32
a(L60460069L
L0L
(lp33
(lp34
tp35
a(L3802072124L
L0L
(lp36
(lp37
tp38
a(L3159006042L
L0L
(lp39
(lp40
tp41
a(L3360570486L
L0L
(lp42
(lp43
tp44
a(L895147205L
L0L
(lp45
(lp46
tp47
a(L3970036657L
L0L
(lp48
(lp49
tp50
a(L2731353429L
L0L
(lp51
(lp52
tp53
a(L1555485793L
L0L
(lp54
(lp55
tp56
a(L2258897023L
L0L
(lp57
(lp58
tp59
a(L1947499251L
L0L
(lp60
(lp61
tp62
a(L1306331021L
L0L
(lp63
(lp64
tp65
atp66
sI1074238720
(Vbootloader_clock_get_rated_freq_mhz
p67
(lp68
(L376617603L
L3785322319L
(lp69
(lp70
Vefuse_hal_get_rated_freq_mhz
p71
atp72
atp73
sI1074267136
(V_init
p74
(lp75
(L3493042598L
L0L
(lp76
(lp77
tp78
atp79
sI1074242060
(Vprocess_appended_hash_and_sig
p80
(lp81
(L1668084157L
L0L
(lp82
(lp83
tp84
a(L2910371777L
L0L
(lp85
(lp86
tp87
a(L4285188111L
L0L
(lp88
(lp89
tp90
a(L1151175705L
L0L
(lp91
(lp92
tp93
a(L97689L
L0L
(lp94
(lp95
tp96
a(L1035104412L
L3785322319L
(lp97
(lp98
Vesp_log_early_timestamp
p99
atp100
a(L3620624880L
L0L
(lp101
(lp102
tp103
a(L1464893571L
L3785322319L
(lp104
(lp105
Vbootloader_flash_read
p106
atp107
a(L735741265L
L0L
(lp108
(lp109
tp110
atp111
sI1074238732
(Vlog_invalid_app_partition
p112
(lp113
(L1072650950L
L0L
(lp114
(lp115
tp116
a(L3028464L
L0L
(lp117
(lp118
tp119
a(L345933564L
L3785322319L
(lp120
(lp121
Vesp_log_early_timestamp
p122
atp123
a(L3833270346L
L0L
(lp124
(lp125
tp126
a(L3360570486L
L0L
(lp127
(lp128
tp129
a(L1843989741L
L3785322319L
(lp130
(lp131
Vesp_log_early_timestamp
p132
atp133
a(L1868546202L
L3785322319L
(lp134
(lp135
Vesp_log_early_timestamp
p136
atp137
atp138
sI1074238984
(Vtry_load_partition
p139
(lp140
(L1263750142L
L0L
(lp141
(lp142
tp143
a(L2258688482L
L0L
(lp144
(lp145
tp146
a(L3360570486L
L0L
(lp147
(lp148
tp149
a(L530241438L
L3785322319L
(lp150
(lp151
Vbootloader_load_image
p152
atp153
a(L1342540504L
L3785322319L
(lp154
(lp155
Vesp_log_early_timestamp
p156
atp157
atp158
sI1074247700
(Vesp_rom_spiflash_read_status
p159
(lp160
(L862498644L
L0L
(lp161
(lp162
tp163
a(L884684782L
L0L
(lp164
(lp165
tp166
a(L4159619641L
L0L
(lp167
(lp168
tp169
a(L2392720019L
L0L
(lp170
(lp171
tp172
a(L2258688487L
L0L
(lp173
(lp174
tp175
a(L4159619145L
L0L
(lp176
(lp177
tp178
a(L3635138872L
L0L
(lp179
(lp180
tp181
a(L3117156279L
L0L
(lp182
(lp183
tp184
a(L2123059967L
L0L
(lp185
(lp186
tp187
a(L582177370L
L0L
(lp188
(lp189
tp190
atp191
sI1074269724
(Vbootloader_check_bootloader_validity
p192
(lp193
(L2960652984L
L1832448559L
(lp194
(lp195
Vefuse_hal_chip_revision
p196
aVesp_log_early_timestamp
p197
aVbootloader_common_check_chip_validity
p198
atp199
atp200
sI1074249232
(V_fini
p201
(lp202
(L3493042598L
L0L
(lp203
(lp204
tp205
atp206
sI1074240280
(Vbootloader_utility_load_boot_image_from_deep_sleep
p207
(lp208
(L612772701L
L0L
(lp209
(lp210
tp211
a(L4117910119L
L3785322319L
(lp212
(lp213
Vbootloader_common_get_rtc_retain_mem_partition
p214
atp215
a(L807480887L
L3785322319L
(lp216
(lp217
Vbootloader_load_image_no_verify
p218
atp219
a(L3039084L
L1832448559L
(lp220
(lp221
Vesp_log_early_timestamp
p222
aVbootloader_common_update_rtc_retain_mem
p223
aVload_image
p224
atp225
a(L1157706412L
L1880226080L
(lp226
(lp227
Vesp_log_early_timestamp
p228
aVesp_log_early_timestamp
p229
atp230
a(L3360570486L
L0L
(lp231
(lp232
tp233
atp234
sI1074235672
(Vbootloader_flash_xmc_startup
p235
(lp236
(L2007527597L
L3785322319L
(lp237
(lp238
Vis_xmc_chip_strict
p239
atp240
a(L2258688482L
L0L
(lp241
(lp242
tp243
a(L3360570486L
L0L
(lp244
(lp245
tp246
a(L2860324232L
L3785322319L
(lp247
(lp248
Vbootloader_flash_read_sfdp
p249
atp250
a(L335762040L
L2567856111L
(lp251
(lp252
Vesp_log_early_timestamp
p253
aVbootloader_execute_flash_command
p254
aVbootloader_execute_flash_command
p255
aVbootloader_execute_flash_command
p256
aVbootloader_execute_flash_command
p257
aVbootloader_read_flash_id
p258
aVis_xmc_chip_strict
p259
atp260
a(L664983568L
L3785322319L
(lp261
(lp262
Vesp_log_early_timestamp
p263
atp264
atp265
sI1074245144
(Vrtc_clk_cpu_freq_to_pll_mhz
p266
(lp267
(L3231135830L
L0L
(lp268
(lp269
tp270
a(L2734618570L
L0L
(lp271
(lp272
tp273
a(L926026094L
L1880226080L
(lp274
(lp275
Vesp_rom_set_cpu_ticks_per_us
p276
aVrtc_clk_wait_for_slow_cycle
p277
atp278
a(L4245519021L
L0L
(lp279
(lp280
tp281
a(L3284807114L
L0L
(lp282
(lp283
tp284
a(L94425498L
L3785322319L
(lp285
(lp286
Vabort
p287
atp288
a(L2258897019L
L0L
(lp289
(lp290
tp291
a(L1113742378L
L0L
(lp292
(lp293
tp294
a(L1306330990L
L0L
(lp295
(lp296
tp297
atp298
sI1074246168
(Vrtc_clk_apb_freq_update
p299
(lp300
(L2405035400L
L0L
(lp301
(lp302
tp303
atp304
sI1074236964
(Vesp_log_early_timestamp
p305
(lp306
(L3733265409L
L0L
(lp307
(lp308
tp309
atp310
sI1074248228
(Vesp_rom_spiflash_write
p311
(lp312
(L2678236145L
L0L
(lp313
(lp314
tp315
a(L2258688483L
L0L
(lp316
(lp317
tp318
a(L3360570486L
L0L
(lp319
(lp320
tp321
a(L3368132847L
L0L
(lp322
(lp323
tp324
a(L3106685981L
L0L
(lp325
(lp326
tp327
a(L3488660639L
L3785322319L
(lp328
(lp329
Vesp_rom_spiflash_program_page_internal
p330
atp331
a(L3543402353L
L3785322319L
(lp332
(lp333
Vesp_rom_spiflash_program_page_internal
p334
atp335
a(L4222526342L
L0L
(lp336
(lp337
tp338
a(L2004208511L
L0L
(lp339
(lp340
tp341
a(L564470656L
L0L
(lp342
(lp343
tp344
a(L441922648L
L3785322319L
(lp345
(lp346
Vesp_rom_spiflash_program_page_internal
p347
atp348
a(L2302069176L
L0L
(lp349
(lp350
tp351
atp352
sI1074235936
(Vbootloader_flash_gpio_config
p353
(lp354
(L3362256192L
L3785322319L
(lp355
(lp356
Vbootloader_common_get_chip_ver_pkg
p357
atp358
a(L106L
L0L
(lp359
(lp360
tp361
a(L1998579353L
L0L
(lp362
(lp363
tp364
a(L106L
L0L
(lp365
(lp366
tp367
a(L1029428446L
L0L
(lp368
(lp369
tp370
a(L4242290324L
L0L
(lp371
(lp372
tp373
a(L106L
L0L
(lp374
(lp375
tp376
a(L4003626558L
L0L
(lp377
(lp378
tp379
a(L1553523094L
L0L
(lp380
(lp381
tp382
a(L3360570486L
L0L
(lp383
(lp384
tp385
atp386
sI1074248480
(Vesp_rom_spiflash_read
p387
(lp388
(L1261558011L
L0L
(lp389
(lp390
tp391
a(L340323457L
L0L
(lp392
(lp393
tp394
a(L2860271684L
L0L
(lp395
(lp396
tp397
a(L2355528925L
L0L
(lp398
(lp399
tp400
a(L106L
L0L
(lp401
(lp402
tp403
a(L633884026L
L0L
(lp404
(lp405
tp406
a(L106L
L0L
(lp407
(lp408
tp409
a(L265679927L
L0L
(lp410
(lp411
tp412
a(L1176778768L
L0L
(lp413
(lp414
tp415
a(L1544155185L
L0L
(lp416
(lp417
tp418
a(L336550648L
L0L
(lp419
(lp420
tp421
a(L2841008487L
L0L
(lp422
(lp423
tp424
a(L106L
L0L
(lp425
(lp426
tp427
a(L2596124413L
L3785322319L
(lp428
(lp429
Vesp_rom_spiflash_wait_idle
p430
atp431
a(L3021737L
L0L
(lp432
(lp433
tp434
a(L106L
L0L
(lp435
(lp436
tp437
a(L1868280504L
L0L
(lp438
(lp439
tp440
a(L106L
L0L
(lp441
(lp442
tp443
a(L750281353L
L0L
(lp444
(lp445
tp446
a(L3897437082L
L0L
(lp447
(lp448
tp449
a(L4122060822L
L0L
(lp450
(lp451
tp452
a(L3961861344L
L0L
(lp453
(lp454
tp455
a(L2989032L
L0L
(lp456
(lp457
tp458
a(L3819849625L
L0L
(lp459
(lp460
tp461
a(L3946497298L
L0L
(lp462
(lp463
tp464
a(L946755012L
L0L
(lp465
(lp466
tp467
a(L3901821490L
L0L
(lp468
(lp469
tp470
a(L2511525044L
L0L
(lp471
(lp472
tp473
a(L2921907736L
L0L
(lp474
(lp475
tp476
a(L4023125337L
L0L
(lp477
(lp478
tp479
a(L1693574212L
L0L
(lp480
(lp481
tp482
a(L1931165897L
L0L
(lp483
(lp484
tp485
a(L2189982627L
L0L
(lp486
(lp487
tp488
a(L3333707777L
L0L
(lp489
(lp490
tp491
a(L3251955268L
L0L
(lp492
(lp493
tp494
a(L3418540920L
L0L
(lp495
(lp496
tp497
a(L284069505L
L0L
(lp498
(lp499
tp500
a(L97689L
L0L
(lp501
(lp502
tp503
a(L2258897019L
L0L
(lp504
(lp505
tp506
a(L4014024819L
L0L
(lp507
(lp508
tp509
a(L3621567083L
L0L
(lp510
(lp511
tp512
atp513
sI1074237484
(Vbootloader_common_ota_select_invalid
p514
(lp515
(L4027567199L
L0L
(lp516
(lp517
tp518
a(L3397985842L
L0L
(lp519
(lp520
tp521
a(L2258867228L
L0L
(lp522
(lp523
tp524
a(L3785235668L
L0L
(lp525
(lp526
tp527
atp528
sI1074241588
(Vverify_load_addresses
p529
(lp530
(L2764487219L
L0L
(lp531
(lp532
tp533
a(L106L
L0L
(lp534
(lp535
tp536
a(L97642L
L0L
(lp537
(lp538
tp539
a(L3399765916L
L3785322319L
(lp540
(lp541
V__assert_func
p542
atp543
a(L2763890188L
L0L
(lp544
(lp545
tp546
a(L106L
L0L
(lp547
(lp548
tp549
a(L2610123556L
L0L
(lp550
(lp551
tp552
a(L106L
L0L
(lp553
(lp554
tp555
a(L941587539L
L3785322319L
(lp556
(lp557
Vbootloader_util_regions_overlap
p558
atp559
a(L3192912214L
L3785322319L
(lp560
(lp561
Vbootloader_util_regions_overlap
p562
atp563
a(L3028481L
L0L
(lp564
(lp565
tp566
a(L375482128L
L3785322319L
(lp567
(lp568
Vbootloader_util_regions_overlap
p569
atp570
a(L2246996756L
L0L
(lp571
(lp572
tp573
a(L1991843479L
L0L
(lp574
(lp575
tp576
a(L1032381749L
L0L
(lp577
(lp578
tp579
a(L2837304413L
L0L
(lp580
(lp581
tp582
a(L677569396L
L3785322319L
(lp583
(lp584
Vverify_load_addresses
p585
atp586
a(L1351513776L
L0L
(lp587
(lp588
tp589
a(L956755582L
L0L
(lp590
(lp591
tp592
a(L1974428735L
L0L
(lp593
(lp594
tp595
a(L1668576129L
L0L
(lp596
(lp597
tp598
a(L106L
L0L
(lp599
(lp600
tp601
a(L369176762L
L0L
(lp602
(lp603
tp604
a(L106L
L0L
(lp605
(lp606
tp607
a(L2372651414L
L3785322319L
(lp608
(lp609
Vbootloader_util_regions_overlap
p610
atp611
a(L3028481L
L0L
(lp612
(lp613
tp614
a(L2596299966L
L3785322319L
(lp615
(lp616
Vbootloader_util_regions_overlap
p617
atp618
a(L2711946619L
L0L
(lp619
(lp620
tp621
a(L3124973756L
L0L
(lp622
(lp623
tp624
a(L2915101410L
L0L
(lp625
(lp626
tp627
a(L2743341656L
L0L
(lp628
(lp629
tp630
a(L182882711L
L0L
(lp631
(lp632
tp633
a(L2195938843L
L0L
(lp634
(lp635
tp636
a(L297163306L
L0L
(lp637
(lp638
tp639
a(L1900059593L
L0L
(lp640
(lp641
tp642
a(L755855436L
L0L
(lp643
(lp644
tp645
a(L3796334853L
L0L
(lp646
(lp647
tp648
a(L3929371936L
L0L
(lp649
(lp650
tp651
a(L2805932845L
L0L
(lp652
(lp653
tp654
a(L4072848040L
L0L
(lp655
(lp656
tp657
a(L106L
L0L
(lp658
(lp659
tp660
a(L955483896L
L0L
(lp661
(lp662
tp663
a(L307916738L
L0L
(lp664
(lp665
tp666
a(L3020204L
L0L
(lp667
(lp668
tp669
a(L2103814070L
L3785322319L
(lp670
(lp671
Vesp_log_early_timestamp
p672
atp673
a(L1303560396L
L0L
(lp674
(lp675
tp676
a(L955483772L
L0L
(lp677
(lp678
tp679
a(L1303560427L
L0L
(lp680
(lp681
tp682
atp683
sI1074246196
(Vrtc_clk_cpu_freq_to_xtal
p684
(lp685
(L767415990L
L3785322319L
(lp686
(lp687
Vesp_rom_set_cpu_ticks_per_us
p688
atp689
a(L94425498L
L3785322319L
(lp690
(lp691
Vabort
p692
atp693
a(L3338618120L
L3785322319L
(lp694
(lp695
Vrtc_clk_apb_freq_update
p696
atp697
a(L2258867230L
L0L
(lp698
(lp699
tp700
a(L4236068658L
L0L
(lp701
(lp702
tp703
atp704
sI1074270012
(Vbootloader_console_init
p705
(lp706
(L2486688275L
L1832448559L
(lp707
(lp708
Vesp_rom_uart_tx_wait_idle
p709
aVrtc_clk_apb_freq_get
p710
aVesp_rom_uart_set_clock_baudrate
p711
atp712
atp713
sI1074245424
(Vrtc_clk_8m_enable
p714
(lp715
(L1883140182L
L0L
(lp716
(lp717
tp718
a(L241707615L
L0L
(lp719
(lp720
tp721
a(L2151320156L
L0L
(lp722
(lp723
tp724
a(L711175840L
L0L
(lp725
(lp726
tp727
a(L3360570486L
L0L
(lp728
(lp729
tp730
a(L1318267208L
L0L
(lp731
(lp732
tp733
a(L3966332818L
L0L
(lp734
(lp735
tp736
atp737
sI1074236732
(Vefuse_hal_chip_revision
p738
(lp739
(L2719302832L
L1880226080L
(lp740
(lp741
Vefuse_hal_get_major_chip_version
p742
aVefuse_hal_get_minor_chip_version
p743
atp744
atp745
sI1074244924
(Vmmu_hal_unmap_all
p746
(lp747
(L3722358291L
L0L
(lp748
(lp749
tp750
a(L2010554219L
L0L
(lp751
(lp752
tp753
a(L3268103L
L0L
(lp754
(lp755
tp756
a(L3212334523L
L0L
(lp757
(lp758
tp759
a(L2010554219L
L0L
(lp760
(lp761
tp762
a(L3360570486L
L0L
(lp763
(lp764
tp765
atp766
sI1074244408
(Vwdt_hal_config_stage
p767
(lp768
(L331558507L
L0L
(lp769
(lp770
tp771
a(L4279082939L
L0L
(lp772
(lp773
tp774
a(L93674324L
L0L
(lp775
(lp776
tp777
a(L2902417580L
L0L
(lp778
(lp779
tp780
a(L3753404285L
L0L
(lp781
(lp782
tp783
a(L3020187L
L0L
(lp784
(lp785
tp786
a(L94425498L
L3785322319L
(lp787
(lp788
Vabort
p789
atp790
a(L3440331299L
L0L
(lp791
(lp792
tp793
a(L3360570486L
L0L
(lp794
(lp795
tp796
a(L3814006714L
L0L
(lp797
(lp798
tp799
a(L3874610352L
L0L
(lp800
(lp801
tp802
a(L4278159418L
L0L
(lp803
(lp804
tp805
a(L93674324L
L0L
(lp806
(lp807
tp808
a(L3020204L
L0L
(lp809
(lp810
tp811
a(L3842451369L
L0L
(lp812
(lp813
tp814
a(L3020187L
L0L
(lp815
(lp816
tp817
a(L106L
L0L
(lp818
(lp819
tp820
a(L1854803910L
L0L
(lp821
(lp822
tp823
a(L2648658347L
L0L
(lp824
(lp825
tp826
a(L4242184999L
L0L
(lp827
(lp828
tp829
atp830
sI1074241080
(Vbootloader_console_deinit
p831
(lp832
(L777638133L
L0L
(lp833
(lp834
tp835
atp836
sI1074239032
(Vcache_ll_l1_enable_bus
p837
(lp838
(L902531686L
L0L
(lp839
(lp840
tp841
atp842
sI1074236996
(Vis_retain_mem_valid
p843
(lp844
(L2257480021L
L0L
(lp845
(lp846
tp847
atp848
sI1074267724
(Vcall_start_cpu0
p849
(lp850
(L1137852827L
L0L
(lp851
(lp852
tp853
a(L549459388L
L0L
(lp854
(lp855
tp856
a(L3212347974L
L3785322319L
(lp857
(lp858
Vbootloader_init
p859
atp860
a(L94425498L
L3785322319L
(lp861
(lp862
Vbootloader_reset
p863
atp864
a(L1122046408L
L0L
(lp865
(lp866
tp867
a(L4099474112L
L0L
(lp868
(lp869
tp870
a(L4004585570L
L1880226080L
(lp871
(lp872
Vbootloader_utility_load_boot_image_from_deep_sleep
p873
aVbootloader_utility_load_partition_table
p874
atp875
a(L2761094216L
L3785322319L
(lp876
(lp877
Vesp_log_early_timestamp
p878
atp879
a(L736289835L
L3785322319L
(lp880
(lp881
Vbootloader_utility_get_selected_boot_partition
p882
atp883
a(L344825785L
L3785322319L
(lp884
(lp885
Vbootloader_utility_load_boot_image
p886
atp887
atp888
sI1074241344
(Vprocess_image_header
p889
(lp890
(L4084920688L
L3785322319L
(lp891
(lp892
Vbootloader_flash_read
p893
atp894
a(L3020204L
L0L
(lp895
(lp896
tp897
a(L4205021202L
L0L
(lp898
(lp899
tp900
a(L321261932L
L0L
(lp901
(lp902
tp903
a(L1161397362L
L3785322319L
(lp904
(lp905
Vbootloader_sha256_start
p906
atp907
a(L2062774299L
L3785322319L
(lp908
(lp909
Vbootloader_sha256_data
p910
atp911
a(L1291118193L
L0L
(lp912
(lp913
tp914
a(L3028481L
L0L
(lp915
(lp916
tp917
a(L4183465114L
L3785322319L
(lp918
(lp919
Vesp_log_early_timestamp
p920
atp921
a(L3200755482L
L0L
(lp922
(lp923
tp924
a(L2983970029L
L0L
(lp925
(lp926
tp927
a(L4235213884L
L3785322319L
(lp928
(lp929
Vbootloader_common_check_chip_validity
p930
atp931
a(L4144303915L
L0L
(lp932
(lp933
tp934
a(L3028481L
L0L
(lp935
(lp936
tp937
a(L966009679L
L3785322319L
(lp938
(lp939
Vesp_log_early_timestamp
p940
atp941
a(L2852701393L
L0L
(lp942
(lp943
tp944
a(L2122516551L
L0L
(lp945
(lp946
tp947
a(L3064492592L
L0L
(lp948
(lp949
tp950
atp951
sI1074270272
(Vrtc_clk_init
p952
(lp953
(L2294715062L
L0L
(lp954
(lp955
tp956
a(L42671777L
L3785322319L
(lp957
(lp958
Vrtc_clk_cpu_freq_to_xtal
p959
atp960
a(L221492645L
L3785322319L
(lp961
(lp962
Vrtc_clk_xtal_freq_get
p963
atp964
a(L3028481L
L0L
(lp965
(lp966
tp967
a(L4284274517L
L3785322319L
(lp968
(lp969
Vrtc_clk_xtal_freq_estimate
p970
atp971
a(L2705677258L
L3785322319L
(lp972
(lp973
Vesp_log_early_timestamp
p974
atp975
a(L633981439L
L1157885199L
(lp976
(lp977
Vesp_rom_uart_tx_wait_idle
p978
aVrtc_clk_xtal_freq_update
p979
aVrtc_clk_apb_freq_update
p980
aVrtc_clk_cpu_freq_get_config
p981
aVrtc_clk_cpu_freq_mhz_to_config
p982
atp983
a(L48371412L
L1880226080L
(lp984
(lp985
Vesp_log_early_timestamp
p986
aVabort
p987
atp988
a(L2902417580L
L0L
(lp989
(lp990
tp991
a(L1899970065L
L0L
(lp992
(lp993
tp994
a(L377687546L
L3785322319L
(lp995
(lp996
Vrtc_clk_xtal_freq_estimate
p997
atp998
a(L2146549143L
L3785322319L
(lp999
(lp1000
Vesp_log_early_timestamp
p1001
atp1002
a(L4134099358L
L3785322319L
(lp1003
(lp1004
Vrtc_clk_cpu_freq_set_config
p1005
atp1006
a(L912310138L
L3785322319L
(lp1007
(lp1008
Vrtc_clk_32k_enable
p1009
atp1010
a(L3191820416L
L1832448559L
(lp1011
(lp1012
Vrtc_clk_8m_enable
p1013
aVrtc_clk_fast_src_set
p1014
aVrtc_clk_slow_src_set
p1015
atp1016
a(L1232958848L
L0L
(lp1017
(lp1018
tp1019
atp1020
sI1074247500
(Vrtc_clk_cal_ratio
p1021
(lp1022
(L3804274343L
L3785322319L
(lp1023
(lp1024
Vrtc_clk_cal_internal
p1025
atp1026
atp1027
sI1074241096
(V__assert_func
p1028
(lp1029
(L2983076609L
L0L
(lp1030
(lp1031
tp1032
a(L106L
L0L
(lp1033
(lp1034
tp1035
atp1036
sI1074237512
(Vbootloader_common_select_otadata
p1037
(lp1038
(L4071767857L
L0L
(lp1039
(lp1040
tp1041
a(L1999329187L
L0L
(lp1042
(lp1043
tp1044
a(L3846398843L
L0L
(lp1045
(lp1046
tp1047
a(L2501968171L
L0L
(lp1048
(lp1049
tp1050
a(L3360570486L
L0L
(lp1051
(lp1052
tp1053
a(L2045232488L
L0L
(lp1054
(lp1055
tp1056
a(L1243525916L
L0L
(lp1057
(lp1058
tp1059
a(L3094144427L
L0L
(lp1060
(lp1061
tp1062
a(L2399509845L
L0L
(lp1063
(lp1064
tp1065
a(L1641201884L
L0L
(lp1066
(lp1067
tp1068
atp1069
sI1074236756
(Vefuse_hal_flash_encryption_enabled
p1070
(lp1071
(L2932383536L
L0L
(lp1072
(lp1073
tp1074
a(L2910371777L
L0L
(lp1075
(lp1076
tp1077
a(L3360570486L
L0L
(lp1078
(lp1079
tp1080
a(L3016870L
L0L
(lp1081
(lp1082
tp1083
a(L3745038218L
L0L
(lp1084
(lp1085
tp1086
a(L957607403L
L0L
(lp1087
(lp1088
tp1089
atp1090
sI1074245716
(Vrtc_clk_slow_src_get
p1091
(lp1092
(L4179445734L
L0L
(lp1093
(lp1094
tp1095
a(L3020187L
L0L
(lp1096
(lp1097
tp1098
a(L2902417580L
L0L
(lp1099
(lp1100
tp1101
a(L2258688485L
L0L
(lp1102
(lp1103
tp1104
a(L3360570486L
L0L
(lp1105
(lp1106
tp1107
atp1108
sI1074246992
(Vrtc_clk_apb_freq_get
p1109
(lp1110
(L2858695958L
L0L
(lp1111
(lp1112
tp1113
atp1114
sI1074238296
(Vbootloader_enable_wp
p1115
(lp1116
(L1117825804L
L3785322319L
(lp1117
(lp1118
Vbootloader_execute_flash_command
p1119
atp1120
atp1121
sI1074242148
(Vshould_load
p1122
(lp1123
(L603303431L
L0L
(lp1124
(lp1125
tp1126
a(L1182990556L
L0L
(lp1127
(lp1128
tp1129
a(L3445575825L
L0L
(lp1130
(lp1131
tp1132
a(L2306467100L
L0L
(lp1133
(lp1134
tp1135
a(L524505062L
L0L
(lp1136
(lp1137
tp1138
a(L2258897019L
L0L
(lp1139
(lp1140
tp1141
a(L3781799363L
L0L
(lp1142
(lp1143
tp1144
a(L3028464L
L0L
(lp1145
(lp1146
tp1147
a(L1636999707L
L0L
(lp1148
(lp1149
tp1150
a(L4277114872L
L0L
(lp1151
(lp1152
tp1153
a(L2824381917L
L0L
(lp1154
(lp1155
tp1156
a(L1243412227L
L0L
(lp1157
(lp1158
tp1159
a(L2011157548L
L0L
(lp1160
(lp1161
tp1162
a(L3126521138L
L0L
(lp1163
(lp1164
tp1165
a(L1305407438L
L0L
(lp1166
(lp1167
tp1168
a(L1305407469L
L0L
(lp1169
(lp1170
tp1171
atp1172
sI1074241120
(Vabort
p1173
(lp1174
(L1089406431L
L0L
(lp1175
(lp1176
tp1177
a(L409471316L
L0L
(lp1178
(lp1179
tp1180
a(L106L
L0L
(lp1181
(lp1182
tp1183
atp1184
sI1074238816
(Vcache_ll_l1_get_bus
p1185
(lp1186
(L3827411420L
L0L
(lp1187
(lp1188
tp1189
a(L94425498L
L3785322319L
(lp1190
(lp1191
Vabort
p1192
atp1193
a(L3222493499L
L0L
(lp1194
(lp1195
tp1196
a(L3745820423L
L0L
(lp1197
(lp1198
tp1199
a(L892952750L
L0L
(lp1200
(lp1201
tp1202
a(L1182811810L
L0L
(lp1203
(lp1204
tp1205
a(L1101742417L
L0L
(lp1206
(lp1207
tp1208
a(L1100767927L
L0L
(lp1209
(lp1210
tp1211
a(L3360570486L
L0L
(lp1212
(lp1213
tp1214
a(L2752335631L
L0L
(lp1215
(lp1216
tp1217
a(L2882938163L
L0L
(lp1218
(lp1219
tp1220
a(L2927201858L
L0L
(lp1221
(lp1222
tp1223
a(L2258718273L
L0L
(lp1224
(lp1225
tp1226
a(L2580713941L
L0L
(lp1227
(lp1228
tp1229
a(L2756029715L
L0L
(lp1230
(lp1231
tp1232
a(L2795746388L
L0L
(lp1233
(lp1234
tp1235
a(L1641149277L
L0L
(lp1236
(lp1237
tp1238
a(L3232646960L
L0L
(lp1239
(lp1240
tp1241
a(L3027019L
L0L
(lp1242
(lp1243
tp1244
a(L1299866560L
L0L
(lp1245
(lp1246
tp1247
a(L1299866436L
L0L
(lp1248
(lp1249
tp1250
atp1251
sI1074245984
(Vrtc_clk_cpu_freq_get_config
p1252
(lp1253
(L4052661237L
L0L
(lp1254
(lp1255
tp1256
a(L3020187L
L0L
(lp1257
(lp1258
tp1259
a(L3020187L
L0L
(lp1260
(lp1261
tp1262
a(L3602299468L
L3785322319L
(lp1263
(lp1264
Vrtc_clk_xtal_freq_get
p1265
atp1266
a(L3789795478L
L0L
(lp1267
(lp1268
tp1269
a(L705018805L
L1880226080L
(lp1270
(lp1271
Vesp_log_early_timestamp
p1272
aVabort
p1273
atp1274
a(L3297739326L
L0L
(lp1275
(lp1276
tp1277
a(L3020187L
L0L
(lp1278
(lp1279
tp1280
a(L3028481L
L0L
(lp1281
(lp1282
tp1283
a(L38508693L
L0L
(lp1284
(lp1285
tp1286
a(L187152368L
L0L
(lp1287
(lp1288
tp1289
a(L1161083655L
L0L
(lp1290
(lp1291
tp1292
a(L1395485899L
L0L
(lp1293
(lp1294
tp1295
a(L2070600034L
L0L
(lp1296
(lp1297
tp1298
atp1299
sI1074269792
(Vbootloader_config_wdt
p1300
(lp1301
(L3738756377L
L505859776L
(lp1302
(lp1303
Vwdt_hal_write_protect_disable
p1304
aVwdt_hal_set_flashboot_en
p1305
aVwdt_hal_write_protect_enable
p1306
aVwdt_hal_init
p1307
aVrtc_clk_slow_freq_get_hz
p1308
aVwdt_hal_write_protect_disable
p1309
aVwdt_hal_config_stage
p1310
aVwdt_hal_enable
p1311
aVwdt_hal_write_protect_enable
p1312
aVwdt_hal_write_protect_disable
p1313
aVwdt_hal_set_flashboot_en
p1314
aVwdt_hal_write_protect_enable
p1315
atp1316
atp1317
sI1074270048
(Vesp_cpu_configure_region_protection
p1318
(lp1319
(L1698042428L
L0L
(lp1320
(lp1321
tp1322
a(L180431425L
L3785322319L
(lp1323
(lp1324
Vmpu_hal_set_region_access
p1325
atp1326
a(L2537388152L
L3785322319L
(lp1327
(lp1328
Vmpu_hal_set_region_access
p1329
atp1330
atp1331
sI1074239084
(Vload_image
p1332
(lp1333
(L3088803964L
L1832448559L
(lp1334
(lp1335
Vesp_log_early_timestamp
p1336
aVbootloader_random_disable
p1337
aVbootloader_ana_clock_glitch_reset_config
p1338
atp1339
a(L2261049225L
L0L
(lp1340
(lp1341
tp1342
a(L106L
L0L
(lp1343
(lp1344
tp1345
a(L2360910321L
L3758435744L
(lp1346
(lp1347
Vmmu_hal_unmap_all
p1348
aVcache_ll_l1_get_bus
p1349
aVcache_ll_l1_enable_bus
p1350
aVcache_ll_l1_get_bus
p1351
aVcache_ll_l1_enable_bus
p1352
aVcache_ll_l1_get_bus
p1353
aVcache_ll_l1_enable_bus
p1354
aVcache_ll_l1_get_bus
p1355
aVcache_ll_l1_enable_bus
p1356
aVbootloader_console_deinit
p1357
atp1358
a(L3219301124L
L0L
(lp1359
(lp1360
tp1361
a(L2902417580L
L0L
(lp1362
(lp1363
tp1364
a(L2036517902L
L3785322319L
(lp1365
(lp1366
Vesp_log_early_timestamp
p1367
atp1368
a(L2552261596L
L0L
(lp1369
(lp1370
tp1371
a(L309110312L
L0L
(lp1372
(lp1373
tp1374
a(L3020204L
L0L
(lp1375
(lp1376
tp1377
a(L3204714157L
L3785322319L
(lp1378
(lp1379
Vesp_log_early_timestamp
p1380
atp1381
a(L3291469664L
L0L
(lp1382
(lp1383
tp1384
a(L2591655545L
L0L
(lp1385
(lp1386
tp1387
atp1388
sI1074238316
(Vbootloader_mmap_get_free_pages
p1389
(lp1390
(L1496516875L
L0L
(lp1391
(lp1392
tp1393
atp1394
sI1074244972
(Vefuse_hal_get_rated_freq_mhz
p1395
(lp1396
(L3060225221L
L0L
(lp1397
(lp1398
tp1399
a(L338960367L
L0L
(lp1400
(lp1401
tp1402
a(L3360570486L
L0L
(lp1403
(lp1404
tp1405
atp1406
sI1074247532
(Vrtc_clk_wait_for_slow_cycle
p1407
(lp1408
(L3923936062L
L0L
(lp1409
(lp1410
tp1411
a(L287687718L
L0L
(lp1412
(lp1413
tp1414
a(L3360570486L
L0L
(lp1415
(lp1416
tp1417
a(L2664777485L
L0L
(lp1418
(lp1419
tp1420
a(L1300789833L
L0L
(lp1421
(lp1422
tp1423
a(L1259765481L
L0L
(lp1424
(lp1425
tp1426
a(L2740785823L
L0L
(lp1427
(lp1428
tp1429
a(L2641696258L
L3785322319L
(lp1430
(lp1431
Vesp_log_early_timestamp
p1432
atp1433
atp1434
sI1074234728
(Vbootloader_common_get_chip_ver_pkg
p1435
(lp1436
(L994406025L
L0L
(lp1437
(lp1438
tp1439
atp1440
sI1074244724
(Vwdt_hal_write_protect_disable
p1441
(lp1442
(L3772684810L
L0L
(lp1443
(lp1444
tp1445
a(L4195472003L
L0L
(lp1446
(lp1447
tp1448
a(L3360570486L
L0L
(lp1449
(lp1450
tp1451
a(L1210571996L
L0L
(lp1452
(lp1453
tp1454
atp1455
sI1074240884
(Vbootloader_sha256_finish
p1456
(lp1457
(L4066096136L
L0L
(lp1458
(lp1459
tp1460
a(L840115176L
L0L
(lp1461
(lp1462
tp1463
a(L591145840L
L3785322319L
(lp1464
(lp1465
V__assert_func
p1466
atp1467
a(L3020204L
L0L
(lp1468
(lp1469
tp1470
a(L3478420729L
L0L
(lp1471
(lp1472
tp1473
a(L2534656226L
L0L
(lp1474
(lp1475
tp1476
a(L18240658L
L3785322319L
(lp1477
(lp1478
Vbootloader_sha256_data
p1479
atp1480
a(L699336714L
L0L
(lp1481
(lp1482
tp1483
a(L3666528998L
L3785322319L
(lp1484
(lp1485
Vbootloader_sha256_data
p1486
atp1487
a(L473014360L
L0L
(lp1488
(lp1489
tp1490
a(L657425439L
L0L
(lp1491
(lp1492
tp1493
a(L4242965061L
L0L
(lp1494
(lp1495
tp1496
a(L657425439L
L0L
(lp1497
(lp1498
tp1499
a(L4237898673L
L0L
(lp1500
(lp1501
tp1502
a(L2718449270L
L0L
(lp1503
(lp1504
tp1505
a(L3347778L
L0L
(lp1506
(lp1507
tp1508
a(L3360570486L
L0L
(lp1509
(lp1510
tp1511
atp1512
sI1074238324
(Vbootloader_fill_random
p1513
(lp1514
(L1799492288L
L0L
(lp1515
(lp1516
tp1517
a(L1413409547L
L3785322319L
(lp1518
(lp1519
V__assert_func
p1520
atp1521
a(L1882547218L
L0L
(lp1522
(lp1523
tp1524
a(L2910371777L
L0L
(lp1525
(lp1526
tp1527
a(L95634693L
L0L
(lp1528
(lp1529
tp1530
a(L3630908706L
L0L
(lp1531
(lp1532
tp1533
a(L160162640L
L0L
(lp1534
(lp1535
tp1536
a(L97689L
L0L
(lp1537
(lp1538
tp1539
a(L3360570486L
L0L
(lp1540
(lp1541
tp1542
atp1543
sI1074235252
(Vbootloader_execute_flash_command
p1544
(lp1545
(L2481595632L
L3785322319L
(lp1546
(lp1547
Vbootloader_flash_execute_command_common
p1548
atp1549
atp1550
sI1074247796
(Vesp_rom_spiflash_wait_idle
p1551
(lp1552
(L3233076620L
L0L
(lp1553
(lp1554
tp1555
a(L2023766174L
L0L
(lp1556
(lp1557
tp1558
a(L2805934577L
L0L
(lp1559
(lp1560
tp1561
a(L3086959262L
L0L
(lp1562
(lp1563
tp1564
a(L4161019926L
L3785322319L
(lp1565
(lp1566
Vesp_rom_spiflash_read_status
p1567
atp1568
atp1569
sI1074237040
(Vupdate_rtc_retain_mem_crc
p1570
(lp1571
(L2554222750L
L0L
(lp1572
(lp1573
tp1574
atp1575
sI1074245744
(Vrtc_clk_slow_freq_get_hz
p1576
(lp1577
(L1826267122L
L3785322319L
(lp1578
(lp1579
Vrtc_clk_slow_src_get
p1580
atp1581
a(L4208726686L
L0L
(lp1582
(lp1583
tp1584
a(L4035351460L
L0L
(lp1585
(lp1586
tp1587
a(L3360570486L
L0L
(lp1588
(lp1589
tp1590
atp1591
sI1074240380
(Vbootloader_reset
p1592
(lp1593
(L2081562338L
L3785322319L
(lp1594
(lp1595
Vbootloader_console_deinit
p1596
atp1597
a(L106L
L0L
(lp1598
(lp1599
tp1600
atp1601
sI1074236796
(Vefuse_hal_get_major_chip_version
p1602
(lp1603
(L503352333L
L0L
(lp1604
(lp1605
tp1606
a(L894792960L
L0L
(lp1607
(lp1608
tp1609
a(L724635033L
L0L
(lp1610
(lp1611
tp1612
a(L3360570486L
L0L
(lp1613
(lp1614
tp1615
atp1616
sI1074247036
(Vrtc_clk_cal_internal
p1617
(lp1618
(L3240343050L
L0L
(lp1619
(lp1620
tp1621
a(L3607266593L
L3785322319L
(lp1622
(lp1623
V__assert_func
p1624
atp1625
a(L29139816L
L0L
(lp1626
(lp1627
tp1628
a(L1673513644L
L0L
(lp1629
(lp1630
tp1631
a(L1947503823L
L3785322319L
(lp1632
(lp1633
Vrtc_clk_slow_src_get
p1634
atp1635
a(L3008910671L
L0L
(lp1636
(lp1637
tp1638
a(L97689L
L0L
(lp1639
(lp1640
tp1641
a(L1753724929L
L0L
(lp1642
(lp1643
tp1644
a(L3028464L
L0L
(lp1645
(lp1646
tp1647
a(L3028481L
L0L
(lp1648
(lp1649
tp1650
a(L3450258810L
L0L
(lp1651
(lp1652
tp1653
a(L3342863970L
L3785322319L
(lp1654
(lp1655
Vrtc_clk_xtal_freq_get
p1656
atp1657
a(L2780079961L
L0L
(lp1658
(lp1659
tp1660
a(L667466546L
L0L
(lp1661
(lp1662
tp1663
a(L3119507449L
L3785322319L
(lp1664
(lp1665
Vesp_log_early_timestamp
p1666
atp1667
a(L2258688482L
L0L
(lp1668
(lp1669
tp1670
a(L3360570486L
L0L
(lp1671
(lp1672
tp1673
a(L3553505594L
L0L
(lp1674
(lp1675
tp1676
a(L403361192L
L0L
(lp1677
(lp1678
tp1679
a(L3243404432L
L3785322319L
(lp1680
(lp1681
Vrtc_clk_8m_enable
p1682
atp1683
a(L91408096L
L0L
(lp1684
(lp1685
tp1686
a(L569203943L
L0L
(lp1687
(lp1688
tp1689
a(L2910371777L
L0L
(lp1690
(lp1691
tp1692
a(L2902417580L
L0L
(lp1693
(lp1694
tp1695
a(L1276245461L
L0L
(lp1696
(lp1697
tp1698
a(L3020204L
L0L
(lp1699
(lp1700
tp1701
a(L2586319265L
L0L
(lp1702
(lp1703
tp1704
a(L3429540926L
L0L
(lp1705
(lp1706
tp1707
a(L3028464L
L0L
(lp1708
(lp1709
tp1710
a(L3323123774L
L3785322319L
(lp1711
(lp1712
Vrtc_clk_8m_enable
p1713
atp1714
atp1715
sI1074237828
(Vbootloader_munmap
p1716
(lp1717
(L2079642783L
L0L
(lp1718
(lp1719
tp1720
a(L2908476086L
L0L
(lp1721
(lp1722
tp1723
a(L3360570486L
L0L
(lp1724
(lp1725
tp1726
atp1727
sI1074240644
(Vindex_to_partition
p1728
(lp1729
(L4066096119L
L0L
(lp1730
(lp1731
tp1732
a(L1101255660L
L0L
(lp1733
(lp1734
tp1735
a(L1955702725L
L0L
(lp1736
(lp1737
tp1738
a(L3698927993L
L0L
(lp1739
(lp1740
tp1741
a(L2808906342L
L0L
(lp1742
(lp1743
tp1744
a(L4211744375L
L0L
(lp1745
(lp1746
tp1747
a(L3097778015L
L0L
(lp1748
(lp1749
tp1750
a(L1816235430L
L0L
(lp1751
(lp1752
tp1753
a(L2179185678L
L0L
(lp1754
(lp1755
tp1756
a(L3369319173L
L0L
(lp1757
(lp1758
tp1759
atp1760
sI1074239616
(Vbootloader_utility_load_partition_table
p1761
(lp1762
(L2486860529L
L3785322319L
(lp1763
(lp1764
Vbootloader_mmap
p1765
atp1766
a(L505919583L
L3785322319L
(lp1767
(lp1768
Vesp_log_early_timestamp
p1769
atp1770
a(L2258688482L
L0L
(lp1771
(lp1772
tp1773
a(L3360570486L
L0L
(lp1774
(lp1775
tp1776
a(L2379286607L
L3785322319L
(lp1777
(lp1778
Vesp_partition_table_verify
p1779
atp1780
a(L1834804331L
L3785322319L
(lp1781
(lp1782
Vesp_log_early_timestamp
p1783
atp1784
a(L1581018449L
L1880226080L
(lp1785
(lp1786
Vesp_log_early_timestamp
p1787
aVesp_log_early_timestamp
p1788
atp1789
a(L650140130L
L0L
(lp1790
(lp1791
tp1792
a(L3646092909L
L1880226080L
(lp1793
(lp1794
Vbootloader_munmap
p1795
aVesp_log_early_timestamp
p1796
atp1797
a(L521126897L
L0L
(lp1798
(lp1799
tp1800
a(L3028464L
L0L
(lp1801
(lp1802
tp1803
a(L106L
L0L
(lp1804
(lp1805
tp1806
a(L1403802589L
L0L
(lp1807
(lp1808
tp1809
a(L885462156L
L3785322319L
(lp1810
(lp1811
Vesp_log_early_timestamp
p1812
atp1813
a(L3990577774L
L0L
(lp1814
(lp1815
tp1816
a(L3020187L
L0L
(lp1817
(lp1818
tp1819
a(L2299741977L
L0L
(lp1820
(lp1821
tp1822
a(L4208504664L
L0L
(lp1823
(lp1824
tp1825
a(L1859217967L
L0L
(lp1826
(lp1827
tp1828
a(L2546691370L
L0L
(lp1829
(lp1830
tp1831
a(L3837441849L
L0L
(lp1832
(lp1833
tp1834
a(L106L
L0L
(lp1835
(lp1836
tp1837
a(L93674324L
L0L
(lp1838
(lp1839
tp1840
a(L1586995289L
L0L
(lp1841
(lp1842
tp1843
a(L1938134716L
L0L
(lp1844
(lp1845
tp1846
a(L924830715L
L0L
(lp1847
(lp1848
tp1849
a(L106L
L0L
(lp1850
(lp1851
tp1852
a(L928524799L
L0L
(lp1853
(lp1854
tp1855
a(L106L
L0L
(lp1856
(lp1857
tp1858
a(L568205111L
L0L
(lp1859
(lp1860
tp1861
atp1862
sI1074245772
(Vrtc_clk_fast_src_set
p1863
(lp1864
(L1422122692L
L0L
(lp1865
(lp1866
tp1867
a(L3020187L
L0L
(lp1868
(lp1869
tp1870
a(L3827921190L
L3785322319L
(lp1871
(lp1872
Vabort
p1873
atp1874
a(L2904656757L
L0L
(lp1875
(lp1876
tp1877
a(L206212292L
L0L
(lp1878
(lp1879
tp1880
a(L300459962L
L0L
(lp1881
(lp1882
tp1883
atp1884
sI1074234760
(Vesp_flash_encryption_enabled
p1885
(lp1886
(L376617603L
L3785322319L
(lp1887
(lp1888
Vefuse_hal_flash_encryption_enabled
p1889
atp1890
atp1891
sI1074236552
(Vesp_rom_set_cpu_ticks_per_us
p1892
(lp1893
(L2370326522L
L0L
(lp1894
(lp1895
tp1896
atp1897
sI1074237064
(Vbootloader_common_ota_select_crc
p1898
(lp1899
(L3898531187L
L0L
(lp1900
(lp1901
tp1902
atp1903
sI1074268568
(Vbootloader_common_vddsdio_configure
p1904
(lp1905
(L1829974089L
L3785322319L
(lp1906
(lp1907
Vrtc_vddsdio_get_config
p1908
atp1909
a(L2795064753L
L3785322319L
(lp1910
(lp1911
Vrtc_vddsdio_set_config
p1912
atp1913
a(L3360570486L
L0L
(lp1914
(lp1915
tp1916
atp1917
sI1074237588
(Vspi_to_esp_err
p1918
(lp1919
(L3506104959L
L0L
(lp1920
(lp1921
tp1922
a(L2409788187L
L0L
(lp1923
(lp1924
tp1925
a(L3952441574L
L0L
(lp1926
(lp1927
tp1928
a(L3126521138L
L0L
(lp1929
(lp1930
tp1931
atp1932
sI1074234772
(Vbootloader_flash_execute_command_common
p1933
(lp1934
(L3865052895L
L0L
(lp1935
(lp1936
tp1937
a(L3287175997L
L0L
(lp1938
(lp1939
tp1940
a(L4121451103L
L3785322319L
(lp1941
(lp1942
V__assert_func
p1943
atp1944
a(L3021749L
L0L
(lp1945
(lp1946
tp1947
a(L3999871943L
L0L
(lp1948
(lp1949
tp1950
a(L543316797L
L0L
(lp1951
(lp1952
tp1953
a(L2091933878L
L0L
(lp1954
(lp1955
tp1956
a(L1702379862L
L0L
(lp1957
(lp1958
tp1959
a(L3432464320L
L0L
(lp1960
(lp1961
tp1962
a(L3539375712L
L0L
(lp1963
(lp1964
tp1965
a(L3244449450L
L0L
(lp1966
(lp1967
tp1968
a(L4233404408L
L0L
(lp1969
(lp1970
tp1971
a(L2990329343L
L0L
(lp1972
(lp1973
tp1974
a(L2051090536L
L0L
(lp1975
(lp1976
tp1977
a(L3333696662L
L0L
(lp1978
(lp1979
tp1980
a(L963425213L
L0L
(lp1981
(lp1982
tp1983
a(L339491738L
L0L
(lp1984
(lp1985
tp1986
a(L3360570486L
L0L
(lp1987
(lp1988
tp1989
atp1990
sI1074235284
(Vbootloader_flash_unlock
p1991
(lp1992
(L485855552L
L3785322319L
(lp1993
(lp1994
Vesp_rom_spiflash_wait_idle
p1995
atp1996
a(L711923870L
L0L
(lp1997
(lp1998
tp1999
a(L3507311156L
L3785322319L
(lp2000
(lp2001
Vbootloader_execute_flash_command
p2002
atp2003
a(L4103218025L
L0L
(lp2004
(lp2005
tp2006
a(L2529045083L
L0L
(lp2007
(lp2008
tp2009
a(L1175784077L
L1832448559L
(lp2010
(lp2011
Vesp_rom_spiflash_wait_idle
p2012
aVbootloader_execute_flash_command
p2013
aVbootloader_execute_flash_command
p2014
atp2015
a(L106L
L0L
(lp2016
(lp2017
tp2018
a(L594961218L
L1880226080L
(lp2019
(lp2020
Vesp_rom_spiflash_wait_idle
p2021
aVbootloader_execute_flash_command
p2022
atp2023
a(L2993202392L
L0L
(lp2024
(lp2025
tp2026
a(L610618707L
L0L
(lp2027
(lp2028
tp2029
a(L2843273676L
L0L
(lp2030
(lp2031
tp2032
a(L192015437L
L0L
(lp2033
(lp2034
tp2035
a(L3154322046L
L1880226080L
(lp2036
(lp2037
Vbootloader_execute_flash_command
p2038
aVbootloader_execute_flash_command
p2039
atp2040
a(L1303560644L
L0L
(lp2041
(lp2042
tp2043
a(L1711531685L
L1880226080L
(lp2044
(lp2045
Vbootloader_execute_flash_command
p2046
aVbootloader_execute_flash_command
p2047
atp2048
a(L3658700047L
L0L
(lp2049
(lp2050
tp2051
a(L3430607254L
L0L
(lp2052
(lp2053
tp2054
a(L106L
L0L
(lp2055
(lp2056
tp2057
a(L1876788132L
L1832448559L
(lp2058
(lp2059
Vesp_rom_spiflash_wait_idle
p2060
aVbootloader_execute_flash_command
p2061
aVbootloader_execute_flash_command
p2062
atp2063
atp2064
sI1074240404
(Vbootloader_utility_load_boot_image
p2065
(lp2066
(L2848044097L
L0L
(lp2067
(lp2068
tp2069
a(L2177418995L
L3785322319L
(lp2070
(lp2071
Vtry_load_partition
p2072
atp2073
a(L1305243774L
L3785322319L
(lp2074
(lp2075
Vload_image
p2076
atp2077
a(L2207889764L
L3785322319L
(lp2078
(lp2079
Vesp_log_early_timestamp
p2080
atp2081
a(L3827921190L
L3785322319L
(lp2082
(lp2083
Vbootloader_reset
p2084
atp2085
a(L1953693036L
L3785322319L
(lp2086
(lp2087
Vindex_to_partition
p2088
atp2089
a(L1204373741L
L3785322319L
(lp2090
(lp2091
Vtry_load_partition
p2092
atp2093
a(L1899865696L
L0L
(lp2094
(lp2095
tp2096
a(L2695355117L
L3785322319L
(lp2097
(lp2098
Vset_actual_ota_seq
p2099
atp2100
a(L1868897605L
L3785322319L
(lp2101
(lp2102
Vlog_invalid_app_partition
p2103
atp2104
a(L831650730L
L0L
(lp2105
(lp2106
tp2107
a(L3021737L
L0L
(lp2108
(lp2109
tp2110
a(L695456438L
L0L
(lp2111
(lp2112
tp2113
a(L1136920284L
L3785322319L
(lp2114
(lp2115
Vtry_load_partition
p2116
atp2117
a(L3385815862L
L3785322319L
(lp2118
(lp2119
Vesp_log_early_timestamp
p2120
atp2121
a(L2347390157L
L3785322319L
(lp2122
(lp2123
Vindex_to_partition
p2124
atp2125
a(L1204373741L
L3785322319L
(lp2126
(lp2127
Vtry_load_partition
p2128
atp2129
a(L3061261803L
L0L
(lp2130
(lp2131
tp2132
a(L3582858798L
L3785322319L
(lp2133
(lp2134
Vlog_invalid_app_partition
p2135
atp2136
a(L418497574L
L3785322319L
(lp2137
(lp2138
Vesp_log_early_timestamp
p2139
atp2140
atp2141
sI1074244756
(Vwdt_hal_set_flashboot_en
p2142
(lp2143
(L2375320464L
L0L
(lp2144
(lp2145
tp2146
a(L3915867581L
L0L
(lp2147
(lp2148
tp2149
a(L3360570486L
L0L
(lp2150
(lp2151
tp2152
a(L3831283465L
L0L
(lp2153
(lp2154
tp2155
atp2156
sI1074268060
(Vbootloader_init
p2157
(lp2158
(L1256100286L
L3785322319L
(lp2159
(lp2160
Vbootloader_init_mem
p2161
atp2162
a(L496177411L
L0L
(lp2163
(lp2164
tp2165
a(L2027378118L
L3785322319L
(lp2166
(lp2167
V__assert_func
p2168
atp2169
a(L408886226L
L0L
(lp2170
(lp2171
tp2172
a(L2892662435L
L0L
(lp2173
(lp2174
tp2175
a(L3813782018L
L0L
(lp2176
(lp2177
tp2178
a(L3379255958L
L0L
(lp2179
(lp2180
tp2181
a(L3027019L
L0L
(lp2182
(lp2183
tp2184
a(L3949229104L
L0L
(lp2185
(lp2186
tp2187
a(L3436439188L
L1832448559L
(lp2188
(lp2189
Vbootloader_clear_bss_section
p2190
aVbootloader_common_vddsdio_configure
p2191
aVbootloader_clock_get_rated_freq_mhz
p2192
atp2193
a(L106L
L0L
(lp2194
(lp2195
tp2196
a(L1644716033L
L1157885199L
(lp2197
(lp2198
Vbootloader_clock_configure
p2199
aVbootloader_console_init
p2200
aVbootloader_print_banner
p2201
aVbootloader_flash_update_id
p2202
aVbootloader_flash_xmc_startup
p2203
atp2204
a(L296996763L
L3785322319L
(lp2205
(lp2206
Vesp_log_early_timestamp
p2207
atp2208
a(L1755361396L
L3785322319L
(lp2209
(lp2210
Vesp_log_early_timestamp
p2211
atp2212
a(L3360570486L
L0L
(lp2213
(lp2214
tp2215
a(L2444883382L
L3785322319L
(lp2216
(lp2217
Vbootloader_read_bootloader_header
p2218
atp2219
a(L2444883382L
L3785322319L
(lp2220
(lp2221
Vbootloader_check_bootloader_validity
p2222
atp2223
a(L2444883382L
L3785322319L
(lp2224
(lp2225
Vbootloader_init_spi_flash
p2226
atp2227
a(L3638850911L
L0L
(lp2228
(lp2229
tp2230
a(L254817508L
L0L
(lp2231
(lp2232
tp2233
a(L93892250L
L0L
(lp2234
(lp2235
tp2236
a(L2915015718L
L0L
(lp2237
(lp2238
tp2239
a(L1634500369L
L1880226080L
(lp2240
(lp2241
Vbootloader_config_wdt
p2242
aVbootloader_enable_random
p2243
atp2244
a(L1895147938L
L0L
(lp2245
(lp2246
tp2247
a(L2680457259L
L0L
(lp2248
(lp2249
tp2250
a(L3027019L
L0L
(lp2251
(lp2252
tp2253
a(L97315L
L0L
(lp2254
(lp2255
tp2256
a(L1442646668L
L3785322319L
(lp2257
(lp2258
Vesp_log_early_timestamp
p2259
atp2260
a(L4094931264L
L3785322319L
(lp2261
(lp2262
Vesp_log_early_timestamp
p2263
atp2264
a(L3164960223L
L0L
(lp2265
(lp2266
tp2267
a(L1895147938L
L0L
(lp2268
(lp2269
tp2270
a(L156585483L
L1880226080L
(lp2271
(lp2272
Vwdt_reset_info_dump
p2273
aVwdt_reset_info_dump
p2274
atp2275
atp2276
sI1074241168
(Vbootloader_ana_clock_glitch_reset_config
p2277
(lp2278
(L2100504542L
L0L
(lp2279
(lp2280
tp2281
atp2282
sI1074245008
(Vrtc_clk_32k_enable_common
p2283
(lp2284
(L88474392L
L0L
(lp2285
(lp2286
tp2287
a(L97422L
L0L
(lp2288
(lp2289
tp2290
a(L2218417248L
L0L
(lp2291
(lp2292
tp2293
a(L1403367334L
L0L
(lp2294
(lp2295
tp2296
a(L51458120L
L0L
(lp2297
(lp2298
tp2299
atp2300
sI1074270096
(Vrtc_clk_xtal_freq_estimate
p2301
(lp2302
(L1823831978L
L1880226080L
(lp2303
(lp2304
Vrtc_clk_8m_enabled
p2305
aVrtc_clk_8md256_enabled
p2306
atp2307
a(L2449794434L
L3785322319L
(lp2308
(lp2309
Vrtc_clk_8m_enable
p2310
atp2311
a(L853245806L
L3785322319L
(lp2312
(lp2313
Vrtc_clk_cal_ratio
p2314
atp2315
a(L3934977694L
L0L
(lp2316
(lp2317
tp2318
a(L3955289886L
L0L
(lp2319
(lp2320
tp2321
a(L2836128282L
L3785322319L
(lp2322
(lp2323
Vesp_log_early_timestamp
p2324
atp2325
a(L2307427870L
L0L
(lp2326
(lp2327
tp2328
a(L1281346514L
L3785322319L
(lp2329
(lp2330
Vrtc_clk_8m_enable
p2331
atp2332
a(L3909119106L
L0L
(lp2333
(lp2334
tp2335
a(L609099921L
L3785322319L
(lp2336
(lp2337
Vesp_log_early_timestamp
p2338
atp2339
a(L3304487880L
L0L
(lp2340
(lp2341
tp2342
a(L1641150486L
L0L
(lp2343
(lp2344
tp2345
a(L2362505285L
L3785322319L
(lp2346
(lp2347
Vesp_log_early_timestamp
p2348
atp2349
atp2350
sI1074237084
(Vbootloader_common_ota_select_valid
p2351
(lp2352
(L1563399710L
L3785322319L
(lp2353
(lp2354
Vbootloader_common_ota_select_invalid
p2355
atp2356
a(L3814720849L
L3785322319L
(lp2357
(lp2358
Vbootloader_common_ota_select_crc
p2359
atp2360
a(L3360570486L
L0L
(lp2361
(lp2362
tp2363
atp2364
sI1074248092
(Vesp_rom_spiflash_erase_sector
p2365
(lp2366
(L588217598L
L0L
(lp2367
(lp2368
tp2369
a(L2258688483L
L0L
(lp2370
(lp2371
tp2372
a(L3360570486L
L0L
(lp2373
(lp2374
tp2375
a(L3212356251L
L3785322319L
(lp2376
(lp2377
Vesp_rom_spiflash_enable_write
p2378
atp2379
a(L184152988L
L0L
(lp2380
(lp2381
tp2382
a(L1423838619L
L3785322319L
(lp2383
(lp2384
Vesp_rom_spiflash_wait_idle
p2385
atp2386
a(L3333707777L
L0L
(lp2387
(lp2388
tp2389
a(L3582858798L
L3785322319L
(lp2390
(lp2391
Vesp_rom_spiflash_wait_idle
p2392
atp2393
atp2394
sI1074270868
(Vrtc_vddsdio_set_config
p2395
(lp2396
(L2761419615L
L0L
(lp2397
(lp2398
tp2399
atp2400
sI1074241176
(Vprocess_checksum
p2401
(lp2402
(L314050879L
L0L
(lp2403
(lp2404
tp2405
a(L3028481L
L0L
(lp2406
(lp2407
tp2408
a(L186886970L
L0L
(lp2409
(lp2410
tp2411
a(L2902417580L
L0L
(lp2412
(lp2413
tp2414
a(L3028481L
L0L
(lp2415
(lp2416
tp2417
a(L2192203028L
L3785322319L
(lp2418
(lp2419
Vesp_log_early_timestamp
p2420
atp2421
a(L3620624880L
L0L
(lp2422
(lp2423
tp2424
a(L3236648107L
L3785322319L
(lp2425
(lp2426
Vbootloader_flash_read
p2427
atp2428
a(L735741265L
L0L
(lp2429
(lp2430
tp2431
a(L3020204L
L0L
(lp2432
(lp2433
tp2434
a(L2480703612L
L3785322319L
(lp2435
(lp2436
Vbootloader_sha256_data
p2437
atp2438
a(L3436105237L
L0L
(lp2439
(lp2440
tp2441
a(L106L
L0L
(lp2442
(lp2443
tp2444
atp2445
sI1074236568
(Vesp_rom_uart_tx_wait_idle
p2446
(lp2447
(L2849601099L
L0L
(lp2448
(lp2449
tp2450
a(L1301079727L
L0L
(lp2451
(lp2452
tp2453
a(L597952197L
L0L
(lp2454
(lp2455
tp2456
a(L1971823332L
L0L
(lp2457
(lp2458
tp2459
a(L3055926844L
L0L
(lp2460
(lp2461
tp2462
a(L3360570486L
L0L
(lp2463
(lp2464
tp2465
a(L3694491048L
L0L
(lp2466
(lp2467
tp2468
a(L106L
L0L
(lp2469
(lp2470
tp2471
atp2472
sI1074269352
(Vbootloader_flash_update_id
p2473
(lp2474
(L3587584986L
L3785322319L
(lp2475
(lp2476
Vbootloader_read_flash_id
p2477
atp2478
atp2479
sI1074246308
(Vrtc_clk_cpu_freq_set_config
p2480
(lp2481
(L2485013130L
L3785322319L
(lp2482
(lp2483
Vrtc_clk_xtal_freq_get
p2484
atp2485
a(L2308773007L
L0L
(lp2486
(lp2487
tp2488
a(L3253451229L
L1880226080L
(lp2489
(lp2490
Vrtc_clk_cpu_freq_to_xtal
p2491
aVrtc_clk_wait_for_slow_cycle
p2492
atp2493
a(L2243645672L
L0L
(lp2494
(lp2495
tp2496
a(L4002786498L
L0L
(lp2497
(lp2498
tp2499
a(L2736411858L
L3785322319L
(lp2500
(lp2501
Vrtc_clk_cpu_freq_to_xtal
p2502
atp2503
a(L3360570486L
L0L
(lp2504
(lp2505
tp2506
a(L2755207760L
L1832448559L
(lp2507
(lp2508
Vrtc_clk_cpu_freq_to_xtal
p2509
aVrtc_clk_wait_for_slow_cycle
p2510
aVrtc_clk_bbpll_disable
p2511
atp2512
a(L3020187L
L0L
(lp2513
(lp2514
tp2515
a(L106L
L0L
(lp2516
(lp2517
tp2518
a(L2900038572L
L1880226080L
(lp2519
(lp2520
Vrtc_clk_wait_for_slow_cycle
p2521
aVrtc_clk_xtal_freq_get
p2522
atp2523
a(L106L
L0L
(lp2524
(lp2525
tp2526
a(L952301616L
L0L
(lp2527
(lp2528
tp2529
a(L83268611L
L0L
(lp2530
(lp2531
tp2532
a(L106L
L0L
(lp2533
(lp2534
tp2535
a(L82345090L
L0L
(lp2536
(lp2537
tp2538
a(L106L
L0L
(lp2539
(lp2540
tp2541
a(L2258718273L
L0L
(lp2542
(lp2543
tp2544
a(L3298883534L
L0L
(lp2545
(lp2546
tp2547
a(L3923779173L
L0L
(lp2548
(lp2549
tp2550
a(L919761335L
L3785322319L
(lp2551
(lp2552
Vrtc_clk_cpu_freq_to_pll_mhz
p2553
atp2554
a(L3683285473L
L0L
(lp2555
(lp2556
tp2557
a(L83268344L
L0L
(lp2558
(lp2559
tp2560
a(L82344823L
L0L
(lp2561
(lp2562
tp2563
a(L1569180676L
L0L
(lp2564
(lp2565
tp2566
a(L2258837488L
L0L
(lp2567
(lp2568
tp2569
a(L3689515797L
L0L
(lp2570
(lp2571
tp2572
a(L1482311963L
L0L
(lp2573
(lp2574
tp2575
a(L133411965L
L0L
(lp2576
(lp2577
tp2578
a(L3673491036L
L0L
(lp2579
(lp2580
tp2581
a(L4197990447L
L0L
(lp2582
(lp2583
tp2584
a(L903154985L
L0L
(lp2585
(lp2586
tp2587
a(L3020187L
L0L
(lp2588
(lp2589
tp2590
a(L106L
L0L
(lp2591
(lp2592
tp2593
a(L4207845382L
L3785322319L
(lp2594
(lp2595
Vesp_rom_set_cpu_ticks_per_us
p2596
atp2597
atp2598
sI1074247844
(Vesp_rom_spiflash_enable_write
p2599
(lp2600
(L3454951103L
L3785322319L
(lp2601
(lp2602
Vesp_rom_spiflash_wait_idle
p2603
atp2604
a(L3333707777L
L0L
(lp2605
(lp2606
tp2607
a(L2258688484L
L0L
(lp2608
(lp2609
tp2610
a(L99543895L
L0L
(lp2611
(lp2612
tp2613
a(L2993202392L
L0L
(lp2614
(lp2615
tp2616
a(L3672363389L
L3785322319L
(lp2617
(lp2618
Vesp_rom_spiflash_read_status
p2619
atp2620
atp2621
sI1074237352
(Vbootloader_common_get_active_otadata
p2622
(lp2623
(L3317503532L
L0L
(lp2624
(lp2625
tp2626
a(L2503049265L
L1832448559L
(lp2627
(lp2628
Vbootloader_common_ota_select_valid
p2629
aVbootloader_common_ota_select_valid
p2630
aVbootloader_common_select_otadata
p2631
atp2632
a(L735741265L
L0L
(lp2633
(lp2634
tp2635
atp2636
sI1074243496
(Vbootloader_load_image
p2637
(lp2638
(L1155870502L
L3785322319L
(lp2639
(lp2640
Vimage_load
p2641
atp2642
atp2643
sI1074268856
(Vbootloader_init_mem
p2644
(lp2645
(L1287383080L
L3785322319L
(lp2646
(lp2647
Vesp_cpu_configure_region_protection
p2648
atp2649
atp2650
sI1074269368
(Vbootloader_init_spi_flash
p2651
(lp2652
(L1156132900L
L2485746240L
(lp2653
(lp2654
Vbootloader_flash_gpio_config
p2655
aVbootloader_flash_dummy_config
p2656
aVbootloader_flash_cs_timing_config
p2657
aVbootloader_flash_unlock
p2658
atp2659
a(L582446944L
L0L
(lp2660
(lp2661
tp2662
a(L3652859485L
L0L
(lp2663
(lp2664
tp2665
a(L3201442148L
L0L
(lp2666
(lp2667
tp2668
a(L1305670861L
L3785322319L
(lp2669
(lp2670
Vesp_log_early_timestamp
p2671
atp2672
a(L2177628073L
L0L
(lp2673
(lp2674
tp2675
a(L2181322157L
L0L
(lp2676
(lp2677
tp2678
a(L2221033560L
L0L
(lp2679
(lp2680
tp2681
a(L2206256728L
L0L
(lp2682
(lp2683
tp2684
a(L703426222L
L0L
(lp2685
(lp2686
tp2687
a(L706396929L
L3785322319L
(lp2688
(lp2689
Vesp_log_early_timestamp
p2690
atp2691
a(L93674324L
L0L
(lp2692
(lp2693
tp2694
a(L3405401315L
L0L
(lp2695
(lp2696
tp2697
a(L3738746921L
L0L
(lp2698
(lp2699
tp2700
a(L460460808L
L0L
(lp2701
(lp2702
tp2703
a(L3746143366L
L0L
(lp2704
(lp2705
tp2706
a(L650365607L
L3785322319L
(lp2707
(lp2708
Vesp_log_early_timestamp
p2709
atp2710
a(L93674324L
L0L
(lp2711
(lp2712
tp2713
a(L3422553167L
L0L
(lp2714
(lp2715
tp2716
a(L1707909459L
L0L
(lp2717
(lp2718
tp2719
a(L4101522284L
L0L
(lp2720
(lp2721
tp2722
a(L246698275L
L3785322319L
(lp2723
(lp2724
Vbootloader_enable_wp
p2725
atp2726
a(L3907331784L
L0L
(lp2727
(lp2728
tp2729
atp2730
sI1074235572
(Vbootloader_flash_read_sfdp
p2731
(lp2732
(L711701400L
L0L
(lp2733
(lp2734
tp2735
a(L3305374083L
L3785322319L
(lp2736
(lp2737
V__assert_func
p2738
atp2739
a(L3704332455L
L3785322319L
(lp2740
(lp2741
Vbootloader_flash_execute_command_common
p2742
atp2743
atp2744
sI1074237620
(Vbootloader_mmap
p2745
(lp2746
(L1104127453L
L0L
(lp2747
(lp2748
tp2749
a(L2788000669L
L3785322319L
(lp2750
(lp2751
Vesp_log_early_timestamp
p2752
atp2753
a(L2867263840L
L0L
(lp2754
(lp2755
tp2756
a(L3729184599L
L0L
(lp2757
(lp2758
tp2759
a(L2798949580L
L3785322319L
(lp2760
(lp2761
Vesp_log_early_timestamp
p2762
atp2763
a(L2258688482L
L0L
(lp2764
(lp2765
tp2766
a(L3360570486L
L0L
(lp2767
(lp2768
tp2769
a(L953247514L
L0L
(lp2770
(lp2771
tp2772
a(L2817731493L
L0L
(lp2773
(lp2774
tp2775
a(L605750710L
L3785322319L
(lp2776
(lp2777
Vesp_log_early_timestamp
p2778
atp2779
a(L528652822L
L3785322319L
(lp2780
(lp2781
Vesp_log_early_timestamp
p2782
atp2783
a(L1908558056L
L0L
(lp2784
(lp2785
tp2786
atp2787
sI1074267836
(Vwdt_reset_info_dump
p2788
(lp2789
(L4037458708L
L0L
(lp2790
(lp2791
tp2792
a(L522353410L
L0L
(lp2793
(lp2794
tp2795
a(L217258670L
L0L
(lp2796
(lp2797
tp2798
a(L1103285333L
L0L
(lp2799
(lp2800
tp2801
a(L4222762845L
L3785322319L
(lp2802
(lp2803
Vesp_log_early_timestamp
p2804
atp2805
a(L2967992533L
L0L
(lp2806
(lp2807
tp2808
a(L1493818067L
L0L
(lp2809
(lp2810
tp2811
a(L4025433257L
L3785322319L
(lp2812
(lp2813
Vesp_log_early_timestamp
p2814
atp2815
atp2816
sI1074235824
(Vbootloader_flash_cs_timing_config
p2817
(lp2818
(L1940014330L
L0L
(lp2819
(lp2820
tp2821
atp2822
sI1074245552
(Vrtc_clk_8m_enabled
p2823
(lp2824
(L4226275457L
L0L
(lp2825
(lp2826
tp2827
atp2828
sI1074243512
(Vbootloader_load_image_no_verify
p2829
(lp2830
(L3412781509L
L3785322319L
(lp2831
(lp2832
Vimage_load
p2833
atp2834
atp2835
sI1074238136
(Vbootloader_flash_erase_sector
p2836
(lp2837
(L4129137686L
L1880226080L
(lp2838
(lp2839
Vesp_rom_spiflash_erase_sector
p2840
aVspi_to_esp_err
p2841
atp2842
atp2843
sI1074237880
(Vbootloader_flash_read
p2844
(lp2845
(L3022618172L
L0L
(lp2846
(lp2847
tp2848
a(L1550306930L
L3785322319L
(lp2849
(lp2850
Vesp_log_early_timestamp
p2851
atp2852
a(L2780906736L
L0L
(lp2853
(lp2854
tp2855
a(L1351513776L
L0L
(lp2856
(lp2857
tp2858
a(L1486740491L
L0L
(lp2859
(lp2860
tp2861
a(L28820722L
L3785322319L
(lp2862
(lp2863
Vesp_log_early_timestamp
p2864
atp2865
a(L3283691850L
L0L
(lp2866
(lp2867
tp2868
a(L3537733967L
L3785322319L
(lp2869
(lp2870
Vesp_log_early_timestamp
p2871
atp2872
a(L3020204L
L0L
(lp2873
(lp2874
tp2875
a(L384130671L
L0L
(lp2876
(lp2877
tp2878
a(L97422L
L0L
(lp2879
(lp2880
tp2881
a(L3560938121L
L0L
(lp2882
(lp2883
tp2884
a(L1066422594L
L0L
(lp2885
(lp2886
tp2887
a(L1503955840L
L3785322319L
(lp2888
(lp2889
V__assert_func
p2890
atp2891
a(L2942240672L
L0L
(lp2892
(lp2893
tp2894
a(L2221541202L
L0L
(lp2895
(lp2896
tp2897
a(L3199264617L
L1880226080L
(lp2898
(lp2899
Vesp_rom_spiflash_read
p2900
aVspi_to_esp_err
p2901
atp2902
atp2903
sI1074245304
(Vrtc_clk_bbpll_disable
p2904
(lp2905
(L220972827L
L0L
(lp2906
(lp2907
tp2908
a(L2472207241L
L0L
(lp2909
(lp2910
tp2911
a(L3360570486L
L0L
(lp2912
(lp2913
tp2914
atp2915
sI1074238404
(Vbootloader_random_disable
p2916
(lp2917
(L2955563290L
L0L
(lp2918
(lp2919
tp2920
atp2921
sI1074240708
(Vbootloader_debug_buffer
p2922
(lp2923
(L2100504542L
L0L
(lp2924
(lp2925
tp2926
atp2927
sI1074236864
(Vefuse_hal_get_minor_chip_version
p2928
(lp2929
(L2721608854L
L0L
(lp2930
(lp2931
tp2932
atp2933
sI1074237120
(Vbootloader_common_check_chip_validity
p2934
(lp2935
(L2080115690L
L0L
(lp2936
(lp2937
tp2938
a(L3623174075L
L3785322319L
(lp2939
(lp2940
Vesp_log_early_timestamp
p2941
atp2942
a(L1299867982L
L0L
(lp2943
(lp2944
tp2945
a(L3360570486L
L0L
(lp2946
(lp2947
tp2948
a(L521940037L
L3785322319L
(lp2949
(lp2950
Vefuse_hal_chip_revision
p2951
atp2952
a(L1084061528L
L0L
(lp2953
(lp2954
tp2955
a(L3429713985L
L3785322319L
(lp2956
(lp2957
Vesp_log_early_timestamp
p2958
atp2959
a(L3028464L
L0L
(lp2960
(lp2961
tp2962
a(L1797954754L
L0L
(lp2963
(lp2964
tp2965
a(L106L
L0L
(lp2966
(lp2967
tp2968
a(L3027019L
L0L
(lp2969
(lp2970
tp2971
a(L106L
L0L
(lp2972
(lp2973
tp2974
a(L1228609462L
L3785322319L
(lp2975
(lp2976
Vesp_log_early_timestamp
p2977
atp2978
atp2979
sI1074268864
(Vbootloader_random_enable
p2980
(lp2981
(L3678846225L
L0L
(lp2982
(lp2983
tp2984
atp2985
sI1074238156
(Vbootloader_flash_write
p2986
(lp2987
(L3770380603L
L0L
(lp2988
(lp2989
tp2990
a(L11206654L
L3785322319L
(lp2991
(lp2992
Vesp_log_early_timestamp
p2993
atp2994
a(L3833270346L
L0L
(lp2995
(lp2996
tp2997
a(L1610445075L
L0L
(lp2998
(lp2999
tp3000
a(L735741265L
L0L
(lp3001
(lp3002
tp3003
a(L3291333414L
L0L
(lp3004
(lp3005
tp3006
a(L4133105311L
L3785322319L
(lp3007
(lp3008
Vesp_log_early_timestamp
p3009
atp3010
a(L3283691850L
L0L
(lp3011
(lp3012
tp3013
a(L3153727887L
L3785322319L
(lp3014
(lp3015
Vesp_log_early_timestamp
p3016
atp3017
a(L3212356251L
L3785322319L
(lp3018
(lp3019
Vbootloader_flash_unlock
p3020
atp3021
a(L1799218633L
L0L
(lp3022
(lp3023
tp3024
a(L94425498L
L3785322319L
(lp3025
(lp3026
Vesp_rom_spiflash_write_encrypted
p3027
atp3028
a(L2927190544L
L3785322319L
(lp3029
(lp3030
Vspi_to_esp_err
p3031
atp3032
a(L2927190544L
L3785322319L
(lp3033
(lp3034
Vesp_rom_spiflash_write
p3035
atp3036
atp3037
sI1074240716
(Vbootloader_sha256_start
p3038
(lp3039
(L3193196334L
L0L
(lp3040
(lp3041
tp3042
atp3043
sI1074245836
(Vrtc_clk_fast_src_get
p3044
(lp3045
(L420109217L
L0L
(lp3046
(lp3047
tp3048
atp3049
sI1074243016
(Vimage_load
p3050
(lp3051
(L3048705773L
L0L
(lp3052
(lp3053
tp3054
a(L3463713141L
L0L
(lp3055
(lp3056
tp3057
a(L3309803581L
L0L
(lp3058
(lp3059
tp3060
a(L256049682L
L0L
(lp3061
(lp3062
tp3063
a(L1935188817L
L0L
(lp3064
(lp3065
tp3066
a(L3028481L
L0L
(lp3067
(lp3068
tp3069
a(L3021749L
L0L
(lp3070
(lp3071
tp3072
a(L106L
L0L
(lp3073
(lp3074
tp3075
a(L585264737L
L0L
(lp3076
(lp3077
tp3078
a(L1145291904L
L3785322319L
(lp3079
(lp3080
Vprocess_image_header
p3081
atp3082
a(L823859500L
L0L
(lp3083
(lp3084
tp3085
a(L3061291474L
L0L
(lp3086
(lp3087
tp3088
a(L4106474008L
L3785322319L
(lp3089
(lp3090
Vprocess_segments
p3091
atp3092
a(L3868840998L
L0L
(lp3093
(lp3094
tp3095
a(L232008881L
L0L
(lp3096
(lp3097
tp3098
a(L1827898452L
L3785322319L
(lp3099
(lp3100
Vprocess_checksum
p3101
atp3102
a(L2214715179L
L3785322319L
(lp3103
(lp3104
Vprocess_appended_hash_and_sig
p3105
atp3106
a(L3028481L
L0L
(lp3107
(lp3108
tp3109
a(L2902417580L
L0L
(lp3110
(lp3111
tp3112
a(L3285560995L
L3785322319L
(lp3113
(lp3114
Vbootloader_sha256_finish
p3115
atp3116
a(L3946560000L
L0L
(lp3117
(lp3118
tp3119
a(L93674324L
L0L
(lp3120
(lp3121
tp3122
a(L1561998933L
L0L
(lp3123
(lp3124
tp3125
a(L772115669L
L0L
(lp3126
(lp3127
tp3128
a(L1179424413L
L0L
(lp3129
(lp3130
tp3131
a(L3928150917L
L0L
(lp3132
(lp3133
tp3134
a(L106L
L0L
(lp3135
(lp3136
tp3137
a(L3871473710L
L0L
(lp3138
(lp3139
tp3140
a(L3884726427L
L0L
(lp3141
(lp3142
tp3143
a(L106L
L0L
(lp3144
(lp3145
tp3146
a(L3020187L
L0L
(lp3147
(lp3148
tp3149
a(L2385177114L
L3785322319L
(lp3150
(lp3151
Vesp_log_early_timestamp
p3152
atp3153
a(L2868044067L
L0L
(lp3154
(lp3155
tp3156
a(L1179764900L
L0L
(lp3157
(lp3158
tp3159
a(L2332746046L
L3785322319L
(lp3160
(lp3161
Vbootloader_sha256_finish
p3162
atp3163
a(L3547589573L
L0L
(lp3164
(lp3165
tp3166
a(L3020204L
L0L
(lp3167
(lp3168
tp3169
a(L3741020883L
L0L
(lp3170
(lp3171
tp3172
a(L106L
L0L
(lp3173
(lp3174
tp3175
a(L3460866806L
L1880226080L
(lp3176
(lp3177
Vbootloader_sha256_finish
p3178
aVbootloader_debug_buffer
p3179
atp3180
a(L2430955457L
L1880226080L
(lp3181
(lp3182
Vesp_log_early_timestamp
p3183
aVbootloader_debug_buffer
p3184
atp3185
a(L3741653406L
L3785322319L
(lp3186
(lp3187
Vshould_load
p3188
atp3189
a(L2764257181L
L0L
(lp3190
(lp3191
tp3192
a(L3338774213L
L0L
(lp3193
(lp3194
tp3195
a(L3464541874L
L0L
(lp3196
(lp3197
tp3198
a(L3349572949L
L0L
(lp3199
(lp3200
tp3201
a(L2192292519L
L0L
(lp3202
(lp3203
tp3204
a(L106L
L0L
(lp3205
(lp3206
tp3207
a(L26615924L
L0L
(lp3208
(lp3209
tp3210
a(L1299866312L
L0L
(lp3211
(lp3212
tp3213
a(L3010020263L
L0L
(lp3214
(lp3215
tp3216
atp3217
sI1074243528
(Vesp_partition_table_verify
p3218
(lp3219
(L3052823174L
L0L
(lp3220
(lp3221
tp3222
a(L2813001321L
L0L
(lp3223
(lp3224
tp3225
a(L1184829782L
L0L
(lp3226
(lp3227
tp3228
a(L3020204L
L0L
(lp3229
(lp3230
tp3231
a(L376090326L
L3785322319L
(lp3232
(lp3233
Vesp_log_early_timestamp
p3234
atp3235
a(L1235012963L
L0L
(lp3236
(lp3237
tp3238
a(L3190337587L
L0L
(lp3239
(lp3240
tp3241
a(L2069928857L
L0L
(lp3242
(lp3243
tp3244
a(L2902417580L
L0L
(lp3245
(lp3246
tp3247
a(L1588753644L
L3785322319L
(lp3248
(lp3249
Vesp_log_early_timestamp
p3250
atp3251
a(L1746563721L
L0L
(lp3252
(lp3253
tp3254
a(L3020204L
L0L
(lp3255
(lp3256
tp3257
a(L3020204L
L0L
(lp3258
(lp3259
tp3260
a(L4207670090L
L3785322319L
(lp3261
(lp3262
Vesp_log_early_timestamp
p3263
atp3264
a(L3833270346L
L0L
(lp3265
(lp3266
tp3267
a(L1235012932L
L0L
(lp3268
(lp3269
tp3270
a(L41212767L
L0L
(lp3271
(lp3272
tp3273
a(L3020204L
L0L
(lp3274
(lp3275
tp3276
a(L1588753396L
L3785322319L
(lp3277
(lp3278
Vesp_log_early_timestamp
p3279
atp3280
a(L1305407469L
L0L
(lp3281
(lp3282
tp3283
a(L1167861556L
L0L
(lp3284
(lp3285
tp3286
a(L818997085L
L0L
(lp3287
(lp3288
tp3289
a(L3360570486L
L0L
(lp3290
(lp3291
tp3292
a(L3020204L
L0L
(lp3293
(lp3294
tp3295
a(L3407564673L
L3785322319L
(lp3296
(lp3297
Vesp_log_early_timestamp
p3298
atp3299
atp3300
sI1074245576
(Vrtc_clk_8md256_enabled
p3301
(lp3302
(L3381803586L
L0L
(lp3303
(lp3304
tp3305
atp3306
sI1074248392
(Vesp_rom_spiflash_write_encrypted
p3307
(lp3308
(L1944247967L
L0L
(lp3309
(lp3310
tp3311
a(L1838141447L
L0L
(lp3312
(lp3313
tp3314
a(L97689L
L0L
(lp3315
(lp3316
tp3317
a(L3061232074L
L0L
(lp3318
(lp3319
tp3320
a(L493601429L
L0L
(lp3321
(lp3322
tp3323
a(L1309309703L
L3785322319L
(lp3324
(lp3325
Vesp_rom_spiflash_write
p3326
atp3327
a(L3503659034L
L0L
(lp3328
(lp3329
tp3330
a(L735741265L
L0L
(lp3331
(lp3332
tp3333
atp3334
sI1074269656
(Vbootloader_clear_bss_section
p3335
(lp3336
(L1035474915L
L0L
(lp3337
(lp3338
tp3339
atp3340
sI1074243796
(Vwdt_hal_init
p3341
(lp3342
(L3552056125L
L0L
(lp3343
(lp3344
tp3345
a(L106L
L0L
(lp3346
(lp3347
tp3348
a(L2104869697L
L0L
(lp3349
(lp3350
tp3351
a(L3076988543L
L0L
(lp3352
(lp3353
tp3354
a(L3430907672L
L0L
(lp3355
(lp3356
tp3357
a(L3028464L
L0L
(lp3358
(lp3359
tp3360
a(L826452606L
L0L
(lp3361
(lp3362
tp3363
a(L186837946L
L0L
(lp3364
(lp3365
tp3366
a(L3868480017L
L0L
(lp3367
(lp3368
tp3369
a(L3360570486L
L0L
(lp3370
(lp3371
tp3372
atp3373
sI1074238932
(Vcache_ll_l1_enable_bus
p3374
(lp3375
(L1408514293L
L0L
(lp3376
(lp3377
tp3378
atp3379
sI1074270940
(Vmpu_hal_set_region_access
p3380
(lp3381
(L3538356822L
L0L
(lp3382
(lp3383
tp3384
a(L93674324L
L0L
(lp3385
(lp3386
tp3387
a(L2910371777L
L0L
(lp3388
(lp3389
tp3390
a(L3472092938L
L0L
(lp3391
(lp3392
tp3393
a(L3020187L
L0L
(lp3394
(lp3395
tp3396
a(L3360570486L
L0L
(lp3397
(lp3398
tp3399
a(L2258718273L
L0L
(lp3400
(lp3401
tp3402
a(L3446648619L
L0L
(lp3403
(lp3404
tp3405
a(L3739532189L
L0L
(lp3406
(lp3407
tp3408
a(L1300789895L
L0L
(lp3409
(lp3410
tp3411
atp3412
sI1074236880
(Vesp_dport_access_reg_read
p3413
(lp3414
(L1099794772L
L0L
(lp3415
(lp3416
tp3417
atp3418
sI1074237392
(Vbootloader_common_reset_rtc_retain_mem
p3419
(lp3420
(L3806924733L
L0L
(lp3421
(lp3422
tp3423
atp3424
sI1074268624
(Vbootloader_clock_configure
p3425
(lp3426
(L2559598596L
L1880226080L
(lp3427
(lp3428
Vesp_rom_uart_tx_wait_idle
p3429
aVefuse_hal_chip_revision
p3430
atp3431
a(L1714060431L
L0L
(lp3432
(lp3433
tp3434
a(L883406775L
L0L
(lp3435
(lp3436
tp3437
a(L106L
L0L
(lp3438
(lp3439
tp3440
a(L3646321382L
L1832448559L
(lp3441
(lp3442
Vrtc_clk_slow_src_get
p3443
aVrtc_clk_fast_src_get
p3444
aVrtc_clk_init
p3445
atp3446
a(L3297562552L
L0L
(lp3447
(lp3448
tp3449
a(L1624159269L
L3785322319L
(lp3450
(lp3451
Vrtc_clk_apb_freq_get
p3452
atp3453
a(L106L
L0L
(lp3454
(lp3455
tp3456
a(L106L
L0L
(lp3457
(lp3458
tp3459
atp3460
sI1074236892
(Vis_xmc_chip_strict
p3461
(lp3462
(L1286841609L
L0L
(lp3463
(lp3464
tp3465
a(L2234016759L
L0L
(lp3466
(lp3467
tp3468
a(L1069027148L
L0L
(lp3469
(lp3470
tp3471
a(L3021749L
L0L
(lp3472
(lp3473
tp3474
a(L1900148749L
L0L
(lp3475
(lp3476
tp3477
a(L1936875721L
L0L
(lp3478
(lp3479
tp3480
a(L3356166509L
L0L
(lp3481
(lp3482
tp3483
a(L1937769451L
L0L
(lp3484
(lp3485
tp3486
a(L2137658907L
L0L
(lp3487
(lp3488
tp3489
a(L4265949734L
L0L
(lp3490
(lp3491
tp3492
a(L3360570486L
L0L
(lp3493
(lp3494
tp3495
atp3496
sI1074245852
(Vrtc_clk_xtal_freq_get
p3497
(lp3498
(L1388894115L
L0L
(lp3499
(lp3500
tp3501
a(L2847936993L
L0L
(lp3502
(lp3503
tp3504
a(L772035589L
L0L
(lp3505
(lp3506
tp3507
a(L3360570486L
L0L
(lp3508
(lp3509
tp3510
atp3511
sI1074247900
(Vesp_rom_spiflash_program_page_internal
p3512
(lp3513
(L2569069283L
L0L
(lp3514
(lp3515
tp3516
a(L2258688483L
L0L
(lp3517
(lp3518
tp3519
a(L3360570486L
L0L
(lp3520
(lp3521
tp3522
a(L657899087L
L0L
(lp3523
(lp3524
tp3525
a(L4235661475L
L3785322319L
(lp3526
(lp3527
Vesp_rom_spiflash_wait_idle
p3528
atp3529
a(L1299866312L
L0L
(lp3530
(lp3531
tp3532
a(L3212356251L
L3785322319L
(lp3533
(lp3534
Vesp_rom_spiflash_enable_write
p3535
atp3536
a(L1690751792L
L0L
(lp3537
(lp3538
tp3539
a(L1038415594L
L0L
(lp3540
(lp3541
tp3542
a(L2953702749L
L0L
(lp3543
(lp3544
tp3545
a(L2989032L
L0L
(lp3546
(lp3547
tp3548
a(L1965622133L
L0L
(lp3549
(lp3550
tp3551
a(L360176665L
L0L
(lp3552
(lp3553
tp3554
a(L1958113242L
L0L
(lp3555
(lp3556
tp3557
a(L106L
L0L
(lp3558
(lp3559
tp3560
a(L3112950080L
L0L
(lp3561
(lp3562
tp3563
a(L1868606439L
L0L
(lp3564
(lp3565
tp3566
a(L1008983249L
L0L
(lp3567
(lp3568
tp3569
a(L1933954923L
L0L
(lp3570
(lp3571
tp3572
a(L1147866918L
L0L
(lp3573
(lp3574
tp3575
a(L3871602522L
L0L
(lp3576
(lp3577
tp3578
atp3579
sI1074244824
(Vwdt_hal_write_protect_enable
p3580
(lp3581
(L387778158L
L0L
(lp3582
(lp3583
tp3584
a(L4195472003L
L0L
(lp3585
(lp3586
tp3587
a(L3360570486L
L0L
(lp3588
(lp3589
tp3590
a(L802523425L
L0L
(lp3591
(lp3592
tp3593
atp3594
sI1074237412
(Vbootloader_common_get_rtc_retain_mem_partition
p3595
(lp3596
(L1303677794L
L3785322319L
(lp3597
(lp3598
Vis_retain_mem_valid
p3599
atp3600
atp3601
sI1074242276
(Vprocess_segments
p3602
(lp3603
(L1326203493L
L0L
(lp3604
(lp3605
tp3606
a(L1640778736L
L0L
(lp3607
(lp3608
tp3609
a(L3782401745L
L0L
(lp3610
(lp3611
tp3612
a(L106L
L0L
(lp3613
(lp3614
tp3615
a(L3028481L
L0L
(lp3616
(lp3617
tp3618
a(L1229470793L
L3785322319L
(lp3619
(lp3620
Vesp_log_early_timestamp
p3621
atp3622
a(L761135359L
L3785322319L
(lp3623
(lp3624
Vbootloader_flash_read
p3625
atp3626
a(L4257869916L
L3785322319L
(lp3627
(lp3628
Vesp_log_early_timestamp
p3629
atp3630
a(L3871473710L
L0L
(lp3631
(lp3632
tp3633
a(L219417435L
L0L
(lp3634
(lp3635
tp3636
a(L616767314L
L3785322319L
(lp3637
(lp3638
Vbootloader_sha256_data
p3639
atp3640
a(L707062298L
L0L
(lp3641
(lp3642
tp3643
a(L2258837437L
L0L
(lp3644
(lp3645
tp3646
a(L1764156528L
L0L
(lp3647
(lp3648
tp3649
a(L3028481L
L0L
(lp3650
(lp3651
tp3652
a(L4097982101L
L3785322319L
(lp3653
(lp3654
Vesp_log_early_timestamp
p3655
atp3656
a(L568254959L
L0L
(lp3657
(lp3658
tp3659
a(L1733725079L
L0L
(lp3660
(lp3661
tp3662
a(L3802069243L
L0L
(lp3663
(lp3664
tp3665
a(L2897440537L
L0L
(lp3666
(lp3667
tp3668
a(L2258867228L
L0L
(lp3669
(lp3670
tp3671
a(L2277415887L
L0L
(lp3672
(lp3673
tp3674
a(L3177376558L
L0L
(lp3675
(lp3676
tp3677
a(L3028481L
L0L
(lp3678
(lp3679
tp3680
a(L3302796095L
L3785322319L
(lp3681
(lp3682
Vesp_log_early_timestamp
p3683
atp3684
a(L2640606608L
L0L
(lp3685
(lp3686
tp3687
a(L3028481L
L0L
(lp3688
(lp3689
tp3690
a(L1304081894L
L3785322319L
(lp3691
(lp3692
Vesp_log_early_timestamp
p3693
atp3694
a(L3123758948L
L0L
(lp3695
(lp3696
tp3697
a(L2902417580L
L0L
(lp3698
(lp3699
tp3700
a(L2902417580L
L0L
(lp3701
(lp3702
tp3703
a(L1229952296L
L3785322319L
(lp3704
(lp3705
Vverify_load_addresses
p3706
atp3707
a(L3783935185L
L3785322319L
(lp3708
(lp3709
Vbootloader_mmap_get_free_pages
p3710
atp3711
a(L3028481L
L0L
(lp3712
(lp3713
tp3714
a(L224879076L
L0L
(lp3715
(lp3716
tp3717
a(L142590671L
L0L
(lp3718
(lp3719
tp3720
a(L3028481L
L0L
(lp3721
(lp3722
tp3723
a(L94425498L
L3785322319L
(lp3724
(lp3725
Vesp_log_early_timestamp
p3726
atp3727
a(L2612053240L
L0L
(lp3728
(lp3729
tp3730
a(L4085121624L
L3785322319L
(lp3731
(lp3732
Vshould_load
p3733
atp3734
a(L3028481L
L0L
(lp3735
(lp3736
tp3737
a(L3828312210L
L3785322319L
(lp3738
(lp3739
Vesp_log_early_timestamp
p3740
atp3741
a(L106L
L0L
(lp3742
(lp3743
tp3744
a(L3815630522L
L0L
(lp3745
(lp3746
tp3747
a(L1373550722L
L3785322319L
(lp3748
(lp3749
Vesp_log_early_timestamp
p3750
atp3751
a(L2629678223L
L0L
(lp3752
(lp3753
tp3754
a(L2684012095L
L0L
(lp3755
(lp3756
tp3757
a(L3357777304L
L3785322319L
(lp3758
(lp3759
Vbootloader_mmap
p3760
atp3761
a(L1165087397L
L3785322319L
(lp3762
(lp3763
Vesp_log_early_timestamp
p3764
atp3765
a(L1698460186L
L0L
(lp3766
(lp3767
tp3768
a(L1712769117L
L0L
(lp3769
(lp3770
tp3771
a(L4192165162L
L0L
(lp3772
(lp3773
tp3774
a(L1595421496L
L3785322319L
(lp3775
(lp3776
Vbootloader_munmap
p3777
atp3778
a(L2757579158L
L0L
(lp3779
(lp3780
tp3781
a(L2356270618L
L3785322319L
(lp3782
(lp3783
Vbootloader_fill_random
p3784
atp3785
a(L3277879431L
L0L
(lp3786
(lp3787
tp3788
a(L3281573515L
L0L
(lp3789
(lp3790
tp3791
a(L3450268858L
L0L
(lp3792
(lp3793
tp3794
a(L3021749L
L0L
(lp3795
(lp3796
tp3797
a(L322434465L
L0L
(lp3798
(lp3799
tp3800
a(L2494883302L
L0L
(lp3801
(lp3802
tp3803
a(L2902417580L
L0L
(lp3804
(lp3805
tp3806
a(L4132302272L
L0L
(lp3807
(lp3808
tp3809
a(L22854698L
L0L
(lp3810
(lp3811
tp3812
a(L1426980959L
L0L
(lp3813
(lp3814
tp3815
a(L1841482652L
L0L
(lp3816
(lp3817
tp3818
a(L653501462L
L0L
(lp3819
(lp3820
tp3821
a(L3310548426L
L3785322319L
(lp3822
(lp3823
Vbootloader_sha256_data
p3824
atp3825
a(L90548756L
L0L
(lp3826
(lp3827
tp3828
a(L708495868L
L0L
(lp3829
(lp3830
tp3831
a(L2364005371L
L0L
(lp3832
(lp3833
tp3834
atp3835
sI1074240736
(Vbootloader_sha256_data
p3836
(lp3837
(L4066096136L
L0L
(lp3838
(lp3839
tp3840
a(L3455000336L
L0L
(lp3841
(lp3842
tp3843
a(L591145840L
L3785322319L
(lp3844
(lp3845
V__assert_func
p3846
atp3847
a(L498498478L
L0L
(lp3848
(lp3849
tp3850
a(L2216937116L
L0L
(lp3851
(lp3852
tp3853
a(L2910371777L
L0L
(lp3854
(lp3855
tp3856
a(L3360570486L
L0L
(lp3857
(lp3858
tp3859
a(L294747366L
L0L
(lp3860
(lp3861
tp3862
a(L248495140L
L0L
(lp3863
(lp3864
tp3865
a(L913553377L
L0L
(lp3866
(lp3867
tp3868
a(L292171466L
L0L
(lp3869
(lp3870
tp3871
a(L3361374984L
L0L
(lp3872
(lp3873
tp3874
a(L1394964493L
L0L
(lp3875
(lp3876
tp3877
a(L2469736643L
L0L
(lp3878
(lp3879
tp3880
a(L702738259L
L0L
(lp3881
(lp3882
tp3883
a(L3745004802L
L0L
(lp3884
(lp3885
tp3886
atp3887
sI1074245600
(Vrtc_clk_slow_src_set
p3888
(lp3889
(L1617926467L
L0L
(lp3890
(lp3891
tp3892
a(L3020187L
L0L
(lp3893
(lp3894
tp3895
a(L3028481L
L0L
(lp3896
(lp3897
tp3898
a(L487821223L
L0L
(lp3899
(lp3900
tp3901
a(L224388888L
L0L
(lp3902
(lp3903
tp3904
a(L1851908495L
L0L
(lp3905
(lp3906
tp3907
a(L382170874L
L0L
(lp3908
(lp3909
tp3910
a(L3138544334L
L0L
(lp3911
(lp3912
tp3913
a(L94425498L
L3785322319L
(lp3914
(lp3915
Vabort
p3916
atp3917
atp3918
sI1074269920
(Vbootloader_enable_random
p3919
(lp3920
(L1236070240L
L1880226080L
(lp3921
(lp3922
Vesp_log_early_timestamp
p3923
aVbootloader_random_enable
p3924
atp3925
atp3926
sI1074239980
(Vbootloader_utility_get_selected_boot_partition
p3927
(lp3928
(L2938832293L
L0L
(lp3929
(lp3930
tp3931
a(L846235698L
L0L
(lp3932
(lp3933
tp3934
a(L3435367073L
L3785322319L
(lp3935
(lp3936
Vesp_log_early_timestamp
p3937
atp3938
a(L194246498L
L0L
(lp3939
(lp3940
tp3941
a(L3360570486L
L0L
(lp3942
(lp3943
tp3944
a(L3118387733L
L3785322319L
(lp3945
(lp3946
Vbootloader_mmap
p3947
atp3948
a(L160570926L
L3785322319L
(lp3949
(lp3950
Vesp_log_early_timestamp
p3951
atp3952
a(L1318350665L
L1880226080L
(lp3953
(lp3954
Vbootloader_munmap
p3955
aVbootloader_common_ota_select_invalid
p3956
atp3957
a(L2911028409L
L0L
(lp3958
(lp3959
tp3960
a(L726754926L
L3785322319L
(lp3961
(lp3962
Vbootloader_common_get_active_otadata
p3963
atp3964
a(L106L
L0L
(lp3965
(lp3966
tp3967
a(L4179097382L
L0L
(lp3968
(lp3969
tp3970
a(L788494392L
L3785322319L
(lp3971
(lp3972
Vbootloader_common_ota_select_invalid
p3973
atp3974
a(L2699769053L
L0L
(lp3975
(lp3976
tp3977
a(L1406565968L
L3785322319L
(lp3978
(lp3979
Vesp_log_early_timestamp
p3980
atp3981
a(L3833270346L
L0L
(lp3982
(lp3983
tp3984
a(L1641201884L
L0L
(lp3985
(lp3986
tp3987
a(L4068176187L
L3785322319L
(lp3988
(lp3989
Vesp_log_early_timestamp
p3990
atp3991
a(L2302032704L
L0L
(lp3992
(lp3993
tp3994
a(L1173788779L
L3785322319L
(lp3995
(lp3996
Vbootloader_common_ota_select_crc
p3997
atp3998
a(L4188515782L
L0L
(lp3999
(lp4000
tp4001
a(L1324800084L
L3785322319L
(lp4002
(lp4003
Vbootloader_common_ota_select_crc
p4004
atp4005
a(L1299866312L
L0L
(lp4006
(lp4007
tp4008
a(L1213214978L
L0L
(lp4009
(lp4010
tp4011
a(L2799283305L
L3785322319L
(lp4012
(lp4013
Vesp_log_early_timestamp
p4014
atp4015
a(L692119933L
L3785322319L
(lp4016
(lp4017
Vesp_log_early_timestamp
p4018
atp4019
atp4020
sI1074236652
(Vesp_rom_uart_set_clock_baudrate
p4021
(lp4022
(L2319441726L
L0L
(lp4023
(lp4024
tp4025
a(L2334991263L
L0L
(lp4026
(lp4027
tp4028
a(L2805931295L
L0L
(lp4029
(lp4030
tp4031
a(L1916726935L
L0L
(lp4032
(lp4033
tp4034
atp4035
sI1074246124
(Vrtc_clk_xtal_freq_update
p4036
(lp4037
(L3877747578L
L0L
(lp4038
(lp4039
tp4040
a(L3509357017L
L0L
(lp4041
(lp4042
tp4043
a(L2266180931L
L0L
(lp4044
(lp4045
tp4046
atp4047
sI1074235624
(Vbootloader_read_flash_id
p4048
(lp4049
(L549578328L
L3785322319L
(lp4050
(lp4051
Vbootloader_execute_flash_command
p4052
atp4053
atp4054
sI1074236404
(Vbootloader_flash_dummy_config
p4055
(lp4056
(L262000646L
L0L
(lp4057
(lp4058
tp4059
a(L2761717557L
L0L
(lp4060
(lp4061
tp4062
a(L1849044936L
L0L
(lp4063
(lp4064
tp4065
a(L708753936L
L0L
(lp4066
(lp4067
tp4068
a(L1010450057L
L0L
(lp4069
(lp4070
tp4071
a(L3020204L
L0L
(lp4072
(lp4073
tp4074
a(L1610443405L
L0L
(lp4075
(lp4076
tp4077
a(L4032120524L
L0L
(lp4078
(lp4079
tp4080
a(L2336993863L
L0L
(lp4081
(lp4082
tp4083
a(L1298875775L
L0L
(lp4084
(lp4085
tp4086
a(L3880393601L
L0L
(lp4087
(lp4088
tp4089
a(L3328946209L
L0L
(lp4090
(lp4091
tp4092
a(L1610443436L
L0L
(lp4093
(lp4094
tp4095
atp4096
sI1074237428
(Vbootloader_common_update_rtc_retain_mem
p4097
(lp4098
(L2958000229L
L0L
(lp4099
(lp4100
tp4101
a(L3212356251L
L3785322319L
(lp4102
(lp4103
Vis_retain_mem_valid
p4104
atp4105
a(L94425498L
L3785322319L
(lp4106
(lp4107
Vbootloader_common_reset_rtc_retain_mem
p4108
atp4109
a(L1053102096L
L0L
(lp4110
(lp4111
tp4112
a(L4141035440L
L0L
(lp4113
(lp4114
tp4115
a(L2902417580L
L0L
(lp4116
(lp4117
tp4118
a(L3281509028L
L0L
(lp4119
(lp4120
tp4121
a(L3738038928L
L3785322319L
(lp4122
(lp4123
Vupdate_rtc_retain_mem_crc
p4124
atp4125
atp4126
sI1074244852
(Vwdt_hal_enable
p4127
(lp4128
(L2299130915L
L0L
(lp4129
(lp4130
tp4131
a(L165794138L
L0L
(lp4132
(lp4133
tp4134
a(L3360570486L
L0L
(lp4135
(lp4136
tp4137
a(L2847657174L
L0L
(lp4138
(lp4139
tp4140
atp4141
sI1074245364
(Vrtc_clk_32k_enable
p4142
(lp4143
(L753387299L
L0L
(lp4144
(lp4145
tp4146
a(L3776007933L
L3785322319L
(lp4147
(lp4148
Vrtc_clk_32k_enable_common
p4149
atp4150
a(L3496950L
L0L
(lp4151
(lp4152
tp4153
a(L3034679232L
L0L
(lp4154
(lp4155
tp4156
atp4157
sI1074269948
(Vbootloader_print_banner
p4158
(lp4159
(L2664228546L
L1832448559L
(lp4160
(lp4161
Vesp_log_early_timestamp
p4162
aVesp_log_early_timestamp
p4163
aVesp_log_early_timestamp
p4164
atp4165
atp4166
sI1074270716
(Vrtc_vddsdio_get_config
p4167
(lp4168
(L1816791340L
L0L
(lp4169
(lp4170
tp4171
a(L1750635626L
L0L
(lp4172
(lp4173
tp4174
a(L3193418487L
L0L
(lp4175
(lp4176
tp4177
a(L1456856705L
L0L
(lp4178
(lp4179
tp4180
a(L115635292L
L0L
(lp4181
(lp4182
tp4183
a(L896053863L
L0L
(lp4184
(lp4185
tp4186
a(L1306330959L
L0L
(lp4187
(lp4188
tp4189
a(L2332659952L
L0L
(lp4190
(lp4191
tp4192
atp4193
sI1074269680
(Vbootloader_read_bootloader_header
p4194
(lp4195
(L1999135233L
L3785322319L
(lp4196
(lp4197
Vbootloader_flash_read
p4198
atp4199
a(L63714649L
L3785322319L
(lp4200
(lp4201
Vesp_log_early_timestamp
p4202
atp4203
a(L735741265L
L0L
(lp4204
(lp4205
tp4206
atp4207
sI1074241532
(Vbootloader_util_regions_overlap
p4208
(lp4209
(L2762640130L
L0L
(lp4210
(lp4211
tp4212
a(L2834975998L
L0L
(lp4213
(lp4214
tp4215
a(L2532576294L
L3785322319L
(lp4216
(lp4217
V__assert_func
p4218
atp4219
a(L97642L
L0L
(lp4220
(lp4221
tp4222
a(L3546681296L
L0L
(lp4223
(lp4224
tp4225
a(L366123053L
L0L
(lp4226
(lp4227
tp4228
a(L2258867228L
L0L
(lp4229
(lp4230
tp4231
a(L1253626734L
L0L
(lp4232
(lp4233
tp4234
a(L2258897019L
L0L
(lp4235
(lp4236
tp4237
a(L3109269495L
L0L
(lp4238
(lp4239
tp4240
atp4241
sI1074239480
(Vset_actual_ota_seq
p4242
(lp4243
(L4094723830L
L0L
(lp4244
(lp4245
tp4246
a(L2784201201L
L0L
(lp4247
(lp4248
tp4249
a(L3674922900L
L1832448559L
(lp4250
(lp4251
Vbootloader_common_ota_select_crc
p4252
aVesp_flash_encryption_enabled
p4253
aVbootloader_flash_erase_sector
p4254
atp4255
a(L300669811L
L3785322319L
(lp4256
(lp4257
Vbootloader_flash_write
p4258
atp4259
a(L2898531906L
L3785322319L
(lp4260
(lp4261
Vesp_log_early_timestamp
p4262
atp4263
a(L2510111647L
L3785322319L
(lp4264
(lp4265
Vesp_log_early_timestamp
p4266
atp4267
a(L889933560L
L1880226080L
(lp4268
(lp4269
Vindex_to_partition
p4270
aVbootloader_common_update_rtc_retain_mem
p4271
atp4272
atp4273
ssS'functionsdups'
p4274
g11
((lp4275
tp4276
Rp4277
sS'immediatedups'
p4278
g11
((lp4279
tp4280
Rp4281
sS'functiondups'
p4282
g11
((lp4283
tp4284
Rp4285
sS'fuzzy'
p4286
(dp4287
L1536L
I1074241096
sL438947497L
I1074245600
sL430153639L
I1074235936
sL761339243L
I1074237428
sL3538491111L
I1074245744
sL16208487L
I1074234772
sL1053780185L
I1074247532
sL1613424182L
I1074240280
sL2919036513L
I1074239084
sL2680783959L
I1074235672
sL1385214606L
I1074241588
sL3709764864L
I1074243016
sL3512578114L
I1074238984
sL1419132215L
I1074238324
sL2469233929L
I1074240884
sL4024375675L
I1074246196
sL701833459L
I1074268624
sL720751058L
I1074267836
sL99291719L
I1074246308
sL1260046007L
I1074238816
sL1270034334L
I1074267724
sL3897252859L
I1074238732
sL2154298582L
I1074268060
sL3750957730L
I1074269368
sL1065525808L
I1074236892
sL2547957225L
I1074243528
sL2272466760L
I1074245984
sL2044047637L
I1074239616
sL1188065553L
I1074237880
sL1350409532L
I1074241344
sL94556391L
I1074245772
sL3210669721L
I1074245364
sL1332800441L
I1074237352
sL1797050832L
I1074242060
sL3190831358L
I1074239980
sL4160102055L
I1074240380
sL4202185385L
I1074247796
sL1768086576L
I1074236404
sL4171975289L
I1074248092
sL1565254297L
I1074248392
sL1205407754L
I1074240404
sL2191698036L
I1074269792
sL3764456758L
I1074245144
sL3567877105L
I1074235284
sL3616640713L
I1074241176
sL1635528231L
I1074244408
sL1060788199L
I1074245892
sL99418163L
I1074239480
sL3378232636L
I1074247036
sL737694352L
I1074247900
sL503029138L
I1074247844
sL1616763831L
I1074248480
sL424867129L
I1074248228
sL3834155367L
I1074241532
sL1302843222L
I1074270272
sL149533852L
I1074237620
sL3883282432L
I1074242148
sL3110525840L
I1074242276
sL1667054119L
I1074240736
sL1142841954L
I1074237120
sL206902443L
I1074238156
sL1070509616L
I1074245424
sL3408620885L
I1074270096
ssb.