ccopy_reg
_reconstructor
p0
(crizzo
RizzoSignature
p1
c__builtin__
object
p2
Ntp3
Rp4
(dp5
S'formal'
p6
(dp7
L1080505958L
I1074270064
sL2606191187L
I1074246016
sL3073145898L
I1074248172
sL2808813164L
I1074240900
sL1207862518L
I1074240608
sL2494828732L
I1074269964
sL3649134217L
I1074270884
sL3285171398L
I1074243504
sL1741170115L
I1074237976
sL3817488769L
I1074247208
sL3505757179L
I1074236756
sL3196142229L
I1074237720
sL76329880L
I1074245832
sL1237733855L
I1074238872
sL1602897552L
I1074239804
sL1396834648L
I1074247480
sL2683518953L
I1074247576
sL4213015302L
I1074243220
sL2034322525L
I1074270112
sL4207120861L
I1074248008
sL3597077880L
I1074236552
sL2483835949L
I1074235936
sL3230852531L
I1074238244
sL3045680040L
I1074245072
sL2431287502L
I1074237052
sL1387443604L
I1074243236
sL693028457L
I1074240440
sL2479159267L
I1074246700
sL2420455533L
I1074269672
sL3326929765L
I1074240104
sL54072848L
I1074245904
sL2702580795L
I1074237352
sL1470753156L
I1074269384
sL412821684L
I1074236796
sL98826705L
I1074247680
sL2666198494L
I1074245132
sL2896295319L
I1074236892
sL1674148343L
I1074245600
sL3929482102L
I1074245560
sL2485902447L
I1074236732
sL1078278657L
I1074247408
sL3084179344L
I1074269696
sL80666504L
I1074247872
sL3944712277L
I1074240460
sL2972806524L
I1074235672
sL1757965957L
I1074248260
sL1859518617L
I1074241872
sL372308320L
I1074245544
sL235029585L
I1074239320
sL4257908639L
I1074244116
sL1585823442L
I1074244532
sL1622896354L
I1074244560
sL2546030491L
I1074245260
sL1948482680L
I1074268584
sL3723052726L
I1074241312
sL873235283L
I1074245692
sL1509716893L
I1074236864
sL2189223198L
I1074240368
sL2065105265L
I1074269936
sL288400730L
I1074244852
sL885876642L
I1074236652
sL2903897210L
I1074241784
sL396192741L
I1074238164
sL74014997L
I1074270028
sL1056742531L
I1074236404
sL530851108L
I1074244680
sL768348750L
I1074238820
sL426984944L
I1074236964
sL1885637095L
I1074267836
sL2945163535L
I1074240128
sL3307282855L
I1074238136
sL749418531L
I1074244464
sL3432634640L
I1074242740
sL911764690L
I1074237668
sL1050504461L
I1074234728
sL3494179029L
I1074245876
sL493357820L
I1074245308
sL2543988023L
I1074240844
sL1335783426L
I1074268880
sL4038945309L
I1074235624
sL4176386638L
I1074241068
sL3676018875L
I1074245012
sL1830628543L
I1074244632
sL773546680L
I1074238924
sL518463041L
I1074235824
sL2626436395L
I1074236996
sL2737209228L
I1074234772
sL547013175L
I1074237460
sL180164621L
I1074235284
sL2997001746L
I1074237284
sL3927974034L
I1074270288
sL2576935212L
I1074245424
sL3315108397L
I1074269740
sL903496812L
I1074246744
sL647977256L
I1074245452
sL2819127986L
I1074237016
sL3314789167L
I1074270732
sL1877634603L
I1074270956
sL3518743416L
I1074238572
sL3310923163L
I1074238772
sL3128164016L
I1074247624
sL3730494878L
I1074239440
sL3255476431L
I1074242000
sL443067309L
I1074268060
sL4134523305L
I1074268640
sL318741557L
I1074269808
sL4163372517L
I1074236568
sL2805324261L
I1074245284
sL2785860572L
I1074238656
sL1882398944L
I1074244716
sL1736345773L
I1074247240
sL404293581L
I1074237428
sL1487010937L
I1074245480
sL2263182908L
I1074238156
sL700866072L
I1074237996
sL3630163135L
I1074236880
sL188664287L
I1074235252
sL782838600L
I1074240804
sL692536993L
I1074237324
sL3075360168L
I1074241256
sL3283183453L
I1074269368
sL144857933L
I1074240820
sL3570521636L
I1074244432
sL4173412669L
I1074235572
sL3018942732L
I1074267728
ssS'immediates'
p8
(dp9
sS'formaldups'
p10
c__builtin__
set
p11
((lp12
tp13
Rp14
sS'stringdups'
p15
g11
((lp16
tp17
Rp18
sS'fuzzydups'
p19
g11
((lp20
tp21
Rp22
sS'strings'
p23
(dp24
sS'functions'
p25
(dp26
I1074269964
(Vbootloader_print_banner
p27
(lp28
(L2604613095L
L1832448559L
(lp29
(lp30
Vesp_log_early_timestamp
p31
aVesp_log_early_timestamp
p32
aVesp_log_early_timestamp
p33
atp34
atp35
sI1074270732
(Vrtc_vddsdio_get_config
p36
(lp37
(L1970592936L
L0L
(lp38
(lp39
tp40
a(L1750635626L
L0L
(lp41
(lp42
tp43
a(L3193418487L
L0L
(lp44
(lp45
tp46
a(L1953149693L
L0L
(lp47
(lp48
tp49
a(L115635292L
L0L
(lp50
(lp51
tp52
a(L896053863L
L0L
(lp53
(lp54
tp55
a(L1306330959L
L0L
(lp56
(lp57
tp58
a(L3207167077L
L0L
(lp59
(lp60
tp61
atp62
sI1074247680
(Vesp_rom_spiflash_program_page_internal
p63
(lp64
(L2569069283L
L0L
(lp65
(lp66
tp67
a(L2258688483L
L0L
(lp68
(lp69
tp70
a(L3360570486L
L0L
(lp71
(lp72
tp73
a(L657899087L
L0L
(lp74
(lp75
tp76
a(L4235661475L
L3785322319L
(lp77
(lp78
Vesp_rom_spiflash_wait_idle
p79
atp80
a(L1299866312L
L0L
(lp81
(lp82
tp83
a(L3212356251L
L3785322319L
(lp84
(lp85
Vesp_rom_spiflash_enable_write
p86
atp87
a(L1690751792L
L0L
(lp88
(lp89
tp90
a(L1038415594L
L0L
(lp91
(lp92
tp93
a(L2953702749L
L0L
(lp94
(lp95
tp96
a(L2989032L
L0L
(lp97
(lp98
tp99
a(L1965622133L
L0L
(lp100
(lp101
tp102
a(L360176665L
L0L
(lp103
(lp104
tp105
a(L1958113242L
L0L
(lp106
(lp107
tp108
a(L106L
L0L
(lp109
(lp110
tp111
a(L3112950080L
L0L
(lp112
(lp113
tp114
a(L1868606439L
L0L
(lp115
(lp116
tp117
a(L1008983249L
L0L
(lp118
(lp119
tp120
a(L1933954923L
L0L
(lp121
(lp122
tp123
a(L1147866918L
L0L
(lp124
(lp125
tp126
a(L3871602522L
L0L
(lp127
(lp128
tp129
atp130
sI1074267136
(V_init
p131
(lp132
(L3493042598L
L0L
(lp133
(lp134
tp135
atp136
sI1074269696
(Vbootloader_read_bootloader_header
p137
(lp138
(L2964131733L
L3785322319L
(lp139
(lp140
Vbootloader_flash_read
p141
atp142
a(L162782425L
L3785322319L
(lp143
(lp144
Vesp_log_early_timestamp
p145
atp146
a(L735741265L
L0L
(lp147
(lp148
tp149
atp150
sI1074245132
(Vrtc_clk_8m_enable
p151
(lp152
(L717560374L
L0L
(lp153
(lp154
tp155
a(L4093063488L
L0L
(lp156
(lp157
tp158
a(L2151320156L
L0L
(lp159
(lp160
tp161
a(L711175840L
L0L
(lp162
(lp163
tp164
a(L3360570486L
L0L
(lp165
(lp166
tp167
a(L1318267208L
L0L
(lp168
(lp169
tp170
a(L3974092177L
L0L
(lp171
(lp172
tp173
atp174
sI1074244116
(Vwdt_hal_config_stage
p175
(lp176
(L331558507L
L0L
(lp177
(lp178
tp179
a(L4279082939L
L0L
(lp180
(lp181
tp182
a(L93674324L
L0L
(lp183
(lp184
tp185
a(L2902417580L
L0L
(lp186
(lp187
tp188
a(L980402310L
L0L
(lp189
(lp190
tp191
a(L3020187L
L0L
(lp192
(lp193
tp194
a(L94425498L
L3785322319L
(lp195
(lp196
Vabort
p197
atp198
a(L3649029602L
L0L
(lp199
(lp200
tp201
a(L3360570486L
L0L
(lp202
(lp203
tp204
a(L1041004739L
L0L
(lp205
(lp206
tp207
a(L1101608377L
L0L
(lp208
(lp209
tp210
a(L4278159418L
L0L
(lp211
(lp212
tp213
a(L93674324L
L0L
(lp214
(lp215
tp216
a(L3020204L
L0L
(lp217
(lp218
tp219
a(L1722164170L
L0L
(lp220
(lp221
tp222
a(L3020187L
L0L
(lp223
(lp224
tp225
a(L106L
L0L
(lp226
(lp227
tp228
a(L4029484007L
L0L
(lp229
(lp230
tp231
a(L528371148L
L0L
(lp232
(lp233
tp234
a(L2121897800L
L0L
(lp235
(lp236
tp237
atp238
sI1074237460
(Vbootloader_mmap
p239
(lp240
(L3624397292L
L0L
(lp241
(lp242
tp243
a(L2788000646L
L3785322319L
(lp244
(lp245
Vesp_log_early_timestamp
p246
atp247
a(L2867263840L
L0L
(lp248
(lp249
tp250
a(L3729184599L
L0L
(lp251
(lp252
tp253
a(L4116781276L
L3785322319L
(lp254
(lp255
Vesp_log_early_timestamp
p256
atp257
a(L2258688482L
L0L
(lp258
(lp259
tp260
a(L3360570486L
L0L
(lp261
(lp262
tp263
a(L702749218L
L0L
(lp264
(lp265
tp266
a(L1580888500L
L0L
(lp267
(lp268
tp269
a(L3746164654L
L3785322319L
(lp270
(lp271
Vesp_log_early_timestamp
p272
atp273
a(L528675173L
L3785322319L
(lp274
(lp275
Vesp_log_early_timestamp
p276
atp277
a(L113283320L
L0L
(lp278
(lp279
tp280
atp281
sI1074245904
(Vrtc_clk_cpu_freq_to_xtal
p282
(lp283
(L767415990L
L3785322319L
(lp284
(lp285
Vesp_rom_set_cpu_ticks_per_us
p286
atp287
a(L94425498L
L3785322319L
(lp288
(lp289
Vabort
p290
atp291
a(L3663383984L
L3785322319L
(lp292
(lp293
Vrtc_clk_apb_freq_update
p294
atp295
a(L2258867230L
L0L
(lp296
(lp297
tp298
a(L2113643508L
L0L
(lp299
(lp300
tp301
atp302
sI1074237720
(Vbootloader_flash_read
p303
(lp304
(L3022618172L
L0L
(lp305
(lp306
tp307
a(L172086619L
L3785322319L
(lp308
(lp309
Vesp_log_early_timestamp
p310
atp311
a(L2780906736L
L0L
(lp312
(lp313
tp314
a(L1351513776L
L0L
(lp315
(lp316
tp317
a(L1486740491L
L0L
(lp318
(lp319
tp320
a(L1179571938L
L3785322319L
(lp321
(lp322
Vesp_log_early_timestamp
p323
atp324
a(L3283691850L
L0L
(lp325
(lp326
tp327
a(L814874711L
L3785322319L
(lp328
(lp329
Vesp_log_early_timestamp
p330
atp331
a(L3020204L
L0L
(lp332
(lp333
tp334
a(L384130671L
L0L
(lp335
(lp336
tp337
a(L97422L
L0L
(lp338
(lp339
tp340
a(L1190291857L
L0L
(lp341
(lp342
tp343
a(L2961856275L
L0L
(lp344
(lp345
tp346
a(L2830805255L
L3785322319L
(lp347
(lp348
V__assert_func
p349
atp350
a(L1539897528L
L0L
(lp351
(lp352
tp353
a(L1310932259L
L0L
(lp354
(lp355
tp356
a(L1672348752L
L1880226080L
(lp357
(lp358
Vesp_rom_spiflash_read
p359
aVspi_to_esp_err
p360
atp361
atp362
sI1074237976
(Vbootloader_flash_erase_sector
p363
(lp364
(L4129137686L
L1880226080L
(lp365
(lp366
Vesp_rom_spiflash_erase_sector
p367
aVspi_to_esp_err
p368
atp369
atp370
sI1074235672
(Vbootloader_flash_xmc_startup
p371
(lp372
(L2007527597L
L3785322319L
(lp373
(lp374
Vis_xmc_chip_strict
p375
atp376
a(L2258688482L
L0L
(lp377
(lp378
tp379
a(L3360570486L
L0L
(lp380
(lp381
tp382
a(L2860324232L
L3785322319L
(lp383
(lp384
Vbootloader_flash_read_sfdp
p385
atp386
a(L335762040L
L2567856111L
(lp387
(lp388
Vesp_log_early_timestamp
p389
aVbootloader_execute_flash_command
p390
aVbootloader_execute_flash_command
p391
aVbootloader_execute_flash_command
p392
aVbootloader_execute_flash_command
p393
aVbootloader_read_flash_id
p394
aVis_xmc_chip_strict
p395
atp396
a(L664983568L
L3785322319L
(lp397
(lp398
Vesp_log_early_timestamp
p399
atp400
atp401
sI1074244632
(Vmmu_hal_unmap_all
p402
(lp403
(L2696866292L
L0L
(lp404
(lp405
tp406
a(L2010554219L
L0L
(lp407
(lp408
tp409
a(L3268103L
L0L
(lp410
(lp411
tp412
a(L3212334523L
L0L
(lp413
(lp414
tp415
a(L2010554219L
L0L
(lp416
(lp417
tp418
a(L3360570486L
L0L
(lp419
(lp420
tp421
atp422
sI1074240804
(Vbootloader_console_deinit
p423
(lp424
(L4005071210L
L0L
(lp425
(lp426
tp427
atp428
sI1074236964
(Vesp_log_early_timestamp
p429
(lp430
(L3733265409L
L0L
(lp431
(lp432
tp433
atp434
sI1074238244
(Vbootloader_random_disable
p435
(lp436
(L2825582328L
L0L
(lp437
(lp438
tp439
atp440
sI1074269740
(Vbootloader_check_bootloader_validity
p441
(lp442
(L2977501727L
L1832448559L
(lp443
(lp444
Vefuse_hal_chip_revision
p445
aVesp_log_early_timestamp
p446
aVbootloader_common_check_chip_validity
p447
atp448
atp449
sI1074235936
(Vbootloader_flash_gpio_config
p450
(lp451
(L3362256192L
L3785322319L
(lp452
(lp453
Vbootloader_common_get_chip_ver_pkg
p454
atp455
a(L106L
L0L
(lp456
(lp457
tp458
a(L1998579353L
L0L
(lp459
(lp460
tp461
a(L106L
L0L
(lp462
(lp463
tp464
a(L1029428446L
L0L
(lp465
(lp466
tp467
a(L4242290324L
L0L
(lp468
(lp469
tp470
a(L106L
L0L
(lp471
(lp472
tp473
a(L4003626558L
L0L
(lp474
(lp475
tp476
a(L1553523094L
L0L
(lp477
(lp478
tp479
a(L3360570486L
L0L
(lp480
(lp481
tp482
atp483
sI1074241312
(Vverify_load_addresses
p484
(lp485
(L2764487219L
L0L
(lp486
(lp487
tp488
a(L106L
L0L
(lp489
(lp490
tp491
a(L97642L
L0L
(lp492
(lp493
tp494
a(L1494945664L
L3785322319L
(lp495
(lp496
V__assert_func
p497
atp498
a(L791907602L
L0L
(lp499
(lp500
tp501
a(L106L
L0L
(lp502
(lp503
tp504
a(L1722779441L
L0L
(lp505
(lp506
tp507
a(L106L
L0L
(lp508
(lp509
tp510
a(L4043008515L
L3785322319L
(lp511
(lp512
Vbootloader_util_regions_overlap
p513
atp514
a(L631732150L
L3785322319L
(lp515
(lp516
Vbootloader_util_regions_overlap
p517
atp518
a(L3028481L
L0L
(lp519
(lp520
tp521
a(L3615101466L
L3785322319L
(lp522
(lp523
Vbootloader_util_regions_overlap
p524
atp525
a(L1726430751L
L0L
(lp526
(lp527
tp528
a(L1086512205L
L0L
(lp529
(lp530
tp531
a(L1032381749L
L0L
(lp532
(lp533
tp534
a(L2837304413L
L0L
(lp535
(lp536
tp537
a(L677569396L
L3785322319L
(lp538
(lp539
Vverify_load_addresses
p540
atp541
a(L1351513776L
L0L
(lp542
(lp543
tp544
a(L956755582L
L0L
(lp545
(lp546
tp547
a(L2358736322L
L0L
(lp548
(lp549
tp550
a(L29144270L
L0L
(lp551
(lp552
tp553
a(L106L
L0L
(lp554
(lp555
tp556
a(L759382056L
L0L
(lp557
(lp558
tp559
a(L106L
L0L
(lp560
(lp561
tp562
a(L1713182710L
L3785322319L
(lp563
(lp564
Vbootloader_util_regions_overlap
p565
atp566
a(L3028481L
L0L
(lp567
(lp568
tp569
a(L2080057853L
L3785322319L
(lp570
(lp571
Vbootloader_util_regions_overlap
p572
atp573
a(L684954403L
L0L
(lp574
(lp575
tp576
a(L2861826135L
L0L
(lp577
(lp578
tp579
a(L160035736L
L0L
(lp580
(lp581
tp582
a(L2743341656L
L0L
(lp583
(lp584
tp585
a(L182882711L
L0L
(lp586
(lp587
tp588
a(L3836858920L
L0L
(lp589
(lp590
tp591
a(L297163306L
L0L
(lp592
(lp593
tp594
a(L1900059593L
L0L
(lp595
(lp596
tp597
a(L562398217L
L0L
(lp598
(lp599
tp600
a(L3786176122L
L0L
(lp601
(lp602
tp603
a(L3929371936L
L0L
(lp604
(lp605
tp606
a(L2805932810L
L0L
(lp607
(lp608
tp609
a(L4072848040L
L0L
(lp610
(lp611
tp612
a(L106L
L0L
(lp613
(lp614
tp615
a(L955482811L
L0L
(lp616
(lp617
tp618
a(L307917408L
L0L
(lp619
(lp620
tp621
a(L3020204L
L0L
(lp622
(lp623
tp624
a(L2240503318L
L3785322319L
(lp625
(lp626
Vesp_log_early_timestamp
p627
atp628
a(L1303560396L
L0L
(lp629
(lp630
tp631
a(L955506495L
L0L
(lp632
(lp633
tp634
a(L1303560427L
L0L
(lp635
(lp636
tp637
atp638
sI1074237996
(Vbootloader_flash_write
p639
(lp640
(L3770380603L
L0L
(lp641
(lp642
tp643
a(L2615366646L
L3785322319L
(lp644
(lp645
Vesp_log_early_timestamp
p646
atp647
a(L3833270346L
L0L
(lp648
(lp649
tp650
a(L1610445075L
L0L
(lp651
(lp652
tp653
a(L735741265L
L0L
(lp654
(lp655
tp656
a(L3291333414L
L0L
(lp657
(lp658
tp659
a(L1873007406L
L3785322319L
(lp660
(lp661
Vesp_log_early_timestamp
p662
atp663
a(L3283691850L
L0L
(lp664
(lp665
tp666
a(L2141475974L
L3785322319L
(lp667
(lp668
Vesp_log_early_timestamp
p669
atp670
a(L3212356251L
L3785322319L
(lp671
(lp672
Vbootloader_flash_unlock
p673
atp674
a(L1799218633L
L0L
(lp675
(lp676
tp677
a(L94425498L
L3785322319L
(lp678
(lp679
Vesp_rom_spiflash_write_encrypted
p680
atp681
a(L2927190544L
L3785322319L
(lp682
(lp683
Vspi_to_esp_err
p684
atp685
a(L2927190544L
L3785322319L
(lp686
(lp687
Vesp_rom_spiflash_write
p688
atp689
atp690
sI1074241068
(Vprocess_image_header
p691
(lp692
(L2432434428L
L3785322319L
(lp693
(lp694
Vbootloader_flash_read
p695
atp696
a(L3020204L
L0L
(lp697
(lp698
tp699
a(L4205021202L
L0L
(lp700
(lp701
tp702
a(L321261932L
L0L
(lp703
(lp704
tp705
a(L1161397362L
L3785322319L
(lp706
(lp707
Vbootloader_sha256_start
p708
atp709
a(L2062774299L
L3785322319L
(lp710
(lp711
Vbootloader_sha256_data
p712
atp713
a(L1291118193L
L0L
(lp714
(lp715
tp716
a(L3028481L
L0L
(lp717
(lp718
tp719
a(L2263077458L
L3785322319L
(lp720
(lp721
Vesp_log_early_timestamp
p722
atp723
a(L3200755447L
L0L
(lp724
(lp725
tp726
a(L2983970029L
L0L
(lp727
(lp728
tp729
a(L4235213884L
L3785322319L
(lp730
(lp731
Vbootloader_common_check_chip_validity
p732
atp733
a(L4144303915L
L0L
(lp734
(lp735
tp736
a(L3028481L
L0L
(lp737
(lp738
tp739
a(L355256751L
L3785322319L
(lp740
(lp741
Vesp_log_early_timestamp
p742
atp743
a(L2852701393L
L0L
(lp744
(lp745
tp746
a(L2122516551L
L0L
(lp747
(lp748
tp749
a(L3064492592L
L0L
(lp750
(lp751
tp752
atp753
sI1074246700
(Vrtc_clk_apb_freq_get
p754
(lp755
(L3659315454L
L0L
(lp756
(lp757
tp758
atp759
sI1074247208
(Vrtc_clk_cal_ratio
p760
(lp761
(L3871281096L
L3785322319L
(lp762
(lp763
Vrtc_clk_cal_internal
p764
atp765
atp766
sI1074240820
(V__assert_func
p767
(lp768
(L1697582622L
L0L
(lp769
(lp770
tp771
a(L106L
L0L
(lp772
(lp773
tp774
atp775
sI1074238772
(Vtry_load_partition
p776
(lp777
(L1263750142L
L0L
(lp778
(lp779
tp780
a(L2258688482L
L0L
(lp781
(lp782
tp783
a(L3360570486L
L0L
(lp784
(lp785
tp786
a(L530241438L
L3785322319L
(lp787
(lp788
Vbootloader_load_image
p789
atp790
a(L3010049260L
L3785322319L
(lp791
(lp792
Vesp_log_early_timestamp
p793
atp794
atp795
sI1074249012
(V_fini
p796
(lp797
(L3493042598L
L0L
(lp798
(lp799
tp800
atp801
sI1074245424
(Vrtc_clk_slow_src_get
p802
(lp803
(L807162021L
L0L
(lp804
(lp805
tp806
a(L3020187L
L0L
(lp807
(lp808
tp809
a(L2902417580L
L0L
(lp810
(lp811
tp812
a(L2258688485L
L0L
(lp813
(lp814
tp815
a(L3360570486L
L0L
(lp816
(lp817
tp818
atp819
sI1074247472
(Vesp_efuse_init_virtual_mode_in_ram
p820
(lp821
(L1287383080L
L3785322319L
(lp822
(lp823
Vesp_efuse_utility_update_virt_blocks
p824
atp825
atp826
sI1074239804
(Vbootloader_utility_get_selected_boot_partition
p827
(lp828
(L2938832293L
L0L
(lp829
(lp830
tp831
a(L842541614L
L0L
(lp832
(lp833
tp834
a(L893151972L
L3785322319L
(lp835
(lp836
Vesp_log_early_timestamp
p837
atp838
a(L194246498L
L0L
(lp839
(lp840
tp841
a(L3360570486L
L0L
(lp842
(lp843
tp844
a(L3118387733L
L3785322319L
(lp845
(lp846
Vbootloader_mmap
p847
atp848
a(L2621379218L
L3785322319L
(lp849
(lp850
Vesp_log_early_timestamp
p851
atp852
a(L3321522761L
L1880226080L
(lp853
(lp854
Vbootloader_munmap
p855
aVbootloader_common_ota_select_invalid
p856
atp857
a(L2911028409L
L0L
(lp858
(lp859
tp860
a(L726754926L
L3785322319L
(lp861
(lp862
Vbootloader_common_get_active_otadata
p863
atp864
a(L106L
L0L
(lp865
(lp866
tp867
a(L4179097382L
L0L
(lp868
(lp869
tp870
a(L788494392L
L3785322319L
(lp871
(lp872
Vbootloader_common_ota_select_invalid
p873
atp874
a(L4189674197L
L0L
(lp875
(lp876
tp877
a(L4436812L
L3785322319L
(lp878
(lp879
Vesp_log_early_timestamp
p880
atp881
a(L3833270346L
L0L
(lp882
(lp883
tp884
a(L1641201884L
L0L
(lp885
(lp886
tp887
a(L211630783L
L3785322319L
(lp888
(lp889
Vesp_log_early_timestamp
p890
atp891
a(L2302032704L
L0L
(lp892
(lp893
tp894
a(L1173788779L
L3785322319L
(lp895
(lp896
Vbootloader_common_ota_select_crc
p897
atp898
a(L4188515782L
L0L
(lp899
(lp900
tp901
a(L1324800084L
L3785322319L
(lp902
(lp903
Vbootloader_common_ota_select_crc
p904
atp905
a(L1299866312L
L0L
(lp906
(lp907
tp908
a(L1205826810L
L0L
(lp909
(lp910
tp911
a(L2799281972L
L3785322319L
(lp912
(lp913
Vesp_log_early_timestamp
p914
atp915
a(L692120553L
L3785322319L
(lp916
(lp917
Vesp_log_early_timestamp
p918
atp919
atp920
sI1074236732
(Vefuse_hal_chip_revision
p921
(lp922
(L2719302832L
L1880226080L
(lp923
(lp924
Vefuse_hal_get_major_chip_version
p925
aVefuse_hal_get_minor_chip_version
p926
atp927
atp928
sI1074245692
(Vrtc_clk_cpu_freq_get_config
p929
(lp930
(L3722895476L
L0L
(lp931
(lp932
tp933
a(L3020187L
L0L
(lp934
(lp935
tp936
a(L3020187L
L0L
(lp937
(lp938
tp939
a(L2648070573L
L3785322319L
(lp940
(lp941
Vrtc_clk_xtal_freq_get
p942
atp943
a(L3789795478L
L0L
(lp944
(lp945
tp946
a(L1195264405L
L1880226080L
(lp947
(lp948
Vesp_log_early_timestamp
p949
aVabort
p950
atp951
a(L1347439071L
L0L
(lp952
(lp953
tp954
a(L3020187L
L0L
(lp955
(lp956
tp957
a(L3028481L
L0L
(lp958
(lp959
tp960
a(L38508693L
L0L
(lp961
(lp962
tp963
a(L187152368L
L0L
(lp964
(lp965
tp966
a(L1161083655L
L0L
(lp967
(lp968
tp969
a(L1395485899L
L0L
(lp970
(lp971
tp972
a(L2070600034L
L0L
(lp973
(lp974
tp975
atp976
sI1074247480
(Vesp_rom_spiflash_read_status
p977
(lp978
(L862498644L
L0L
(lp979
(lp980
tp981
a(L884684782L
L0L
(lp982
(lp983
tp984
a(L4159619641L
L0L
(lp985
(lp986
tp987
a(L2392720019L
L0L
(lp988
(lp989
tp990
a(L2258688487L
L0L
(lp991
(lp992
tp993
a(L4159619145L
L0L
(lp994
(lp995
tp996
a(L3635138872L
L0L
(lp997
(lp998
tp999
a(L3117156279L
L0L
(lp1000
(lp1001
tp1002
a(L2123059967L
L0L
(lp1003
(lp1004
tp1005
a(L582177370L
L0L
(lp1006
(lp1007
tp1008
atp1009
sI1074236996
(Vbootloader_common_ota_select_crc
p1010
(lp1011
(L3214440559L
L0L
(lp1012
(lp1013
tp1014
atp1015
sI1074248260
(Vesp_rom_spiflash_read
p1016
(lp1017
(L1261558011L
L0L
(lp1018
(lp1019
tp1020
a(L340323457L
L0L
(lp1021
(lp1022
tp1023
a(L2860271684L
L0L
(lp1024
(lp1025
tp1026
a(L2355528925L
L0L
(lp1027
(lp1028
tp1029
a(L106L
L0L
(lp1030
(lp1031
tp1032
a(L633884026L
L0L
(lp1033
(lp1034
tp1035
a(L106L
L0L
(lp1036
(lp1037
tp1038
a(L265679927L
L0L
(lp1039
(lp1040
tp1041
a(L1176778768L
L0L
(lp1042
(lp1043
tp1044
a(L1544155185L
L0L
(lp1045
(lp1046
tp1047
a(L336550648L
L0L
(lp1048
(lp1049
tp1050
a(L2841008487L
L0L
(lp1051
(lp1052
tp1053
a(L106L
L0L
(lp1054
(lp1055
tp1056
a(L2596124413L
L3785322319L
(lp1057
(lp1058
Vesp_rom_spiflash_wait_idle
p1059
atp1060
a(L3021737L
L0L
(lp1061
(lp1062
tp1063
a(L106L
L0L
(lp1064
(lp1065
tp1066
a(L1868280504L
L0L
(lp1067
(lp1068
tp1069
a(L106L
L0L
(lp1070
(lp1071
tp1072
a(L750281353L
L0L
(lp1073
(lp1074
tp1075
a(L3897437082L
L0L
(lp1076
(lp1077
tp1078
a(L4122060822L
L0L
(lp1079
(lp1080
tp1081
a(L3961861344L
L0L
(lp1082
(lp1083
tp1084
a(L2989032L
L0L
(lp1085
(lp1086
tp1087
a(L3819849625L
L0L
(lp1088
(lp1089
tp1090
a(L3946497298L
L0L
(lp1091
(lp1092
tp1093
a(L946755012L
L0L
(lp1094
(lp1095
tp1096
a(L3901821490L
L0L
(lp1097
(lp1098
tp1099
a(L2511525044L
L0L
(lp1100
(lp1101
tp1102
a(L2921907736L
L0L
(lp1103
(lp1104
tp1105
a(L4023125337L
L0L
(lp1106
(lp1107
tp1108
a(L1693574212L
L0L
(lp1109
(lp1110
tp1111
a(L1931165897L
L0L
(lp1112
(lp1113
tp1114
a(L2189982627L
L0L
(lp1115
(lp1116
tp1117
a(L3333707777L
L0L
(lp1118
(lp1119
tp1120
a(L3251955268L
L0L
(lp1121
(lp1122
tp1123
a(L3418540920L
L0L
(lp1124
(lp1125
tp1126
a(L284069505L
L0L
(lp1127
(lp1128
tp1129
a(L97689L
L0L
(lp1130
(lp1131
tp1132
a(L2258897019L
L0L
(lp1133
(lp1134
tp1135
a(L4014024819L
L0L
(lp1136
(lp1137
tp1138
a(L3621567083L
L0L
(lp1139
(lp1140
tp1141
atp1142
sI1074270028
(Vbootloader_console_init
p1143
(lp1144
(L841433367L
L1832448559L
(lp1145
(lp1146
Vesp_rom_uart_tx_wait_idle
p1147
aVrtc_clk_apb_freq_get
p1148
aVesp_rom_uart_set_clock_baudrate
p1149
atp1150
atp1151
sI1074240844
(Vabort
p1152
(lp1153
(L56968919L
L0L
(lp1154
(lp1155
tp1156
a(L409471316L
L0L
(lp1157
(lp1158
tp1159
a(L106L
L0L
(lp1160
(lp1161
tp1162
atp1163
sI1074245452
(Vrtc_clk_slow_freq_get_hz
p1164
(lp1165
(L1826267122L
L3785322319L
(lp1166
(lp1167
Vrtc_clk_slow_src_get
p1168
atp1169
a(L4180097535L
L0L
(lp1170
(lp1171
tp1172
a(L4004331653L
L0L
(lp1173
(lp1174
tp1175
a(L3360570486L
L0L
(lp1176
(lp1177
tp1178
atp1179
sI1074244680
(Vefuse_hal_get_rated_freq_mhz
p1180
(lp1181
(L3060225221L
L0L
(lp1182
(lp1183
tp1184
a(L338960367L
L0L
(lp1185
(lp1186
tp1187
a(L3360570486L
L0L
(lp1188
(lp1189
tp1190
atp1191
sI1074247240
(Vrtc_clk_wait_for_slow_cycle
p1192
(lp1193
(L1979977371L
L0L
(lp1194
(lp1195
tp1196
a(L287687718L
L0L
(lp1197
(lp1198
tp1199
a(L3360570486L
L0L
(lp1200
(lp1201
tp1202
a(L2664777485L
L0L
(lp1203
(lp1204
tp1205
a(L1300789833L
L0L
(lp1206
(lp1207
tp1208
a(L1259765481L
L0L
(lp1209
(lp1210
tp1211
a(L2529434910L
L0L
(lp1212
(lp1213
tp1214
a(L299865058L
L3785322319L
(lp1215
(lp1216
Vesp_log_early_timestamp
p1217
atp1218
atp1219
sI1074248008
(Vesp_rom_spiflash_write
p1220
(lp1221
(L2678236145L
L0L
(lp1222
(lp1223
tp1224
a(L2258688483L
L0L
(lp1225
(lp1226
tp1227
a(L3360570486L
L0L
(lp1228
(lp1229
tp1230
a(L3368132847L
L0L
(lp1231
(lp1232
tp1233
a(L3106685981L
L0L
(lp1234
(lp1235
tp1236
a(L3488660639L
L3785322319L
(lp1237
(lp1238
Vesp_rom_spiflash_program_page_internal
p1239
atp1240
a(L3543402353L
L3785322319L
(lp1241
(lp1242
Vesp_rom_spiflash_program_page_internal
p1243
atp1244
a(L4222526342L
L0L
(lp1245
(lp1246
tp1247
a(L2004208511L
L0L
(lp1248
(lp1249
tp1250
a(L564470656L
L0L
(lp1251
(lp1252
tp1253
a(L441922648L
L3785322319L
(lp1254
(lp1255
Vesp_rom_spiflash_program_page_internal
p1256
atp1257
a(L2302069176L
L0L
(lp1258
(lp1259
tp1260
atp1261
sI1074236756
(Vefuse_hal_flash_encryption_enabled
p1262
(lp1263
(L2932383536L
L0L
(lp1264
(lp1265
tp1266
a(L2910371777L
L0L
(lp1267
(lp1268
tp1269
a(L3360570486L
L0L
(lp1270
(lp1271
tp1272
a(L3016870L
L0L
(lp1273
(lp1274
tp1275
a(L3745038218L
L0L
(lp1276
(lp1277
tp1278
a(L957607403L
L0L
(lp1279
(lp1280
tp1281
atp1282
sI1074244432
(Vwdt_hal_write_protect_disable
p1283
(lp1284
(L2029874475L
L0L
(lp1285
(lp1286
tp1287
a(L4195472003L
L0L
(lp1288
(lp1289
tp1290
a(L3360570486L
L0L
(lp1291
(lp1292
tp1293
a(L1210571996L
L0L
(lp1294
(lp1295
tp1296
atp1297
sI1074241872
(Vshould_load
p1298
(lp1299
(L2248753231L
L0L
(lp1300
(lp1301
tp1302
a(L1182990556L
L0L
(lp1303
(lp1304
tp1305
a(L1188500889L
L0L
(lp1306
(lp1307
tp1308
a(L2306467100L
L0L
(lp1309
(lp1310
tp1311
a(L524505062L
L0L
(lp1312
(lp1313
tp1314
a(L2258897019L
L0L
(lp1315
(lp1316
tp1317
a(L3781799363L
L0L
(lp1318
(lp1319
tp1320
a(L3028464L
L0L
(lp1321
(lp1322
tp1323
a(L2798417532L
L0L
(lp1324
(lp1325
tp1326
a(L4277114872L
L0L
(lp1327
(lp1328
tp1329
a(L2824381917L
L0L
(lp1330
(lp1331
tp1332
a(L1243412227L
L0L
(lp1333
(lp1334
tp1335
a(L2011157548L
L0L
(lp1336
(lp1337
tp1338
a(L3126521138L
L0L
(lp1339
(lp1340
tp1341
a(L1305407438L
L0L
(lp1342
(lp1343
tp1344
a(L1305407469L
L0L
(lp1345
(lp1346
tp1347
atp1348
sI1074267728
(Vcall_start_cpu0
p1349
(lp1350
(L1137852827L
L0L
(lp1351
(lp1352
tp1353
a(L549459388L
L0L
(lp1354
(lp1355
tp1356
a(L3212347974L
L3785322319L
(lp1357
(lp1358
Vbootloader_init
p1359
atp1360
a(L94425498L
L3785322319L
(lp1361
(lp1362
Vbootloader_reset
p1363
atp1364
a(L1122046408L
L0L
(lp1365
(lp1366
tp1367
a(L4099474112L
L0L
(lp1368
(lp1369
tp1370
a(L3015046664L
L3785322319L
(lp1371
(lp1372
Vbootloader_utility_load_partition_table
p1373
atp1374
a(L2761094216L
L3785322319L
(lp1375
(lp1376
Vesp_log_early_timestamp
p1377
atp1378
a(L405422123L
L3785322319L
(lp1379
(lp1380
Vbootloader_utility_get_selected_boot_partition
p1381
atp1382
a(L2055385849L
L3785322319L
(lp1383
(lp1384
Vbootloader_utility_load_boot_image
p1385
atp1386
atp1387
sI1074270288
(Vrtc_clk_init
p1388
(lp1389
(L1816663346L
L0L
(lp1390
(lp1391
tp1392
a(L42671777L
L3785322319L
(lp1393
(lp1394
Vrtc_clk_cpu_freq_to_xtal
p1395
atp1396
a(L1263996413L
L3785322319L
(lp1397
(lp1398
Vrtc_clk_xtal_freq_get
p1399
atp1400
a(L3028481L
L0L
(lp1401
(lp1402
tp1403
a(L4284274517L
L3785322319L
(lp1404
(lp1405
Vrtc_clk_xtal_freq_estimate
p1406
atp1407
a(L4094346314L
L3785322319L
(lp1408
(lp1409
Vesp_log_early_timestamp
p1410
atp1411
a(L363325419L
L1157885199L
(lp1412
(lp1413
Vesp_rom_uart_tx_wait_idle
p1414
aVrtc_clk_xtal_freq_update
p1415
aVrtc_clk_apb_freq_update
p1416
aVrtc_clk_cpu_freq_get_config
p1417
aVrtc_clk_cpu_freq_mhz_to_config
p1418
atp1419
a(L816397908L
L1880226080L
(lp1420
(lp1421
Vesp_log_early_timestamp
p1422
aVabort
p1423
atp1424
a(L2902417580L
L0L
(lp1425
(lp1426
tp1427
a(L1899970065L
L0L
(lp1428
(lp1429
tp1430
a(L377687546L
L3785322319L
(lp1431
(lp1432
Vrtc_clk_xtal_freq_estimate
p1433
atp1434
a(L13163728L
L3785322319L
(lp1435
(lp1436
Vesp_log_early_timestamp
p1437
atp1438
a(L1228072430L
L3785322319L
(lp1439
(lp1440
Vrtc_clk_cpu_freq_set_config
p1441
atp1442
a(L912310138L
L3785322319L
(lp1443
(lp1444
Vrtc_clk_32k_enable
p1445
atp1446
a(L3191820416L
L1832448559L
(lp1447
(lp1448
Vrtc_clk_8m_enable
p1449
aVrtc_clk_fast_src_set
p1450
aVrtc_clk_slow_src_set
p1451
atp1452
a(L1232958848L
L0L
(lp1453
(lp1454
tp1455
atp1456
sI1074237016
(Vbootloader_common_ota_select_valid
p1457
(lp1458
(L1563399710L
L3785322319L
(lp1459
(lp1460
Vbootloader_common_ota_select_invalid
p1461
atp1462
a(L3814720849L
L3785322319L
(lp1463
(lp1464
Vbootloader_common_ota_select_crc
p1465
atp1466
a(L3360570486L
L0L
(lp1467
(lp1468
tp1469
atp1470
sI1074239320
(Vset_actual_ota_seq
p1471
(lp1472
(L4094723830L
L0L
(lp1473
(lp1474
tp1475
a(L2573507321L
L0L
(lp1476
(lp1477
tp1478
a(L3461827603L
L1832448559L
(lp1479
(lp1480
Vbootloader_common_ota_select_crc
p1481
aVesp_flash_encryption_enabled
p1482
aVbootloader_flash_erase_sector
p1483
atp1484
a(L2768623893L
L3785322319L
(lp1485
(lp1486
Vbootloader_flash_write
p1487
atp1488
a(L1288271209L
L3785322319L
(lp1489
(lp1490
Vesp_log_early_timestamp
p1491
atp1492
a(L2939835162L
L3785322319L
(lp1493
(lp1494
Vesp_log_early_timestamp
p1495
atp1496
a(L3360570486L
L0L
(lp1497
(lp1498
tp1499
atp1500
sI1074246744
(Vrtc_clk_cal_internal
p1501
(lp1502
(L3211713899L
L0L
(lp1503
(lp1504
tp1505
a(L3248315554L
L3785322319L
(lp1506
(lp1507
V__assert_func
p1508
atp1509
a(L1839043401L
L0L
(lp1510
(lp1511
tp1512
a(L1673513644L
L0L
(lp1513
(lp1514
tp1515
a(L1829177773L
L3785322319L
(lp1516
(lp1517
Vrtc_clk_slow_src_get
p1518
atp1519
a(L3008910671L
L0L
(lp1520
(lp1521
tp1522
a(L97689L
L0L
(lp1523
(lp1524
tp1525
a(L1725095778L
L0L
(lp1526
(lp1527
tp1528
a(L3028464L
L0L
(lp1529
(lp1530
tp1531
a(L3028481L
L0L
(lp1532
(lp1533
tp1534
a(L3450258779L
L0L
(lp1535
(lp1536
tp1537
a(L204864475L
L3785322319L
(lp1538
(lp1539
Vrtc_clk_xtal_freq_get
p1540
atp1541
a(L2780079961L
L0L
(lp1542
(lp1543
tp1544
a(L3609124145L
L0L
(lp1545
(lp1546
tp1547
a(L827207193L
L3785322319L
(lp1548
(lp1549
Vesp_log_early_timestamp
p1550
atp1551
a(L2258688482L
L0L
(lp1552
(lp1553
tp1554
a(L3360570486L
L0L
(lp1555
(lp1556
tp1557
a(L3553505594L
L0L
(lp1558
(lp1559
tp1560
a(L403361192L
L0L
(lp1561
(lp1562
tp1563
a(L3243404432L
L3785322319L
(lp1564
(lp1565
Vrtc_clk_8m_enable
p1566
atp1567
a(L1960044254L
L0L
(lp1568
(lp1569
tp1570
a(L569203943L
L0L
(lp1571
(lp1572
tp1573
a(L2910371777L
L0L
(lp1574
(lp1575
tp1576
a(L2902417580L
L0L
(lp1577
(lp1578
tp1579
a(L645786836L
L0L
(lp1580
(lp1581
tp1582
a(L3020204L
L0L
(lp1583
(lp1584
tp1585
a(L2235519328L
L0L
(lp1586
(lp1587
tp1588
a(L3429540926L
L0L
(lp1589
(lp1590
tp1591
a(L3028464L
L0L
(lp1592
(lp1593
tp1594
a(L3309590973L
L3785322319L
(lp1595
(lp1596
Vrtc_clk_8m_enable
p1597
atp1598
atp1599
sI1074237284
(Vbootloader_common_get_active_otadata
p1600
(lp1601
(L3317503532L
L0L
(lp1602
(lp1603
tp1604
a(L2503049265L
L1832448559L
(lp1605
(lp1606
Vbootloader_common_ota_select_valid
p1607
aVbootloader_common_ota_select_valid
p1608
aVbootloader_common_select_otadata
p1609
atp1610
a(L735741265L
L0L
(lp1611
(lp1612
tp1613
atp1614
sI1074238820
(Vcache_ll_l1_enable_bus
p1615
(lp1616
(L1908488057L
L0L
(lp1617
(lp1618
tp1619
atp1620
sI1074240608
(Vbootloader_sha256_finish
p1621
(lp1622
(L4066096136L
L0L
(lp1623
(lp1624
tp1625
a(L3125987449L
L0L
(lp1626
(lp1627
tp1628
a(L3884092851L
L3785322319L
(lp1629
(lp1630
V__assert_func
p1631
atp1632
a(L3020204L
L0L
(lp1633
(lp1634
tp1635
a(L1816853500L
L0L
(lp1636
(lp1637
tp1638
a(L2534656226L
L0L
(lp1639
(lp1640
tp1641
a(L551614134L
L3785322319L
(lp1642
(lp1643
Vbootloader_sha256_data
p1644
atp1645
a(L3281735505L
L0L
(lp1646
(lp1647
tp1648
a(L841302101L
L3785322319L
(lp1649
(lp1650
Vbootloader_sha256_data
p1651
atp1652
a(L3768329152L
L0L
(lp1653
(lp1654
tp1655
a(L657425439L
L0L
(lp1656
(lp1657
tp1658
a(L3930848034L
L0L
(lp1659
(lp1660
tp1661
a(L657425439L
L0L
(lp1662
(lp1663
tp1664
a(L4116699460L
L0L
(lp1665
(lp1666
tp1667
a(L3511307343L
L0L
(lp1668
(lp1669
tp1670
a(L3347778L
L0L
(lp1671
(lp1672
tp1673
a(L3360570486L
L0L
(lp1674
(lp1675
tp1676
atp1677
sI1074238560
(Vbootloader_clock_get_rated_freq_mhz
p1678
(lp1679
(L376617603L
L3785322319L
(lp1680
(lp1681
Vefuse_hal_get_rated_freq_mhz
p1682
atp1683
atp1684
sI1074238572
(Vlog_invalid_app_partition
p1685
(lp1686
(L3121159614L
L0L
(lp1687
(lp1688
tp1689
a(L3028464L
L0L
(lp1690
(lp1691
tp1692
a(L1381405837L
L3785322319L
(lp1693
(lp1694
Vesp_log_early_timestamp
p1695
atp1696
a(L3833270346L
L0L
(lp1697
(lp1698
tp1699
a(L3360570486L
L0L
(lp1700
(lp1701
tp1702
a(L3430459325L
L3785322319L
(lp1703
(lp1704
Vesp_log_early_timestamp
p1705
atp1706
a(L3309219235L
L3785322319L
(lp1707
(lp1708
Vesp_log_early_timestamp
p1709
atp1710
atp1711
sI1074244716
(Vrtc_clk_32k_enable_common
p1712
(lp1713
(L493234424L
L0L
(lp1714
(lp1715
tp1716
a(L97422L
L0L
(lp1717
(lp1718
tp1719
a(L2218417248L
L0L
(lp1720
(lp1721
tp1722
a(L3638412133L
L0L
(lp1723
(lp1724
tp1725
a(L51458120L
L0L
(lp1726
(lp1727
tp1728
atp1729
sI1074240104
(Vbootloader_reset
p1730
(lp1731
(L1083704575L
L3785322319L
(lp1732
(lp1733
Vbootloader_console_deinit
p1734
atp1735
a(L106L
L0L
(lp1736
(lp1737
tp1738
atp1739
sI1074234728
(Vbootloader_common_get_chip_ver_pkg
p1740
(lp1741
(L994406025L
L0L
(lp1742
(lp1743
tp1744
atp1745
sI1074245480
(Vrtc_clk_fast_src_set
p1746
(lp1747
(L3974279653L
L0L
(lp1748
(lp1749
tp1750
a(L3020187L
L0L
(lp1751
(lp1752
tp1753
a(L3827921190L
L3785322319L
(lp1754
(lp1755
Vabort
p1756
atp1757
a(L2904656757L
L0L
(lp1758
(lp1759
tp1760
a(L206212292L
L0L
(lp1761
(lp1762
tp1763
a(L300459962L
L0L
(lp1764
(lp1765
tp1766
atp1767
sI1074235252
(Vbootloader_execute_flash_command
p1768
(lp1769
(L2481595632L
L3785322319L
(lp1770
(lp1771
Vbootloader_flash_execute_command_common
p1772
atp1773
atp1774
sI1074240368
(Vindex_to_partition
p1775
(lp1776
(L4066096119L
L0L
(lp1777
(lp1778
tp1779
a(L1101255660L
L0L
(lp1780
(lp1781
tp1782
a(L1955702725L
L0L
(lp1783
(lp1784
tp1785
a(L3698927993L
L0L
(lp1786
(lp1787
tp1788
a(L2808906342L
L0L
(lp1789
(lp1790
tp1791
a(L4211744375L
L0L
(lp1792
(lp1793
tp1794
a(L3097778015L
L0L
(lp1795
(lp1796
tp1797
a(L1816235430L
L0L
(lp1798
(lp1799
tp1800
a(L2179185678L
L0L
(lp1801
(lp1802
tp1803
a(L3369319173L
L0L
(lp1804
(lp1805
tp1806
atp1807
sI1074244464
(Vwdt_hal_set_flashboot_en
p1808
(lp1809
(L2375320464L
L0L
(lp1810
(lp1811
tp1812
a(L3915867581L
L0L
(lp1813
(lp1814
tp1815
a(L3360570486L
L0L
(lp1816
(lp1817
tp1818
a(L1860344008L
L0L
(lp1819
(lp1820
tp1821
atp1822
sI1074269808
(Vbootloader_config_wdt
p1823
(lp1824
(L1766938382L
L505859776L
(lp1825
(lp1826
Vwdt_hal_write_protect_disable
p1827
aVwdt_hal_set_flashboot_en
p1828
aVwdt_hal_write_protect_enable
p1829
aVwdt_hal_init
p1830
aVrtc_clk_slow_freq_get_hz
p1831
aVwdt_hal_write_protect_disable
p1832
aVwdt_hal_config_stage
p1833
aVwdt_hal_enable
p1834
aVwdt_hal_write_protect_enable
p1835
aVwdt_hal_write_protect_disable
p1836
aVwdt_hal_set_flashboot_en
p1837
aVwdt_hal_write_protect_enable
p1838
atp1839
atp1840
sI1074270064
(Vesp_cpu_configure_region_protection
p1841
(lp1842
(L1745595499L
L0L
(lp1843
(lp1844
tp1845
a(L180431425L
L3785322319L
(lp1846
(lp1847
Vmpu_hal_set_region_access
p1848
atp1849
a(L2537388152L
L3785322319L
(lp1850
(lp1851
Vmpu_hal_set_region_access
p1852
atp1853
atp1854
sI1074237052
(Vbootloader_common_check_chip_validity
p1855
(lp1856
(L2080115690L
L0L
(lp1857
(lp1858
tp1859
a(L101167642L
L3785322319L
(lp1860
(lp1861
Vesp_log_early_timestamp
p1862
atp1863
a(L1299867982L
L0L
(lp1864
(lp1865
tp1866
a(L3360570486L
L0L
(lp1867
(lp1868
tp1869
a(L521940037L
L3785322319L
(lp1870
(lp1871
Vefuse_hal_chip_revision
p1872
atp1873
a(L1521164372L
L0L
(lp1874
(lp1875
tp1876
a(L1652761108L
L3785322319L
(lp1877
(lp1878
Vesp_log_early_timestamp
p1879
atp1880
a(L3028464L
L0L
(lp1881
(lp1882
tp1883
a(L1797954754L
L0L
(lp1884
(lp1885
tp1886
a(L106L
L0L
(lp1887
(lp1888
tp1889
a(L3027019L
L0L
(lp1890
(lp1891
tp1892
a(L106L
L0L
(lp1893
(lp1894
tp1895
a(L2173180754L
L3785322319L
(lp1896
(lp1897
Vesp_log_early_timestamp
p1898
atp1899
atp1900
sI1074236796
(Vefuse_hal_get_major_chip_version
p1901
(lp1902
(L503352333L
L0L
(lp1903
(lp1904
tp1905
a(L894792960L
L0L
(lp1906
(lp1907
tp1908
a(L724635033L
L0L
(lp1909
(lp1910
tp1911
a(L3360570486L
L0L
(lp1912
(lp1913
tp1914
atp1915
sI1074240892
(Vbootloader_ana_clock_glitch_reset_config
p1916
(lp1917
(L2100504542L
L0L
(lp1918
(lp1919
tp1920
atp1921
sI1074240900
(Vprocess_checksum
p1922
(lp1923
(L4225894707L
L0L
(lp1924
(lp1925
tp1926
a(L3028481L
L0L
(lp1927
(lp1928
tp1929
a(L186886970L
L0L
(lp1930
(lp1931
tp1932
a(L2902417580L
L0L
(lp1933
(lp1934
tp1935
a(L3028481L
L0L
(lp1936
(lp1937
tp1938
a(L404508301L
L3785322319L
(lp1939
(lp1940
Vesp_log_early_timestamp
p1941
atp1942
a(L3620623795L
L0L
(lp1943
(lp1944
tp1945
a(L3236648107L
L3785322319L
(lp1946
(lp1947
Vbootloader_flash_read
p1948
atp1949
a(L735741265L
L0L
(lp1950
(lp1951
tp1952
a(L3020204L
L0L
(lp1953
(lp1954
tp1955
a(L2480703612L
L3785322319L
(lp1956
(lp1957
Vbootloader_sha256_data
p1958
atp1959
a(L3436105237L
L0L
(lp1960
(lp1961
tp1962
a(L106L
L0L
(lp1963
(lp1964
tp1965
atp1966
sI1074240128
(Vbootloader_utility_load_boot_image
p1967
(lp1968
(L1375294773L
L0L
(lp1969
(lp1970
tp1971
a(L2177418995L
L3785322319L
(lp1972
(lp1973
Vtry_load_partition
p1974
atp1975
a(L1305243774L
L3785322319L
(lp1976
(lp1977
Vload_image
p1978
atp1979
a(L1481893282L
L3785322319L
(lp1980
(lp1981
Vesp_log_early_timestamp
p1982
atp1983
a(L3827921190L
L3785322319L
(lp1984
(lp1985
Vbootloader_reset
p1986
atp1987
a(L1953693036L
L3785322319L
(lp1988
(lp1989
Vindex_to_partition
p1990
atp1991
a(L1204373741L
L3785322319L
(lp1992
(lp1993
Vtry_load_partition
p1994
atp1995
a(L1899865696L
L0L
(lp1996
(lp1997
tp1998
a(L2695355117L
L3785322319L
(lp1999
(lp2000
Vset_actual_ota_seq
p2001
atp2002
a(L1868897605L
L3785322319L
(lp2003
(lp2004
Vlog_invalid_app_partition
p2005
atp2006
a(L831650730L
L0L
(lp2007
(lp2008
tp2009
a(L3021737L
L0L
(lp2010
(lp2011
tp2012
a(L695456438L
L0L
(lp2013
(lp2014
tp2015
a(L1129532116L
L3785322319L
(lp2016
(lp2017
Vtry_load_partition
p2018
atp2019
a(L4022121633L
L3785322319L
(lp2020
(lp2021
Vesp_log_early_timestamp
p2022
atp2023
a(L2347390157L
L3785322319L
(lp2024
(lp2025
Vindex_to_partition
p2026
atp2027
a(L1204373741L
L3785322319L
(lp2028
(lp2029
Vtry_load_partition
p2030
atp2031
a(L3061261803L
L0L
(lp2032
(lp2033
tp2034
a(L3582858798L
L3785322319L
(lp2035
(lp2036
Vlog_invalid_app_partition
p2037
atp2038
a(L1285752117L
L3785322319L
(lp2039
(lp2040
Vesp_log_early_timestamp
p2041
atp2042
atp2043
sI1074246016
(Vrtc_clk_cpu_freq_set_config
p2044
(lp2045
(L2360939883L
L3785322319L
(lp2046
(lp2047
Vrtc_clk_xtal_freq_get
p2048
atp2049
a(L2308773007L
L0L
(lp2050
(lp2051
tp2052
a(L3253451229L
L1880226080L
(lp2053
(lp2054
Vrtc_clk_cpu_freq_to_xtal
p2055
aVrtc_clk_wait_for_slow_cycle
p2056
atp2057
a(L2243645672L
L0L
(lp2058
(lp2059
tp2060
a(L4002786498L
L0L
(lp2061
(lp2062
tp2063
a(L2736411858L
L3785322319L
(lp2064
(lp2065
Vrtc_clk_cpu_freq_to_xtal
p2066
atp2067
a(L3360570486L
L0L
(lp2068
(lp2069
tp2070
a(L2755207760L
L1832448559L
(lp2071
(lp2072
Vrtc_clk_cpu_freq_to_xtal
p2073
aVrtc_clk_wait_for_slow_cycle
p2074
aVrtc_clk_bbpll_disable
p2075
atp2076
a(L3020187L
L0L
(lp2077
(lp2078
tp2079
a(L106L
L0L
(lp2080
(lp2081
tp2082
a(L4047963807L
L1880226080L
(lp2083
(lp2084
Vrtc_clk_wait_for_slow_cycle
p2085
aVrtc_clk_xtal_freq_get
p2086
atp2087
a(L106L
L0L
(lp2088
(lp2089
tp2090
a(L2760149137L
L0L
(lp2091
(lp2092
tp2093
a(L83268611L
L0L
(lp2094
(lp2095
tp2096
a(L106L
L0L
(lp2097
(lp2098
tp2099
a(L82345090L
L0L
(lp2100
(lp2101
tp2102
a(L106L
L0L
(lp2103
(lp2104
tp2105
a(L2258718273L
L0L
(lp2106
(lp2107
tp2108
a(L3298883534L
L0L
(lp2109
(lp2110
tp2111
a(L3342915645L
L0L
(lp2112
(lp2113
tp2114
a(L1001325447L
L3785322319L
(lp2115
(lp2116
Vrtc_clk_cpu_freq_to_pll_mhz
p2117
atp2118
a(L4211651074L
L0L
(lp2119
(lp2120
tp2121
a(L83268344L
L0L
(lp2122
(lp2123
tp2124
a(L82344823L
L0L
(lp2125
(lp2126
tp2127
a(L1569180676L
L0L
(lp2128
(lp2129
tp2130
a(L2258837488L
L0L
(lp2131
(lp2132
tp2133
a(L2862615613L
L0L
(lp2134
(lp2135
tp2136
a(L1482311963L
L0L
(lp2137
(lp2138
tp2139
a(L133411965L
L0L
(lp2140
(lp2141
tp2142
a(L3673491036L
L0L
(lp2143
(lp2144
tp2145
a(L4197990447L
L0L
(lp2146
(lp2147
tp2148
a(L903154985L
L0L
(lp2149
(lp2150
tp2151
a(L3020187L
L0L
(lp2152
(lp2153
tp2154
a(L106L
L0L
(lp2155
(lp2156
tp2157
a(L1614513146L
L3785322319L
(lp2158
(lp2159
Vesp_rom_set_cpu_ticks_per_us
p2160
atp2161
atp2162
sI1074237324
(Vbootloader_common_ota_select_invalid
p2163
(lp2164
(L4027567199L
L0L
(lp2165
(lp2166
tp2167
a(L3397985842L
L0L
(lp2168
(lp2169
tp2170
a(L2258867228L
L0L
(lp2171
(lp2172
tp2173
a(L3785235668L
L0L
(lp2174
(lp2175
tp2176
atp2177
sI1074245260
(Vrtc_clk_8m_enabled
p2178
(lp2179
(L4125363490L
L0L
(lp2180
(lp2181
tp2182
atp2183
sI1074234760
(Vesp_flash_encryption_enabled
p2184
(lp2185
(L376617603L
L3785322319L
(lp2186
(lp2187
Vefuse_hal_flash_encryption_enabled
p2188
atp2189
atp2190
sI1074236552
(Vesp_rom_set_cpu_ticks_per_us
p2191
(lp2192
(L2370326522L
L0L
(lp2193
(lp2194
tp2195
atp2196
sI1074243220
(Vbootloader_load_image
p2197
(lp2198
(L1155870502L
L3785322319L
(lp2199
(lp2200
Vimage_load
p2201
atp2202
atp2203
sI1074235284
(Vbootloader_flash_unlock
p2204
(lp2205
(L485855552L
L3785322319L
(lp2206
(lp2207
Vesp_rom_spiflash_wait_idle
p2208
atp2209
a(L711923870L
L0L
(lp2210
(lp2211
tp2212
a(L3507311156L
L3785322319L
(lp2213
(lp2214
Vbootloader_execute_flash_command
p2215
atp2216
a(L4103218025L
L0L
(lp2217
(lp2218
tp2219
a(L2529045083L
L0L
(lp2220
(lp2221
tp2222
a(L1175784077L
L1832448559L
(lp2223
(lp2224
Vesp_rom_spiflash_wait_idle
p2225
aVbootloader_execute_flash_command
p2226
aVbootloader_execute_flash_command
p2227
atp2228
a(L106L
L0L
(lp2229
(lp2230
tp2231
a(L594961218L
L1880226080L
(lp2232
(lp2233
Vesp_rom_spiflash_wait_idle
p2234
aVbootloader_execute_flash_command
p2235
atp2236
a(L2993202392L
L0L
(lp2237
(lp2238
tp2239
a(L610618707L
L0L
(lp2240
(lp2241
tp2242
a(L2843273676L
L0L
(lp2243
(lp2244
tp2245
a(L192015437L
L0L
(lp2246
(lp2247
tp2248
a(L3154322046L
L1880226080L
(lp2249
(lp2250
Vbootloader_execute_flash_command
p2251
aVbootloader_execute_flash_command
p2252
atp2253
a(L1303560644L
L0L
(lp2254
(lp2255
tp2256
a(L1711531685L
L1880226080L
(lp2257
(lp2258
Vbootloader_execute_flash_command
p2259
aVbootloader_execute_flash_command
p2260
atp2261
a(L3658700047L
L0L
(lp2262
(lp2263
tp2264
a(L3430607254L
L0L
(lp2265
(lp2266
tp2267
a(L106L
L0L
(lp2268
(lp2269
tp2270
a(L1876788132L
L1832448559L
(lp2271
(lp2272
Vesp_rom_spiflash_wait_idle
p2273
aVbootloader_execute_flash_command
p2274
aVbootloader_execute_flash_command
p2275
atp2276
atp2277
sI1074234772
(Vbootloader_flash_execute_command_common
p2278
(lp2279
(L3865052895L
L0L
(lp2280
(lp2281
tp2282
a(L3287175997L
L0L
(lp2283
(lp2284
tp2285
a(L4121451103L
L3785322319L
(lp2286
(lp2287
V__assert_func
p2288
atp2289
a(L3021749L
L0L
(lp2290
(lp2291
tp2292
a(L3999871943L
L0L
(lp2293
(lp2294
tp2295
a(L543316797L
L0L
(lp2296
(lp2297
tp2298
a(L2091933878L
L0L
(lp2299
(lp2300
tp2301
a(L1702379862L
L0L
(lp2302
(lp2303
tp2304
a(L3432464320L
L0L
(lp2305
(lp2306
tp2307
a(L3539375712L
L0L
(lp2308
(lp2309
tp2310
a(L3244449450L
L0L
(lp2311
(lp2312
tp2313
a(L4233404408L
L0L
(lp2314
(lp2315
tp2316
a(L2990329343L
L0L
(lp2317
(lp2318
tp2319
a(L2051090536L
L0L
(lp2320
(lp2321
tp2322
a(L3333696662L
L0L
(lp2323
(lp2324
tp2325
a(L963425213L
L0L
(lp2326
(lp2327
tp2328
a(L339491738L
L0L
(lp2329
(lp2330
tp2331
a(L3360570486L
L0L
(lp2332
(lp2333
tp2334
atp2335
sI1074245012
(Vrtc_clk_bbpll_disable
p2336
(lp2337
(L3905321210L
L0L
(lp2338
(lp2339
tp2340
a(L2472207241L
L0L
(lp2341
(lp2342
tp2343
a(L3360570486L
L0L
(lp2344
(lp2345
tp2346
atp2347
sI1074268060
(Vbootloader_init
p2348
(lp2349
(L1256100286L
L3785322319L
(lp2350
(lp2351
Vbootloader_init_mem
p2352
atp2353
a(L496177411L
L0L
(lp2354
(lp2355
tp2356
a(L2027378118L
L3785322319L
(lp2357
(lp2358
V__assert_func
p2359
atp2360
a(L408886226L
L0L
(lp2361
(lp2362
tp2363
a(L2892662435L
L0L
(lp2364
(lp2365
tp2366
a(L3813782018L
L0L
(lp2367
(lp2368
tp2369
a(L3379255958L
L0L
(lp2370
(lp2371
tp2372
a(L3027019L
L0L
(lp2373
(lp2374
tp2375
a(L3949229104L
L0L
(lp2376
(lp2377
tp2378
a(L2930141052L
L1157885199L
(lp2379
(lp2380
Vbootloader_clear_bss_section
p2381
aVesp_log_early_timestamp
p2382
aVesp_efuse_init_virtual_mode_in_ram
p2383
aVbootloader_common_vddsdio_configure
p2384
aVbootloader_clock_get_rated_freq_mhz
p2385
atp2386
a(L106L
L0L
(lp2387
(lp2388
tp2389
a(L2552272926L
L1157885199L
(lp2390
(lp2391
Vbootloader_clock_configure
p2392
aVbootloader_console_init
p2393
aVbootloader_print_banner
p2394
aVbootloader_flash_update_id
p2395
aVbootloader_flash_xmc_startup
p2396
atp2397
a(L2135638168L
L3785322319L
(lp2398
(lp2399
Vesp_log_early_timestamp
p2400
atp2401
a(L3352007847L
L3785322319L
(lp2402
(lp2403
Vesp_log_early_timestamp
p2404
atp2405
a(L3360570486L
L0L
(lp2406
(lp2407
tp2408
a(L2444883382L
L3785322319L
(lp2409
(lp2410
Vbootloader_read_bootloader_header
p2411
atp2412
a(L2444883382L
L3785322319L
(lp2413
(lp2414
Vbootloader_check_bootloader_validity
p2415
atp2416
a(L2444883382L
L3785322319L
(lp2417
(lp2418
Vbootloader_init_spi_flash
p2419
atp2420
a(L2583239040L
L0L
(lp2421
(lp2422
tp2423
a(L254817508L
L0L
(lp2424
(lp2425
tp2426
a(L93892250L
L0L
(lp2427
(lp2428
tp2429
a(L2915015718L
L0L
(lp2430
(lp2431
tp2432
a(L3320146787L
L1880226080L
(lp2433
(lp2434
Vbootloader_config_wdt
p2435
aVbootloader_enable_random
p2436
atp2437
a(L1895147938L
L0L
(lp2438
(lp2439
tp2440
a(L2483943754L
L0L
(lp2441
(lp2442
tp2443
a(L3027019L
L0L
(lp2444
(lp2445
tp2446
a(L97315L
L0L
(lp2447
(lp2448
tp2449
a(L4247117665L
L3785322319L
(lp2450
(lp2451
Vesp_log_early_timestamp
p2452
atp2453
a(L2415975085L
L3785322319L
(lp2454
(lp2455
Vesp_log_early_timestamp
p2456
atp2457
a(L1873516030L
L0L
(lp2458
(lp2459
tp2460
a(L1895147938L
L0L
(lp2461
(lp2462
tp2463
a(L156585483L
L1880226080L
(lp2464
(lp2465
Vwdt_reset_info_dump
p2466
aVwdt_reset_info_dump
p2467
atp2468
atp2469
sI1074236568
(Vesp_rom_uart_tx_wait_idle
p2470
(lp2471
(L2849601099L
L0L
(lp2472
(lp2473
tp2474
a(L1301079727L
L0L
(lp2475
(lp2476
tp2477
a(L597952197L
L0L
(lp2478
(lp2479
tp2480
a(L1971823332L
L0L
(lp2481
(lp2482
tp2483
a(L3055926844L
L0L
(lp2484
(lp2485
tp2486
a(L3360570486L
L0L
(lp2487
(lp2488
tp2489
a(L3694491048L
L0L
(lp2490
(lp2491
tp2492
a(L106L
L0L
(lp2493
(lp2494
tp2495
atp2496
sI1074238872
(Vcache_ll_l1_enable_bus
p2497
(lp2498
(L1408514293L
L0L
(lp2499
(lp2500
tp2501
atp2502
sI1074247576
(Vesp_rom_spiflash_wait_idle
p2503
(lp2504
(L3233076620L
L0L
(lp2505
(lp2506
tp2507
a(L2023766174L
L0L
(lp2508
(lp2509
tp2510
a(L2805934577L
L0L
(lp2511
(lp2512
tp2513
a(L3086959262L
L0L
(lp2514
(lp2515
tp2516
a(L4161019926L
L3785322319L
(lp2517
(lp2518
Vesp_rom_spiflash_read_status
p2519
atp2520
atp2521
sI1074268584
(Vbootloader_common_vddsdio_configure
p2522
(lp2523
(L1829974089L
L3785322319L
(lp2524
(lp2525
Vrtc_vddsdio_get_config
p2526
atp2527
a(L2050112181L
L3785322319L
(lp2528
(lp2529
Vrtc_vddsdio_set_config
p2530
atp2531
a(L3360570486L
L0L
(lp2532
(lp2533
tp2534
atp2535
sI1074243236
(Vesp_partition_table_verify
p2536
(lp2537
(L3052823174L
L0L
(lp2538
(lp2539
tp2540
a(L1787509322L
L0L
(lp2541
(lp2542
tp2543
a(L1184829782L
L0L
(lp2544
(lp2545
tp2546
a(L3020204L
L0L
(lp2547
(lp2548
tp2549
a(L2512375030L
L3785322319L
(lp2550
(lp2551
Vesp_log_early_timestamp
p2552
atp2553
a(L1235012963L
L0L
(lp2554
(lp2555
tp2556
a(L3190337587L
L0L
(lp2557
(lp2558
tp2559
a(L2069928857L
L0L
(lp2560
(lp2561
tp2562
a(L2902417580L
L0L
(lp2563
(lp2564
tp2565
a(L1997576908L
L3785322319L
(lp2566
(lp2567
Vesp_log_early_timestamp
p2568
atp2569
a(L1535212808L
L0L
(lp2570
(lp2571
tp2572
a(L3020204L
L0L
(lp2573
(lp2574
tp2575
a(L3020204L
L0L
(lp2576
(lp2577
tp2578
a(L757174634L
L3785322319L
(lp2579
(lp2580
Vesp_log_early_timestamp
p2581
atp2582
a(L3833270346L
L0L
(lp2583
(lp2584
tp2585
a(L1235012932L
L0L
(lp2586
(lp2587
tp2588
a(L3307599839L
L0L
(lp2589
(lp2590
tp2591
a(L3020204L
L0L
(lp2592
(lp2593
tp2594
a(L1997576660L
L3785322319L
(lp2595
(lp2596
Vesp_log_early_timestamp
p2597
atp2598
a(L1305407469L
L0L
(lp2599
(lp2600
tp2601
a(L1167861556L
L0L
(lp2602
(lp2603
tp2604
a(L818997085L
L0L
(lp2605
(lp2606
tp2607
a(L3360570486L
L0L
(lp2608
(lp2609
tp2610
a(L3020204L
L0L
(lp2611
(lp2612
tp2613
a(L912913761L
L3785322319L
(lp2614
(lp2615
Vesp_log_early_timestamp
p2616
atp2617
atp2618
sI1074245284
(Vrtc_clk_8md256_enabled
p2619
(lp2620
(L3280891619L
L0L
(lp2621
(lp2622
tp2623
atp2624
sI1074270112
(Vrtc_clk_xtal_freq_estimate
p2625
(lp2626
(L1823831978L
L1880226080L
(lp2627
(lp2628
Vrtc_clk_8m_enabled
p2629
aVrtc_clk_8md256_enabled
p2630
atp2631
a(L2449794434L
L3785322319L
(lp2632
(lp2633
Vrtc_clk_8m_enable
p2634
atp2635
a(L1676779387L
L3785322319L
(lp2636
(lp2637
Vrtc_clk_cal_ratio
p2638
atp2639
a(L3934977694L
L0L
(lp2640
(lp2641
tp2642
a(L3955289886L
L0L
(lp2643
(lp2644
tp2645
a(L2465140417L
L3785322319L
(lp2646
(lp2647
Vesp_log_early_timestamp
p2648
atp2649
a(L2307427870L
L0L
(lp2650
(lp2651
tp2652
a(L1281346514L
L3785322319L
(lp2653
(lp2654
Vrtc_clk_8m_enable
p2655
atp2656
a(L3909119106L
L0L
(lp2657
(lp2658
tp2659
a(L3754617105L
L3785322319L
(lp2660
(lp2661
Vesp_log_early_timestamp
p2662
atp2663
a(L3304487880L
L0L
(lp2664
(lp2665
tp2666
a(L1641150486L
L0L
(lp2667
(lp2668
tp2669
a(L452510405L
L3785322319L
(lp2670
(lp2671
Vesp_log_early_timestamp
p2672
atp2673
atp2674
sI1074270884
(Vrtc_vddsdio_set_config
p2675
(lp2676
(L2493392603L
L0L
(lp2677
(lp2678
tp2679
atp2680
sI1074237352
(Vbootloader_common_select_otadata
p2681
(lp2682
(L4071767857L
L0L
(lp2683
(lp2684
tp2685
a(L1999329187L
L0L
(lp2686
(lp2687
tp2688
a(L3846398843L
L0L
(lp2689
(lp2690
tp2691
a(L2501968171L
L0L
(lp2692
(lp2693
tp2694
a(L3360570486L
L0L
(lp2695
(lp2696
tp2697
a(L2045232488L
L0L
(lp2698
(lp2699
tp2700
a(L1243525916L
L0L
(lp2701
(lp2702
tp2703
a(L3094144427L
L0L
(lp2704
(lp2705
tp2706
a(L2399509845L
L0L
(lp2707
(lp2708
tp2709
a(L1641201884L
L0L
(lp2710
(lp2711
tp2712
atp2713
sI1074245544
(Vrtc_clk_fast_src_get
p2714
(lp2715
(L2355769504L
L0L
(lp2716
(lp2717
tp2718
atp2719
sI1074269368
(Vbootloader_flash_update_id
p2720
(lp2721
(L3655534022L
L3785322319L
(lp2722
(lp2723
Vbootloader_read_flash_id
p2724
atp2725
atp2726
sI1074235572
(Vbootloader_flash_read_sfdp
p2727
(lp2728
(L711701400L
L0L
(lp2729
(lp2730
tp2731
a(L3305374083L
L3785322319L
(lp2732
(lp2733
V__assert_func
p2734
atp2735
a(L3704332455L
L3785322319L
(lp2736
(lp2737
Vbootloader_flash_execute_command_common
p2738
atp2739
atp2740
sI1074242740
(Vimage_load
p2741
(lp2742
(L3048705773L
L0L
(lp2743
(lp2744
tp2745
a(L3463713141L
L0L
(lp2746
(lp2747
tp2748
a(L3309803581L
L0L
(lp2749
(lp2750
tp2751
a(L256049682L
L0L
(lp2752
(lp2753
tp2754
a(L1935188817L
L0L
(lp2755
(lp2756
tp2757
a(L3028481L
L0L
(lp2758
(lp2759
tp2760
a(L3021749L
L0L
(lp2761
(lp2762
tp2763
a(L106L
L0L
(lp2764
(lp2765
tp2766
a(L585264737L
L0L
(lp2767
(lp2768
tp2769
a(L1145291904L
L3785322319L
(lp2770
(lp2771
Vprocess_image_header
p2772
atp2773
a(L823859500L
L0L
(lp2774
(lp2775
tp2776
a(L3061291474L
L0L
(lp2777
(lp2778
tp2779
a(L4106474008L
L3785322319L
(lp2780
(lp2781
Vprocess_segments
p2782
atp2783
a(L3868840998L
L0L
(lp2784
(lp2785
tp2786
a(L2539156582L
L0L
(lp2787
(lp2788
tp2789
a(L1827898452L
L3785322319L
(lp2790
(lp2791
Vprocess_checksum
p2792
atp2793
a(L2214715179L
L3785322319L
(lp2794
(lp2795
Vprocess_appended_hash_and_sig
p2796
atp2797
a(L3028481L
L0L
(lp2798
(lp2799
tp2800
a(L2902417580L
L0L
(lp2801
(lp2802
tp2803
a(L3285560995L
L3785322319L
(lp2804
(lp2805
Vbootloader_sha256_finish
p2806
atp2807
a(L3946560000L
L0L
(lp2808
(lp2809
tp2810
a(L93674324L
L0L
(lp2811
(lp2812
tp2813
a(L1697897005L
L0L
(lp2814
(lp2815
tp2816
a(L772115669L
L0L
(lp2817
(lp2818
tp2819
a(L1179424413L
L0L
(lp2820
(lp2821
tp2822
a(L3928150917L
L0L
(lp2823
(lp2824
tp2825
a(L106L
L0L
(lp2826
(lp2827
tp2828
a(L3871473710L
L0L
(lp2829
(lp2830
tp2831
a(L3884726427L
L0L
(lp2832
(lp2833
tp2834
a(L106L
L0L
(lp2835
(lp2836
tp2837
a(L3020187L
L0L
(lp2838
(lp2839
tp2840
a(L1154787525L
L3785322319L
(lp2841
(lp2842
Vesp_log_early_timestamp
p2843
atp2844
a(L2868044067L
L0L
(lp2845
(lp2846
tp2847
a(L1179764900L
L0L
(lp2848
(lp2849
tp2850
a(L2332746046L
L3785322319L
(lp2851
(lp2852
Vbootloader_sha256_finish
p2853
atp2854
a(L2040089937L
L0L
(lp2855
(lp2856
tp2857
a(L3020204L
L0L
(lp2858
(lp2859
tp2860
a(L2321110974L
L0L
(lp2861
(lp2862
tp2863
a(L106L
L0L
(lp2864
(lp2865
tp2866
a(L4011122867L
L1880226080L
(lp2867
(lp2868
Vbootloader_sha256_finish
p2869
aVbootloader_debug_buffer
p2870
atp2871
a(L4175189927L
L1880226080L
(lp2872
(lp2873
Vesp_log_early_timestamp
p2874
aVbootloader_debug_buffer
p2875
atp2876
a(L3741653406L
L3785322319L
(lp2877
(lp2878
Vshould_load
p2879
atp2880
a(L2764257181L
L0L
(lp2881
(lp2882
tp2883
a(L3338774213L
L0L
(lp2884
(lp2885
tp2886
a(L3464541874L
L0L
(lp2887
(lp2888
tp2889
a(L3349572949L
L0L
(lp2890
(lp2891
tp2892
a(L2192292519L
L0L
(lp2893
(lp2894
tp2895
a(L106L
L0L
(lp2896
(lp2897
tp2898
a(L26615924L
L0L
(lp2899
(lp2900
tp2901
a(L1299866312L
L0L
(lp2902
(lp2903
tp2904
a(L3010020263L
L0L
(lp2905
(lp2906
tp2907
atp2908
sI1074244532
(Vwdt_hal_write_protect_enable
p2909
(lp2910
(L387778158L
L0L
(lp2911
(lp2912
tp2913
a(L4195472003L
L0L
(lp2914
(lp2915
tp2916
a(L3360570486L
L0L
(lp2917
(lp2918
tp2919
a(L802523425L
L0L
(lp2920
(lp2921
tp2922
atp2923
sI1074267836
(Vwdt_reset_info_dump
p2924
(lp2925
(L4037458708L
L0L
(lp2926
(lp2927
tp2928
a(L522353410L
L0L
(lp2929
(lp2930
tp2931
a(L217258670L
L0L
(lp2932
(lp2933
tp2934
a(L1103285333L
L0L
(lp2935
(lp2936
tp2937
a(L4222762845L
L3785322319L
(lp2938
(lp2939
Vesp_log_early_timestamp
p2940
atp2941
a(L2967992533L
L0L
(lp2942
(lp2943
tp2944
a(L1493818067L
L0L
(lp2945
(lp2946
tp2947
a(L4025433257L
L3785322319L
(lp2948
(lp2949
Vesp_log_early_timestamp
p2950
atp2951
atp2952
sI1074243504
(Vwdt_hal_init
p2953
(lp2954
(L584362441L
L0L
(lp2955
(lp2956
tp2957
a(L106L
L0L
(lp2958
(lp2959
tp2960
a(L2104869666L
L0L
(lp2961
(lp2962
tp2963
a(L3076988543L
L0L
(lp2964
(lp2965
tp2966
a(L3642440310L
L0L
(lp2967
(lp2968
tp2969
a(L3028464L
L0L
(lp2970
(lp2971
tp2972
a(L826451645L
L0L
(lp2973
(lp2974
tp2975
a(L2196941787L
L0L
(lp2976
(lp2977
tp2978
a(L26809647L
L0L
(lp2979
(lp2980
tp2981
a(L3360570486L
L0L
(lp2982
(lp2983
tp2984
atp2985
sI1074240432
(Vbootloader_debug_buffer
p2986
(lp2987
(L2100504542L
L0L
(lp2988
(lp2989
tp2990
atp2991
sI1074235824
(Vbootloader_flash_cs_timing_config
p2992
(lp2993
(L1940014330L
L0L
(lp2994
(lp2995
tp2996
atp2997
sI1074245308
(Vrtc_clk_slow_src_set
p2998
(lp2999
(L351921003L
L0L
(lp3000
(lp3001
tp3002
a(L3020187L
L0L
(lp3003
(lp3004
tp3005
a(L3028481L
L0L
(lp3006
(lp3007
tp3008
a(L487821223L
L0L
(lp3009
(lp3010
tp3011
a(L2160049175L
L0L
(lp3012
(lp3013
tp3014
a(L1851908495L
L0L
(lp3015
(lp3016
tp3017
a(L382170874L
L0L
(lp3018
(lp3019
tp3020
a(L3138544334L
L0L
(lp3021
(lp3022
tp3023
a(L94425498L
L3785322319L
(lp3024
(lp3025
Vabort
p3026
atp3027
atp3028
sI1074238136
(Vbootloader_enable_wp
p3029
(lp3030
(L1117825804L
L3785322319L
(lp3031
(lp3032
Vbootloader_execute_flash_command
p3033
atp3034
atp3035
sI1074240440
(Vbootloader_sha256_start
p3036
(lp3037
(L260677377L
L0L
(lp3038
(lp3039
tp3040
atp3041
sI1074245560
(Vrtc_clk_xtal_freq_get
p3042
(lp3043
(L1996970978L
L0L
(lp3044
(lp3045
tp3046
a(L2847936993L
L0L
(lp3047
(lp3048
tp3049
a(L2568986948L
L0L
(lp3050
(lp3051
tp3052
a(L3360570486L
L0L
(lp3053
(lp3054
tp3055
atp3056
sI1074268872
(Vbootloader_init_mem
p3057
(lp3058
(L1287383080L
L3785322319L
(lp3059
(lp3060
Vesp_cpu_configure_region_protection
p3061
atp3062
atp3063
sI1074269384
(Vbootloader_init_spi_flash
p3064
(lp3065
(L1088630924L
L2485746240L
(lp3066
(lp3067
Vbootloader_flash_gpio_config
p3068
aVbootloader_flash_dummy_config
p3069
aVbootloader_flash_cs_timing_config
p3070
aVbootloader_flash_unlock
p3071
atp3072
a(L583727957L
L0L
(lp3073
(lp3074
tp3075
a(L3656553569L
L0L
(lp3076
(lp3077
tp3078
a(L3201442128L
L0L
(lp3079
(lp3080
tp3081
a(L2581073534L
L3785322319L
(lp3082
(lp3083
Vesp_log_early_timestamp
p3084
atp3085
a(L2181322157L
L0L
(lp3086
(lp3087
tp3088
a(L2221033560L
L0L
(lp3089
(lp3090
tp3091
a(L2202563140L
L0L
(lp3092
(lp3093
tp3094
a(L2209950812L
L0L
(lp3095
(lp3096
tp3097
a(L703426226L
L0L
(lp3098
(lp3099
tp3100
a(L569720674L
L3785322319L
(lp3101
(lp3102
Vesp_log_early_timestamp
p3103
atp3104
a(L93674324L
L0L
(lp3105
(lp3106
tp3107
a(L2913353934L
L0L
(lp3108
(lp3109
tp3110
a(L3742441005L
L0L
(lp3111
(lp3112
tp3113
a(L460460188L
L0L
(lp3114
(lp3115
tp3116
a(L3785854769L
L0L
(lp3117
(lp3118
tp3119
a(L3783881507L
L3785322319L
(lp3120
(lp3121
Vesp_log_early_timestamp
p3122
atp3123
a(L93674324L
L0L
(lp3124
(lp3125
tp3126
a(L3422553167L
L0L
(lp3127
(lp3128
tp3129
a(L1707909459L
L0L
(lp3130
(lp3131
tp3132
a(L4101522284L
L0L
(lp3133
(lp3134
tp3135
a(L1916924937L
L3785322319L
(lp3136
(lp3137
Vbootloader_enable_wp
p3138
atp3139
a(L3907331784L
L0L
(lp3140
(lp3141
tp3142
atp3143
sI1074236864
(Vefuse_hal_get_minor_chip_version
p3144
(lp3145
(L2721608854L
L0L
(lp3146
(lp3147
tp3148
atp3149
sI1074238656
(Vcache_ll_l1_get_bus
p3150
(lp3151
(L3820023252L
L0L
(lp3152
(lp3153
tp3154
a(L94425498L
L3785322319L
(lp3155
(lp3156
Vabort
p3157
atp3158
a(L3179088012L
L0L
(lp3159
(lp3160
tp3161
a(L3485549502L
L0L
(lp3162
(lp3163
tp3164
a(L892952750L
L0L
(lp3165
(lp3166
tp3167
a(L1182811810L
L0L
(lp3168
(lp3169
tp3170
a(L1101742417L
L0L
(lp3171
(lp3172
tp3173
a(L1100767927L
L0L
(lp3174
(lp3175
tp3176
a(L3360570486L
L0L
(lp3177
(lp3178
tp3179
a(L2767111967L
L0L
(lp3180
(lp3181
tp3182
a(L2882938163L
L0L
(lp3183
(lp3184
tp3185
a(L2927201858L
L0L
(lp3186
(lp3187
tp3188
a(L2258718273L
L0L
(lp3189
(lp3190
tp3191
a(L2580713941L
L0L
(lp3192
(lp3193
tp3194
a(L2748641547L
L0L
(lp3195
(lp3196
tp3197
a(L2752340901L
L0L
(lp3198
(lp3199
tp3200
a(L1641149277L
L0L
(lp3201
(lp3202
tp3203
a(L3211405977L
L0L
(lp3204
(lp3205
tp3206
a(L3027019L
L0L
(lp3207
(lp3208
tp3209
a(L1299866560L
L0L
(lp3210
(lp3211
tp3212
a(L1299866436L
L0L
(lp3213
(lp3214
tp3215
atp3216
sI1074247872
(Vesp_rom_spiflash_erase_sector
p3217
(lp3218
(L588217598L
L0L
(lp3219
(lp3220
tp3221
a(L2258688483L
L0L
(lp3222
(lp3223
tp3224
a(L3360570486L
L0L
(lp3225
(lp3226
tp3227
a(L3212356251L
L3785322319L
(lp3228
(lp3229
Vesp_rom_spiflash_enable_write
p3230
atp3231
a(L184152988L
L0L
(lp3232
(lp3233
tp3234
a(L1423838619L
L3785322319L
(lp3235
(lp3236
Vesp_rom_spiflash_wait_idle
p3237
atp3238
a(L3333707777L
L0L
(lp3239
(lp3240
tp3241
a(L3582858798L
L3785322319L
(lp3242
(lp3243
Vesp_rom_spiflash_wait_idle
p3244
atp3245
atp3246
sI1074240460
(Vbootloader_sha256_data
p3247
(lp3248
(L4066096136L
L0L
(lp3249
(lp3250
tp3251
a(L110883720L
L0L
(lp3252
(lp3253
tp3254
a(L3884092851L
L3785322319L
(lp3255
(lp3256
V__assert_func
p3257
atp3258
a(L498498478L
L0L
(lp3259
(lp3260
tp3261
a(L534463199L
L0L
(lp3262
(lp3263
tp3264
a(L2910371777L
L0L
(lp3265
(lp3266
tp3267
a(L3360570486L
L0L
(lp3268
(lp3269
tp3270
a(L1788837773L
L0L
(lp3271
(lp3272
tp3273
a(L248495140L
L0L
(lp3274
(lp3275
tp3276
a(L106045974L
L0L
(lp3277
(lp3278
tp3279
a(L4275021735L
L0L
(lp3280
(lp3281
tp3282
a(L814105420L
L0L
(lp3283
(lp3284
tp3285
a(L1394964493L
L0L
(lp3286
(lp3287
tp3288
a(L2437413408L
L0L
(lp3289
(lp3290
tp3291
a(L702738185L
L0L
(lp3292
(lp3293
tp3294
a(L3745004802L
L0L
(lp3295
(lp3296
tp3297
atp3298
sI1074238924
(Vload_image
p3299
(lp3300
(L4055976749L
L1832448559L
(lp3301
(lp3302
Vesp_log_early_timestamp
p3303
aVbootloader_random_disable
p3304
aVbootloader_ana_clock_glitch_reset_config
p3305
atp3306
a(L2261049225L
L0L
(lp3307
(lp3308
tp3309
a(L106L
L0L
(lp3310
(lp3311
tp3312
a(L452592812L
L3758435744L
(lp3313
(lp3314
Vmmu_hal_unmap_all
p3315
aVcache_ll_l1_get_bus
p3316
aVcache_ll_l1_enable_bus
p3317
aVcache_ll_l1_get_bus
p3318
aVcache_ll_l1_enable_bus
p3319
aVcache_ll_l1_get_bus
p3320
aVcache_ll_l1_enable_bus
p3321
aVcache_ll_l1_get_bus
p3322
aVcache_ll_l1_enable_bus
p3323
aVbootloader_console_deinit
p3324
atp3325
a(L1385141500L
L0L
(lp3326
(lp3327
tp3328
a(L2902417580L
L0L
(lp3329
(lp3330
tp3331
a(L4167095070L
L3785322319L
(lp3332
(lp3333
Vesp_log_early_timestamp
p3334
atp3335
a(L2552261596L
L0L
(lp3336
(lp3337
tp3338
a(L70617440L
L0L
(lp3339
(lp3340
tp3341
a(L3020204L
L0L
(lp3342
(lp3343
tp3344
a(L1040324029L
L3785322319L
(lp3345
(lp3346
Vesp_log_early_timestamp
p3347
atp3348
a(L3291469664L
L0L
(lp3349
(lp3350
tp3351
a(L2591655545L
L0L
(lp3352
(lp3353
tp3354
atp3355
sI1074238156
(Vbootloader_mmap_get_free_pages
p3356
(lp3357
(L1496516875L
L0L
(lp3358
(lp3359
tp3360
atp3361
sI1074245832
(Vrtc_clk_xtal_freq_update
p3362
(lp3363
(L1600643482L
L0L
(lp3364
(lp3365
tp3366
a(L3509357017L
L0L
(lp3367
(lp3368
tp3369
a(L2266180931L
L0L
(lp3370
(lp3371
tp3372
atp3373
sI1074247624
(Vesp_rom_spiflash_enable_write
p3374
(lp3375
(L3454951103L
L3785322319L
(lp3376
(lp3377
Vesp_rom_spiflash_wait_idle
p3378
atp3379
a(L3333707777L
L0L
(lp3380
(lp3381
tp3382
a(L2258688484L
L0L
(lp3383
(lp3384
tp3385
a(L99543895L
L0L
(lp3386
(lp3387
tp3388
a(L2993202392L
L0L
(lp3389
(lp3390
tp3391
a(L3672363389L
L3785322319L
(lp3392
(lp3393
Vesp_rom_spiflash_read_status
p3394
atp3395
atp3396
sI1074238164
(Vbootloader_fill_random
p3397
(lp3398
(L1233865241L
L0L
(lp3399
(lp3400
tp3401
a(L3569542132L
L3785322319L
(lp3402
(lp3403
V__assert_func
p3404
atp3405
a(L1882547218L
L0L
(lp3406
(lp3407
tp3408
a(L2910371777L
L0L
(lp3409
(lp3410
tp3411
a(L95634693L
L0L
(lp3412
(lp3413
tp3414
a(L3630908706L
L0L
(lp3415
(lp3416
tp3417
a(L160162640L
L0L
(lp3418
(lp3419
tp3420
a(L97689L
L0L
(lp3421
(lp3422
tp3423
a(L3360570486L
L0L
(lp3424
(lp3425
tp3426
atp3427
sI1074242000
(Vprocess_segments
p3428
(lp3429
(L1326203493L
L0L
(lp3430
(lp3431
tp3432
a(L1640778736L
L0L
(lp3433
(lp3434
tp3435
a(L3782401745L
L0L
(lp3436
(lp3437
tp3438
a(L106L
L0L
(lp3439
(lp3440
tp3441
a(L3028481L
L0L
(lp3442
(lp3443
tp3444
a(L1742099198L
L3785322319L
(lp3445
(lp3446
Vesp_log_early_timestamp
p3447
atp3448
a(L761135359L
L3785322319L
(lp3449
(lp3450
Vbootloader_flash_read
p3451
atp3452
a(L3061347840L
L3785322319L
(lp3453
(lp3454
Vesp_log_early_timestamp
p3455
atp3456
a(L3871473710L
L0L
(lp3457
(lp3458
tp3459
a(L219417435L
L0L
(lp3460
(lp3461
tp3462
a(L616767314L
L3785322319L
(lp3463
(lp3464
Vbootloader_sha256_data
p3465
atp3466
a(L707062298L
L0L
(lp3467
(lp3468
tp3469
a(L2258837437L
L0L
(lp3470
(lp3471
tp3472
a(L1764156528L
L0L
(lp3473
(lp3474
tp3475
a(L3028481L
L0L
(lp3476
(lp3477
tp3478
a(L254329145L
L3785322319L
(lp3479
(lp3480
Vesp_log_early_timestamp
p3481
atp3482
a(L568253874L
L0L
(lp3483
(lp3484
tp3485
a(L2349343057L
L0L
(lp3486
(lp3487
tp3488
a(L3802069243L
L0L
(lp3489
(lp3490
tp3491
a(L3794462993L
L0L
(lp3492
(lp3493
tp3494
a(L2258867228L
L0L
(lp3495
(lp3496
tp3497
a(L2277415887L
L0L
(lp3498
(lp3499
tp3500
a(L3177376558L
L0L
(lp3501
(lp3502
tp3503
a(L3028481L
L0L
(lp3504
(lp3505
tp3506
a(L113671451L
L3785322319L
(lp3507
(lp3508
Vesp_log_early_timestamp
p3509
atp3510
a(L2640606608L
L0L
(lp3511
(lp3512
tp3513
a(L3028481L
L0L
(lp3514
(lp3515
tp3516
a(L1304081863L
L3785322319L
(lp3517
(lp3518
Vesp_log_early_timestamp
p3519
atp3520
a(L3312579080L
L0L
(lp3521
(lp3522
tp3523
a(L2902417580L
L0L
(lp3524
(lp3525
tp3526
a(L2902417580L
L0L
(lp3527
(lp3528
tp3529
a(L1229952296L
L3785322319L
(lp3530
(lp3531
Vverify_load_addresses
p3532
atp3533
a(L3783935185L
L3785322319L
(lp3534
(lp3535
Vbootloader_mmap_get_free_pages
p3536
atp3537
a(L3028481L
L0L
(lp3538
(lp3539
tp3540
a(L224879076L
L0L
(lp3541
(lp3542
tp3543
a(L142590671L
L0L
(lp3544
(lp3545
tp3546
a(L3028481L
L0L
(lp3547
(lp3548
tp3549
a(L94425498L
L3785322319L
(lp3550
(lp3551
Vesp_log_early_timestamp
p3552
atp3553
a(L2482970521L
L0L
(lp3554
(lp3555
tp3556
a(L4085121624L
L3785322319L
(lp3557
(lp3558
Vshould_load
p3559
atp3560
a(L3028481L
L0L
(lp3561
(lp3562
tp3563
a(L3799683059L
L3785322319L
(lp3564
(lp3565
Vesp_log_early_timestamp
p3566
atp3567
a(L106L
L0L
(lp3568
(lp3569
tp3570
a(L3815630522L
L0L
(lp3571
(lp3572
tp3573
a(L1373549761L
L3785322319L
(lp3574
(lp3575
Vesp_log_early_timestamp
p3576
atp3577
a(L2629678223L
L0L
(lp3578
(lp3579
tp3580
a(L2684012095L
L0L
(lp3581
(lp3582
tp3583
a(L3357777304L
L3785322319L
(lp3584
(lp3585
Vbootloader_mmap
p3586
atp3587
a(L4263532617L
L3785322319L
(lp3588
(lp3589
Vesp_log_early_timestamp
p3590
atp3591
a(L1698460186L
L0L
(lp3592
(lp3593
tp3594
a(L719832453L
L0L
(lp3595
(lp3596
tp3597
a(L642150438L
L0L
(lp3598
(lp3599
tp3600
a(L1595421496L
L3785322319L
(lp3601
(lp3602
Vbootloader_munmap
p3603
atp3604
a(L2757579158L
L0L
(lp3605
(lp3606
tp3607
a(L2356270618L
L3785322319L
(lp3608
(lp3609
Vbootloader_fill_random
p3610
atp3611
a(L3277879431L
L0L
(lp3612
(lp3613
tp3614
a(L3281573515L
L0L
(lp3615
(lp3616
tp3617
a(L3450268858L
L0L
(lp3618
(lp3619
tp3620
a(L3021749L
L0L
(lp3621
(lp3622
tp3623
a(L322434465L
L0L
(lp3624
(lp3625
tp3626
a(L2494883302L
L0L
(lp3627
(lp3628
tp3629
a(L2902417580L
L0L
(lp3630
(lp3631
tp3632
a(L2991893400L
L0L
(lp3633
(lp3634
tp3635
a(L22854698L
L0L
(lp3636
(lp3637
tp3638
a(L1426980959L
L0L
(lp3639
(lp3640
tp3641
a(L1841482652L
L0L
(lp3642
(lp3643
tp3644
a(L653501462L
L0L
(lp3645
(lp3646
tp3647
a(L3310548426L
L3785322319L
(lp3648
(lp3649
Vbootloader_sha256_data
p3650
atp3651
a(L90548756L
L0L
(lp3652
(lp3653
tp3654
a(L708495868L
L0L
(lp3655
(lp3656
tp3657
a(L2364005371L
L0L
(lp3658
(lp3659
tp3660
atp3661
sI1074239440
(Vbootloader_utility_load_partition_table
p3662
(lp3663
(L3976765673L
L3785322319L
(lp3664
(lp3665
Vbootloader_mmap
p3666
atp3667
a(L649959027L
L3785322319L
(lp3668
(lp3669
Vesp_log_early_timestamp
p3670
atp3671
a(L2258688482L
L0L
(lp3672
(lp3673
tp3674
a(L3360570486L
L0L
(lp3675
(lp3676
tp3677
a(L2379286607L
L3785322319L
(lp3678
(lp3679
Vesp_partition_table_verify
p3680
atp3681
a(L1285285103L
L3785322319L
(lp3682
(lp3683
Vesp_log_early_timestamp
p3684
atp3685
a(L529589784L
L1880226080L
(lp3686
(lp3687
Vesp_log_early_timestamp
p3688
aVesp_log_early_timestamp
p3689
atp3690
a(L650140130L
L0L
(lp3691
(lp3692
tp3693
a(L1145912169L
L1880226080L
(lp3694
(lp3695
Vbootloader_munmap
p3696
aVesp_log_early_timestamp
p3697
atp3698
a(L521126897L
L0L
(lp3699
(lp3700
tp3701
a(L3028464L
L0L
(lp3702
(lp3703
tp3704
a(L106L
L0L
(lp3705
(lp3706
tp3707
a(L1403802546L
L0L
(lp3708
(lp3709
tp3710
a(L3362706168L
L3785322319L
(lp3711
(lp3712
Vesp_log_early_timestamp
p3713
atp3714
a(L3990577774L
L0L
(lp3715
(lp3716
tp3717
a(L3020187L
L0L
(lp3718
(lp3719
tp3720
a(L2318212397L
L0L
(lp3721
(lp3722
tp3723
a(L4208504540L
L0L
(lp3724
(lp3725
tp3726
a(L1859217843L
L0L
(lp3727
(lp3728
tp3729
a(L2546691246L
L0L
(lp3730
(lp3731
tp3732
a(L3797730446L
L0L
(lp3733
(lp3734
tp3735
a(L106L
L0L
(lp3736
(lp3737
tp3738
a(L93674324L
L0L
(lp3739
(lp3740
tp3741
a(L1583301205L
L0L
(lp3742
(lp3743
tp3744
a(L1938133383L
L0L
(lp3745
(lp3746
tp3747
a(L1630400759L
L0L
(lp3748
(lp3749
tp3750
a(L106L
L0L
(lp3751
(lp3752
tp3753
a(L924830715L
L0L
(lp3754
(lp3755
tp3756
a(L106L
L0L
(lp3757
(lp3758
tp3759
a(L568204987L
L0L
(lp3760
(lp3761
tp3762
atp3763
sI1074236880
(Vesp_dport_access_reg_read
p3764
(lp3765
(L1099794772L
L0L
(lp3766
(lp3767
tp3768
atp3769
sI1074244560
(Vwdt_hal_enable
p3770
(lp3771
(L2299130915L
L0L
(lp3772
(lp3773
tp3774
a(L165794138L
L0L
(lp3775
(lp3776
tp3777
a(L3360570486L
L0L
(lp3778
(lp3779
tp3780
a(L2847657174L
L0L
(lp3781
(lp3782
tp3783
atp3784
sI1074245072
(Vrtc_clk_32k_enable
p3785
(lp3786
(L753387299L
L0L
(lp3787
(lp3788
tp3789
a(L3776007933L
L3785322319L
(lp3790
(lp3791
Vrtc_clk_32k_enable_common
p3792
atp3793
a(L3496950L
L0L
(lp3794
(lp3795
tp3796
a(L2215760449L
L0L
(lp3797
(lp3798
tp3799
atp3800
sI1074268880
(Vbootloader_random_enable
p3801
(lp3802
(L2369602105L
L0L
(lp3803
(lp3804
tp3805
atp3806
sI1074236892
(Vis_xmc_chip_strict
p3807
(lp3808
(L1286841609L
L0L
(lp3809
(lp3810
tp3811
a(L2234016759L
L0L
(lp3812
(lp3813
tp3814
a(L1069027148L
L0L
(lp3815
(lp3816
tp3817
a(L3021749L
L0L
(lp3818
(lp3819
tp3820
a(L1900148749L
L0L
(lp3821
(lp3822
tp3823
a(L1936875721L
L0L
(lp3824
(lp3825
tp3826
a(L3356166509L
L0L
(lp3827
(lp3828
tp3829
a(L1937769451L
L0L
(lp3830
(lp3831
tp3832
a(L2137658907L
L0L
(lp3833
(lp3834
tp3835
a(L4265949734L
L0L
(lp3836
(lp3837
tp3838
a(L3360570486L
L0L
(lp3839
(lp3840
tp3841
atp3842
sI1074269672
(Vbootloader_clear_bss_section
p3843
(lp3844
(L1035474915L
L0L
(lp3845
(lp3846
tp3847
atp3848
sI1074237668
(Vbootloader_munmap
p3849
(lp3850
(L1697403118L
L0L
(lp3851
(lp3852
tp3853
a(L3761142808L
L0L
(lp3854
(lp3855
tp3856
a(L3360570486L
L0L
(lp3857
(lp3858
tp3859
atp3860
sI1074270956
(Vmpu_hal_set_region_access
p3861
(lp3862
(L3538356822L
L0L
(lp3863
(lp3864
tp3865
a(L93674324L
L0L
(lp3866
(lp3867
tp3868
a(L2910371777L
L0L
(lp3869
(lp3870
tp3871
a(L3472092938L
L0L
(lp3872
(lp3873
tp3874
a(L3020187L
L0L
(lp3875
(lp3876
tp3877
a(L3360570486L
L0L
(lp3878
(lp3879
tp3880
a(L2258718273L
L0L
(lp3881
(lp3882
tp3883
a(L3446648619L
L0L
(lp3884
(lp3885
tp3886
a(L3739532189L
L0L
(lp3887
(lp3888
tp3889
a(L1300789895L
L0L
(lp3890
(lp3891
tp3892
atp3893
sI1074245600
(Vrtc_clk_cpu_freq_mhz_to_config
p3894
(lp3895
(L908718885L
L3785322319L
(lp3896
(lp3897
Vrtc_clk_xtal_freq_get
p3898
atp3899
a(L60460069L
L0L
(lp3900
(lp3901
tp3902
a(L3802072124L
L0L
(lp3903
(lp3904
tp3905
a(L3159006042L
L0L
(lp3906
(lp3907
tp3908
a(L3360570486L
L0L
(lp3909
(lp3910
tp3911
a(L895147205L
L0L
(lp3912
(lp3913
tp3914
a(L3970036657L
L0L
(lp3915
(lp3916
tp3917
a(L2731353429L
L0L
(lp3918
(lp3919
tp3920
a(L1555485793L
L0L
(lp3921
(lp3922
tp3923
a(L2258897023L
L0L
(lp3924
(lp3925
tp3926
a(L1947499251L
L0L
(lp3927
(lp3928
tp3929
a(L1306331021L
L0L
(lp3930
(lp3931
tp3932
atp3933
sI1074268640
(Vbootloader_clock_configure
p3934
(lp3935
(L2559598596L
L1880226080L
(lp3936
(lp3937
Vesp_rom_uart_tx_wait_idle
p3938
aVefuse_hal_chip_revision
p3939
atp3940
a(L2636668051L
L0L
(lp3941
(lp3942
tp3943
a(L883406775L
L0L
(lp3944
(lp3945
tp3946
a(L106L
L0L
(lp3947
(lp3948
tp3949
a(L1228935140L
L1832448559L
(lp3950
(lp3951
Vrtc_clk_slow_src_get
p3952
aVrtc_clk_fast_src_get
p3953
aVrtc_clk_init
p3954
atp3955
a(L1048951752L
L0L
(lp3956
(lp3957
tp3958
a(L1627853353L
L3785322319L
(lp3959
(lp3960
Vrtc_clk_apb_freq_get
p3961
atp3962
a(L106L
L0L
(lp3963
(lp3964
tp3965
a(L106L
L0L
(lp3966
(lp3967
tp3968
atp3969
sI1074236652
(Vesp_rom_uart_set_clock_baudrate
p3970
(lp3971
(L2319441726L
L0L
(lp3972
(lp3973
tp3974
a(L2334991263L
L0L
(lp3975
(lp3976
tp3977
a(L2805931295L
L0L
(lp3978
(lp3979
tp3980
a(L1916726935L
L0L
(lp3981
(lp3982
tp3983
atp3984
sI1074248172
(Vesp_rom_spiflash_write_encrypted
p3985
(lp3986
(L1944247967L
L0L
(lp3987
(lp3988
tp3989
a(L1838141447L
L0L
(lp3990
(lp3991
tp3992
a(L97689L
L0L
(lp3993
(lp3994
tp3995
a(L3061232074L
L0L
(lp3996
(lp3997
tp3998
a(L493601429L
L0L
(lp3999
(lp4000
tp4001
a(L1309309703L
L3785322319L
(lp4002
(lp4003
Vesp_rom_spiflash_write
p4004
atp4005
a(L3503659034L
L0L
(lp4006
(lp4007
tp4008
a(L735741265L
L0L
(lp4009
(lp4010
tp4011
atp4012
sI1074241256
(Vbootloader_util_regions_overlap
p4013
(lp4014
(L2762640130L
L0L
(lp4015
(lp4016
tp4017
a(L2198512677L
L0L
(lp4018
(lp4019
tp4020
a(L2217655633L
L3785322319L
(lp4021
(lp4022
V__assert_func
p4023
atp4024
a(L97642L
L0L
(lp4025
(lp4026
tp4027
a(L996187529L
L0L
(lp4028
(lp4029
tp4030
a(L366123053L
L0L
(lp4031
(lp4032
tp4033
a(L2258867228L
L0L
(lp4034
(lp4035
tp4036
a(L1253626734L
L0L
(lp4037
(lp4038
tp4039
a(L2258897019L
L0L
(lp4040
(lp4041
tp4042
a(L3109269495L
L0L
(lp4043
(lp4044
tp4045
atp4046
sI1074235624
(Vbootloader_read_flash_id
p4047
(lp4048
(L549578328L
L3785322319L
(lp4049
(lp4050
Vbootloader_execute_flash_command
p4051
atp4052
atp4053
sI1074237428
(Vspi_to_esp_err
p4054
(lp4055
(L3520881295L
L0L
(lp4056
(lp4057
tp4058
a(L2402400019L
L0L
(lp4059
(lp4060
tp4061
a(L3952441574L
L0L
(lp4062
(lp4063
tp4064
a(L3126521138L
L0L
(lp4065
(lp4066
tp4067
atp4068
sI1074236404
(Vbootloader_flash_dummy_config
p4069
(lp4070
(L262000646L
L0L
(lp4071
(lp4072
tp4073
a(L2761717557L
L0L
(lp4074
(lp4075
tp4076
a(L1849044936L
L0L
(lp4077
(lp4078
tp4079
a(L708753936L
L0L
(lp4080
(lp4081
tp4082
a(L1010450057L
L0L
(lp4083
(lp4084
tp4085
a(L3020204L
L0L
(lp4086
(lp4087
tp4088
a(L1610443405L
L0L
(lp4089
(lp4090
tp4091
a(L4032120524L
L0L
(lp4092
(lp4093
tp4094
a(L2336993863L
L0L
(lp4095
(lp4096
tp4097
a(L1298875775L
L0L
(lp4098
(lp4099
tp4100
a(L3880393601L
L0L
(lp4101
(lp4102
tp4103
a(L3328946209L
L0L
(lp4104
(lp4105
tp4106
a(L1610443436L
L0L
(lp4107
(lp4108
tp4109
atp4110
sI1074244852
(Vrtc_clk_cpu_freq_to_pll_mhz
p4111
(lp4112
(L3231135830L
L0L
(lp4113
(lp4114
tp4115
a(L3143442795L
L0L
(lp4116
(lp4117
tp4118
a(L2573072299L
L1880226080L
(lp4119
(lp4120
Vesp_rom_set_cpu_ticks_per_us
p4121
aVrtc_clk_wait_for_slow_cycle
p4122
atp4123
a(L4244595500L
L0L
(lp4124
(lp4125
tp4126
a(L3284807114L
L0L
(lp4127
(lp4128
tp4129
a(L94425498L
L3785322319L
(lp4130
(lp4131
Vabort
p4132
atp4133
a(L2258897019L
L0L
(lp4134
(lp4135
tp4136
a(L1113742378L
L0L
(lp4137
(lp4138
tp4139
a(L1306330990L
L0L
(lp4140
(lp4141
tp4142
atp4143
sI1074245876
(Vrtc_clk_apb_freq_update
p4144
(lp4145
(L187277447L
L0L
(lp4146
(lp4147
tp4148
atp4149
sI1074247408
(Vesp_efuse_utility_update_virt_blocks
p4150
(lp4151
(L858704488L
L3785322319L
(lp4152
(lp4153
Vesp_log_early_timestamp
p4154
atp4155
a(L1900679720L
L0L
(lp4156
(lp4157
tp4158
a(L3021749L
L0L
(lp4159
(lp4160
tp4161
a(L2329022007L
L0L
(lp4162
(lp4163
tp4164
a(L3360570486L
L0L
(lp4165
(lp4166
tp4167
a(L3309002545L
L0L
(lp4168
(lp4169
tp4170
atp4171
sI1074269936
(Vbootloader_enable_random
p4172
(lp4173
(L2438861816L
L1880226080L
(lp4174
(lp4175
Vesp_log_early_timestamp
p4176
aVbootloader_random_enable
p4177
atp4178
atp4179
sI1074241784
(Vprocess_appended_hash_and_sig
p4180
(lp4181
(L1668084157L
L0L
(lp4182
(lp4183
tp4184
a(L2910371777L
L0L
(lp4185
(lp4186
tp4187
a(L4285188111L
L0L
(lp4188
(lp4189
tp4190
a(L1151175705L
L0L
(lp4191
(lp4192
tp4193
a(L97689L
L0L
(lp4194
(lp4195
tp4196
a(L4177371989L
L3785322319L
(lp4197
(lp4198
Vesp_log_early_timestamp
p4199
atp4200
a(L3620623795L
L0L
(lp4201
(lp4202
tp4203
a(L1464893571L
L3785322319L
(lp4204
(lp4205
Vbootloader_flash_read
p4206
atp4207
a(L735741265L
L0L
(lp4208
(lp4209
tp4210
atp4211
ssS'functionsdups'
p4212
g11
((lp4213
tp4214
Rp4215
sS'immediatedups'
p4216
g11
((lp4217
tp4218
Rp4219
sS'functiondups'
p4220
g11
((lp4221
tp4222
Rp4223
sS'fuzzy'
p4224
(dp4225
L1536L
I1074240820
sL438947497L
I1074245308
sL430153639L
I1074235936
sL3538491111L
I1074245452
sL16208487L
I1074234772
sL1053780185L
I1074247240
sL2919036513L
I1074238924
sL2680783959L
I1074235672
sL1385214606L
I1074241312
sL3709764864L
I1074242740
sL3512578114L
I1074238772
sL1419132215L
I1074238164
sL2469233929L
I1074240608
sL4024375675L
I1074245904
sL701833459L
I1074268640
sL720751058L
I1074267836
sL99291719L
I1074246016
sL1260046007L
I1074238656
sL3897252859L
I1074238572
sL3750957730L
I1074269384
sL1065525808L
I1074236892
sL2547957225L
I1074243236
sL2272466760L
I1074245692
sL2044047637L
I1074239440
sL1188065553L
I1074237720
sL1350409532L
I1074241068
sL2548885677L
I1074268060
sL94556391L
I1074245480
sL3210669721L
I1074245072
sL1332800441L
I1074237284
sL1797050832L
I1074241784
sL3190831358L
I1074239804
sL2828970830L
I1074239320
sL4160102055L
I1074240104
sL4202185385L
I1074247576
sL1768086576L
I1074236404
sL4171975289L
I1074247872
sL1565254297L
I1074248172
sL1205407754L
I1074240128
sL2191698036L
I1074269808
sL3764456758L
I1074244852
sL3567877105L
I1074235284
sL3616640713L
I1074240900
sL3170828071L
I1074247408
sL1635528231L
I1074244116
sL1060788199L
I1074245600
sL3378232636L
I1074246744
sL737694352L
I1074247680
sL503029138L
I1074247624
sL1616763831L
I1074248260
sL424867129L
I1074248008
sL3834155367L
I1074241256
sL2405032630L
I1074267728
sL1302843222L
I1074270288
sL149533852L
I1074237460
sL3883282432L
I1074241872
sL3110525840L
I1074242000
sL1667054119L
I1074240460
sL1142841954L
I1074237052
sL206902443L
I1074237996
sL1070509616L
I1074245132
sL3408620885L
I1074270112
ssb.