ccopy_reg
_reconstructor
p0
(crizzo
RizzoSignature
p1
c__builtin__
object
p2
Ntp3
Rp4
(dp5
S'formal'
p6
(dp7
L2808813164L
I1074240884
sL1207862518L
I1074240592
sL3285171398L
I1074243488
sL2972557863L
I1074270096
sL1741170115L
I1074237960
sL3817488769L
I1074247212
sL3505757179L
I1074236740
sL3196142229L
I1074237704
sL76329880L
I1074245820
sL3873375177L
I1074269920
sL1237733855L
I1074238856
sL1674242515L
I1074248104
sL1602897552L
I1074239788
sL4213015302L
I1074243204
sL1371153316L
I1074268624
sL3597077880L
I1074236536
sL2483835949L
I1074235920
sL3230852531L
I1074238228
sL3045680040L
I1074245060
sL2431287502L
I1074237036
sL3982985539L
I1074269724
sL1387443604L
I1074243220
sL693028457L
I1074240424
sL2479159267L
I1074246704
sL2420455533L
I1074269656
sL3326929765L
I1074240088
sL54072848L
I1074245892
sL711787332L
I1074269792
sL928253055L
I1074268864
sL2702580795L
I1074237336
sL412821684L
I1074236780
sL2666198494L
I1074245120
sL2896295319L
I1074236876
sL1039406786L
I1074270272
sL4248316673L
I1074269948
sL1674148343L
I1074245588
sL3929482102L
I1074245548
sL2485902447L
I1074236716
sL3944712277L
I1074240444
sL2972806524L
I1074235656
sL1859518617L
I1074241856
sL372308320L
I1074245532
sL235029585L
I1074239304
sL4257908639L
I1074244100
sL1585823442L
I1074244516
sL1622896354L
I1074244544
sL2546030491L
I1074245248
sL3723052726L
I1074241296
sL873235283L
I1074245680
sL3126675517L
I1074247940
sL1509716893L
I1074236848
sL2189223198L
I1074240352
sL3977154411L
I1074270716
sL885876642L
I1074236636
sL2903897210L
I1074241768
sL3904551637L
I1074268056
sL2878670564L
I1074248192
sL4260505216L
I1074247804
sL396192741L
I1074238148
sL3562592288L
I1074270048
sL1056742531L
I1074236388
sL530851108L
I1074244664
sL768348750L
I1074238804
sL426984944L
I1074236948
sL1885637095L
I1074267832
sL676927194L
I1074268856
sL2945163535L
I1074240112
sL3307282855L
I1074238120
sL749418531L
I1074244448
sL3432634640L
I1074242724
sL911764690L
I1074237652
sL1730519976L
I1074247612
sL1050504461L
I1074234712
sL3494179029L
I1074245864
sL493357820L
I1074245296
sL2543988023L
I1074240828
sL1753891612L
I1074247412
sL4129683902L
I1074270868
sL4038945309L
I1074235608
sL4176386638L
I1074241052
sL3676018875L
I1074245000
sL1830628543L
I1074244616
sL773546680L
I1074238908
sL3508768135L
I1074269352
sL518463041L
I1074235808
sL2626436395L
I1074236980
sL2737209228L
I1074234756
sL547013175L
I1074237444
sL2749301872L
I1074269368
sL180164621L
I1074235268
sL2997001746L
I1074237268
sL2576935212L
I1074245412
sL903496812L
I1074246748
sL647977256L
I1074245440
sL2252333703L
I1074247556
sL2819127986L
I1074237000
sL359006682L
I1074270012
sL1877634603L
I1074270940
sL3518743416L
I1074238556
sL3310923163L
I1074238756
sL3730494878L
I1074239424
sL3255476431L
I1074241984
sL4163372517L
I1074236552
sL2805324261L
I1074245272
sL2785860572L
I1074238640
sL111045711L
I1074268568
sL1882398944L
I1074244700
sL1736345773L
I1074247244
sL404293581L
I1074237412
sL1487010937L
I1074245468
sL2263182908L
I1074238140
sL3314570057L
I1074246004
sL911137427L
I1074244836
sL700866072L
I1074237980
sL3630163135L
I1074236864
sL188664287L
I1074235236
sL782838600L
I1074240788
sL4225037361L
I1074269680
sL692536993L
I1074237308
sL3075360168L
I1074241240
sL144857933L
I1074240804
sL3570521636L
I1074244416
sL4173412669L
I1074235556
sL3018942732L
I1074267724
sL3224825289L
I1074247508
ssS'immediates'
p8
(dp9
sS'formaldups'
p10
c__builtin__
set
p11
((lp12
tp13
Rp14
sS'stringdups'
p15
g11
((lp16
tp17
Rp18
sS'fuzzydups'
p19
g11
((lp20
tp21
Rp22
sS'strings'
p23
(dp24
sS'functions'
p25
(dp26
I1074237444
(Vbootloader_mmap
p27
(lp28
(L3624397292L
L0L
(lp29
(lp30
tp31
a(L2788000646L
L3785322319L
(lp32
(lp33
Vesp_log_early_timestamp
p34
atp35
a(L2867263840L
L0L
(lp36
(lp37
tp38
a(L3729184599L
L0L
(lp39
(lp40
tp41
a(L4116781276L
L3785322319L
(lp42
(lp43
Vesp_log_early_timestamp
p44
atp45
a(L2258688482L
L0L
(lp46
(lp47
tp48
a(L3360570486L
L0L
(lp49
(lp50
tp51
a(L702749218L
L0L
(lp52
(lp53
tp54
a(L1580888500L
L0L
(lp55
(lp56
tp57
a(L3746164654L
L3785322319L
(lp58
(lp59
Vesp_log_early_timestamp
p60
atp61
a(L528675173L
L3785322319L
(lp62
(lp63
Vesp_log_early_timestamp
p64
atp65
a(L113283320L
L0L
(lp66
(lp67
tp68
atp69
sI1074244100
(Vwdt_hal_config_stage
p70
(lp71
(L331558507L
L0L
(lp72
(lp73
tp74
a(L4279082939L
L0L
(lp75
(lp76
tp77
a(L93674324L
L0L
(lp78
(lp79
tp80
a(L2902417580L
L0L
(lp81
(lp82
tp83
a(L980402310L
L0L
(lp84
(lp85
tp86
a(L3020187L
L0L
(lp87
(lp88
tp89
a(L94425498L
L3785322319L
(lp90
(lp91
Vabort
p92
atp93
a(L3649029602L
L0L
(lp94
(lp95
tp96
a(L3360570486L
L0L
(lp97
(lp98
tp99
a(L1041004739L
L0L
(lp100
(lp101
tp102
a(L1101608377L
L0L
(lp103
(lp104
tp105
a(L4278159418L
L0L
(lp106
(lp107
tp108
a(L93674324L
L0L
(lp109
(lp110
tp111
a(L3020204L
L0L
(lp112
(lp113
tp114
a(L1722164170L
L0L
(lp115
(lp116
tp117
a(L3020187L
L0L
(lp118
(lp119
tp120
a(L106L
L0L
(lp121
(lp122
tp123
a(L4029484007L
L0L
(lp124
(lp125
tp126
a(L528371148L
L0L
(lp127
(lp128
tp129
a(L2121897800L
L0L
(lp130
(lp131
tp132
atp133
sI1074245892
(Vrtc_clk_cpu_freq_to_xtal
p134
(lp135
(L767415990L
L3785322319L
(lp136
(lp137
Vesp_rom_set_cpu_ticks_per_us
p138
atp139
a(L94425498L
L3785322319L
(lp140
(lp141
Vabort
p142
atp143
a(L3663383984L
L3785322319L
(lp144
(lp145
Vrtc_clk_apb_freq_update
p146
atp147
a(L2258867230L
L0L
(lp148
(lp149
tp150
a(L2113643508L
L0L
(lp151
(lp152
tp153
atp154
sI1074247940
(Vesp_rom_spiflash_write
p155
(lp156
(L1985805747L
L0L
(lp157
(lp158
tp159
a(L2258688483L
L0L
(lp160
(lp161
tp162
a(L3360570486L
L0L
(lp163
(lp164
tp165
a(L3368132847L
L0L
(lp166
(lp167
tp168
a(L3106685981L
L0L
(lp169
(lp170
tp171
a(L3488660639L
L3785322319L
(lp172
(lp173
Vesp_rom_spiflash_program_page_internal
p174
atp175
a(L3543402353L
L3785322319L
(lp176
(lp177
Vesp_rom_spiflash_program_page_internal
p178
atp179
a(L4222526342L
L0L
(lp180
(lp181
tp182
a(L2004208511L
L0L
(lp183
(lp184
tp185
a(L564470656L
L0L
(lp186
(lp187
tp188
a(L441922648L
L3785322319L
(lp189
(lp190
Vesp_rom_spiflash_program_page_internal
p191
atp192
a(L2302069176L
L0L
(lp193
(lp194
tp195
atp196
sI1074245120
(Vrtc_clk_8m_enable
p197
(lp198
(L717560374L
L0L
(lp199
(lp200
tp201
a(L4093063488L
L0L
(lp202
(lp203
tp204
a(L2151320156L
L0L
(lp205
(lp206
tp207
a(L711175840L
L0L
(lp208
(lp209
tp210
a(L3360570486L
L0L
(lp211
(lp212
tp213
a(L1318267208L
L0L
(lp214
(lp215
tp216
a(L3974092177L
L0L
(lp217
(lp218
tp219
atp220
sI1074248192
(Vesp_rom_spiflash_read
p221
(lp222
(L965113627L
L0L
(lp223
(lp224
tp225
a(L2445587266L
L0L
(lp226
(lp227
tp228
a(L2860271684L
L0L
(lp229
(lp230
tp231
a(L2355528925L
L0L
(lp232
(lp233
tp234
a(L106L
L0L
(lp235
(lp236
tp237
a(L633884026L
L0L
(lp238
(lp239
tp240
a(L106L
L0L
(lp241
(lp242
tp243
a(L2817836888L
L0L
(lp244
(lp245
tp246
a(L4180853104L
L0L
(lp247
(lp248
tp249
a(L2027830512L
L0L
(lp250
(lp251
tp252
a(L336550648L
L0L
(lp253
(lp254
tp255
a(L2716935240L
L0L
(lp256
(lp257
tp258
a(L106L
L0L
(lp259
(lp260
tp261
a(L3721909221L
L3785322319L
(lp262
(lp263
Vesp_rom_spiflash_wait_idle
p264
atp265
a(L3021737L
L0L
(lp266
(lp267
tp268
a(L106L
L0L
(lp269
(lp270
tp271
a(L1868280504L
L0L
(lp272
(lp273
tp274
a(L106L
L0L
(lp275
(lp276
tp277
a(L750281353L
L0L
(lp278
(lp279
tp280
a(L3897437082L
L0L
(lp281
(lp282
tp283
a(L4122060822L
L0L
(lp284
(lp285
tp286
a(L274970911L
L0L
(lp287
(lp288
tp289
a(L2989032L
L0L
(lp290
(lp291
tp292
a(L3819849625L
L0L
(lp293
(lp294
tp295
a(L1660957140L
L0L
(lp296
(lp297
tp298
a(L918125861L
L0L
(lp299
(lp300
tp301
a(L3901821459L
L0L
(lp302
(lp303
tp304
a(L2938794773L
L0L
(lp305
(lp306
tp307
a(L2921907736L
L0L
(lp308
(lp309
tp310
a(L4023125337L
L0L
(lp311
(lp312
tp313
a(L1444843363L
L0L
(lp314
(lp315
tp316
a(L849357610L
L0L
(lp317
(lp318
tp319
a(L3803956571L
L0L
(lp320
(lp321
tp322
a(L3333707777L
L0L
(lp323
(lp324
tp325
a(L3251955268L
L0L
(lp326
(lp327
tp328
a(L3418540920L
L0L
(lp329
(lp330
tp331
a(L2322125794L
L0L
(lp332
(lp333
tp334
a(L97689L
L0L
(lp335
(lp336
tp337
a(L2258897019L
L0L
(lp338
(lp339
tp340
a(L4014024819L
L0L
(lp341
(lp342
tp343
a(L3621567083L
L0L
(lp344
(lp345
tp346
atp347
sI1074267136
(V_init
p348
(lp349
(L3493042598L
L0L
(lp350
(lp351
tp352
atp353
sI1074244616
(Vmmu_hal_unmap_all
p354
(lp355
(L2696866292L
L0L
(lp356
(lp357
tp358
a(L2010554219L
L0L
(lp359
(lp360
tp361
a(L3268103L
L0L
(lp362
(lp363
tp364
a(L3212334523L
L0L
(lp365
(lp366
tp367
a(L2010554219L
L0L
(lp368
(lp369
tp370
a(L3360570486L
L0L
(lp371
(lp372
tp373
atp374
sI1074235656
(Vbootloader_flash_xmc_startup
p375
(lp376
(L2007527597L
L3785322319L
(lp377
(lp378
Vis_xmc_chip_strict
p379
atp380
a(L2258688482L
L0L
(lp381
(lp382
tp383
a(L3360570486L
L0L
(lp384
(lp385
tp386
a(L2860324232L
L3785322319L
(lp387
(lp388
Vbootloader_flash_read_sfdp
p389
atp390
a(L335762040L
L2567856111L
(lp391
(lp392
Vesp_log_early_timestamp
p393
aVbootloader_execute_flash_command
p394
aVbootloader_execute_flash_command
p395
aVbootloader_execute_flash_command
p396
aVbootloader_execute_flash_command
p397
aVbootloader_read_flash_id
p398
aVis_xmc_chip_strict
p399
atp400
a(L664983568L
L3785322319L
(lp401
(lp402
Vesp_log_early_timestamp
p403
atp404
atp405
sI1074237704
(Vbootloader_flash_read
p406
(lp407
(L3022618172L
L0L
(lp408
(lp409
tp410
a(L172086619L
L3785322319L
(lp411
(lp412
Vesp_log_early_timestamp
p413
atp414
a(L2780906736L
L0L
(lp415
(lp416
tp417
a(L1351513776L
L0L
(lp418
(lp419
tp420
a(L1486740491L
L0L
(lp421
(lp422
tp423
a(L1179571938L
L3785322319L
(lp424
(lp425
Vesp_log_early_timestamp
p426
atp427
a(L3283691850L
L0L
(lp428
(lp429
tp430
a(L814874711L
L3785322319L
(lp431
(lp432
Vesp_log_early_timestamp
p433
atp434
a(L3020204L
L0L
(lp435
(lp436
tp437
a(L384130671L
L0L
(lp438
(lp439
tp440
a(L97422L
L0L
(lp441
(lp442
tp443
a(L1190291857L
L0L
(lp444
(lp445
tp446
a(L2961856275L
L0L
(lp447
(lp448
tp449
a(L2830805255L
L3785322319L
(lp450
(lp451
V__assert_func
p452
atp453
a(L1539897528L
L0L
(lp454
(lp455
tp456
a(L1310932259L
L0L
(lp457
(lp458
tp459
a(L1672348752L
L1880226080L
(lp460
(lp461
Vesp_rom_spiflash_read
p462
aVspi_to_esp_err
p463
atp464
atp465
sI1074237960
(Vbootloader_flash_erase_sector
p466
(lp467
(L4129137686L
L1880226080L
(lp468
(lp469
Vesp_rom_spiflash_erase_sector
p470
aVspi_to_esp_err
p471
atp472
atp473
sI1074240788
(Vbootloader_console_deinit
p474
(lp475
(L4005071210L
L0L
(lp476
(lp477
tp478
atp479
sI1074236948
(Vesp_log_early_timestamp
p480
(lp481
(L3733265409L
L0L
(lp482
(lp483
tp484
atp485
sI1074238228
(Vbootloader_random_disable
p486
(lp487
(L2825582328L
L0L
(lp488
(lp489
tp490
atp491
sI1074269724
(Vbootloader_check_bootloader_validity
p492
(lp493
(L2960652984L
L1832448559L
(lp494
(lp495
Vefuse_hal_chip_revision
p496
aVesp_log_early_timestamp
p497
aVbootloader_common_check_chip_validity
p498
atp499
atp500
sI1074235920
(Vbootloader_flash_gpio_config
p501
(lp502
(L3362256192L
L3785322319L
(lp503
(lp504
Vbootloader_common_get_chip_ver_pkg
p505
atp506
a(L106L
L0L
(lp507
(lp508
tp509
a(L1998579353L
L0L
(lp510
(lp511
tp512
a(L106L
L0L
(lp513
(lp514
tp515
a(L1029428446L
L0L
(lp516
(lp517
tp518
a(L4242290324L
L0L
(lp519
(lp520
tp521
a(L106L
L0L
(lp522
(lp523
tp524
a(L4003626558L
L0L
(lp525
(lp526
tp527
a(L1553523094L
L0L
(lp528
(lp529
tp530
a(L3360570486L
L0L
(lp531
(lp532
tp533
atp534
sI1074241296
(Vverify_load_addresses
p535
(lp536
(L2764487219L
L0L
(lp537
(lp538
tp539
a(L106L
L0L
(lp540
(lp541
tp542
a(L97642L
L0L
(lp543
(lp544
tp545
a(L1494945664L
L3785322319L
(lp546
(lp547
V__assert_func
p548
atp549
a(L791907602L
L0L
(lp550
(lp551
tp552
a(L106L
L0L
(lp553
(lp554
tp555
a(L1722779441L
L0L
(lp556
(lp557
tp558
a(L106L
L0L
(lp559
(lp560
tp561
a(L4043008515L
L3785322319L
(lp562
(lp563
Vbootloader_util_regions_overlap
p564
atp565
a(L631732150L
L3785322319L
(lp566
(lp567
Vbootloader_util_regions_overlap
p568
atp569
a(L3028481L
L0L
(lp570
(lp571
tp572
a(L3615101466L
L3785322319L
(lp573
(lp574
Vbootloader_util_regions_overlap
p575
atp576
a(L1726430751L
L0L
(lp577
(lp578
tp579
a(L1086512205L
L0L
(lp580
(lp581
tp582
a(L1032381749L
L0L
(lp583
(lp584
tp585
a(L2837304413L
L0L
(lp586
(lp587
tp588
a(L677569396L
L3785322319L
(lp589
(lp590
Vverify_load_addresses
p591
atp592
a(L1351513776L
L0L
(lp593
(lp594
tp595
a(L956755582L
L0L
(lp596
(lp597
tp598
a(L2358736322L
L0L
(lp599
(lp600
tp601
a(L29144270L
L0L
(lp602
(lp603
tp604
a(L106L
L0L
(lp605
(lp606
tp607
a(L759382056L
L0L
(lp608
(lp609
tp610
a(L106L
L0L
(lp611
(lp612
tp613
a(L1713182710L
L3785322319L
(lp614
(lp615
Vbootloader_util_regions_overlap
p616
atp617
a(L3028481L
L0L
(lp618
(lp619
tp620
a(L2080057853L
L3785322319L
(lp621
(lp622
Vbootloader_util_regions_overlap
p623
atp624
a(L684954403L
L0L
(lp625
(lp626
tp627
a(L2861826135L
L0L
(lp628
(lp629
tp630
a(L160035736L
L0L
(lp631
(lp632
tp633
a(L2743341656L
L0L
(lp634
(lp635
tp636
a(L182882711L
L0L
(lp637
(lp638
tp639
a(L3836858920L
L0L
(lp640
(lp641
tp642
a(L297163306L
L0L
(lp643
(lp644
tp645
a(L1900059593L
L0L
(lp646
(lp647
tp648
a(L562398217L
L0L
(lp649
(lp650
tp651
a(L3786176122L
L0L
(lp652
(lp653
tp654
a(L3929371936L
L0L
(lp655
(lp656
tp657
a(L2805932810L
L0L
(lp658
(lp659
tp660
a(L4072848040L
L0L
(lp661
(lp662
tp663
a(L106L
L0L
(lp664
(lp665
tp666
a(L955482811L
L0L
(lp667
(lp668
tp669
a(L307917408L
L0L
(lp670
(lp671
tp672
a(L3020204L
L0L
(lp673
(lp674
tp675
a(L2240503318L
L3785322319L
(lp676
(lp677
Vesp_log_early_timestamp
p678
atp679
a(L1303560396L
L0L
(lp680
(lp681
tp682
a(L955506495L
L0L
(lp683
(lp684
tp685
a(L1303560427L
L0L
(lp686
(lp687
tp688
atp689
sI1074241052
(Vprocess_image_header
p690
(lp691
(L2432434428L
L3785322319L
(lp692
(lp693
Vbootloader_flash_read
p694
atp695
a(L3020204L
L0L
(lp696
(lp697
tp698
a(L4205021202L
L0L
(lp699
(lp700
tp701
a(L321261932L
L0L
(lp702
(lp703
tp704
a(L1161397362L
L3785322319L
(lp705
(lp706
Vbootloader_sha256_start
p707
atp708
a(L2062774299L
L3785322319L
(lp709
(lp710
Vbootloader_sha256_data
p711
atp712
a(L1291118193L
L0L
(lp713
(lp714
tp715
a(L3028481L
L0L
(lp716
(lp717
tp718
a(L2263077458L
L3785322319L
(lp719
(lp720
Vesp_log_early_timestamp
p721
atp722
a(L3200755447L
L0L
(lp723
(lp724
tp725
a(L2983970029L
L0L
(lp726
(lp727
tp728
a(L4235213884L
L3785322319L
(lp729
(lp730
Vbootloader_common_check_chip_validity
p731
atp732
a(L4144303915L
L0L
(lp733
(lp734
tp735
a(L3028481L
L0L
(lp736
(lp737
tp738
a(L355256751L
L3785322319L
(lp739
(lp740
Vesp_log_early_timestamp
p741
atp742
a(L2852701393L
L0L
(lp743
(lp744
tp745
a(L2122516551L
L0L
(lp746
(lp747
tp748
a(L3064492592L
L0L
(lp749
(lp750
tp751
atp752
sI1074237980
(Vbootloader_flash_write
p753
(lp754
(L3770380603L
L0L
(lp755
(lp756
tp757
a(L2615366646L
L3785322319L
(lp758
(lp759
Vesp_log_early_timestamp
p760
atp761
a(L3833270346L
L0L
(lp762
(lp763
tp764
a(L1610445075L
L0L
(lp765
(lp766
tp767
a(L735741265L
L0L
(lp768
(lp769
tp770
a(L3291333414L
L0L
(lp771
(lp772
tp773
a(L1873007406L
L3785322319L
(lp774
(lp775
Vesp_log_early_timestamp
p776
atp777
a(L3283691850L
L0L
(lp778
(lp779
tp780
a(L2141475974L
L3785322319L
(lp781
(lp782
Vesp_log_early_timestamp
p783
atp784
a(L3212356251L
L3785322319L
(lp785
(lp786
Vbootloader_flash_unlock
p787
atp788
a(L1799218633L
L0L
(lp789
(lp790
tp791
a(L94425498L
L3785322319L
(lp792
(lp793
Vesp_rom_spiflash_write_encrypted
p794
atp795
a(L2927190544L
L3785322319L
(lp796
(lp797
Vspi_to_esp_err
p798
atp799
a(L2927190544L
L3785322319L
(lp800
(lp801
Vesp_rom_spiflash_write
p802
atp803
atp804
sI1074240804
(V__assert_func
p805
(lp806
(L1697582622L
L0L
(lp807
(lp808
tp809
a(L106L
L0L
(lp810
(lp811
tp812
atp813
sI1074238756
(Vtry_load_partition
p814
(lp815
(L1263750142L
L0L
(lp816
(lp817
tp818
a(L2258688482L
L0L
(lp819
(lp820
tp821
a(L3360570486L
L0L
(lp822
(lp823
tp824
a(L530241438L
L3785322319L
(lp825
(lp826
Vbootloader_load_image
p827
atp828
a(L3010049260L
L3785322319L
(lp829
(lp830
Vesp_log_early_timestamp
p831
atp832
atp833
sI1074245412
(Vrtc_clk_slow_src_get
p834
(lp835
(L807162021L
L0L
(lp836
(lp837
tp838
a(L3020187L
L0L
(lp839
(lp840
tp841
a(L2902417580L
L0L
(lp842
(lp843
tp844
a(L2258688485L
L0L
(lp845
(lp846
tp847
a(L3360570486L
L0L
(lp848
(lp849
tp850
atp851
sI1074239788
(Vbootloader_utility_get_selected_boot_partition
p852
(lp853
(L2938832293L
L0L
(lp854
(lp855
tp856
a(L842541614L
L0L
(lp857
(lp858
tp859
a(L893151972L
L3785322319L
(lp860
(lp861
Vesp_log_early_timestamp
p862
atp863
a(L194246498L
L0L
(lp864
(lp865
tp866
a(L3360570486L
L0L
(lp867
(lp868
tp869
a(L3118387733L
L3785322319L
(lp870
(lp871
Vbootloader_mmap
p872
atp873
a(L2621379218L
L3785322319L
(lp874
(lp875
Vesp_log_early_timestamp
p876
atp877
a(L3321522761L
L1880226080L
(lp878
(lp879
Vbootloader_munmap
p880
aVbootloader_common_ota_select_invalid
p881
atp882
a(L2911028409L
L0L
(lp883
(lp884
tp885
a(L726754926L
L3785322319L
(lp886
(lp887
Vbootloader_common_get_active_otadata
p888
atp889
a(L106L
L0L
(lp890
(lp891
tp892
a(L4179097382L
L0L
(lp893
(lp894
tp895
a(L788494392L
L3785322319L
(lp896
(lp897
Vbootloader_common_ota_select_invalid
p898
atp899
a(L4189674197L
L0L
(lp900
(lp901
tp902
a(L4436812L
L3785322319L
(lp903
(lp904
Vesp_log_early_timestamp
p905
atp906
a(L3833270346L
L0L
(lp907
(lp908
tp909
a(L1641201884L
L0L
(lp910
(lp911
tp912
a(L211630783L
L3785322319L
(lp913
(lp914
Vesp_log_early_timestamp
p915
atp916
a(L2302032704L
L0L
(lp917
(lp918
tp919
a(L1173788779L
L3785322319L
(lp920
(lp921
Vbootloader_common_ota_select_crc
p922
atp923
a(L4188515782L
L0L
(lp924
(lp925
tp926
a(L1324800084L
L3785322319L
(lp927
(lp928
Vbootloader_common_ota_select_crc
p929
atp930
a(L1299866312L
L0L
(lp931
(lp932
tp933
a(L1205826810L
L0L
(lp934
(lp935
tp936
a(L2799281972L
L3785322319L
(lp937
(lp938
Vesp_log_early_timestamp
p939
atp940
a(L692120553L
L3785322319L
(lp941
(lp942
Vesp_log_early_timestamp
p943
atp944
atp945
sI1074236716
(Vefuse_hal_chip_revision
p946
(lp947
(L2719302832L
L1880226080L
(lp948
(lp949
Vefuse_hal_get_major_chip_version
p950
aVefuse_hal_get_minor_chip_version
p951
atp952
atp953
sI1074247212
(Vrtc_clk_cal_ratio
p954
(lp955
(L3871281096L
L3785322319L
(lp956
(lp957
Vrtc_clk_cal_internal
p958
atp959
atp960
sI1074236980
(Vbootloader_common_ota_select_crc
p961
(lp962
(L3214440559L
L0L
(lp963
(lp964
tp965
atp966
sI1074270012
(Vbootloader_console_init
p967
(lp968
(L2486688275L
L1832448559L
(lp969
(lp970
Vesp_rom_uart_tx_wait_idle
p971
aVrtc_clk_apb_freq_get
p972
aVesp_rom_uart_set_clock_baudrate
p973
atp974
atp975
sI1074245680
(Vrtc_clk_cpu_freq_get_config
p976
(lp977
(L3722895476L
L0L
(lp978
(lp979
tp980
a(L3020187L
L0L
(lp981
(lp982
tp983
a(L3020187L
L0L
(lp984
(lp985
tp986
a(L2648070573L
L3785322319L
(lp987
(lp988
Vrtc_clk_xtal_freq_get
p989
atp990
a(L3789795478L
L0L
(lp991
(lp992
tp993
a(L1195264405L
L1880226080L
(lp994
(lp995
Vesp_log_early_timestamp
p996
aVabort
p997
atp998
a(L1347439071L
L0L
(lp999
(lp1000
tp1001
a(L3020187L
L0L
(lp1002
(lp1003
tp1004
a(L3028481L
L0L
(lp1005
(lp1006
tp1007
a(L38508693L
L0L
(lp1008
(lp1009
tp1010
a(L187152368L
L0L
(lp1011
(lp1012
tp1013
a(L1161083655L
L0L
(lp1014
(lp1015
tp1016
a(L1395485899L
L0L
(lp1017
(lp1018
tp1019
a(L2070600034L
L0L
(lp1020
(lp1021
tp1022
atp1023
sI1074246704
(Vrtc_clk_apb_freq_get
p1024
(lp1025
(L3659315454L
L0L
(lp1026
(lp1027
tp1028
atp1029
sI1074240828
(Vabort
p1030
(lp1031
(L56968919L
L0L
(lp1032
(lp1033
tp1034
a(L409471316L
L0L
(lp1035
(lp1036
tp1037
a(L106L
L0L
(lp1038
(lp1039
tp1040
atp1041
sI1074244664
(Vefuse_hal_get_rated_freq_mhz
p1042
(lp1043
(L3060225221L
L0L
(lp1044
(lp1045
tp1046
a(L338960367L
L0L
(lp1047
(lp1048
tp1049
a(L3360570486L
L0L
(lp1050
(lp1051
tp1052
atp1053
sI1074236740
(Vefuse_hal_flash_encryption_enabled
p1054
(lp1055
(L2932383536L
L0L
(lp1056
(lp1057
tp1058
a(L2910371777L
L0L
(lp1059
(lp1060
tp1061
a(L3360570486L
L0L
(lp1062
(lp1063
tp1064
a(L3016870L
L0L
(lp1065
(lp1066
tp1067
a(L3745038218L
L0L
(lp1068
(lp1069
tp1070
a(L957607403L
L0L
(lp1071
(lp1072
tp1073
atp1074
sI1074267724
(Vcall_start_cpu0
p1075
(lp1076
(L1137852827L
L0L
(lp1077
(lp1078
tp1079
a(L549459388L
L0L
(lp1080
(lp1081
tp1082
a(L3212347974L
L3785322319L
(lp1083
(lp1084
Vbootloader_init
p1085
atp1086
a(L94425498L
L3785322319L
(lp1087
(lp1088
Vbootloader_reset
p1089
atp1090
a(L1122046408L
L0L
(lp1091
(lp1092
tp1093
a(L4099474112L
L0L
(lp1094
(lp1095
tp1096
a(L3015046664L
L3785322319L
(lp1097
(lp1098
Vbootloader_utility_load_partition_table
p1099
atp1100
a(L2761094216L
L3785322319L
(lp1101
(lp1102
Vesp_log_early_timestamp
p1103
atp1104
a(L405422123L
L3785322319L
(lp1105
(lp1106
Vbootloader_utility_get_selected_boot_partition
p1107
atp1108
a(L2055385849L
L3785322319L
(lp1109
(lp1110
Vbootloader_utility_load_boot_image
p1111
atp1112
atp1113
sI1074244416
(Vwdt_hal_write_protect_disable
p1114
(lp1115
(L2029874475L
L0L
(lp1116
(lp1117
tp1118
a(L4195472003L
L0L
(lp1119
(lp1120
tp1121
a(L3360570486L
L0L
(lp1122
(lp1123
tp1124
a(L1210571996L
L0L
(lp1125
(lp1126
tp1127
atp1128
sI1074241856
(Vshould_load
p1129
(lp1130
(L2248753231L
L0L
(lp1131
(lp1132
tp1133
a(L1182990556L
L0L
(lp1134
(lp1135
tp1136
a(L1188500889L
L0L
(lp1137
(lp1138
tp1139
a(L2306467100L
L0L
(lp1140
(lp1141
tp1142
a(L524505062L
L0L
(lp1143
(lp1144
tp1145
a(L2258897019L
L0L
(lp1146
(lp1147
tp1148
a(L3781799363L
L0L
(lp1149
(lp1150
tp1151
a(L3028464L
L0L
(lp1152
(lp1153
tp1154
a(L2798417532L
L0L
(lp1155
(lp1156
tp1157
a(L4277114872L
L0L
(lp1158
(lp1159
tp1160
a(L2824381917L
L0L
(lp1161
(lp1162
tp1163
a(L1243412227L
L0L
(lp1164
(lp1165
tp1166
a(L2011157548L
L0L
(lp1167
(lp1168
tp1169
a(L3126521138L
L0L
(lp1170
(lp1171
tp1172
a(L1305407438L
L0L
(lp1173
(lp1174
tp1175
a(L1305407469L
L0L
(lp1176
(lp1177
tp1178
atp1179
sI1074245440
(Vrtc_clk_slow_freq_get_hz
p1180
(lp1181
(L1826267122L
L3785322319L
(lp1182
(lp1183
Vrtc_clk_slow_src_get
p1184
atp1185
a(L4180097535L
L0L
(lp1186
(lp1187
tp1188
a(L4004331653L
L0L
(lp1189
(lp1190
tp1191
a(L3360570486L
L0L
(lp1192
(lp1193
tp1194
atp1195
sI1074270272
(Vrtc_clk_init
p1196
(lp1197
(L2294715062L
L0L
(lp1198
(lp1199
tp1200
a(L42671777L
L3785322319L
(lp1201
(lp1202
Vrtc_clk_cpu_freq_to_xtal
p1203
atp1204
a(L221492645L
L3785322319L
(lp1205
(lp1206
Vrtc_clk_xtal_freq_get
p1207
atp1208
a(L3028481L
L0L
(lp1209
(lp1210
tp1211
a(L4284274517L
L3785322319L
(lp1212
(lp1213
Vrtc_clk_xtal_freq_estimate
p1214
atp1215
a(L2705677258L
L3785322319L
(lp1216
(lp1217
Vesp_log_early_timestamp
p1218
atp1219
a(L633981439L
L1157885199L
(lp1220
(lp1221
Vesp_rom_uart_tx_wait_idle
p1222
aVrtc_clk_xtal_freq_update
p1223
aVrtc_clk_apb_freq_update
p1224
aVrtc_clk_cpu_freq_get_config
p1225
aVrtc_clk_cpu_freq_mhz_to_config
p1226
atp1227
a(L48371412L
L1880226080L
(lp1228
(lp1229
Vesp_log_early_timestamp
p1230
aVabort
p1231
atp1232
a(L2902417580L
L0L
(lp1233
(lp1234
tp1235
a(L1899970065L
L0L
(lp1236
(lp1237
tp1238
a(L377687546L
L3785322319L
(lp1239
(lp1240
Vrtc_clk_xtal_freq_estimate
p1241
atp1242
a(L2146549143L
L3785322319L
(lp1243
(lp1244
Vesp_log_early_timestamp
p1245
atp1246
a(L4134099358L
L3785322319L
(lp1247
(lp1248
Vrtc_clk_cpu_freq_set_config
p1249
atp1250
a(L912310138L
L3785322319L
(lp1251
(lp1252
Vrtc_clk_32k_enable
p1253
atp1254
a(L3191820416L
L1832448559L
(lp1255
(lp1256
Vrtc_clk_8m_enable
p1257
aVrtc_clk_fast_src_set
p1258
aVrtc_clk_slow_src_set
p1259
atp1260
a(L1232958848L
L0L
(lp1261
(lp1262
tp1263
atp1264
sI1074247244
(Vrtc_clk_wait_for_slow_cycle
p1265
(lp1266
(L1979977371L
L0L
(lp1267
(lp1268
tp1269
a(L287687718L
L0L
(lp1270
(lp1271
tp1272
a(L3360570486L
L0L
(lp1273
(lp1274
tp1275
a(L2664777485L
L0L
(lp1276
(lp1277
tp1278
a(L1300789833L
L0L
(lp1279
(lp1280
tp1281
a(L1259765481L
L0L
(lp1282
(lp1283
tp1284
a(L2529434910L
L0L
(lp1285
(lp1286
tp1287
a(L299865058L
L3785322319L
(lp1288
(lp1289
Vesp_log_early_timestamp
p1290
atp1291
atp1292
sI1074237000
(Vbootloader_common_ota_select_valid
p1293
(lp1294
(L1563399710L
L3785322319L
(lp1295
(lp1296
Vbootloader_common_ota_select_invalid
p1297
atp1298
a(L3814720849L
L3785322319L
(lp1299
(lp1300
Vbootloader_common_ota_select_crc
p1301
atp1302
a(L3360570486L
L0L
(lp1303
(lp1304
tp1305
atp1306
sI1074239304
(Vset_actual_ota_seq
p1307
(lp1308
(L4094723830L
L0L
(lp1309
(lp1310
tp1311
a(L2573507321L
L0L
(lp1312
(lp1313
tp1314
a(L3461827603L
L1832448559L
(lp1315
(lp1316
Vbootloader_common_ota_select_crc
p1317
aVesp_flash_encryption_enabled
p1318
aVbootloader_flash_erase_sector
p1319
atp1320
a(L2768623893L
L3785322319L
(lp1321
(lp1322
Vbootloader_flash_write
p1323
atp1324
a(L1288271209L
L3785322319L
(lp1325
(lp1326
Vesp_log_early_timestamp
p1327
atp1328
a(L2939835162L
L3785322319L
(lp1329
(lp1330
Vesp_log_early_timestamp
p1331
atp1332
a(L3360570486L
L0L
(lp1333
(lp1334
tp1335
atp1336
sI1074238804
(Vcache_ll_l1_enable_bus
p1337
(lp1338
(L1908488057L
L0L
(lp1339
(lp1340
tp1341
atp1342
sI1074237268
(Vbootloader_common_get_active_otadata
p1343
(lp1344
(L3317503532L
L0L
(lp1345
(lp1346
tp1347
a(L2503049265L
L1832448559L
(lp1348
(lp1349
Vbootloader_common_ota_select_valid
p1350
aVbootloader_common_ota_select_valid
p1351
aVbootloader_common_select_otadata
p1352
atp1353
a(L735741265L
L0L
(lp1354
(lp1355
tp1356
atp1357
sI1074247508
(Vesp_rom_spiflash_wait_idle
p1358
(lp1359
(L3233077333L
L0L
(lp1360
(lp1361
tp1362
a(L2023766174L
L0L
(lp1363
(lp1364
tp1365
a(L2805934546L
L0L
(lp1366
(lp1367
tp1368
a(L3086959262L
L0L
(lp1369
(lp1370
tp1371
a(L4161019926L
L3785322319L
(lp1372
(lp1373
Vesp_rom_spiflash_read_status
p1374
atp1375
atp1376
sI1074238544
(Vbootloader_clock_get_rated_freq_mhz
p1377
(lp1378
(L376617603L
L3785322319L
(lp1379
(lp1380
Vefuse_hal_get_rated_freq_mhz
p1381
atp1382
atp1383
sI1074240592
(Vbootloader_sha256_finish
p1384
(lp1385
(L4066096136L
L0L
(lp1386
(lp1387
tp1388
a(L3125987449L
L0L
(lp1389
(lp1390
tp1391
a(L3884092851L
L3785322319L
(lp1392
(lp1393
V__assert_func
p1394
atp1395
a(L3020204L
L0L
(lp1396
(lp1397
tp1398
a(L1816853500L
L0L
(lp1399
(lp1400
tp1401
a(L2534656226L
L0L
(lp1402
(lp1403
tp1404
a(L551614134L
L3785322319L
(lp1405
(lp1406
Vbootloader_sha256_data
p1407
atp1408
a(L3281735505L
L0L
(lp1409
(lp1410
tp1411
a(L841302101L
L3785322319L
(lp1412
(lp1413
Vbootloader_sha256_data
p1414
atp1415
a(L3768329152L
L0L
(lp1416
(lp1417
tp1418
a(L657425439L
L0L
(lp1419
(lp1420
tp1421
a(L3930848034L
L0L
(lp1422
(lp1423
tp1424
a(L657425439L
L0L
(lp1425
(lp1426
tp1427
a(L4116699460L
L0L
(lp1428
(lp1429
tp1430
a(L3511307343L
L0L
(lp1431
(lp1432
tp1433
a(L3347778L
L0L
(lp1434
(lp1435
tp1436
a(L3360570486L
L0L
(lp1437
(lp1438
tp1439
atp1440
sI1074238556
(Vlog_invalid_app_partition
p1441
(lp1442
(L3121159614L
L0L
(lp1443
(lp1444
tp1445
a(L3028464L
L0L
(lp1446
(lp1447
tp1448
a(L1381405837L
L3785322319L
(lp1449
(lp1450
Vesp_log_early_timestamp
p1451
atp1452
a(L3833270346L
L0L
(lp1453
(lp1454
tp1455
a(L3360570486L
L0L
(lp1456
(lp1457
tp1458
a(L3430459325L
L3785322319L
(lp1459
(lp1460
Vesp_log_early_timestamp
p1461
atp1462
a(L3309219235L
L3785322319L
(lp1463
(lp1464
Vesp_log_early_timestamp
p1465
atp1466
atp1467
sI1074244700
(Vrtc_clk_32k_enable_common
p1468
(lp1469
(L493234424L
L0L
(lp1470
(lp1471
tp1472
a(L97422L
L0L
(lp1473
(lp1474
tp1475
a(L2218417248L
L0L
(lp1476
(lp1477
tp1478
a(L3638412133L
L0L
(lp1479
(lp1480
tp1481
a(L51458120L
L0L
(lp1482
(lp1483
tp1484
atp1485
sI1074245468
(Vrtc_clk_fast_src_set
p1486
(lp1487
(L3974279653L
L0L
(lp1488
(lp1489
tp1490
a(L3020187L
L0L
(lp1491
(lp1492
tp1493
a(L3827921190L
L3785322319L
(lp1494
(lp1495
Vabort
p1496
atp1497
a(L2904656757L
L0L
(lp1498
(lp1499
tp1500
a(L206212292L
L0L
(lp1501
(lp1502
tp1503
a(L300459962L
L0L
(lp1504
(lp1505
tp1506
atp1507
sI1074246748
(Vrtc_clk_cal_internal
p1508
(lp1509
(L3211713899L
L0L
(lp1510
(lp1511
tp1512
a(L3248315554L
L3785322319L
(lp1513
(lp1514
V__assert_func
p1515
atp1516
a(L1839043401L
L0L
(lp1517
(lp1518
tp1519
a(L1673513644L
L0L
(lp1520
(lp1521
tp1522
a(L1829177773L
L3785322319L
(lp1523
(lp1524
Vrtc_clk_slow_src_get
p1525
atp1526
a(L3008910671L
L0L
(lp1527
(lp1528
tp1529
a(L97689L
L0L
(lp1530
(lp1531
tp1532
a(L1725095778L
L0L
(lp1533
(lp1534
tp1535
a(L3028464L
L0L
(lp1536
(lp1537
tp1538
a(L3028481L
L0L
(lp1539
(lp1540
tp1541
a(L3450258779L
L0L
(lp1542
(lp1543
tp1544
a(L204864475L
L3785322319L
(lp1545
(lp1546
Vrtc_clk_xtal_freq_get
p1547
atp1548
a(L2780079961L
L0L
(lp1549
(lp1550
tp1551
a(L3609124145L
L0L
(lp1552
(lp1553
tp1554
a(L827207193L
L3785322319L
(lp1555
(lp1556
Vesp_log_early_timestamp
p1557
atp1558
a(L2258688482L
L0L
(lp1559
(lp1560
tp1561
a(L3360570486L
L0L
(lp1562
(lp1563
tp1564
a(L3553505594L
L0L
(lp1565
(lp1566
tp1567
a(L403361192L
L0L
(lp1568
(lp1569
tp1570
a(L3243404432L
L3785322319L
(lp1571
(lp1572
Vrtc_clk_8m_enable
p1573
atp1574
a(L1960044254L
L0L
(lp1575
(lp1576
tp1577
a(L569203943L
L0L
(lp1578
(lp1579
tp1580
a(L2910371777L
L0L
(lp1581
(lp1582
tp1583
a(L2902417580L
L0L
(lp1584
(lp1585
tp1586
a(L645786836L
L0L
(lp1587
(lp1588
tp1589
a(L3020204L
L0L
(lp1590
(lp1591
tp1592
a(L2235519328L
L0L
(lp1593
(lp1594
tp1595
a(L3429540926L
L0L
(lp1596
(lp1597
tp1598
a(L3028464L
L0L
(lp1599
(lp1600
tp1601
a(L3309590973L
L3785322319L
(lp1602
(lp1603
Vrtc_clk_8m_enable
p1604
atp1605
atp1606
sI1074240088
(Vbootloader_reset
p1607
(lp1608
(L1083704575L
L3785322319L
(lp1609
(lp1610
Vbootloader_console_deinit
p1611
atp1612
a(L106L
L0L
(lp1613
(lp1614
tp1615
atp1616
sI1074234712
(Vbootloader_common_get_chip_ver_pkg
p1617
(lp1618
(L994406025L
L0L
(lp1619
(lp1620
tp1621
atp1622
sI1074235236
(Vbootloader_execute_flash_command
p1623
(lp1624
(L2481595632L
L3785322319L
(lp1625
(lp1626
Vbootloader_flash_execute_command_common
p1627
atp1628
atp1629
sI1074240352
(Vindex_to_partition
p1630
(lp1631
(L4066096119L
L0L
(lp1632
(lp1633
tp1634
a(L1101255660L
L0L
(lp1635
(lp1636
tp1637
a(L1955702725L
L0L
(lp1638
(lp1639
tp1640
a(L3698927993L
L0L
(lp1641
(lp1642
tp1643
a(L2808906342L
L0L
(lp1644
(lp1645
tp1646
a(L4211744375L
L0L
(lp1647
(lp1648
tp1649
a(L3097778015L
L0L
(lp1650
(lp1651
tp1652
a(L1816235430L
L0L
(lp1653
(lp1654
tp1655
a(L2179185678L
L0L
(lp1656
(lp1657
tp1658
a(L3369319173L
L0L
(lp1659
(lp1660
tp1661
atp1662
sI1074244448
(Vwdt_hal_set_flashboot_en
p1663
(lp1664
(L2375320464L
L0L
(lp1665
(lp1666
tp1667
a(L3915867581L
L0L
(lp1668
(lp1669
tp1670
a(L3360570486L
L0L
(lp1671
(lp1672
tp1673
a(L1860344008L
L0L
(lp1674
(lp1675
tp1676
atp1677
sI1074269792
(Vbootloader_config_wdt
p1678
(lp1679
(L3738756377L
L505859776L
(lp1680
(lp1681
Vwdt_hal_write_protect_disable
p1682
aVwdt_hal_set_flashboot_en
p1683
aVwdt_hal_write_protect_enable
p1684
aVwdt_hal_init
p1685
aVrtc_clk_slow_freq_get_hz
p1686
aVwdt_hal_write_protect_disable
p1687
aVwdt_hal_config_stage
p1688
aVwdt_hal_enable
p1689
aVwdt_hal_write_protect_enable
p1690
aVwdt_hal_write_protect_disable
p1691
aVwdt_hal_set_flashboot_en
p1692
aVwdt_hal_write_protect_enable
p1693
atp1694
atp1695
sI1074270048
(Vesp_cpu_configure_region_protection
p1696
(lp1697
(L1698042428L
L0L
(lp1698
(lp1699
tp1700
a(L180431425L
L3785322319L
(lp1701
(lp1702
Vmpu_hal_set_region_access
p1703
atp1704
a(L2537388152L
L3785322319L
(lp1705
(lp1706
Vmpu_hal_set_region_access
p1707
atp1708
atp1709
sI1074237036
(Vbootloader_common_check_chip_validity
p1710
(lp1711
(L2080115690L
L0L
(lp1712
(lp1713
tp1714
a(L101167642L
L3785322319L
(lp1715
(lp1716
Vesp_log_early_timestamp
p1717
atp1718
a(L1299867982L
L0L
(lp1719
(lp1720
tp1721
a(L3360570486L
L0L
(lp1722
(lp1723
tp1724
a(L521940037L
L3785322319L
(lp1725
(lp1726
Vefuse_hal_chip_revision
p1727
atp1728
a(L1521164372L
L0L
(lp1729
(lp1730
tp1731
a(L1652761108L
L3785322319L
(lp1732
(lp1733
Vesp_log_early_timestamp
p1734
atp1735
a(L3028464L
L0L
(lp1736
(lp1737
tp1738
a(L1797954754L
L0L
(lp1739
(lp1740
tp1741
a(L106L
L0L
(lp1742
(lp1743
tp1744
a(L3027019L
L0L
(lp1745
(lp1746
tp1747
a(L106L
L0L
(lp1748
(lp1749
tp1750
a(L2173180754L
L3785322319L
(lp1751
(lp1752
Vesp_log_early_timestamp
p1753
atp1754
atp1755
sI1074236780
(Vefuse_hal_get_major_chip_version
p1756
(lp1757
(L503352333L
L0L
(lp1758
(lp1759
tp1760
a(L894792960L
L0L
(lp1761
(lp1762
tp1763
a(L724635033L
L0L
(lp1764
(lp1765
tp1766
a(L3360570486L
L0L
(lp1767
(lp1768
tp1769
atp1770
sI1074240876
(Vbootloader_ana_clock_glitch_reset_config
p1771
(lp1772
(L2100504542L
L0L
(lp1773
(lp1774
tp1775
atp1776
sI1074240884
(Vprocess_checksum
p1777
(lp1778
(L4225894707L
L0L
(lp1779
(lp1780
tp1781
a(L3028481L
L0L
(lp1782
(lp1783
tp1784
a(L186886970L
L0L
(lp1785
(lp1786
tp1787
a(L2902417580L
L0L
(lp1788
(lp1789
tp1790
a(L3028481L
L0L
(lp1791
(lp1792
tp1793
a(L404508301L
L3785322319L
(lp1794
(lp1795
Vesp_log_early_timestamp
p1796
atp1797
a(L3620623795L
L0L
(lp1798
(lp1799
tp1800
a(L3236648107L
L3785322319L
(lp1801
(lp1802
Vbootloader_flash_read
p1803
atp1804
a(L735741265L
L0L
(lp1805
(lp1806
tp1807
a(L3020204L
L0L
(lp1808
(lp1809
tp1810
a(L2480703612L
L3785322319L
(lp1811
(lp1812
Vbootloader_sha256_data
p1813
atp1814
a(L3436105237L
L0L
(lp1815
(lp1816
tp1817
a(L106L
L0L
(lp1818
(lp1819
tp1820
atp1821
sI1074246004
(Vrtc_clk_cpu_freq_set_config
p1822
(lp1823
(L2360939883L
L3785322319L
(lp1824
(lp1825
Vrtc_clk_xtal_freq_get
p1826
atp1827
a(L2308773007L
L0L
(lp1828
(lp1829
tp1830
a(L3253451229L
L1880226080L
(lp1831
(lp1832
Vrtc_clk_cpu_freq_to_xtal
p1833
aVrtc_clk_wait_for_slow_cycle
p1834
atp1835
a(L2243645672L
L0L
(lp1836
(lp1837
tp1838
a(L4002786498L
L0L
(lp1839
(lp1840
tp1841
a(L2736411858L
L3785322319L
(lp1842
(lp1843
Vrtc_clk_cpu_freq_to_xtal
p1844
atp1845
a(L3360570486L
L0L
(lp1846
(lp1847
tp1848
a(L2755207760L
L1832448559L
(lp1849
(lp1850
Vrtc_clk_cpu_freq_to_xtal
p1851
aVrtc_clk_wait_for_slow_cycle
p1852
aVrtc_clk_bbpll_disable
p1853
atp1854
a(L3020187L
L0L
(lp1855
(lp1856
tp1857
a(L106L
L0L
(lp1858
(lp1859
tp1860
a(L4083631296L
L1880226080L
(lp1861
(lp1862
Vrtc_clk_wait_for_slow_cycle
p1863
aVrtc_clk_xtal_freq_get
p1864
atp1865
a(L106L
L0L
(lp1866
(lp1867
tp1868
a(L3054047929L
L0L
(lp1869
(lp1870
tp1871
a(L83268611L
L0L
(lp1872
(lp1873
tp1874
a(L106L
L0L
(lp1875
(lp1876
tp1877
a(L82345090L
L0L
(lp1878
(lp1879
tp1880
a(L106L
L0L
(lp1881
(lp1882
tp1883
a(L2258718273L
L0L
(lp1884
(lp1885
tp1886
a(L3298883534L
L0L
(lp1887
(lp1888
tp1889
a(L3342915645L
L0L
(lp1890
(lp1891
tp1892
a(L1001325447L
L3785322319L
(lp1893
(lp1894
Vrtc_clk_cpu_freq_to_pll_mhz
p1895
atp1896
a(L2188802667L
L0L
(lp1897
(lp1898
tp1899
a(L83268344L
L0L
(lp1900
(lp1901
tp1902
a(L82344823L
L0L
(lp1903
(lp1904
tp1905
a(L1569180676L
L0L
(lp1906
(lp1907
tp1908
a(L2258837488L
L0L
(lp1909
(lp1910
tp1911
a(L2862615613L
L0L
(lp1912
(lp1913
tp1914
a(L1482311963L
L0L
(lp1915
(lp1916
tp1917
a(L133411965L
L0L
(lp1918
(lp1919
tp1920
a(L3673491036L
L0L
(lp1921
(lp1922
tp1923
a(L4197990447L
L0L
(lp1924
(lp1925
tp1926
a(L903154985L
L0L
(lp1927
(lp1928
tp1929
a(L3020187L
L0L
(lp1930
(lp1931
tp1932
a(L106L
L0L
(lp1933
(lp1934
tp1935
a(L2127809850L
L3785322319L
(lp1936
(lp1937
Vesp_rom_set_cpu_ticks_per_us
p1938
atp1939
atp1940
sI1074240112
(Vbootloader_utility_load_boot_image
p1941
(lp1942
(L1375294773L
L0L
(lp1943
(lp1944
tp1945
a(L2177418995L
L3785322319L
(lp1946
(lp1947
Vtry_load_partition
p1948
atp1949
a(L1305243774L
L3785322319L
(lp1950
(lp1951
Vload_image
p1952
atp1953
a(L1481893282L
L3785322319L
(lp1954
(lp1955
Vesp_log_early_timestamp
p1956
atp1957
a(L3827921190L
L3785322319L
(lp1958
(lp1959
Vbootloader_reset
p1960
atp1961
a(L1953693036L
L3785322319L
(lp1962
(lp1963
Vindex_to_partition
p1964
atp1965
a(L1204373741L
L3785322319L
(lp1966
(lp1967
Vtry_load_partition
p1968
atp1969
a(L1899865696L
L0L
(lp1970
(lp1971
tp1972
a(L2695355117L
L3785322319L
(lp1973
(lp1974
Vset_actual_ota_seq
p1975
atp1976
a(L1868897605L
L3785322319L
(lp1977
(lp1978
Vlog_invalid_app_partition
p1979
atp1980
a(L831650730L
L0L
(lp1981
(lp1982
tp1983
a(L3021737L
L0L
(lp1984
(lp1985
tp1986
a(L695456438L
L0L
(lp1987
(lp1988
tp1989
a(L1129532116L
L3785322319L
(lp1990
(lp1991
Vtry_load_partition
p1992
atp1993
a(L4022121633L
L3785322319L
(lp1994
(lp1995
Vesp_log_early_timestamp
p1996
atp1997
a(L2347390157L
L3785322319L
(lp1998
(lp1999
Vindex_to_partition
p2000
atp2001
a(L1204373741L
L3785322319L
(lp2002
(lp2003
Vtry_load_partition
p2004
atp2005
a(L3061261803L
L0L
(lp2006
(lp2007
tp2008
a(L3582858798L
L3785322319L
(lp2009
(lp2010
Vlog_invalid_app_partition
p2011
atp2012
a(L1285752117L
L3785322319L
(lp2013
(lp2014
Vesp_log_early_timestamp
p2015
atp2016
atp2017
sI1074237308
(Vbootloader_common_ota_select_invalid
p2018
(lp2019
(L4027567199L
L0L
(lp2020
(lp2021
tp2022
a(L3397985842L
L0L
(lp2023
(lp2024
tp2025
a(L2258867228L
L0L
(lp2026
(lp2027
tp2028
a(L3785235668L
L0L
(lp2029
(lp2030
tp2031
atp2032
sI1074247804
(Vesp_rom_spiflash_erase_sector
p2033
(lp2034
(L209754944L
L0L
(lp2035
(lp2036
tp2037
a(L2258688483L
L0L
(lp2038
(lp2039
tp2040
a(L3360570486L
L0L
(lp2041
(lp2042
tp2043
a(L3212356251L
L3785322319L
(lp2044
(lp2045
Vesp_rom_spiflash_enable_write
p2046
atp2047
a(L184152988L
L0L
(lp2048
(lp2049
tp2050
a(L675211730L
L3785322319L
(lp2051
(lp2052
Vesp_rom_spiflash_wait_idle
p2053
atp2054
a(L3333707777L
L0L
(lp2055
(lp2056
tp2057
a(L3582858798L
L3785322319L
(lp2058
(lp2059
Vesp_rom_spiflash_wait_idle
p2060
atp2061
atp2062
sI1074234744
(Vesp_flash_encryption_enabled
p2063
(lp2064
(L376617603L
L3785322319L
(lp2065
(lp2066
Vefuse_hal_flash_encryption_enabled
p2067
atp2068
atp2069
sI1074236536
(Vesp_rom_set_cpu_ticks_per_us
p2070
(lp2071
(L2370326522L
L0L
(lp2072
(lp2073
tp2074
atp2075
sI1074243204
(Vbootloader_load_image
p2076
(lp2077
(L1155870502L
L3785322319L
(lp2078
(lp2079
Vimage_load
p2080
atp2081
atp2082
sI1074235268
(Vbootloader_flash_unlock
p2083
(lp2084
(L485855552L
L3785322319L
(lp2085
(lp2086
Vesp_rom_spiflash_wait_idle
p2087
atp2088
a(L711923870L
L0L
(lp2089
(lp2090
tp2091
a(L3507311156L
L3785322319L
(lp2092
(lp2093
Vbootloader_execute_flash_command
p2094
atp2095
a(L4103218025L
L0L
(lp2096
(lp2097
tp2098
a(L2529045083L
L0L
(lp2099
(lp2100
tp2101
a(L1175784077L
L1832448559L
(lp2102
(lp2103
Vesp_rom_spiflash_wait_idle
p2104
aVbootloader_execute_flash_command
p2105
aVbootloader_execute_flash_command
p2106
atp2107
a(L106L
L0L
(lp2108
(lp2109
tp2110
a(L594961218L
L1880226080L
(lp2111
(lp2112
Vesp_rom_spiflash_wait_idle
p2113
aVbootloader_execute_flash_command
p2114
atp2115
a(L2993202392L
L0L
(lp2116
(lp2117
tp2118
a(L610618707L
L0L
(lp2119
(lp2120
tp2121
a(L2843273676L
L0L
(lp2122
(lp2123
tp2124
a(L192015437L
L0L
(lp2125
(lp2126
tp2127
a(L3154322046L
L1880226080L
(lp2128
(lp2129
Vbootloader_execute_flash_command
p2130
aVbootloader_execute_flash_command
p2131
atp2132
a(L1303560644L
L0L
(lp2133
(lp2134
tp2135
a(L1711531685L
L1880226080L
(lp2136
(lp2137
Vbootloader_execute_flash_command
p2138
aVbootloader_execute_flash_command
p2139
atp2140
a(L3658700047L
L0L
(lp2141
(lp2142
tp2143
a(L3430607254L
L0L
(lp2144
(lp2145
tp2146
a(L106L
L0L
(lp2147
(lp2148
tp2149
a(L1876788132L
L1832448559L
(lp2150
(lp2151
Vesp_rom_spiflash_wait_idle
p2152
aVbootloader_execute_flash_command
p2153
aVbootloader_execute_flash_command
p2154
atp2155
atp2156
sI1074234756
(Vbootloader_flash_execute_command_common
p2157
(lp2158
(L3865052895L
L0L
(lp2159
(lp2160
tp2161
a(L3287175997L
L0L
(lp2162
(lp2163
tp2164
a(L4121451103L
L3785322319L
(lp2165
(lp2166
V__assert_func
p2167
atp2168
a(L3021749L
L0L
(lp2169
(lp2170
tp2171
a(L3999871943L
L0L
(lp2172
(lp2173
tp2174
a(L543316797L
L0L
(lp2175
(lp2176
tp2177
a(L2091933878L
L0L
(lp2178
(lp2179
tp2180
a(L1702379862L
L0L
(lp2181
(lp2182
tp2183
a(L3432464320L
L0L
(lp2184
(lp2185
tp2186
a(L3539375712L
L0L
(lp2187
(lp2188
tp2189
a(L3244449450L
L0L
(lp2190
(lp2191
tp2192
a(L4233404408L
L0L
(lp2193
(lp2194
tp2195
a(L2990329343L
L0L
(lp2196
(lp2197
tp2198
a(L2051090536L
L0L
(lp2199
(lp2200
tp2201
a(L3333696662L
L0L
(lp2202
(lp2203
tp2204
a(L963425213L
L0L
(lp2205
(lp2206
tp2207
a(L339491738L
L0L
(lp2208
(lp2209
tp2210
a(L3360570486L
L0L
(lp2211
(lp2212
tp2213
atp2214
sI1074247556
(Vesp_rom_spiflash_enable_write
p2215
(lp2216
(L1607061878L
L3785322319L
(lp2217
(lp2218
Vesp_rom_spiflash_wait_idle
p2219
atp2220
a(L3333707777L
L0L
(lp2221
(lp2222
tp2223
a(L2258688484L
L0L
(lp2224
(lp2225
tp2226
a(L99543895L
L0L
(lp2227
(lp2228
tp2229
a(L2993202392L
L0L
(lp2230
(lp2231
tp2232
a(L374468446L
L3785322319L
(lp2233
(lp2234
Vesp_rom_spiflash_read_status
p2235
atp2236
atp2237
sI1074245248
(Vrtc_clk_8m_enabled
p2238
(lp2239
(L4125363490L
L0L
(lp2240
(lp2241
tp2242
atp2243
sI1074236552
(Vesp_rom_uart_tx_wait_idle
p2244
(lp2245
(L2849601099L
L0L
(lp2246
(lp2247
tp2248
a(L1301079727L
L0L
(lp2249
(lp2250
tp2251
a(L597952197L
L0L
(lp2252
(lp2253
tp2254
a(L1971823332L
L0L
(lp2255
(lp2256
tp2257
a(L3055926844L
L0L
(lp2258
(lp2259
tp2260
a(L3360570486L
L0L
(lp2261
(lp2262
tp2263
a(L3694491048L
L0L
(lp2264
(lp2265
tp2266
a(L106L
L0L
(lp2267
(lp2268
tp2269
atp2270
sI1074238856
(Vcache_ll_l1_enable_bus
p2271
(lp2272
(L1408514293L
L0L
(lp2273
(lp2274
tp2275
atp2276
sI1074245000
(Vrtc_clk_bbpll_disable
p2277
(lp2278
(L3905321210L
L0L
(lp2279
(lp2280
tp2281
a(L2472207241L
L0L
(lp2282
(lp2283
tp2284
a(L3360570486L
L0L
(lp2285
(lp2286
tp2287
atp2288
sI1074268056
(Vbootloader_init
p2289
(lp2290
(L1256100286L
L3785322319L
(lp2291
(lp2292
Vbootloader_init_mem
p2293
atp2294
a(L496177411L
L0L
(lp2295
(lp2296
tp2297
a(L2027378118L
L3785322319L
(lp2298
(lp2299
V__assert_func
p2300
atp2301
a(L408886226L
L0L
(lp2302
(lp2303
tp2304
a(L2892662435L
L0L
(lp2305
(lp2306
tp2307
a(L3813782018L
L0L
(lp2308
(lp2309
tp2310
a(L3379255958L
L0L
(lp2311
(lp2312
tp2313
a(L3027019L
L0L
(lp2314
(lp2315
tp2316
a(L3949229104L
L0L
(lp2317
(lp2318
tp2319
a(L4055793689L
L1832448559L
(lp2320
(lp2321
Vbootloader_clear_bss_section
p2322
aVbootloader_common_vddsdio_configure
p2323
aVbootloader_clock_get_rated_freq_mhz
p2324
atp2325
a(L106L
L0L
(lp2326
(lp2327
tp2328
a(L87629889L
L1157885199L
(lp2329
(lp2330
Vbootloader_clock_configure
p2331
aVbootloader_console_init
p2332
aVbootloader_print_banner
p2333
aVbootloader_flash_update_id
p2334
aVbootloader_flash_xmc_startup
p2335
atp2336
a(L296996763L
L3785322319L
(lp2337
(lp2338
Vesp_log_early_timestamp
p2339
atp2340
a(L657010908L
L3785322319L
(lp2341
(lp2342
Vesp_log_early_timestamp
p2343
atp2344
a(L3360570486L
L0L
(lp2345
(lp2346
tp2347
a(L2444883382L
L3785322319L
(lp2348
(lp2349
Vbootloader_read_bootloader_header
p2350
atp2351
a(L2444883382L
L3785322319L
(lp2352
(lp2353
Vbootloader_check_bootloader_validity
p2354
atp2355
a(L2444883382L
L3785322319L
(lp2356
(lp2357
Vbootloader_init_spi_flash
p2358
atp2359
a(L3638850911L
L0L
(lp2360
(lp2361
tp2362
a(L254817508L
L0L
(lp2363
(lp2364
tp2365
a(L93892250L
L0L
(lp2366
(lp2367
tp2368
a(L2915015718L
L0L
(lp2369
(lp2370
tp2371
a(L1634500369L
L1880226080L
(lp2372
(lp2373
Vbootloader_config_wdt
p2374
aVbootloader_enable_random
p2375
atp2376
a(L1895147938L
L0L
(lp2377
(lp2378
tp2379
a(L2680457259L
L0L
(lp2380
(lp2381
tp2382
a(L3027019L
L0L
(lp2383
(lp2384
tp2385
a(L97315L
L0L
(lp2386
(lp2387
tp2388
a(L1442646668L
L3785322319L
(lp2389
(lp2390
Vesp_log_early_timestamp
p2391
atp2392
a(L4094931264L
L3785322319L
(lp2393
(lp2394
Vesp_log_early_timestamp
p2395
atp2396
a(L3164960223L
L0L
(lp2397
(lp2398
tp2399
a(L1895147938L
L0L
(lp2400
(lp2401
tp2402
a(L156585483L
L1880226080L
(lp2403
(lp2404
Vwdt_reset_info_dump
p2405
aVwdt_reset_info_dump
p2406
atp2407
atp2408
sI1074268568
(Vbootloader_common_vddsdio_configure
p2409
(lp2410
(L1829974089L
L3785322319L
(lp2411
(lp2412
Vrtc_vddsdio_get_config
p2413
atp2414
a(L2795064753L
L3785322319L
(lp2415
(lp2416
Vrtc_vddsdio_set_config
p2417
atp2418
a(L3360570486L
L0L
(lp2419
(lp2420
tp2421
atp2422
sI1074243220
(Vesp_partition_table_verify
p2423
(lp2424
(L3052823174L
L0L
(lp2425
(lp2426
tp2427
a(L1787509322L
L0L
(lp2428
(lp2429
tp2430
a(L1184829782L
L0L
(lp2431
(lp2432
tp2433
a(L3020204L
L0L
(lp2434
(lp2435
tp2436
a(L2512375030L
L3785322319L
(lp2437
(lp2438
Vesp_log_early_timestamp
p2439
atp2440
a(L1235012963L
L0L
(lp2441
(lp2442
tp2443
a(L3190337587L
L0L
(lp2444
(lp2445
tp2446
a(L2069928857L
L0L
(lp2447
(lp2448
tp2449
a(L2902417580L
L0L
(lp2450
(lp2451
tp2452
a(L1997576908L
L3785322319L
(lp2453
(lp2454
Vesp_log_early_timestamp
p2455
atp2456
a(L1535212808L
L0L
(lp2457
(lp2458
tp2459
a(L3020204L
L0L
(lp2460
(lp2461
tp2462
a(L3020204L
L0L
(lp2463
(lp2464
tp2465
a(L757174634L
L3785322319L
(lp2466
(lp2467
Vesp_log_early_timestamp
p2468
atp2469
a(L3833270346L
L0L
(lp2470
(lp2471
tp2472
a(L1235012932L
L0L
(lp2473
(lp2474
tp2475
a(L3307599839L
L0L
(lp2476
(lp2477
tp2478
a(L3020204L
L0L
(lp2479
(lp2480
tp2481
a(L1997576660L
L3785322319L
(lp2482
(lp2483
Vesp_log_early_timestamp
p2484
atp2485
a(L1305407469L
L0L
(lp2486
(lp2487
tp2488
a(L1167861556L
L0L
(lp2489
(lp2490
tp2491
a(L818997085L
L0L
(lp2492
(lp2493
tp2494
a(L3360570486L
L0L
(lp2495
(lp2496
tp2497
a(L3020204L
L0L
(lp2498
(lp2499
tp2500
a(L912913761L
L3785322319L
(lp2501
(lp2502
Vesp_log_early_timestamp
p2503
atp2504
atp2505
sI1074270096
(Vrtc_clk_xtal_freq_estimate
p2506
(lp2507
(L1823831978L
L1880226080L
(lp2508
(lp2509
Vrtc_clk_8m_enabled
p2510
aVrtc_clk_8md256_enabled
p2511
atp2512
a(L2449794434L
L3785322319L
(lp2513
(lp2514
Vrtc_clk_8m_enable
p2515
atp2516
a(L853245806L
L3785322319L
(lp2517
(lp2518
Vrtc_clk_cal_ratio
p2519
atp2520
a(L3934977694L
L0L
(lp2521
(lp2522
tp2523
a(L3955289886L
L0L
(lp2524
(lp2525
tp2526
a(L2836128282L
L3785322319L
(lp2527
(lp2528
Vesp_log_early_timestamp
p2529
atp2530
a(L2307427870L
L0L
(lp2531
(lp2532
tp2533
a(L1281346514L
L3785322319L
(lp2534
(lp2535
Vrtc_clk_8m_enable
p2536
atp2537
a(L3909119106L
L0L
(lp2538
(lp2539
tp2540
a(L609099921L
L3785322319L
(lp2541
(lp2542
Vesp_log_early_timestamp
p2543
atp2544
a(L3304487880L
L0L
(lp2545
(lp2546
tp2547
a(L1641150486L
L0L
(lp2548
(lp2549
tp2550
a(L2362505285L
L3785322319L
(lp2551
(lp2552
Vesp_log_early_timestamp
p2553
atp2554
atp2555
sI1074245532
(Vrtc_clk_fast_src_get
p2556
(lp2557
(L2355769504L
L0L
(lp2558
(lp2559
tp2560
atp2561
sI1074270868
(Vrtc_vddsdio_set_config
p2562
(lp2563
(L2761419615L
L0L
(lp2564
(lp2565
tp2566
atp2567
sI1074237336
(Vbootloader_common_select_otadata
p2568
(lp2569
(L4071767857L
L0L
(lp2570
(lp2571
tp2572
a(L1999329187L
L0L
(lp2573
(lp2574
tp2575
a(L3846398843L
L0L
(lp2576
(lp2577
tp2578
a(L2501968171L
L0L
(lp2579
(lp2580
tp2581
a(L3360570486L
L0L
(lp2582
(lp2583
tp2584
a(L2045232488L
L0L
(lp2585
(lp2586
tp2587
a(L1243525916L
L0L
(lp2588
(lp2589
tp2590
a(L3094144427L
L0L
(lp2591
(lp2592
tp2593
a(L2399509845L
L0L
(lp2594
(lp2595
tp2596
a(L1641201884L
L0L
(lp2597
(lp2598
tp2599
atp2600
sI1074245272
(Vrtc_clk_8md256_enabled
p2601
(lp2602
(L3280891619L
L0L
(lp2603
(lp2604
tp2605
atp2606
sI1074269352
(Vbootloader_flash_update_id
p2607
(lp2608
(L3587584986L
L3785322319L
(lp2609
(lp2610
Vbootloader_read_flash_id
p2611
atp2612
atp2613
sI1074244516
(Vwdt_hal_write_protect_enable
p2614
(lp2615
(L387778158L
L0L
(lp2616
(lp2617
tp2618
a(L4195472003L
L0L
(lp2619
(lp2620
tp2621
a(L3360570486L
L0L
(lp2622
(lp2623
tp2624
a(L802523425L
L0L
(lp2625
(lp2626
tp2627
atp2628
sI1074242724
(Vimage_load
p2629
(lp2630
(L3048705773L
L0L
(lp2631
(lp2632
tp2633
a(L3463713141L
L0L
(lp2634
(lp2635
tp2636
a(L3309803581L
L0L
(lp2637
(lp2638
tp2639
a(L256049682L
L0L
(lp2640
(lp2641
tp2642
a(L1935188817L
L0L
(lp2643
(lp2644
tp2645
a(L3028481L
L0L
(lp2646
(lp2647
tp2648
a(L3021749L
L0L
(lp2649
(lp2650
tp2651
a(L106L
L0L
(lp2652
(lp2653
tp2654
a(L585264737L
L0L
(lp2655
(lp2656
tp2657
a(L1145291904L
L3785322319L
(lp2658
(lp2659
Vprocess_image_header
p2660
atp2661
a(L823859500L
L0L
(lp2662
(lp2663
tp2664
a(L3061291474L
L0L
(lp2665
(lp2666
tp2667
a(L4106474008L
L3785322319L
(lp2668
(lp2669
Vprocess_segments
p2670
atp2671
a(L3868840998L
L0L
(lp2672
(lp2673
tp2674
a(L2539156582L
L0L
(lp2675
(lp2676
tp2677
a(L1827898452L
L3785322319L
(lp2678
(lp2679
Vprocess_checksum
p2680
atp2681
a(L2214715179L
L3785322319L
(lp2682
(lp2683
Vprocess_appended_hash_and_sig
p2684
atp2685
a(L3028481L
L0L
(lp2686
(lp2687
tp2688
a(L2902417580L
L0L
(lp2689
(lp2690
tp2691
a(L3285560995L
L3785322319L
(lp2692
(lp2693
Vbootloader_sha256_finish
p2694
atp2695
a(L3946560000L
L0L
(lp2696
(lp2697
tp2698
a(L93674324L
L0L
(lp2699
(lp2700
tp2701
a(L1697897005L
L0L
(lp2702
(lp2703
tp2704
a(L772115669L
L0L
(lp2705
(lp2706
tp2707
a(L1179424413L
L0L
(lp2708
(lp2709
tp2710
a(L3928150917L
L0L
(lp2711
(lp2712
tp2713
a(L106L
L0L
(lp2714
(lp2715
tp2716
a(L3871473710L
L0L
(lp2717
(lp2718
tp2719
a(L3884726427L
L0L
(lp2720
(lp2721
tp2722
a(L106L
L0L
(lp2723
(lp2724
tp2725
a(L3020187L
L0L
(lp2726
(lp2727
tp2728
a(L1154787525L
L3785322319L
(lp2729
(lp2730
Vesp_log_early_timestamp
p2731
atp2732
a(L2868044067L
L0L
(lp2733
(lp2734
tp2735
a(L1179764900L
L0L
(lp2736
(lp2737
tp2738
a(L2332746046L
L3785322319L
(lp2739
(lp2740
Vbootloader_sha256_finish
p2741
atp2742
a(L2040089937L
L0L
(lp2743
(lp2744
tp2745
a(L3020204L
L0L
(lp2746
(lp2747
tp2748
a(L2321110974L
L0L
(lp2749
(lp2750
tp2751
a(L106L
L0L
(lp2752
(lp2753
tp2754
a(L4011122867L
L1880226080L
(lp2755
(lp2756
Vbootloader_sha256_finish
p2757
aVbootloader_debug_buffer
p2758
atp2759
a(L4175189927L
L1880226080L
(lp2760
(lp2761
Vesp_log_early_timestamp
p2762
aVbootloader_debug_buffer
p2763
atp2764
a(L3741653406L
L3785322319L
(lp2765
(lp2766
Vshould_load
p2767
atp2768
a(L2764257181L
L0L
(lp2769
(lp2770
tp2771
a(L3338774213L
L0L
(lp2772
(lp2773
tp2774
a(L3464541874L
L0L
(lp2775
(lp2776
tp2777
a(L3349572949L
L0L
(lp2778
(lp2779
tp2780
a(L2192292519L
L0L
(lp2781
(lp2782
tp2783
a(L106L
L0L
(lp2784
(lp2785
tp2786
a(L26615924L
L0L
(lp2787
(lp2788
tp2789
a(L1299866312L
L0L
(lp2790
(lp2791
tp2792
a(L3010020263L
L0L
(lp2793
(lp2794
tp2795
atp2796
sI1074235556
(Vbootloader_flash_read_sfdp
p2797
(lp2798
(L711701400L
L0L
(lp2799
(lp2800
tp2801
a(L3305374083L
L3785322319L
(lp2802
(lp2803
V__assert_func
p2804
atp2805
a(L3704332455L
L3785322319L
(lp2806
(lp2807
Vbootloader_flash_execute_command_common
p2808
atp2809
atp2810
sI1074235808
(Vbootloader_flash_cs_timing_config
p2811
(lp2812
(L1940014330L
L0L
(lp2813
(lp2814
tp2815
atp2816
sI1074240416
(Vbootloader_debug_buffer
p2817
(lp2818
(L2100504542L
L0L
(lp2819
(lp2820
tp2821
atp2822
sI1074243488
(Vwdt_hal_init
p2823
(lp2824
(L584362441L
L0L
(lp2825
(lp2826
tp2827
a(L106L
L0L
(lp2828
(lp2829
tp2830
a(L2104869666L
L0L
(lp2831
(lp2832
tp2833
a(L3076988543L
L0L
(lp2834
(lp2835
tp2836
a(L3642440310L
L0L
(lp2837
(lp2838
tp2839
a(L3028464L
L0L
(lp2840
(lp2841
tp2842
a(L826451645L
L0L
(lp2843
(lp2844
tp2845
a(L2196941787L
L0L
(lp2846
(lp2847
tp2848
a(L26809647L
L0L
(lp2849
(lp2850
tp2851
a(L3360570486L
L0L
(lp2852
(lp2853
tp2854
atp2855
sI1074245548
(Vrtc_clk_xtal_freq_get
p2856
(lp2857
(L1996970978L
L0L
(lp2858
(lp2859
tp2860
a(L2847936993L
L0L
(lp2861
(lp2862
tp2863
a(L2568986948L
L0L
(lp2864
(lp2865
tp2866
a(L3360570486L
L0L
(lp2867
(lp2868
tp2869
atp2870
sI1074238120
(Vbootloader_enable_wp
p2871
(lp2872
(L1117825804L
L3785322319L
(lp2873
(lp2874
Vbootloader_execute_flash_command
p2875
atp2876
atp2877
sI1074240424
(Vbootloader_sha256_start
p2878
(lp2879
(L260677377L
L0L
(lp2880
(lp2881
tp2882
atp2883
sI1074248104
(Vesp_rom_spiflash_write_encrypted
p2884
(lp2885
(L1944247967L
L0L
(lp2886
(lp2887
tp2888
a(L484831750L
L0L
(lp2889
(lp2890
tp2891
a(L97689L
L0L
(lp2892
(lp2893
tp2894
a(L3061232074L
L0L
(lp2895
(lp2896
tp2897
a(L364518710L
L0L
(lp2898
(lp2899
tp2900
a(L1309309703L
L3785322319L
(lp2901
(lp2902
Vesp_rom_spiflash_write
p2903
atp2904
a(L1246748027L
L0L
(lp2905
(lp2906
tp2907
a(L735741265L
L0L
(lp2908
(lp2909
tp2910
atp2911
sI1074267832
(Vwdt_reset_info_dump
p2912
(lp2913
(L4037458708L
L0L
(lp2914
(lp2915
tp2916
a(L522353410L
L0L
(lp2917
(lp2918
tp2919
a(L217258670L
L0L
(lp2920
(lp2921
tp2922
a(L1103285333L
L0L
(lp2923
(lp2924
tp2925
a(L4222762845L
L3785322319L
(lp2926
(lp2927
Vesp_log_early_timestamp
p2928
atp2929
a(L2967992533L
L0L
(lp2930
(lp2931
tp2932
a(L1493818067L
L0L
(lp2933
(lp2934
tp2935
a(L4025433257L
L3785322319L
(lp2936
(lp2937
Vesp_log_early_timestamp
p2938
atp2939
atp2940
sI1074268856
(Vbootloader_init_mem
p2941
(lp2942
(L1287383080L
L3785322319L
(lp2943
(lp2944
Vesp_cpu_configure_region_protection
p2945
atp2946
atp2947
sI1074269368
(Vbootloader_init_spi_flash
p2948
(lp2949
(L1156132900L
L2485746240L
(lp2950
(lp2951
Vbootloader_flash_gpio_config
p2952
aVbootloader_flash_dummy_config
p2953
aVbootloader_flash_cs_timing_config
p2954
aVbootloader_flash_unlock
p2955
atp2956
a(L582446944L
L0L
(lp2957
(lp2958
tp2959
a(L3652859485L
L0L
(lp2960
(lp2961
tp2962
a(L3201442148L
L0L
(lp2963
(lp2964
tp2965
a(L1305670861L
L3785322319L
(lp2966
(lp2967
Vesp_log_early_timestamp
p2968
atp2969
a(L2177628073L
L0L
(lp2970
(lp2971
tp2972
a(L2181322157L
L0L
(lp2973
(lp2974
tp2975
a(L2221033560L
L0L
(lp2976
(lp2977
tp2978
a(L2206256728L
L0L
(lp2979
(lp2980
tp2981
a(L703426222L
L0L
(lp2982
(lp2983
tp2984
a(L706396929L
L3785322319L
(lp2985
(lp2986
Vesp_log_early_timestamp
p2987
atp2988
a(L93674324L
L0L
(lp2989
(lp2990
tp2991
a(L3405401315L
L0L
(lp2992
(lp2993
tp2994
a(L3738746921L
L0L
(lp2995
(lp2996
tp2997
a(L460460808L
L0L
(lp2998
(lp2999
tp3000
a(L3746143366L
L0L
(lp3001
(lp3002
tp3003
a(L650365607L
L3785322319L
(lp3004
(lp3005
Vesp_log_early_timestamp
p3006
atp3007
a(L93674324L
L0L
(lp3008
(lp3009
tp3010
a(L3422553167L
L0L
(lp3011
(lp3012
tp3013
a(L1707909459L
L0L
(lp3014
(lp3015
tp3016
a(L4101522284L
L0L
(lp3017
(lp3018
tp3019
a(L246698275L
L3785322319L
(lp3020
(lp3021
Vbootloader_enable_wp
p3022
atp3023
a(L3907331784L
L0L
(lp3024
(lp3025
tp3026
atp3027
sI1074245296
(Vrtc_clk_slow_src_set
p3028
(lp3029
(L351921003L
L0L
(lp3030
(lp3031
tp3032
a(L3020187L
L0L
(lp3033
(lp3034
tp3035
a(L3028481L
L0L
(lp3036
(lp3037
tp3038
a(L487821223L
L0L
(lp3039
(lp3040
tp3041
a(L2160049175L
L0L
(lp3042
(lp3043
tp3044
a(L1851908495L
L0L
(lp3045
(lp3046
tp3047
a(L382170874L
L0L
(lp3048
(lp3049
tp3050
a(L3138544334L
L0L
(lp3051
(lp3052
tp3053
a(L94425498L
L3785322319L
(lp3054
(lp3055
Vabort
p3056
atp3057
atp3058
sI1074238640
(Vcache_ll_l1_get_bus
p3059
(lp3060
(L3820023252L
L0L
(lp3061
(lp3062
tp3063
a(L94425498L
L3785322319L
(lp3064
(lp3065
Vabort
p3066
atp3067
a(L3179088012L
L0L
(lp3068
(lp3069
tp3070
a(L3485549502L
L0L
(lp3071
(lp3072
tp3073
a(L892952750L
L0L
(lp3074
(lp3075
tp3076
a(L1182811810L
L0L
(lp3077
(lp3078
tp3079
a(L1101742417L
L0L
(lp3080
(lp3081
tp3082
a(L1100767927L
L0L
(lp3083
(lp3084
tp3085
a(L3360570486L
L0L
(lp3086
(lp3087
tp3088
a(L2767111967L
L0L
(lp3089
(lp3090
tp3091
a(L2882938163L
L0L
(lp3092
(lp3093
tp3094
a(L2927201858L
L0L
(lp3095
(lp3096
tp3097
a(L2258718273L
L0L
(lp3098
(lp3099
tp3100
a(L2580713941L
L0L
(lp3101
(lp3102
tp3103
a(L2748641547L
L0L
(lp3104
(lp3105
tp3106
a(L2752340901L
L0L
(lp3107
(lp3108
tp3109
a(L1641149277L
L0L
(lp3110
(lp3111
tp3112
a(L3211405977L
L0L
(lp3113
(lp3114
tp3115
a(L3027019L
L0L
(lp3116
(lp3117
tp3118
a(L1299866560L
L0L
(lp3119
(lp3120
tp3121
a(L1299866436L
L0L
(lp3122
(lp3123
tp3124
atp3125
sI1074236848
(Vefuse_hal_get_minor_chip_version
p3126
(lp3127
(L2721608854L
L0L
(lp3128
(lp3129
tp3130
atp3131
sI1074240444
(Vbootloader_sha256_data
p3132
(lp3133
(L4066096136L
L0L
(lp3134
(lp3135
tp3136
a(L110883720L
L0L
(lp3137
(lp3138
tp3139
a(L3884092851L
L3785322319L
(lp3140
(lp3141
V__assert_func
p3142
atp3143
a(L498498478L
L0L
(lp3144
(lp3145
tp3146
a(L534463199L
L0L
(lp3147
(lp3148
tp3149
a(L2910371777L
L0L
(lp3150
(lp3151
tp3152
a(L3360570486L
L0L
(lp3153
(lp3154
tp3155
a(L1788837773L
L0L
(lp3156
(lp3157
tp3158
a(L248495140L
L0L
(lp3159
(lp3160
tp3161
a(L106045974L
L0L
(lp3162
(lp3163
tp3164
a(L4275021735L
L0L
(lp3165
(lp3166
tp3167
a(L814105420L
L0L
(lp3168
(lp3169
tp3170
a(L1394964493L
L0L
(lp3171
(lp3172
tp3173
a(L2437413408L
L0L
(lp3174
(lp3175
tp3176
a(L702738185L
L0L
(lp3177
(lp3178
tp3179
a(L3745004802L
L0L
(lp3180
(lp3181
tp3182
atp3183
sI1074238908
(Vload_image
p3184
(lp3185
(L4055976749L
L1832448559L
(lp3186
(lp3187
Vesp_log_early_timestamp
p3188
aVbootloader_random_disable
p3189
aVbootloader_ana_clock_glitch_reset_config
p3190
atp3191
a(L2261049225L
L0L
(lp3192
(lp3193
tp3194
a(L106L
L0L
(lp3195
(lp3196
tp3197
a(L452592812L
L3758435744L
(lp3198
(lp3199
Vmmu_hal_unmap_all
p3200
aVcache_ll_l1_get_bus
p3201
aVcache_ll_l1_enable_bus
p3202
aVcache_ll_l1_get_bus
p3203
aVcache_ll_l1_enable_bus
p3204
aVcache_ll_l1_get_bus
p3205
aVcache_ll_l1_enable_bus
p3206
aVcache_ll_l1_get_bus
p3207
aVcache_ll_l1_enable_bus
p3208
aVbootloader_console_deinit
p3209
atp3210
a(L1385141500L
L0L
(lp3211
(lp3212
tp3213
a(L2902417580L
L0L
(lp3214
(lp3215
tp3216
a(L4167095070L
L3785322319L
(lp3217
(lp3218
Vesp_log_early_timestamp
p3219
atp3220
a(L2552261596L
L0L
(lp3221
(lp3222
tp3223
a(L70617440L
L0L
(lp3224
(lp3225
tp3226
a(L3020204L
L0L
(lp3227
(lp3228
tp3229
a(L1040324029L
L3785322319L
(lp3230
(lp3231
Vesp_log_early_timestamp
p3232
atp3233
a(L3291469664L
L0L
(lp3234
(lp3235
tp3236
a(L2591655545L
L0L
(lp3237
(lp3238
tp3239
atp3240
sI1074238140
(Vbootloader_mmap_get_free_pages
p3241
(lp3242
(L1496516875L
L0L
(lp3243
(lp3244
tp3245
atp3246
sI1074245820
(Vrtc_clk_xtal_freq_update
p3247
(lp3248
(L1600643482L
L0L
(lp3249
(lp3250
tp3251
a(L3509357017L
L0L
(lp3252
(lp3253
tp3254
a(L2266180931L
L0L
(lp3255
(lp3256
tp3257
atp3258
sI1074247612
(Vesp_rom_spiflash_program_page_internal
p3259
(lp3260
(L2569069283L
L0L
(lp3261
(lp3262
tp3263
a(L2258688483L
L0L
(lp3264
(lp3265
tp3266
a(L3360570486L
L0L
(lp3267
(lp3268
tp3269
a(L328133326L
L0L
(lp3270
(lp3271
tp3272
a(L4235661475L
L3785322319L
(lp3273
(lp3274
Vesp_rom_spiflash_wait_idle
p3275
atp3276
a(L1299866312L
L0L
(lp3277
(lp3278
tp3279
a(L3212356251L
L3785322319L
(lp3280
(lp3281
Vesp_rom_spiflash_enable_write
p3282
atp3283
a(L1757758545L
L0L
(lp3284
(lp3285
tp3286
a(L3222092521L
L0L
(lp3287
(lp3288
tp3289
a(L2953702749L
L0L
(lp3290
(lp3291
tp3292
a(L2989032L
L0L
(lp3293
(lp3294
tp3295
a(L1965622133L
L0L
(lp3296
(lp3297
tp3298
a(L2236003503L
L0L
(lp3299
(lp3300
tp3301
a(L1958113242L
L0L
(lp3302
(lp3303
tp3304
a(L106L
L0L
(lp3305
(lp3306
tp3307
a(L3112950080L
L0L
(lp3308
(lp3309
tp3310
a(L1868606439L
L0L
(lp3311
(lp3312
tp3313
a(L1008983218L
L0L
(lp3314
(lp3315
tp3316
a(L1933954923L
L0L
(lp3317
(lp3318
tp3319
a(L1147866918L
L0L
(lp3320
(lp3321
tp3322
a(L3871602522L
L0L
(lp3323
(lp3324
tp3325
atp3326
sI1074238148
(Vbootloader_fill_random
p3327
(lp3328
(L1233865241L
L0L
(lp3329
(lp3330
tp3331
a(L3569542132L
L3785322319L
(lp3332
(lp3333
V__assert_func
p3334
atp3335
a(L1882547218L
L0L
(lp3336
(lp3337
tp3338
a(L2910371777L
L0L
(lp3339
(lp3340
tp3341
a(L95634693L
L0L
(lp3342
(lp3343
tp3344
a(L3630908706L
L0L
(lp3345
(lp3346
tp3347
a(L160162640L
L0L
(lp3348
(lp3349
tp3350
a(L97689L
L0L
(lp3351
(lp3352
tp3353
a(L3360570486L
L0L
(lp3354
(lp3355
tp3356
atp3357
sI1074245060
(Vrtc_clk_32k_enable
p3358
(lp3359
(L753387299L
L0L
(lp3360
(lp3361
tp3362
a(L3776007933L
L3785322319L
(lp3363
(lp3364
Vrtc_clk_32k_enable_common
p3365
atp3366
a(L3496950L
L0L
(lp3367
(lp3368
tp3369
a(L2215760449L
L0L
(lp3370
(lp3371
tp3372
atp3373
sI1074244544
(Vwdt_hal_enable
p3374
(lp3375
(L2299130915L
L0L
(lp3376
(lp3377
tp3378
a(L165794138L
L0L
(lp3379
(lp3380
tp3381
a(L3360570486L
L0L
(lp3382
(lp3383
tp3384
a(L2847657174L
L0L
(lp3385
(lp3386
tp3387
atp3388
sI1074241984
(Vprocess_segments
p3389
(lp3390
(L1326203493L
L0L
(lp3391
(lp3392
tp3393
a(L1640778736L
L0L
(lp3394
(lp3395
tp3396
a(L3782401745L
L0L
(lp3397
(lp3398
tp3399
a(L106L
L0L
(lp3400
(lp3401
tp3402
a(L3028481L
L0L
(lp3403
(lp3404
tp3405
a(L1742099198L
L3785322319L
(lp3406
(lp3407
Vesp_log_early_timestamp
p3408
atp3409
a(L761135359L
L3785322319L
(lp3410
(lp3411
Vbootloader_flash_read
p3412
atp3413
a(L3061347840L
L3785322319L
(lp3414
(lp3415
Vesp_log_early_timestamp
p3416
atp3417
a(L3871473710L
L0L
(lp3418
(lp3419
tp3420
a(L219417435L
L0L
(lp3421
(lp3422
tp3423
a(L616767314L
L3785322319L
(lp3424
(lp3425
Vbootloader_sha256_data
p3426
atp3427
a(L707062298L
L0L
(lp3428
(lp3429
tp3430
a(L2258837437L
L0L
(lp3431
(lp3432
tp3433
a(L1764156528L
L0L
(lp3434
(lp3435
tp3436
a(L3028481L
L0L
(lp3437
(lp3438
tp3439
a(L254329145L
L3785322319L
(lp3440
(lp3441
Vesp_log_early_timestamp
p3442
atp3443
a(L568253874L
L0L
(lp3444
(lp3445
tp3446
a(L2349343057L
L0L
(lp3447
(lp3448
tp3449
a(L3802069243L
L0L
(lp3450
(lp3451
tp3452
a(L3794462993L
L0L
(lp3453
(lp3454
tp3455
a(L2258867228L
L0L
(lp3456
(lp3457
tp3458
a(L2277415887L
L0L
(lp3459
(lp3460
tp3461
a(L3177376558L
L0L
(lp3462
(lp3463
tp3464
a(L3028481L
L0L
(lp3465
(lp3466
tp3467
a(L113671451L
L3785322319L
(lp3468
(lp3469
Vesp_log_early_timestamp
p3470
atp3471
a(L2640606608L
L0L
(lp3472
(lp3473
tp3474
a(L3028481L
L0L
(lp3475
(lp3476
tp3477
a(L1304081863L
L3785322319L
(lp3478
(lp3479
Vesp_log_early_timestamp
p3480
atp3481
a(L3312579080L
L0L
(lp3482
(lp3483
tp3484
a(L2902417580L
L0L
(lp3485
(lp3486
tp3487
a(L2902417580L
L0L
(lp3488
(lp3489
tp3490
a(L1229952296L
L3785322319L
(lp3491
(lp3492
Vverify_load_addresses
p3493
atp3494
a(L3783935185L
L3785322319L
(lp3495
(lp3496
Vbootloader_mmap_get_free_pages
p3497
atp3498
a(L3028481L
L0L
(lp3499
(lp3500
tp3501
a(L224879076L
L0L
(lp3502
(lp3503
tp3504
a(L142590671L
L0L
(lp3505
(lp3506
tp3507
a(L3028481L
L0L
(lp3508
(lp3509
tp3510
a(L94425498L
L3785322319L
(lp3511
(lp3512
Vesp_log_early_timestamp
p3513
atp3514
a(L2482970521L
L0L
(lp3515
(lp3516
tp3517
a(L4085121624L
L3785322319L
(lp3518
(lp3519
Vshould_load
p3520
atp3521
a(L3028481L
L0L
(lp3522
(lp3523
tp3524
a(L3799683059L
L3785322319L
(lp3525
(lp3526
Vesp_log_early_timestamp
p3527
atp3528
a(L106L
L0L
(lp3529
(lp3530
tp3531
a(L3815630522L
L0L
(lp3532
(lp3533
tp3534
a(L1373549761L
L3785322319L
(lp3535
(lp3536
Vesp_log_early_timestamp
p3537
atp3538
a(L2629678223L
L0L
(lp3539
(lp3540
tp3541
a(L2684012095L
L0L
(lp3542
(lp3543
tp3544
a(L3357777304L
L3785322319L
(lp3545
(lp3546
Vbootloader_mmap
p3547
atp3548
a(L4263532617L
L3785322319L
(lp3549
(lp3550
Vesp_log_early_timestamp
p3551
atp3552
a(L1698460186L
L0L
(lp3553
(lp3554
tp3555
a(L719832453L
L0L
(lp3556
(lp3557
tp3558
a(L642150438L
L0L
(lp3559
(lp3560
tp3561
a(L1595421496L
L3785322319L
(lp3562
(lp3563
Vbootloader_munmap
p3564
atp3565
a(L2757579158L
L0L
(lp3566
(lp3567
tp3568
a(L2356270618L
L3785322319L
(lp3569
(lp3570
Vbootloader_fill_random
p3571
atp3572
a(L3277879431L
L0L
(lp3573
(lp3574
tp3575
a(L3281573515L
L0L
(lp3576
(lp3577
tp3578
a(L3450268858L
L0L
(lp3579
(lp3580
tp3581
a(L3021749L
L0L
(lp3582
(lp3583
tp3584
a(L322434465L
L0L
(lp3585
(lp3586
tp3587
a(L2494883302L
L0L
(lp3588
(lp3589
tp3590
a(L2902417580L
L0L
(lp3591
(lp3592
tp3593
a(L2991893400L
L0L
(lp3594
(lp3595
tp3596
a(L22854698L
L0L
(lp3597
(lp3598
tp3599
a(L1426980959L
L0L
(lp3600
(lp3601
tp3602
a(L1841482652L
L0L
(lp3603
(lp3604
tp3605
a(L653501462L
L0L
(lp3606
(lp3607
tp3608
a(L3310548426L
L3785322319L
(lp3609
(lp3610
Vbootloader_sha256_data
p3611
atp3612
a(L90548756L
L0L
(lp3613
(lp3614
tp3615
a(L708495868L
L0L
(lp3616
(lp3617
tp3618
a(L2364005371L
L0L
(lp3619
(lp3620
tp3621
atp3622
sI1074239424
(Vbootloader_utility_load_partition_table
p3623
(lp3624
(L3976765673L
L3785322319L
(lp3625
(lp3626
Vbootloader_mmap
p3627
atp3628
a(L649959027L
L3785322319L
(lp3629
(lp3630
Vesp_log_early_timestamp
p3631
atp3632
a(L2258688482L
L0L
(lp3633
(lp3634
tp3635
a(L3360570486L
L0L
(lp3636
(lp3637
tp3638
a(L2379286607L
L3785322319L
(lp3639
(lp3640
Vesp_partition_table_verify
p3641
atp3642
a(L1285285103L
L3785322319L
(lp3643
(lp3644
Vesp_log_early_timestamp
p3645
atp3646
a(L529589784L
L1880226080L
(lp3647
(lp3648
Vesp_log_early_timestamp
p3649
aVesp_log_early_timestamp
p3650
atp3651
a(L650140130L
L0L
(lp3652
(lp3653
tp3654
a(L1145912169L
L1880226080L
(lp3655
(lp3656
Vbootloader_munmap
p3657
aVesp_log_early_timestamp
p3658
atp3659
a(L521126897L
L0L
(lp3660
(lp3661
tp3662
a(L3028464L
L0L
(lp3663
(lp3664
tp3665
a(L106L
L0L
(lp3666
(lp3667
tp3668
a(L1403802546L
L0L
(lp3669
(lp3670
tp3671
a(L3362706168L
L3785322319L
(lp3672
(lp3673
Vesp_log_early_timestamp
p3674
atp3675
a(L3990577774L
L0L
(lp3676
(lp3677
tp3678
a(L3020187L
L0L
(lp3679
(lp3680
tp3681
a(L2318212397L
L0L
(lp3682
(lp3683
tp3684
a(L4208504540L
L0L
(lp3685
(lp3686
tp3687
a(L1859217843L
L0L
(lp3688
(lp3689
tp3690
a(L2546691246L
L0L
(lp3691
(lp3692
tp3693
a(L3797730446L
L0L
(lp3694
(lp3695
tp3696
a(L106L
L0L
(lp3697
(lp3698
tp3699
a(L93674324L
L0L
(lp3700
(lp3701
tp3702
a(L1583301205L
L0L
(lp3703
(lp3704
tp3705
a(L1938133383L
L0L
(lp3706
(lp3707
tp3708
a(L1630400759L
L0L
(lp3709
(lp3710
tp3711
a(L106L
L0L
(lp3712
(lp3713
tp3714
a(L924830715L
L0L
(lp3715
(lp3716
tp3717
a(L106L
L0L
(lp3718
(lp3719
tp3720
a(L568204987L
L0L
(lp3721
(lp3722
tp3723
atp3724
sI1074236864
(Vesp_dport_access_reg_read
p3725
(lp3726
(L1099794772L
L0L
(lp3727
(lp3728
tp3729
atp3730
sI1074268864
(Vbootloader_random_enable
p3731
(lp3732
(L3678846225L
L0L
(lp3733
(lp3734
tp3735
atp3736
sI1074236876
(Vis_xmc_chip_strict
p3737
(lp3738
(L1286841609L
L0L
(lp3739
(lp3740
tp3741
a(L2234016759L
L0L
(lp3742
(lp3743
tp3744
a(L1069027148L
L0L
(lp3745
(lp3746
tp3747
a(L3021749L
L0L
(lp3748
(lp3749
tp3750
a(L1900148749L
L0L
(lp3751
(lp3752
tp3753
a(L1936875721L
L0L
(lp3754
(lp3755
tp3756
a(L3356166509L
L0L
(lp3757
(lp3758
tp3759
a(L1937769451L
L0L
(lp3760
(lp3761
tp3762
a(L2137658907L
L0L
(lp3763
(lp3764
tp3765
a(L4265949734L
L0L
(lp3766
(lp3767
tp3768
a(L3360570486L
L0L
(lp3769
(lp3770
tp3771
atp3772
sI1074269656
(Vbootloader_clear_bss_section
p3773
(lp3774
(L1035474915L
L0L
(lp3775
(lp3776
tp3777
atp3778
sI1074237652
(Vbootloader_munmap
p3779
(lp3780
(L1697403118L
L0L
(lp3781
(lp3782
tp3783
a(L3761142808L
L0L
(lp3784
(lp3785
tp3786
a(L3360570486L
L0L
(lp3787
(lp3788
tp3789
atp3790
sI1074245588
(Vrtc_clk_cpu_freq_mhz_to_config
p3791
(lp3792
(L908718885L
L3785322319L
(lp3793
(lp3794
Vrtc_clk_xtal_freq_get
p3795
atp3796
a(L60460069L
L0L
(lp3797
(lp3798
tp3799
a(L3802072124L
L0L
(lp3800
(lp3801
tp3802
a(L3159006042L
L0L
(lp3803
(lp3804
tp3805
a(L3360570486L
L0L
(lp3806
(lp3807
tp3808
a(L895147205L
L0L
(lp3809
(lp3810
tp3811
a(L3970036657L
L0L
(lp3812
(lp3813
tp3814
a(L2731353429L
L0L
(lp3815
(lp3816
tp3817
a(L1555485793L
L0L
(lp3818
(lp3819
tp3820
a(L2258897023L
L0L
(lp3821
(lp3822
tp3823
a(L1947499251L
L0L
(lp3824
(lp3825
tp3826
a(L1306331021L
L0L
(lp3827
(lp3828
tp3829
atp3830
sI1074270940
(Vmpu_hal_set_region_access
p3831
(lp3832
(L3538356822L
L0L
(lp3833
(lp3834
tp3835
a(L93674324L
L0L
(lp3836
(lp3837
tp3838
a(L2910371777L
L0L
(lp3839
(lp3840
tp3841
a(L3472092938L
L0L
(lp3842
(lp3843
tp3844
a(L3020187L
L0L
(lp3845
(lp3846
tp3847
a(L3360570486L
L0L
(lp3848
(lp3849
tp3850
a(L2258718273L
L0L
(lp3851
(lp3852
tp3853
a(L3446648619L
L0L
(lp3854
(lp3855
tp3856
a(L3739532189L
L0L
(lp3857
(lp3858
tp3859
a(L1300789895L
L0L
(lp3860
(lp3861
tp3862
atp3863
sI1074268624
(Vbootloader_clock_configure
p3864
(lp3865
(L2559598596L
L1880226080L
(lp3866
(lp3867
Vesp_rom_uart_tx_wait_idle
p3868
aVefuse_hal_chip_revision
p3869
atp3870
a(L1714060431L
L0L
(lp3871
(lp3872
tp3873
a(L883406775L
L0L
(lp3874
(lp3875
tp3876
a(L106L
L0L
(lp3877
(lp3878
tp3879
a(L3646321382L
L1832448559L
(lp3880
(lp3881
Vrtc_clk_slow_src_get
p3882
aVrtc_clk_fast_src_get
p3883
aVrtc_clk_init
p3884
atp3885
a(L3297562552L
L0L
(lp3886
(lp3887
tp3888
a(L1624159269L
L3785322319L
(lp3889
(lp3890
Vrtc_clk_apb_freq_get
p3891
atp3892
a(L106L
L0L
(lp3893
(lp3894
tp3895
a(L106L
L0L
(lp3896
(lp3897
tp3898
atp3899
sI1074236636
(Vesp_rom_uart_set_clock_baudrate
p3900
(lp3901
(L2319441726L
L0L
(lp3902
(lp3903
tp3904
a(L2334991263L
L0L
(lp3905
(lp3906
tp3907
a(L2805931295L
L0L
(lp3908
(lp3909
tp3910
a(L1916726935L
L0L
(lp3911
(lp3912
tp3913
atp3914
sI1074235608
(Vbootloader_read_flash_id
p3915
(lp3916
(L549578328L
L3785322319L
(lp3917
(lp3918
Vbootloader_execute_flash_command
p3919
atp3920
atp3921
sI1074241240
(Vbootloader_util_regions_overlap
p3922
(lp3923
(L2762640130L
L0L
(lp3924
(lp3925
tp3926
a(L2198512677L
L0L
(lp3927
(lp3928
tp3929
a(L2217655633L
L3785322319L
(lp3930
(lp3931
V__assert_func
p3932
atp3933
a(L97642L
L0L
(lp3934
(lp3935
tp3936
a(L996187529L
L0L
(lp3937
(lp3938
tp3939
a(L366123053L
L0L
(lp3940
(lp3941
tp3942
a(L2258867228L
L0L
(lp3943
(lp3944
tp3945
a(L1253626734L
L0L
(lp3946
(lp3947
tp3948
a(L2258897019L
L0L
(lp3949
(lp3950
tp3951
a(L3109269495L
L0L
(lp3952
(lp3953
tp3954
atp3955
sI1074237412
(Vspi_to_esp_err
p3956
(lp3957
(L3520881295L
L0L
(lp3958
(lp3959
tp3960
a(L2402400019L
L0L
(lp3961
(lp3962
tp3963
a(L3952441574L
L0L
(lp3964
(lp3965
tp3966
a(L3126521138L
L0L
(lp3967
(lp3968
tp3969
atp3970
sI1074236388
(Vbootloader_flash_dummy_config
p3971
(lp3972
(L262000646L
L0L
(lp3973
(lp3974
tp3975
a(L2761717557L
L0L
(lp3976
(lp3977
tp3978
a(L1849044936L
L0L
(lp3979
(lp3980
tp3981
a(L708753936L
L0L
(lp3982
(lp3983
tp3984
a(L1010450057L
L0L
(lp3985
(lp3986
tp3987
a(L3020204L
L0L
(lp3988
(lp3989
tp3990
a(L1610443405L
L0L
(lp3991
(lp3992
tp3993
a(L4032120524L
L0L
(lp3994
(lp3995
tp3996
a(L2336993863L
L0L
(lp3997
(lp3998
tp3999
a(L1298875775L
L0L
(lp4000
(lp4001
tp4002
a(L3880393601L
L0L
(lp4003
(lp4004
tp4005
a(L3328946209L
L0L
(lp4006
(lp4007
tp4008
a(L1610443436L
L0L
(lp4009
(lp4010
tp4011
atp4012
sI1074244836
(Vrtc_clk_cpu_freq_to_pll_mhz
p4013
(lp4014
(L3917427464L
L0L
(lp4015
(lp4016
tp4017
a(L2279076470L
L0L
(lp4018
(lp4019
tp4020
a(L3288313747L
L1880226080L
(lp4021
(lp4022
Vesp_rom_set_cpu_ticks_per_us
p4023
aVrtc_clk_wait_for_slow_cycle
p4024
atp4025
a(L3799735979L
L0L
(lp4026
(lp4027
tp4028
a(L3293824299L
L0L
(lp4029
(lp4030
tp4031
a(L94425498L
L3785322319L
(lp4032
(lp4033
Vabort
p4034
atp4035
a(L1611366926L
L0L
(lp4036
(lp4037
tp4038
a(L1611366957L
L0L
(lp4039
(lp4040
tp4041
atp4042
sI1074269920
(Vbootloader_enable_random
p4043
(lp4044
(L1236070240L
L1880226080L
(lp4045
(lp4046
Vesp_log_early_timestamp
p4047
aVbootloader_random_enable
p4048
atp4049
atp4050
sI1074241768
(Vprocess_appended_hash_and_sig
p4051
(lp4052
(L1668084157L
L0L
(lp4053
(lp4054
tp4055
a(L2910371777L
L0L
(lp4056
(lp4057
tp4058
a(L4285188111L
L0L
(lp4059
(lp4060
tp4061
a(L1151175705L
L0L
(lp4062
(lp4063
tp4064
a(L97689L
L0L
(lp4065
(lp4066
tp4067
a(L4177371989L
L3785322319L
(lp4068
(lp4069
Vesp_log_early_timestamp
p4070
atp4071
a(L3620623795L
L0L
(lp4072
(lp4073
tp4074
a(L1464893571L
L3785322319L
(lp4075
(lp4076
Vbootloader_flash_read
p4077
atp4078
a(L735741265L
L0L
(lp4079
(lp4080
tp4081
atp4082
sI1074245864
(Vrtc_clk_apb_freq_update
p4083
(lp4084
(L187277447L
L0L
(lp4085
(lp4086
tp4087
atp4088
sI1074247412
(Vesp_rom_spiflash_read_status
p4089
(lp4090
(L862498644L
L0L
(lp4091
(lp4092
tp4093
a(L986368687L
L0L
(lp4094
(lp4095
tp4096
a(L4159619641L
L0L
(lp4097
(lp4098
tp4099
a(L2392720019L
L0L
(lp4100
(lp4101
tp4102
a(L2258688487L
L0L
(lp4103
(lp4104
tp4105
a(L4159619145L
L0L
(lp4106
(lp4107
tp4108
a(L718391887L
L0L
(lp4109
(lp4110
tp4111
a(L3117156279L
L0L
(lp4112
(lp4113
tp4114
a(L2123059967L
L0L
(lp4115
(lp4116
tp4117
a(L582177370L
L0L
(lp4118
(lp4119
tp4120
atp4121
sI1074269948
(Vbootloader_print_banner
p4122
(lp4123
(L2664228546L
L1832448559L
(lp4124
(lp4125
Vesp_log_early_timestamp
p4126
aVesp_log_early_timestamp
p4127
aVesp_log_early_timestamp
p4128
atp4129
atp4130
sI1074270716
(Vrtc_vddsdio_get_config
p4131
(lp4132
(L1816791340L
L0L
(lp4133
(lp4134
tp4135
a(L1750635626L
L0L
(lp4136
(lp4137
tp4138
a(L3193418487L
L0L
(lp4139
(lp4140
tp4141
a(L1456856705L
L0L
(lp4142
(lp4143
tp4144
a(L115635292L
L0L
(lp4145
(lp4146
tp4147
a(L896053863L
L0L
(lp4148
(lp4149
tp4150
a(L1306330959L
L0L
(lp4151
(lp4152
tp4153
a(L2332659952L
L0L
(lp4154
(lp4155
tp4156
atp4157
sI1074248944
(V_fini
p4158
(lp4159
(L3493042598L
L0L
(lp4160
(lp4161
tp4162
atp4163
sI1074269680
(Vbootloader_read_bootloader_header
p4164
(lp4165
(L1999135233L
L3785322319L
(lp4166
(lp4167
Vbootloader_flash_read
p4168
atp4169
a(L63714649L
L3785322319L
(lp4170
(lp4171
Vesp_log_early_timestamp
p4172
atp4173
a(L735741265L
L0L
(lp4174
(lp4175
tp4176
atp4177
ssS'functionsdups'
p4178
g11
((lp4179
tp4180
Rp4181
sS'immediatedups'
p4182
g11
((lp4183
tp4184
Rp4185
sS'functiondups'
p4186
g11
((lp4187
tp4188
Rp4189
sS'fuzzy'
p4190
(dp4191
L1536L
I1074240804
sL438947497L
I1074245296
sL430153639L
I1074235920
sL3538491111L
I1074245440
sL16208487L
I1074234756
sL1053780185L
I1074247244
sL2919036513L
I1074238908
sL2680783959L
I1074235656
sL1385214606L
I1074241296
sL3709764864L
I1074242724
sL3512578114L
I1074238756
sL1419132215L
I1074238148
sL2469233929L
I1074240592
sL4024375675L
I1074245892
sL701833459L
I1074268624
sL720751058L
I1074267832
sL99291719L
I1074246004
sL1260046007L
I1074238640
sL3897252859L
I1074238556
sL2154298582L
I1074268056
sL3750957730L
I1074269368
sL1065525808L
I1074236876
sL2547957225L
I1074243220
sL2272466760L
I1074245680
sL2044047637L
I1074239424
sL1188065553L
I1074237704
sL1350409532L
I1074241052
sL94556391L
I1074245468
sL3210669721L
I1074245060
sL1332800441L
I1074237268
sL1797050832L
I1074241768
sL3190831358L
I1074239788
sL2828970830L
I1074239304
sL4160102055L
I1074240088
sL4202185385L
I1074247508
sL1768086576L
I1074236388
sL4171975289L
I1074247804
sL1565254297L
I1074248104
sL1205407754L
I1074240112
sL2191698036L
I1074269792
sL3567877105L
I1074235268
sL3616640713L
I1074240884
sL1635528231L
I1074244100
sL2892380730L
I1074244836
sL1060788199L
I1074245588
sL3378232636L
I1074246748
sL737694352L
I1074247612
sL503029138L
I1074247556
sL1616763831L
I1074248192
sL424867129L
I1074247940
sL3834155367L
I1074241240
sL2405032630L
I1074267724
sL1302843222L
I1074270272
sL149533852L
I1074237444
sL3883282432L
I1074241856
sL3110525840L
I1074241984
sL1667054119L
I1074240444
sL1142841954L
I1074237036
sL206902443L
I1074237980
sL1070509616L
I1074245120
sL3408620885L
I1074270096
ssb.