ccopy_reg
_reconstructor
p0
(crizzo
RizzoSignature
p1
c__builtin__
object
p2
Ntp3
Rp4
(dp5
S'formal'
p6
(dp7
L2132642332L
I1074245880
sL2507534193L
I1074243416
sL3997757248L
I1074269720
sL1741170115L
I1074237960
sL1938993055L
I1074241696
sL3505757179L
I1074236740
sL2504328543L
I1074239708
sL4213015302L
I1074243132
sL1789511858L
I1074247640
sL1454943397L
I1074237980
sL1893576387L
I1074236540
sL1292366616L
I1074240352
sL2483835949L
I1074235924
sL307755126L
I1074237444
sL930173524L
I1074245708
sL3954727839L
I1074269480
sL412555707L
I1074248500
sL1969292365L
I1074269848
sL2702580795L
I1074237336
sL3703739119L
I1074246304
sL2161201919L
I1074238228
sL2568602422L
I1074237652
sL3501332098L
I1074236780
sL2896295319L
I1074236876
sL1293588012L
I1074268664
sL75996593L
I1074269748
sL1322217976L
I1074269812
sL1925543677L
I1074240716
sL1716532329L
I1074244544
sL870500059L
I1074242652
sL1998378021L
I1074240520
sL1080753235L
I1074240372
sL955938499L
I1074268416
sL2906330375L
I1074247100
sL837487574L
I1074236552
sL1674148343L
I1074246000
sL4133916711L
I1074245516
sL2485902447L
I1074236716
sL1689124072L
I1074247904
sL2025618427L
I1074245824
sL1911632824L
I1074238740
sL3651565293L
I1074247952
sL2873562891L
I1074238556
sL2972806524L
I1074235660
sL3497139260L
I1074240732
sL2921110098L
I1074248588
sL579205322L
I1074245852
sL1304966040L
I1074245944
sL4051279656L
I1074239340
sL1585823442L
I1074244444
sL1622896354L
I1074244472
sL1775152021L
I1074245024
sL1509716893L
I1074236848
sL2189223198L
I1074240280
sL814415336L
I1074269592
sL4257972142L
I1074246092
sL2348901739L
I1074241224
sL3447586836L
I1074246232
sL1301122278L
I1074237036
sL1594621048L
I1074248200
sL427471373L
I1074247144
sL1056742531L
I1074236392
sL3371798918L
I1074269456
sL530851108L
I1074244572
sL4123293765L
I1074244904
sL676927194L
I1074268656
sL2334049178L
I1074240016
sL3307282855L
I1074238120
sL172597710L
I1074236636
sL789532551L
I1074269896
sL1048459762L
I1074245660
sL691524025L
I1074240756
sL1050504461L
I1074234716
sL1068656162L
I1074246416
sL1093247416L
I1074238148
sL3508034957L
I1074244964
sL3977890188L
I1074247608
sL599007265L
I1074267784
sL3969192450L
I1074268360
sL2536808105L
I1074269168
sL1687894276L
I1074244344
sL4038945309L
I1074235612
sL3612950013L
I1074238856
sL518463041L
I1074235812
sL1499400697L
I1074237704
sL21429742L
I1074236948
sL2737209228L
I1074234760
sL3570273892L
I1074238688
sL1552071464L
I1074244744
sL4020894724L
I1074241168
sL3490952637L
I1074244608
sL180164621L
I1074235272
sL2997001746L
I1074237268
sL2991020022L
I1074240980
sL2019861457L
I1074270668
sL1602802495L
I1074236980
sL3352258166L
I1074245532
sL2819127986L
I1074237000
sL2290174011L
I1074243148
sL1877634603L
I1074270740
sL3379108269L
I1074244028
sL3355390521L
I1074241784
sL3459889393L
I1074244376
sL3945831674L
I1074248008
sL3187263538L
I1074239220
sL2994899278L
I1074240040
sL3049417747L
I1074241912
sL1154003226L
I1074248336
sL628308650L
I1074238640
sL2263182908L
I1074238140
sL1572917279L
I1074247808
sL2541238439L
I1074270072
sL3630163135L
I1074236864
sL188664287L
I1074235240
sL2219538346L
I1074240812
sL2276418125L
I1074269152
sL252158690L
I1074270516
sL692536993L
I1074237308
sL729611412L
I1074246276
sL2216043004L
I1074245684
sL4226588931L
I1074269524
sL2518607080L
I1074237412
sL4173412669L
I1074235560
sL1096138921L
I1074245960
sL3018942732L
I1074267676
ssS'immediates'
p8
(dp9
sS'formaldups'
p10
c__builtin__
set
p11
((lp12
tp13
Rp14
sS'stringdups'
p15
g11
((lp16
tp17
Rp18
sS'fuzzydups'
p19
g11
((lp20
tp21
Rp22
sS'strings'
p23
(dp24
sS'functions'
p25
(dp26
I1074237444
(Vbootloader_mmap
p27
(lp28
(L1371566704L
L0L
(lp29
(lp30
tp31
a(L2788000642L
L3785322319L
(lp32
(lp33
Vesp_log_early_timestamp
p34
atp35
a(L2867263840L
L0L
(lp36
(lp37
tp38
a(L3729184599L
L0L
(lp39
(lp40
tp41
a(L1917285873L
L3785322319L
(lp42
(lp43
Vesp_log_early_timestamp
p44
atp45
a(L2258688482L
L0L
(lp46
(lp47
tp48
a(L3360570486L
L0L
(lp49
(lp50
tp51
a(L3476478606L
L0L
(lp52
(lp53
tp54
a(L2387608636L
L0L
(lp55
(lp56
tp57
a(L2524678404L
L3785322319L
(lp58
(lp59
Vesp_log_early_timestamp
p60
atp61
a(L528675049L
L3785322319L
(lp62
(lp63
Vesp_log_early_timestamp
p64
atp65
a(L374681421L
L0L
(lp66
(lp67
tp68
atp69
sI1074244608
(Vrtc_clk_32k_enable_common
p70
(lp71
(L1305855959L
L0L
(lp72
(lp73
tp74
a(L97422L
L0L
(lp75
(lp76
tp77
a(L2218417248L
L0L
(lp78
(lp79
tp80
a(L2675570080L
L0L
(lp81
(lp82
tp83
a(L51458120L
L0L
(lp84
(lp85
tp86
atp87
sI1074267136
(V_init
p88
(lp89
(L3493042598L
L0L
(lp90
(lp91
tp92
atp93
sI1074268416
(Vbootloader_clock_configure
p94
(lp95
(L2559598596L
L1880226080L
(lp96
(lp97
Vesp_rom_uart_tx_wait_idle
p98
aVefuse_hal_chip_revision
p99
atp100
a(L664527922L
L0L
(lp101
(lp102
tp103
a(L883406775L
L0L
(lp104
(lp105
tp106
a(L106L
L0L
(lp107
(lp108
tp109
a(L3991429324L
L1832448559L
(lp110
(lp111
Vrtc_clk_slow_src_get
p112
aVrtc_clk_fast_src_get
p113
aVrtc_clk_init
p114
atp115
a(L3287840219L
L3785322319L
(lp116
(lp117
Vrtc_clk_32k_enabled
p118
atp119
a(L4283346264L
L3785322319L
(lp120
(lp121
Vrtc_clk_32k_bootstrap
p122
atp123
a(L3895022386L
L0L
(lp124
(lp125
tp126
a(L1538271816L
L3785322319L
(lp127
(lp128
Vrtc_clk_apb_freq_get
p129
atp130
a(L106L
L0L
(lp131
(lp132
tp133
a(L106L
L0L
(lp134
(lp135
tp136
atp137
sI1074235660
(Vbootloader_flash_xmc_startup
p138
(lp139
(L2007527597L
L3785322319L
(lp140
(lp141
Vis_xmc_chip_strict
p142
atp143
a(L2258688482L
L0L
(lp144
(lp145
tp146
a(L3360570486L
L0L
(lp147
(lp148
tp149
a(L2860324232L
L3785322319L
(lp150
(lp151
Vbootloader_flash_read_sfdp
p152
atp153
a(L335762040L
L2567856111L
(lp154
(lp155
Vesp_log_early_timestamp
p156
aVbootloader_execute_flash_command
p157
aVbootloader_execute_flash_command
p158
aVbootloader_execute_flash_command
p159
aVbootloader_execute_flash_command
p160
aVbootloader_read_flash_id
p161
aVis_xmc_chip_strict
p162
atp163
a(L664983568L
L3785322319L
(lp164
(lp165
Vesp_log_early_timestamp
p166
atp167
atp168
sI1074240520
(Vbootloader_sha256_finish
p169
(lp170
(L4066096136L
L0L
(lp171
(lp172
tp173
a(L2561206081L
L0L
(lp174
(lp175
tp176
a(L47191971L
L3785322319L
(lp177
(lp178
V__assert_func
p179
atp180
a(L3020204L
L0L
(lp181
(lp182
tp183
a(L858440172L
L0L
(lp184
(lp185
tp186
a(L2534656226L
L0L
(lp187
(lp188
tp189
a(L3707286214L
L3785322319L
(lp190
(lp191
Vbootloader_sha256_data
p192
atp193
a(L1349541058L
L0L
(lp194
(lp195
tp196
a(L3058648051L
L3785322319L
(lp197
(lp198
Vbootloader_sha256_data
p199
atp200
a(L1394805752L
L0L
(lp201
(lp202
tp203
a(L657425439L
L0L
(lp204
(lp205
tp206
a(L3252250194L
L0L
(lp207
(lp208
tp209
a(L657425439L
L0L
(lp210
(lp211
tp212
a(L3055347493L
L0L
(lp213
(lp214
tp215
a(L2194487991L
L0L
(lp216
(lp217
tp218
a(L3347778L
L0L
(lp219
(lp220
tp221
a(L3360570486L
L0L
(lp222
(lp223
tp224
atp225
sI1074237960
(Vbootloader_flash_erase_sector
p226
(lp227
(L4129137686L
L1880226080L
(lp228
(lp229
Vesp_rom_spiflash_erase_sector
p230
aVspi_to_esp_err
p231
atp232
atp233
sI1074237704
(Vbootloader_flash_read
p234
(lp235
(L3022618172L
L0L
(lp236
(lp237
tp238
a(L3106937175L
L3785322319L
(lp239
(lp240
Vesp_log_early_timestamp
p241
atp242
a(L2780906736L
L0L
(lp243
(lp244
tp245
a(L1351513776L
L0L
(lp246
(lp247
tp248
a(L1486740491L
L0L
(lp249
(lp250
tp251
a(L1039718061L
L3785322319L
(lp252
(lp253
Vesp_log_early_timestamp
p254
atp255
a(L3283691850L
L0L
(lp256
(lp257
tp258
a(L1179571907L
L3785322319L
(lp259
(lp260
Vesp_log_early_timestamp
p261
atp262
a(L3020204L
L0L
(lp263
(lp264
tp265
a(L384130671L
L0L
(lp266
(lp267
tp268
a(L97422L
L0L
(lp269
(lp270
tp271
a(L674456573L
L0L
(lp272
(lp273
tp274
a(L1253319443L
L0L
(lp275
(lp276
tp277
a(L2867857952L
L3785322319L
(lp278
(lp279
V__assert_func
p280
atp281
a(L2383244345L
L0L
(lp282
(lp283
tp284
a(L3426608415L
L0L
(lp285
(lp286
tp287
a(L3283247405L
L1880226080L
(lp288
(lp289
Vesp_rom_spiflash_read
p290
aVspi_to_esp_err
p291
atp292
atp293
sI1074248200
(Vesp_rom_spiflash_erase_sector
p294
(lp295
(L2656837103L
L0L
(lp296
(lp297
tp298
a(L2258688483L
L0L
(lp299
(lp300
tp301
a(L3360570486L
L0L
(lp302
(lp303
tp304
a(L3212356251L
L3785322319L
(lp305
(lp306
Vesp_rom_spiflash_enable_write
p307
atp308
a(L184152988L
L0L
(lp309
(lp310
tp311
a(L2520425678L
L3785322319L
(lp312
(lp313
Vesp_rom_spiflash_wait_idle
p314
atp315
a(L3333707777L
L0L
(lp316
(lp317
tp318
a(L3582858798L
L3785322319L
(lp319
(lp320
Vesp_rom_spiflash_wait_idle
p321
atp322
atp323
sI1074269720
(Vbootloader_enable_random
p324
(lp325
(L3834914336L
L1880226080L
(lp326
(lp327
Vesp_log_early_timestamp
p328
aVbootloader_random_enable
p329
atp330
atp331
sI1074235924
(Vbootloader_flash_gpio_config
p332
(lp333
(L3362256192L
L3785322319L
(lp334
(lp335
Vbootloader_common_get_chip_ver_pkg
p336
atp337
a(L106L
L0L
(lp338
(lp339
tp340
a(L1998579353L
L0L
(lp341
(lp342
tp343
a(L106L
L0L
(lp344
(lp345
tp346
a(L1029428446L
L0L
(lp347
(lp348
tp349
a(L4242290324L
L0L
(lp350
(lp351
tp352
a(L106L
L0L
(lp353
(lp354
tp355
a(L4003626558L
L0L
(lp356
(lp357
tp358
a(L1553523094L
L0L
(lp359
(lp360
tp361
a(L3360570486L
L0L
(lp362
(lp363
tp364
atp365
sI1074236948
(Vesp_log_early_timestamp
p366
(lp367
(L387765101L
L0L
(lp368
(lp369
tp370
atp371
sI1074238228
(Vbootloader_random_disable
p372
(lp373
(L1556825775L
L0L
(lp374
(lp375
tp376
atp377
sI1074238740
(Vcache_ll_l1_get_bus
p378
(lp379
(L4279093598L
L0L
(lp380
(lp381
tp382
a(L94425498L
L3785322319L
(lp383
(lp384
Vabort
p385
atp386
a(L395366609L
L0L
(lp387
(lp388
tp389
a(L665283800L
L0L
(lp390
(lp391
tp392
a(L892952750L
L0L
(lp393
(lp394
tp395
a(L1182811810L
L0L
(lp396
(lp397
tp398
a(L4062036744L
L0L
(lp399
(lp400
tp401
a(L3360570486L
L0L
(lp402
(lp403
tp404
a(L3204017809L
L0L
(lp405
(lp406
tp407
a(L3007055246L
L0L
(lp408
(lp409
tp410
a(L3069752967L
L0L
(lp411
(lp412
tp413
a(L2258867228L
L0L
(lp414
(lp415
tp416
a(L1087012479L
L0L
(lp417
(lp418
tp419
a(L4059034926L
L0L
(lp420
(lp421
tp422
a(L3207711893L
L0L
(lp423
(lp424
tp425
a(L2756034985L
L0L
(lp426
(lp427
tp428
a(L1641149277L
L0L
(lp429
(lp430
tp431
a(L463701893L
L0L
(lp432
(lp433
tp434
a(L899412127L
L0L
(lp435
(lp436
tp437
a(L106L
L0L
(lp438
(lp439
tp440
a(L1299866436L
L0L
(lp441
(lp442
tp443
atp444
sI1074267676
(Vcall_start_cpu0
p445
(lp446
(L1137852827L
L0L
(lp447
(lp448
tp449
a(L549459388L
L0L
(lp450
(lp451
tp452
a(L3212347974L
L3785322319L
(lp453
(lp454
Vbootloader_init
p455
atp456
a(L94425498L
L3785322319L
(lp457
(lp458
Vbootloader_reset
p459
atp460
a(L1122046408L
L0L
(lp461
(lp462
tp463
a(L4099474112L
L0L
(lp464
(lp465
tp466
a(L3015046664L
L3785322319L
(lp467
(lp468
Vbootloader_utility_load_partition_table
p469
atp470
a(L2761094216L
L3785322319L
(lp471
(lp472
Vesp_log_early_timestamp
p473
atp474
a(L405422123L
L3785322319L
(lp475
(lp476
Vbootloader_utility_get_selected_boot_partition
p477
atp478
a(L2055385849L
L3785322319L
(lp479
(lp480
Vbootloader_utility_load_boot_image
p481
atp482
atp483
sI1074240016
(Vbootloader_reset
p484
(lp485
(L2398861583L
L3785322319L
(lp486
(lp487
Vbootloader_console_deinit
p488
atp489
a(L106L
L0L
(lp490
(lp491
tp492
atp493
sI1074246416
(Vrtc_clk_cpu_freq_set_config
p494
(lp495
(L3084160080L
L3785322319L
(lp496
(lp497
Vrtc_clk_xtal_freq_get
p498
atp499
a(L2308773007L
L0L
(lp500
(lp501
tp502
a(L3253451229L
L1880226080L
(lp503
(lp504
Vrtc_clk_cpu_freq_to_xtal
p505
aVrtc_clk_wait_for_slow_cycle
p506
atp507
a(L2243645672L
L0L
(lp508
(lp509
tp510
a(L4002786498L
L0L
(lp511
(lp512
tp513
a(L2736411858L
L3785322319L
(lp514
(lp515
Vrtc_clk_cpu_freq_to_xtal
p516
atp517
a(L3360570486L
L0L
(lp518
(lp519
tp520
a(L2755207760L
L1832448559L
(lp521
(lp522
Vrtc_clk_cpu_freq_to_xtal
p523
aVrtc_clk_wait_for_slow_cycle
p524
aVrtc_clk_bbpll_disable
p525
atp526
a(L3020187L
L0L
(lp527
(lp528
tp529
a(L106L
L0L
(lp530
(lp531
tp532
a(L3773072774L
L1880226080L
(lp533
(lp534
Vrtc_clk_wait_for_slow_cycle
p535
aVrtc_clk_xtal_freq_get
p536
atp537
a(L106L
L0L
(lp538
(lp539
tp540
a(L2132119262L
L0L
(lp541
(lp542
tp543
a(L83268611L
L0L
(lp544
(lp545
tp546
a(L106L
L0L
(lp547
(lp548
tp549
a(L82345090L
L0L
(lp550
(lp551
tp552
a(L106L
L0L
(lp553
(lp554
tp555
a(L2258718273L
L0L
(lp556
(lp557
tp558
a(L3298883534L
L0L
(lp559
(lp560
tp561
a(L3234861624L
L0L
(lp562
(lp563
tp564
a(L1153934205L
L3785322319L
(lp565
(lp566
Vrtc_clk_cpu_freq_to_pll_mhz
p567
atp568
a(L4111066383L
L0L
(lp569
(lp570
tp571
a(L83268344L
L0L
(lp572
(lp573
tp574
a(L82344823L
L0L
(lp575
(lp576
tp577
a(L1569180676L
L0L
(lp578
(lp579
tp580
a(L2258837488L
L0L
(lp581
(lp582
tp583
a(L3807908258L
L0L
(lp584
(lp585
tp586
a(L1482311963L
L0L
(lp587
(lp588
tp589
a(L133411965L
L0L
(lp590
(lp591
tp592
a(L3673491036L
L0L
(lp593
(lp594
tp595
a(L4197990447L
L0L
(lp596
(lp597
tp598
a(L903154985L
L0L
(lp599
(lp600
tp601
a(L3020187L
L0L
(lp602
(lp603
tp604
a(L106L
L0L
(lp605
(lp606
tp607
a(L1468807975L
L3785322319L
(lp608
(lp609
Vesp_rom_set_cpu_ticks_per_us
p610
atp611
atp612
sI1074247952
(Vesp_rom_spiflash_enable_write
p613
(lp614
(L1970103851L
L3785322319L
(lp615
(lp616
Vesp_rom_spiflash_wait_idle
p617
atp618
a(L3333707777L
L0L
(lp619
(lp620
tp621
a(L2258688484L
L0L
(lp622
(lp623
tp624
a(L99543895L
L0L
(lp625
(lp626
tp627
a(L2993202392L
L0L
(lp628
(lp629
tp630
a(L1492739938L
L3785322319L
(lp631
(lp632
Vesp_rom_spiflash_read_status
p633
atp634
atp635
sI1074269456
(Vbootloader_clear_bss_section
p636
(lp637
(L292562491L
L0L
(lp638
(lp639
tp640
atp641
sI1074237980
(Vbootloader_flash_write
p642
(lp643
(L3770380603L
L0L
(lp644
(lp645
tp646
a(L2547417610L
L3785322319L
(lp647
(lp648
Vesp_log_early_timestamp
p649
atp650
a(L3833270346L
L0L
(lp651
(lp652
tp653
a(L1610445075L
L0L
(lp654
(lp655
tp656
a(L735741265L
L0L
(lp657
(lp658
tp659
a(L3291333414L
L0L
(lp660
(lp661
tp662
a(L3508304306L
L3785322319L
(lp663
(lp664
Vesp_log_early_timestamp
p665
atp666
a(L3283691850L
L0L
(lp667
(lp668
tp669
a(L1591956746L
L3785322319L
(lp670
(lp671
Vesp_log_early_timestamp
p672
atp673
a(L3212356251L
L3785322319L
(lp674
(lp675
Vbootloader_flash_unlock
p676
atp677
a(L1799218633L
L0L
(lp678
(lp679
tp680
a(L94425498L
L3785322319L
(lp681
(lp682
Vesp_rom_spiflash_write_encrypted
p683
atp684
a(L2927190544L
L3785322319L
(lp685
(lp686
Vspi_to_esp_err
p687
atp688
a(L2927190544L
L3785322319L
(lp689
(lp690
Vesp_rom_spiflash_write
p691
atp692
atp693
sI1074245660
(Vrtc_clk_8m_enabled
p694
(lp695
(L850883783L
L0L
(lp696
(lp697
tp698
atp699
sI1074270740
(Vmpu_hal_set_region_access
p700
(lp701
(L3538356822L
L0L
(lp702
(lp703
tp704
a(L93674324L
L0L
(lp705
(lp706
tp707
a(L2910371777L
L0L
(lp708
(lp709
tp710
a(L3472092938L
L0L
(lp711
(lp712
tp713
a(L3020187L
L0L
(lp714
(lp715
tp716
a(L3360570486L
L0L
(lp717
(lp718
tp719
a(L2258718273L
L0L
(lp720
(lp721
tp722
a(L3446648619L
L0L
(lp723
(lp724
tp725
a(L3739532189L
L0L
(lp726
(lp727
tp728
a(L1300789895L
L0L
(lp729
(lp730
tp731
atp732
sI1074240280
(Vindex_to_partition
p733
(lp734
(L4066096119L
L0L
(lp735
(lp736
tp737
a(L1101255660L
L0L
(lp738
(lp739
tp740
a(L1955702725L
L0L
(lp741
(lp742
tp743
a(L3698927993L
L0L
(lp744
(lp745
tp746
a(L2808906342L
L0L
(lp747
(lp748
tp749
a(L4211744375L
L0L
(lp750
(lp751
tp752
a(L3097778015L
L0L
(lp753
(lp754
tp755
a(L1816235430L
L0L
(lp756
(lp757
tp758
a(L2179185678L
L0L
(lp759
(lp760
tp761
a(L3369319173L
L0L
(lp762
(lp763
tp764
atp765
sI1074244376
(Vwdt_hal_set_flashboot_en
p766
(lp767
(L2375320464L
L0L
(lp768
(lp769
tp770
a(L3915867581L
L0L
(lp771
(lp772
tp773
a(L3360570486L
L0L
(lp774
(lp775
tp776
a(L1643092119L
L0L
(lp777
(lp778
tp779
atp780
sI1074269480
(Vbootloader_read_bootloader_header
p781
(lp782
(L1117659838L
L3785322319L
(lp783
(lp784
Vbootloader_flash_read
p785
atp786
a(L2176891929L
L3785322319L
(lp787
(lp788
Vesp_log_early_timestamp
p789
atp790
a(L735741265L
L0L
(lp791
(lp792
tp793
atp794
sI1074240804
(Vbootloader_ana_clock_glitch_reset_config
p795
(lp796
(L2100504542L
L0L
(lp797
(lp798
tp799
atp800
sI1074236716
(Vefuse_hal_chip_revision
p801
(lp802
(L2719302832L
L1880226080L
(lp803
(lp804
Vefuse_hal_get_major_chip_version
p805
aVefuse_hal_get_minor_chip_version
p806
atp807
atp808
sI1074240812
(Vprocess_checksum
p809
(lp810
(L712647684L
L0L
(lp811
(lp812
tp813
a(L3028481L
L0L
(lp814
(lp815
tp816
a(L186886970L
L0L
(lp817
(lp818
tp819
a(L2902417580L
L0L
(lp820
(lp821
tp822
a(L3028481L
L0L
(lp823
(lp824
tp825
a(L1140379765L
L3785322319L
(lp826
(lp827
Vesp_log_early_timestamp
p828
atp829
a(L3620623082L
L0L
(lp830
(lp831
tp832
a(L3236648107L
L3785322319L
(lp833
(lp834
Vbootloader_flash_read
p835
atp836
a(L735741265L
L0L
(lp837
(lp838
tp839
a(L3020204L
L0L
(lp840
(lp841
tp842
a(L2480703612L
L3785322319L
(lp843
(lp844
Vbootloader_sha256_data
p845
atp846
a(L3436105237L
L0L
(lp847
(lp848
tp849
a(L106L
L0L
(lp850
(lp851
tp852
atp853
sI1074240040
(Vbootloader_utility_load_boot_image
p854
(lp855
(L2067566918L
L0L
(lp856
(lp857
tp858
a(L2177418995L
L3785322319L
(lp859
(lp860
Vtry_load_partition
p861
atp862
a(L1305243774L
L3785322319L
(lp863
(lp864
Vload_image
p865
atp866
a(L3575508230L
L3785322319L
(lp867
(lp868
Vesp_log_early_timestamp
p869
atp870
a(L3827921190L
L3785322319L
(lp871
(lp872
Vbootloader_reset
p873
atp874
a(L1953693036L
L3785322319L
(lp875
(lp876
Vindex_to_partition
p877
atp878
a(L1204373741L
L3785322319L
(lp879
(lp880
Vtry_load_partition
p881
atp882
a(L1899865696L
L0L
(lp883
(lp884
tp885
a(L2695355117L
L3785322319L
(lp886
(lp887
Vset_actual_ota_seq
p888
atp889
a(L1868897605L
L3785322319L
(lp890
(lp891
Vlog_invalid_app_partition
p892
atp893
a(L831650730L
L0L
(lp894
(lp895
tp896
a(L3021737L
L0L
(lp897
(lp898
tp899
a(L695456438L
L0L
(lp900
(lp901
tp902
a(L1148002536L
L3785322319L
(lp903
(lp904
Vtry_load_partition
p905
atp906
a(L4007721648L
L3785322319L
(lp907
(lp908
Vesp_log_early_timestamp
p909
atp910
a(L2347390157L
L3785322319L
(lp911
(lp912
Vindex_to_partition
p913
atp914
a(L1204373741L
L3785322319L
(lp915
(lp916
Vtry_load_partition
p917
atp918
a(L3061261803L
L0L
(lp919
(lp920
tp921
a(L3582858798L
L3785322319L
(lp922
(lp923
Vlog_invalid_app_partition
p924
atp925
a(L1679604283L
L3785322319L
(lp926
(lp927
Vesp_log_early_timestamp
p928
atp929
atp930
sI1074244904
(Vrtc_clk_bbpll_disable
p931
(lp932
(L4246749198L
L0L
(lp933
(lp934
tp935
a(L2472207241L
L0L
(lp936
(lp937
tp938
a(L3360570486L
L0L
(lp939
(lp940
tp941
atp942
sI1074236980
(Vbootloader_common_ota_select_crc
p943
(lp944
(L2530349931L
L0L
(lp945
(lp946
tp947
atp948
sI1074245684
(Vrtc_clk_8md256_enabled
p949
(lp950
(L6411912L
L0L
(lp951
(lp952
tp953
atp954
sI1074248500
(Vesp_rom_spiflash_write_encrypted
p955
(lp956
(L1944247967L
L0L
(lp957
(lp958
tp959
a(L2737662338L
L0L
(lp960
(lp961
tp962
a(L97689L
L0L
(lp963
(lp964
tp965
a(L3061232074L
L0L
(lp966
(lp967
tp968
a(L1766647866L
L0L
(lp969
(lp970
tp971
a(L1309309703L
L3785322319L
(lp972
(lp973
Vesp_rom_spiflash_write
p974
atp975
a(L1744902694L
L0L
(lp976
(lp977
tp978
a(L735741265L
L0L
(lp979
(lp980
tp981
atp982
sI1074243132
(Vbootloader_load_image
p983
(lp984
(L1155870502L
L3785322319L
(lp985
(lp986
Vimage_load
p987
atp988
atp989
sI1074269748
(Vbootloader_print_banner
p990
(lp991
(L3290236286L
L1832448559L
(lp992
(lp993
Vesp_log_early_timestamp
p994
aVesp_log_early_timestamp
p995
aVesp_log_early_timestamp
p996
atp997
atp998
sI1074270516
(Vrtc_vddsdio_get_config
p999
(lp1000
(L388387881L
L0L
(lp1001
(lp1002
tp1003
a(L1750635626L
L0L
(lp1004
(lp1005
tp1006
a(L3193418487L
L0L
(lp1007
(lp1008
tp1009
a(L2802946622L
L0L
(lp1010
(lp1011
tp1012
a(L115635292L
L0L
(lp1013
(lp1014
tp1015
a(L896053863L
L0L
(lp1016
(lp1017
tp1018
a(L1306330959L
L0L
(lp1019
(lp1020
tp1021
a(L441284077L
L0L
(lp1022
(lp1023
tp1024
atp1025
sI1074245944
(Vrtc_clk_fast_src_get
p1026
(lp1027
(L1547815195L
L0L
(lp1028
(lp1029
tp1030
atp1031
sI1074236740
(Vefuse_hal_flash_encryption_enabled
p1032
(lp1033
(L2932383536L
L0L
(lp1034
(lp1035
tp1036
a(L2910371777L
L0L
(lp1037
(lp1038
tp1039
a(L3360570486L
L0L
(lp1040
(lp1041
tp1042
a(L3016870L
L0L
(lp1043
(lp1044
tp1045
a(L3745038218L
L0L
(lp1046
(lp1047
tp1048
a(L957607403L
L0L
(lp1049
(lp1050
tp1051
atp1052
sI1074245708
(Vrtc_clk_slow_src_set
p1053
(lp1054
(L3836139170L
L0L
(lp1055
(lp1056
tp1057
a(L3020187L
L0L
(lp1058
(lp1059
tp1060
a(L3028481L
L0L
(lp1061
(lp1062
tp1063
a(L487821223L
L0L
(lp1064
(lp1065
tp1066
a(L1352094866L
L0L
(lp1067
(lp1068
tp1069
a(L1851908495L
L0L
(lp1070
(lp1071
tp1072
a(L382170874L
L0L
(lp1073
(lp1074
tp1075
a(L3138544334L
L0L
(lp1076
(lp1077
tp1078
a(L94425498L
L3785322319L
(lp1079
(lp1080
Vabort
p1081
atp1082
atp1083
sI1074243148
(Vesp_partition_table_verify
p1084
(lp1085
(L3052823174L
L0L
(lp1086
(lp1087
tp1088
a(L1341109787L
L0L
(lp1089
(lp1090
tp1091
a(L1184829782L
L0L
(lp1092
(lp1093
tp1094
a(L3020204L
L0L
(lp1095
(lp1096
tp1097
a(L3170738237L
L3785322319L
(lp1098
(lp1099
Vesp_log_early_timestamp
p1100
atp1101
a(L1235012963L
L0L
(lp1102
(lp1103
tp1104
a(L3190337587L
L0L
(lp1105
(lp1106
tp1107
a(L2069928857L
L0L
(lp1108
(lp1109
tp1110
a(L2902417580L
L0L
(lp1111
(lp1112
tp1113
a(L4240560509L
L3785322319L
(lp1114
(lp1115
Vesp_log_early_timestamp
p1116
atp1117
a(L510839312L
L0L
(lp1118
(lp1119
tp1120
a(L3020204L
L0L
(lp1121
(lp1122
tp1123
a(L3020204L
L0L
(lp1124
(lp1125
tp1126
a(L2215002226L
L3785322319L
(lp1127
(lp1128
Vesp_log_early_timestamp
p1129
atp1130
a(L3833270346L
L0L
(lp1131
(lp1132
tp1133
a(L1235012932L
L0L
(lp1134
(lp1135
tp1136
a(L1822327695L
L0L
(lp1137
(lp1138
tp1139
a(L3020204L
L0L
(lp1140
(lp1141
tp1142
a(L4240559796L
L3785322319L
(lp1143
(lp1144
Vesp_log_early_timestamp
p1145
atp1146
a(L1305407469L
L0L
(lp1147
(lp1148
tp1149
a(L1167861556L
L0L
(lp1150
(lp1151
tp1152
a(L818997085L
L0L
(lp1153
(lp1154
tp1155
a(L3360570486L
L0L
(lp1156
(lp1157
tp1158
a(L3020204L
L0L
(lp1159
(lp1160
tp1161
a(L4142303994L
L3785322319L
(lp1162
(lp1163
Vesp_log_early_timestamp
p1164
atp1165
atp1166
sI1074237000
(Vbootloader_common_ota_select_valid
p1167
(lp1168
(L1563399710L
L3785322319L
(lp1169
(lp1170
Vbootloader_common_ota_select_invalid
p1171
atp1172
a(L3814720849L
L3785322319L
(lp1173
(lp1174
Vbootloader_common_ota_select_crc
p1175
atp1176
a(L3360570486L
L0L
(lp1177
(lp1178
tp1179
atp1180
sI1074245960
(Vrtc_clk_xtal_freq_get
p1181
(lp1182
(L533036126L
L0L
(lp1183
(lp1184
tp1185
a(L2847936993L
L0L
(lp1186
(lp1187
tp1188
a(L2708840825L
L0L
(lp1189
(lp1190
tp1191
a(L3360570486L
L0L
(lp1192
(lp1193
tp1194
atp1195
sI1074248008
(Vesp_rom_spiflash_program_page_internal
p1196
(lp1197
(L2569069283L
L0L
(lp1198
(lp1199
tp1200
a(L2258688483L
L0L
(lp1201
(lp1202
tp1203
a(L3360570486L
L0L
(lp1204
(lp1205
tp1206
a(L3834367050L
L0L
(lp1207
(lp1208
tp1209
a(L4235661475L
L3785322319L
(lp1210
(lp1211
Vesp_rom_spiflash_wait_idle
p1212
atp1213
a(L1299866312L
L0L
(lp1214
(lp1215
tp1216
a(L3212356251L
L3785322319L
(lp1217
(lp1218
Vesp_rom_spiflash_enable_write
p1219
atp1220
a(L2632272701L
L0L
(lp1221
(lp1222
tp1223
a(L3771611749L
L0L
(lp1224
(lp1225
tp1226
a(L2953702749L
L0L
(lp1227
(lp1228
tp1229
a(L2989032L
L0L
(lp1230
(lp1231
tp1232
a(L1965622133L
L0L
(lp1233
(lp1234
tp1235
a(L2349682087L
L0L
(lp1236
(lp1237
tp1238
a(L1958113242L
L0L
(lp1239
(lp1240
tp1241
a(L106L
L0L
(lp1242
(lp1243
tp1244
a(L3112950080L
L0L
(lp1245
(lp1246
tp1247
a(L1868606439L
L0L
(lp1248
(lp1249
tp1250
a(L1008983222L
L0L
(lp1251
(lp1252
tp1253
a(L1933954923L
L0L
(lp1254
(lp1255
tp1256
a(L1147866918L
L0L
(lp1257
(lp1258
tp1259
a(L3871602522L
L0L
(lp1260
(lp1261
tp1262
atp1263
sI1074237268
(Vbootloader_common_get_active_otadata
p1264
(lp1265
(L3317503532L
L0L
(lp1266
(lp1267
tp1268
a(L2503049265L
L1832448559L
(lp1269
(lp1270
Vbootloader_common_ota_select_valid
p1271
aVbootloader_common_ota_select_valid
p1272
aVbootloader_common_select_otadata
p1273
atp1274
a(L735741265L
L0L
(lp1275
(lp1276
tp1277
atp1278
sI1074238544
(Vbootloader_clock_get_rated_freq_mhz
p1279
(lp1280
(L376617603L
L3785322319L
(lp1281
(lp1282
Vefuse_hal_get_rated_freq_mhz
p1283
atp1284
atp1285
sI1074234716
(Vbootloader_common_get_chip_ver_pkg
p1286
(lp1287
(L994406025L
L0L
(lp1288
(lp1289
tp1290
atp1291
sI1074238556
(Vlog_invalid_app_partition
p1292
(lp1293
(L3521327925L
L0L
(lp1294
(lp1295
tp1296
a(L3028464L
L0L
(lp1297
(lp1298
tp1299
a(L464326025L
L3785322319L
(lp1300
(lp1301
Vesp_log_early_timestamp
p1302
atp1303
a(L3833270346L
L0L
(lp1304
(lp1305
tp1306
a(L3360570486L
L0L
(lp1307
(lp1308
tp1309
a(L4216513345L
L3785322319L
(lp1310
(lp1311
Vesp_log_early_timestamp
p1312
atp1313
a(L1654679790L
L3785322319L
(lp1314
(lp1315
Vesp_log_early_timestamp
p1316
atp1317
atp1318
sI1074242652
(Vimage_load
p1319
(lp1320
(L3048705773L
L0L
(lp1321
(lp1322
tp1323
a(L3463713141L
L0L
(lp1324
(lp1325
tp1326
a(L3309803581L
L0L
(lp1327
(lp1328
tp1329
a(L256049682L
L0L
(lp1330
(lp1331
tp1332
a(L1935188817L
L0L
(lp1333
(lp1334
tp1335
a(L3028481L
L0L
(lp1336
(lp1337
tp1338
a(L3021749L
L0L
(lp1339
(lp1340
tp1341
a(L106L
L0L
(lp1342
(lp1343
tp1344
a(L585264737L
L0L
(lp1345
(lp1346
tp1347
a(L1145291904L
L3785322319L
(lp1348
(lp1349
Vprocess_image_header
p1350
atp1351
a(L823859500L
L0L
(lp1352
(lp1353
tp1354
a(L3061291474L
L0L
(lp1355
(lp1356
tp1357
a(L4106474008L
L3785322319L
(lp1358
(lp1359
Vprocess_segments
p1360
atp1361
a(L3868840998L
L0L
(lp1362
(lp1363
tp1364
a(L292970743L
L0L
(lp1365
(lp1366
tp1367
a(L1827898452L
L3785322319L
(lp1368
(lp1369
Vprocess_checksum
p1370
atp1371
a(L2214715179L
L3785322319L
(lp1372
(lp1373
Vprocess_appended_hash_and_sig
p1374
atp1375
a(L3028481L
L0L
(lp1376
(lp1377
tp1378
a(L2902417580L
L0L
(lp1379
(lp1380
tp1381
a(L3285560995L
L3785322319L
(lp1382
(lp1383
Vbootloader_sha256_finish
p1384
atp1385
a(L3946560000L
L0L
(lp1386
(lp1387
tp1388
a(L93674324L
L0L
(lp1389
(lp1390
tp1391
a(L2510919588L
L0L
(lp1392
(lp1393
tp1394
a(L772115669L
L0L
(lp1395
(lp1396
tp1397
a(L1179424413L
L0L
(lp1398
(lp1399
tp1400
a(L3928150917L
L0L
(lp1401
(lp1402
tp1403
a(L106L
L0L
(lp1404
(lp1405
tp1406
a(L3871473710L
L0L
(lp1407
(lp1408
tp1409
a(L3884726427L
L0L
(lp1410
(lp1411
tp1412
a(L106L
L0L
(lp1413
(lp1414
tp1415
a(L3020187L
L0L
(lp1416
(lp1417
tp1418
a(L1697049773L
L3785322319L
(lp1419
(lp1420
Vesp_log_early_timestamp
p1421
atp1422
a(L2868044067L
L0L
(lp1423
(lp1424
tp1425
a(L1179764900L
L0L
(lp1426
(lp1427
tp1428
a(L2332746046L
L3785322319L
(lp1429
(lp1430
Vbootloader_sha256_finish
p1431
atp1432
a(L1732382816L
L0L
(lp1433
(lp1434
tp1435
a(L3020204L
L0L
(lp1436
(lp1437
tp1438
a(L549190477L
L0L
(lp1439
(lp1440
tp1441
a(L106L
L0L
(lp1442
(lp1443
tp1444
a(L506242637L
L1880226080L
(lp1445
(lp1446
Vbootloader_sha256_finish
p1447
aVbootloader_debug_buffer
p1448
atp1449
a(L1919118407L
L1880226080L
(lp1450
(lp1451
Vesp_log_early_timestamp
p1452
aVbootloader_debug_buffer
p1453
atp1454
a(L3741653406L
L3785322319L
(lp1455
(lp1456
Vshould_load
p1457
atp1458
a(L2764257181L
L0L
(lp1459
(lp1460
tp1461
a(L3338774213L
L0L
(lp1462
(lp1463
tp1464
a(L3464541874L
L0L
(lp1465
(lp1466
tp1467
a(L3349572949L
L0L
(lp1468
(lp1469
tp1470
a(L2192292519L
L0L
(lp1471
(lp1472
tp1473
a(L106L
L0L
(lp1474
(lp1475
tp1476
a(L26615924L
L0L
(lp1477
(lp1478
tp1479
a(L1299866312L
L0L
(lp1480
(lp1481
tp1482
a(L3010020263L
L0L
(lp1483
(lp1484
tp1485
atp1486
sI1074244444
(Vwdt_hal_write_protect_enable
p1487
(lp1488
(L387778158L
L0L
(lp1489
(lp1490
tp1491
a(L4195472003L
L0L
(lp1492
(lp1493
tp1494
a(L3360570486L
L0L
(lp1495
(lp1496
tp1497
a(L802523425L
L0L
(lp1498
(lp1499
tp1500
atp1501
sI1074269524
(Vbootloader_check_bootloader_validity
p1502
(lp1503
(L2826918559L
L1832448559L
(lp1504
(lp1505
Vefuse_hal_chip_revision
p1506
aVesp_log_early_timestamp
p1507
aVbootloader_common_check_chip_validity
p1508
atp1509
atp1510
sI1074240344
(Vbootloader_debug_buffer
p1511
(lp1512
(L2100504542L
L0L
(lp1513
(lp1514
tp1515
atp1516
sI1074243416
(Vwdt_hal_init
p1517
(lp1518
(L3421398808L
L0L
(lp1519
(lp1520
tp1521
a(L106L
L0L
(lp1522
(lp1523
tp1524
a(L2104869658L
L0L
(lp1525
(lp1526
tp1527
a(L3076988543L
L0L
(lp1528
(lp1529
tp1530
a(L826654286L
L0L
(lp1531
(lp1532
tp1533
a(L3028464L
L0L
(lp1534
(lp1535
tp1536
a(L826450188L
L0L
(lp1537
(lp1538
tp1539
a(L2718477828L
L0L
(lp1540
(lp1541
tp1542
a(L4192844967L
L0L
(lp1543
(lp1544
tp1545
a(L3360570486L
L0L
(lp1546
(lp1547
tp1548
atp1549
sI1074246232
(Vrtc_clk_xtal_freq_update
p1550
(lp1551
(L3383495681L
L0L
(lp1552
(lp1553
tp1554
a(L3509357017L
L0L
(lp1555
(lp1556
tp1557
a(L2266180931L
L0L
(lp1558
(lp1559
tp1560
atp1561
sI1074244964
(Vrtc_clk_32k_enable
p1562
(lp1563
(L753387299L
L0L
(lp1564
(lp1565
tp1566
a(L3776007933L
L3785322319L
(lp1567
(lp1568
Vrtc_clk_32k_enable_common
p1569
atp1570
a(L3496950L
L0L
(lp1571
(lp1572
tp1573
a(L2999494823L
L0L
(lp1574
(lp1575
tp1576
atp1577
sI1074240352
(Vbootloader_sha256_start
p1578
(lp1579
(L4097873673L
L0L
(lp1580
(lp1581
tp1582
atp1583
sI1074236780
(Vefuse_hal_get_major_chip_version
p1584
(lp1585
(L3609358168L
L0L
(lp1586
(lp1587
tp1588
a(L894792960L
L0L
(lp1589
(lp1590
tp1591
a(L724635033L
L0L
(lp1592
(lp1593
tp1594
a(L3360570486L
L0L
(lp1595
(lp1596
tp1597
atp1598
sI1074237036
(Vbootloader_common_check_chip_validity
p1599
(lp1600
(L2080115690L
L0L
(lp1601
(lp1602
tp1603
a(L3154986995L
L3785322319L
(lp1604
(lp1605
Vesp_log_early_timestamp
p1606
atp1607
a(L1299867982L
L0L
(lp1608
(lp1609
tp1610
a(L3360570486L
L0L
(lp1611
(lp1612
tp1613
a(L521940037L
L3785322319L
(lp1614
(lp1615
Vefuse_hal_chip_revision
p1616
atp1617
a(L3630617448L
L0L
(lp1618
(lp1619
tp1620
a(L4252915848L
L3785322319L
(lp1621
(lp1622
Vesp_log_early_timestamp
p1623
atp1624
a(L3028464L
L0L
(lp1625
(lp1626
tp1627
a(L1797954754L
L0L
(lp1628
(lp1629
tp1630
a(L106L
L0L
(lp1631
(lp1632
tp1633
a(L3027019L
L0L
(lp1634
(lp1635
tp1636
a(L106L
L0L
(lp1637
(lp1638
tp1639
a(L147797478L
L3785322319L
(lp1640
(lp1641
Vesp_log_early_timestamp
p1642
atp1643
atp1644
sI1074239340
(Vbootloader_utility_load_partition_table
p1645
(lp1646
(L252002813L
L3785322319L
(lp1647
(lp1648
Vbootloader_mmap
p1649
atp1650
a(L955711428L
L3785322319L
(lp1651
(lp1652
Vesp_log_early_timestamp
p1653
atp1654
a(L2258688482L
L0L
(lp1655
(lp1656
tp1657
a(L3360570486L
L0L
(lp1658
(lp1659
tp1660
a(L2379286607L
L3785322319L
(lp1661
(lp1662
Vesp_partition_table_verify
p1663
atp1664
a(L273033190L
L3785322319L
(lp1665
(lp1666
Vesp_log_early_timestamp
p1667
atp1668
a(L2475738608L
L1880226080L
(lp1669
(lp1670
Vesp_log_early_timestamp
p1671
aVesp_log_early_timestamp
p1672
atp1673
a(L650140130L
L0L
(lp1674
(lp1675
tp1676
a(L2876000274L
L1880226080L
(lp1677
(lp1678
Vbootloader_munmap
p1679
aVesp_log_early_timestamp
p1680
atp1681
a(L521126897L
L0L
(lp1682
(lp1683
tp1684
a(L3028464L
L0L
(lp1685
(lp1686
tp1687
a(L106L
L0L
(lp1688
(lp1689
tp1690
a(L1403802538L
L0L
(lp1691
(lp1692
tp1693
a(L547659847L
L3785322319L
(lp1694
(lp1695
Vesp_log_early_timestamp
p1696
atp1697
a(L3990577774L
L0L
(lp1698
(lp1699
tp1700
a(L3020187L
L0L
(lp1701
(lp1702
tp1703
a(L2274806910L
L0L
(lp1704
(lp1705
tp1706
a(L4208503827L
L0L
(lp1707
(lp1708
tp1709
a(L1859218339L
L0L
(lp1710
(lp1711
tp1712
a(L2546691742L
L0L
(lp1713
(lp1714
tp1715
a(L3790342278L
L0L
(lp1716
(lp1717
tp1718
a(L106L
L0L
(lp1719
(lp1720
tp1721
a(L93674324L
L0L
(lp1722
(lp1723
tp1724
a(L1562060222L
L0L
(lp1725
(lp1726
tp1727
a(L1938133135L
L0L
(lp1728
(lp1729
tp1730
a(L1586995272L
L0L
(lp1731
(lp1732
tp1733
a(L106L
L0L
(lp1734
(lp1735
tp1736
a(L1590689356L
L0L
(lp1737
(lp1738
tp1739
a(L106L
L0L
(lp1740
(lp1741
tp1742
a(L568228547L
L0L
(lp1743
(lp1744
tp1745
atp1746
sI1074235240
(Vbootloader_execute_flash_command
p1747
(lp1748
(L2481595632L
L3785322319L
(lp1749
(lp1750
Vbootloader_flash_execute_command_common
p1751
atp1752
atp1753
sI1074270072
(Vrtc_clk_init
p1754
(lp1755
(L727467787L
L0L
(lp1756
(lp1757
tp1758
a(L42671777L
L3785322319L
(lp1759
(lp1760
Vrtc_clk_cpu_freq_to_xtal
p1761
atp1762
a(L2802857839L
L3785322319L
(lp1763
(lp1764
Vrtc_clk_xtal_freq_get
p1765
atp1766
a(L3028481L
L0L
(lp1767
(lp1768
tp1769
a(L4284274517L
L3785322319L
(lp1770
(lp1771
Vrtc_clk_xtal_freq_estimate
p1772
atp1773
a(L2193942290L
L3785322319L
(lp1774
(lp1775
Vesp_log_early_timestamp
p1776
atp1777
a(L853900298L
L1157885199L
(lp1778
(lp1779
Vesp_rom_uart_tx_wait_idle
p1780
aVrtc_clk_xtal_freq_update
p1781
aVrtc_clk_apb_freq_update
p1782
aVrtc_clk_cpu_freq_get_config
p1783
aVrtc_clk_cpu_freq_mhz_to_config
p1784
atp1785
a(L1519108212L
L1880226080L
(lp1786
(lp1787
Vesp_log_early_timestamp
p1788
aVabort
p1789
atp1790
a(L2902417580L
L0L
(lp1791
(lp1792
tp1793
a(L1899970065L
L0L
(lp1794
(lp1795
tp1796
a(L377687546L
L3785322319L
(lp1797
(lp1798
Vrtc_clk_xtal_freq_estimate
p1799
atp1800
a(L1011118415L
L3785322319L
(lp1801
(lp1802
Vesp_log_early_timestamp
p1803
atp1804
a(L1642886347L
L3785322319L
(lp1805
(lp1806
Vrtc_clk_cpu_freq_set_config
p1807
atp1808
a(L912310138L
L3785322319L
(lp1809
(lp1810
Vrtc_clk_32k_enable
p1811
atp1812
a(L3191820416L
L1832448559L
(lp1813
(lp1814
Vrtc_clk_8m_enable
p1815
aVrtc_clk_fast_src_set
p1816
aVrtc_clk_slow_src_set
p1817
atp1818
a(L1232958848L
L0L
(lp1819
(lp1820
tp1821
atp1822
sI1074240372
(Vbootloader_sha256_data
p1823
(lp1824
(L4066096136L
L0L
(lp1825
(lp1826
tp1827
a(L3841069648L
L0L
(lp1828
(lp1829
tp1830
a(L47191971L
L3785322319L
(lp1831
(lp1832
V__assert_func
p1833
atp1834
a(L498498478L
L0L
(lp1835
(lp1836
tp1837
a(L2285300943L
L0L
(lp1838
(lp1839
tp1840
a(L2910371777L
L0L
(lp1841
(lp1842
tp1843
a(L3360570486L
L0L
(lp1844
(lp1845
tp1846
a(L375846078L
L0L
(lp1847
(lp1848
tp1849
a(L248495140L
L0L
(lp1850
(lp1851
tp1852
a(L1731657511L
L0L
(lp1853
(lp1854
tp1855
a(L511229072L
L0L
(lp1856
(lp1857
tp1858
a(L3947759771L
L0L
(lp1859
(lp1860
tp1861
a(L1394964493L
L0L
(lp1862
(lp1863
tp1864
a(L2452189744L
L0L
(lp1865
(lp1866
tp1867
a(L702738177L
L0L
(lp1868
(lp1869
tp1870
a(L3745004802L
L0L
(lp1871
(lp1872
tp1873
atp1874
sI1074246000
(Vrtc_clk_cpu_freq_mhz_to_config
p1875
(lp1876
(L908718885L
L3785322319L
(lp1877
(lp1878
Vrtc_clk_xtal_freq_get
p1879
atp1880
a(L60460069L
L0L
(lp1881
(lp1882
tp1883
a(L3802072124L
L0L
(lp1884
(lp1885
tp1886
a(L3159006042L
L0L
(lp1887
(lp1888
tp1889
a(L3360570486L
L0L
(lp1890
(lp1891
tp1892
a(L895147205L
L0L
(lp1893
(lp1894
tp1895
a(L3970036657L
L0L
(lp1896
(lp1897
tp1898
a(L2731353429L
L0L
(lp1899
(lp1900
tp1901
a(L1555485793L
L0L
(lp1902
(lp1903
tp1904
a(L2258897023L
L0L
(lp1905
(lp1906
tp1907
a(L1947499251L
L0L
(lp1908
(lp1909
tp1910
a(L1306331021L
L0L
(lp1911
(lp1912
tp1913
atp1914
sI1074237308
(Vbootloader_common_ota_select_invalid
p1915
(lp1916
(L4027567199L
L0L
(lp1917
(lp1918
tp1919
a(L3397985842L
L0L
(lp1920
(lp1921
tp1922
a(L2258867228L
L0L
(lp1923
(lp1924
tp1925
a(L3785235668L
L0L
(lp1926
(lp1927
tp1928
atp1929
sI1074234748
(Vesp_flash_encryption_enabled
p1930
(lp1931
(L376617603L
L3785322319L
(lp1932
(lp1933
Vefuse_hal_flash_encryption_enabled
p1934
atp1935
atp1936
sI1074236540
(Vesp_rom_set_cpu_ticks_per_us
p1937
(lp1938
(L1865870295L
L0L
(lp1939
(lp1940
tp1941
atp1942
sI1074249340
(V_fini
p1943
(lp1944
(L3493042598L
L0L
(lp1945
(lp1946
tp1947
atp1948
sI1074269812
(Vbootloader_console_init
p1949
(lp1950
(L3157901046L
L1832448559L
(lp1951
(lp1952
Vesp_rom_uart_tx_wait_idle
p1953
aVrtc_clk_apb_freq_get
p1954
aVesp_rom_uart_set_clock_baudrate
p1955
atp1956
atp1957
sI1074244472
(Vwdt_hal_enable
p1958
(lp1959
(L2299130915L
L0L
(lp1960
(lp1961
tp1962
a(L165794138L
L0L
(lp1963
(lp1964
tp1965
a(L3360570486L
L0L
(lp1966
(lp1967
tp1968
a(L2847657174L
L0L
(lp1969
(lp1970
tp1971
atp1972
sI1074241912
(Vprocess_segments
p1973
(lp1974
(L1326203493L
L0L
(lp1975
(lp1976
tp1977
a(L1640778736L
L0L
(lp1978
(lp1979
tp1980
a(L3782401745L
L0L
(lp1981
(lp1982
tp1983
a(L106L
L0L
(lp1984
(lp1985
tp1986
a(L3028481L
L0L
(lp1987
(lp1988
tp1989
a(L4059164926L
L3785322319L
(lp1990
(lp1991
Vesp_log_early_timestamp
p1992
atp1993
a(L761135359L
L3785322319L
(lp1994
(lp1995
Vbootloader_flash_read
p1996
atp1997
a(L3061273537L
L3785322319L
(lp1998
(lp1999
Vesp_log_early_timestamp
p2000
atp2001
a(L3871473710L
L0L
(lp2002
(lp2003
tp2004
a(L219417435L
L0L
(lp2005
(lp2006
tp2007
a(L616767314L
L3785322319L
(lp2008
(lp2009
Vbootloader_sha256_data
p2010
atp2011
a(L707062298L
L0L
(lp2012
(lp2013
tp2014
a(L2258837437L
L0L
(lp2015
(lp2016
tp2017
a(L1764156528L
L0L
(lp2018
(lp2019
tp2020
a(L3028481L
L0L
(lp2021
(lp2022
tp2023
a(L3599960658L
L3785322319L
(lp2024
(lp2025
Vesp_log_early_timestamp
p2026
atp2027
a(L568253161L
L0L
(lp2028
(lp2029
tp2030
a(L4097494873L
L0L
(lp2031
(lp2032
tp2033
a(L3802069243L
L0L
(lp2034
(lp2035
tp2036
a(L1551906853L
L0L
(lp2037
(lp2038
tp2039
a(L2258867228L
L0L
(lp2040
(lp2041
tp2042
a(L2277415887L
L0L
(lp2043
(lp2044
tp2045
a(L3177376558L
L0L
(lp2046
(lp2047
tp2048
a(L3028481L
L0L
(lp2049
(lp2050
tp2051
a(L2430737179L
L3785322319L
(lp2052
(lp2053
Vesp_log_early_timestamp
p2054
atp2055
a(L2640606608L
L0L
(lp2056
(lp2057
tp2058
a(L3028481L
L0L
(lp2059
(lp2060
tp2061
a(L1304081855L
L3785322319L
(lp2062
(lp2063
Vesp_log_early_timestamp
p2064
atp2065
a(L3519399408L
L0L
(lp2066
(lp2067
tp2068
a(L2902417580L
L0L
(lp2069
(lp2070
tp2071
a(L2902417580L
L0L
(lp2072
(lp2073
tp2074
a(L1229952296L
L3785322319L
(lp2075
(lp2076
Vverify_load_addresses
p2077
atp2078
a(L3783935185L
L3785322319L
(lp2079
(lp2080
Vbootloader_mmap_get_free_pages
p2081
atp2082
a(L3028481L
L0L
(lp2083
(lp2084
tp2085
a(L224879076L
L0L
(lp2086
(lp2087
tp2088
a(L142590671L
L0L
(lp2089
(lp2090
tp2091
a(L3028481L
L0L
(lp2092
(lp2093
tp2094
a(L94425498L
L3785322319L
(lp2095
(lp2096
Vesp_log_early_timestamp
p2097
atp2098
a(L3796519849L
L0L
(lp2099
(lp2100
tp2101
a(L4085121624L
L3785322319L
(lp2102
(lp2103
Vshould_load
p2104
atp2105
a(L3028481L
L0L
(lp2106
(lp2107
tp2108
a(L3792294891L
L3785322319L
(lp2109
(lp2110
Vesp_log_early_timestamp
p2111
atp2112
a(L106L
L0L
(lp2113
(lp2114
tp2115
a(L3815630522L
L0L
(lp2116
(lp2117
tp2118
a(L1373549048L
L3785322319L
(lp2119
(lp2120
Vesp_log_early_timestamp
p2121
atp2122
a(L2629678223L
L0L
(lp2123
(lp2124
tp2125
a(L2684012095L
L0L
(lp2126
(lp2127
tp2128
a(L3357777304L
L3785322319L
(lp2129
(lp2130
Vbootloader_mmap
p2131
atp2132
a(L4263458314L
L3785322319L
(lp2133
(lp2134
Vesp_log_early_timestamp
p2135
atp2136
a(L1698460186L
L0L
(lp2137
(lp2138
tp2139
a(L1782084270L
L0L
(lp2140
(lp2141
tp2142
a(L1704402255L
L0L
(lp2143
(lp2144
tp2145
a(L1595421496L
L3785322319L
(lp2146
(lp2147
Vbootloader_munmap
p2148
atp2149
a(L2757579158L
L0L
(lp2150
(lp2151
tp2152
a(L2356270618L
L3785322319L
(lp2153
(lp2154
Vbootloader_fill_random
p2155
atp2156
a(L3277879431L
L0L
(lp2157
(lp2158
tp2159
a(L3281573515L
L0L
(lp2160
(lp2161
tp2162
a(L3450268858L
L0L
(lp2163
(lp2164
tp2165
a(L3021749L
L0L
(lp2166
(lp2167
tp2168
a(L322434465L
L0L
(lp2169
(lp2170
tp2171
a(L2494883302L
L0L
(lp2172
(lp2173
tp2174
a(L2902417580L
L0L
(lp2175
(lp2176
tp2177
a(L2333422927L
L0L
(lp2178
(lp2179
tp2180
a(L22854698L
L0L
(lp2181
(lp2182
tp2183
a(L1426980959L
L0L
(lp2184
(lp2185
tp2186
a(L1841482652L
L0L
(lp2187
(lp2188
tp2189
a(L653501462L
L0L
(lp2190
(lp2191
tp2192
a(L3310548426L
L3785322319L
(lp2193
(lp2194
Vbootloader_sha256_data
p2195
atp2196
a(L90548756L
L0L
(lp2197
(lp2198
tp2199
a(L708495868L
L0L
(lp2200
(lp2201
tp2202
a(L2364005371L
L0L
(lp2203
(lp2204
tp2205
atp2206
sI1074267784
(Vbootloader_init
p2207
(lp2208
(L499404346L
L3785322319L
(lp2209
(lp2210
Vbootloader_init_mem
p2211
atp2212
a(L1921727804L
L0L
(lp2213
(lp2214
tp2215
a(L2338855416L
L3785322319L
(lp2216
(lp2217
V__assert_func
p2218
atp2219
a(L429644902L
L0L
(lp2220
(lp2221
tp2222
a(L281413315L
L0L
(lp2223
(lp2224
tp2225
a(L3813782018L
L0L
(lp2226
(lp2227
tp2228
a(L55090837L
L0L
(lp2229
(lp2230
tp2231
a(L3027019L
L0L
(lp2232
(lp2233
tp2234
a(L100355376L
L0L
(lp2235
(lp2236
tp2237
a(L231109807L
L1832448559L
(lp2238
(lp2239
Vbootloader_clear_bss_section
p2240
aVbootloader_common_vddsdio_configure
p2241
aVbootloader_clock_get_rated_freq_mhz
p2242
atp2243
a(L1391560485L
L1157885199L
(lp2244
(lp2245
Vbootloader_clock_configure
p2246
aVbootloader_console_init
p2247
aVbootloader_print_banner
p2248
aVbootloader_flash_update_id
p2249
aVbootloader_flash_xmc_startup
p2250
atp2251
a(L3270457412L
L3785322319L
(lp2252
(lp2253
Vesp_log_early_timestamp
p2254
atp2255
a(L3161879045L
L3785322319L
(lp2256
(lp2257
Vesp_log_early_timestamp
p2258
atp2259
a(L3360570486L
L0L
(lp2260
(lp2261
tp2262
a(L2444883382L
L3785322319L
(lp2263
(lp2264
Vbootloader_read_bootloader_header
p2265
atp2266
a(L2444883382L
L3785322319L
(lp2267
(lp2268
Vbootloader_check_bootloader_validity
p2269
atp2270
a(L2444883382L
L3785322319L
(lp2271
(lp2272
Vbootloader_init_spi_flash
p2273
atp2274
a(L3396584159L
L0L
(lp2275
(lp2276
tp2277
a(L3289072036L
L0L
(lp2278
(lp2279
tp2280
a(L3016266L
L0L
(lp2281
(lp2282
tp2283
a(L106L
L0L
(lp2284
(lp2285
tp2286
a(L3027019L
L0L
(lp2287
(lp2288
tp2289
a(L106L
L0L
(lp2290
(lp2291
tp2292
a(L3436818407L
L1880226080L
(lp2293
(lp2294
Vbootloader_config_wdt
p2295
aVbootloader_enable_random
p2296
atp2297
a(L1895147938L
L0L
(lp2298
(lp2299
tp2300
a(L2303211161L
L0L
(lp2301
(lp2302
tp2303
a(L106L
L0L
(lp2304
(lp2305
tp2306
a(L3027019L
L0L
(lp2307
(lp2308
tp2309
a(L97315L
L0L
(lp2310
(lp2311
tp2312
a(L106L
L0L
(lp2313
(lp2314
tp2315
a(L2595712451L
L3785322319L
(lp2316
(lp2317
Vesp_log_early_timestamp
p2318
atp2319
a(L106L
L0L
(lp2320
(lp2321
tp2322
a(L130705695L
L0L
(lp2323
(lp2324
tp2325
a(L362903958L
L0L
(lp2326
(lp2327
tp2328
a(L3189889016L
L0L
(lp2329
(lp2330
tp2331
a(L362391907L
L0L
(lp2332
(lp2333
tp2334
a(L3618946093L
L3785322319L
(lp2335
(lp2336
Vesp_log_early_timestamp
p2337
atp2338
a(L722191531L
L0L
(lp2339
(lp2340
tp2341
a(L362903958L
L0L
(lp2342
(lp2343
tp2344
a(L106L
L0L
(lp2345
(lp2346
tp2347
a(L121140021L
L3785322319L
(lp2348
(lp2349
Vesp_log_early_timestamp
p2350
atp2351
a(L1773768914L
L3785322319L
(lp2352
(lp2353
Vesp_log_early_timestamp
p2354
atp2355
atp2356
sI1074246276
(Vrtc_clk_apb_freq_update
p2357
(lp2358
(L3678163707L
L0L
(lp2359
(lp2360
tp2361
atp2362
sI1074247808
(Vesp_rom_spiflash_read_status
p2363
(lp2364
(L862498644L
L0L
(lp2365
(lp2366
tp2367
a(L1143167003L
L0L
(lp2368
(lp2369
tp2370
a(L4159619641L
L0L
(lp2371
(lp2372
tp2373
a(L2392720019L
L0L
(lp2374
(lp2375
tp2376
a(L2258688487L
L0L
(lp2377
(lp2378
tp2379
a(L4159619145L
L0L
(lp2380
(lp2381
tp2382
a(L2644792260L
L0L
(lp2383
(lp2384
tp2385
a(L3117156279L
L0L
(lp2386
(lp2387
tp2388
a(L2123059967L
L0L
(lp2389
(lp2390
tp2391
a(L582177370L
L0L
(lp2392
(lp2393
tp2394
atp2395
sI1074245516
(Vrtc_clk_32k_enabled
p2396
(lp2397
(L586826143L
L0L
(lp2398
(lp2399
tp2400
atp2401
sI1074248588
(Vesp_rom_spiflash_read
p2402
(lp2403
(L3400010931L
L0L
(lp2404
(lp2405
tp2406
a(L2336577702L
L0L
(lp2407
(lp2408
tp2409
a(L2860271684L
L0L
(lp2410
(lp2411
tp2412
a(L2355528925L
L0L
(lp2413
(lp2414
tp2415
a(L106L
L0L
(lp2416
(lp2417
tp2418
a(L633884026L
L0L
(lp2419
(lp2420
tp2421
a(L106L
L0L
(lp2422
(lp2423
tp2424
a(L2325789507L
L0L
(lp2425
(lp2426
tp2427
a(L1849077464L
L0L
(lp2428
(lp2429
tp2430
a(L1549778796L
L0L
(lp2431
(lp2432
tp2433
a(L336550648L
L0L
(lp2434
(lp2435
tp2436
a(L3564228684L
L0L
(lp2437
(lp2438
tp2439
a(L106L
L0L
(lp2440
(lp2441
tp2442
a(L879464909L
L3785322319L
(lp2443
(lp2444
Vesp_rom_spiflash_wait_idle
p2445
atp2446
a(L3021737L
L0L
(lp2447
(lp2448
tp2449
a(L106L
L0L
(lp2450
(lp2451
tp2452
a(L1868280504L
L0L
(lp2453
(lp2454
tp2455
a(L106L
L0L
(lp2456
(lp2457
tp2458
a(L750281353L
L0L
(lp2459
(lp2460
tp2461
a(L3897437082L
L0L
(lp2462
(lp2463
tp2464
a(L4122060822L
L0L
(lp2465
(lp2466
tp2467
a(L3106003355L
L0L
(lp2468
(lp2469
tp2470
a(L2989032L
L0L
(lp2471
(lp2472
tp2473
a(L3819849625L
L0L
(lp2474
(lp2475
tp2476
a(L2510054876L
L0L
(lp2477
(lp2478
tp2479
a(L921819945L
L0L
(lp2480
(lp2481
tp2482
a(L3901821502L
L0L
(lp2483
(lp2484
tp2485
a(L4285792960L
L0L
(lp2486
(lp2487
tp2488
a(L2921907736L
L0L
(lp2489
(lp2490
tp2491
a(L4023125337L
L0L
(lp2492
(lp2493
tp2494
a(L1638207582L
L0L
(lp2495
(lp2496
tp2497
a(L4289593045L
L0L
(lp2498
(lp2499
tp2500
a(L703468507L
L0L
(lp2501
(lp2502
tp2503
a(L3333707777L
L0L
(lp2504
(lp2505
tp2506
a(L3251955268L
L0L
(lp2507
(lp2508
tp2509
a(L3418540920L
L0L
(lp2510
(lp2511
tp2512
a(L3167529446L
L0L
(lp2513
(lp2514
tp2515
a(L97689L
L0L
(lp2516
(lp2517
tp2518
a(L2258897019L
L0L
(lp2519
(lp2520
tp2521
a(L4014024819L
L0L
(lp2522
(lp2523
tp2524
a(L3621567083L
L0L
(lp2525
(lp2526
tp2527
atp2528
sI1074238856
(Vload_image
p2529
(lp2530
(L1570861251L
L1832448559L
(lp2531
(lp2532
Vesp_log_early_timestamp
p2533
aVbootloader_random_disable
p2534
aVbootloader_ana_clock_glitch_reset_config
p2535
atp2536
a(L2118498116L
L0L
(lp2537
(lp2538
tp2539
a(L106L
L0L
(lp2540
(lp2541
tp2542
a(L3729451407L
L267944800L
(lp2543
(lp2544
Vmmu_hal_unmap_all
p2545
aVcache_ll_l1_get_bus
p2546
aVcache_ll_l1_enable_bus
p2547
aVcache_ll_l1_get_bus
p2548
aVcache_ll_l1_enable_bus
p2549
aVbootloader_console_deinit
p2550
atp2551
a(L1675573264L
L0L
(lp2552
(lp2553
tp2554
a(L2902417580L
L0L
(lp2555
(lp2556
tp2557
a(L1527825284L
L3785322319L
(lp2558
(lp2559
Vesp_log_early_timestamp
p2560
atp2561
a(L2668023328L
L0L
(lp2562
(lp2563
tp2564
a(L2604509000L
L0L
(lp2565
(lp2566
tp2567
a(L3020204L
L0L
(lp2568
(lp2569
tp2570
a(L2696021539L
L3785322319L
(lp2571
(lp2572
Vesp_log_early_timestamp
p2573
atp2574
a(L263320866L
L0L
(lp2575
(lp2576
tp2577
a(L3049851575L
L0L
(lp2578
(lp2579
tp2580
atp2581
sI1074235272
(Vbootloader_flash_unlock
p2582
(lp2583
(L485855552L
L3785322319L
(lp2584
(lp2585
Vesp_rom_spiflash_wait_idle
p2586
atp2587
a(L711923870L
L0L
(lp2588
(lp2589
tp2590
a(L3507311156L
L3785322319L
(lp2591
(lp2592
Vbootloader_execute_flash_command
p2593
atp2594
a(L4103218025L
L0L
(lp2595
(lp2596
tp2597
a(L2529045083L
L0L
(lp2598
(lp2599
tp2600
a(L1175784077L
L1832448559L
(lp2601
(lp2602
Vesp_rom_spiflash_wait_idle
p2603
aVbootloader_execute_flash_command
p2604
aVbootloader_execute_flash_command
p2605
atp2606
a(L106L
L0L
(lp2607
(lp2608
tp2609
a(L594961218L
L1880226080L
(lp2610
(lp2611
Vesp_rom_spiflash_wait_idle
p2612
aVbootloader_execute_flash_command
p2613
atp2614
a(L2993202392L
L0L
(lp2615
(lp2616
tp2617
a(L610618707L
L0L
(lp2618
(lp2619
tp2620
a(L2843273676L
L0L
(lp2621
(lp2622
tp2623
a(L192015437L
L0L
(lp2624
(lp2625
tp2626
a(L3154322046L
L1880226080L
(lp2627
(lp2628
Vbootloader_execute_flash_command
p2629
aVbootloader_execute_flash_command
p2630
atp2631
a(L1303560644L
L0L
(lp2632
(lp2633
tp2634
a(L1711531685L
L1880226080L
(lp2635
(lp2636
Vbootloader_execute_flash_command
p2637
aVbootloader_execute_flash_command
p2638
atp2639
a(L3658700047L
L0L
(lp2640
(lp2641
tp2642
a(L3430607254L
L0L
(lp2643
(lp2644
tp2645
a(L106L
L0L
(lp2646
(lp2647
tp2648
a(L1876788132L
L1832448559L
(lp2649
(lp2650
Vesp_rom_spiflash_wait_idle
p2651
aVbootloader_execute_flash_command
p2652
aVbootloader_execute_flash_command
p2653
atp2654
atp2655
sI1074234760
(Vbootloader_flash_execute_command_common
p2656
(lp2657
(L3865052895L
L0L
(lp2658
(lp2659
tp2660
a(L3287175997L
L0L
(lp2661
(lp2662
tp2663
a(L4121451103L
L3785322319L
(lp2664
(lp2665
V__assert_func
p2666
atp2667
a(L3021749L
L0L
(lp2668
(lp2669
tp2670
a(L3999871943L
L0L
(lp2671
(lp2672
tp2673
a(L543316797L
L0L
(lp2674
(lp2675
tp2676
a(L2091933878L
L0L
(lp2677
(lp2678
tp2679
a(L1702379862L
L0L
(lp2680
(lp2681
tp2682
a(L3432464320L
L0L
(lp2683
(lp2684
tp2685
a(L3539375712L
L0L
(lp2686
(lp2687
tp2688
a(L3244449450L
L0L
(lp2689
(lp2690
tp2691
a(L4233404408L
L0L
(lp2692
(lp2693
tp2694
a(L2990329343L
L0L
(lp2695
(lp2696
tp2697
a(L2051090536L
L0L
(lp2698
(lp2699
tp2700
a(L3333696662L
L0L
(lp2701
(lp2702
tp2703
a(L963425213L
L0L
(lp2704
(lp2705
tp2706
a(L339491738L
L0L
(lp2707
(lp2708
tp2709
a(L3360570486L
L0L
(lp2710
(lp2711
tp2712
atp2713
sI1074236552
(Vesp_rom_uart_tx_wait_idle
p2714
(lp2715
(L3784729872L
L0L
(lp2716
(lp2717
tp2718
a(L1301079727L
L0L
(lp2719
(lp2720
tp2721
a(L597952197L
L0L
(lp2722
(lp2723
tp2724
a(L1971823332L
L0L
(lp2725
(lp2726
tp2727
a(L3055926844L
L0L
(lp2728
(lp2729
tp2730
a(L3360570486L
L0L
(lp2731
(lp2732
tp2733
a(L3694491048L
L0L
(lp2734
(lp2735
tp2736
a(L106L
L0L
(lp2737
(lp2738
tp2739
atp2740
sI1074244744
(Vrtc_clk_cpu_freq_to_pll_mhz
p2741
(lp2742
(L3231135830L
L0L
(lp2743
(lp2744
tp2745
a(L174379536L
L0L
(lp2746
(lp2747
tp2748
a(L3557954139L
L1880226080L
(lp2749
(lp2750
Vesp_rom_set_cpu_ticks_per_us
p2751
aVrtc_clk_wait_for_slow_cycle
p2752
atp2753
a(L4243791143L
L0L
(lp2754
(lp2755
tp2756
a(L3284807114L
L0L
(lp2757
(lp2758
tp2759
a(L94425498L
L3785322319L
(lp2760
(lp2761
Vabort
p2762
atp2763
a(L2258897019L
L0L
(lp2764
(lp2765
tp2766
a(L1113742378L
L0L
(lp2767
(lp2768
tp2769
a(L1306330990L
L0L
(lp2770
(lp2771
tp2772
atp2773
sI1074269592
(Vbootloader_config_wdt
p2774
(lp2775
(L1733203887L
L505859776L
(lp2776
(lp2777
Vwdt_hal_write_protect_disable
p2778
aVwdt_hal_set_flashboot_en
p2779
aVwdt_hal_write_protect_enable
p2780
aVwdt_hal_init
p2781
aVrtc_clk_slow_freq_get_hz
p2782
aVwdt_hal_write_protect_disable
p2783
aVwdt_hal_config_stage
p2784
aVwdt_hal_enable
p2785
aVwdt_hal_write_protect_enable
p2786
aVwdt_hal_write_protect_disable
p2787
aVwdt_hal_set_flashboot_en
p2788
aVwdt_hal_write_protect_enable
p2789
atp2790
atp2791
sI1074269848
(Vesp_cpu_configure_region_protection
p2792
(lp2793
(L2573504706L
L0L
(lp2794
(lp2795
tp2796
a(L180431425L
L3785322319L
(lp2797
(lp2798
Vmpu_hal_set_region_access
p2799
atp2800
a(L2537388152L
L3785322319L
(lp2801
(lp2802
Vmpu_hal_set_region_access
p2803
atp2804
atp2805
sI1074241168
(Vbootloader_util_regions_overlap
p2806
(lp2807
(L2762640130L
L0L
(lp2808
(lp2809
tp2810
a(L3265846077L
L0L
(lp2811
(lp2812
tp2813
a(L872085536L
L3785322319L
(lp2814
(lp2815
V__assert_func
p2816
atp2817
a(L97642L
L0L
(lp2818
(lp2819
tp2820
a(L808423032L
L0L
(lp2821
(lp2822
tp2823
a(L366123053L
L0L
(lp2824
(lp2825
tp2826
a(L2258867228L
L0L
(lp2827
(lp2828
tp2829
a(L1253626734L
L0L
(lp2830
(lp2831
tp2832
a(L2258897019L
L0L
(lp2833
(lp2834
tp2835
a(L3109269495L
L0L
(lp2836
(lp2837
tp2838
atp2839
sI1074248336
(Vesp_rom_spiflash_write
p2840
(lp2841
(L2574012066L
L0L
(lp2842
(lp2843
tp2844
a(L2258688483L
L0L
(lp2845
(lp2846
tp2847
a(L3360570486L
L0L
(lp2848
(lp2849
tp2850
a(L3368132847L
L0L
(lp2851
(lp2852
tp2853
a(L3106685981L
L0L
(lp2854
(lp2855
tp2856
a(L3488660639L
L3785322319L
(lp2857
(lp2858
Vesp_rom_spiflash_program_page_internal
p2859
atp2860
a(L3543402353L
L3785322319L
(lp2861
(lp2862
Vesp_rom_spiflash_program_page_internal
p2863
atp2864
a(L4222526342L
L0L
(lp2865
(lp2866
tp2867
a(L2004208511L
L0L
(lp2868
(lp2869
tp2870
a(L564470656L
L0L
(lp2871
(lp2872
tp2873
a(L441922648L
L3785322319L
(lp2874
(lp2875
Vesp_rom_spiflash_program_page_internal
p2876
atp2877
a(L2302069176L
L0L
(lp2878
(lp2879
tp2880
atp2881
sI1074245532
(Vrtc_clk_8m_enable
p2882
(lp2883
(L1437749527L
L0L
(lp2884
(lp2885
tp2886
a(L1660354155L
L0L
(lp2887
(lp2888
tp2889
a(L2151320156L
L0L
(lp2890
(lp2891
tp2892
a(L711175840L
L0L
(lp2893
(lp2894
tp2895
a(L3360570486L
L0L
(lp2896
(lp2897
tp2898
a(L1318267208L
L0L
(lp2899
(lp2900
tp2901
a(L2716403206L
L0L
(lp2902
(lp2903
tp2904
atp2905
sI1074237336
(Vbootloader_common_select_otadata
p2906
(lp2907
(L4071767857L
L0L
(lp2908
(lp2909
tp2910
a(L1999329187L
L0L
(lp2911
(lp2912
tp2913
a(L3846398843L
L0L
(lp2914
(lp2915
tp2916
a(L2501968171L
L0L
(lp2917
(lp2918
tp2919
a(L3360570486L
L0L
(lp2920
(lp2921
tp2922
a(L2045232488L
L0L
(lp2923
(lp2924
tp2925
a(L1243525916L
L0L
(lp2926
(lp2927
tp2928
a(L3094144427L
L0L
(lp2929
(lp2930
tp2931
a(L2399509845L
L0L
(lp2932
(lp2933
tp2934
a(L1641201884L
L0L
(lp2935
(lp2936
tp2937
atp2938
sI1074235812
(Vbootloader_flash_cs_timing_config
p2939
(lp2940
(L1940014330L
L0L
(lp2941
(lp2942
tp2943
atp2944
sI1074241696
(Vprocess_appended_hash_and_sig
p2945
(lp2946
(L1668084157L
L0L
(lp2947
(lp2948
tp2949
a(L2910371777L
L0L
(lp2950
(lp2951
tp2952
a(L4285188111L
L0L
(lp2953
(lp2954
tp2955
a(L1151175705L
L0L
(lp2956
(lp2957
tp2958
a(L97689L
L0L
(lp2959
(lp2960
tp2961
a(L3294304061L
L3785322319L
(lp2962
(lp2963
Vesp_log_early_timestamp
p2964
atp2965
a(L3620623082L
L0L
(lp2966
(lp2967
tp2968
a(L1464893571L
L3785322319L
(lp2969
(lp2970
Vbootloader_flash_read
p2971
atp2972
a(L735741265L
L0L
(lp2973
(lp2974
tp2975
atp2976
sI1074245024
(Vrtc_clk_32k_bootstrap
p2977
(lp2978
(L4123346161L
L0L
(lp2979
(lp2980
tp2981
a(L3674455069L
L0L
(lp2982
(lp2983
tp2984
a(L526213251L
L0L
(lp2985
(lp2986
tp2987
a(L1533160738L
L0L
(lp2988
(lp2989
tp2990
a(L3036304778L
L3785322319L
(lp2991
(lp2992
Vrtc_clk_32k_enable_common
p2993
atp2994
atp2995
sI1074246304
(Vrtc_clk_cpu_freq_to_xtal
p2996
(lp2997
(L767415990L
L3785322319L
(lp2998
(lp2999
Vesp_rom_set_cpu_ticks_per_us
p3000
atp3001
a(L94425498L
L3785322319L
(lp3002
(lp3003
Vabort
p3004
atp3005
a(L113493817L
L3785322319L
(lp3006
(lp3007
Vrtc_clk_apb_freq_update
p3008
atp3009
a(L2258867230L
L0L
(lp3010
(lp3011
tp3012
a(L164704077L
L0L
(lp3013
(lp3014
tp3015
atp3016
sI1074238120
(Vbootloader_enable_wp
p3017
(lp3018
(L1117825804L
L3785322319L
(lp3019
(lp3020
Vbootloader_execute_flash_command
p3021
atp3022
atp3023
sI1074235560
(Vbootloader_flash_read_sfdp
p3024
(lp3025
(L711701400L
L0L
(lp3026
(lp3027
tp3028
a(L3305374083L
L3785322319L
(lp3029
(lp3030
V__assert_func
p3031
atp3032
a(L3704332455L
L3785322319L
(lp3033
(lp3034
Vbootloader_flash_execute_command_common
p3035
atp3036
atp3037
sI1074236848
(Vefuse_hal_get_minor_chip_version
p3038
(lp3039
(L2721608854L
L0L
(lp3040
(lp3041
tp3042
atp3043
sI1074238640
(Vtry_load_partition
p3044
(lp3045
(L1263750142L
L0L
(lp3046
(lp3047
tp3048
a(L2258688482L
L0L
(lp3049
(lp3050
tp3051
a(L3360570486L
L0L
(lp3052
(lp3053
tp3054
a(L530241438L
L3785322319L
(lp3055
(lp3056
Vbootloader_load_image
p3057
atp3058
a(L2855648545L
L3785322319L
(lp3059
(lp3060
Vesp_log_early_timestamp
p3061
atp3062
atp3063
sI1074238140
(Vbootloader_mmap_get_free_pages
p3064
(lp3065
(L1496516875L
L0L
(lp3066
(lp3067
tp3068
atp3069
sI1074244028
(Vwdt_hal_config_stage
p3070
(lp3071
(L331558507L
L0L
(lp3072
(lp3073
tp3074
a(L4279082939L
L0L
(lp3075
(lp3076
tp3077
a(L93674324L
L0L
(lp3078
(lp3079
tp3080
a(L2902417580L
L0L
(lp3081
(lp3082
tp3083
a(L1485495983L
L0L
(lp3084
(lp3085
tp3086
a(L3020187L
L0L
(lp3087
(lp3088
tp3089
a(L94425498L
L3785322319L
(lp3090
(lp3091
Vabort
p3092
atp3093
a(L2718517169L
L0L
(lp3094
(lp3095
tp3096
a(L3360570486L
L0L
(lp3097
(lp3098
tp3099
a(L1996799187L
L0L
(lp3100
(lp3101
tp3102
a(L2771194801L
L0L
(lp3103
(lp3104
tp3105
a(L4278159418L
L0L
(lp3106
(lp3107
tp3108
a(L93674324L
L0L
(lp3109
(lp3110
tp3111
a(L3020204L
L0L
(lp3112
(lp3113
tp3114
a(L3391750594L
L0L
(lp3115
(lp3116
tp3117
a(L3020187L
L0L
(lp3118
(lp3119
tp3120
a(L106L
L0L
(lp3121
(lp3122
tp3123
a(L239610384L
L0L
(lp3124
(lp3125
tp3126
a(L831450820L
L0L
(lp3127
(lp3128
tp3129
a(L3340783449L
L0L
(lp3130
(lp3131
tp3132
atp3133
sI1074247100
(Vrtc_clk_apb_freq_get
p3134
(lp3135
(L1405698675L
L0L
(lp3136
(lp3137
tp3138
atp3139
sI1074247608
(Vrtc_clk_cal_ratio
p3140
(lp3141
(L450827956L
L3785322319L
(lp3142
(lp3143
Vrtc_clk_cal_internal
p3144
atp3145
atp3146
sI1074268360
(Vbootloader_common_vddsdio_configure
p3147
(lp3148
(L1829974089L
L3785322319L
(lp3149
(lp3150
Vrtc_vddsdio_get_config
p3151
atp3152
a(L1861601044L
L3785322319L
(lp3153
(lp3154
Vrtc_vddsdio_set_config
p3155
atp3156
a(L3360570486L
L0L
(lp3157
(lp3158
tp3159
atp3160
sI1074269896
(Vrtc_clk_xtal_freq_estimate
p3161
(lp3162
(L1823831978L
L1880226080L
(lp3163
(lp3164
Vrtc_clk_8m_enabled
p3165
aVrtc_clk_8md256_enabled
p3166
atp3167
a(L2449794434L
L3785322319L
(lp3168
(lp3169
Vrtc_clk_8m_enable
p3170
atp3171
a(L2568567204L
L3785322319L
(lp3172
(lp3173
Vrtc_clk_cal_ratio
p3174
atp3175
a(L3934977694L
L0L
(lp3176
(lp3177
tp3178
a(L3955289886L
L0L
(lp3179
(lp3180
tp3181
a(L655047802L
L3785322319L
(lp3182
(lp3183
Vesp_log_early_timestamp
p3184
atp3185
a(L2307427870L
L0L
(lp3186
(lp3187
tp3188
a(L1281346514L
L3785322319L
(lp3189
(lp3190
Vrtc_clk_8m_enable
p3191
atp3192
a(L3909119106L
L0L
(lp3193
(lp3194
tp3195
a(L2154705369L
L3785322319L
(lp3196
(lp3197
Vesp_log_early_timestamp
p3198
atp3199
a(L3304487880L
L0L
(lp3200
(lp3201
tp3202
a(L1641150486L
L0L
(lp3203
(lp3204
tp3205
a(L1045221861L
L3785322319L
(lp3206
(lp3207
Vesp_log_early_timestamp
p3208
atp3209
atp3210
sI1074238148
(Vbootloader_fill_random
p3211
(lp3212
(L387180576L
L0L
(lp3213
(lp3214
tp3215
a(L3718897L
L3785322319L
(lp3216
(lp3217
V__assert_func
p3218
atp3219
a(L1882547218L
L0L
(lp3220
(lp3221
tp3222
a(L2910371777L
L0L
(lp3223
(lp3224
tp3225
a(L95634693L
L0L
(lp3226
(lp3227
tp3228
a(L3630908706L
L0L
(lp3229
(lp3230
tp3231
a(L160162640L
L0L
(lp3232
(lp3233
tp3234
a(L97689L
L0L
(lp3235
(lp3236
tp3237
a(L3360570486L
L0L
(lp3238
(lp3239
tp3240
atp3241
sI1074270668
(Vrtc_vddsdio_set_config
p3242
(lp3243
(L403113052L
L0L
(lp3244
(lp3245
tp3246
atp3247
sI1074236864
(Vesp_dport_access_reg_read
p3248
(lp3249
(L1099794772L
L0L
(lp3250
(lp3251
tp3252
atp3253
sI1074244544
(Vmmu_hal_unmap_all
p3254
(lp3255
(L1381828061L
L0L
(lp3256
(lp3257
tp3258
a(L2010554219L
L0L
(lp3259
(lp3260
tp3261
a(L3360570486L
L0L
(lp3262
(lp3263
tp3264
atp3265
sI1074245824
(Vrtc_clk_slow_src_get
p3266
(lp3267
(L3966094304L
L0L
(lp3268
(lp3269
tp3270
a(L3020187L
L0L
(lp3271
(lp3272
tp3273
a(L2902417580L
L0L
(lp3274
(lp3275
tp3276
a(L2258688485L
L0L
(lp3277
(lp3278
tp3279
a(L3360570486L
L0L
(lp3280
(lp3281
tp3282
atp3283
sI1074240716
(Vbootloader_console_deinit
p3284
(lp3285
(L615143355L
L0L
(lp3286
(lp3287
tp3288
atp3289
sI1074236876
(Vis_xmc_chip_strict
p3290
(lp3291
(L1286841609L
L0L
(lp3292
(lp3293
tp3294
a(L2234016759L
L0L
(lp3295
(lp3296
tp3297
a(L1069027148L
L0L
(lp3298
(lp3299
tp3300
a(L3021749L
L0L
(lp3301
(lp3302
tp3303
a(L1900148749L
L0L
(lp3304
(lp3305
tp3306
a(L1936875721L
L0L
(lp3307
(lp3308
tp3309
a(L3356166509L
L0L
(lp3310
(lp3311
tp3312
a(L1937769451L
L0L
(lp3313
(lp3314
tp3315
a(L2137658907L
L0L
(lp3316
(lp3317
tp3318
a(L4265949734L
L0L
(lp3319
(lp3320
tp3321
a(L3360570486L
L0L
(lp3322
(lp3323
tp3324
atp3325
sI1074246092
(Vrtc_clk_cpu_freq_get_config
p3326
(lp3327
(L2604396143L
L0L
(lp3328
(lp3329
tp3330
a(L3020187L
L0L
(lp3331
(lp3332
tp3333
a(L3020187L
L0L
(lp3334
(lp3335
tp3336
a(L3279365017L
L3785322319L
(lp3337
(lp3338
Vrtc_clk_xtal_freq_get
p3339
atp3340
a(L3789795478L
L0L
(lp3341
(lp3342
tp3343
a(L1963290901L
L1880226080L
(lp3344
(lp3345
Vesp_log_early_timestamp
p3346
aVabort
p3347
atp3348
a(L2004095108L
L0L
(lp3349
(lp3350
tp3351
a(L3020187L
L0L
(lp3352
(lp3353
tp3354
a(L3028481L
L0L
(lp3355
(lp3356
tp3357
a(L38508693L
L0L
(lp3358
(lp3359
tp3360
a(L187152368L
L0L
(lp3361
(lp3362
tp3363
a(L1161083655L
L0L
(lp3364
(lp3365
tp3366
a(L1395485899L
L0L
(lp3367
(lp3368
tp3369
a(L2070600034L
L0L
(lp3370
(lp3371
tp3372
atp3373
sI1074241224
(Vverify_load_addresses
p3374
(lp3375
(L2764487219L
L0L
(lp3376
(lp3377
tp3378
a(L106L
L0L
(lp3379
(lp3380
tp3381
a(L97642L
L0L
(lp3382
(lp3383
tp3384
a(L647419855L
L3785322319L
(lp3385
(lp3386
V__assert_func
p3387
atp3388
a(L201043449L
L0L
(lp3389
(lp3390
tp3391
a(L106L
L0L
(lp3392
(lp3393
tp3394
a(L1895786824L
L0L
(lp3395
(lp3396
tp3397
a(L106L
L0L
(lp3398
(lp3399
tp3400
a(L3188534306L
L3785322319L
(lp3401
(lp3402
Vbootloader_util_regions_overlap
p3403
atp3404
a(L2858137167L
L3785322319L
(lp3405
(lp3406
Vbootloader_util_regions_overlap
p3407
atp3408
a(L3028481L
L0L
(lp3409
(lp3410
tp3411
a(L4197490978L
L3785322319L
(lp3412
(lp3413
Vbootloader_util_regions_overlap
p3414
atp3415
a(L4263116871L
L0L
(lp3416
(lp3417
tp3418
a(L524317765L
L0L
(lp3419
(lp3420
tp3421
a(L1032381749L
L0L
(lp3422
(lp3423
tp3424
a(L2837304413L
L0L
(lp3425
(lp3426
tp3427
a(L677569396L
L3785322319L
(lp3428
(lp3429
Vverify_load_addresses
p3430
atp3431
a(L1351513776L
L0L
(lp3432
(lp3433
tp3434
a(L956755582L
L0L
(lp3435
(lp3436
tp3437
a(L4269179826L
L0L
(lp3438
(lp3439
tp3440
a(L4254671302L
L0L
(lp3441
(lp3442
tp3443
a(L106L
L0L
(lp3444
(lp3445
tp3446
a(L791975622L
L0L
(lp3447
(lp3448
tp3449
a(L106L
L0L
(lp3450
(lp3451
tp3452
a(L3807273487L
L3785322319L
(lp3453
(lp3454
Vbootloader_util_regions_overlap
p3455
atp3456
a(L3028481L
L0L
(lp3457
(lp3458
tp3459
a(L838914198L
L3785322319L
(lp3460
(lp3461
Vbootloader_util_regions_overlap
p3462
atp3463
a(L4291728611L
L0L
(lp3464
(lp3465
tp3466
a(L108014158L
L0L
(lp3467
(lp3468
tp3469
a(L2764195728L
L0L
(lp3470
(lp3471
tp3472
a(L2743341656L
L0L
(lp3473
(lp3474
tp3475
a(L182882711L
L0L
(lp3476
(lp3477
tp3478
a(L3883470911L
L0L
(lp3479
(lp3480
tp3481
a(L297163306L
L0L
(lp3482
(lp3483
tp3484
a(L1900059593L
L0L
(lp3485
(lp3486
tp3487
a(L1086514145L
L0L
(lp3488
(lp3489
tp3490
a(L3742770635L
L0L
(lp3491
(lp3492
tp3493
a(L3929371936L
L0L
(lp3494
(lp3495
tp3496
a(L2805932787L
L0L
(lp3497
(lp3498
tp3499
a(L4072848040L
L0L
(lp3500
(lp3501
tp3502
a(L106L
L0L
(lp3503
(lp3504
tp3505
a(L955505162L
L0L
(lp3506
(lp3507
tp3508
a(L307917400L
L0L
(lp3509
(lp3510
tp3511
a(L3020204L
L0L
(lp3512
(lp3513
tp3514
a(L1932590102L
L3785322319L
(lp3515
(lp3516
Vesp_log_early_timestamp
p3517
atp3518
a(L1303560396L
L0L
(lp3519
(lp3520
tp3521
a(L955505038L
L0L
(lp3522
(lp3523
tp3524
a(L1303560427L
L0L
(lp3525
(lp3526
tp3527
atp3528
sI1074237652
(Vbootloader_munmap
p3529
(lp3530
(L1390725234L
L0L
(lp3531
(lp3532
tp3533
a(L1679328888L
L0L
(lp3534
(lp3535
tp3536
a(L3360570486L
L0L
(lp3537
(lp3538
tp3539
atp3540
sI1074240980
(Vprocess_image_header
p3541
(lp3542
(L1494855051L
L3785322319L
(lp3543
(lp3544
Vbootloader_flash_read
p3545
atp3546
a(L3020204L
L0L
(lp3547
(lp3548
tp3549
a(L4205021202L
L0L
(lp3550
(lp3551
tp3552
a(L321261932L
L0L
(lp3553
(lp3554
tp3555
a(L1161397362L
L3785322319L
(lp3556
(lp3557
Vbootloader_sha256_start
p3558
atp3559
a(L2062774299L
L3785322319L
(lp3560
(lp3561
Vbootloader_sha256_data
p3562
atp3563
a(L1291118193L
L0L
(lp3564
(lp3565
tp3566
a(L3028481L
L0L
(lp3567
(lp3568
tp3569
a(L2263003155L
L3785322319L
(lp3570
(lp3571
Vesp_log_early_timestamp
p3572
atp3573
a(L3200755424L
L0L
(lp3574
(lp3575
tp3576
a(L2983970029L
L0L
(lp3577
(lp3578
tp3579
a(L4235213884L
L3785322319L
(lp3580
(lp3581
Vbootloader_common_check_chip_validity
p3582
atp3583
a(L4144303915L
L0L
(lp3584
(lp3585
tp3586
a(L3028481L
L0L
(lp3587
(lp3588
tp3589
a(L961108534L
L3785322319L
(lp3590
(lp3591
Vesp_log_early_timestamp
p3592
atp3593
a(L2852701393L
L0L
(lp3594
(lp3595
tp3596
a(L2122516551L
L0L
(lp3597
(lp3598
tp3599
a(L3064492592L
L0L
(lp3600
(lp3601
tp3602
atp3603
sI1074245852
(Vrtc_clk_slow_freq_get_hz
p3604
(lp3605
(L1826267122L
L3785322319L
(lp3606
(lp3607
Vrtc_clk_slow_src_get
p3608
atp3609
a(L4183791619L
L0L
(lp3610
(lp3611
tp3612
a(L2598845553L
L0L
(lp3613
(lp3614
tp3615
a(L3360570486L
L0L
(lp3616
(lp3617
tp3618
atp3619
sI1074236636
(Vesp_rom_uart_set_clock_baudrate
p3620
(lp3621
(L2889646162L
L0L
(lp3622
(lp3623
tp3624
a(L2295279860L
L0L
(lp3625
(lp3626
tp3627
a(L2805931291L
L0L
(lp3628
(lp3629
tp3630
a(L2901979283L
L0L
(lp3631
(lp3632
tp3633
atp3634
sI1074235612
(Vbootloader_read_flash_id
p3635
(lp3636
(L549578328L
L3785322319L
(lp3637
(lp3638
Vbootloader_execute_flash_command
p3639
atp3640
atp3641
sI1074239708
(Vbootloader_utility_get_selected_boot_partition
p3642
(lp3643
(L2938832293L
L0L
(lp3644
(lp3645
tp3646
a(L857317950L
L0L
(lp3647
(lp3648
tp3649
a(L3363685120L
L3785322319L
(lp3650
(lp3651
Vesp_log_early_timestamp
p3652
atp3653
a(L194246498L
L0L
(lp3654
(lp3655
tp3656
a(L3360570486L
L0L
(lp3657
(lp3658
tp3659
a(L3118387733L
L3785322319L
(lp3660
(lp3661
Vbootloader_mmap
p3662
atp3663
a(L2911809525L
L3785322319L
(lp3664
(lp3665
Vesp_log_early_timestamp
p3666
atp3667
a(L3605572256L
L1880226080L
(lp3668
(lp3669
Vbootloader_munmap
p3670
aVbootloader_common_ota_select_invalid
p3671
atp3672
a(L2911028409L
L0L
(lp3673
(lp3674
tp3675
a(L726754926L
L3785322319L
(lp3676
(lp3677
Vbootloader_common_get_active_otadata
p3678
atp3679
a(L106L
L0L
(lp3680
(lp3681
tp3682
a(L4179097382L
L0L
(lp3683
(lp3684
tp3685
a(L788494392L
L3785322319L
(lp3686
(lp3687
Vbootloader_common_ota_select_invalid
p3688
atp3689
a(L464911337L
L0L
(lp3690
(lp3691
tp3692
a(L2679612405L
L3785322319L
(lp3693
(lp3694
Vesp_log_early_timestamp
p3695
atp3696
a(L3833270346L
L0L
(lp3697
(lp3698
tp3699
a(L1641201884L
L0L
(lp3700
(lp3701
tp3702
a(L2752910511L
L3785322319L
(lp3703
(lp3704
Vesp_log_early_timestamp
p3705
atp3706
a(L2302032704L
L0L
(lp3707
(lp3708
tp3709
a(L1173788779L
L3785322319L
(lp3710
(lp3711
Vbootloader_common_ota_select_crc
p3712
atp3713
a(L4188515782L
L0L
(lp3714
(lp3715
tp3716
a(L1324800084L
L3785322319L
(lp3717
(lp3718
Vbootloader_common_ota_select_crc
p3719
atp3720
a(L1299866312L
L0L
(lp3721
(lp3722
tp3723
a(L1224297230L
L0L
(lp3724
(lp3725
tp3726
a(L2234034556L
L3785322319L
(lp3727
(lp3728
Vesp_log_early_timestamp
p3729
atp3730
a(L692119096L
L3785322319L
(lp3731
(lp3732
Vesp_log_early_timestamp
p3733
atp3734
atp3735
sI1074240732
(V__assert_func
p3736
(lp3737
(L2202676295L
L0L
(lp3738
(lp3739
tp3740
a(L106L
L0L
(lp3741
(lp3742
tp3743
atp3744
sI1074244572
(Vefuse_hal_get_rated_freq_mhz
p3745
(lp3746
(L3060225221L
L0L
(lp3747
(lp3748
tp3749
a(L338960367L
L0L
(lp3750
(lp3751
tp3752
a(L3360570486L
L0L
(lp3753
(lp3754
tp3755
atp3756
sI1074247640
(Vrtc_clk_wait_for_slow_cycle
p3757
(lp3758
(L2807292704L
L0L
(lp3759
(lp3760
tp3761
a(L287687718L
L0L
(lp3762
(lp3763
tp3764
a(L3360570486L
L0L
(lp3765
(lp3766
tp3767
a(L2664777485L
L0L
(lp3768
(lp3769
tp3770
a(L1300789833L
L0L
(lp3771
(lp3772
tp3773
a(L1259765481L
L0L
(lp3774
(lp3775
tp3776
a(L682787097L
L0L
(lp3777
(lp3778
tp3779
a(L2560835419L
L3785322319L
(lp3780
(lp3781
Vesp_log_early_timestamp
p3782
atp3783
atp3784
sI1074237412
(Vspi_to_esp_err
p3785
(lp3786
(L3481169892L
L0L
(lp3787
(lp3788
tp3789
a(L2420870439L
L0L
(lp3790
(lp3791
tp3792
a(L3952441574L
L0L
(lp3793
(lp3794
tp3795
a(L3126521138L
L0L
(lp3796
(lp3797
tp3798
atp3799
sI1074238688
(Vcache_ll_l1_enable_bus
p3800
(lp3801
(L3215630455L
L0L
(lp3802
(lp3803
tp3804
atp3805
sI1074247904
(Vesp_rom_spiflash_wait_idle
p3806
(lp3807
(L3233076569L
L0L
(lp3808
(lp3809
tp3810
a(L2023766174L
L0L
(lp3811
(lp3812
tp3813
a(L2805934550L
L0L
(lp3814
(lp3815
tp3816
a(L3086959262L
L0L
(lp3817
(lp3818
tp3819
a(L4161019926L
L3785322319L
(lp3820
(lp3821
Vesp_rom_spiflash_read_status
p3822
atp3823
atp3824
sI1074269152
(Vbootloader_flash_update_id
p3825
(lp3826
(L1111819261L
L3785322319L
(lp3827
(lp3828
Vbootloader_read_flash_id
p3829
atp3830
atp3831
sI1074236392
(Vbootloader_flash_dummy_config
p3832
(lp3833
(L262000646L
L0L
(lp3834
(lp3835
tp3836
a(L2761717557L
L0L
(lp3837
(lp3838
tp3839
a(L1849044936L
L0L
(lp3840
(lp3841
tp3842
a(L708753936L
L0L
(lp3843
(lp3844
tp3845
a(L1010450057L
L0L
(lp3846
(lp3847
tp3848
a(L3020204L
L0L
(lp3849
(lp3850
tp3851
a(L1610443405L
L0L
(lp3852
(lp3853
tp3854
a(L4032120524L
L0L
(lp3855
(lp3856
tp3857
a(L2336993863L
L0L
(lp3858
(lp3859
tp3860
a(L1298875775L
L0L
(lp3861
(lp3862
tp3863
a(L3880393601L
L0L
(lp3864
(lp3865
tp3866
a(L3328946209L
L0L
(lp3867
(lp3868
tp3869
a(L1610443436L
L0L
(lp3870
(lp3871
tp3872
atp3873
sI1074247144
(Vrtc_clk_cal_internal
p3874
(lp3875
(L3193243479L
L0L
(lp3876
(lp3877
tp3878
a(L1394831245L
L3785322319L
(lp3879
(lp3880
V__assert_func
p3881
atp3882
a(L1752843054L
L0L
(lp3883
(lp3884
tp3885
a(L1673513644L
L0L
(lp3886
(lp3887
tp3888
a(L2530258212L
L3785322319L
(lp3889
(lp3890
Vrtc_clk_slow_src_get
p3891
atp3892
a(L3008910671L
L0L
(lp3893
(lp3894
tp3895
a(L97689L
L0L
(lp3896
(lp3897
tp3898
a(L1728789862L
L0L
(lp3899
(lp3900
tp3901
a(L3028464L
L0L
(lp3902
(lp3903
tp3904
a(L3028481L
L0L
(lp3905
(lp3906
tp3907
a(L3450258759L
L0L
(lp3908
(lp3909
tp3910
a(L1794477123L
L3785322319L
(lp3911
(lp3912
Vrtc_clk_xtal_freq_get
p3913
atp3914
a(L2780079961L
L0L
(lp3915
(lp3916
tp3917
a(L934905797L
L0L
(lp3918
(lp3919
tp3920
a(L3062650521L
L3785322319L
(lp3921
(lp3922
Vesp_log_early_timestamp
p3923
atp3924
a(L2258688482L
L0L
(lp3925
(lp3926
tp3927
a(L3360570486L
L0L
(lp3928
(lp3929
tp3930
a(L3553505594L
L0L
(lp3931
(lp3932
tp3933
a(L403361192L
L0L
(lp3934
(lp3935
tp3936
a(L3243404432L
L3785322319L
(lp3937
(lp3938
Vrtc_clk_8m_enable
p3939
atp3940
a(L2151698042L
L0L
(lp3941
(lp3942
tp3943
a(L569203943L
L0L
(lp3944
(lp3945
tp3946
a(L2910371777L
L0L
(lp3947
(lp3948
tp3949
a(L2902417580L
L0L
(lp3950
(lp3951
tp3952
a(L96677711L
L0L
(lp3953
(lp3954
tp3955
a(L3020204L
L0L
(lp3956
(lp3957
tp3958
a(L2722112789L
L0L
(lp3959
(lp3960
tp3961
a(L3429540926L
L0L
(lp3962
(lp3963
tp3964
a(L3028464L
L0L
(lp3965
(lp3966
tp3967
a(L3436351672L
L3785322319L
(lp3968
(lp3969
Vrtc_clk_8m_enable
p3970
atp3971
atp3972
sI1074268664
(Vbootloader_random_enable
p3973
(lp3974
(L2348780523L
L0L
(lp3975
(lp3976
tp3977
atp3978
sI1074239220
(Vset_actual_ota_seq
p3979
(lp3980
(L4094723830L
L0L
(lp3981
(lp3982
tp3983
a(L1430891504L
L0L
(lp3984
(lp3985
tp3986
a(L1983776888L
L1832448559L
(lp3987
(lp3988
Vbootloader_common_ota_select_crc
p3989
aVesp_flash_encryption_enabled
p3990
aVbootloader_flash_erase_sector
p3991
atp3992
a(L2768623893L
L3785322319L
(lp3993
(lp3994
Vbootloader_flash_write
p3995
atp3996
a(L382477689L
L3785322319L
(lp3997
(lp3998
Vesp_log_early_timestamp
p3999
atp4000
a(L3229381394L
L3785322319L
(lp4001
(lp4002
Vesp_log_early_timestamp
p4003
atp4004
a(L3360570486L
L0L
(lp4005
(lp4006
tp4007
atp4008
sI1074240756
(Vabort
p4009
(lp4010
(L1208920414L
L0L
(lp4011
(lp4012
tp4013
a(L409471316L
L0L
(lp4014
(lp4015
tp4016
a(L106L
L0L
(lp4017
(lp4018
tp4019
atp4020
sI1074268656
(Vbootloader_init_mem
p4021
(lp4022
(L1287383080L
L3785322319L
(lp4023
(lp4024
Vesp_cpu_configure_region_protection
p4025
atp4026
atp4027
sI1074269168
(Vbootloader_init_spi_flash
p4028
(lp4029
(L4161604356L
L2485746240L
(lp4030
(lp4031
Vbootloader_flash_gpio_config
p4032
aVbootloader_flash_dummy_config
p4033
aVbootloader_flash_cs_timing_config
p4034
aVbootloader_flash_unlock
p4035
atp4036
a(L579676381L
L0L
(lp4037
(lp4038
tp4039
a(L3566972032L
L0L
(lp4040
(lp4041
tp4042
a(L3201442055L
L0L
(lp4043
(lp4044
tp4045
a(L498638759L
L3785322319L
(lp4046
(lp4047
Vesp_log_early_timestamp
p4048
atp4049
a(L2091740620L
L0L
(lp4050
(lp4051
tp4052
a(L2095434704L
L0L
(lp4053
(lp4054
tp4055
a(L2135146107L
L0L
(lp4056
(lp4057
tp4058
a(L2120369275L
L0L
(lp4059
(lp4060
tp4061
a(L703426129L
L0L
(lp4062
(lp4063
tp4064
a(L3711868385L
L3785322319L
(lp4065
(lp4066
Vesp_log_early_timestamp
p4067
atp4068
a(L93674324L
L0L
(lp4069
(lp4070
tp4071
a(L2471937606L
L0L
(lp4072
(lp4073
tp4074
a(L3652859468L
L0L
(lp4075
(lp4076
tp4077
a(L460457925L
L0L
(lp4078
(lp4079
tp4080
a(L3660255913L
L0L
(lp4081
(lp4082
tp4083
a(L2893156605L
L3785322319L
(lp4084
(lp4085
Vesp_log_early_timestamp
p4086
atp4087
a(L93674324L
L0L
(lp4088
(lp4089
tp4090
a(L3422553167L
L0L
(lp4091
(lp4092
tp4093
a(L1707909459L
L0L
(lp4094
(lp4095
tp4096
a(L4101522284L
L0L
(lp4097
(lp4098
tp4099
a(L1080861552L
L3785322319L
(lp4100
(lp4101
Vbootloader_enable_wp
p4102
atp4103
a(L3907331784L
L0L
(lp4104
(lp4105
tp4106
atp4107
sI1074244344
(Vwdt_hal_write_protect_disable
p4108
(lp4109
(L3345031483L
L0L
(lp4110
(lp4111
tp4112
a(L4195472003L
L0L
(lp4113
(lp4114
tp4115
a(L3360570486L
L0L
(lp4116
(lp4117
tp4118
a(L1210571996L
L0L
(lp4119
(lp4120
tp4121
atp4122
sI1074241784
(Vshould_load
p4123
(lp4124
(L2802480198L
L0L
(lp4125
(lp4126
tp4127
a(L1182990556L
L0L
(lp4128
(lp4129
tp4130
a(L388737285L
L0L
(lp4131
(lp4132
tp4133
a(L2306467100L
L0L
(lp4134
(lp4135
tp4136
a(L524505062L
L0L
(lp4137
(lp4138
tp4139
a(L2258897019L
L0L
(lp4140
(lp4141
tp4142
a(L3781799363L
L0L
(lp4143
(lp4144
tp4145
a(L3028464L
L0L
(lp4146
(lp4147
tp4148
a(L2640712828L
L0L
(lp4149
(lp4150
tp4151
a(L4277114872L
L0L
(lp4152
(lp4153
tp4154
a(L2824381917L
L0L
(lp4155
(lp4156
tp4157
a(L1243412227L
L0L
(lp4158
(lp4159
tp4160
a(L2011157548L
L0L
(lp4161
(lp4162
tp4163
a(L3126521138L
L0L
(lp4164
(lp4165
tp4166
a(L1305407438L
L0L
(lp4167
(lp4168
tp4169
a(L1305407469L
L0L
(lp4170
(lp4171
tp4172
atp4173
sI1074245880
(Vrtc_clk_fast_src_set
p4174
(lp4175
(L1486516746L
L0L
(lp4176
(lp4177
tp4178
a(L3020187L
L0L
(lp4179
(lp4180
tp4181
a(L3827921190L
L3785322319L
(lp4182
(lp4183
Vabort
p4184
atp4185
a(L2904656757L
L0L
(lp4186
(lp4187
tp4188
a(L206212292L
L0L
(lp4189
(lp4190
tp4191
a(L300459962L
L0L
(lp4192
(lp4193
tp4194
atp4195
ssS'functionsdups'
p4196
g11
((lp4197
tp4198
Rp4199
sS'immediatedups'
p4200
g11
((lp4201
tp4202
Rp4203
sS'functiondups'
p4204
g11
((lp4205
tp4206
Rp4207
sS'fuzzy'
p4208
(dp4209
L1536L
I1074240732
sL438947497L
I1074245708
sL430153639L
I1074235924
sL3651759905L
I1074268416
sL3538491111L
I1074245852
sL16208487L
I1074234760
sL1053780185L
I1074247640
sL2680783959L
I1074235660
sL1385214606L
I1074241224
sL3709764864L
I1074242652
sL3512578114L
I1074238640
sL1419132215L
I1074238148
sL1420005888L
I1074236740
sL2469233929L
I1074240520
sL4024375675L
I1074246304
sL99291719L
I1074246416
sL1260046007L
I1074238740
sL3897252859L
I1074238556
sL3750957730L
I1074269168
sL1065525808L
I1074236876
sL2547957225L
I1074243148
sL1604071461L
I1074238856
sL2272466760L
I1074246092
sL2044047637L
I1074239340
sL1188065553L
I1074237704
sL1350409532L
I1074240980
sL94556391L
I1074245880
sL3210669721L
I1074244964
sL1332800441L
I1074237268
sL1797050832L
I1074241696
sL3190831358L
I1074239708
sL2828970830L
I1074239220
sL4160102055L
I1074240016
sL1768086576L
I1074236392
sL4171975289L
I1074248200
sL1565254297L
I1074248500
sL1205407754L
I1074240040
sL2191698036L
I1074269592
sL3764456758L
I1074244744
sL3567877105L
I1074235272
sL3616640713L
I1074240812
sL1635528231L
I1074244028
sL1060788199L
I1074246000
sL3378232636L
I1074247144
sL737694352L
I1074248008
sL503029138L
I1074247952
sL1616763831L
I1074248588
sL424867129L
I1074248336
sL3834155367L
I1074241168
sL2405032630L
I1074267676
sL1302843222L
I1074270072
sL149533852L
I1074237444
sL3883282432L
I1074241784
sL3110525840L
I1074241912
sL444519175L
I1074267784
sL1667054119L
I1074240372
sL1142841954L
I1074237036
sL206902443L
I1074237980
sL1070509616L
I1074245532
sL3408620885L
I1074269896
ssb.