ccopy_reg
_reconstructor
p0
(crizzo
RizzoSignature
p1
c__builtin__
object
p2
Ntp3
Rp4
(dp5
S'formal'
p6
(dp7
L3073145898L
I1074248392
sL2972557863L
I1074270100
sL1741170115L
I1074238136
sL3505757179L
I1074236756
sL3691688964L
I1074247532
sL3873375177L
I1074269924
sL2532409321L
I1074246168
sL1237733855L
I1074238932
sL1396834648L
I1074247700
sL2683518953L
I1074247796
sL4213015302L
I1074243496
sL779644773L
I1074241096
sL4207120861L
I1074248228
sL1371153316L
I1074268628
sL3597077880L
I1074236552
sL956556060L
I1074237588
sL3242679640L
I1074240404
sL2483835949L
I1074235936
sL1554186368L
I1074247036
sL3982985539L
I1074269728
sL545260967L
I1074237392
sL2420455533L
I1074269660
sL711787332L
I1074269796
sL928253055L
I1074268868
sL2936901665L
I1074237412
sL2702580795L
I1074237512
sL412821684L
I1074236796
sL98826705L
I1074247900
sL2897186972L
I1074240884
sL2896295319L
I1074236892
sL3284957946L
I1074267724
sL1039406786L
I1074270276
sL4248316673L
I1074269952
sL1674148343L
I1074245892
sL2710219957L
I1074246308
sL852924053L
I1074238324
sL2485902447L
I1074236732
sL2829752047L
I1074238732
sL80666504L
I1074248092
sL2972806524L
I1074235672
sL1757965957L
I1074248480
sL1598433544L
I1074245552
sL2571709190L
I1074239084
sL444818387L
I1074245364
sL174618170L
I1074243016
sL1132938192L
I1074238984
sL1585823442L
I1074244824
sL985434084L
I1074242148
sL1622896354L
I1074244852
sL1453011649L
I1074239980
sL1509716893L
I1074236864
sL3714689288L
I1074243528
sL985941158L
I1074237828
sL2189223198L
I1074240644
sL1735967003L
I1074244924
sL2869430636L
I1074247500
sL3977154411L
I1074270720
sL4048656439L
I1074239480
sL227907582L
I1074240716
sL2157292283L
I1074246124
sL885876642L
I1074236652
sL3904551637L
I1074268060
sL712004097L
I1074237064
sL3796064567L
I1074242276
sL3562592288L
I1074270052
sL1956542436L
I1074245144
sL637937789L
I1074245600
sL1056742531L
I1074236404
sL3079130887L
I1074242060
sL530851108L
I1074244972
sL426984944L
I1074236964
sL1949952954L
I1074238816
sL1885637095L
I1074267836
sL676927194L
I1074268860
sL3001905256L
I1074240736
sL3307282855L
I1074238296
sL3954831423L
I1074244408
sL3171430787L
I1074245744
sL17816706L
I1074237040
sL3121002891L
I1074245716
sL148750930L
I1074237428
sL1050504461L
I1074234728
sL1877120625L
I1074245576
sL3870456869L
I1074236996
sL1573392735L
I1074246196
sL4129683902L
I1074270872
sL1405366361L
I1074239616
sL2561507891L
I1074246992
sL4038945309L
I1074235624
sL3508768135L
I1074269356
sL518463041L
I1074235824
sL2737209228L
I1074234772
sL1125632954L
I1074241588
sL706082744L
I1074245008
sL2749301872L
I1074269372
sL180164621L
I1074235284
sL2997001746L
I1074237352
sL2457595594L
I1074245304
sL3009585623L
I1074237120
sL622532270L
I1074241344
sL2777552441L
I1074240380
sL2819127986L
I1074237084
sL359006682L
I1074270016
sL1877634603L
I1074270944
sL3128164016L
I1074247844
sL285470662L
I1074244756
sL2245260824L
I1074240280
sL101983704L
I1074237880
sL4163372517L
I1074236568
sL2824071325L
I1074241176
sL111045711L
I1074268572
sL2263182908L
I1074238316
sL3878797038L
I1074243796
sL3630163135L
I1074236880
sL2355043774L
I1074238404
sL2547128115L
I1074238156
sL936464688L
I1074237620
sL188664287L
I1074235252
sL4225037361L
I1074269684
sL692536993L
I1074237484
sL3828320200L
I1074241120
sL3199653468L
I1074245984
sL815653232L
I1074245852
sL3825772262L
I1074244724
sL1621098576L
I1074243512
sL2305533339L
I1074245772
sL3902393197L
I1074241080
sL2842228112L
I1074245836
sL4173412669L
I1074235572
sL763831419L
I1074241532
sL3230324342L
I1074245424
sL801329980L
I1074239032
ssS'immediates'
p8
(dp9
sS'formaldups'
p10
c__builtin__
set
p11
((lp12
tp13
Rp14
sS'stringdups'
p15
g11
((lp16
tp17
Rp18
sS'fuzzydups'
p19
g11
((lp20
tp21
Rp22
sS'strings'
p23
(dp24
sS'functions'
p25
(dp26
I1074245892
(Vrtc_clk_cpu_freq_mhz_to_config
p27
(lp28
(L908718885L
L3785322319L
(lp29
(lp30
Vrtc_clk_xtal_freq_get
p31
atp32
a(L60460069L
L0L
(lp33
(lp34
tp35
a(L3802072124L
L0L
(lp36
(lp37
tp38
a(L3159006042L
L0L
(lp39
(lp40
tp41
a(L3360570486L
L0L
(lp42
(lp43
tp44
a(L895147205L
L0L
(lp45
(lp46
tp47
a(L3970036657L
L0L
(lp48
(lp49
tp50
a(L2731353429L
L0L
(lp51
(lp52
tp53
a(L1555485793L
L0L
(lp54
(lp55
tp56
a(L2258897023L
L0L
(lp57
(lp58
tp59
a(L1947499251L
L0L
(lp60
(lp61
tp62
a(L1306331021L
L0L
(lp63
(lp64
tp65
atp66
sI1074238720
(Vbootloader_clock_get_rated_freq_mhz
p67
(lp68
(L376617603L
L3785322319L
(lp69
(lp70
Vefuse_hal_get_rated_freq_mhz
p71
atp72
atp73
sI1074267136
(V_init
p74
(lp75
(L3493042598L
L0L
(lp76
(lp77
tp78
atp79
sI1074269952
(Vbootloader_print_banner
p80
(lp81
(L2664228546L
L1832448559L
(lp82
(lp83
Vesp_log_early_timestamp
p84
aVesp_log_early_timestamp
p85
aVesp_log_early_timestamp
p86
atp87
atp88
sI1074270720
(Vrtc_vddsdio_get_config
p89
(lp90
(L1816791340L
L0L
(lp91
(lp92
tp93
a(L1750635626L
L0L
(lp94
(lp95
tp96
a(L3193418487L
L0L
(lp97
(lp98
tp99
a(L1456856705L
L0L
(lp100
(lp101
tp102
a(L115635292L
L0L
(lp103
(lp104
tp105
a(L896053863L
L0L
(lp106
(lp107
tp108
a(L1306330959L
L0L
(lp109
(lp110
tp111
a(L2332659952L
L0L
(lp112
(lp113
tp114
atp115
sI1074242060
(Vprocess_appended_hash_and_sig
p116
(lp117
(L1668084157L
L0L
(lp118
(lp119
tp120
a(L2910371777L
L0L
(lp121
(lp122
tp123
a(L4285188111L
L0L
(lp124
(lp125
tp126
a(L1151175705L
L0L
(lp127
(lp128
tp129
a(L97689L
L0L
(lp130
(lp131
tp132
a(L1035104412L
L3785322319L
(lp133
(lp134
Vesp_log_early_timestamp
p135
atp136
a(L3620624880L
L0L
(lp137
(lp138
tp139
a(L1464893571L
L3785322319L
(lp140
(lp141
Vbootloader_flash_read
p142
atp143
a(L735741265L
L0L
(lp144
(lp145
tp146
atp147
sI1074238732
(Vlog_invalid_app_partition
p148
(lp149
(L1072650950L
L0L
(lp150
(lp151
tp152
a(L3028464L
L0L
(lp153
(lp154
tp155
a(L345933564L
L3785322319L
(lp156
(lp157
Vesp_log_early_timestamp
p158
atp159
a(L3833270346L
L0L
(lp160
(lp161
tp162
a(L3360570486L
L0L
(lp163
(lp164
tp165
a(L1843989741L
L3785322319L
(lp166
(lp167
Vesp_log_early_timestamp
p168
atp169
a(L1868546202L
L3785322319L
(lp170
(lp171
Vesp_log_early_timestamp
p172
atp173
atp174
sI1074238984
(Vtry_load_partition
p175
(lp176
(L1263750142L
L0L
(lp177
(lp178
tp179
a(L2258688482L
L0L
(lp180
(lp181
tp182
a(L3360570486L
L0L
(lp183
(lp184
tp185
a(L530241438L
L3785322319L
(lp186
(lp187
Vbootloader_load_image
p188
atp189
a(L1342540504L
L3785322319L
(lp190
(lp191
Vesp_log_early_timestamp
p192
atp193
atp194
sI1074247700
(Vesp_rom_spiflash_read_status
p195
(lp196
(L862498644L
L0L
(lp197
(lp198
tp199
a(L884684782L
L0L
(lp200
(lp201
tp202
a(L4159619641L
L0L
(lp203
(lp204
tp205
a(L2392720019L
L0L
(lp206
(lp207
tp208
a(L2258688487L
L0L
(lp209
(lp210
tp211
a(L4159619145L
L0L
(lp212
(lp213
tp214
a(L3635138872L
L0L
(lp215
(lp216
tp217
a(L3117156279L
L0L
(lp218
(lp219
tp220
a(L2123059967L
L0L
(lp221
(lp222
tp223
a(L582177370L
L0L
(lp224
(lp225
tp226
atp227
sI1074249232
(V_fini
p228
(lp229
(L3493042598L
L0L
(lp230
(lp231
tp232
atp233
sI1074240280
(Vbootloader_utility_load_boot_image_from_deep_sleep
p234
(lp235
(L612772701L
L0L
(lp236
(lp237
tp238
a(L4117910119L
L3785322319L
(lp239
(lp240
Vbootloader_common_get_rtc_retain_mem_partition
p241
atp242
a(L807480887L
L3785322319L
(lp243
(lp244
Vbootloader_load_image_no_verify
p245
atp246
a(L3039084L
L1832448559L
(lp247
(lp248
Vesp_log_early_timestamp
p249
aVbootloader_common_update_rtc_retain_mem
p250
aVload_image
p251
atp252
a(L1157706412L
L1880226080L
(lp253
(lp254
Vesp_log_early_timestamp
p255
aVesp_log_early_timestamp
p256
atp257
a(L3360570486L
L0L
(lp258
(lp259
tp260
atp261
sI1074235672
(Vbootloader_flash_xmc_startup
p262
(lp263
(L2007527597L
L3785322319L
(lp264
(lp265
Vis_xmc_chip_strict
p266
atp267
a(L2258688482L
L0L
(lp268
(lp269
tp270
a(L3360570486L
L0L
(lp271
(lp272
tp273
a(L2860324232L
L3785322319L
(lp274
(lp275
Vbootloader_flash_read_sfdp
p276
atp277
a(L335762040L
L2567856111L
(lp278
(lp279
Vesp_log_early_timestamp
p280
aVbootloader_execute_flash_command
p281
aVbootloader_execute_flash_command
p282
aVbootloader_execute_flash_command
p283
aVbootloader_execute_flash_command
p284
aVbootloader_read_flash_id
p285
aVis_xmc_chip_strict
p286
atp287
a(L664983568L
L3785322319L
(lp288
(lp289
Vesp_log_early_timestamp
p290
atp291
atp292
sI1074245144
(Vrtc_clk_cpu_freq_to_pll_mhz
p293
(lp294
(L3231135830L
L0L
(lp295
(lp296
tp297
a(L2734618570L
L0L
(lp298
(lp299
tp300
a(L926026094L
L1880226080L
(lp301
(lp302
Vesp_rom_set_cpu_ticks_per_us
p303
aVrtc_clk_wait_for_slow_cycle
p304
atp305
a(L4245519021L
L0L
(lp306
(lp307
tp308
a(L3284807114L
L0L
(lp309
(lp310
tp311
a(L94425498L
L3785322319L
(lp312
(lp313
Vabort
p314
atp315
a(L2258897019L
L0L
(lp316
(lp317
tp318
a(L1113742378L
L0L
(lp319
(lp320
tp321
a(L1306330990L
L0L
(lp322
(lp323
tp324
atp325
sI1074246168
(Vrtc_clk_apb_freq_update
p326
(lp327
(L2405035400L
L0L
(lp328
(lp329
tp330
atp331
sI1074236964
(Vesp_log_early_timestamp
p332
(lp333
(L3733265409L
L0L
(lp334
(lp335
tp336
atp337
sI1074248228
(Vesp_rom_spiflash_write
p338
(lp339
(L2678236145L
L0L
(lp340
(lp341
tp342
a(L2258688483L
L0L
(lp343
(lp344
tp345
a(L3360570486L
L0L
(lp346
(lp347
tp348
a(L3368132847L
L0L
(lp349
(lp350
tp351
a(L3106685981L
L0L
(lp352
(lp353
tp354
a(L3488660639L
L3785322319L
(lp355
(lp356
Vesp_rom_spiflash_program_page_internal
p357
atp358
a(L3543402353L
L3785322319L
(lp359
(lp360
Vesp_rom_spiflash_program_page_internal
p361
atp362
a(L4222526342L
L0L
(lp363
(lp364
tp365
a(L2004208511L
L0L
(lp366
(lp367
tp368
a(L564470656L
L0L
(lp369
(lp370
tp371
a(L441922648L
L3785322319L
(lp372
(lp373
Vesp_rom_spiflash_program_page_internal
p374
atp375
a(L2302069176L
L0L
(lp376
(lp377
tp378
atp379
sI1074235936
(Vbootloader_flash_gpio_config
p380
(lp381
(L3362256192L
L3785322319L
(lp382
(lp383
Vbootloader_common_get_chip_ver_pkg
p384
atp385
a(L106L
L0L
(lp386
(lp387
tp388
a(L1998579353L
L0L
(lp389
(lp390
tp391
a(L106L
L0L
(lp392
(lp393
tp394
a(L1029428446L
L0L
(lp395
(lp396
tp397
a(L4242290324L
L0L
(lp398
(lp399
tp400
a(L106L
L0L
(lp401
(lp402
tp403
a(L4003626558L
L0L
(lp404
(lp405
tp406
a(L1553523094L
L0L
(lp407
(lp408
tp409
a(L3360570486L
L0L
(lp410
(lp411
tp412
atp413
sI1074248480
(Vesp_rom_spiflash_read
p414
(lp415
(L1261558011L
L0L
(lp416
(lp417
tp418
a(L340323457L
L0L
(lp419
(lp420
tp421
a(L2860271684L
L0L
(lp422
(lp423
tp424
a(L2355528925L
L0L
(lp425
(lp426
tp427
a(L106L
L0L
(lp428
(lp429
tp430
a(L633884026L
L0L
(lp431
(lp432
tp433
a(L106L
L0L
(lp434
(lp435
tp436
a(L265679927L
L0L
(lp437
(lp438
tp439
a(L1176778768L
L0L
(lp440
(lp441
tp442
a(L1544155185L
L0L
(lp443
(lp444
tp445
a(L336550648L
L0L
(lp446
(lp447
tp448
a(L2841008487L
L0L
(lp449
(lp450
tp451
a(L106L
L0L
(lp452
(lp453
tp454
a(L2596124413L
L3785322319L
(lp455
(lp456
Vesp_rom_spiflash_wait_idle
p457
atp458
a(L3021737L
L0L
(lp459
(lp460
tp461
a(L106L
L0L
(lp462
(lp463
tp464
a(L1868280504L
L0L
(lp465
(lp466
tp467
a(L106L
L0L
(lp468
(lp469
tp470
a(L750281353L
L0L
(lp471
(lp472
tp473
a(L3897437082L
L0L
(lp474
(lp475
tp476
a(L4122060822L
L0L
(lp477
(lp478
tp479
a(L3961861344L
L0L
(lp480
(lp481
tp482
a(L2989032L
L0L
(lp483
(lp484
tp485
a(L3819849625L
L0L
(lp486
(lp487
tp488
a(L3946497298L
L0L
(lp489
(lp490
tp491
a(L946755012L
L0L
(lp492
(lp493
tp494
a(L3901821490L
L0L
(lp495
(lp496
tp497
a(L2511525044L
L0L
(lp498
(lp499
tp500
a(L2921907736L
L0L
(lp501
(lp502
tp503
a(L4023125337L
L0L
(lp504
(lp505
tp506
a(L1693574212L
L0L
(lp507
(lp508
tp509
a(L1931165897L
L0L
(lp510
(lp511
tp512
a(L2189982627L
L0L
(lp513
(lp514
tp515
a(L3333707777L
L0L
(lp516
(lp517
tp518
a(L3251955268L
L0L
(lp519
(lp520
tp521
a(L3418540920L
L0L
(lp522
(lp523
tp524
a(L284069505L
L0L
(lp525
(lp526
tp527
a(L97689L
L0L
(lp528
(lp529
tp530
a(L2258897019L
L0L
(lp531
(lp532
tp533
a(L4014024819L
L0L
(lp534
(lp535
tp536
a(L3621567083L
L0L
(lp537
(lp538
tp539
atp540
sI1074269728
(Vbootloader_check_bootloader_validity
p541
(lp542
(L2960652984L
L1832448559L
(lp543
(lp544
Vefuse_hal_chip_revision
p545
aVesp_log_early_timestamp
p546
aVbootloader_common_check_chip_validity
p547
atp548
atp549
sI1074237484
(Vbootloader_common_ota_select_invalid
p550
(lp551
(L4027567199L
L0L
(lp552
(lp553
tp554
a(L3397985842L
L0L
(lp555
(lp556
tp557
a(L2258867228L
L0L
(lp558
(lp559
tp560
a(L3785235668L
L0L
(lp561
(lp562
tp563
atp564
sI1074241588
(Vverify_load_addresses
p565
(lp566
(L2764487219L
L0L
(lp567
(lp568
tp569
a(L106L
L0L
(lp570
(lp571
tp572
a(L97642L
L0L
(lp573
(lp574
tp575
a(L3399765916L
L3785322319L
(lp576
(lp577
V__assert_func
p578
atp579
a(L2763890188L
L0L
(lp580
(lp581
tp582
a(L106L
L0L
(lp583
(lp584
tp585
a(L2610123556L
L0L
(lp586
(lp587
tp588
a(L106L
L0L
(lp589
(lp590
tp591
a(L941587539L
L3785322319L
(lp592
(lp593
Vbootloader_util_regions_overlap
p594
atp595
a(L3192912214L
L3785322319L
(lp596
(lp597
Vbootloader_util_regions_overlap
p598
atp599
a(L3028481L
L0L
(lp600
(lp601
tp602
a(L375482128L
L3785322319L
(lp603
(lp604
Vbootloader_util_regions_overlap
p605
atp606
a(L2246996756L
L0L
(lp607
(lp608
tp609
a(L1991843479L
L0L
(lp610
(lp611
tp612
a(L1032381749L
L0L
(lp613
(lp614
tp615
a(L2837304413L
L0L
(lp616
(lp617
tp618
a(L677569396L
L3785322319L
(lp619
(lp620
Vverify_load_addresses
p621
atp622
a(L1351513776L
L0L
(lp623
(lp624
tp625
a(L956755582L
L0L
(lp626
(lp627
tp628
a(L1974428735L
L0L
(lp629
(lp630
tp631
a(L1668576129L
L0L
(lp632
(lp633
tp634
a(L106L
L0L
(lp635
(lp636
tp637
a(L369176762L
L0L
(lp638
(lp639
tp640
a(L106L
L0L
(lp641
(lp642
tp643
a(L2372651414L
L3785322319L
(lp644
(lp645
Vbootloader_util_regions_overlap
p646
atp647
a(L3028481L
L0L
(lp648
(lp649
tp650
a(L2596299966L
L3785322319L
(lp651
(lp652
Vbootloader_util_regions_overlap
p653
atp654
a(L2711946619L
L0L
(lp655
(lp656
tp657
a(L3124973756L
L0L
(lp658
(lp659
tp660
a(L2915101410L
L0L
(lp661
(lp662
tp663
a(L2743341656L
L0L
(lp664
(lp665
tp666
a(L182882711L
L0L
(lp667
(lp668
tp669
a(L2195938843L
L0L
(lp670
(lp671
tp672
a(L297163306L
L0L
(lp673
(lp674
tp675
a(L1900059593L
L0L
(lp676
(lp677
tp678
a(L755855436L
L0L
(lp679
(lp680
tp681
a(L3796334853L
L0L
(lp682
(lp683
tp684
a(L3929371936L
L0L
(lp685
(lp686
tp687
a(L2805932845L
L0L
(lp688
(lp689
tp690
a(L4072848040L
L0L
(lp691
(lp692
tp693
a(L106L
L0L
(lp694
(lp695
tp696
a(L955483896L
L0L
(lp697
(lp698
tp699
a(L307916738L
L0L
(lp700
(lp701
tp702
a(L3020204L
L0L
(lp703
(lp704
tp705
a(L2103814070L
L3785322319L
(lp706
(lp707
Vesp_log_early_timestamp
p708
atp709
a(L1303560396L
L0L
(lp710
(lp711
tp712
a(L955483772L
L0L
(lp713
(lp714
tp715
a(L1303560427L
L0L
(lp716
(lp717
tp718
atp719
sI1074246196
(Vrtc_clk_cpu_freq_to_xtal
p720
(lp721
(L767415990L
L3785322319L
(lp722
(lp723
Vesp_rom_set_cpu_ticks_per_us
p724
atp725
a(L94425498L
L3785322319L
(lp726
(lp727
Vabort
p728
atp729
a(L3338618120L
L3785322319L
(lp730
(lp731
Vrtc_clk_apb_freq_update
p732
atp733
a(L2258867230L
L0L
(lp734
(lp735
tp736
a(L4236068658L
L0L
(lp737
(lp738
tp739
atp740
sI1074245424
(Vrtc_clk_8m_enable
p741
(lp742
(L1883140182L
L0L
(lp743
(lp744
tp745
a(L241707615L
L0L
(lp746
(lp747
tp748
a(L2151320156L
L0L
(lp749
(lp750
tp751
a(L711175840L
L0L
(lp752
(lp753
tp754
a(L3360570486L
L0L
(lp755
(lp756
tp757
a(L1318267208L
L0L
(lp758
(lp759
tp760
a(L3966332818L
L0L
(lp761
(lp762
tp763
atp764
sI1074236732
(Vefuse_hal_chip_revision
p765
(lp766
(L2719302832L
L1880226080L
(lp767
(lp768
Vefuse_hal_get_major_chip_version
p769
aVefuse_hal_get_minor_chip_version
p770
atp771
atp772
sI1074244924
(Vmmu_hal_unmap_all
p773
(lp774
(L3722358291L
L0L
(lp775
(lp776
tp777
a(L2010554219L
L0L
(lp778
(lp779
tp780
a(L3268103L
L0L
(lp781
(lp782
tp783
a(L3212334523L
L0L
(lp784
(lp785
tp786
a(L2010554219L
L0L
(lp787
(lp788
tp789
a(L3360570486L
L0L
(lp790
(lp791
tp792
atp793
sI1074244408
(Vwdt_hal_config_stage
p794
(lp795
(L331558507L
L0L
(lp796
(lp797
tp798
a(L4279082939L
L0L
(lp799
(lp800
tp801
a(L93674324L
L0L
(lp802
(lp803
tp804
a(L2902417580L
L0L
(lp805
(lp806
tp807
a(L3753404285L
L0L
(lp808
(lp809
tp810
a(L3020187L
L0L
(lp811
(lp812
tp813
a(L94425498L
L3785322319L
(lp814
(lp815
Vabort
p816
atp817
a(L3440331299L
L0L
(lp818
(lp819
tp820
a(L3360570486L
L0L
(lp821
(lp822
tp823
a(L3814006714L
L0L
(lp824
(lp825
tp826
a(L3874610352L
L0L
(lp827
(lp828
tp829
a(L4278159418L
L0L
(lp830
(lp831
tp832
a(L93674324L
L0L
(lp833
(lp834
tp835
a(L3020204L
L0L
(lp836
(lp837
tp838
a(L3842451369L
L0L
(lp839
(lp840
tp841
a(L3020187L
L0L
(lp842
(lp843
tp844
a(L106L
L0L
(lp845
(lp846
tp847
a(L1854803910L
L0L
(lp848
(lp849
tp850
a(L2648658347L
L0L
(lp851
(lp852
tp853
a(L4242184999L
L0L
(lp854
(lp855
tp856
atp857
sI1074241080
(Vbootloader_console_deinit
p858
(lp859
(L777638133L
L0L
(lp860
(lp861
tp862
atp863
sI1074239032
(Vcache_ll_l1_enable_bus
p864
(lp865
(L902531686L
L0L
(lp866
(lp867
tp868
atp869
sI1074236996
(Vis_retain_mem_valid
p870
(lp871
(L2257480021L
L0L
(lp872
(lp873
tp874
atp875
sI1074267724
(Vcall_start_cpu0
p876
(lp877
(L1137852827L
L0L
(lp878
(lp879
tp880
a(L549459388L
L0L
(lp881
(lp882
tp883
a(L3212347974L
L3785322319L
(lp884
(lp885
Vbootloader_init
p886
atp887
a(L94425498L
L3785322319L
(lp888
(lp889
Vbootloader_reset
p890
atp891
a(L1122046408L
L0L
(lp892
(lp893
tp894
a(L4099474112L
L0L
(lp895
(lp896
tp897
a(L4004585570L
L1880226080L
(lp898
(lp899
Vbootloader_utility_load_boot_image_from_deep_sleep
p900
aVbootloader_utility_load_partition_table
p901
atp902
a(L2761094216L
L3785322319L
(lp903
(lp904
Vesp_log_early_timestamp
p905
atp906
a(L736289835L
L3785322319L
(lp907
(lp908
Vbootloader_utility_get_selected_boot_partition
p909
atp910
a(L344825785L
L3785322319L
(lp911
(lp912
Vbootloader_utility_load_boot_image
p913
atp914
atp915
sI1074241344
(Vprocess_image_header
p916
(lp917
(L4084920688L
L3785322319L
(lp918
(lp919
Vbootloader_flash_read
p920
atp921
a(L3020204L
L0L
(lp922
(lp923
tp924
a(L4205021202L
L0L
(lp925
(lp926
tp927
a(L321261932L
L0L
(lp928
(lp929
tp930
a(L1161397362L
L3785322319L
(lp931
(lp932
Vbootloader_sha256_start
p933
atp934
a(L2062774299L
L3785322319L
(lp935
(lp936
Vbootloader_sha256_data
p937
atp938
a(L1291118193L
L0L
(lp939
(lp940
tp941
a(L3028481L
L0L
(lp942
(lp943
tp944
a(L4183465114L
L3785322319L
(lp945
(lp946
Vesp_log_early_timestamp
p947
atp948
a(L3200755482L
L0L
(lp949
(lp950
tp951
a(L2983970029L
L0L
(lp952
(lp953
tp954
a(L4235213884L
L3785322319L
(lp955
(lp956
Vbootloader_common_check_chip_validity
p957
atp958
a(L4144303915L
L0L
(lp959
(lp960
tp961
a(L3028481L
L0L
(lp962
(lp963
tp964
a(L966009679L
L3785322319L
(lp965
(lp966
Vesp_log_early_timestamp
p967
atp968
a(L2852701393L
L0L
(lp969
(lp970
tp971
a(L2122516551L
L0L
(lp972
(lp973
tp974
a(L3064492592L
L0L
(lp975
(lp976
tp977
atp978
sI1074270016
(Vbootloader_console_init
p979
(lp980
(L2486688275L
L1832448559L
(lp981
(lp982
Vesp_rom_uart_tx_wait_idle
p983
aVrtc_clk_apb_freq_get
p984
aVesp_rom_uart_set_clock_baudrate
p985
atp986
atp987
sI1074247500
(Vrtc_clk_cal_ratio
p988
(lp989
(L3804274343L
L3785322319L
(lp990
(lp991
Vrtc_clk_cal_internal
p992
atp993
atp994
sI1074270276
(Vrtc_clk_init
p995
(lp996
(L2294715062L
L0L
(lp997
(lp998
tp999
a(L42671777L
L3785322319L
(lp1000
(lp1001
Vrtc_clk_cpu_freq_to_xtal
p1002
atp1003
a(L221492645L
L3785322319L
(lp1004
(lp1005
Vrtc_clk_xtal_freq_get
p1006
atp1007
a(L3028481L
L0L
(lp1008
(lp1009
tp1010
a(L4284274517L
L3785322319L
(lp1011
(lp1012
Vrtc_clk_xtal_freq_estimate
p1013
atp1014
a(L2705677258L
L3785322319L
(lp1015
(lp1016
Vesp_log_early_timestamp
p1017
atp1018
a(L633981439L
L1157885199L
(lp1019
(lp1020
Vesp_rom_uart_tx_wait_idle
p1021
aVrtc_clk_xtal_freq_update
p1022
aVrtc_clk_apb_freq_update
p1023
aVrtc_clk_cpu_freq_get_config
p1024
aVrtc_clk_cpu_freq_mhz_to_config
p1025
atp1026
a(L48371412L
L1880226080L
(lp1027
(lp1028
Vesp_log_early_timestamp
p1029
aVabort
p1030
atp1031
a(L2902417580L
L0L
(lp1032
(lp1033
tp1034
a(L1899970065L
L0L
(lp1035
(lp1036
tp1037
a(L377687546L
L3785322319L
(lp1038
(lp1039
Vrtc_clk_xtal_freq_estimate
p1040
atp1041
a(L2146549143L
L3785322319L
(lp1042
(lp1043
Vesp_log_early_timestamp
p1044
atp1045
a(L4134099358L
L3785322319L
(lp1046
(lp1047
Vrtc_clk_cpu_freq_set_config
p1048
atp1049
a(L912310138L
L3785322319L
(lp1050
(lp1051
Vrtc_clk_32k_enable
p1052
atp1053
a(L3191820416L
L1832448559L
(lp1054
(lp1055
Vrtc_clk_8m_enable
p1056
aVrtc_clk_fast_src_set
p1057
aVrtc_clk_slow_src_set
p1058
atp1059
a(L1232958848L
L0L
(lp1060
(lp1061
tp1062
atp1063
sI1074241096
(V__assert_func
p1064
(lp1065
(L2983076609L
L0L
(lp1066
(lp1067
tp1068
a(L106L
L0L
(lp1069
(lp1070
tp1071
atp1072
sI1074237512
(Vbootloader_common_select_otadata
p1073
(lp1074
(L4071767857L
L0L
(lp1075
(lp1076
tp1077
a(L1999329187L
L0L
(lp1078
(lp1079
tp1080
a(L3846398843L
L0L
(lp1081
(lp1082
tp1083
a(L2501968171L
L0L
(lp1084
(lp1085
tp1086
a(L3360570486L
L0L
(lp1087
(lp1088
tp1089
a(L2045232488L
L0L
(lp1090
(lp1091
tp1092
a(L1243525916L
L0L
(lp1093
(lp1094
tp1095
a(L3094144427L
L0L
(lp1096
(lp1097
tp1098
a(L2399509845L
L0L
(lp1099
(lp1100
tp1101
a(L1641201884L
L0L
(lp1102
(lp1103
tp1104
atp1105
sI1074236756
(Vefuse_hal_flash_encryption_enabled
p1106
(lp1107
(L2932383536L
L0L
(lp1108
(lp1109
tp1110
a(L2910371777L
L0L
(lp1111
(lp1112
tp1113
a(L3360570486L
L0L
(lp1114
(lp1115
tp1116
a(L3016870L
L0L
(lp1117
(lp1118
tp1119
a(L3745038218L
L0L
(lp1120
(lp1121
tp1122
a(L957607403L
L0L
(lp1123
(lp1124
tp1125
atp1126
sI1074245716
(Vrtc_clk_slow_src_get
p1127
(lp1128
(L4179445734L
L0L
(lp1129
(lp1130
tp1131
a(L3020187L
L0L
(lp1132
(lp1133
tp1134
a(L2902417580L
L0L
(lp1135
(lp1136
tp1137
a(L2258688485L
L0L
(lp1138
(lp1139
tp1140
a(L3360570486L
L0L
(lp1141
(lp1142
tp1143
atp1144
sI1074246992
(Vrtc_clk_apb_freq_get
p1145
(lp1146
(L2858695958L
L0L
(lp1147
(lp1148
tp1149
atp1150
sI1074238296
(Vbootloader_enable_wp
p1151
(lp1152
(L1117825804L
L3785322319L
(lp1153
(lp1154
Vbootloader_execute_flash_command
p1155
atp1156
atp1157
sI1074242148
(Vshould_load
p1158
(lp1159
(L603303431L
L0L
(lp1160
(lp1161
tp1162
a(L1182990556L
L0L
(lp1163
(lp1164
tp1165
a(L3445575825L
L0L
(lp1166
(lp1167
tp1168
a(L2306467100L
L0L
(lp1169
(lp1170
tp1171
a(L524505062L
L0L
(lp1172
(lp1173
tp1174
a(L2258897019L
L0L
(lp1175
(lp1176
tp1177
a(L3781799363L
L0L
(lp1178
(lp1179
tp1180
a(L3028464L
L0L
(lp1181
(lp1182
tp1183
a(L1636999707L
L0L
(lp1184
(lp1185
tp1186
a(L4277114872L
L0L
(lp1187
(lp1188
tp1189
a(L2824381917L
L0L
(lp1190
(lp1191
tp1192
a(L1243412227L
L0L
(lp1193
(lp1194
tp1195
a(L2011157548L
L0L
(lp1196
(lp1197
tp1198
a(L3126521138L
L0L
(lp1199
(lp1200
tp1201
a(L1305407438L
L0L
(lp1202
(lp1203
tp1204
a(L1305407469L
L0L
(lp1205
(lp1206
tp1207
atp1208
sI1074241120
(Vabort
p1209
(lp1210
(L1089406431L
L0L
(lp1211
(lp1212
tp1213
a(L409471316L
L0L
(lp1214
(lp1215
tp1216
a(L106L
L0L
(lp1217
(lp1218
tp1219
atp1220
sI1074238816
(Vcache_ll_l1_get_bus
p1221
(lp1222
(L3827411420L
L0L
(lp1223
(lp1224
tp1225
a(L94425498L
L3785322319L
(lp1226
(lp1227
Vabort
p1228
atp1229
a(L3222493499L
L0L
(lp1230
(lp1231
tp1232
a(L3745820423L
L0L
(lp1233
(lp1234
tp1235
a(L892952750L
L0L
(lp1236
(lp1237
tp1238
a(L1182811810L
L0L
(lp1239
(lp1240
tp1241
a(L1101742417L
L0L
(lp1242
(lp1243
tp1244
a(L1100767927L
L0L
(lp1245
(lp1246
tp1247
a(L3360570486L
L0L
(lp1248
(lp1249
tp1250
a(L2752335631L
L0L
(lp1251
(lp1252
tp1253
a(L2882938163L
L0L
(lp1254
(lp1255
tp1256
a(L2927201858L
L0L
(lp1257
(lp1258
tp1259
a(L2258718273L
L0L
(lp1260
(lp1261
tp1262
a(L2580713941L
L0L
(lp1263
(lp1264
tp1265
a(L2756029715L
L0L
(lp1266
(lp1267
tp1268
a(L2795746388L
L0L
(lp1269
(lp1270
tp1271
a(L1641149277L
L0L
(lp1272
(lp1273
tp1274
a(L3232646960L
L0L
(lp1275
(lp1276
tp1277
a(L3027019L
L0L
(lp1278
(lp1279
tp1280
a(L1299866560L
L0L
(lp1281
(lp1282
tp1283
a(L1299866436L
L0L
(lp1284
(lp1285
tp1286
atp1287
sI1074245984
(Vrtc_clk_cpu_freq_get_config
p1288
(lp1289
(L4052661237L
L0L
(lp1290
(lp1291
tp1292
a(L3020187L
L0L
(lp1293
(lp1294
tp1295
a(L3020187L
L0L
(lp1296
(lp1297
tp1298
a(L3602299468L
L3785322319L
(lp1299
(lp1300
Vrtc_clk_xtal_freq_get
p1301
atp1302
a(L3789795478L
L0L
(lp1303
(lp1304
tp1305
a(L705018805L
L1880226080L
(lp1306
(lp1307
Vesp_log_early_timestamp
p1308
aVabort
p1309
atp1310
a(L3297739326L
L0L
(lp1311
(lp1312
tp1313
a(L3020187L
L0L
(lp1314
(lp1315
tp1316
a(L3028481L
L0L
(lp1317
(lp1318
tp1319
a(L38508693L
L0L
(lp1320
(lp1321
tp1322
a(L187152368L
L0L
(lp1323
(lp1324
tp1325
a(L1161083655L
L0L
(lp1326
(lp1327
tp1328
a(L1395485899L
L0L
(lp1329
(lp1330
tp1331
a(L2070600034L
L0L
(lp1332
(lp1333
tp1334
atp1335
sI1074239084
(Vload_image
p1336
(lp1337
(L3088803964L
L1832448559L
(lp1338
(lp1339
Vesp_log_early_timestamp
p1340
aVbootloader_random_disable
p1341
aVbootloader_ana_clock_glitch_reset_config
p1342
atp1343
a(L2261049225L
L0L
(lp1344
(lp1345
tp1346
a(L106L
L0L
(lp1347
(lp1348
tp1349
a(L2360910321L
L3758435744L
(lp1350
(lp1351
Vmmu_hal_unmap_all
p1352
aVcache_ll_l1_get_bus
p1353
aVcache_ll_l1_enable_bus
p1354
aVcache_ll_l1_get_bus
p1355
aVcache_ll_l1_enable_bus
p1356
aVcache_ll_l1_get_bus
p1357
aVcache_ll_l1_enable_bus
p1358
aVcache_ll_l1_get_bus
p1359
aVcache_ll_l1_enable_bus
p1360
aVbootloader_console_deinit
p1361
atp1362
a(L3219301124L
L0L
(lp1363
(lp1364
tp1365
a(L2902417580L
L0L
(lp1366
(lp1367
tp1368
a(L2036517902L
L3785322319L
(lp1369
(lp1370
Vesp_log_early_timestamp
p1371
atp1372
a(L2552261596L
L0L
(lp1373
(lp1374
tp1375
a(L309110312L
L0L
(lp1376
(lp1377
tp1378
a(L3020204L
L0L
(lp1379
(lp1380
tp1381
a(L3204714157L
L3785322319L
(lp1382
(lp1383
Vesp_log_early_timestamp
p1384
atp1385
a(L3291469664L
L0L
(lp1386
(lp1387
tp1388
a(L2591655545L
L0L
(lp1389
(lp1390
tp1391
atp1392
sI1074238316
(Vbootloader_mmap_get_free_pages
p1393
(lp1394
(L1496516875L
L0L
(lp1395
(lp1396
tp1397
atp1398
sI1074244972
(Vefuse_hal_get_rated_freq_mhz
p1399
(lp1400
(L3060225221L
L0L
(lp1401
(lp1402
tp1403
a(L338960367L
L0L
(lp1404
(lp1405
tp1406
a(L3360570486L
L0L
(lp1407
(lp1408
tp1409
atp1410
sI1074247532
(Vrtc_clk_wait_for_slow_cycle
p1411
(lp1412
(L3923936062L
L0L
(lp1413
(lp1414
tp1415
a(L287687718L
L0L
(lp1416
(lp1417
tp1418
a(L3360570486L
L0L
(lp1419
(lp1420
tp1421
a(L2664777485L
L0L
(lp1422
(lp1423
tp1424
a(L1300789833L
L0L
(lp1425
(lp1426
tp1427
a(L1259765481L
L0L
(lp1428
(lp1429
tp1430
a(L2740785823L
L0L
(lp1431
(lp1432
tp1433
a(L2641696258L
L3785322319L
(lp1434
(lp1435
Vesp_log_early_timestamp
p1436
atp1437
atp1438
sI1074269796
(Vbootloader_config_wdt
p1439
(lp1440
(L3738756377L
L505859776L
(lp1441
(lp1442
Vwdt_hal_write_protect_disable
p1443
aVwdt_hal_set_flashboot_en
p1444
aVwdt_hal_write_protect_enable
p1445
aVwdt_hal_init
p1446
aVrtc_clk_slow_freq_get_hz
p1447
aVwdt_hal_write_protect_disable
p1448
aVwdt_hal_config_stage
p1449
aVwdt_hal_enable
p1450
aVwdt_hal_write_protect_enable
p1451
aVwdt_hal_write_protect_disable
p1452
aVwdt_hal_set_flashboot_en
p1453
aVwdt_hal_write_protect_enable
p1454
atp1455
atp1456
sI1074270052
(Vesp_cpu_configure_region_protection
p1457
(lp1458
(L1698042428L
L0L
(lp1459
(lp1460
tp1461
a(L180431425L
L3785322319L
(lp1462
(lp1463
Vmpu_hal_set_region_access
p1464
atp1465
a(L2537388152L
L3785322319L
(lp1466
(lp1467
Vmpu_hal_set_region_access
p1468
atp1469
atp1470
sI1074234728
(Vbootloader_common_get_chip_ver_pkg
p1471
(lp1472
(L994406025L
L0L
(lp1473
(lp1474
tp1475
atp1476
sI1074244724
(Vwdt_hal_write_protect_disable
p1477
(lp1478
(L3772684810L
L0L
(lp1479
(lp1480
tp1481
a(L4195472003L
L0L
(lp1482
(lp1483
tp1484
a(L3360570486L
L0L
(lp1485
(lp1486
tp1487
a(L1210571996L
L0L
(lp1488
(lp1489
tp1490
atp1491
sI1074240884
(Vbootloader_sha256_finish
p1492
(lp1493
(L4066096136L
L0L
(lp1494
(lp1495
tp1496
a(L840115176L
L0L
(lp1497
(lp1498
tp1499
a(L591145840L
L3785322319L
(lp1500
(lp1501
V__assert_func
p1502
atp1503
a(L3020204L
L0L
(lp1504
(lp1505
tp1506
a(L3478420729L
L0L
(lp1507
(lp1508
tp1509
a(L2534656226L
L0L
(lp1510
(lp1511
tp1512
a(L18240658L
L3785322319L
(lp1513
(lp1514
Vbootloader_sha256_data
p1515
atp1516
a(L699336714L
L0L
(lp1517
(lp1518
tp1519
a(L3666528998L
L3785322319L
(lp1520
(lp1521
Vbootloader_sha256_data
p1522
atp1523
a(L473014360L
L0L
(lp1524
(lp1525
tp1526
a(L657425439L
L0L
(lp1527
(lp1528
tp1529
a(L4242965061L
L0L
(lp1530
(lp1531
tp1532
a(L657425439L
L0L
(lp1533
(lp1534
tp1535
a(L4237898673L
L0L
(lp1536
(lp1537
tp1538
a(L2718449270L
L0L
(lp1539
(lp1540
tp1541
a(L3347778L
L0L
(lp1542
(lp1543
tp1544
a(L3360570486L
L0L
(lp1545
(lp1546
tp1547
atp1548
sI1074238324
(Vbootloader_fill_random
p1549
(lp1550
(L1799492288L
L0L
(lp1551
(lp1552
tp1553
a(L1413409547L
L3785322319L
(lp1554
(lp1555
V__assert_func
p1556
atp1557
a(L1882547218L
L0L
(lp1558
(lp1559
tp1560
a(L2910371777L
L0L
(lp1561
(lp1562
tp1563
a(L95634693L
L0L
(lp1564
(lp1565
tp1566
a(L3630908706L
L0L
(lp1567
(lp1568
tp1569
a(L160162640L
L0L
(lp1570
(lp1571
tp1572
a(L97689L
L0L
(lp1573
(lp1574
tp1575
a(L3360570486L
L0L
(lp1576
(lp1577
tp1578
atp1579
sI1074235252
(Vbootloader_execute_flash_command
p1580
(lp1581
(L2481595632L
L3785322319L
(lp1582
(lp1583
Vbootloader_flash_execute_command_common
p1584
atp1585
atp1586
sI1074247796
(Vesp_rom_spiflash_wait_idle
p1587
(lp1588
(L3233076620L
L0L
(lp1589
(lp1590
tp1591
a(L2023766174L
L0L
(lp1592
(lp1593
tp1594
a(L2805934577L
L0L
(lp1595
(lp1596
tp1597
a(L3086959262L
L0L
(lp1598
(lp1599
tp1600
a(L4161019926L
L3785322319L
(lp1601
(lp1602
Vesp_rom_spiflash_read_status
p1603
atp1604
atp1605
sI1074237040
(Vupdate_rtc_retain_mem_crc
p1606
(lp1607
(L2554222750L
L0L
(lp1608
(lp1609
tp1610
atp1611
sI1074245744
(Vrtc_clk_slow_freq_get_hz
p1612
(lp1613
(L1826267122L
L3785322319L
(lp1614
(lp1615
Vrtc_clk_slow_src_get
p1616
atp1617
a(L4208726686L
L0L
(lp1618
(lp1619
tp1620
a(L4035351460L
L0L
(lp1621
(lp1622
tp1623
a(L3360570486L
L0L
(lp1624
(lp1625
tp1626
atp1627
sI1074240380
(Vbootloader_reset
p1628
(lp1629
(L2081562338L
L3785322319L
(lp1630
(lp1631
Vbootloader_console_deinit
p1632
atp1633
a(L106L
L0L
(lp1634
(lp1635
tp1636
atp1637
sI1074236796
(Vefuse_hal_get_major_chip_version
p1638
(lp1639
(L503352333L
L0L
(lp1640
(lp1641
tp1642
a(L894792960L
L0L
(lp1643
(lp1644
tp1645
a(L724635033L
L0L
(lp1646
(lp1647
tp1648
a(L3360570486L
L0L
(lp1649
(lp1650
tp1651
atp1652
sI1074247036
(Vrtc_clk_cal_internal
p1653
(lp1654
(L3240343050L
L0L
(lp1655
(lp1656
tp1657
a(L3607266593L
L3785322319L
(lp1658
(lp1659
V__assert_func
p1660
atp1661
a(L29139816L
L0L
(lp1662
(lp1663
tp1664
a(L1673513644L
L0L
(lp1665
(lp1666
tp1667
a(L1947503823L
L3785322319L
(lp1668
(lp1669
Vrtc_clk_slow_src_get
p1670
atp1671
a(L3008910671L
L0L
(lp1672
(lp1673
tp1674
a(L97689L
L0L
(lp1675
(lp1676
tp1677
a(L1753724929L
L0L
(lp1678
(lp1679
tp1680
a(L3028464L
L0L
(lp1681
(lp1682
tp1683
a(L3028481L
L0L
(lp1684
(lp1685
tp1686
a(L3450258810L
L0L
(lp1687
(lp1688
tp1689
a(L3342863970L
L3785322319L
(lp1690
(lp1691
Vrtc_clk_xtal_freq_get
p1692
atp1693
a(L2780079961L
L0L
(lp1694
(lp1695
tp1696
a(L667466546L
L0L
(lp1697
(lp1698
tp1699
a(L3119507449L
L3785322319L
(lp1700
(lp1701
Vesp_log_early_timestamp
p1702
atp1703
a(L2258688482L
L0L
(lp1704
(lp1705
tp1706
a(L3360570486L
L0L
(lp1707
(lp1708
tp1709
a(L3553505594L
L0L
(lp1710
(lp1711
tp1712
a(L403361192L
L0L
(lp1713
(lp1714
tp1715
a(L3243404432L
L3785322319L
(lp1716
(lp1717
Vrtc_clk_8m_enable
p1718
atp1719
a(L91408096L
L0L
(lp1720
(lp1721
tp1722
a(L569203943L
L0L
(lp1723
(lp1724
tp1725
a(L2910371777L
L0L
(lp1726
(lp1727
tp1728
a(L2902417580L
L0L
(lp1729
(lp1730
tp1731
a(L1276245461L
L0L
(lp1732
(lp1733
tp1734
a(L3020204L
L0L
(lp1735
(lp1736
tp1737
a(L2586319265L
L0L
(lp1738
(lp1739
tp1740
a(L3429540926L
L0L
(lp1741
(lp1742
tp1743
a(L3028464L
L0L
(lp1744
(lp1745
tp1746
a(L3323123774L
L3785322319L
(lp1747
(lp1748
Vrtc_clk_8m_enable
p1749
atp1750
atp1751
sI1074237828
(Vbootloader_munmap
p1752
(lp1753
(L2079642783L
L0L
(lp1754
(lp1755
tp1756
a(L2908476086L
L0L
(lp1757
(lp1758
tp1759
a(L3360570486L
L0L
(lp1760
(lp1761
tp1762
atp1763
sI1074240644
(Vindex_to_partition
p1764
(lp1765
(L4066096119L
L0L
(lp1766
(lp1767
tp1768
a(L1101255660L
L0L
(lp1769
(lp1770
tp1771
a(L1955702725L
L0L
(lp1772
(lp1773
tp1774
a(L3698927993L
L0L
(lp1775
(lp1776
tp1777
a(L2808906342L
L0L
(lp1778
(lp1779
tp1780
a(L4211744375L
L0L
(lp1781
(lp1782
tp1783
a(L3097778015L
L0L
(lp1784
(lp1785
tp1786
a(L1816235430L
L0L
(lp1787
(lp1788
tp1789
a(L2179185678L
L0L
(lp1790
(lp1791
tp1792
a(L3369319173L
L0L
(lp1793
(lp1794
tp1795
atp1796
sI1074239616
(Vbootloader_utility_load_partition_table
p1797
(lp1798
(L2486860529L
L3785322319L
(lp1799
(lp1800
Vbootloader_mmap
p1801
atp1802
a(L505919583L
L3785322319L
(lp1803
(lp1804
Vesp_log_early_timestamp
p1805
atp1806
a(L2258688482L
L0L
(lp1807
(lp1808
tp1809
a(L3360570486L
L0L
(lp1810
(lp1811
tp1812
a(L2379286607L
L3785322319L
(lp1813
(lp1814
Vesp_partition_table_verify
p1815
atp1816
a(L1834804331L
L3785322319L
(lp1817
(lp1818
Vesp_log_early_timestamp
p1819
atp1820
a(L1581018449L
L1880226080L
(lp1821
(lp1822
Vesp_log_early_timestamp
p1823
aVesp_log_early_timestamp
p1824
atp1825
a(L650140130L
L0L
(lp1826
(lp1827
tp1828
a(L3646092909L
L1880226080L
(lp1829
(lp1830
Vbootloader_munmap
p1831
aVesp_log_early_timestamp
p1832
atp1833
a(L521126897L
L0L
(lp1834
(lp1835
tp1836
a(L3028464L
L0L
(lp1837
(lp1838
tp1839
a(L106L
L0L
(lp1840
(lp1841
tp1842
a(L1403802589L
L0L
(lp1843
(lp1844
tp1845
a(L885462156L
L3785322319L
(lp1846
(lp1847
Vesp_log_early_timestamp
p1848
atp1849
a(L3990577774L
L0L
(lp1850
(lp1851
tp1852
a(L3020187L
L0L
(lp1853
(lp1854
tp1855
a(L2299741977L
L0L
(lp1856
(lp1857
tp1858
a(L4208504664L
L0L
(lp1859
(lp1860
tp1861
a(L1859217967L
L0L
(lp1862
(lp1863
tp1864
a(L2546691370L
L0L
(lp1865
(lp1866
tp1867
a(L3837441849L
L0L
(lp1868
(lp1869
tp1870
a(L106L
L0L
(lp1871
(lp1872
tp1873
a(L93674324L
L0L
(lp1874
(lp1875
tp1876
a(L1586995289L
L0L
(lp1877
(lp1878
tp1879
a(L1938134716L
L0L
(lp1880
(lp1881
tp1882
a(L924830715L
L0L
(lp1883
(lp1884
tp1885
a(L106L
L0L
(lp1886
(lp1887
tp1888
a(L928524799L
L0L
(lp1889
(lp1890
tp1891
a(L106L
L0L
(lp1892
(lp1893
tp1894
a(L568205111L
L0L
(lp1895
(lp1896
tp1897
atp1898
sI1074245772
(Vrtc_clk_fast_src_set
p1899
(lp1900
(L1422122692L
L0L
(lp1901
(lp1902
tp1903
a(L3020187L
L0L
(lp1904
(lp1905
tp1906
a(L3827921190L
L3785322319L
(lp1907
(lp1908
Vabort
p1909
atp1910
a(L2904656757L
L0L
(lp1911
(lp1912
tp1913
a(L206212292L
L0L
(lp1914
(lp1915
tp1916
a(L300459962L
L0L
(lp1917
(lp1918
tp1919
atp1920
sI1074234760
(Vesp_flash_encryption_enabled
p1921
(lp1922
(L376617603L
L3785322319L
(lp1923
(lp1924
Vefuse_hal_flash_encryption_enabled
p1925
atp1926
atp1927
sI1074236552
(Vesp_rom_set_cpu_ticks_per_us
p1928
(lp1929
(L2370326522L
L0L
(lp1930
(lp1931
tp1932
atp1933
sI1074237064
(Vbootloader_common_ota_select_crc
p1934
(lp1935
(L3898531187L
L0L
(lp1936
(lp1937
tp1938
atp1939
sI1074270872
(Vrtc_vddsdio_set_config
p1940
(lp1941
(L2761419615L
L0L
(lp1942
(lp1943
tp1944
atp1945
sI1074237588
(Vspi_to_esp_err
p1946
(lp1947
(L3506104959L
L0L
(lp1948
(lp1949
tp1950
a(L2409788187L
L0L
(lp1951
(lp1952
tp1953
a(L3952441574L
L0L
(lp1954
(lp1955
tp1956
a(L3126521138L
L0L
(lp1957
(lp1958
tp1959
atp1960
sI1074234772
(Vbootloader_flash_execute_command_common
p1961
(lp1962
(L3865052895L
L0L
(lp1963
(lp1964
tp1965
a(L3287175997L
L0L
(lp1966
(lp1967
tp1968
a(L4121451103L
L3785322319L
(lp1969
(lp1970
V__assert_func
p1971
atp1972
a(L3021749L
L0L
(lp1973
(lp1974
tp1975
a(L3999871943L
L0L
(lp1976
(lp1977
tp1978
a(L543316797L
L0L
(lp1979
(lp1980
tp1981
a(L2091933878L
L0L
(lp1982
(lp1983
tp1984
a(L1702379862L
L0L
(lp1985
(lp1986
tp1987
a(L3432464320L
L0L
(lp1988
(lp1989
tp1990
a(L3539375712L
L0L
(lp1991
(lp1992
tp1993
a(L3244449450L
L0L
(lp1994
(lp1995
tp1996
a(L4233404408L
L0L
(lp1997
(lp1998
tp1999
a(L2990329343L
L0L
(lp2000
(lp2001
tp2002
a(L2051090536L
L0L
(lp2003
(lp2004
tp2005
a(L3333696662L
L0L
(lp2006
(lp2007
tp2008
a(L963425213L
L0L
(lp2009
(lp2010
tp2011
a(L339491738L
L0L
(lp2012
(lp2013
tp2014
a(L3360570486L
L0L
(lp2015
(lp2016
tp2017
atp2018
sI1074235284
(Vbootloader_flash_unlock
p2019
(lp2020
(L485855552L
L3785322319L
(lp2021
(lp2022
Vesp_rom_spiflash_wait_idle
p2023
atp2024
a(L711923870L
L0L
(lp2025
(lp2026
tp2027
a(L3507311156L
L3785322319L
(lp2028
(lp2029
Vbootloader_execute_flash_command
p2030
atp2031
a(L4103218025L
L0L
(lp2032
(lp2033
tp2034
a(L2529045083L
L0L
(lp2035
(lp2036
tp2037
a(L1175784077L
L1832448559L
(lp2038
(lp2039
Vesp_rom_spiflash_wait_idle
p2040
aVbootloader_execute_flash_command
p2041
aVbootloader_execute_flash_command
p2042
atp2043
a(L106L
L0L
(lp2044
(lp2045
tp2046
a(L594961218L
L1880226080L
(lp2047
(lp2048
Vesp_rom_spiflash_wait_idle
p2049
aVbootloader_execute_flash_command
p2050
atp2051
a(L2993202392L
L0L
(lp2052
(lp2053
tp2054
a(L610618707L
L0L
(lp2055
(lp2056
tp2057
a(L2843273676L
L0L
(lp2058
(lp2059
tp2060
a(L192015437L
L0L
(lp2061
(lp2062
tp2063
a(L3154322046L
L1880226080L
(lp2064
(lp2065
Vbootloader_execute_flash_command
p2066
aVbootloader_execute_flash_command
p2067
atp2068
a(L1303560644L
L0L
(lp2069
(lp2070
tp2071
a(L1711531685L
L1880226080L
(lp2072
(lp2073
Vbootloader_execute_flash_command
p2074
aVbootloader_execute_flash_command
p2075
atp2076
a(L3658700047L
L0L
(lp2077
(lp2078
tp2079
a(L3430607254L
L0L
(lp2080
(lp2081
tp2082
a(L106L
L0L
(lp2083
(lp2084
tp2085
a(L1876788132L
L1832448559L
(lp2086
(lp2087
Vesp_rom_spiflash_wait_idle
p2088
aVbootloader_execute_flash_command
p2089
aVbootloader_execute_flash_command
p2090
atp2091
atp2092
sI1074240404
(Vbootloader_utility_load_boot_image
p2093
(lp2094
(L2848044097L
L0L
(lp2095
(lp2096
tp2097
a(L2177418995L
L3785322319L
(lp2098
(lp2099
Vtry_load_partition
p2100
atp2101
a(L1305243774L
L3785322319L
(lp2102
(lp2103
Vload_image
p2104
atp2105
a(L2207889764L
L3785322319L
(lp2106
(lp2107
Vesp_log_early_timestamp
p2108
atp2109
a(L3827921190L
L3785322319L
(lp2110
(lp2111
Vbootloader_reset
p2112
atp2113
a(L1953693036L
L3785322319L
(lp2114
(lp2115
Vindex_to_partition
p2116
atp2117
a(L1204373741L
L3785322319L
(lp2118
(lp2119
Vtry_load_partition
p2120
atp2121
a(L1899865696L
L0L
(lp2122
(lp2123
tp2124
a(L2695355117L
L3785322319L
(lp2125
(lp2126
Vset_actual_ota_seq
p2127
atp2128
a(L1868897605L
L3785322319L
(lp2129
(lp2130
Vlog_invalid_app_partition
p2131
atp2132
a(L831650730L
L0L
(lp2133
(lp2134
tp2135
a(L3021737L
L0L
(lp2136
(lp2137
tp2138
a(L695456438L
L0L
(lp2139
(lp2140
tp2141
a(L1136920284L
L3785322319L
(lp2142
(lp2143
Vtry_load_partition
p2144
atp2145
a(L3385815862L
L3785322319L
(lp2146
(lp2147
Vesp_log_early_timestamp
p2148
atp2149
a(L2347390157L
L3785322319L
(lp2150
(lp2151
Vindex_to_partition
p2152
atp2153
a(L1204373741L
L3785322319L
(lp2154
(lp2155
Vtry_load_partition
p2156
atp2157
a(L3061261803L
L0L
(lp2158
(lp2159
tp2160
a(L3582858798L
L3785322319L
(lp2161
(lp2162
Vlog_invalid_app_partition
p2163
atp2164
a(L418497574L
L3785322319L
(lp2165
(lp2166
Vesp_log_early_timestamp
p2167
atp2168
atp2169
sI1074244756
(Vwdt_hal_set_flashboot_en
p2170
(lp2171
(L2375320464L
L0L
(lp2172
(lp2173
tp2174
a(L3915867581L
L0L
(lp2175
(lp2176
tp2177
a(L3360570486L
L0L
(lp2178
(lp2179
tp2180
a(L3831283465L
L0L
(lp2181
(lp2182
tp2183
atp2184
sI1074268060
(Vbootloader_init
p2185
(lp2186
(L1256100286L
L3785322319L
(lp2187
(lp2188
Vbootloader_init_mem
p2189
atp2190
a(L496177411L
L0L
(lp2191
(lp2192
tp2193
a(L2027378118L
L3785322319L
(lp2194
(lp2195
V__assert_func
p2196
atp2197
a(L408886226L
L0L
(lp2198
(lp2199
tp2200
a(L2892662435L
L0L
(lp2201
(lp2202
tp2203
a(L3813782018L
L0L
(lp2204
(lp2205
tp2206
a(L3379255958L
L0L
(lp2207
(lp2208
tp2209
a(L3027019L
L0L
(lp2210
(lp2211
tp2212
a(L3949229104L
L0L
(lp2213
(lp2214
tp2215
a(L4055793689L
L1832448559L
(lp2216
(lp2217
Vbootloader_clear_bss_section
p2218
aVbootloader_common_vddsdio_configure
p2219
aVbootloader_clock_get_rated_freq_mhz
p2220
atp2221
a(L106L
L0L
(lp2222
(lp2223
tp2224
a(L87629889L
L1157885199L
(lp2225
(lp2226
Vbootloader_clock_configure
p2227
aVbootloader_console_init
p2228
aVbootloader_print_banner
p2229
aVbootloader_flash_update_id
p2230
aVbootloader_flash_xmc_startup
p2231
atp2232
a(L296996763L
L3785322319L
(lp2233
(lp2234
Vesp_log_early_timestamp
p2235
atp2236
a(L657010908L
L3785322319L
(lp2237
(lp2238
Vesp_log_early_timestamp
p2239
atp2240
a(L3360570486L
L0L
(lp2241
(lp2242
tp2243
a(L2444883382L
L3785322319L
(lp2244
(lp2245
Vbootloader_read_bootloader_header
p2246
atp2247
a(L2444883382L
L3785322319L
(lp2248
(lp2249
Vbootloader_check_bootloader_validity
p2250
atp2251
a(L2444883382L
L3785322319L
(lp2252
(lp2253
Vbootloader_init_spi_flash
p2254
atp2255
a(L3638850911L
L0L
(lp2256
(lp2257
tp2258
a(L254817508L
L0L
(lp2259
(lp2260
tp2261
a(L93892250L
L0L
(lp2262
(lp2263
tp2264
a(L2915015718L
L0L
(lp2265
(lp2266
tp2267
a(L1634500369L
L1880226080L
(lp2268
(lp2269
Vbootloader_config_wdt
p2270
aVbootloader_enable_random
p2271
atp2272
a(L1895147938L
L0L
(lp2273
(lp2274
tp2275
a(L2680457259L
L0L
(lp2276
(lp2277
tp2278
a(L3027019L
L0L
(lp2279
(lp2280
tp2281
a(L97315L
L0L
(lp2282
(lp2283
tp2284
a(L1442646668L
L3785322319L
(lp2285
(lp2286
Vesp_log_early_timestamp
p2287
atp2288
a(L4094931264L
L3785322319L
(lp2289
(lp2290
Vesp_log_early_timestamp
p2291
atp2292
a(L3164960223L
L0L
(lp2293
(lp2294
tp2295
a(L1895147938L
L0L
(lp2296
(lp2297
tp2298
a(L156585483L
L1880226080L
(lp2299
(lp2300
Vwdt_reset_info_dump
p2301
aVwdt_reset_info_dump
p2302
atp2303
atp2304
sI1074268572
(Vbootloader_common_vddsdio_configure
p2305
(lp2306
(L1829974089L
L3785322319L
(lp2307
(lp2308
Vrtc_vddsdio_get_config
p2309
atp2310
a(L2795064753L
L3785322319L
(lp2311
(lp2312
Vrtc_vddsdio_set_config
p2313
atp2314
a(L3360570486L
L0L
(lp2315
(lp2316
tp2317
atp2318
sI1074241168
(Vbootloader_ana_clock_glitch_reset_config
p2319
(lp2320
(L2100504542L
L0L
(lp2321
(lp2322
tp2323
atp2324
sI1074245008
(Vrtc_clk_32k_enable_common
p2325
(lp2326
(L88474392L
L0L
(lp2327
(lp2328
tp2329
a(L97422L
L0L
(lp2330
(lp2331
tp2332
a(L2218417248L
L0L
(lp2333
(lp2334
tp2335
a(L1403367334L
L0L
(lp2336
(lp2337
tp2338
a(L51458120L
L0L
(lp2339
(lp2340
tp2341
atp2342
sI1074237084
(Vbootloader_common_ota_select_valid
p2343
(lp2344
(L1563399710L
L3785322319L
(lp2345
(lp2346
Vbootloader_common_ota_select_invalid
p2347
atp2348
a(L3814720849L
L3785322319L
(lp2349
(lp2350
Vbootloader_common_ota_select_crc
p2351
atp2352
a(L3360570486L
L0L
(lp2353
(lp2354
tp2355
atp2356
sI1074248092
(Vesp_rom_spiflash_erase_sector
p2357
(lp2358
(L588217598L
L0L
(lp2359
(lp2360
tp2361
a(L2258688483L
L0L
(lp2362
(lp2363
tp2364
a(L3360570486L
L0L
(lp2365
(lp2366
tp2367
a(L3212356251L
L3785322319L
(lp2368
(lp2369
Vesp_rom_spiflash_enable_write
p2370
atp2371
a(L184152988L
L0L
(lp2372
(lp2373
tp2374
a(L1423838619L
L3785322319L
(lp2375
(lp2376
Vesp_rom_spiflash_wait_idle
p2377
atp2378
a(L3333707777L
L0L
(lp2379
(lp2380
tp2381
a(L3582858798L
L3785322319L
(lp2382
(lp2383
Vesp_rom_spiflash_wait_idle
p2384
atp2385
atp2386
sI1074270100
(Vrtc_clk_xtal_freq_estimate
p2387
(lp2388
(L1823831978L
L1880226080L
(lp2389
(lp2390
Vrtc_clk_8m_enabled
p2391
aVrtc_clk_8md256_enabled
p2392
atp2393
a(L2449794434L
L3785322319L
(lp2394
(lp2395
Vrtc_clk_8m_enable
p2396
atp2397
a(L853245806L
L3785322319L
(lp2398
(lp2399
Vrtc_clk_cal_ratio
p2400
atp2401
a(L3934977694L
L0L
(lp2402
(lp2403
tp2404
a(L3955289886L
L0L
(lp2405
(lp2406
tp2407
a(L2836128282L
L3785322319L
(lp2408
(lp2409
Vesp_log_early_timestamp
p2410
atp2411
a(L2307427870L
L0L
(lp2412
(lp2413
tp2414
a(L1281346514L
L3785322319L
(lp2415
(lp2416
Vrtc_clk_8m_enable
p2417
atp2418
a(L3909119106L
L0L
(lp2419
(lp2420
tp2421
a(L609099921L
L3785322319L
(lp2422
(lp2423
Vesp_log_early_timestamp
p2424
atp2425
a(L3304487880L
L0L
(lp2426
(lp2427
tp2428
a(L1641150486L
L0L
(lp2429
(lp2430
tp2431
a(L2362505285L
L3785322319L
(lp2432
(lp2433
Vesp_log_early_timestamp
p2434
atp2435
atp2436
sI1074241176
(Vprocess_checksum
p2437
(lp2438
(L314050879L
L0L
(lp2439
(lp2440
tp2441
a(L3028481L
L0L
(lp2442
(lp2443
tp2444
a(L186886970L
L0L
(lp2445
(lp2446
tp2447
a(L2902417580L
L0L
(lp2448
(lp2449
tp2450
a(L3028481L
L0L
(lp2451
(lp2452
tp2453
a(L2192203028L
L3785322319L
(lp2454
(lp2455
Vesp_log_early_timestamp
p2456
atp2457
a(L3620624880L
L0L
(lp2458
(lp2459
tp2460
a(L3236648107L
L3785322319L
(lp2461
(lp2462
Vbootloader_flash_read
p2463
atp2464
a(L735741265L
L0L
(lp2465
(lp2466
tp2467
a(L3020204L
L0L
(lp2468
(lp2469
tp2470
a(L2480703612L
L3785322319L
(lp2471
(lp2472
Vbootloader_sha256_data
p2473
atp2474
a(L3436105237L
L0L
(lp2475
(lp2476
tp2477
a(L106L
L0L
(lp2478
(lp2479
tp2480
atp2481
sI1074236568
(Vesp_rom_uart_tx_wait_idle
p2482
(lp2483
(L2849601099L
L0L
(lp2484
(lp2485
tp2486
a(L1301079727L
L0L
(lp2487
(lp2488
tp2489
a(L597952197L
L0L
(lp2490
(lp2491
tp2492
a(L1971823332L
L0L
(lp2493
(lp2494
tp2495
a(L3055926844L
L0L
(lp2496
(lp2497
tp2498
a(L3360570486L
L0L
(lp2499
(lp2500
tp2501
a(L3694491048L
L0L
(lp2502
(lp2503
tp2504
a(L106L
L0L
(lp2505
(lp2506
tp2507
atp2508
sI1074246308
(Vrtc_clk_cpu_freq_set_config
p2509
(lp2510
(L2485013130L
L3785322319L
(lp2511
(lp2512
Vrtc_clk_xtal_freq_get
p2513
atp2514
a(L2308773007L
L0L
(lp2515
(lp2516
tp2517
a(L3253451229L
L1880226080L
(lp2518
(lp2519
Vrtc_clk_cpu_freq_to_xtal
p2520
aVrtc_clk_wait_for_slow_cycle
p2521
atp2522
a(L2243645672L
L0L
(lp2523
(lp2524
tp2525
a(L4002786498L
L0L
(lp2526
(lp2527
tp2528
a(L2736411858L
L3785322319L
(lp2529
(lp2530
Vrtc_clk_cpu_freq_to_xtal
p2531
atp2532
a(L3360570486L
L0L
(lp2533
(lp2534
tp2535
a(L2755207760L
L1832448559L
(lp2536
(lp2537
Vrtc_clk_cpu_freq_to_xtal
p2538
aVrtc_clk_wait_for_slow_cycle
p2539
aVrtc_clk_bbpll_disable
p2540
atp2541
a(L3020187L
L0L
(lp2542
(lp2543
tp2544
a(L106L
L0L
(lp2545
(lp2546
tp2547
a(L2900038572L
L1880226080L
(lp2548
(lp2549
Vrtc_clk_wait_for_slow_cycle
p2550
aVrtc_clk_xtal_freq_get
p2551
atp2552
a(L106L
L0L
(lp2553
(lp2554
tp2555
a(L952301616L
L0L
(lp2556
(lp2557
tp2558
a(L83268611L
L0L
(lp2559
(lp2560
tp2561
a(L106L
L0L
(lp2562
(lp2563
tp2564
a(L82345090L
L0L
(lp2565
(lp2566
tp2567
a(L106L
L0L
(lp2568
(lp2569
tp2570
a(L2258718273L
L0L
(lp2571
(lp2572
tp2573
a(L3298883534L
L0L
(lp2574
(lp2575
tp2576
a(L3923779173L
L0L
(lp2577
(lp2578
tp2579
a(L919761335L
L3785322319L
(lp2580
(lp2581
Vrtc_clk_cpu_freq_to_pll_mhz
p2582
atp2583
a(L3683285473L
L0L
(lp2584
(lp2585
tp2586
a(L83268344L
L0L
(lp2587
(lp2588
tp2589
a(L82344823L
L0L
(lp2590
(lp2591
tp2592
a(L1569180676L
L0L
(lp2593
(lp2594
tp2595
a(L2258837488L
L0L
(lp2596
(lp2597
tp2598
a(L3689515797L
L0L
(lp2599
(lp2600
tp2601
a(L1482311963L
L0L
(lp2602
(lp2603
tp2604
a(L133411965L
L0L
(lp2605
(lp2606
tp2607
a(L3673491036L
L0L
(lp2608
(lp2609
tp2610
a(L4197990447L
L0L
(lp2611
(lp2612
tp2613
a(L903154985L
L0L
(lp2614
(lp2615
tp2616
a(L3020187L
L0L
(lp2617
(lp2618
tp2619
a(L106L
L0L
(lp2620
(lp2621
tp2622
a(L4207845382L
L3785322319L
(lp2623
(lp2624
Vesp_rom_set_cpu_ticks_per_us
p2625
atp2626
atp2627
sI1074247844
(Vesp_rom_spiflash_enable_write
p2628
(lp2629
(L3454951103L
L3785322319L
(lp2630
(lp2631
Vesp_rom_spiflash_wait_idle
p2632
atp2633
a(L3333707777L
L0L
(lp2634
(lp2635
tp2636
a(L2258688484L
L0L
(lp2637
(lp2638
tp2639
a(L99543895L
L0L
(lp2640
(lp2641
tp2642
a(L2993202392L
L0L
(lp2643
(lp2644
tp2645
a(L3672363389L
L3785322319L
(lp2646
(lp2647
Vesp_rom_spiflash_read_status
p2648
atp2649
atp2650
sI1074269356
(Vbootloader_flash_update_id
p2651
(lp2652
(L3587584986L
L3785322319L
(lp2653
(lp2654
Vbootloader_read_flash_id
p2655
atp2656
atp2657
sI1074237352
(Vbootloader_common_get_active_otadata
p2658
(lp2659
(L3317503532L
L0L
(lp2660
(lp2661
tp2662
a(L2503049265L
L1832448559L
(lp2663
(lp2664
Vbootloader_common_ota_select_valid
p2665
aVbootloader_common_ota_select_valid
p2666
aVbootloader_common_select_otadata
p2667
atp2668
a(L735741265L
L0L
(lp2669
(lp2670
tp2671
atp2672
sI1074243496
(Vbootloader_load_image
p2673
(lp2674
(L1155870502L
L3785322319L
(lp2675
(lp2676
Vimage_load
p2677
atp2678
atp2679
sI1074235572
(Vbootloader_flash_read_sfdp
p2680
(lp2681
(L711701400L
L0L
(lp2682
(lp2683
tp2684
a(L3305374083L
L3785322319L
(lp2685
(lp2686
V__assert_func
p2687
atp2688
a(L3704332455L
L3785322319L
(lp2689
(lp2690
Vbootloader_flash_execute_command_common
p2691
atp2692
atp2693
sI1074237620
(Vbootloader_mmap
p2694
(lp2695
(L1104127453L
L0L
(lp2696
(lp2697
tp2698
a(L2788000669L
L3785322319L
(lp2699
(lp2700
Vesp_log_early_timestamp
p2701
atp2702
a(L2867263840L
L0L
(lp2703
(lp2704
tp2705
a(L3729184599L
L0L
(lp2706
(lp2707
tp2708
a(L2798949580L
L3785322319L
(lp2709
(lp2710
Vesp_log_early_timestamp
p2711
atp2712
a(L2258688482L
L0L
(lp2713
(lp2714
tp2715
a(L3360570486L
L0L
(lp2716
(lp2717
tp2718
a(L953247514L
L0L
(lp2719
(lp2720
tp2721
a(L2817731493L
L0L
(lp2722
(lp2723
tp2724
a(L605750710L
L3785322319L
(lp2725
(lp2726
Vesp_log_early_timestamp
p2727
atp2728
a(L528652822L
L3785322319L
(lp2729
(lp2730
Vesp_log_early_timestamp
p2731
atp2732
a(L1908558056L
L0L
(lp2733
(lp2734
tp2735
atp2736
sI1074267836
(Vwdt_reset_info_dump
p2737
(lp2738
(L4037458708L
L0L
(lp2739
(lp2740
tp2741
a(L522353410L
L0L
(lp2742
(lp2743
tp2744
a(L217258670L
L0L
(lp2745
(lp2746
tp2747
a(L1103285333L
L0L
(lp2748
(lp2749
tp2750
a(L4222762845L
L3785322319L
(lp2751
(lp2752
Vesp_log_early_timestamp
p2753
atp2754
a(L2967992533L
L0L
(lp2755
(lp2756
tp2757
a(L1493818067L
L0L
(lp2758
(lp2759
tp2760
a(L4025433257L
L3785322319L
(lp2761
(lp2762
Vesp_log_early_timestamp
p2763
atp2764
atp2765
sI1074268860
(Vbootloader_init_mem
p2766
(lp2767
(L1287383080L
L3785322319L
(lp2768
(lp2769
Vesp_cpu_configure_region_protection
p2770
atp2771
atp2772
sI1074269372
(Vbootloader_init_spi_flash
p2773
(lp2774
(L1156132900L
L2485746240L
(lp2775
(lp2776
Vbootloader_flash_gpio_config
p2777
aVbootloader_flash_dummy_config
p2778
aVbootloader_flash_cs_timing_config
p2779
aVbootloader_flash_unlock
p2780
atp2781
a(L582446944L
L0L
(lp2782
(lp2783
tp2784
a(L3652859485L
L0L
(lp2785
(lp2786
tp2787
a(L3201442148L
L0L
(lp2788
(lp2789
tp2790
a(L1305670861L
L3785322319L
(lp2791
(lp2792
Vesp_log_early_timestamp
p2793
atp2794
a(L2177628073L
L0L
(lp2795
(lp2796
tp2797
a(L2181322157L
L0L
(lp2798
(lp2799
tp2800
a(L2221033560L
L0L
(lp2801
(lp2802
tp2803
a(L2206256728L
L0L
(lp2804
(lp2805
tp2806
a(L703426222L
L0L
(lp2807
(lp2808
tp2809
a(L706396929L
L3785322319L
(lp2810
(lp2811
Vesp_log_early_timestamp
p2812
atp2813
a(L93674324L
L0L
(lp2814
(lp2815
tp2816
a(L3405401315L
L0L
(lp2817
(lp2818
tp2819
a(L3738746921L
L0L
(lp2820
(lp2821
tp2822
a(L460460808L
L0L
(lp2823
(lp2824
tp2825
a(L3746143366L
L0L
(lp2826
(lp2827
tp2828
a(L650365607L
L3785322319L
(lp2829
(lp2830
Vesp_log_early_timestamp
p2831
atp2832
a(L93674324L
L0L
(lp2833
(lp2834
tp2835
a(L3422553167L
L0L
(lp2836
(lp2837
tp2838
a(L1707909459L
L0L
(lp2839
(lp2840
tp2841
a(L4101522284L
L0L
(lp2842
(lp2843
tp2844
a(L246698275L
L3785322319L
(lp2845
(lp2846
Vbootloader_enable_wp
p2847
atp2848
a(L3907331784L
L0L
(lp2849
(lp2850
tp2851
atp2852
sI1074235824
(Vbootloader_flash_cs_timing_config
p2853
(lp2854
(L1940014330L
L0L
(lp2855
(lp2856
tp2857
atp2858
sI1074245552
(Vrtc_clk_8m_enabled
p2859
(lp2860
(L4226275457L
L0L
(lp2861
(lp2862
tp2863
atp2864
sI1074243512
(Vbootloader_load_image_no_verify
p2865
(lp2866
(L3412781509L
L3785322319L
(lp2867
(lp2868
Vimage_load
p2869
atp2870
atp2871
sI1074238136
(Vbootloader_flash_erase_sector
p2872
(lp2873
(L4129137686L
L1880226080L
(lp2874
(lp2875
Vesp_rom_spiflash_erase_sector
p2876
aVspi_to_esp_err
p2877
atp2878
atp2879
sI1074237880
(Vbootloader_flash_read
p2880
(lp2881
(L3022618172L
L0L
(lp2882
(lp2883
tp2884
a(L1550306930L
L3785322319L
(lp2885
(lp2886
Vesp_log_early_timestamp
p2887
atp2888
a(L2780906736L
L0L
(lp2889
(lp2890
tp2891
a(L1351513776L
L0L
(lp2892
(lp2893
tp2894
a(L1486740491L
L0L
(lp2895
(lp2896
tp2897
a(L28820722L
L3785322319L
(lp2898
(lp2899
Vesp_log_early_timestamp
p2900
atp2901
a(L3283691850L
L0L
(lp2902
(lp2903
tp2904
a(L3537733967L
L3785322319L
(lp2905
(lp2906
Vesp_log_early_timestamp
p2907
atp2908
a(L3020204L
L0L
(lp2909
(lp2910
tp2911
a(L384130671L
L0L
(lp2912
(lp2913
tp2914
a(L97422L
L0L
(lp2915
(lp2916
tp2917
a(L3560938121L
L0L
(lp2918
(lp2919
tp2920
a(L1066422594L
L0L
(lp2921
(lp2922
tp2923
a(L1503955840L
L3785322319L
(lp2924
(lp2925
V__assert_func
p2926
atp2927
a(L2942240672L
L0L
(lp2928
(lp2929
tp2930
a(L2221541202L
L0L
(lp2931
(lp2932
tp2933
a(L3199264617L
L1880226080L
(lp2934
(lp2935
Vesp_rom_spiflash_read
p2936
aVspi_to_esp_err
p2937
atp2938
atp2939
sI1074245304
(Vrtc_clk_bbpll_disable
p2940
(lp2941
(L220972827L
L0L
(lp2942
(lp2943
tp2944
a(L2472207241L
L0L
(lp2945
(lp2946
tp2947
a(L3360570486L
L0L
(lp2948
(lp2949
tp2950
atp2951
sI1074238404
(Vbootloader_random_disable
p2952
(lp2953
(L2955563290L
L0L
(lp2954
(lp2955
tp2956
atp2957
sI1074240708
(Vbootloader_debug_buffer
p2958
(lp2959
(L2100504542L
L0L
(lp2960
(lp2961
tp2962
atp2963
sI1074236864
(Vefuse_hal_get_minor_chip_version
p2964
(lp2965
(L2721608854L
L0L
(lp2966
(lp2967
tp2968
atp2969
sI1074237120
(Vbootloader_common_check_chip_validity
p2970
(lp2971
(L2080115690L
L0L
(lp2972
(lp2973
tp2974
a(L3623174075L
L3785322319L
(lp2975
(lp2976
Vesp_log_early_timestamp
p2977
atp2978
a(L1299867982L
L0L
(lp2979
(lp2980
tp2981
a(L3360570486L
L0L
(lp2982
(lp2983
tp2984
a(L521940037L
L3785322319L
(lp2985
(lp2986
Vefuse_hal_chip_revision
p2987
atp2988
a(L1084061528L
L0L
(lp2989
(lp2990
tp2991
a(L3429713985L
L3785322319L
(lp2992
(lp2993
Vesp_log_early_timestamp
p2994
atp2995
a(L3028464L
L0L
(lp2996
(lp2997
tp2998
a(L1797954754L
L0L
(lp2999
(lp3000
tp3001
a(L106L
L0L
(lp3002
(lp3003
tp3004
a(L3027019L
L0L
(lp3005
(lp3006
tp3007
a(L106L
L0L
(lp3008
(lp3009
tp3010
a(L1228609462L
L3785322319L
(lp3011
(lp3012
Vesp_log_early_timestamp
p3013
atp3014
atp3015
sI1074238156
(Vbootloader_flash_write
p3016
(lp3017
(L3770380603L
L0L
(lp3018
(lp3019
tp3020
a(L11206654L
L3785322319L
(lp3021
(lp3022
Vesp_log_early_timestamp
p3023
atp3024
a(L3833270346L
L0L
(lp3025
(lp3026
tp3027
a(L1610445075L
L0L
(lp3028
(lp3029
tp3030
a(L735741265L
L0L
(lp3031
(lp3032
tp3033
a(L3291333414L
L0L
(lp3034
(lp3035
tp3036
a(L4133105311L
L3785322319L
(lp3037
(lp3038
Vesp_log_early_timestamp
p3039
atp3040
a(L3283691850L
L0L
(lp3041
(lp3042
tp3043
a(L3153727887L
L3785322319L
(lp3044
(lp3045
Vesp_log_early_timestamp
p3046
atp3047
a(L3212356251L
L3785322319L
(lp3048
(lp3049
Vbootloader_flash_unlock
p3050
atp3051
a(L1799218633L
L0L
(lp3052
(lp3053
tp3054
a(L94425498L
L3785322319L
(lp3055
(lp3056
Vesp_rom_spiflash_write_encrypted
p3057
atp3058
a(L2927190544L
L3785322319L
(lp3059
(lp3060
Vspi_to_esp_err
p3061
atp3062
a(L2927190544L
L3785322319L
(lp3063
(lp3064
Vesp_rom_spiflash_write
p3065
atp3066
atp3067
sI1074240716
(Vbootloader_sha256_start
p3068
(lp3069
(L3193196334L
L0L
(lp3070
(lp3071
tp3072
atp3073
sI1074245836
(Vrtc_clk_fast_src_get
p3074
(lp3075
(L420109217L
L0L
(lp3076
(lp3077
tp3078
atp3079
sI1074268868
(Vbootloader_random_enable
p3080
(lp3081
(L3678846225L
L0L
(lp3082
(lp3083
tp3084
atp3085
sI1074243016
(Vimage_load
p3086
(lp3087
(L3048705773L
L0L
(lp3088
(lp3089
tp3090
a(L3463713141L
L0L
(lp3091
(lp3092
tp3093
a(L3309803581L
L0L
(lp3094
(lp3095
tp3096
a(L256049682L
L0L
(lp3097
(lp3098
tp3099
a(L1935188817L
L0L
(lp3100
(lp3101
tp3102
a(L3028481L
L0L
(lp3103
(lp3104
tp3105
a(L3021749L
L0L
(lp3106
(lp3107
tp3108
a(L106L
L0L
(lp3109
(lp3110
tp3111
a(L585264737L
L0L
(lp3112
(lp3113
tp3114
a(L1145291904L
L3785322319L
(lp3115
(lp3116
Vprocess_image_header
p3117
atp3118
a(L823859500L
L0L
(lp3119
(lp3120
tp3121
a(L3061291474L
L0L
(lp3122
(lp3123
tp3124
a(L4106474008L
L3785322319L
(lp3125
(lp3126
Vprocess_segments
p3127
atp3128
a(L3868840998L
L0L
(lp3129
(lp3130
tp3131
a(L232008881L
L0L
(lp3132
(lp3133
tp3134
a(L1827898452L
L3785322319L
(lp3135
(lp3136
Vprocess_checksum
p3137
atp3138
a(L2214715179L
L3785322319L
(lp3139
(lp3140
Vprocess_appended_hash_and_sig
p3141
atp3142
a(L3028481L
L0L
(lp3143
(lp3144
tp3145
a(L2902417580L
L0L
(lp3146
(lp3147
tp3148
a(L3285560995L
L3785322319L
(lp3149
(lp3150
Vbootloader_sha256_finish
p3151
atp3152
a(L3946560000L
L0L
(lp3153
(lp3154
tp3155
a(L93674324L
L0L
(lp3156
(lp3157
tp3158
a(L1561998933L
L0L
(lp3159
(lp3160
tp3161
a(L772115669L
L0L
(lp3162
(lp3163
tp3164
a(L1179424413L
L0L
(lp3165
(lp3166
tp3167
a(L3928150917L
L0L
(lp3168
(lp3169
tp3170
a(L106L
L0L
(lp3171
(lp3172
tp3173
a(L3871473710L
L0L
(lp3174
(lp3175
tp3176
a(L3884726427L
L0L
(lp3177
(lp3178
tp3179
a(L106L
L0L
(lp3180
(lp3181
tp3182
a(L3020187L
L0L
(lp3183
(lp3184
tp3185
a(L2385177114L
L3785322319L
(lp3186
(lp3187
Vesp_log_early_timestamp
p3188
atp3189
a(L2868044067L
L0L
(lp3190
(lp3191
tp3192
a(L1179764900L
L0L
(lp3193
(lp3194
tp3195
a(L2332746046L
L3785322319L
(lp3196
(lp3197
Vbootloader_sha256_finish
p3198
atp3199
a(L3547589573L
L0L
(lp3200
(lp3201
tp3202
a(L3020204L
L0L
(lp3203
(lp3204
tp3205
a(L3741020883L
L0L
(lp3206
(lp3207
tp3208
a(L106L
L0L
(lp3209
(lp3210
tp3211
a(L3460866806L
L1880226080L
(lp3212
(lp3213
Vbootloader_sha256_finish
p3214
aVbootloader_debug_buffer
p3215
atp3216
a(L2430955457L
L1880226080L
(lp3217
(lp3218
Vesp_log_early_timestamp
p3219
aVbootloader_debug_buffer
p3220
atp3221
a(L3741653406L
L3785322319L
(lp3222
(lp3223
Vshould_load
p3224
atp3225
a(L2764257181L
L0L
(lp3226
(lp3227
tp3228
a(L3338774213L
L0L
(lp3229
(lp3230
tp3231
a(L3464541874L
L0L
(lp3232
(lp3233
tp3234
a(L3349572949L
L0L
(lp3235
(lp3236
tp3237
a(L2192292519L
L0L
(lp3238
(lp3239
tp3240
a(L106L
L0L
(lp3241
(lp3242
tp3243
a(L26615924L
L0L
(lp3244
(lp3245
tp3246
a(L1299866312L
L0L
(lp3247
(lp3248
tp3249
a(L3010020263L
L0L
(lp3250
(lp3251
tp3252
atp3253
sI1074243528
(Vesp_partition_table_verify
p3254
(lp3255
(L3052823174L
L0L
(lp3256
(lp3257
tp3258
a(L2813001321L
L0L
(lp3259
(lp3260
tp3261
a(L1184829782L
L0L
(lp3262
(lp3263
tp3264
a(L3020204L
L0L
(lp3265
(lp3266
tp3267
a(L376090326L
L3785322319L
(lp3268
(lp3269
Vesp_log_early_timestamp
p3270
atp3271
a(L1235012963L
L0L
(lp3272
(lp3273
tp3274
a(L3190337587L
L0L
(lp3275
(lp3276
tp3277
a(L2069928857L
L0L
(lp3278
(lp3279
tp3280
a(L2902417580L
L0L
(lp3281
(lp3282
tp3283
a(L1588753644L
L3785322319L
(lp3284
(lp3285
Vesp_log_early_timestamp
p3286
atp3287
a(L1746563721L
L0L
(lp3288
(lp3289
tp3290
a(L3020204L
L0L
(lp3291
(lp3292
tp3293
a(L3020204L
L0L
(lp3294
(lp3295
tp3296
a(L4207670090L
L3785322319L
(lp3297
(lp3298
Vesp_log_early_timestamp
p3299
atp3300
a(L3833270346L
L0L
(lp3301
(lp3302
tp3303
a(L1235012932L
L0L
(lp3304
(lp3305
tp3306
a(L41212767L
L0L
(lp3307
(lp3308
tp3309
a(L3020204L
L0L
(lp3310
(lp3311
tp3312
a(L1588753396L
L3785322319L
(lp3313
(lp3314
Vesp_log_early_timestamp
p3315
atp3316
a(L1305407469L
L0L
(lp3317
(lp3318
tp3319
a(L1167861556L
L0L
(lp3320
(lp3321
tp3322
a(L818997085L
L0L
(lp3323
(lp3324
tp3325
a(L3360570486L
L0L
(lp3326
(lp3327
tp3328
a(L3020204L
L0L
(lp3329
(lp3330
tp3331
a(L3407564673L
L3785322319L
(lp3332
(lp3333
Vesp_log_early_timestamp
p3334
atp3335
atp3336
sI1074245576
(Vrtc_clk_8md256_enabled
p3337
(lp3338
(L3381803586L
L0L
(lp3339
(lp3340
tp3341
atp3342
sI1074248392
(Vesp_rom_spiflash_write_encrypted
p3343
(lp3344
(L1944247967L
L0L
(lp3345
(lp3346
tp3347
a(L1838141447L
L0L
(lp3348
(lp3349
tp3350
a(L97689L
L0L
(lp3351
(lp3352
tp3353
a(L3061232074L
L0L
(lp3354
(lp3355
tp3356
a(L493601429L
L0L
(lp3357
(lp3358
tp3359
a(L1309309703L
L3785322319L
(lp3360
(lp3361
Vesp_rom_spiflash_write
p3362
atp3363
a(L3503659034L
L0L
(lp3364
(lp3365
tp3366
a(L735741265L
L0L
(lp3367
(lp3368
tp3369
atp3370
sI1074243796
(Vwdt_hal_init
p3371
(lp3372
(L3552056125L
L0L
(lp3373
(lp3374
tp3375
a(L106L
L0L
(lp3376
(lp3377
tp3378
a(L2104869697L
L0L
(lp3379
(lp3380
tp3381
a(L3076988543L
L0L
(lp3382
(lp3383
tp3384
a(L3430907672L
L0L
(lp3385
(lp3386
tp3387
a(L3028464L
L0L
(lp3388
(lp3389
tp3390
a(L826452606L
L0L
(lp3391
(lp3392
tp3393
a(L186837946L
L0L
(lp3394
(lp3395
tp3396
a(L3868480017L
L0L
(lp3397
(lp3398
tp3399
a(L3360570486L
L0L
(lp3400
(lp3401
tp3402
atp3403
sI1074238932
(Vcache_ll_l1_enable_bus
p3404
(lp3405
(L1408514293L
L0L
(lp3406
(lp3407
tp3408
atp3409
sI1074269660
(Vbootloader_clear_bss_section
p3410
(lp3411
(L1035474915L
L0L
(lp3412
(lp3413
tp3414
atp3415
sI1074236880
(Vesp_dport_access_reg_read
p3416
(lp3417
(L1099794772L
L0L
(lp3418
(lp3419
tp3420
atp3421
sI1074237392
(Vbootloader_common_reset_rtc_retain_mem
p3422
(lp3423
(L3806924733L
L0L
(lp3424
(lp3425
tp3426
atp3427
sI1074236892
(Vis_xmc_chip_strict
p3428
(lp3429
(L1286841609L
L0L
(lp3430
(lp3431
tp3432
a(L2234016759L
L0L
(lp3433
(lp3434
tp3435
a(L1069027148L
L0L
(lp3436
(lp3437
tp3438
a(L3021749L
L0L
(lp3439
(lp3440
tp3441
a(L1900148749L
L0L
(lp3442
(lp3443
tp3444
a(L1936875721L
L0L
(lp3445
(lp3446
tp3447
a(L3356166509L
L0L
(lp3448
(lp3449
tp3450
a(L1937769451L
L0L
(lp3451
(lp3452
tp3453
a(L2137658907L
L0L
(lp3454
(lp3455
tp3456
a(L4265949734L
L0L
(lp3457
(lp3458
tp3459
a(L3360570486L
L0L
(lp3460
(lp3461
tp3462
atp3463
sI1074245852
(Vrtc_clk_xtal_freq_get
p3464
(lp3465
(L1388894115L
L0L
(lp3466
(lp3467
tp3468
a(L2847936993L
L0L
(lp3469
(lp3470
tp3471
a(L772035589L
L0L
(lp3472
(lp3473
tp3474
a(L3360570486L
L0L
(lp3475
(lp3476
tp3477
atp3478
sI1074247900
(Vesp_rom_spiflash_program_page_internal
p3479
(lp3480
(L2569069283L
L0L
(lp3481
(lp3482
tp3483
a(L2258688483L
L0L
(lp3484
(lp3485
tp3486
a(L3360570486L
L0L
(lp3487
(lp3488
tp3489
a(L657899087L
L0L
(lp3490
(lp3491
tp3492
a(L4235661475L
L3785322319L
(lp3493
(lp3494
Vesp_rom_spiflash_wait_idle
p3495
atp3496
a(L1299866312L
L0L
(lp3497
(lp3498
tp3499
a(L3212356251L
L3785322319L
(lp3500
(lp3501
Vesp_rom_spiflash_enable_write
p3502
atp3503
a(L1690751792L
L0L
(lp3504
(lp3505
tp3506
a(L1038415594L
L0L
(lp3507
(lp3508
tp3509
a(L2953702749L
L0L
(lp3510
(lp3511
tp3512
a(L2989032L
L0L
(lp3513
(lp3514
tp3515
a(L1965622133L
L0L
(lp3516
(lp3517
tp3518
a(L360176665L
L0L
(lp3519
(lp3520
tp3521
a(L1958113242L
L0L
(lp3522
(lp3523
tp3524
a(L106L
L0L
(lp3525
(lp3526
tp3527
a(L3112950080L
L0L
(lp3528
(lp3529
tp3530
a(L1868606439L
L0L
(lp3531
(lp3532
tp3533
a(L1008983249L
L0L
(lp3534
(lp3535
tp3536
a(L1933954923L
L0L
(lp3537
(lp3538
tp3539
a(L1147866918L
L0L
(lp3540
(lp3541
tp3542
a(L3871602522L
L0L
(lp3543
(lp3544
tp3545
atp3546
sI1074268628
(Vbootloader_clock_configure
p3547
(lp3548
(L2559598596L
L1880226080L
(lp3549
(lp3550
Vesp_rom_uart_tx_wait_idle
p3551
aVefuse_hal_chip_revision
p3552
atp3553
a(L1714060431L
L0L
(lp3554
(lp3555
tp3556
a(L883406775L
L0L
(lp3557
(lp3558
tp3559
a(L106L
L0L
(lp3560
(lp3561
tp3562
a(L3646321382L
L1832448559L
(lp3563
(lp3564
Vrtc_clk_slow_src_get
p3565
aVrtc_clk_fast_src_get
p3566
aVrtc_clk_init
p3567
atp3568
a(L3297562552L
L0L
(lp3569
(lp3570
tp3571
a(L1624159269L
L3785322319L
(lp3572
(lp3573
Vrtc_clk_apb_freq_get
p3574
atp3575
a(L106L
L0L
(lp3576
(lp3577
tp3578
a(L106L
L0L
(lp3579
(lp3580
tp3581
atp3582
sI1074244824
(Vwdt_hal_write_protect_enable
p3583
(lp3584
(L387778158L
L0L
(lp3585
(lp3586
tp3587
a(L4195472003L
L0L
(lp3588
(lp3589
tp3590
a(L3360570486L
L0L
(lp3591
(lp3592
tp3593
a(L802523425L
L0L
(lp3594
(lp3595
tp3596
atp3597
sI1074237412
(Vbootloader_common_get_rtc_retain_mem_partition
p3598
(lp3599
(L1303677794L
L3785322319L
(lp3600
(lp3601
Vis_retain_mem_valid
p3602
atp3603
atp3604
sI1074242276
(Vprocess_segments
p3605
(lp3606
(L1326203493L
L0L
(lp3607
(lp3608
tp3609
a(L1640778736L
L0L
(lp3610
(lp3611
tp3612
a(L3782401745L
L0L
(lp3613
(lp3614
tp3615
a(L106L
L0L
(lp3616
(lp3617
tp3618
a(L3028481L
L0L
(lp3619
(lp3620
tp3621
a(L1229470793L
L3785322319L
(lp3622
(lp3623
Vesp_log_early_timestamp
p3624
atp3625
a(L761135359L
L3785322319L
(lp3626
(lp3627
Vbootloader_flash_read
p3628
atp3629
a(L4257869916L
L3785322319L
(lp3630
(lp3631
Vesp_log_early_timestamp
p3632
atp3633
a(L3871473710L
L0L
(lp3634
(lp3635
tp3636
a(L219417435L
L0L
(lp3637
(lp3638
tp3639
a(L616767314L
L3785322319L
(lp3640
(lp3641
Vbootloader_sha256_data
p3642
atp3643
a(L707062298L
L0L
(lp3644
(lp3645
tp3646
a(L2258837437L
L0L
(lp3647
(lp3648
tp3649
a(L1764156528L
L0L
(lp3650
(lp3651
tp3652
a(L3028481L
L0L
(lp3653
(lp3654
tp3655
a(L4097982101L
L3785322319L
(lp3656
(lp3657
Vesp_log_early_timestamp
p3658
atp3659
a(L568254959L
L0L
(lp3660
(lp3661
tp3662
a(L1733725079L
L0L
(lp3663
(lp3664
tp3665
a(L3802069243L
L0L
(lp3666
(lp3667
tp3668
a(L2897440537L
L0L
(lp3669
(lp3670
tp3671
a(L2258867228L
L0L
(lp3672
(lp3673
tp3674
a(L2277415887L
L0L
(lp3675
(lp3676
tp3677
a(L3177376558L
L0L
(lp3678
(lp3679
tp3680
a(L3028481L
L0L
(lp3681
(lp3682
tp3683
a(L3302796095L
L3785322319L
(lp3684
(lp3685
Vesp_log_early_timestamp
p3686
atp3687
a(L2640606608L
L0L
(lp3688
(lp3689
tp3690
a(L3028481L
L0L
(lp3691
(lp3692
tp3693
a(L1304081894L
L3785322319L
(lp3694
(lp3695
Vesp_log_early_timestamp
p3696
atp3697
a(L3123758948L
L0L
(lp3698
(lp3699
tp3700
a(L2902417580L
L0L
(lp3701
(lp3702
tp3703
a(L2902417580L
L0L
(lp3704
(lp3705
tp3706
a(L1229952296L
L3785322319L
(lp3707
(lp3708
Vverify_load_addresses
p3709
atp3710
a(L3783935185L
L3785322319L
(lp3711
(lp3712
Vbootloader_mmap_get_free_pages
p3713
atp3714
a(L3028481L
L0L
(lp3715
(lp3716
tp3717
a(L224879076L
L0L
(lp3718
(lp3719
tp3720
a(L142590671L
L0L
(lp3721
(lp3722
tp3723
a(L3028481L
L0L
(lp3724
(lp3725
tp3726
a(L94425498L
L3785322319L
(lp3727
(lp3728
Vesp_log_early_timestamp
p3729
atp3730
a(L2612053240L
L0L
(lp3731
(lp3732
tp3733
a(L4085121624L
L3785322319L
(lp3734
(lp3735
Vshould_load
p3736
atp3737
a(L3028481L
L0L
(lp3738
(lp3739
tp3740
a(L3828312210L
L3785322319L
(lp3741
(lp3742
Vesp_log_early_timestamp
p3743
atp3744
a(L106L
L0L
(lp3745
(lp3746
tp3747
a(L3815630522L
L0L
(lp3748
(lp3749
tp3750
a(L1373550722L
L3785322319L
(lp3751
(lp3752
Vesp_log_early_timestamp
p3753
atp3754
a(L2629678223L
L0L
(lp3755
(lp3756
tp3757
a(L2684012095L
L0L
(lp3758
(lp3759
tp3760
a(L3357777304L
L3785322319L
(lp3761
(lp3762
Vbootloader_mmap
p3763
atp3764
a(L1165087397L
L3785322319L
(lp3765
(lp3766
Vesp_log_early_timestamp
p3767
atp3768
a(L1698460186L
L0L
(lp3769
(lp3770
tp3771
a(L1712769117L
L0L
(lp3772
(lp3773
tp3774
a(L4192165162L
L0L
(lp3775
(lp3776
tp3777
a(L1595421496L
L3785322319L
(lp3778
(lp3779
Vbootloader_munmap
p3780
atp3781
a(L2757579158L
L0L
(lp3782
(lp3783
tp3784
a(L2356270618L
L3785322319L
(lp3785
(lp3786
Vbootloader_fill_random
p3787
atp3788
a(L3277879431L
L0L
(lp3789
(lp3790
tp3791
a(L3281573515L
L0L
(lp3792
(lp3793
tp3794
a(L3450268858L
L0L
(lp3795
(lp3796
tp3797
a(L3021749L
L0L
(lp3798
(lp3799
tp3800
a(L322434465L
L0L
(lp3801
(lp3802
tp3803
a(L2494883302L
L0L
(lp3804
(lp3805
tp3806
a(L2902417580L
L0L
(lp3807
(lp3808
tp3809
a(L4132302272L
L0L
(lp3810
(lp3811
tp3812
a(L22854698L
L0L
(lp3813
(lp3814
tp3815
a(L1426980959L
L0L
(lp3816
(lp3817
tp3818
a(L1841482652L
L0L
(lp3819
(lp3820
tp3821
a(L653501462L
L0L
(lp3822
(lp3823
tp3824
a(L3310548426L
L3785322319L
(lp3825
(lp3826
Vbootloader_sha256_data
p3827
atp3828
a(L90548756L
L0L
(lp3829
(lp3830
tp3831
a(L708495868L
L0L
(lp3832
(lp3833
tp3834
a(L2364005371L
L0L
(lp3835
(lp3836
tp3837
atp3838
sI1074240736
(Vbootloader_sha256_data
p3839
(lp3840
(L4066096136L
L0L
(lp3841
(lp3842
tp3843
a(L3455000336L
L0L
(lp3844
(lp3845
tp3846
a(L591145840L
L3785322319L
(lp3847
(lp3848
V__assert_func
p3849
atp3850
a(L498498478L
L0L
(lp3851
(lp3852
tp3853
a(L2216937116L
L0L
(lp3854
(lp3855
tp3856
a(L2910371777L
L0L
(lp3857
(lp3858
tp3859
a(L3360570486L
L0L
(lp3860
(lp3861
tp3862
a(L294747366L
L0L
(lp3863
(lp3864
tp3865
a(L248495140L
L0L
(lp3866
(lp3867
tp3868
a(L913553377L
L0L
(lp3869
(lp3870
tp3871
a(L292171466L
L0L
(lp3872
(lp3873
tp3874
a(L3361374984L
L0L
(lp3875
(lp3876
tp3877
a(L1394964493L
L0L
(lp3878
(lp3879
tp3880
a(L2469736643L
L0L
(lp3881
(lp3882
tp3883
a(L702738259L
L0L
(lp3884
(lp3885
tp3886
a(L3745004802L
L0L
(lp3887
(lp3888
tp3889
atp3890
sI1074245600
(Vrtc_clk_slow_src_set
p3891
(lp3892
(L1617926467L
L0L
(lp3893
(lp3894
tp3895
a(L3020187L
L0L
(lp3896
(lp3897
tp3898
a(L3028481L
L0L
(lp3899
(lp3900
tp3901
a(L487821223L
L0L
(lp3902
(lp3903
tp3904
a(L224388888L
L0L
(lp3905
(lp3906
tp3907
a(L1851908495L
L0L
(lp3908
(lp3909
tp3910
a(L382170874L
L0L
(lp3911
(lp3912
tp3913
a(L3138544334L
L0L
(lp3914
(lp3915
tp3916
a(L94425498L
L3785322319L
(lp3917
(lp3918
Vabort
p3919
atp3920
atp3921
sI1074270944
(Vmpu_hal_set_region_access
p3922
(lp3923
(L3538356822L
L0L
(lp3924
(lp3925
tp3926
a(L93674324L
L0L
(lp3927
(lp3928
tp3929
a(L2910371777L
L0L
(lp3930
(lp3931
tp3932
a(L3472092938L
L0L
(lp3933
(lp3934
tp3935
a(L3020187L
L0L
(lp3936
(lp3937
tp3938
a(L3360570486L
L0L
(lp3939
(lp3940
tp3941
a(L2258718273L
L0L
(lp3942
(lp3943
tp3944
a(L3446648619L
L0L
(lp3945
(lp3946
tp3947
a(L3739532189L
L0L
(lp3948
(lp3949
tp3950
a(L1300789895L
L0L
(lp3951
(lp3952
tp3953
atp3954
sI1074239980
(Vbootloader_utility_get_selected_boot_partition
p3955
(lp3956
(L2938832293L
L0L
(lp3957
(lp3958
tp3959
a(L846235698L
L0L
(lp3960
(lp3961
tp3962
a(L3435367073L
L3785322319L
(lp3963
(lp3964
Vesp_log_early_timestamp
p3965
atp3966
a(L194246498L
L0L
(lp3967
(lp3968
tp3969
a(L3360570486L
L0L
(lp3970
(lp3971
tp3972
a(L3118387733L
L3785322319L
(lp3973
(lp3974
Vbootloader_mmap
p3975
atp3976
a(L160570926L
L3785322319L
(lp3977
(lp3978
Vesp_log_early_timestamp
p3979
atp3980
a(L1318350665L
L1880226080L
(lp3981
(lp3982
Vbootloader_munmap
p3983
aVbootloader_common_ota_select_invalid
p3984
atp3985
a(L2911028409L
L0L
(lp3986
(lp3987
tp3988
a(L726754926L
L3785322319L
(lp3989
(lp3990
Vbootloader_common_get_active_otadata
p3991
atp3992
a(L106L
L0L
(lp3993
(lp3994
tp3995
a(L4179097382L
L0L
(lp3996
(lp3997
tp3998
a(L788494392L
L3785322319L
(lp3999
(lp4000
Vbootloader_common_ota_select_invalid
p4001
atp4002
a(L2699769053L
L0L
(lp4003
(lp4004
tp4005
a(L1406565968L
L3785322319L
(lp4006
(lp4007
Vesp_log_early_timestamp
p4008
atp4009
a(L3833270346L
L0L
(lp4010
(lp4011
tp4012
a(L1641201884L
L0L
(lp4013
(lp4014
tp4015
a(L4068176187L
L3785322319L
(lp4016
(lp4017
Vesp_log_early_timestamp
p4018
atp4019
a(L2302032704L
L0L
(lp4020
(lp4021
tp4022
a(L1173788779L
L3785322319L
(lp4023
(lp4024
Vbootloader_common_ota_select_crc
p4025
atp4026
a(L4188515782L
L0L
(lp4027
(lp4028
tp4029
a(L1324800084L
L3785322319L
(lp4030
(lp4031
Vbootloader_common_ota_select_crc
p4032
atp4033
a(L1299866312L
L0L
(lp4034
(lp4035
tp4036
a(L1213214978L
L0L
(lp4037
(lp4038
tp4039
a(L2799283305L
L3785322319L
(lp4040
(lp4041
Vesp_log_early_timestamp
p4042
atp4043
a(L692119933L
L3785322319L
(lp4044
(lp4045
Vesp_log_early_timestamp
p4046
atp4047
atp4048
sI1074236652
(Vesp_rom_uart_set_clock_baudrate
p4049
(lp4050
(L2319441726L
L0L
(lp4051
(lp4052
tp4053
a(L2334991263L
L0L
(lp4054
(lp4055
tp4056
a(L2805931295L
L0L
(lp4057
(lp4058
tp4059
a(L1916726935L
L0L
(lp4060
(lp4061
tp4062
atp4063
sI1074246124
(Vrtc_clk_xtal_freq_update
p4064
(lp4065
(L3877747578L
L0L
(lp4066
(lp4067
tp4068
a(L3509357017L
L0L
(lp4069
(lp4070
tp4071
a(L2266180931L
L0L
(lp4072
(lp4073
tp4074
atp4075
sI1074269924
(Vbootloader_enable_random
p4076
(lp4077
(L1236070240L
L1880226080L
(lp4078
(lp4079
Vesp_log_early_timestamp
p4080
aVbootloader_random_enable
p4081
atp4082
atp4083
sI1074235624
(Vbootloader_read_flash_id
p4084
(lp4085
(L549578328L
L3785322319L
(lp4086
(lp4087
Vbootloader_execute_flash_command
p4088
atp4089
atp4090
sI1074236404
(Vbootloader_flash_dummy_config
p4091
(lp4092
(L262000646L
L0L
(lp4093
(lp4094
tp4095
a(L2761717557L
L0L
(lp4096
(lp4097
tp4098
a(L1849044936L
L0L
(lp4099
(lp4100
tp4101
a(L708753936L
L0L
(lp4102
(lp4103
tp4104
a(L1010450057L
L0L
(lp4105
(lp4106
tp4107
a(L3020204L
L0L
(lp4108
(lp4109
tp4110
a(L1610443405L
L0L
(lp4111
(lp4112
tp4113
a(L4032120524L
L0L
(lp4114
(lp4115
tp4116
a(L2336993863L
L0L
(lp4117
(lp4118
tp4119
a(L1298875775L
L0L
(lp4120
(lp4121
tp4122
a(L3880393601L
L0L
(lp4123
(lp4124
tp4125
a(L3328946209L
L0L
(lp4126
(lp4127
tp4128
a(L1610443436L
L0L
(lp4129
(lp4130
tp4131
atp4132
sI1074237428
(Vbootloader_common_update_rtc_retain_mem
p4133
(lp4134
(L2958000229L
L0L
(lp4135
(lp4136
tp4137
a(L3212356251L
L3785322319L
(lp4138
(lp4139
Vis_retain_mem_valid
p4140
atp4141
a(L94425498L
L3785322319L
(lp4142
(lp4143
Vbootloader_common_reset_rtc_retain_mem
p4144
atp4145
a(L1053102096L
L0L
(lp4146
(lp4147
tp4148
a(L4141035440L
L0L
(lp4149
(lp4150
tp4151
a(L2902417580L
L0L
(lp4152
(lp4153
tp4154
a(L3281509028L
L0L
(lp4155
(lp4156
tp4157
a(L3738038928L
L3785322319L
(lp4158
(lp4159
Vupdate_rtc_retain_mem_crc
p4160
atp4161
atp4162
sI1074244852
(Vwdt_hal_enable
p4163
(lp4164
(L2299130915L
L0L
(lp4165
(lp4166
tp4167
a(L165794138L
L0L
(lp4168
(lp4169
tp4170
a(L3360570486L
L0L
(lp4171
(lp4172
tp4173
a(L2847657174L
L0L
(lp4174
(lp4175
tp4176
atp4177
sI1074245364
(Vrtc_clk_32k_enable
p4178
(lp4179
(L753387299L
L0L
(lp4180
(lp4181
tp4182
a(L3776007933L
L3785322319L
(lp4183
(lp4184
Vrtc_clk_32k_enable_common
p4185
atp4186
a(L3496950L
L0L
(lp4187
(lp4188
tp4189
a(L3034679232L
L0L
(lp4190
(lp4191
tp4192
atp4193
sI1074241532
(Vbootloader_util_regions_overlap
p4194
(lp4195
(L2762640130L
L0L
(lp4196
(lp4197
tp4198
a(L2834975998L
L0L
(lp4199
(lp4200
tp4201
a(L2532576294L
L3785322319L
(lp4202
(lp4203
V__assert_func
p4204
atp4205
a(L97642L
L0L
(lp4206
(lp4207
tp4208
a(L3546681296L
L0L
(lp4209
(lp4210
tp4211
a(L366123053L
L0L
(lp4212
(lp4213
tp4214
a(L2258867228L
L0L
(lp4215
(lp4216
tp4217
a(L1253626734L
L0L
(lp4218
(lp4219
tp4220
a(L2258897019L
L0L
(lp4221
(lp4222
tp4223
a(L3109269495L
L0L
(lp4224
(lp4225
tp4226
atp4227
sI1074269684
(Vbootloader_read_bootloader_header
p4228
(lp4229
(L1999135233L
L3785322319L
(lp4230
(lp4231
Vbootloader_flash_read
p4232
atp4233
a(L63714649L
L3785322319L
(lp4234
(lp4235
Vesp_log_early_timestamp
p4236
atp4237
a(L735741265L
L0L
(lp4238
(lp4239
tp4240
atp4241
sI1074239480
(Vset_actual_ota_seq
p4242
(lp4243
(L4094723830L
L0L
(lp4244
(lp4245
tp4246
a(L2784201201L
L0L
(lp4247
(lp4248
tp4249
a(L3674922900L
L1832448559L
(lp4250
(lp4251
Vbootloader_common_ota_select_crc
p4252
aVesp_flash_encryption_enabled
p4253
aVbootloader_flash_erase_sector
p4254
atp4255
a(L300669811L
L3785322319L
(lp4256
(lp4257
Vbootloader_flash_write
p4258
atp4259
a(L2898531906L
L3785322319L
(lp4260
(lp4261
Vesp_log_early_timestamp
p4262
atp4263
a(L2510111647L
L3785322319L
(lp4264
(lp4265
Vesp_log_early_timestamp
p4266
atp4267
a(L889933560L
L1880226080L
(lp4268
(lp4269
Vindex_to_partition
p4270
aVbootloader_common_update_rtc_retain_mem
p4271
atp4272
atp4273
ssS'functionsdups'
p4274
g11
((lp4275
tp4276
Rp4277
sS'immediatedups'
p4278
g11
((lp4279
tp4280
Rp4281
sS'functiondups'
p4282
g11
((lp4283
tp4284
Rp4285
sS'fuzzy'
p4286
(dp4287
L1536L
I1074241096
sL438947497L
I1074245600
sL430153639L
I1074235936
sL761339243L
I1074237428
sL3538491111L
I1074245744
sL16208487L
I1074234772
sL1053780185L
I1074247532
sL1613424182L
I1074240280
sL2919036513L
I1074239084
sL2680783959L
I1074235672
sL1385214606L
I1074241588
sL3709764864L
I1074243016
sL3512578114L
I1074238984
sL1419132215L
I1074238324
sL2469233929L
I1074240884
sL4024375675L
I1074246196
sL701833459L
I1074268628
sL720751058L
I1074267836
sL99291719L
I1074246308
sL1260046007L
I1074238816
sL1270034334L
I1074267724
sL3897252859L
I1074238732
sL2154298582L
I1074268060
sL3750957730L
I1074269372
sL1065525808L
I1074236892
sL2547957225L
I1074243528
sL2272466760L
I1074245984
sL2044047637L
I1074239616
sL1188065553L
I1074237880
sL1350409532L
I1074241344
sL94556391L
I1074245772
sL3210669721L
I1074245364
sL1332800441L
I1074237352
sL1797050832L
I1074242060
sL3190831358L
I1074239980
sL4160102055L
I1074240380
sL4202185385L
I1074247796
sL1768086576L
I1074236404
sL4171975289L
I1074248092
sL1565254297L
I1074248392
sL1205407754L
I1074240404
sL2191698036L
I1074269796
sL3764456758L
I1074245144
sL3567877105L
I1074235284
sL3616640713L
I1074241176
sL1635528231L
I1074244408
sL1060788199L
I1074245892
sL99418163L
I1074239480
sL3378232636L
I1074247036
sL737694352L
I1074247900
sL503029138L
I1074247844
sL1616763831L
I1074248480
sL424867129L
I1074248228
sL3834155367L
I1074241532
sL1302843222L
I1074270276
sL149533852L
I1074237620
sL3883282432L
I1074242148
sL3110525840L
I1074242276
sL1667054119L
I1074240736
sL1142841954L
I1074237120
sL206902443L
I1074238156
sL1070509616L
I1074245424
sL3408620885L
I1074270100
ssb.