ccopy_reg
_reconstructor
p0
(crizzo
RizzoSignature
p1
c__builtin__
object
p2
Ntp3
Rp4
(dp5
S'formal'
p6
(dp7
L2532628468L
I1074244648
sL3798805615L
I1074236284
sL1511507219L
I1074244300
sL978667344L
I1074238640
sL1076603821L
I1074235080
sL3202655202L
I1074240956
sL69883309L
I1074234884
sL1956554903L
I1074236720
sL129219263L
I1074237320
sL2394104995L
I1074240824
sL2809631974L
I1074237020
sL590321213L
I1074239020
sL337626125L
I1074242628
sL3093528183L
I1074242468
sL3253724411L
I1074244576
sL2041884577L
I1074235368
sL2602625591L
I1074242684
sL1861083124L
I1074245972
sL14404545L
I1074242744
sL1257690091L
I1074238768
sL2228067283L
I1074245160
sL1940810383L
I1074234596
sL4204446779L
I1074240420
sL2189545890L
I1074243868
sL2116849674L
I1074235884
sL3075661818L
I1074234652
sL2071705552L
I1074235244
sL443632730L
I1074237132
sL1262056466L
I1074241324
sL1691535101L
I1074237372
sL4278135500L
I1074242076
sL3119250527L
I1074234972
sL3967059648L
I1074240856
sL3023521922L
I1074243396
sL408687978L
I1074236488
sL2979621807L
I1074243376
sL1354634503L
I1074236104
sL1286946444L
I1074240604
sL2857508841L
I1074241272
sL2626891944L
I1074245312
sL3955882486L
I1074237744
sL3608532138L
I1074242208
sL1396453881L
I1074245328
sL2750068525L
I1074237168
sL2262200348L
I1074241432
sL810535813L
I1074243416
sL3130850512L
I1074237552
sL3034782383L
I1074240440
sL1904560840L
I1074245004
sL3307233517L
I1074245036
sL1389443614L
I1074243112
sL2450486364L
I1074241236
sL55604099L
I1074243168
sL327570643L
I1074237608
sL1565404696L
I1074241008
sL2065685446L
I1074242668
sL3322980170L
I1074238592
sL879359794L
I1074235400
sL770525873L
I1074239184
sL1438782879L
I1074234612
sL355917545L
I1074235716
sL3902361720L
I1074243912
sL2552008958L
I1074240240
sL4087670087L
I1074239652
sL1991011017L
I1074242728
sL3702197710L
I1074245200
sL2256130335L
I1074243304
sL1244686807L
I1074242412
sL1533177999L
I1074237836
sL3004424702L
I1074242440
sL487448829L
I1074235348
sL2006186976L
I1074238884
sL2266575980L
I1074238308
sL3796286387L
I1074239276
sL1423398434L
I1074242256
sL1585336584L
I1074245272
sL543275158L
I1074235684
sL3496128152L
I1074239344
sL1988352767L
I1074245304
sL3935521774L
I1074236688
sL1995007383L
I1074235024
ssS'immediates'
p8
(dp9
sS'formaldups'
p10
c__builtin__
set
p11
((lp12
tp13
Rp14
sS'stringdups'
p15
g11
((lp16
tp17
Rp18
sS'fuzzydups'
p19
g11
((lp20
tp21
Rp22
sS'strings'
p23
(dp24
sS'functions'
p25
(dp26
I1074234884
(Vlog_invalid_app_partition
p27
(lp28
(L3991230301L
L0L
(lp29
(lp30
tp31
a(L3028464L
L0L
(lp32
(lp33
tp34
a(L3108165051L
L3785322319L
(lp35
(lp36
Vesp_log_early_timestamp
p37
atp38
a(L667656039L
L3785322319L
(lp39
(lp40
Vesp_log_early_timestamp
p41
atp42
a(L2297360554L
L3785322319L
(lp43
(lp44
Vesp_log_early_timestamp
p45
atp46
atp47
sI1074238592
(Vshould_map
p48
(lp49
(L2299932279L
L0L
(lp50
(lp51
tp52
a(L1182990556L
L0L
(lp53
(lp54
tp55
a(L2163029292L
L0L
(lp56
(lp57
tp58
a(L1182990556L
L0L
(lp59
(lp60
tp61
a(L1387712984L
L0L
(lp62
(lp63
tp64
atp65
sI1074237836
(Vbootloader_random_enable
p66
(lp67
(L3661732090L
L0L
(lp68
(lp69
tp70
atp71
sI1074245004
(Vrtc_clk_cal_ratio
p72
(lp73
(L1747571394L
L1880226080L
(lp74
(lp75
Vrtc_clk_cal_internal
p76
aV__udivdi3
p77
atp78
atp79
sI1074235400
(Vget_selected_boot_partition
p80
(lp81
(L3540070437L
L0L
(lp82
(lp83
tp84
a(L3836884216L
L0L
(lp85
(lp86
tp87
a(L2905923479L
L3785322319L
(lp88
(lp89
Vesp_log_early_timestamp
p90
atp91
a(L3118387733L
L3785322319L
(lp92
(lp93
Vbootloader_mmap
p94
atp95
a(L2977761475L
L3785322319L
(lp96
(lp97
Vesp_log_early_timestamp
p98
atp99
a(L786207794L
L3785322319L
(lp100
(lp101
Vbootloader_munmap
p102
atp103
a(L505089622L
L0L
(lp104
(lp105
tp106
a(L2793934716L
L0L
(lp107
(lp108
tp109
a(L515633988L
L0L
(lp110
(lp111
tp112
a(L726746666L
L3785322319L
(lp113
(lp114
Vota_select_valid
p115
atp116
a(L1828868152L
L3785322319L
(lp117
(lp118
Vota_select_valid
p119
atp120
a(L1353294186L
L0L
(lp121
(lp122
tp123
a(L726746666L
L3785322319L
(lp124
(lp125
Vota_select_valid
p126
atp127
a(L3920888185L
L0L
(lp128
(lp129
tp130
a(L788494392L
L3785322319L
(lp131
(lp132
Vota_select_valid
p133
atp134
a(L797347385L
L0L
(lp135
(lp136
tp137
a(L2258718273L
L0L
(lp138
(lp139
tp140
a(L2902417580L
L0L
(lp141
(lp142
tp143
a(L2053587437L
L0L
(lp144
(lp145
tp146
a(L4182810108L
L0L
(lp147
(lp148
tp149
a(L3330893909L
L3785322319L
(lp150
(lp151
Vesp_log_early_timestamp
p152
atp153
a(L3994895765L
L3785322319L
(lp154
(lp155
Vesp_log_early_timestamp
p156
atp157
a(L515633988L
L0L
(lp158
(lp159
tp160
a(L2993202392L
L0L
(lp161
(lp162
tp163
atp164
sI1074237320
(Vbootloader_flash_read_no_decrypt
p165
(lp166
(L2321596452L
L1880226080L
(lp167
(lp168
Vesp_rom_spiflash_read
p169
aVspi_to_esp_err
p170
atp171
atp172
sI1074242440
(Vrtc_clk_8md256_enabled
p173
(lp174
(L3812825795L
L0L
(lp175
(lp176
tp177
atp178
sI1074235024
(Vuart_console_configure
p179
(lp180
(L2032402682L
L0L
(lp181
(lp182
tp183
a(L504486364L
L0L
(lp184
(lp185
tp186
a(L966669536L
L3785322319L
(lp187
(lp188
Vrtc_clk_apb_freq_get
p189
atp190
atp191
sI1074236688
(V__assert_func
p192
(lp193
(L2562186449L
L3785322319L
(lp194
(lp195
Vesp_log_early_timestamp
p196
atp197
a(L106L
L0L
(lp198
(lp199
tp200
atp201
sI1074234652
(Vwdt_reset_info_dump
p202
(lp203
(L1642351636L
L0L
(lp204
(lp205
tp206
a(L439062810L
L0L
(lp207
(lp208
tp209
a(L3200751995L
L0L
(lp210
(lp211
tp212
a(L3028481L
L0L
(lp213
(lp214
tp215
a(L702299922L
L0L
(lp216
(lp217
tp218
a(L1886580770L
L0L
(lp219
(lp220
tp221
a(L1413004396L
L0L
(lp222
(lp223
tp224
a(L1550379252L
L0L
(lp225
(lp226
tp227
a(L3649670067L
L3785322319L
(lp228
(lp229
Vesp_log_early_timestamp
p230
atp231
a(L1217466271L
L3785322319L
(lp232
(lp233
Vesp_log_early_timestamp
p234
atp235
atp236
sI1074242076
(Vrtc_clk_32k_enable_internal
p237
(lp238
(L154567442L
L0L
(lp239
(lp240
tp241
atp242
sI1074243868
(Vrtc_clk_apb_freq_get
p243
(lp244
(L1292066514L
L3785322319L
(lp245
(lp246
Vreg_val_to_clk_val
p247
atp248
atp249
sI1074241432
(Vesp_rom_spiflash_read
p250
(lp251
(L3601166246L
L0L
(lp252
(lp253
tp254
a(L3332803810L
L0L
(lp255
(lp256
tp257
a(L3017366L
L0L
(lp258
(lp259
tp260
a(L106L
L0L
(lp261
(lp262
tp263
a(L3286136618L
L0L
(lp264
(lp265
tp266
a(L106L
L0L
(lp267
(lp268
tp269
a(L2441874382L
L0L
(lp270
(lp271
tp272
a(L1517198030L
L0L
(lp273
(lp274
tp275
a(L3718841077L
L0L
(lp276
(lp277
tp278
a(L3016870L
L0L
(lp279
(lp280
tp281
a(L3150733116L
L0L
(lp282
(lp283
tp284
a(L3016870L
L0L
(lp285
(lp286
tp287
a(L1462722112L
L0L
(lp288
(lp289
tp290
a(L1101111270L
L0L
(lp291
(lp292
tp293
a(L1965341061L
L0L
(lp294
(lp295
tp296
a(L3809187674L
L0L
(lp297
(lp298
tp299
a(L2082055565L
L0L
(lp300
(lp301
tp302
a(L1498707126L
L0L
(lp303
(lp304
tp305
a(L788288525L
L0L
(lp306
(lp307
tp308
a(L1807411127L
L3785322319L
(lp309
(lp310
Vesp_rom_spiflash_read_data
p311
atp312
a(L1298875774L
L0L
(lp313
(lp314
tp315
a(L735741265L
L0L
(lp316
(lp317
tp318
atp319
sI1074245272
(Vclk_val_is_valid
p320
(lp321
(L1156532199L
L0L
(lp322
(lp323
tp324
a(L2777277229L
L0L
(lp325
(lp326
tp327
a(L2993202392L
L0L
(lp328
(lp329
tp330
a(L2993202392L
L0L
(lp331
(lp332
tp333
a(L3880706073L
L0L
(lp334
(lp335
tp336
atp337
sI1074235684
(Vtry_load_partition
p338
(lp339
(L924710730L
L0L
(lp340
(lp341
tp342
a(L1414743230L
L3785322319L
(lp343
(lp344
Vesp_image_load
p345
atp346
a(L3880706073L
L0L
(lp347
(lp348
tp349
a(L2993202392L
L0L
(lp350
(lp351
tp352
a(L2993202392L
L0L
(lp353
(lp354
tp355
atp356
sI1074238884
(Vverify_checksum
p357
(lp358
(L7413395L
L3785322319L
(lp359
(lp360
Vbootloader_flash_read
p361
atp362
a(L512789449L
L3785322319L
(lp363
(lp364
Vesp_log_early_timestamp
p365
atp366
a(L2902417580L
L0L
(lp367
(lp368
tp369
a(L869036125L
L3785322319L
(lp370
(lp371
Vbootloader_sha256_data
p372
atp373
a(L4124473353L
L0L
(lp374
(lp375
tp376
a(L1223427414L
L0L
(lp377
(lp378
tp379
a(L755040691L
L0L
(lp380
(lp381
tp382
atp383
sI1074239652
(Vesp_image_load
p384
(lp385
(L2340434831L
L0L
(lp386
(lp387
tp388
a(L106L
L0L
(lp389
(lp390
tp391
a(L39034552L
L0L
(lp392
(lp393
tp394
a(L3028464L
L0L
(lp395
(lp396
tp397
a(L106L
L0L
(lp398
(lp399
tp400
a(L3122700244L
L3785322319L
(lp401
(lp402
Vesp_log_early_timestamp
p403
atp404
a(L3575586752L
L3785322319L
(lp405
(lp406
Vbootloader_flash_read
p407
atp408
a(L2950861325L
L0L
(lp409
(lp410
tp411
a(L2568992188L
L3785322319L
(lp412
(lp413
Vbootloader_sha256_start
p414
atp415
a(L4173212049L
L3785322319L
(lp416
(lp417
Vbootloader_sha256_data
p418
atp419
a(L2258837437L
L0L
(lp420
(lp421
tp422
a(L846347405L
L3785322319L
(lp423
(lp424
Vverify_image_header
p425
atp426
a(L1980404654L
L0L
(lp427
(lp428
tp429
a(L3028464L
L0L
(lp430
(lp431
tp432
a(L106L
L0L
(lp433
(lp434
tp435
a(L1055966504L
L3785322319L
(lp436
(lp437
Vesp_log_early_timestamp
p438
atp439
a(L2671916466L
L0L
(lp440
(lp441
tp442
a(L1898485626L
L3785322319L
(lp443
(lp444
Vprocess_segment
p445
atp446
a(L3878353414L
L0L
(lp447
(lp448
tp449
a(L2125973223L
L0L
(lp450
(lp451
tp452
a(L499151239L
L0L
(lp453
(lp454
tp455
a(L3028464L
L0L
(lp456
(lp457
tp458
a(L106L
L0L
(lp459
(lp460
tp461
a(L1584673076L
L3785322319L
(lp462
(lp463
Vesp_log_early_timestamp
p464
atp465
a(L660635180L
L3785322319L
(lp466
(lp467
Vverify_checksum
p468
atp469
a(L559065198L
L0L
(lp470
(lp471
tp472
a(L3028464L
L0L
(lp473
(lp474
tp475
a(L106L
L0L
(lp476
(lp477
tp478
a(L589600287L
L3785322319L
(lp479
(lp480
Vesp_log_early_timestamp
p481
atp482
a(L2117186100L
L0L
(lp483
(lp484
tp485
a(L3020204L
L0L
(lp486
(lp487
tp488
a(L2916090075L
L3785322319L
(lp489
(lp490
Vverify_simple_hash
p491
atp492
a(L3020204L
L0L
(lp493
(lp494
tp495
a(L3688659868L
L3785322319L
(lp496
(lp497
Vbootloader_sha256_finish
p498
atp499
a(L3028481L
L0L
(lp500
(lp501
tp502
a(L3020187L
L0L
(lp503
(lp504
tp505
a(L2993202392L
L0L
(lp506
(lp507
tp508
a(L2814963175L
L3785322319L
(lp509
(lp510
Vshould_load
p511
atp512
a(L1299866312L
L0L
(lp513
(lp514
tp515
a(L1712671152L
L0L
(lp516
(lp517
tp518
a(L417135753L
L0L
(lp519
(lp520
tp521
a(L429097989L
L0L
(lp522
(lp523
tp524
a(L1253273515L
L0L
(lp525
(lp526
tp527
a(L1191274096L
L0L
(lp528
(lp529
tp530
a(L1720234353L
L0L
(lp531
(lp532
tp533
a(L2258777855L
L0L
(lp534
(lp535
tp536
a(L85798113L
L0L
(lp537
(lp538
tp539
a(L2993202392L
L0L
(lp540
(lp541
tp542
a(L3151898214L
L0L
(lp543
(lp544
tp545
a(L1304483917L
L0L
(lp546
(lp547
tp548
a(L2258837437L
L0L
(lp549
(lp550
tp551
a(L2910371777L
L0L
(lp552
(lp553
tp554
a(L2104867244L
L0L
(lp555
(lp556
tp557
a(L3020204L
L0L
(lp558
(lp559
tp560
a(L3688659868L
L3785322319L
(lp561
(lp562
Vbootloader_sha256_finish
p563
atp564
a(L1936577983L
L0L
(lp565
(lp566
tp567
a(L2079009947L
L0L
(lp568
(lp569
tp570
a(L1191506266L
L0L
(lp571
(lp572
tp573
atp574
sI1074240420
(Vbootloader_sha256_start
p575
(lp576
(L1168427860L
L0L
(lp577
(lp578
tp579
atp580
sI1074242468
(Vrtc_clk_xtal_freq_estimate
p581
(lp582
(L2516060585L
L1880226080L
(lp583
(lp584
Vrtc_clk_8m_enabled
p585
aVrtc_clk_8md256_enabled
p586
atp587
a(L967485502L
L3785322319L
(lp588
(lp589
Vrtc_clk_8m_enable
p590
atp591
a(L3157195855L
L3785322319L
(lp592
(lp593
Vrtc_clk_cal_ratio
p594
atp595
a(L2001643137L
L0L
(lp596
(lp597
tp598
a(L353105149L
L3785322319L
(lp599
(lp600
Vesp_log_early_timestamp
p601
atp602
atp603
sI1074242208
(Vrtc_clk_32k_enable
p604
(lp605
(L753387299L
L0L
(lp606
(lp607
tp608
a(L2049031224L
L3785322319L
(lp609
(lp610
Vrtc_clk_32k_enable_internal
p611
atp612
a(L3405365910L
L0L
(lp613
(lp614
tp615
atp616
sI1074239020
(Vprocess_segment_data
p617
(lp618
(L3236683529L
L3785322319L
(lp619
(lp620
Vbootloader_mmap
p621
atp622
a(L4023456055L
L3785322319L
(lp623
(lp624
Vesp_log_early_timestamp
p625
atp626
a(L2406189368L
L3785322319L
(lp627
(lp628
Vbootloader_fill_random
p629
atp630
a(L2391265535L
L0L
(lp631
(lp632
tp633
a(L2394959619L
L0L
(lp634
(lp635
tp636
a(L1299866312L
L0L
(lp637
(lp638
tp639
a(L2008416411L
L0L
(lp640
(lp641
tp642
a(L127299853L
L0L
(lp643
(lp644
tp645
a(L417135753L
L0L
(lp646
(lp647
tp648
a(L429097989L
L0L
(lp649
(lp650
tp651
a(L4117779536L
L0L
(lp652
(lp653
tp654
a(L2902417580L
L0L
(lp655
(lp656
tp657
a(L2505185480L
L0L
(lp658
(lp659
tp660
a(L3094078540L
L3785322319L
(lp661
(lp662
Vbootloader_sha256_data
p663
atp664
a(L1770629922L
L0L
(lp665
(lp666
tp667
a(L3896226538L
L0L
(lp668
(lp669
tp670
a(L1564127900L
L3785322319L
(lp671
(lp672
Vbootloader_munmap
p673
atp674
atp675
sI1074239276
(Vshould_load
p676
(lp677
(L1808075285L
L3785322319L
(lp678
(lp679
Vshould_map
p680
atp681
a(L2896485316L
L0L
(lp682
(lp683
tp684
a(L3028464L
L0L
(lp685
(lp686
tp687
a(L438150288L
L0L
(lp688
(lp689
tp690
a(L2733279998L
L0L
(lp691
(lp692
tp693
a(L1610443436L
L0L
(lp694
(lp695
tp696
a(L1610443405L
L0L
(lp697
(lp698
tp699
a(L1298875774L
L0L
(lp700
(lp701
tp702
a(L735741265L
L0L
(lp703
(lp704
tp705
atp706
sI1074241324
(Vesp_rom_spiflash_unlock
p707
(lp708
(L2196561273L
L1880226080L
(lp709
(lp710
Vesp_rom_spiflash_wait_idle
p711
aVesp_rom_spiflash_read_statushigh
p712
atp713
a(L548277206L
L3785322319L
(lp714
(lp715
Vesp_rom_spiflash_wait_idle
p716
atp717
a(L3149034981L
L0L
(lp718
(lp719
tp720
a(L2616757102L
L1880226080L
(lp721
(lp722
Vesp_rom_spiflash_wait_idle
p723
aVesp_rom_spiflash_write_status
p724
atp725
a(L3880706073L
L0L
(lp726
(lp727
tp728
a(L2258688483L
L0L
(lp729
(lp730
tp731
a(L3360570486L
L0L
(lp732
(lp733
tp734
atp735
sI1074245036
(Vrtc_clk_wait_for_slow_cycle
p736
(lp737
(L108714869L
L0L
(lp738
(lp739
tp740
a(L96029194L
L0L
(lp741
(lp742
tp743
a(L223594404L
L0L
(lp744
(lp745
tp746
a(L3360570486L
L0L
(lp747
(lp748
tp749
atp750
sI1074237608
(Vbootloader_flash_read
p751
(lp752
(L1127605422L
L0L
(lp753
(lp754
tp755
a(L430959845L
L3785322319L
(lp756
(lp757
Vesp_log_early_timestamp
p758
atp759
a(L899934477L
L0L
(lp760
(lp761
tp762
a(L3694089639L
L3785322319L
(lp763
(lp764
Vesp_log_early_timestamp
p765
atp766
a(L2696885836L
L0L
(lp767
(lp768
tp769
a(L857157747L
L3785322319L
(lp770
(lp771
Vesp_log_early_timestamp
p772
atp773
a(L3020204L
L0L
(lp774
(lp775
tp776
a(L3807724270L
L3785322319L
(lp777
(lp778
Vbootloader_flash_read_allow_decrypt
p779
atp780
a(L1959236078L
L3785322319L
(lp781
(lp782
Vbootloader_flash_read_no_decrypt
p783
atp784
atp785
sI1074242728
(Vrtc_clk_fast_freq_get
p786
(lp787
(L2577681962L
L0L
(lp788
(lp789
tp790
atp791
sI1074243112
(Vrtc_clk_xtal_freq_get
p792
(lp793
(L4128172062L
L3785322319L
(lp794
(lp795
Vclk_val_is_valid
p796
atp797
a(L1698713263L
L3785322319L
(lp798
(lp799
Vesp_log_early_timestamp
p800
atp801
a(L880231726L
L3785322319L
(lp802
(lp803
Vreg_val_to_clk_val
p804
atp805
atp806
sI1074244648
(Vrtc_clk_cal_internal
p807
(lp808
(L4037466968L
L0L
(lp809
(lp810
tp811
a(L1951962440L
L0L
(lp812
(lp813
tp814
a(L3028464L
L0L
(lp815
(lp816
tp817
a(L4059159497L
L0L
(lp818
(lp819
tp820
a(L173860570L
L0L
(lp821
(lp822
tp823
a(L1470489052L
L0L
(lp824
(lp825
tp826
a(L97422L
L0L
(lp827
(lp828
tp829
a(L2066391447L
L0L
(lp830
(lp831
tp832
a(L3878807616L
L0L
(lp833
(lp834
tp835
a(L3878711640L
L0L
(lp836
(lp837
tp838
a(L3878711640L
L0L
(lp839
(lp840
tp841
a(L3878807616L
L0L
(lp842
(lp843
tp844
a(L3450258798L
L0L
(lp845
(lp846
tp847
a(L3157300659L
L3785322319L
(lp848
(lp849
V__udivdi3
p850
atp851
a(L224049394L
L0L
(lp852
(lp853
tp854
a(L223594900L
L0L
(lp855
(lp856
tp857
a(L3021737L
L0L
(lp858
(lp859
tp860
a(L3028464L
L0L
(lp861
(lp862
tp863
a(L1472664598L
L0L
(lp864
(lp865
tp866
a(L3028464L
L0L
(lp867
(lp868
tp869
a(L2156463244L
L0L
(lp870
(lp871
tp872
a(L2902417580L
L0L
(lp873
(lp874
tp875
a(L1181052443L
L0L
(lp876
(lp877
tp878
a(L2993202392L
L0L
(lp879
(lp880
tp881
atp882
sI1074245160
(V__bswapsi2
p883
(lp884
(L2022873180L
L0L
(lp885
(lp886
tp887
atp888
sI1074236720
(Vcall_start_cpu0
p889
(lp890
(L1492294605L
L0L
(lp891
(lp892
tp893
a(L1427973090L
L0L
(lp894
(lp895
tp896
a(L93837694L
L0L
(lp897
(lp898
tp899
a(L1784400596L
L0L
(lp900
(lp901
tp902
a(L2491720181L
L3785322319L
(lp903
(lp904
V__assert_func
p905
atp906
a(L3898741891L
L0L
(lp907
(lp908
tp909
a(L3316679297L
L3785322319L
(lp910
(lp911
V__assert_func
p912
atp913
a(L1890776217L
L0L
(lp914
(lp915
tp916
a(L2225358458L
L3785322319L
(lp917
(lp918
V__assert_func
p919
atp920
a(L1923099452L
L0L
(lp921
(lp922
tp923
a(L1986831115L
L3785322319L
(lp924
(lp925
V__assert_func
p926
atp927
a(L2978679951L
L3785322319L
(lp928
(lp929
Vbootloader_main
p930
atp931
atp932
sI1074237744
(Vbootloader_fill_random
p933
(lp934
(L173175206L
L0L
(lp935
(lp936
tp937
a(L2902417580L
L0L
(lp938
(lp939
tp940
a(L3448782426L
L0L
(lp941
(lp942
tp943
a(L659436827L
L0L
(lp944
(lp945
tp946
a(L3715207146L
L0L
(lp947
(lp948
tp949
a(L713870975L
L0L
(lp950
(lp951
tp952
a(L2192561533L
L0L
(lp953
(lp954
tp955
a(L3360570486L
L0L
(lp956
(lp957
tp958
atp959
sI1074238640
(Vverify_image_header
p960
(lp961
(L646134928L
L0L
(lp962
(lp963
tp964
a(L3028481L
L0L
(lp965
(lp966
tp967
a(L1652199772L
L3785322319L
(lp968
(lp969
Vesp_log_early_timestamp
p970
atp971
a(L1302636875L
L0L
(lp972
(lp973
tp974
a(L3901818603L
L0L
(lp975
(lp976
tp977
a(L3028481L
L0L
(lp978
(lp979
tp980
a(L3270243289L
L0L
(lp981
(lp982
tp983
a(L4158879407L
L3785322319L
(lp984
(lp985
Vesp_log_early_timestamp
p986
atp987
a(L385352084L
L0L
(lp988
(lp989
tp990
a(L1789167955L
L3785322319L
(lp991
(lp992
Vesp_log_early_timestamp
p993
atp994
a(L464010095L
L0L
(lp995
(lp996
tp997
atp998
sI1074238768
(Vverify_segment_header
p999
(lp1000
(L3674778058L
L0L
(lp1001
(lp1002
tp1003
a(L51811527L
L0L
(lp1004
(lp1005
tp1006
a(L3028481L
L0L
(lp1007
(lp1008
tp1009
a(L3441634827L
L3785322319L
(lp1010
(lp1011
Vesp_log_early_timestamp
p1012
atp1013
a(L536784482L
L3785322319L
(lp1014
(lp1015
Vshould_map
p1016
atp1017
a(L3496178735L
L0L
(lp1018
(lp1019
tp1020
a(L2910371777L
L0L
(lp1021
(lp1022
tp1023
a(L577923782L
L3785322319L
(lp1024
(lp1025
Vesp_log_early_timestamp
p1026
atp1027
a(L1121815838L
L0L
(lp1028
(lp1029
tp1030
a(L2993202392L
L0L
(lp1031
(lp1032
tp1033
a(L2993202392L
L0L
(lp1034
(lp1035
tp1036
a(L1121815838L
L0L
(lp1037
(lp1038
tp1039
atp1040
sI1074243376
(Vrtc_clk_xtal_freq_update
p1041
(lp1042
(L632966201L
L3785322319L
(lp1043
(lp1044
Vclk_val_to_reg_val
p1045
atp1046
atp1047
sI1074237372
(Vbootloader_mmap
p1048
(lp1049
(L2940957517L
L0L
(lp1050
(lp1051
tp1052
a(L2039539766L
L3785322319L
(lp1053
(lp1054
Vesp_log_early_timestamp
p1055
atp1056
a(L1447536886L
L0L
(lp1057
(lp1058
tp1059
a(L1265169288L
L3785322319L
(lp1060
(lp1061
Vesp_log_early_timestamp
p1062
atp1063
a(L4150615347L
L0L
(lp1064
(lp1065
tp1066
a(L2830656354L
L3785322319L
(lp1067
(lp1068
Vesp_log_early_timestamp
p1069
atp1070
a(L2743656977L
L0L
(lp1071
(lp1072
tp1073
atp1074
sI1074240956
(Vesp_rom_spiflash_wait_idle
p1075
(lp1076
(L287326052L
L0L
(lp1077
(lp1078
tp1079
a(L1063754074L
L0L
(lp1080
(lp1081
tp1082
a(L3670710366L
L0L
(lp1083
(lp1084
tp1085
a(L855829385L
L3785322319L
(lp1086
(lp1087
Vesp_rom_spiflash_read_status
p1088
atp1089
a(L1298875774L
L0L
(lp1090
(lp1091
tp1092
a(L735741265L
L0L
(lp1093
(lp1094
tp1095
atp1096
sI1074240824
(Vesp_log_early_timestamp
p1097
(lp1098
(L2743358588L
L0L
(lp1099
(lp1100
tp1101
atp1102
sI1074240440
(Vbootloader_sha256_data
p1103
(lp1104
(L4037466985L
L0L
(lp1105
(lp1106
tp1107
a(L1249359743L
L3785322319L
(lp1108
(lp1109
V__assert_func
p1110
atp1111
a(L2660352519L
L0L
(lp1112
(lp1113
tp1114
a(L3076173171L
L3785322319L
(lp1115
(lp1116
V__assert_func
p1117
atp1118
a(L66409669L
L0L
(lp1119
(lp1120
tp1121
a(L3496841266L
L0L
(lp1122
(lp1123
tp1124
a(L1131741204L
L0L
(lp1125
(lp1126
tp1127
a(L106L
L0L
(lp1128
(lp1129
tp1130
a(L3725268476L
L3785322319L
(lp1131
(lp1132
V__bswapsi2
p1133
atp1134
a(L3027019L
L0L
(lp1135
(lp1136
tp1137
a(L4269209705L
L0L
(lp1138
(lp1139
tp1140
a(L3028464L
L0L
(lp1141
(lp1142
tp1143
a(L4013853051L
L0L
(lp1144
(lp1145
tp1146
a(L4222913540L
L0L
(lp1147
(lp1148
tp1149
a(L3028481L
L0L
(lp1150
(lp1151
tp1152
a(L3360570486L
L0L
(lp1153
(lp1154
tp1155
atp1156
sI1074242744
(Vrtc_clk_bbpll_set
p1157
(lp1158
(L4037466968L
L0L
(lp1159
(lp1160
tp1161
a(L106L
L0L
(lp1162
(lp1163
tp1164
a(L1025733819L
L0L
(lp1165
(lp1166
tp1167
a(L2635425305L
L0L
(lp1168
(lp1169
tp1170
a(L2634502051L
L0L
(lp1171
(lp1172
tp1173
a(L106L
L0L
(lp1174
(lp1175
tp1176
a(L3145948254L
L0L
(lp1177
(lp1178
tp1179
a(L21216729L
L0L
(lp1180
(lp1181
tp1182
a(L2377105039L
L0L
(lp1183
(lp1184
tp1185
a(L1940347058L
L0L
(lp1186
(lp1187
tp1188
a(L3811368032L
L0L
(lp1189
(lp1190
tp1191
a(L4186120747L
L0L
(lp1192
(lp1193
tp1194
a(L2635425305L
L0L
(lp1195
(lp1196
tp1197
a(L2634502051L
L0L
(lp1198
(lp1199
tp1200
a(L106L
L0L
(lp1201
(lp1202
tp1203
a(L1566659442L
L0L
(lp1204
(lp1205
tp1206
a(L790959749L
L0L
(lp1207
(lp1208
tp1209
a(L2377105039L
L0L
(lp1210
(lp1211
tp1212
a(L1965177478L
L0L
(lp1213
(lp1214
tp1215
a(L1917143992L
L0L
(lp1216
(lp1217
tp1218
a(L3589410515L
L3785322319L
(lp1219
(lp1220
Vrtc_clk_slow_freq_get
p1221
atp1222
a(L2679108412L
L0L
(lp1223
(lp1224
tp1225
a(L2780081410L
L0L
(lp1226
(lp1227
tp1228
a(L1351752322L
L0L
(lp1229
(lp1230
tp1231
atp1232
sI1074245304
(Vreg_val_to_clk_val
p1233
(lp1234
(L2577655222L
L0L
(lp1235
(lp1236
tp1237
atp1238
sI1074235716
(Vload_boot_image
p1239
(lp1240
(L287490935L
L0L
(lp1241
(lp1242
tp1243
a(L648555606L
L3785322319L
(lp1244
(lp1245
Vindex_to_partition
p1246
atp1247
a(L286580406L
L3785322319L
(lp1248
(lp1249
Vtry_load_partition
p1250
atp1251
a(L1419760378L
L3785322319L
(lp1252
(lp1253
Vlog_invalid_app_partition
p1254
atp1255
a(L1720077932L
L0L
(lp1256
(lp1257
tp1258
a(L3021737L
L0L
(lp1259
(lp1260
tp1261
a(L1718387311L
L0L
(lp1262
(lp1263
tp1264
a(L3142011L
L3785322319L
(lp1265
(lp1266
Vindex_to_partition
p1267
atp1268
a(L286580406L
L3785322319L
(lp1269
(lp1270
Vtry_load_partition
p1271
atp1272
a(L1419760378L
L3785322319L
(lp1273
(lp1274
Vlog_invalid_app_partition
p1275
atp1276
a(L3364601369L
L0L
(lp1277
(lp1278
tp1279
a(L3305857427L
L0L
(lp1280
(lp1281
tp1282
a(L3716078733L
L3785322319L
(lp1283
(lp1284
Vtry_load_partition
p1285
atp1286
a(L2749254277L
L3785322319L
(lp1287
(lp1288
Vesp_log_early_timestamp
p1289
atp1290
a(L3037778913L
L3785322319L
(lp1291
(lp1292
Vesp_log_early_timestamp
p1293
atp1294
a(L1351513776L
L0L
(lp1295
(lp1296
tp1297
atp1298
sI1074242628
(Vrtc_clk_slow_freq_set
p1299
(lp1300
(L3924565636L
L0L
(lp1301
(lp1302
tp1303
atp1304
sI1074243396
(Vrtc_clk_apb_freq_update
p1305
(lp1306
(L1366124960L
L3785322319L
(lp1307
(lp1308
Vclk_val_to_reg_val
p1309
atp1310
atp1311
sI1074245312
(Vclk_val_to_reg_val
p1312
(lp1313
(L2997976715L
L0L
(lp1314
(lp1315
tp1316
atp1317
sI1074237132
(Vspi_to_esp_err
p1318
(lp1319
(L4037458691L
L0L
(lp1320
(lp1321
tp1322
a(L2902417580L
L0L
(lp1323
(lp1324
tp1325
a(L3020187L
L0L
(lp1326
(lp1327
tp1328
a(L106L
L0L
(lp1329
(lp1330
tp1331
a(L2993202392L
L0L
(lp1332
(lp1333
tp1334
a(L2625734057L
L0L
(lp1335
(lp1336
tp1337
a(L515633988L
L0L
(lp1338
(lp1339
tp1340
a(L3117781438L
L0L
(lp1341
(lp1342
tp1343
atp1344
sI1074244300
(Vrtc_vddsdio_get_config
p1345
(lp1346
(L4213666423L
L0L
(lp1347
(lp1348
tp1349
a(L3004889475L
L0L
(lp1350
(lp1351
tp1352
a(L81681489L
L0L
(lp1353
(lp1354
tp1355
a(L957526495L
L0L
(lp1356
(lp1357
tp1358
a(L2499155160L
L0L
(lp1359
(lp1360
tp1361
a(L2541452264L
L0L
(lp1362
(lp1363
tp1364
a(L3360570486L
L0L
(lp1365
(lp1366
tp1367
atp1368
sI1074236488
(Vbootloader_main
p1369
(lp1370
(L4013993692L
L665916544L
(lp1371
(lp1372
Vvddsdio_configure
p1373
aVflash_gpio_configure
p1374
aVbootloader_clock_configure
p1375
aVuart_console_configure
p1376
aVwdt_reset_check
p1377
aVesp_rom_spiflash_unlock
p1378
aVbootloader_random_enable
p1379
aVbootloader_flash_read
p1380
atp1381
a(L322564569L
L3785322319L
(lp1382
(lp1383
Vesp_log_early_timestamp
p1384
atp1385
a(L3448435460L
L1832448559L
(lp1386
(lp1387
Vprint_flash_info
p1388
aVupdate_flash_config
p1389
aVload_partition_table
p1390
atp1391
a(L4248688133L
L3785322319L
(lp1392
(lp1393
Vesp_log_early_timestamp
p1394
atp1395
a(L4158121515L
L3785322319L
(lp1396
(lp1397
Vget_selected_boot_partition
p1398
atp1399
a(L1065990908L
L3785322319L
(lp1400
(lp1401
Vload_boot_image
p1402
atp1403
a(L3374346840L
L1880226080L
(lp1404
(lp1405
Vbootloader_random_disable
p1406
aVunpack_load_app
p1407
atp1408
a(L3360570486L
L0L
(lp1409
(lp1410
tp1411
atp1412
sI1074236104
(Vunpack_load_app
p1413
(lp1414
(L1842422795L
L0L
(lp1415
(lp1416
tp1417
a(L813076919L
L0L
(lp1418
(lp1419
tp1420
a(L2902417580L
L0L
(lp1421
(lp1422
tp1423
a(L2360186430L
L3785322319L
(lp1424
(lp1425
Vesp_log_early_timestamp
p1426
atp1427
a(L3411822821L
L0L
(lp1428
(lp1429
tp1430
a(L676142487L
L0L
(lp1431
(lp1432
tp1433
a(L2902417580L
L0L
(lp1434
(lp1435
tp1436
a(L2113873343L
L3785322319L
(lp1437
(lp1438
Vesp_log_early_timestamp
p1439
atp1440
a(L87648306L
L0L
(lp1441
(lp1442
tp1443
a(L1799288861L
L0L
(lp1444
(lp1445
tp1446
a(L350965691L
L0L
(lp1447
(lp1448
tp1449
a(L106L
L0L
(lp1450
(lp1451
tp1452
a(L217356493L
L3785322319L
(lp1453
(lp1454
Vset_cache_and_start_app
p1455
atp1456
atp1457
sI1074235080
(Vwdt_reset_check
p1458
(lp1459
(L165450156L
L0L
(lp1460
(lp1461
tp1462
a(L3020187L
L0L
(lp1463
(lp1464
tp1465
a(L367582592L
L0L
(lp1466
(lp1467
tp1468
a(L367642441L
L0L
(lp1469
(lp1470
tp1471
a(L1064448549L
L3785322319L
(lp1472
(lp1473
Vesp_log_early_timestamp
p1474
atp1475
a(L1298905564L
L0L
(lp1476
(lp1477
tp1478
a(L1465910262L
L0L
(lp1479
(lp1480
tp1481
a(L3020187L
L0L
(lp1482
(lp1483
tp1484
a(L225031483L
L0L
(lp1485
(lp1486
tp1487
a(L225091332L
L0L
(lp1488
(lp1489
tp1490
a(L978725353L
L3785322319L
(lp1491
(lp1492
Vesp_log_early_timestamp
p1493
atp1494
a(L3020204L
L0L
(lp1495
(lp1496
tp1497
a(L1944713791L
L1880226080L
(lp1498
(lp1499
Vwdt_reset_info_dump
p1500
aVwdt_reset_info_dump
p1501
atp1502
a(L3738038928L
L3785322319L
(lp1503
(lp1504
Vwdt_reset_cpu0_info_enable
p1505
atp1506
atp1507
sI1074243912
(Vrtc_clk_init
p1508
(lp1509
(L3337904550L
L3785322319L
(lp1510
(lp1511
Vrtc_clk_cpu_freq_get
p1512
atp1513
a(L4140200509L
L3785322319L
(lp1514
(lp1515
Vrtc_clk_cpu_freq_set
p1516
atp1517
a(L3390315284L
L0L
(lp1518
(lp1519
tp1520
a(L2909109169L
L3785322319L
(lp1521
(lp1522
Vclk_val_is_valid
p1523
atp1524
a(L2514117845L
L3785322319L
(lp1525
(lp1526
Vrtc_clk_xtal_freq_get
p1527
atp1528
a(L1375577398L
L3785322319L
(lp1529
(lp1530
Vrtc_clk_xtal_freq_estimate
p1531
atp1532
a(L3154526338L
L3785322319L
(lp1533
(lp1534
Vesp_log_early_timestamp
p1535
atp1536
a(L3603886438L
L3785322319L
(lp1537
(lp1538
Vclk_val_is_valid
p1539
atp1540
a(L3183127930L
L3785322319L
(lp1541
(lp1542
Vrtc_clk_xtal_freq_estimate
p1543
atp1544
a(L2223358860L
L3785322319L
(lp1545
(lp1546
Vesp_log_early_timestamp
p1547
atp1548
a(L504486364L
L0L
(lp1549
(lp1550
tp1551
a(L2080258449L
L1157885199L
(lp1552
(lp1553
Vrtc_clk_xtal_freq_update
p1554
aVrtc_clk_apb_freq_update
p1555
aVrtc_clk_cpu_freq_set
p1556
aVrtc_clk_cpu_freq_value
p1557
aVrtc_clk_cpu_freq_value
p1558
atp1559
a(L3804637084L
L3785322319L
(lp1560
(lp1561
Vrtc_clk_32k_enable
p1562
atp1563
a(L3016870L
L0L
(lp1564
(lp1565
tp1566
a(L3193366786L
L3785322319L
(lp1567
(lp1568
Vrtc_clk_8m_enable
p1569
atp1570
a(L2766966958L
L1880226080L
(lp1571
(lp1572
Vrtc_clk_fast_freq_set
p1573
aVrtc_clk_slow_freq_set
p1574
atp1575
atp1576
sI1074235348
(Vota_select_crc
p1577
(lp1578
(L3720854079L
L0L
(lp1579
(lp1580
tp1581
atp1582
sI1074241236
(Vesp_rom_spiflash_read_statushigh
p1583
(lp1584
(L3670986766L
L3785322319L
(lp1585
(lp1586
Vesp_rom_spiflash_wait_idle
p1587
atp1588
atp1589
sI1074245972
(Vflash_gpio_configure
p1590
(lp1591
(L2710074298L
L0L
(lp1592
(lp1593
tp1594
a(L4289849982L
L0L
(lp1595
(lp1596
tp1597
a(L3028464L
L0L
(lp1598
(lp1599
tp1600
a(L4289849982L
L0L
(lp1601
(lp1602
tp1603
a(L3028464L
L0L
(lp1604
(lp1605
tp1606
a(L4289849982L
L0L
(lp1607
(lp1608
tp1609
a(L2347782852L
L0L
(lp1610
(lp1611
tp1612
a(L3268094913L
L0L
(lp1613
(lp1614
tp1615
a(L3360570486L
L0L
(lp1616
(lp1617
tp1618
atp1619
sI1074239184
(Vverify_simple_hash
p1620
(lp1621
(L3553828016L
L1880226080L
(lp1622
(lp1623
Vbootloader_sha256_finish
p1624
aVbootloader_mmap
p1625
atp1626
a(L2273228493L
L1880226080L
(lp1627
(lp1628
Vesp_log_early_timestamp
p1629
aVbootloader_munmap
p1630
atp1631
a(L1606099250L
L3785322319L
(lp1632
(lp1633
Vbootloader_munmap
p1634
atp1635
atp1636
sI1074242256
(Vrtc_clk_8m_enable
p1637
(lp1638
(L1474360438L
L0L
(lp1639
(lp1640
tp1641
a(L2741044219L
L0L
(lp1642
(lp1643
tp1644
a(L3749381923L
L0L
(lp1645
(lp1646
tp1647
a(L3170878765L
L0L
(lp1648
(lp1649
tp1650
a(L3510199860L
L0L
(lp1651
(lp1652
tp1653
a(L2994347056L
L0L
(lp1654
(lp1655
tp1656
atp1657
sI1074245200
(Vindex_to_partition
p1658
(lp1659
(L4066096119L
L0L
(lp1660
(lp1661
tp1662
a(L937847257L
L0L
(lp1663
(lp1664
tp1665
a(L2808906342L
L0L
(lp1666
(lp1667
tp1668
a(L1765918994L
L0L
(lp1669
(lp1670
tp1671
a(L2808826781L
L0L
(lp1672
(lp1673
tp1674
a(L2911029954L
L0L
(lp1675
(lp1676
tp1677
a(L2511483031L
L0L
(lp1678
(lp1679
tp1680
a(L1984670054L
L0L
(lp1681
(lp1682
tp1683
a(L3698927993L
L0L
(lp1684
(lp1685
tp1686
atp1687
sI1074245328
(V__udivdi3
p1688
(lp1689
(L1385793588L
L0L
(lp1690
(lp1691
tp1692
a(L3027019L
L0L
(lp1693
(lp1694
tp1695
a(L106L
L0L
(lp1696
(lp1697
tp1698
a(L2092509388L
L0L
(lp1699
(lp1700
tp1701
a(L3502386743L
L0L
(lp1702
(lp1703
tp1704
a(L1366962904L
L0L
(lp1705
(lp1706
tp1707
a(L438338333L
L0L
(lp1708
(lp1709
tp1710
a(L3027019L
L0L
(lp1711
(lp1712
tp1713
a(L1598954342L
L0L
(lp1714
(lp1715
tp1716
a(L3753924055L
L0L
(lp1717
(lp1718
tp1719
a(L1897931368L
L0L
(lp1720
(lp1721
tp1722
a(L1870013079L
L0L
(lp1723
(lp1724
tp1725
a(L3021749L
L0L
(lp1726
(lp1727
tp1728
a(L2802159608L
L0L
(lp1729
(lp1730
tp1731
a(L3888552627L
L0L
(lp1732
(lp1733
tp1734
a(L2632174215L
L0L
(lp1735
(lp1736
tp1737
a(L2910371777L
L0L
(lp1738
(lp1739
tp1740
a(L305663930L
L0L
(lp1741
(lp1742
tp1743
a(L2740121073L
L0L
(lp1744
(lp1745
tp1746
a(L706293450L
L0L
(lp1747
(lp1748
tp1749
a(L4229162210L
L0L
(lp1750
(lp1751
tp1752
a(L2843085605L
L0L
(lp1753
(lp1754
tp1755
a(L3027019L
L0L
(lp1756
(lp1757
tp1758
a(L3073587686L
L0L
(lp1759
(lp1760
tp1761
a(L3122262879L
L0L
(lp1762
(lp1763
tp1764
a(L1300871293L
L0L
(lp1765
(lp1766
tp1767
a(L94415139L
L0L
(lp1768
(lp1769
tp1770
a(L3027019L
L0L
(lp1771
(lp1772
tp1773
a(L11368960L
L0L
(lp1774
(lp1775
tp1776
a(L3212626947L
L0L
(lp1777
(lp1778
tp1779
a(L3756070799L
L0L
(lp1780
(lp1781
tp1782
a(L1029992261L
L0L
(lp1783
(lp1784
tp1785
a(L438338333L
L0L
(lp1786
(lp1787
tp1788
a(L3027019L
L0L
(lp1789
(lp1790
tp1791
a(L2534896770L
L0L
(lp1792
(lp1793
tp1794
a(L2789765947L
L0L
(lp1795
(lp1796
tp1797
a(L3482374298L
L0L
(lp1798
(lp1799
tp1800
a(L1870018349L
L0L
(lp1801
(lp1802
tp1803
a(L3027019L
L0L
(lp1804
(lp1805
tp1806
a(L2802159608L
L0L
(lp1807
(lp1808
tp1809
a(L3888552627L
L0L
(lp1810
(lp1811
tp1812
a(L36877582L
L0L
(lp1813
(lp1814
tp1815
a(L3021749L
L0L
(lp1816
(lp1817
tp1818
a(L106L
L0L
(lp1819
(lp1820
tp1821
a(L3988749468L
L0L
(lp1822
(lp1823
tp1824
a(L1375050317L
L0L
(lp1825
(lp1826
tp1827
a(L4185861754L
L0L
(lp1828
(lp1829
tp1830
a(L892947480L
L0L
(lp1831
(lp1832
tp1833
a(L2258688482L
L0L
(lp1834
(lp1835
tp1836
a(L2856348002L
L0L
(lp1837
(lp1838
tp1839
a(L1351383952L
L0L
(lp1840
(lp1841
tp1842
a(L1681866360L
L0L
(lp1843
(lp1844
tp1845
a(L3021749L
L0L
(lp1846
(lp1847
tp1848
a(L4115096326L
L0L
(lp1849
(lp1850
tp1851
a(L2229771582L
L0L
(lp1852
(lp1853
tp1854
a(L3630858718L
L0L
(lp1855
(lp1856
tp1857
a(L1986658244L
L0L
(lp1858
(lp1859
tp1860
a(L3027019L
L0L
(lp1861
(lp1862
tp1863
a(L2802159608L
L0L
(lp1864
(lp1865
tp1866
a(L2938387302L
L0L
(lp1867
(lp1868
tp1869
a(L3219580898L
L0L
(lp1870
(lp1871
tp1872
a(L4280816470L
L0L
(lp1873
(lp1874
tp1875
a(L97422L
L0L
(lp1876
(lp1877
tp1878
a(L1621601873L
L0L
(lp1879
(lp1880
tp1881
a(L3070693089L
L0L
(lp1882
(lp1883
tp1884
a(L2361595480L
L0L
(lp1885
(lp1886
tp1887
a(L539227760L
L0L
(lp1888
(lp1889
tp1890
atp1891
sI1074234972
(Vvddsdio_configure
p1892
(lp1893
(L1829974089L
L3785322319L
(lp1894
(lp1895
Vrtc_vddsdio_get_config
p1896
atp1897
a(L3323716751L
L3785322319L
(lp1898
(lp1899
Vrtc_vddsdio_set_config
p1900
atp1901
a(L3360570486L
L0L
(lp1902
(lp1903
tp1904
atp1905
sI1074237020
(Vbootloader_clock_configure
p1906
(lp1907
(L3493042567L
L0L
(lp1908
(lp1909
tp1910
a(L1720272284L
L0L
(lp1911
(lp1912
tp1913
a(L3563904804L
L1832448559L
(lp1914
(lp1915
Vrtc_clk_slow_freq_get
p1916
aVrtc_clk_fast_freq_get
p1917
aVrtc_clk_init
p1918
atp1919
atp1920
sI1074240604
(Vbootloader_sha256_finish
p1921
(lp1922
(L4066096136L
L0L
(lp1923
(lp1924
tp1925
a(L2963499225L
L3785322319L
(lp1926
(lp1927
V__assert_func
p1928
atp1929
a(L3020204L
L0L
(lp1930
(lp1931
tp1932
a(L2892942400L
L0L
(lp1933
(lp1934
tp1935
a(L2534656226L
L0L
(lp1936
(lp1937
tp1938
a(L321015369L
L0L
(lp1939
(lp1940
tp1941
a(L2342975453L
L3785322319L
(lp1942
(lp1943
V__assert_func
p1944
atp1945
a(L2587112756L
L3785322319L
(lp1946
(lp1947
Vbootloader_sha256_data
p1948
atp1949
a(L3223443486L
L3785322319L
(lp1950
(lp1951
V__assert_func
p1952
atp1953
a(L3607599108L
L1880226080L
(lp1954
(lp1955
V__bswapsi2
p1956
aVbootloader_sha256_data
p1957
atp1958
a(L913120400L
L3785322319L
(lp1959
(lp1960
V__assert_func
p1961
atp1962
a(L1131732910L
L0L
(lp1963
(lp1964
tp1965
a(L944218557L
L0L
(lp1966
(lp1967
tp1968
a(L1131732910L
L0L
(lp1969
(lp1970
tp1971
a(L1299866312L
L0L
(lp1972
(lp1973
tp1974
a(L3208918271L
L3785322319L
(lp1975
(lp1976
V__bswapsi2
p1977
atp1978
a(L93837694L
L0L
(lp1979
(lp1980
tp1981
a(L3347778L
L0L
(lp1982
(lp1983
tp1984
a(L3360570486L
L0L
(lp1985
(lp1986
tp1987
atp1988
sI1074240856
(Vesp_rom_spiflash_read_status
p1989
(lp1990
(L3180600581L
L0L
(lp1991
(lp1992
tp1993
a(L106L
L0L
(lp1994
(lp1995
tp1996
a(L3024022055L
L0L
(lp1997
(lp1998
tp1999
a(L3149034981L
L0L
(lp2000
(lp2001
tp2002
a(L246912421L
L0L
(lp2003
(lp2004
tp2005
a(L4159619641L
L0L
(lp2006
(lp2007
tp2008
a(L106L
L0L
(lp2009
(lp2010
tp2011
a(L1367290652L
L0L
(lp2012
(lp2013
tp2014
a(L4159619641L
L0L
(lp2015
(lp2016
tp2017
a(L2392720019L
L0L
(lp2018
(lp2019
tp2020
atp2021
sI1074243416
(Vrtc_clk_cpu_freq_set
p2022
(lp2023
(L3811767827L
L1832448559L
(lp2024
(lp2025
Vrtc_clk_xtal_freq_get
p2026
aVrtc_clk_wait_for_slow_cycle
p2027
aVrtc_clk_apb_freq_update
p2028
atp2029
a(L2505953603L
L0L
(lp2030
(lp2031
tp2032
a(L3020204L
L0L
(lp2033
(lp2034
tp2035
a(L3028464L
L0L
(lp2036
(lp2037
tp2038
a(L4110123853L
L3785322319L
(lp2039
(lp2040
Vrtc_clk_apb_freq_update
p2041
atp2042
a(L3079891458L
L3785322319L
(lp2043
(lp2044
Vrtc_clk_bbpll_set
p2045
atp2046
a(L3455028233L
L0L
(lp2047
(lp2048
tp2049
a(L3028464L
L0L
(lp2050
(lp2051
tp2052
a(L3984021353L
L0L
(lp2053
(lp2054
tp2055
a(L3028464L
L0L
(lp2056
(lp2057
tp2058
a(L2689134062L
L0L
(lp2059
(lp2060
tp2061
a(L3152887469L
L1880226080L
(lp2062
(lp2063
Vrtc_clk_wait_for_slow_cycle
p2064
aVrtc_clk_apb_freq_update
p2065
atp2066
a(L2312364487L
L0L
(lp2067
(lp2068
tp2069
atp2070
sI1074238308
(Vbootloader_random_disable
p2071
(lp2072
(L3625263335L
L0L
(lp2073
(lp2074
tp2075
atp2076
sI1074234596
(Vprint_flash_info
p2077
(lp2078
(L995437211L
L0L
(lp2079
(lp2080
tp2081
atp2082
sI1074243168
(Vrtc_clk_cpu_freq_get
p2083
(lp2084
(L3107896325L
L0L
(lp2085
(lp2086
tp2087
a(L3020187L
L0L
(lp2088
(lp2089
tp2090
a(L106L
L0L
(lp2091
(lp2092
tp2093
a(L3186390371L
L0L
(lp2094
(lp2095
tp2096
a(L160790007L
L3785322319L
(lp2097
(lp2098
Vrtc_clk_xtal_freq_get
p2099
atp2100
a(L3542012831L
L3785322319L
(lp2101
(lp2102
V__assert_func
p2103
atp2104
a(L2677720997L
L0L
(lp2105
(lp2106
tp2107
a(L3020187L
L0L
(lp2108
(lp2109
tp2110
a(L3020187L
L0L
(lp2111
(lp2112
tp2113
a(L4035679931L
L3785322319L
(lp2114
(lp2115
V__assert_func
p2116
atp2117
a(L4159096706L
L3785322319L
(lp2118
(lp2119
V__assert_func
p2120
atp2121
a(L2993202392L
L0L
(lp2122
(lp2123
tp2124
a(L2248249820L
L0L
(lp2125
(lp2126
tp2127
a(L3880706073L
L0L
(lp2128
(lp2129
tp2130
a(L473242458L
L0L
(lp2131
(lp2132
tp2133
a(L1360746139L
L0L
(lp2134
(lp2135
tp2136
atp2137
sI1074244576
(Vrtc_vddsdio_set_config
p2138
(lp2139
(L2993539896L
L0L
(lp2140
(lp2141
tp2142
atp2143
sI1074235244
(Vupdate_flash_config
p2144
(lp2145
(L1046059555L
L0L
(lp2146
(lp2147
tp2148
a(L93674324L
L0L
(lp2149
(lp2150
tp2151
a(L2902417580L
L0L
(lp2152
(lp2153
tp2154
a(L106L
L0L
(lp2155
(lp2156
tp2157
a(L3020187L
L0L
(lp2158
(lp2159
tp2160
a(L3020187L
L0L
(lp2161
(lp2162
tp2163
a(L106L
L0L
(lp2164
(lp2165
tp2166
a(L1299866343L
L0L
(lp2167
(lp2168
tp2169
a(L1299866436L
L0L
(lp2170
(lp2171
tp2172
a(L1299866560L
L0L
(lp2173
(lp2174
tp2175
a(L1641149277L
L0L
(lp2176
(lp2177
tp2178
a(L2258688484L
L0L
(lp2179
(lp2180
tp2181
a(L1948734103L
L0L
(lp2182
(lp2183
tp2184
atp2185
sI1074235884
(Vset_cache_and_start_app
p2186
(lp2187
(L1092204085L
L0L
(lp2188
(lp2189
tp2190
a(L2974963660L
L0L
(lp2191
(lp2192
tp2193
a(L1548223148L
L0L
(lp2194
(lp2195
tp2196
a(L3180114881L
L0L
(lp2197
(lp2198
tp2199
atp2200
sI1074242412
(Vrtc_clk_8m_enabled
p2201
(lp2202
(L415137983L
L0L
(lp2203
(lp2204
tp2205
atp2206
sI1074242668
(Vrtc_clk_slow_freq_get
p2207
(lp2208
(L3268672138L
L0L
(lp2209
(lp2210
tp2211
atp2212
sI1074235368
(Vota_select_valid
p2213
(lp2214
(L2808438197L
L0L
(lp2215
(lp2216
tp2217
a(L3881267543L
L3785322319L
(lp2218
(lp2219
Vota_select_crc
p2220
atp2221
a(L3880706073L
L0L
(lp2222
(lp2223
tp2224
a(L2993202392L
L0L
(lp2225
(lp2226
tp2227
a(L2993202392L
L0L
(lp2228
(lp2229
tp2230
atp2231
sI1074243304
(Vrtc_clk_cpu_freq_value
p2232
(lp2233
(L607216364L
L0L
(lp2234
(lp2235
tp2236
a(L519960166L
L0L
(lp2237
(lp2238
tp2239
a(L128552619L
L3785322319L
(lp2240
(lp2241
V__assert_func
p2242
atp2243
atp2244
sI1074234612
(Vwdt_reset_cpu0_info_enable
p2245
(lp2246
(L1042221234L
L0L
(lp2247
(lp2248
tp2249
atp2250
sI1074237168
(Vbootloader_flash_read_allow_decrypt
p2251
(lp2252
(L3381655731L
L0L
(lp2253
(lp2254
tp2255
a(L2194410012L
L0L
(lp2256
(lp2257
tp2258
a(L1759740164L
L0L
(lp2259
(lp2260
tp2261
a(L1881370998L
L3785322319L
(lp2262
(lp2263
Vesp_log_early_timestamp
p2264
atp2265
a(L341081924L
L0L
(lp2266
(lp2267
tp2268
a(L3448535438L
L0L
(lp2269
(lp2270
tp2271
a(L3423665670L
L0L
(lp2272
(lp2273
tp2274
a(L106L
L0L
(lp2275
(lp2276
tp2277
a(L2993202392L
L0L
(lp2278
(lp2279
tp2280
atp2281
sI1074237552
(Vbootloader_munmap
p2282
(lp2283
(L3791659265L
L0L
(lp2284
(lp2285
tp2286
a(L2179348005L
L0L
(lp2287
(lp2288
tp2289
a(L3360570486L
L0L
(lp2290
(lp2291
tp2292
atp2293
sI1074239344
(Vprocess_segment
p2294
(lp2295
(L2437305297L
L3785322319L
(lp2296
(lp2297
Vbootloader_flash_read
p2298
atp2299
a(L29199553L
L3785322319L
(lp2300
(lp2301
Vesp_log_early_timestamp
p2302
atp2303
a(L3020204L
L0L
(lp2304
(lp2305
tp2306
a(L574350325L
L3785322319L
(lp2307
(lp2308
Vbootloader_sha256_data
p2309
atp2310
a(L1152099087L
L3785322319L
(lp2311
(lp2312
Vverify_segment_header
p2313
atp2314
a(L708717693L
L0L
(lp2315
(lp2316
tp2317
a(L3028481L
L0L
(lp2318
(lp2319
tp2320
a(L1633505794L
L3785322319L
(lp2321
(lp2322
Vesp_log_early_timestamp
p2323
atp2324
a(L2386255930L
L0L
(lp2325
(lp2326
tp2327
a(L3264259205L
L3785322319L
(lp2328
(lp2329
Vshould_load
p2330
atp2331
a(L1613213999L
L0L
(lp2332
(lp2333
tp2334
a(L1613213968L
L0L
(lp2335
(lp2336
tp2337
a(L2306526682L
L0L
(lp2338
(lp2339
tp2340
a(L3020204L
L0L
(lp2341
(lp2342
tp2343
a(L2574793574L
L0L
(lp2344
(lp2345
tp2346
a(L1097987967L
L0L
(lp2347
(lp2348
tp2349
a(L2196734106L
L3785322319L
(lp2350
(lp2351
Vesp_log_early_timestamp
p2352
atp2353
a(L62198891L
L0L
(lp2354
(lp2355
tp2356
a(L1182990556L
L0L
(lp2357
(lp2358
tp2359
a(L695399705L
L0L
(lp2360
(lp2361
tp2362
a(L2258897019L
L0L
(lp2363
(lp2364
tp2365
a(L93892250L
L0L
(lp2366
(lp2367
tp2368
a(L1557599957L
L3785322319L
(lp2369
(lp2370
Vesp_log_early_timestamp
p2371
atp2372
a(L2910891901L
L3785322319L
(lp2373
(lp2374
Vprocess_segment_data
p2375
atp2376
a(L2993202392L
L0L
(lp2377
(lp2378
tp2379
a(L2902417580L
L0L
(lp2380
(lp2381
tp2382
a(L3360570486L
L0L
(lp2383
(lp2384
tp2385
a(L735741265L
L0L
(lp2386
(lp2387
tp2388
a(L702738088L
L0L
(lp2389
(lp2390
tp2391
a(L3360570486L
L0L
(lp2392
(lp2393
tp2394
atp2395
sI1074240240
(Vesp_partition_table_basic_verify
p2396
(lp2397
(L2998403606L
L0L
(lp2398
(lp2399
tp2400
a(L3156402467L
L0L
(lp2401
(lp2402
tp2403
a(L1143016815L
L0L
(lp2404
(lp2405
tp2406
a(L1930340983L
L0L
(lp2407
(lp2408
tp2409
a(L3020204L
L0L
(lp2410
(lp2411
tp2412
a(L1484738586L
L3785322319L
(lp2413
(lp2414
Vesp_log_early_timestamp
p2415
atp2416
a(L2348116621L
L0L
(lp2417
(lp2418
tp2419
a(L2712683701L
L0L
(lp2420
(lp2421
tp2422
a(L3020204L
L0L
(lp2423
(lp2424
tp2425
a(L2983510956L
L3785322319L
(lp2426
(lp2427
Vesp_log_early_timestamp
p2428
atp2429
a(L3393260311L
L0L
(lp2430
(lp2431
tp2432
a(L474845143L
L0L
(lp2433
(lp2434
tp2435
a(L3020204L
L0L
(lp2436
(lp2437
tp2438
a(L4118891813L
L3785322319L
(lp2439
(lp2440
Vesp_log_early_timestamp
p2441
atp2442
a(L2966513628L
L0L
(lp2443
(lp2444
tp2445
a(L3854017309L
L0L
(lp2446
(lp2447
tp2448
a(L2966513628L
L0L
(lp2449
(lp2450
tp2451
atp2452
sI1074241008
(Vesp_rom_spiflash_read_data
p2453
(lp2454
(L4122033220L
L0L
(lp2455
(lp2456
tp2457
a(L106L
L0L
(lp2458
(lp2459
tp2460
a(L2070875117L
L3785322319L
(lp2461
(lp2462
Vesp_rom_spiflash_wait_idle
p2463
atp2464
a(L2761836345L
L0L
(lp2465
(lp2466
tp2467
a(L342797696L
L0L
(lp2468
(lp2469
tp2470
a(L3149034981L
L0L
(lp2471
(lp2472
tp2473
a(L106L
L0L
(lp2474
(lp2475
tp2476
a(L340792427L
L0L
(lp2477
(lp2478
tp2479
a(L256664550L
L0L
(lp2480
(lp2481
tp2482
a(L663200857L
L0L
(lp2483
(lp2484
tp2485
a(L716099584L
L0L
(lp2486
(lp2487
tp2488
a(L3149034981L
L0L
(lp2489
(lp2490
tp2491
a(L1263158627L
L0L
(lp2492
(lp2493
tp2494
a(L131455463L
L0L
(lp2495
(lp2496
tp2497
a(L4208385735L
L0L
(lp2498
(lp2499
tp2500
a(L1305407438L
L0L
(lp2501
(lp2502
tp2503
a(L340792427L
L0L
(lp2504
(lp2505
tp2506
a(L3027019L
L0L
(lp2507
(lp2508
tp2509
a(L2258777855L
L0L
(lp2510
(lp2511
tp2512
a(L3027007L
L0L
(lp2513
(lp2514
tp2515
a(L106L
L0L
(lp2516
(lp2517
tp2518
a(L2993202392L
L0L
(lp2519
(lp2520
tp2521
a(L3880706073L
L0L
(lp2522
(lp2523
tp2524
atp2525
sI1074236284
(Vload_partition_table
p2526
(lp2527
(L2198137515L
L3785322319L
(lp2528
(lp2529
Vbootloader_mmap
p2530
atp2531
a(L456554293L
L3785322319L
(lp2532
(lp2533
Vesp_log_early_timestamp
p2534
atp2535
a(L2299530667L
L3785322319L
(lp2536
(lp2537
Vesp_partition_table_basic_verify
p2538
atp2539
a(L467759700L
L3785322319L
(lp2540
(lp2541
Vesp_log_early_timestamp
p2542
atp2543
a(L2035507904L
L0L
(lp2544
(lp2545
tp2546
a(L3020187L
L0L
(lp2547
(lp2548
tp2549
a(L106L
L0L
(lp2550
(lp2551
tp2552
a(L3137092968L
L0L
(lp2553
(lp2554
tp2555
a(L3020187L
L0L
(lp2556
(lp2557
tp2558
a(L106L
L0L
(lp2559
(lp2560
tp2561
a(L735059833L
L0L
(lp2562
(lp2563
tp2564
a(L455830292L
L0L
(lp2565
(lp2566
tp2567
a(L2610008785L
L0L
(lp2568
(lp2569
tp2570
a(L4220418956L
L0L
(lp2571
(lp2572
tp2573
a(L3145047165L
L0L
(lp2574
(lp2575
tp2576
a(L743044586L
L0L
(lp2577
(lp2578
tp2579
a(L3376871561L
L0L
(lp2580
(lp2581
tp2582
a(L2306437309L
L0L
(lp2583
(lp2584
tp2585
a(L871720679L
L0L
(lp2586
(lp2587
tp2588
a(L2187730653L
L3785322319L
(lp2589
(lp2590
Vbootloader_munmap
p2591
atp2592
atp2593
sI1074242684
(Vrtc_clk_fast_freq_set
p2594
(lp2595
(L2442229396L
L0L
(lp2596
(lp2597
tp2598
atp2599
sI1074241272
(Vesp_rom_spiflash_write_status
p2600
(lp2601
(L156053706L
L3785322319L
(lp2602
(lp2603
Vesp_rom_spiflash_wait_idle
p2604
atp2605
a(L1707634277L
L0L
(lp2606
(lp2607
tp2608
a(L1387965403L
L3785322319L
(lp2609
(lp2610
Vesp_rom_spiflash_wait_idle
p2611
atp2612
atp2613
ssS'functionsdups'
p2614
g11
((lp2615
tp2616
Rp2617
sS'immediatedups'
p2618
g11
((lp2619
tp2620
Rp2621
sS'functiondups'
p2622
g11
((lp2623
tp2624
Rp2625
sS'fuzzy'
p2626
(dp2627
L4061702297L
I1074240956
sL2820395417L
I1074236720
sL3470473625L
I1074244648
sL1121770457L
I1074239344
sL533883930L
I1074235080
sL2649994811L
I1074243112
sL433784338L
I1074234652
sL381930313L
I1074238884
sL3481520713L
I1074241324
sL750476080L
I1074243912
sL3495415001L
I1074240604
sL4160102055L
I1074236688
sL1768086576L
I1074235244
sL2474783190L
I1074242468
sL2923369897L
I1074239276
sL4022206759L
I1074237020
sL2173442391L
I1074240240
sL312818747L
I1074234884
sL2062573358L
I1074239652
sL1622145584L
I1074245328
sL1419845120L
I1074240856
sL3077306633L
I1074238640
sL4270185191L
I1074242744
sL2705984041L
I1074241008
sL1420005888L
I1074242256
sL3380377753L
I1074241432
sL3110146889L
I1074236104
sL874365493L
I1074236284
sL138378967L
I1074237372
sL1991897232L
I1074241272
sL3128965227L
I1074238768
sL3706231047L
I1074240440
sL47664L
I1074237552
sL2587589066L
I1074243416
sL1766137975L
I1074242208
sL4155364446L
I1074234972
sL2723847017L
I1074237608
sL3598477384L
I1074236488
sL3375802432L
I1074243168
sL3619350029L
I1074239020
sL1146078197L
I1074235716
sL59547383L
I1074237168
sL846681611L
I1074239184
sL1070509616L
I1074244300
sL3925557892L
I1074235400
ssb.