ccopy_reg
_reconstructor
p0
(crizzo
RizzoSignature
p1
c__builtin__
object
p2
Ntp3
Rp4
(dp5
S'formal'
p6
(dp7
L2121854456L
I1074246732
sL1886554737L
I1074235280
sL365671880L
I1074239956
sL2054774141L
I1074243428
sL1782782534L
I1074239272
sL1109448486L
I1074235368
sL2756277187L
I1074241584
sL2130276339L
I1074245408
sL2600624009L
I1074239320
sL2801142779L
I1074241716
sL2890889408L
I1074243016
sL2148298653L
I1074241200
sL3643218739L
I1074235040
sL2041884577L
I1074235764
sL189534937L
I1074241364
sL2391596313L
I1074242032
sL684283999L
I1074238288
sL2722157399L
I1074237812
sL1106502500L
I1074238516
sL2220056011L
I1074240412
sL1787113116L
I1074239700
sL2508642204L
I1074245336
sL2433913487L
I1074236736
sL736706551L
I1074244156
sL1050107831L
I1074241616
sL2687038856L
I1074243444
sL2528149906L
I1074239864
sL166483658L
I1074237392
sL670735453L
I1074238424
sL1820947364L
I1074236336
sL4049378035L
I1074234768
sL3728083462L
I1074244064
sL3852655377L
I1074238052
sL3343228022L
I1074238988
sL3038916119L
I1074243200
sL3577316876L
I1074243228
sL2939654670L
I1074245060
sL3023932166L
I1074243388
sL2626891944L
I1074246072
sL2690765660L
I1074238000
sL3102273621L
I1074243172
sL168872366L
I1074236556
sL3359281669L
I1074244672
sL2701167938L
I1074242836
sL1396453881L
I1074246088
sL430823147L
I1074242968
sL3095493574L
I1074242084
sL308586156L
I1074243504
sL3182841340L
I1074235796
sL1598244360L
I1074236168
sL3133271178L
I1074239448
sL4268834490L
I1074239564
sL1504689378L
I1074241000
sL1904560840L
I1074245764
sL2580505090L
I1074245920
sL4118382646L
I1074241180
sL3440846916L
I1074234808
sL97504921L
I1074244628
sL2025813988L
I1074244176
sL855155749L
I1074240024
sL3583898562L
I1074241768
sL2188950810L
I1074242192
sL478455777L
I1074241996
sL3702197710L
I1074245960
sL3991413646L
I1074236116
sL3434021320L
I1074237088
sL2329073333L
I1074245796
sL2507522972L
I1074244136
sL3197914102L
I1074237848
sL948829921L
I1074235476
sL1429149150L
I1074238232
sL2287396258L
I1074237692
sL1585336584L
I1074246032
sL2842228112L
I1074243488
sL1502897389L
I1074243872
sL434388383L
I1074235420
sL2362551341L
I1074235640
sL2813896644L
I1074235744
sL185304439L
I1074237360
sL273615667L
I1074243928
sL1988352767L
I1074246064
ssS'immediates'
p8
(dp9
sS'formaldups'
p10
c__builtin__
set
p11
((lp12
tp13
Rp14
sS'stringdups'
p15
g11
((lp16
tp17
Rp18
sS'fuzzydups'
p19
g11
((lp20
tp21
Rp22
sS'strings'
p23
(dp24
sS'functions'
p25
(dp26
I1074245764
(Vrtc_clk_cal_ratio
p27
(lp28
(L1747571394L
L1880226080L
(lp29
(lp30
Vrtc_clk_cal_internal
p31
aV__udivdi3
p32
atp33
atp34
sI1074243200
(Vrtc_clk_8md256_enabled
p35
(lp36
(L2599943084L
L0L
(lp37
(lp38
tp39
atp40
sI1074238988
(Vbootloader_random_disable
p41
(lp42
(L2099447120L
L0L
(lp43
(lp44
tp45
atp46
sI1074236556
(Vunpack_load_app
p47
(lp48
(L1842422795L
L0L
(lp49
(lp50
tp51
a(L2661981880L
L0L
(lp52
(lp53
tp54
a(L2902417580L
L0L
(lp55
(lp56
tp57
a(L3892715670L
L3785322319L
(lp58
(lp59
Vesp_log_early_timestamp
p60
atp61
a(L3411822821L
L0L
(lp62
(lp63
tp64
a(L3041410968L
L0L
(lp65
(lp66
tp67
a(L2902417580L
L0L
(lp68
(lp69
tp70
a(L3646402583L
L3785322319L
(lp71
(lp72
Vesp_log_early_timestamp
p73
atp74
a(L87648306L
L0L
(lp75
(lp76
tp77
a(L1799288861L
L0L
(lp78
(lp79
tp80
a(L350965691L
L0L
(lp81
(lp82
tp83
a(L106L
L0L
(lp84
(lp85
tp86
a(L217356493L
L3785322319L
(lp87
(lp88
Vset_cache_and_start_app
p89
atp90
atp91
sI1074236168
(Vload_boot_image
p92
(lp93
(L287490935L
L0L
(lp94
(lp95
tp96
a(L648555606L
L3785322319L
(lp97
(lp98
Vindex_to_partition
p99
atp100
a(L286580406L
L3785322319L
(lp101
(lp102
Vtry_load_partition
p103
atp104
a(L1419760378L
L3785322319L
(lp105
(lp106
Vlog_invalid_app_partition
p107
atp108
a(L1720077932L
L0L
(lp109
(lp110
tp111
a(L3021737L
L0L
(lp112
(lp113
tp114
a(L1718387311L
L0L
(lp115
(lp116
tp117
a(L3142011L
L3785322319L
(lp118
(lp119
Vindex_to_partition
p120
atp121
a(L286580406L
L3785322319L
(lp122
(lp123
Vtry_load_partition
p124
atp125
a(L1419760378L
L3785322319L
(lp126
(lp127
Vlog_invalid_app_partition
p128
atp129
a(L3364601369L
L0L
(lp130
(lp131
tp132
a(L3305857427L
L0L
(lp133
(lp134
tp135
a(L3716078733L
L3785322319L
(lp136
(lp137
Vtry_load_partition
p138
atp139
a(L3517216239L
L3785322319L
(lp140
(lp141
Vesp_log_early_timestamp
p142
atp143
a(L3595266977L
L3785322319L
(lp144
(lp145
Vesp_log_early_timestamp
p146
atp147
a(L1351513776L
L0L
(lp148
(lp149
tp150
atp151
sI1074235796
(Vget_selected_boot_partition
p152
(lp153
(L3540070437L
L0L
(lp154
(lp155
tp156
a(L3271689364L
L0L
(lp157
(lp158
tp159
a(L1299353468L
L3785322319L
(lp160
(lp161
Vesp_log_early_timestamp
p162
atp163
a(L3118387733L
L3785322319L
(lp164
(lp165
Vbootloader_mmap
p166
atp167
a(L653009856L
L3785322319L
(lp168
(lp169
Vesp_log_early_timestamp
p170
atp171
a(L900857304L
L3785322319L
(lp172
(lp173
Vbootloader_munmap
p174
atp175
a(L505089622L
L0L
(lp176
(lp177
tp178
a(L616703612L
L0L
(lp179
(lp180
tp181
a(L3906432721L
L3785322319L
(lp182
(lp183
Vesp_log_early_timestamp
p184
atp185
a(L1741235047L
L3785322319L
(lp186
(lp187
Vesp_log_early_timestamp
p188
atp189
a(L726746666L
L3785322319L
(lp190
(lp191
Vota_select_valid
p192
atp193
a(L1828868152L
L3785322319L
(lp194
(lp195
Vota_select_valid
p196
atp197
a(L1353294186L
L0L
(lp198
(lp199
tp200
a(L726746666L
L3785322319L
(lp201
(lp202
Vota_select_valid
p203
atp204
a(L3920888185L
L0L
(lp205
(lp206
tp207
a(L788494392L
L3785322319L
(lp208
(lp209
Vota_select_valid
p210
atp211
a(L797347385L
L0L
(lp212
(lp213
tp214
a(L2258718273L
L0L
(lp215
(lp216
tp217
a(L2902417580L
L0L
(lp218
(lp219
tp220
a(L2053587437L
L0L
(lp221
(lp222
tp223
a(L4182810108L
L0L
(lp224
(lp225
tp226
a(L3124712448L
L3785322319L
(lp227
(lp228
Vesp_log_early_timestamp
p229
atp230
a(L3025780416L
L3785322319L
(lp231
(lp232
Vesp_log_early_timestamp
p233
atp234
a(L515633988L
L0L
(lp235
(lp236
tp237
atp238
sI1074242836
(Vrtc_clk_32k_enable_internal
p239
(lp240
(L2507741161L
L0L
(lp241
(lp242
tp243
atp244
sI1074244628
(Vrtc_clk_apb_freq_get
p245
(lp246
(L600345854L
L3785322319L
(lp247
(lp248
Vreg_val_to_clk_val
p249
atp250
atp251
sI1074234768
(Vwdt_reset_cpu0_info_enable
p252
(lp253
(L3606565806L
L0L
(lp254
(lp255
tp256
atp257
sI1074235280
(Vlog_invalid_app_partition
p258
(lp259
(L3991230301L
L0L
(lp260
(lp261
tp262
a(L3028464L
L0L
(lp263
(lp264
tp265
a(L1397768140L
L3785322319L
(lp266
(lp267
Vesp_log_early_timestamp
p268
atp269
a(L1297541456L
L3785322319L
(lp270
(lp271
Vesp_log_early_timestamp
p272
atp273
a(L1819018810L
L3785322319L
(lp274
(lp275
Vesp_log_early_timestamp
p276
atp277
atp278
sI1074242192
(Vesp_rom_spiflash_read
p279
(lp280
(L3868569190L
L0L
(lp281
(lp282
tp283
a(L1661184743L
L0L
(lp284
(lp285
tp286
a(L3017366L
L0L
(lp287
(lp288
tp289
a(L106L
L0L
(lp290
(lp291
tp292
a(L3995673944L
L0L
(lp293
(lp294
tp295
a(L106L
L0L
(lp296
(lp297
tp298
a(L406375916L
L0L
(lp299
(lp300
tp301
a(L1022572567L
L0L
(lp302
(lp303
tp304
a(L2604363552L
L0L
(lp305
(lp306
tp307
a(L3016870L
L0L
(lp308
(lp309
tp310
a(L719748272L
L0L
(lp311
(lp312
tp313
a(L3016870L
L0L
(lp314
(lp315
tp316
a(L569868700L
L0L
(lp317
(lp318
tp319
a(L4258898186L
L0L
(lp320
(lp321
tp322
a(L3839775634L
L0L
(lp323
(lp324
tp325
a(L3912677022L
L0L
(lp326
(lp327
tp328
a(L3613677840L
L0L
(lp329
(lp330
tp331
a(L3307544052L
L0L
(lp332
(lp333
tp334
a(L3173023813L
L0L
(lp335
(lp336
tp337
a(L3800799085L
L3785322319L
(lp338
(lp339
Vesp_rom_spiflash_read_data
p340
atp341
a(L1298875774L
L0L
(lp342
(lp343
tp344
a(L735741265L
L0L
(lp345
(lp346
tp347
atp348
sI1074246032
(Vclk_val_is_valid
p349
(lp350
(L1156532199L
L0L
(lp351
(lp352
tp353
a(L2777277229L
L0L
(lp354
(lp355
tp356
a(L2993202392L
L0L
(lp357
(lp358
tp359
a(L2993202392L
L0L
(lp360
(lp361
tp362
a(L3880706073L
L0L
(lp363
(lp364
tp365
atp366
sI1074235420
(Vuart_console_configure
p367
(lp368
(L1599186090L
L0L
(lp369
(lp370
tp371
a(L3423705047L
L0L
(lp372
(lp373
tp374
a(L3943152322L
L3785322319L
(lp375
(lp376
Vrtc_clk_apb_freq_get
p377
atp378
atp379
sI1074240412
(Vesp_image_load
p380
(lp381
(L2340434831L
L0L
(lp382
(lp383
tp384
a(L106L
L0L
(lp385
(lp386
tp387
a(L3980293305L
L0L
(lp388
(lp389
tp390
a(L3028464L
L0L
(lp391
(lp392
tp393
a(L106L
L0L
(lp394
(lp395
tp396
a(L1424888836L
L3785322319L
(lp397
(lp398
Vesp_log_early_timestamp
p399
atp400
a(L4236940457L
L3785322319L
(lp401
(lp402
Vbootloader_flash_read
p403
atp404
a(L2950861325L
L0L
(lp405
(lp406
tp407
a(L2568992188L
L3785322319L
(lp408
(lp409
Vbootloader_sha256_start
p410
atp411
a(L4173212049L
L3785322319L
(lp412
(lp413
Vbootloader_sha256_data
p414
atp415
a(L2258837437L
L0L
(lp416
(lp417
tp418
a(L846347405L
L3785322319L
(lp419
(lp420
Vverify_image_header
p421
atp422
a(L1980404654L
L0L
(lp423
(lp424
tp425
a(L3028464L
L0L
(lp426
(lp427
tp428
a(L106L
L0L
(lp429
(lp430
tp431
a(L3781847384L
L3785322319L
(lp432
(lp433
Vesp_log_early_timestamp
p434
atp435
a(L2671916466L
L0L
(lp436
(lp437
tp438
a(L1898485626L
L3785322319L
(lp439
(lp440
Vprocess_segment
p441
atp442
a(L3878353414L
L0L
(lp443
(lp444
tp445
a(L2125973223L
L0L
(lp446
(lp447
tp448
a(L499151239L
L0L
(lp449
(lp450
tp451
a(L3028464L
L0L
(lp452
(lp453
tp454
a(L106L
L0L
(lp455
(lp456
tp457
a(L3677531819L
L3785322319L
(lp458
(lp459
Vesp_log_early_timestamp
p460
atp461
a(L660635180L
L3785322319L
(lp462
(lp463
Vverify_checksum
p464
atp465
a(L559065198L
L0L
(lp466
(lp467
tp468
a(L3028464L
L0L
(lp469
(lp470
tp471
a(L106L
L0L
(lp472
(lp473
tp474
a(L3458511671L
L3785322319L
(lp475
(lp476
Vesp_log_early_timestamp
p477
atp478
a(L2121118512L
L0L
(lp479
(lp480
tp481
a(L3020204L
L0L
(lp482
(lp483
tp484
a(L2916090075L
L3785322319L
(lp485
(lp486
Vverify_simple_hash
p487
atp488
a(L3020204L
L0L
(lp489
(lp490
tp491
a(L3688659868L
L3785322319L
(lp492
(lp493
Vbootloader_sha256_finish
p494
atp495
a(L3028481L
L0L
(lp496
(lp497
tp498
a(L3020187L
L0L
(lp499
(lp500
tp501
a(L2993202392L
L0L
(lp502
(lp503
tp504
a(L2814963175L
L3785322319L
(lp505
(lp506
Vshould_load
p507
atp508
a(L1299866312L
L0L
(lp509
(lp510
tp511
a(L1712671152L
L0L
(lp512
(lp513
tp514
a(L138464869L
L0L
(lp515
(lp516
tp517
a(L4022339241L
L0L
(lp518
(lp519
tp520
a(L1253273515L
L0L
(lp521
(lp522
tp523
a(L1191274096L
L0L
(lp524
(lp525
tp526
a(L1720234353L
L0L
(lp527
(lp528
tp529
a(L2258777855L
L0L
(lp530
(lp531
tp532
a(L85798113L
L0L
(lp533
(lp534
tp535
a(L2993202392L
L0L
(lp536
(lp537
tp538
a(L3151898214L
L0L
(lp539
(lp540
tp541
a(L1304483917L
L0L
(lp542
(lp543
tp544
a(L2258837437L
L0L
(lp545
(lp546
tp547
a(L2910371777L
L0L
(lp548
(lp549
tp550
a(L2104868759L
L0L
(lp551
(lp552
tp553
a(L3020204L
L0L
(lp554
(lp555
tp556
a(L3688659868L
L3785322319L
(lp557
(lp558
Vbootloader_sha256_finish
p559
atp560
a(L198598760L
L0L
(lp561
(lp562
tp563
a(L2079009947L
L0L
(lp564
(lp565
tp566
a(L1191506266L
L0L
(lp567
(lp568
tp569
atp570
sI1074241180
(Vbootloader_sha256_start
p571
(lp572
(L4216139071L
L0L
(lp573
(lp574
tp575
atp576
sI1074243228
(Vrtc_clk_xtal_freq_estimate
p577
(lp578
(L2516060585L
L1880226080L
(lp579
(lp580
Vrtc_clk_8m_enabled
p581
aVrtc_clk_8md256_enabled
p582
atp583
a(L967485502L
L3785322319L
(lp584
(lp585
Vrtc_clk_8m_enable
p586
atp587
a(L3157195855L
L3785322319L
(lp588
(lp589
Vrtc_clk_cal_ratio
p590
atp591
a(L3377093994L
L0L
(lp592
(lp593
tp594
a(L1415635503L
L3785322319L
(lp595
(lp596
Vesp_log_early_timestamp
p597
atp598
atp599
sI1074238232
(Vbootloader_munmap
p600
(lp601
(L404443743L
L0L
(lp602
(lp603
tp604
a(L2238010274L
L0L
(lp605
(lp606
tp607
a(L3360570486L
L0L
(lp608
(lp609
tp610
atp611
sI1074237848
(Vbootloader_flash_read_allow_decrypt
p612
(lp613
(L3381655731L
L0L
(lp614
(lp615
tp616
a(L1014311705L
L0L
(lp617
(lp618
tp619
a(L2660121825L
L0L
(lp620
(lp621
tp622
a(L2888563644L
L3785322319L
(lp623
(lp624
Vesp_log_early_timestamp
p625
atp626
a(L800129076L
L0L
(lp627
(lp628
tp629
a(L1930902737L
L0L
(lp630
(lp631
tp632
a(L3423665670L
L0L
(lp633
(lp634
tp635
a(L106L
L0L
(lp636
(lp637
tp638
a(L2993202392L
L0L
(lp639
(lp640
tp641
atp642
sI1074240024
(Vprocess_segment
p643
(lp644
(L2051938514L
L3785322319L
(lp645
(lp646
Vbootloader_flash_read
p647
atp648
a(L3459520580L
L3785322319L
(lp649
(lp650
Vesp_log_early_timestamp
p651
atp652
a(L3020204L
L0L
(lp653
(lp654
tp655
a(L574350325L
L3785322319L
(lp656
(lp657
Vbootloader_sha256_data
p658
atp659
a(L1152099087L
L3785322319L
(lp660
(lp661
Vverify_segment_header
p662
atp663
a(L708717693L
L0L
(lp664
(lp665
tp666
a(L3028481L
L0L
(lp667
(lp668
tp669
a(L2676853213L
L3785322319L
(lp670
(lp671
Vesp_log_early_timestamp
p672
atp673
a(L1359651648L
L3785322319L
(lp674
(lp675
Vshould_map
p676
atp677
a(L1535194501L
L3785322319L
(lp678
(lp679
Vshould_load
p680
atp681
a(L1301713385L
L0L
(lp682
(lp683
tp684
a(L1301713354L
L0L
(lp685
(lp686
tp687
a(L1182871392L
L0L
(lp688
(lp689
tp690
a(L43906745L
L0L
(lp691
(lp692
tp693
a(L3287840219L
L3785322319L
(lp694
(lp695
Vesp_log_early_timestamp
p696
atp697
a(L3760047252L
L0L
(lp698
(lp699
tp700
a(L697320504L
L0L
(lp701
(lp702
tp703
a(L697320256L
L0L
(lp704
(lp705
tp706
a(L3901819502L
L0L
(lp707
(lp708
tp709
a(L569848481L
L0L
(lp710
(lp711
tp712
a(L3020204L
L0L
(lp713
(lp714
tp715
a(L2597524107L
L0L
(lp716
(lp717
tp718
a(L2396407606L
L0L
(lp719
(lp720
tp721
a(L123174687L
L3785322319L
(lp722
(lp723
Vesp_log_early_timestamp
p724
atp725
a(L1849192184L
L0L
(lp726
(lp727
tp728
a(L1182990556L
L0L
(lp729
(lp730
tp731
a(L695399705L
L0L
(lp732
(lp733
tp734
a(L2258897019L
L0L
(lp735
(lp736
tp737
a(L93892250L
L0L
(lp738
(lp739
tp740
a(L791150610L
L3785322319L
(lp741
(lp742
Vesp_log_early_timestamp
p743
atp744
a(L3097584254L
L3785322319L
(lp745
(lp746
Vprocess_segment_data
p747
atp748
a(L2993202392L
L0L
(lp749
(lp750
tp751
a(L2902417580L
L0L
(lp752
(lp753
tp754
a(L3360570486L
L0L
(lp755
(lp756
tp757
a(L735741265L
L0L
(lp758
(lp759
tp760
a(L702739603L
L0L
(lp761
(lp762
tp763
a(L3360570486L
L0L
(lp764
(lp765
tp766
atp767
sI1074242968
(Vrtc_clk_32k_enable
p768
(lp769
(L753387299L
L0L
(lp770
(lp771
tp772
a(L2049031224L
L3785322319L
(lp773
(lp774
Vrtc_clk_32k_enable_internal
p775
atp776
a(L1642483229L
L0L
(lp777
(lp778
tp779
atp780
sI1074242084
(Vesp_rom_spiflash_unlock
p781
(lp782
(L1371765891L
L1880226080L
(lp783
(lp784
Vesp_rom_spiflash_wait_idle
p785
aVesp_rom_spiflash_read_statushigh
p786
atp787
a(L2734159891L
L3785322319L
(lp788
(lp789
Vesp_rom_spiflash_wait_idle
p790
atp791
a(L525040155L
L0L
(lp792
(lp793
tp794
a(L4284652344L
L1880226080L
(lp795
(lp796
Vesp_rom_spiflash_wait_idle
p797
aVesp_rom_spiflash_write_status
p798
atp799
a(L3880706073L
L0L
(lp800
(lp801
tp802
a(L2258688483L
L0L
(lp803
(lp804
tp805
a(L3360570486L
L0L
(lp806
(lp807
tp808
atp809
sI1074245796
(Vrtc_clk_wait_for_slow_cycle
p810
(lp811
(L2142731788L
L0L
(lp812
(lp813
tp814
a(L960177750L
L0L
(lp815
(lp816
tp817
a(L4259774345L
L0L
(lp818
(lp819
tp820
a(L3360570486L
L0L
(lp821
(lp822
tp823
atp824
sI1074235040
(Vprint_flash_info
p825
(lp826
(L2664752807L
L0L
(lp827
(lp828
tp829
a(L2902417580L
L0L
(lp830
(lp831
tp832
a(L3020187L
L0L
(lp833
(lp834
tp835
a(L225150647L
L0L
(lp836
(lp837
tp838
a(L106L
L0L
(lp839
(lp840
tp841
a(L439068576L
L0L
(lp842
(lp843
tp844
a(L439069909L
L0L
(lp845
(lp846
tp847
a(L439069289L
L0L
(lp848
(lp849
tp850
a(L439069909L
L0L
(lp851
(lp852
tp853
a(L3200752134L
L0L
(lp854
(lp855
tp856
a(L2450212259L
L3785322319L
(lp857
(lp858
Vesp_log_early_timestamp
p859
atp860
a(L3017366L
L0L
(lp861
(lp862
tp863
a(L3017366L
L0L
(lp864
(lp865
tp866
a(L3017366L
L0L
(lp867
(lp868
tp869
a(L3016870L
L0L
(lp870
(lp871
tp872
a(L439070250L
L0L
(lp873
(lp874
tp875
a(L439069537L
L0L
(lp876
(lp877
tp878
a(L439069413L
L0L
(lp879
(lp880
tp881
a(L439070498L
L0L
(lp882
(lp883
tp884
a(L439070374L
L0L
(lp885
(lp886
tp887
a(L3200752212L
L0L
(lp888
(lp889
tp890
a(L2445732954L
L3785322319L
(lp891
(lp892
Vesp_log_early_timestamp
p893
atp894
a(L93674324L
L0L
(lp895
(lp896
tp897
a(L3020204L
L0L
(lp898
(lp899
tp900
a(L106L
L0L
(lp901
(lp902
tp903
a(L3020187L
L0L
(lp904
(lp905
tp906
a(L3020187L
L0L
(lp907
(lp908
tp909
a(L106L
L0L
(lp910
(lp911
tp912
a(L309988492L
L0L
(lp913
(lp914
tp915
a(L309988616L
L0L
(lp916
(lp917
tp918
a(L309990073L
L0L
(lp919
(lp920
tp921
a(L309988740L
L0L
(lp922
(lp923
tp924
a(L702736306L
L0L
(lp925
(lp926
tp927
a(L33790497L
L3785322319L
(lp928
(lp929
Vesp_log_early_timestamp
p930
atp931
atp932
sI1074237088
(Vbootloader_main
p933
(lp934
(L3622885501L
L1671015855L
(lp935
(lp936
Vvddsdio_configure
p937
aVflash_gpio_configure
p938
aVbootloader_clock_configure
p939
aVuart_console_configure
p940
aVwdt_reset_check
p941
aVesp_log_early_timestamp
p942
aVesp_log_early_timestamp
p943
aVesp_rom_spiflash_unlock
p944
aVesp_log_early_timestamp
p945
aVbootloader_random_enable
p946
aVbootloader_flash_read
p947
atp948
a(L1061054609L
L3785322319L
(lp949
(lp950
Vesp_log_early_timestamp
p951
atp952
a(L3448435460L
L1832448559L
(lp953
(lp954
Vprint_flash_info
p955
aVupdate_flash_config
p956
aVload_partition_table
p957
atp958
a(L398518741L
L3785322319L
(lp959
(lp960
Vesp_log_early_timestamp
p961
atp962
a(L2117946405L
L3785322319L
(lp963
(lp964
Vget_selected_boot_partition
p965
atp966
a(L2211123836L
L3785322319L
(lp967
(lp968
Vload_boot_image
p969
atp970
a(L1961975586L
L1832448559L
(lp971
(lp972
Vesp_log_early_timestamp
p973
aVbootloader_random_disable
p974
aVunpack_load_app
p975
atp976
a(L3360570486L
L0L
(lp977
(lp978
tp979
atp980
sI1074243488
(Vrtc_clk_fast_freq_get
p981
(lp982
(L420109217L
L0L
(lp983
(lp984
tp985
atp986
sI1074243872
(Vrtc_clk_xtal_freq_get
p987
(lp988
(L3826451079L
L3785322319L
(lp989
(lp990
Vclk_val_is_valid
p991
atp992
a(L4231279528L
L3785322319L
(lp993
(lp994
Vesp_log_early_timestamp
p995
atp996
a(L880231726L
L3785322319L
(lp997
(lp998
Vreg_val_to_clk_val
p999
atp1000
atp1001
sI1074245408
(Vrtc_clk_cal_internal
p1002
(lp1003
(L4037466968L
L0L
(lp1004
(lp1005
tp1006
a(L2264585407L
L0L
(lp1007
(lp1008
tp1009
a(L3028464L
L0L
(lp1010
(lp1011
tp1012
a(L1882950912L
L0L
(lp1013
(lp1014
tp1015
a(L1340894524L
L0L
(lp1016
(lp1017
tp1018
a(L1470489052L
L0L
(lp1019
(lp1020
tp1021
a(L97422L
L0L
(lp1022
(lp1023
tp1024
a(L2066391447L
L0L
(lp1025
(lp1026
tp1027
a(L3878832478L
L0L
(lp1028
(lp1029
tp1030
a(L3878719080L
L0L
(lp1031
(lp1032
tp1033
a(L3878719080L
L0L
(lp1034
(lp1035
tp1036
a(L3878832478L
L0L
(lp1037
(lp1038
tp1039
a(L3450259600L
L0L
(lp1040
(lp1041
tp1042
a(L1915860573L
L3785322319L
(lp1043
(lp1044
V__udivdi3
p1045
atp1046
a(L1088197950L
L0L
(lp1047
(lp1048
tp1049
a(L4259774841L
L0L
(lp1050
(lp1051
tp1052
a(L3021737L
L0L
(lp1053
(lp1054
tp1055
a(L3028464L
L0L
(lp1056
(lp1057
tp1058
a(L1255625165L
L0L
(lp1059
(lp1060
tp1061
a(L3028464L
L0L
(lp1062
(lp1063
tp1064
a(L2469086211L
L0L
(lp1065
(lp1066
tp1067
a(L2902417580L
L0L
(lp1068
(lp1069
tp1070
a(L1746832476L
L0L
(lp1071
(lp1072
tp1073
a(L2993202392L
L0L
(lp1074
(lp1075
tp1076
atp1077
sI1074245920
(V__bswapsi2
p1078
(lp1079
(L4023389625L
L0L
(lp1080
(lp1081
tp1082
atp1083
sI1074239272
(Vshould_map
p1084
(lp1085
(L1221306744L
L0L
(lp1086
(lp1087
tp1088
a(L1182990556L
L0L
(lp1089
(lp1090
tp1091
a(L2576088877L
L0L
(lp1092
(lp1093
tp1094
a(L1182990556L
L0L
(lp1095
(lp1096
tp1097
a(L1387712984L
L0L
(lp1098
(lp1099
tp1100
atp1101
sI1074244136
(Vrtc_clk_xtal_freq_update
p1102
(lp1103
(L4243578786L
L3785322319L
(lp1104
(lp1105
Vclk_val_to_reg_val
p1106
atp1107
atp1108
sI1074238516
(Vbootloader_random_enable
p1109
(lp1110
(L4055763903L
L0L
(lp1111
(lp1112
tp1113
atp1114
sI1074241716
(Vesp_rom_spiflash_wait_idle
p1115
(lp1116
(L287326052L
L0L
(lp1117
(lp1118
tp1119
a(L4239365884L
L0L
(lp1120
(lp1121
tp1122
a(L4089486312L
L0L
(lp1123
(lp1124
tp1125
a(L855829385L
L3785322319L
(lp1126
(lp1127
Vesp_rom_spiflash_read_status
p1128
atp1129
a(L1298875774L
L0L
(lp1130
(lp1131
tp1132
a(L735741265L
L0L
(lp1133
(lp1134
tp1135
atp1136
sI1074241584
(Vesp_log_early_timestamp
p1137
(lp1138
(L3337723689L
L0L
(lp1139
(lp1140
tp1141
atp1142
sI1074241200
(Vbootloader_sha256_data
p1143
(lp1144
(L4037466985L
L0L
(lp1145
(lp1146
tp1147
a(L2023826350L
L3785322319L
(lp1148
(lp1149
V__assert_func
p1150
atp1151
a(L2660352519L
L0L
(lp1152
(lp1153
tp1154
a(L605186787L
L3785322319L
(lp1155
(lp1156
V__assert_func
p1157
atp1158
a(L66409669L
L0L
(lp1159
(lp1160
tp1161
a(L1080376361L
L0L
(lp1162
(lp1163
tp1164
a(L23252019L
L0L
(lp1165
(lp1166
tp1167
a(L106L
L0L
(lp1168
(lp1169
tp1170
a(L1877018910L
L3785322319L
(lp1171
(lp1172
V__bswapsi2
p1173
atp1174
a(L3027019L
L0L
(lp1175
(lp1176
tp1177
a(L2324346322L
L0L
(lp1178
(lp1179
tp1180
a(L3028464L
L0L
(lp1181
(lp1182
tp1183
a(L1057277981L
L0L
(lp1184
(lp1185
tp1186
a(L3665919593L
L0L
(lp1187
(lp1188
tp1189
a(L3028481L
L0L
(lp1190
(lp1191
tp1192
a(L3360570486L
L0L
(lp1193
(lp1194
tp1195
atp1196
sI1074238000
(Vbootloader_flash_read_no_decrypt
p1197
(lp1198
(L3264218800L
L1880226080L
(lp1199
(lp1200
Vesp_rom_spiflash_read
p1201
aVspi_to_esp_err
p1202
atp1203
atp1204
sI1074236336
(Vset_cache_and_start_app
p1205
(lp1206
(L917234828L
L0L
(lp1207
(lp1208
tp1209
a(L4130519043L
L0L
(lp1210
(lp1211
tp1212
a(L1548223148L
L0L
(lp1213
(lp1214
tp1215
a(L1238188241L
L0L
(lp1216
(lp1217
tp1218
atp1219
sI1074237360
(V__assert_func
p1220
(lp1221
(L3396889716L
L3785322319L
(lp1222
(lp1223
Vesp_log_early_timestamp
p1224
atp1225
a(L106L
L0L
(lp1226
(lp1227
tp1228
atp1229
sI1074243504
(Vrtc_clk_bbpll_set
p1230
(lp1231
(L4037466968L
L0L
(lp1232
(lp1233
tp1234
a(L106L
L0L
(lp1235
(lp1236
tp1237
a(L2118164926L
L0L
(lp1238
(lp1239
tp1240
a(L2635425305L
L0L
(lp1241
(lp1242
tp1243
a(L2634502051L
L0L
(lp1244
(lp1245
tp1246
a(L106L
L0L
(lp1247
(lp1248
tp1249
a(L3145948254L
L0L
(lp1250
(lp1251
tp1252
a(L21216729L
L0L
(lp1253
(lp1254
tp1255
a(L2377105039L
L0L
(lp1256
(lp1257
tp1258
a(L1940347058L
L0L
(lp1259
(lp1260
tp1261
a(L2840945614L
L0L
(lp1262
(lp1263
tp1264
a(L2984439703L
L0L
(lp1265
(lp1266
tp1267
a(L2635425305L
L0L
(lp1268
(lp1269
tp1270
a(L2634502051L
L0L
(lp1271
(lp1272
tp1273
a(L106L
L0L
(lp1274
(lp1275
tp1276
a(L1566659442L
L0L
(lp1277
(lp1278
tp1279
a(L790959749L
L0L
(lp1280
(lp1281
tp1282
a(L2377105039L
L0L
(lp1283
(lp1284
tp1285
a(L1965177478L
L0L
(lp1286
(lp1287
tp1288
a(L777461386L
L0L
(lp1289
(lp1290
tp1291
a(L666428138L
L3785322319L
(lp1292
(lp1293
Vrtc_clk_slow_freq_get
p1294
atp1295
a(L2679108412L
L0L
(lp1296
(lp1297
tp1298
a(L2780081410L
L0L
(lp1299
(lp1300
tp1301
a(L2929233358L
L0L
(lp1302
(lp1303
tp1304
atp1305
sI1074246064
(Vreg_val_to_clk_val
p1306
(lp1307
(L2577655222L
L0L
(lp1308
(lp1309
tp1310
atp1311
sI1074243388
(Vrtc_clk_slow_freq_set
p1312
(lp1313
(L3744111333L
L0L
(lp1314
(lp1315
tp1316
atp1317
sI1074244156
(Vrtc_clk_apb_freq_update
p1318
(lp1319
(L2636018090L
L3785322319L
(lp1320
(lp1321
Vclk_val_to_reg_val
p1322
atp1323
atp1324
sI1074234808
(Vwdt_reset_info_dump
p1325
(lp1326
(L1642351636L
L0L
(lp1327
(lp1328
tp1329
a(L439062686L
L0L
(lp1330
(lp1331
tp1332
a(L3200751952L
L0L
(lp1333
(lp1334
tp1335
a(L3028481L
L0L
(lp1336
(lp1337
tp1338
a(L1806775328L
L0L
(lp1339
(lp1340
tp1341
a(L3839655326L
L0L
(lp1342
(lp1343
tp1344
a(L1413004396L
L0L
(lp1345
(lp1346
tp1347
a(L1550379252L
L0L
(lp1348
(lp1349
tp1350
a(L2562845696L
L3785322319L
(lp1351
(lp1352
Vesp_log_early_timestamp
p1353
atp1354
a(L594639531L
L3785322319L
(lp1355
(lp1356
Vesp_log_early_timestamp
p1357
atp1358
atp1359
sI1074246072
(Vclk_val_to_reg_val
p1360
(lp1361
(L2997976715L
L0L
(lp1362
(lp1363
tp1364
atp1365
sI1074245060
(Vrtc_vddsdio_get_config
p1366
(lp1367
(L3938317726L
L0L
(lp1368
(lp1369
tp1370
a(L3439656765L
L0L
(lp1371
(lp1372
tp1373
a(L1943077487L
L0L
(lp1374
(lp1375
tp1376
a(L134717162L
L0L
(lp1377
(lp1378
tp1379
a(L3766037899L
L0L
(lp1380
(lp1381
tp1382
a(L1895414733L
L0L
(lp1383
(lp1384
tp1385
a(L3360570486L
L0L
(lp1386
(lp1387
tp1388
atp1389
sI1074236736
(Vload_partition_table
p1390
(lp1391
(L944484866L
L3785322319L
(lp1392
(lp1393
Vbootloader_mmap
p1394
atp1395
a(L2673999642L
L3785322319L
(lp1396
(lp1397
Vesp_log_early_timestamp
p1398
atp1399
a(L3715067384L
L3785322319L
(lp1400
(lp1401
Vesp_partition_table_basic_verify
p1402
atp1403
a(L547710067L
L3785322319L
(lp1404
(lp1405
Vesp_log_early_timestamp
p1406
atp1407
a(L2018688110L
L1880226080L
(lp1408
(lp1409
Vesp_log_early_timestamp
p1410
aVesp_log_early_timestamp
p1411
atp1412
a(L1941612774L
L0L
(lp1413
(lp1414
tp1415
a(L3020187L
L0L
(lp1416
(lp1417
tp1418
a(L106L
L0L
(lp1419
(lp1420
tp1421
a(L3732412336L
L0L
(lp1422
(lp1423
tp1424
a(L3020187L
L0L
(lp1425
(lp1426
tp1427
a(L106L
L0L
(lp1428
(lp1429
tp1430
a(L58551695L
L0L
(lp1431
(lp1432
tp1433
a(L997244445L
L0L
(lp1434
(lp1435
tp1436
a(L2893469516L
L0L
(lp1437
(lp1438
tp1439
a(L495320334L
L0L
(lp1440
(lp1441
tp1442
a(L129023391L
L0L
(lp1443
(lp1444
tp1445
a(L2902417580L
L0L
(lp1446
(lp1447
tp1448
a(L3020187L
L0L
(lp1449
(lp1450
tp1451
a(L106L
L0L
(lp1452
(lp1453
tp1454
a(L826346524L
L0L
(lp1455
(lp1456
tp1457
a(L1164878993L
L0L
(lp1458
(lp1459
tp1460
a(L826347361L
L0L
(lp1461
(lp1462
tp1463
a(L826348446L
L0L
(lp1464
(lp1465
tp1466
a(L826348818L
L0L
(lp1467
(lp1468
tp1469
a(L2104866341L
L0L
(lp1470
(lp1471
tp1472
a(L510053245L
L3785322319L
(lp1473
(lp1474
Vesp_log_early_timestamp
p1475
atp1476
a(L846653465L
L0L
(lp1477
(lp1478
tp1479
a(L106L
L0L
(lp1480
(lp1481
tp1482
a(L3351822882L
L1880226080L
(lp1483
(lp1484
Vbootloader_munmap
p1485
aVesp_log_early_timestamp
p1486
atp1487
atp1488
sI1074244672
(Vrtc_clk_init
p1489
(lp1490
(L211640541L
L3785322319L
(lp1491
(lp1492
Vrtc_clk_cpu_freq_get
p1493
atp1494
a(L4140200509L
L3785322319L
(lp1495
(lp1496
Vrtc_clk_cpu_freq_set
p1497
atp1498
a(L1713231888L
L0L
(lp1499
(lp1500
tp1501
a(L2598412776L
L3785322319L
(lp1502
(lp1503
Vclk_val_is_valid
p1504
atp1505
a(L2514117845L
L3785322319L
(lp1506
(lp1507
Vrtc_clk_xtal_freq_get
p1508
atp1509
a(L1375577398L
L3785322319L
(lp1510
(lp1511
Vrtc_clk_xtal_freq_estimate
p1512
atp1513
a(L2622098139L
L3785322319L
(lp1514
(lp1515
Vesp_log_early_timestamp
p1516
atp1517
a(L4202445149L
L3785322319L
(lp1518
(lp1519
Vclk_val_is_valid
p1520
atp1521
a(L3183127930L
L3785322319L
(lp1522
(lp1523
Vrtc_clk_xtal_freq_estimate
p1524
atp1525
a(L3189941843L
L3785322319L
(lp1526
(lp1527
Vesp_log_early_timestamp
p1528
atp1529
a(L3423705047L
L0L
(lp1530
(lp1531
tp1532
a(L3415077064L
L1157885199L
(lp1533
(lp1534
Vrtc_clk_xtal_freq_update
p1535
aVrtc_clk_apb_freq_update
p1536
aVrtc_clk_cpu_freq_set
p1537
aVrtc_clk_cpu_freq_value
p1538
aVrtc_clk_cpu_freq_value
p1539
atp1540
a(L3804637084L
L3785322319L
(lp1541
(lp1542
Vrtc_clk_32k_enable
p1543
atp1544
a(L3016870L
L0L
(lp1545
(lp1546
tp1547
a(L3193366786L
L3785322319L
(lp1548
(lp1549
Vrtc_clk_8m_enable
p1550
atp1551
a(L2766966958L
L1880226080L
(lp1552
(lp1553
Vrtc_clk_fast_freq_set
p1554
aVrtc_clk_slow_freq_set
p1555
atp1556
atp1557
sI1074239564
(Vverify_checksum
p1558
(lp1559
(L7413395L
L3785322319L
(lp1560
(lp1561
Vbootloader_flash_read
p1562
atp1563
a(L762020062L
L3785322319L
(lp1564
(lp1565
Vesp_log_early_timestamp
p1566
atp1567
a(L2902417580L
L0L
(lp1568
(lp1569
tp1570
a(L869036125L
L3785322319L
(lp1571
(lp1572
Vbootloader_sha256_data
p1573
atp1574
a(L4124473353L
L0L
(lp1575
(lp1576
tp1577
a(L1223427414L
L0L
(lp1578
(lp1579
tp1580
a(L755040691L
L0L
(lp1581
(lp1582
tp1583
atp1584
sI1074241996
(Vesp_rom_spiflash_read_statushigh
p1585
(lp1586
(L1444912833L
L3785322319L
(lp1587
(lp1588
Vesp_rom_spiflash_wait_idle
p1589
atp1590
atp1591
sI1074246732
(Vflash_gpio_configure
p1592
(lp1593
(L118045128L
L0L
(lp1594
(lp1595
tp1596
a(L1027089388L
L0L
(lp1597
(lp1598
tp1599
a(L3028464L
L0L
(lp1600
(lp1601
tp1602
a(L1027089388L
L0L
(lp1603
(lp1604
tp1605
a(L3028464L
L0L
(lp1606
(lp1607
tp1608
a(L1027089388L
L0L
(lp1609
(lp1610
tp1611
a(L3562545645L
L0L
(lp1612
(lp1613
tp1614
a(L62117783L
L0L
(lp1615
(lp1616
tp1617
a(L3360570486L
L0L
(lp1618
(lp1619
tp1620
atp1621
sI1074243016
(Vrtc_clk_8m_enable
p1622
(lp1623
(L1474360438L
L0L
(lp1624
(lp1625
tp1626
a(L253115121L
L0L
(lp1627
(lp1628
tp1629
a(L4062004890L
L0L
(lp1630
(lp1631
tp1632
a(L883921174L
L0L
(lp1633
(lp1634
tp1635
a(L792713600L
L0L
(lp1636
(lp1637
tp1638
a(L2221354618L
L0L
(lp1639
(lp1640
tp1641
atp1642
sI1074245960
(Vindex_to_partition
p1643
(lp1644
(L4066096119L
L0L
(lp1645
(lp1646
tp1647
a(L937847257L
L0L
(lp1648
(lp1649
tp1650
a(L2808906342L
L0L
(lp1651
(lp1652
tp1653
a(L1765918994L
L0L
(lp1654
(lp1655
tp1656
a(L2808826781L
L0L
(lp1657
(lp1658
tp1659
a(L2911029954L
L0L
(lp1660
(lp1661
tp1662
a(L2511483031L
L0L
(lp1663
(lp1664
tp1665
a(L1984670054L
L0L
(lp1666
(lp1667
tp1668
a(L3698927993L
L0L
(lp1669
(lp1670
tp1671
atp1672
sI1074246088
(V__udivdi3
p1673
(lp1674
(L1385793588L
L0L
(lp1675
(lp1676
tp1677
a(L3027019L
L0L
(lp1678
(lp1679
tp1680
a(L106L
L0L
(lp1681
(lp1682
tp1683
a(L2092509388L
L0L
(lp1684
(lp1685
tp1686
a(L3502386743L
L0L
(lp1687
(lp1688
tp1689
a(L1366962904L
L0L
(lp1690
(lp1691
tp1692
a(L438338333L
L0L
(lp1693
(lp1694
tp1695
a(L3027019L
L0L
(lp1696
(lp1697
tp1698
a(L1598954342L
L0L
(lp1699
(lp1700
tp1701
a(L3753924055L
L0L
(lp1702
(lp1703
tp1704
a(L1897931368L
L0L
(lp1705
(lp1706
tp1707
a(L1870013079L
L0L
(lp1708
(lp1709
tp1710
a(L3021749L
L0L
(lp1711
(lp1712
tp1713
a(L2802159608L
L0L
(lp1714
(lp1715
tp1716
a(L3888552627L
L0L
(lp1717
(lp1718
tp1719
a(L2632174215L
L0L
(lp1720
(lp1721
tp1722
a(L2910371777L
L0L
(lp1723
(lp1724
tp1725
a(L305663930L
L0L
(lp1726
(lp1727
tp1728
a(L2740121073L
L0L
(lp1729
(lp1730
tp1731
a(L706293450L
L0L
(lp1732
(lp1733
tp1734
a(L4229162210L
L0L
(lp1735
(lp1736
tp1737
a(L2843085605L
L0L
(lp1738
(lp1739
tp1740
a(L3027019L
L0L
(lp1741
(lp1742
tp1743
a(L3073587686L
L0L
(lp1744
(lp1745
tp1746
a(L3122262879L
L0L
(lp1747
(lp1748
tp1749
a(L1300871293L
L0L
(lp1750
(lp1751
tp1752
a(L94415139L
L0L
(lp1753
(lp1754
tp1755
a(L3027019L
L0L
(lp1756
(lp1757
tp1758
a(L11368960L
L0L
(lp1759
(lp1760
tp1761
a(L3212626947L
L0L
(lp1762
(lp1763
tp1764
a(L3756070799L
L0L
(lp1765
(lp1766
tp1767
a(L1029992261L
L0L
(lp1768
(lp1769
tp1770
a(L438338333L
L0L
(lp1771
(lp1772
tp1773
a(L3027019L
L0L
(lp1774
(lp1775
tp1776
a(L2534896770L
L0L
(lp1777
(lp1778
tp1779
a(L2789765947L
L0L
(lp1780
(lp1781
tp1782
a(L3482374298L
L0L
(lp1783
(lp1784
tp1785
a(L1870018349L
L0L
(lp1786
(lp1787
tp1788
a(L3027019L
L0L
(lp1789
(lp1790
tp1791
a(L2802159608L
L0L
(lp1792
(lp1793
tp1794
a(L3888552627L
L0L
(lp1795
(lp1796
tp1797
a(L36877582L
L0L
(lp1798
(lp1799
tp1800
a(L3021749L
L0L
(lp1801
(lp1802
tp1803
a(L106L
L0L
(lp1804
(lp1805
tp1806
a(L3988749468L
L0L
(lp1807
(lp1808
tp1809
a(L1375050317L
L0L
(lp1810
(lp1811
tp1812
a(L4185861754L
L0L
(lp1813
(lp1814
tp1815
a(L892947480L
L0L
(lp1816
(lp1817
tp1818
a(L2258688482L
L0L
(lp1819
(lp1820
tp1821
a(L2856348002L
L0L
(lp1822
(lp1823
tp1824
a(L1351383952L
L0L
(lp1825
(lp1826
tp1827
a(L1681866360L
L0L
(lp1828
(lp1829
tp1830
a(L3021749L
L0L
(lp1831
(lp1832
tp1833
a(L4115096326L
L0L
(lp1834
(lp1835
tp1836
a(L2229771582L
L0L
(lp1837
(lp1838
tp1839
a(L3630858718L
L0L
(lp1840
(lp1841
tp1842
a(L1986658244L
L0L
(lp1843
(lp1844
tp1845
a(L3027019L
L0L
(lp1846
(lp1847
tp1848
a(L2802159608L
L0L
(lp1849
(lp1850
tp1851
a(L2938387302L
L0L
(lp1852
(lp1853
tp1854
a(L3219580898L
L0L
(lp1855
(lp1856
tp1857
a(L4280816470L
L0L
(lp1858
(lp1859
tp1860
a(L97422L
L0L
(lp1861
(lp1862
tp1863
a(L1621601873L
L0L
(lp1864
(lp1865
tp1866
a(L3070693089L
L0L
(lp1867
(lp1868
tp1869
a(L2361595480L
L0L
(lp1870
(lp1871
tp1872
a(L539227760L
L0L
(lp1873
(lp1874
tp1875
atp1876
sI1074236116
(Vtry_load_partition
p1877
(lp1878
(L3877261386L
L0L
(lp1879
(lp1880
tp1881
a(L3042515454L
L3785322319L
(lp1882
(lp1883
Vesp_image_load
p1884
atp1885
a(L1661683483L
L3785322319L
(lp1886
(lp1887
Vesp_log_early_timestamp
p1888
atp1889
a(L2993202392L
L0L
(lp1890
(lp1891
tp1892
a(L2993202392L
L0L
(lp1893
(lp1894
tp1895
atp1896
sI1074235476
(Vwdt_reset_check
p1897
(lp1898
(L3824796740L
L0L
(lp1899
(lp1900
tp1901
a(L3020187L
L0L
(lp1902
(lp1903
tp1904
a(L367582592L
L0L
(lp1905
(lp1906
tp1907
a(L367642441L
L0L
(lp1908
(lp1909
tp1910
a(L2526089936L
L3785322319L
(lp1911
(lp1912
Vesp_log_early_timestamp
p1913
atp1914
a(L1298905564L
L0L
(lp1915
(lp1916
tp1917
a(L1465910262L
L0L
(lp1918
(lp1919
tp1920
a(L3020187L
L0L
(lp1921
(lp1922
tp1923
a(L225031483L
L0L
(lp1924
(lp1925
tp1926
a(L225091332L
L0L
(lp1927
(lp1928
tp1929
a(L2648194629L
L3785322319L
(lp1930
(lp1931
Vesp_log_early_timestamp
p1932
atp1933
a(L3020204L
L0L
(lp1934
(lp1935
tp1936
a(L1944713791L
L1880226080L
(lp1937
(lp1938
Vwdt_reset_info_dump
p1939
aVwdt_reset_info_dump
p1940
atp1941
a(L3738038928L
L3785322319L
(lp1942
(lp1943
Vwdt_reset_cpu0_info_enable
p1944
atp1945
atp1946
sI1074239700
(Vprocess_segment_data
p1947
(lp1948
(L3236683529L
L3785322319L
(lp1949
(lp1950
Vbootloader_mmap
p1951
atp1952
a(L2199757217L
L3785322319L
(lp1953
(lp1954
Vesp_log_early_timestamp
p1955
atp1956
a(L2383553044L
L3785322319L
(lp1957
(lp1958
Vbootloader_fill_random
p1959
atp1960
a(L2678743459L
L0L
(lp1961
(lp1962
tp1963
a(L2682437543L
L0L
(lp1964
(lp1965
tp1966
a(L1299866312L
L0L
(lp1967
(lp1968
tp1969
a(L2008416411L
L0L
(lp1970
(lp1971
tp1972
a(L127299853L
L0L
(lp1973
(lp1974
tp1975
a(L138464869L
L0L
(lp1976
(lp1977
tp1978
a(L4022339241L
L0L
(lp1979
(lp1980
tp1981
a(L4117779536L
L0L
(lp1982
(lp1983
tp1984
a(L2902417580L
L0L
(lp1985
(lp1986
tp1987
a(L2505185480L
L0L
(lp1988
(lp1989
tp1990
a(L3094078540L
L3785322319L
(lp1991
(lp1992
Vbootloader_sha256_data
p1993
atp1994
a(L1770629922L
L0L
(lp1995
(lp1996
tp1997
a(L3896226538L
L0L
(lp1998
(lp1999
tp2000
a(L1564127900L
L3785322319L
(lp2001
(lp2002
Vbootloader_munmap
p2003
atp2004
atp2005
sI1074239956
(Vshould_load
p2006
(lp2007
(L3982140489L
L3785322319L
(lp2008
(lp2009
Vshould_map
p2010
atp2011
a(L3608520007L
L0L
(lp2012
(lp2013
tp2014
a(L3028464L
L0L
(lp2015
(lp2016
tp2017
a(L1650726352L
L0L
(lp2018
(lp2019
tp2020
a(L619293977L
L0L
(lp2021
(lp2022
tp2023
a(L1610443436L
L0L
(lp2024
(lp2025
tp2026
a(L1610443405L
L0L
(lp2027
(lp2028
tp2029
a(L1298875774L
L0L
(lp2030
(lp2031
tp2032
a(L735741265L
L0L
(lp2033
(lp2034
tp2035
atp2036
sI1074241364
(Vbootloader_sha256_finish
p2037
(lp2038
(L4066096136L
L0L
(lp2039
(lp2040
tp2041
a(L367408771L
L3785322319L
(lp2042
(lp2043
V__assert_func
p2044
atp2045
a(L3020204L
L0L
(lp2046
(lp2047
tp2048
a(L4187132215L
L0L
(lp2049
(lp2050
tp2051
a(L2534656226L
L0L
(lp2052
(lp2053
tp2054
a(L321015369L
L0L
(lp2055
(lp2056
tp2057
a(L3614244382L
L3785322319L
(lp2058
(lp2059
V__assert_func
p2060
atp2061
a(L3446510995L
L3785322319L
(lp2062
(lp2063
Vbootloader_sha256_data
p2064
atp2065
a(L2187223190L
L3785322319L
(lp2066
(lp2067
V__assert_func
p2068
atp2069
a(L1416543277L
L1880226080L
(lp2070
(lp2071
V__bswapsi2
p2072
aVbootloader_sha256_data
p2073
atp2074
a(L2548430727L
L3785322319L
(lp2075
(lp2076
V__assert_func
p2077
atp2078
a(L23243725L
L0L
(lp2079
(lp2080
tp2081
a(L1363620083L
L0L
(lp2082
(lp2083
tp2084
a(L23243725L
L0L
(lp2085
(lp2086
tp2087
a(L1299866312L
L0L
(lp2088
(lp2089
tp2090
a(L1040622621L
L3785322319L
(lp2091
(lp2092
V__bswapsi2
p2093
atp2094
a(L93837694L
L0L
(lp2095
(lp2096
tp2097
a(L3347778L
L0L
(lp2098
(lp2099
tp2100
a(L3360570486L
L0L
(lp2101
(lp2102
tp2103
atp2104
sI1074237392
(Vcall_start_cpu0
p2105
(lp2106
(L2932941444L
L0L
(lp2107
(lp2108
tp2109
a(L1427973090L
L0L
(lp2110
(lp2111
tp2112
a(L93837694L
L0L
(lp2113
(lp2114
tp2115
a(L801484231L
L0L
(lp2116
(lp2117
tp2118
a(L2446469643L
L3785322319L
(lp2119
(lp2120
V__assert_func
p2121
atp2122
a(L3719211186L
L0L
(lp2123
(lp2124
tp2125
a(L1647992086L
L3785322319L
(lp2126
(lp2127
V__assert_func
p2128
atp2129
a(L3289910532L
L0L
(lp2130
(lp2131
tp2132
a(L3673877829L
L3785322319L
(lp2133
(lp2134
V__assert_func
p2135
atp2136
a(L3322233767L
L0L
(lp2137
(lp2138
tp2139
a(L1906129568L
L3785322319L
(lp2140
(lp2141
V__assert_func
p2142
atp2143
a(L3159813893L
L3785322319L
(lp2144
(lp2145
Vbootloader_main
p2146
atp2147
atp2148
sI1074238288
(Vbootloader_flash_read
p2149
(lp2150
(L1127605422L
L0L
(lp2151
(lp2152
tp2153
a(L1184684910L
L3785322319L
(lp2154
(lp2155
Vesp_log_early_timestamp
p2156
atp2157
a(L899934477L
L0L
(lp2158
(lp2159
tp2160
a(L152847408L
L3785322319L
(lp2161
(lp2162
Vesp_log_early_timestamp
p2163
atp2164
a(L2696885836L
L0L
(lp2165
(lp2166
tp2167
a(L4087189973L
L3785322319L
(lp2168
(lp2169
Vesp_log_early_timestamp
p2170
atp2171
a(L3020204L
L0L
(lp2172
(lp2173
tp2174
a(L3807724270L
L3785322319L
(lp2175
(lp2176
Vbootloader_flash_read_allow_decrypt
p2177
atp2178
a(L1959236078L
L3785322319L
(lp2179
(lp2180
Vbootloader_flash_read_no_decrypt
p2181
atp2182
atp2183
sI1074241616
(Vesp_rom_spiflash_read_status
p2184
(lp2185
(L1145102115L
L0L
(lp2186
(lp2187
tp2188
a(L106L
L0L
(lp2189
(lp2190
tp2191
a(L511442781L
L0L
(lp2192
(lp2193
tp2194
a(L525040155L
L0L
(lp2195
(lp2196
tp2197
a(L3099738587L
L0L
(lp2198
(lp2199
tp2200
a(L4159619641L
L0L
(lp2201
(lp2202
tp2203
a(L106L
L0L
(lp2204
(lp2205
tp2206
a(L3100508863L
L0L
(lp2207
(lp2208
tp2209
a(L4159619641L
L0L
(lp2210
(lp2211
tp2212
a(L2392720019L
L0L
(lp2213
(lp2214
tp2215
atp2216
sI1074244176
(Vrtc_clk_cpu_freq_set
p2217
(lp2218
(L1395729724L
L1832448559L
(lp2219
(lp2220
Vrtc_clk_xtal_freq_get
p2221
aVrtc_clk_wait_for_slow_cycle
p2222
aVrtc_clk_apb_freq_update
p2223
atp2224
a(L2747950472L
L0L
(lp2225
(lp2226
tp2227
a(L3020204L
L0L
(lp2228
(lp2229
tp2230
a(L3028464L
L0L
(lp2231
(lp2232
tp2233
a(L1341737943L
L3785322319L
(lp2234
(lp2235
Vrtc_clk_apb_freq_update
p2236
atp2237
a(L396032367L
L3785322319L
(lp2238
(lp2239
Vrtc_clk_bbpll_set
p2240
atp2241
a(L1838865960L
L0L
(lp2242
(lp2243
tp2244
a(L3028464L
L0L
(lp2245
(lp2246
tp2247
a(L963991466L
L0L
(lp2248
(lp2249
tp2250
a(L3028464L
L0L
(lp2251
(lp2252
tp2253
a(L1220267341L
L0L
(lp2254
(lp2255
tp2256
a(L1100177012L
L1880226080L
(lp2257
(lp2258
Vrtc_clk_wait_for_slow_cycle
p2259
aVrtc_clk_apb_freq_update
p2260
atp2261
a(L394580740L
L0L
(lp2262
(lp2263
tp2264
atp2265
sI1074239448
(Vverify_segment_header
p2266
(lp2267
(L3674778058L
L0L
(lp2268
(lp2269
tp2270
a(L763846218L
L0L
(lp2271
(lp2272
tp2273
a(L3028481L
L0L
(lp2274
(lp2275
tp2276
a(L3758683065L
L3785322319L
(lp2277
(lp2278
Vesp_log_early_timestamp
p2279
atp2280
a(L536784482L
L3785322319L
(lp2281
(lp2282
Vshould_map
p2283
atp2284
a(L3496178735L
L0L
(lp2285
(lp2286
tp2287
a(L2910371777L
L0L
(lp2288
(lp2289
tp2290
a(L2959055859L
L3785322319L
(lp2291
(lp2292
Vesp_log_early_timestamp
p2293
atp2294
a(L1365128905L
L0L
(lp2295
(lp2296
tp2297
a(L2993202392L
L0L
(lp2298
(lp2299
tp2300
a(L2993202392L
L0L
(lp2301
(lp2302
tp2303
a(L1365128905L
L0L
(lp2304
(lp2305
tp2306
atp2307
sI1074239320
(Vverify_image_header
p2308
(lp2309
(L646134928L
L0L
(lp2310
(lp2311
tp2312
a(L3028481L
L0L
(lp2313
(lp2314
tp2315
a(L576742022L
L3785322319L
(lp2316
(lp2317
Vesp_log_early_timestamp
p2318
atp2319
a(L1302636875L
L0L
(lp2320
(lp2321
tp2322
a(L3901820118L
L0L
(lp2323
(lp2324
tp2325
a(L3028481L
L0L
(lp2326
(lp2327
tp2328
a(L3270243289L
L0L
(lp2329
(lp2330
tp2331
a(L3837784217L
L3785322319L
(lp2332
(lp2333
Vesp_log_early_timestamp
p2334
atp2335
a(L385352084L
L0L
(lp2336
(lp2337
tp2338
a(L3266658365L
L3785322319L
(lp2339
(lp2340
Vesp_log_early_timestamp
p2341
atp2342
a(L464010095L
L0L
(lp2343
(lp2344
tp2345
atp2346
sI1074238424
(Vbootloader_fill_random
p2347
(lp2348
(L173175206L
L0L
(lp2349
(lp2350
tp2351
a(L2902417580L
L0L
(lp2352
(lp2353
tp2354
a(L3448782426L
L0L
(lp2355
(lp2356
tp2357
a(L3041151353L
L0L
(lp2358
(lp2359
tp2360
a(L2205107862L
L0L
(lp2361
(lp2362
tp2363
a(L713870975L
L0L
(lp2364
(lp2365
tp2366
a(L2192561533L
L0L
(lp2367
(lp2368
tp2369
a(L3360570486L
L0L
(lp2370
(lp2371
tp2372
atp2373
sI1074243928
(Vrtc_clk_cpu_freq_get
p2374
(lp2375
(L950323580L
L0L
(lp2376
(lp2377
tp2378
a(L3020187L
L0L
(lp2379
(lp2380
tp2381
a(L106L
L0L
(lp2382
(lp2383
tp2384
a(L1440155492L
L0L
(lp2385
(lp2386
tp2387
a(L160790007L
L3785322319L
(lp2388
(lp2389
Vrtc_clk_xtal_freq_get
p2390
atp2391
a(L1947674045L
L3785322319L
(lp2392
(lp2393
V__assert_func
p2394
atp2395
a(L3878215014L
L0L
(lp2396
(lp2397
tp2398
a(L3020187L
L0L
(lp2399
(lp2400
tp2401
a(L3020187L
L0L
(lp2402
(lp2403
tp2404
a(L2441341145L
L3785322319L
(lp2405
(lp2406
V__assert_func
p2407
atp2408
a(L2564757920L
L3785322319L
(lp2409
(lp2410
V__assert_func
p2411
atp2412
a(L2993202392L
L0L
(lp2413
(lp2414
tp2415
a(L2248249820L
L0L
(lp2416
(lp2417
tp2418
a(L3880706073L
L0L
(lp2419
(lp2420
tp2421
a(L473242458L
L0L
(lp2422
(lp2423
tp2424
a(L1360746139L
L0L
(lp2425
(lp2426
tp2427
atp2428
sI1074245336
(Vrtc_vddsdio_set_config
p2429
(lp2430
(L1195577412L
L0L
(lp2431
(lp2432
tp2433
atp2434
sI1074238052
(Vbootloader_mmap
p2435
(lp2436
(L3412051243L
L0L
(lp2437
(lp2438
tp2439
a(L2609881421L
L3785322319L
(lp2440
(lp2441
Vesp_log_early_timestamp
p2442
atp2443
a(L1043034688L
L0L
(lp2444
(lp2445
tp2446
a(L2022890854L
L3785322319L
(lp2447
(lp2448
Vesp_log_early_timestamp
p2449
atp2450
a(L1081567598L
L0L
(lp2451
(lp2452
tp2453
a(L3555883100L
L3785322319L
(lp2454
(lp2455
Vesp_log_early_timestamp
p2456
atp2457
a(L4188129414L
L0L
(lp2458
(lp2459
tp2460
atp2461
sI1074243172
(Vrtc_clk_8m_enabled
p2462
(lp2463
(L3065957224L
L0L
(lp2464
(lp2465
tp2466
atp2467
sI1074243428
(Vrtc_clk_slow_freq_get
p2468
(lp2469
(L1111099393L
L0L
(lp2470
(lp2471
tp2472
atp2473
sI1074235744
(Vota_select_crc
p2474
(lp2475
(L2324626627L
L0L
(lp2476
(lp2477
tp2478
atp2479
sI1074244064
(Vrtc_clk_cpu_freq_value
p2480
(lp2481
(L607216364L
L0L
(lp2482
(lp2483
tp2484
a(L2608327024L
L0L
(lp2485
(lp2486
tp2487
a(L2918507656L
L3785322319L
(lp2488
(lp2489
V__assert_func
p2490
atp2491
atp2492
sI1074235368
(Vvddsdio_configure
p2493
(lp2494
(L1829974089L
L3785322319L
(lp2495
(lp2496
Vrtc_vddsdio_get_config
p2497
atp2498
a(L4187865307L
L3785322319L
(lp2499
(lp2500
Vrtc_vddsdio_set_config
p2501
atp2502
a(L3360570486L
L0L
(lp2503
(lp2504
tp2505
atp2506
sI1074241000
(Vesp_partition_table_basic_verify
p2507
(lp2508
(L507903081L
L0L
(lp2509
(lp2510
tp2511
a(L3156402467L
L0L
(lp2512
(lp2513
tp2514
a(L1143016815L
L0L
(lp2515
(lp2516
tp2517
a(L1918216046L
L0L
(lp2518
(lp2519
tp2520
a(L3020204L
L0L
(lp2521
(lp2522
tp2523
a(L3292422419L
L3785322319L
(lp2524
(lp2525
Vesp_log_early_timestamp
p2526
atp2527
a(L2348116621L
L0L
(lp2528
(lp2529
tp2530
a(L2712683701L
L0L
(lp2531
(lp2532
tp2533
a(L3020204L
L0L
(lp2534
(lp2535
tp2536
a(L3106336646L
L3785322319L
(lp2537
(lp2538
Vesp_log_early_timestamp
p2539
atp2540
a(L3393260311L
L0L
(lp2541
(lp2542
tp2543
a(L474845143L
L0L
(lp2544
(lp2545
tp2546
a(L3020204L
L0L
(lp2547
(lp2548
tp2549
a(L3523535895L
L3785322319L
(lp2550
(lp2551
Vesp_log_early_timestamp
p2552
atp2553
a(L2966513628L
L0L
(lp2554
(lp2555
tp2556
a(L3854017309L
L0L
(lp2557
(lp2558
tp2559
a(L2966513628L
L0L
(lp2560
(lp2561
tp2562
atp2563
sI1074241768
(Vesp_rom_spiflash_read_data
p2564
(lp2565
(L4122033220L
L0L
(lp2566
(lp2567
tp2568
a(L106L
L0L
(lp2569
(lp2570
tp2571
a(L2070875117L
L3785322319L
(lp2572
(lp2573
Vesp_rom_spiflash_wait_idle
p2574
atp2575
a(L2761836345L
L0L
(lp2576
(lp2577
tp2578
a(L821835905L
L0L
(lp2579
(lp2580
tp2581
a(L525040155L
L0L
(lp2582
(lp2583
tp2584
a(L106L
L0L
(lp2585
(lp2586
tp2587
a(L3003634337L
L0L
(lp2588
(lp2589
tp2590
a(L256664550L
L0L
(lp2591
(lp2592
tp2593
a(L663200857L
L0L
(lp2594
(lp2595
tp2596
a(L1013782913L
L0L
(lp2597
(lp2598
tp2599
a(L525040155L
L0L
(lp2600
(lp2601
tp2602
a(L1263158627L
L0L
(lp2603
(lp2604
tp2605
a(L131455463L
L0L
(lp2606
(lp2607
tp2608
a(L4208385735L
L0L
(lp2609
(lp2610
tp2611
a(L1305407438L
L0L
(lp2612
(lp2613
tp2614
a(L3003634337L
L0L
(lp2615
(lp2616
tp2617
a(L3027019L
L0L
(lp2618
(lp2619
tp2620
a(L2258777855L
L0L
(lp2621
(lp2622
tp2623
a(L3027007L
L0L
(lp2624
(lp2625
tp2626
a(L106L
L0L
(lp2627
(lp2628
tp2629
a(L2993202392L
L0L
(lp2630
(lp2631
tp2632
a(L3880706073L
L0L
(lp2633
(lp2634
tp2635
atp2636
sI1074237812
(Vspi_to_esp_err
p2637
(lp2638
(L4037458691L
L0L
(lp2639
(lp2640
tp2641
a(L2902417580L
L0L
(lp2642
(lp2643
tp2644
a(L3020187L
L0L
(lp2645
(lp2646
tp2647
a(L106L
L0L
(lp2648
(lp2649
tp2650
a(L2993202392L
L0L
(lp2651
(lp2652
tp2653
a(L3738366853L
L0L
(lp2654
(lp2655
tp2656
a(L515633988L
L0L
(lp2657
(lp2658
tp2659
a(L188352129L
L0L
(lp2660
(lp2661
tp2662
atp2663
sI1074235764
(Vota_select_valid
p2664
(lp2665
(L2808438197L
L0L
(lp2666
(lp2667
tp2668
a(L3881267543L
L3785322319L
(lp2669
(lp2670
Vota_select_crc
p2671
atp2672
a(L3880706073L
L0L
(lp2673
(lp2674
tp2675
a(L2993202392L
L0L
(lp2676
(lp2677
tp2678
a(L2993202392L
L0L
(lp2679
(lp2680
tp2681
atp2682
sI1074243444
(Vrtc_clk_fast_freq_set
p2683
(lp2684
(L1976765964L
L0L
(lp2685
(lp2686
tp2687
atp2688
sI1074242032
(Vesp_rom_spiflash_write_status
p2689
(lp2690
(L1528301510L
L3785322319L
(lp2691
(lp2692
Vesp_rom_spiflash_wait_idle
p2693
atp2694
a(L1025574939L
L0L
(lp2695
(lp2696
tp2697
a(L1387965403L
L3785322319L
(lp2698
(lp2699
Vesp_rom_spiflash_wait_idle
p2700
atp2701
atp2702
sI1074237692
(Vbootloader_clock_configure
p2703
(lp2704
(L3493042567L
L0L
(lp2705
(lp2706
tp2707
a(L3423705047L
L0L
(lp2708
(lp2709
tp2710
a(L1533556206L
L0L
(lp2711
(lp2712
tp2713
a(L1305407469L
L0L
(lp2714
(lp2715
tp2716
a(L2258867231L
L0L
(lp2717
(lp2718
tp2719
a(L3391264605L
L1832448559L
(lp2720
(lp2721
Vrtc_clk_slow_freq_get
p2722
aVrtc_clk_fast_freq_get
p2723
aVrtc_clk_init
p2724
atp2725
atp2726
sI1074235640
(Vupdate_flash_config
p2727
(lp2728
(L1046059555L
L0L
(lp2729
(lp2730
tp2731
a(L93674324L
L0L
(lp2732
(lp2733
tp2734
a(L2902417580L
L0L
(lp2735
(lp2736
tp2737
a(L106L
L0L
(lp2738
(lp2739
tp2740
a(L3020187L
L0L
(lp2741
(lp2742
tp2743
a(L3020187L
L0L
(lp2744
(lp2745
tp2746
a(L106L
L0L
(lp2747
(lp2748
tp2749
a(L1299866343L
L0L
(lp2750
(lp2751
tp2752
a(L1299866436L
L0L
(lp2753
(lp2754
tp2755
a(L1299866560L
L0L
(lp2756
(lp2757
tp2758
a(L1641149277L
L0L
(lp2759
(lp2760
tp2761
a(L2258688484L
L0L
(lp2762
(lp2763
tp2764
a(L845574372L
L0L
(lp2765
(lp2766
tp2767
atp2768
sI1074239864
(Vverify_simple_hash
p2769
(lp2770
(L2769221162L
L1880226080L
(lp2771
(lp2772
Vbootloader_sha256_finish
p2773
aVbootloader_mmap
p2774
atp2775
a(L1227269302L
L1880226080L
(lp2776
(lp2777
Vesp_log_early_timestamp
p2778
aVbootloader_munmap
p2779
atp2780
a(L1606099250L
L3785322319L
(lp2781
(lp2782
Vbootloader_munmap
p2783
atp2784
atp2785
ssS'functionsdups'
p2786
g11
((lp2787
tp2788
Rp2789
sS'immediatedups'
p2790
g11
((lp2791
tp2792
Rp2793
sS'functiondups'
p2794
g11
((lp2795
tp2796
Rp2797
sS'fuzzy'
p2798
(dp2799
L4061702297L
I1074241716
sL2820395417L
I1074237392
sL613958811L
I1074237088
sL381930313L
I1074239564
sL750476080L
I1074244672
sL3495415001L
I1074241364
sL2923369897L
I1074239956
sL3881399234L
I1074236116
sL312818747L
I1074235280
sL1622145584L
I1074246088
sL1419845120L
I1074241616
sL1420005888L
I1074243016
sL3110146889L
I1074236556
sL1991897232L
I1074242032
sL1862362671L
I1074236736
sL47664L
I1074238232
sL1766137975L
I1074242968
sL2723847017L
I1074238288
sL3619350029L
I1074239700
sL1146078197L
I1074236168
sL2919037255L
I1074235040
sL3470473625L
I1074245408
sL533883930L
I1074235476
sL2649994811L
I1074243872
sL746513591L
I1074235764
sL433784338L
I1074234808
sL3481520713L
I1074242084
sL4160102055L
I1074237360
sL2374435286L
I1074235796
sL1768086576L
I1074235640
sL2474783190L
I1074243228
sL2173442391L
I1074241000
sL356211301L
I1074240024
sL2062573358L
I1074240412
sL3674796887L
I1074237692
sL3077306633L
I1074239320
sL4270185191L
I1074243504
sL2705984041L
I1074241768
sL3380377753L
I1074242192
sL138378967L
I1074238052
sL3128965227L
I1074239448
sL3706231047L
I1074241200
sL2587589066L
I1074244176
sL4155364446L
I1074235368
sL3375802432L
I1074243928
sL59547383L
I1074237848
sL846681611L
I1074239864
sL1070509616L
I1074245060
ssb.