ccopy_reg
_reconstructor
p0
(crizzo
RizzoSignature
p1
c__builtin__
object
p2
Ntp3
Rp4
(dp5
S'formal'
p6
(dp7
L1744490495L
I1074243512
sL4245785883L
I1074245336
sL2530571739L
I1074269696
sL3756809980L
I1074244508
sL3524607495L
I1074241068
sL412791177L
I1074236948
sL3071374850L
I1074244788
sL217465057L
I1074237836
sL4213015302L
I1074242684
sL2915423193L
I1074267748
sL904905202L
I1074244920
sL2821324810L
I1074240092
sL2810657190L
I1074237536
sL3211103558L
I1074236260
sL824608517L
I1074244584
sL2278034401L
I1074267960
sL4125750469L
I1074245572
sL1010441494L
I1074246180
sL1655241605L
I1074246396
sL3599547326L
I1074244540
sL2896295319L
I1074236424
sL2233168941L
I1074239172
sL2481804762L
I1074235536
sL1368716712L
I1074239288
sL3007798650L
I1074244664
sL2032853271L
I1074245656
sL475375211L
I1074237252
sL4192207264L
I1074240164
sL3892151999L
I1074239528
sL2631703448L
I1074267772
sL3437540012L
I1074236664
sL1174686284L
I1074238308
sL196698353L
I1074238692
sL3262843184L
I1074245740
sL3222637400L
I1074270192
sL1966414971L
I1074246864
sL4082361884L
I1074236496
sL946431294L
I1074244524
sL2705143141L
I1074245696
sL1627375778L
I1074236408
sL2021899486L
I1074238728
sL1390675332L
I1074245220
sL979078714L
I1074237564
sL195337158L
I1074243132
sL2628725964L
I1074267139
sL1189803663L
I1074246268
sL1942275491L
I1074240536
sL3861455681L
I1074236760
sL1457748625L
I1074236812
sL2149999445L
I1074238624
sL4024636565L
I1074235784
sL2706110768L
I1074267928
sL4240871098L
I1074268904
sL410932739L
I1074244996
sL1362770503L
I1074270224
sL1170950984L
I1074245756
sL3034487389L
I1074267844
sL676927194L
I1074267920
sL3904868667L
I1074240948
sL3307282855L
I1074237716
sL3822195035L
I1074245548
sL474244553L
I1074243084
sL612086517L
I1074235148
sL3399701292L
I1074243684
sL3629635783L
I1074239840
sL2215356827L
I1074246140
sL465017637L
I1074269068
sL3338389103L
I1074236528
sL797232920L
I1074240348
sL3507863989L
I1074245056
sL3294288889L
I1074234616
sL3339656107L
I1074237028
sL382482280L
I1074268224
sL480909580L
I1074245524
sL2229963597L
I1074246440
sL2993347781L
I1074235440
sL2997001746L
I1074236720
sL1142624427L
I1074236904
sL3028742962L
I1074268180
sL991771048L
I1074243772
sL1005978191L
I1074268888
sL2819127986L
I1074236684
sL1016152107L
I1074267664
sL2227116035L
I1074237200
sL3014546450L
I1074239796
sL2739975917L
I1074269768
sL1164083360L
I1074235492
sL930531519L
I1074239088
sL2734212149L
I1074237744
sL326912946L
I1074245396
sL3266461821L
I1074240592
sL347593336L
I1074243380
sL260073047L
I1074269536
sL2263182908L
I1074237736
sL1551465639L
I1074243192
sL188664287L
I1074235116
sL2304712381L
I1074246468
sL4072204123L
I1074235672
sL587391206L
I1074242700
sL692536993L
I1074236920
sL3952491901L
I1074245640
sL3530260869L
I1074267816
sL455785435L
I1074246584
sL2546650686L
I1074240184
sL2994780539L
I1074239320
sL2321708957L
I1074242992
ssS'immediates'
p8
(dp9
sS'formaldups'
p10
c__builtin__
set
p11
((lp12
tp13
Rp14
sS'stringdups'
p15
g11
((lp16
tp17
Rp18
sS'fuzzydups'
p19
g11
((lp20
tp21
Rp22
sS'strings'
p23
(dp24
sS'functions'
p25
(dp26
I1074267136
(V_init
p27
(lp28
(L3493042598L
L0L
(lp29
(lp30
tp31
atp32
sI1074269696
(Vrtc_vddsdio_set_config
p33
(lp34
(L3507813095L
L0L
(lp35
(lp36
tp37
atp38
sI1074236684
(Vbootloader_common_ota_select_valid
p39
(lp40
(L1563399710L
L3785322319L
(lp41
(lp42
Vbootloader_common_ota_select_invalid
p43
atp44
a(L3814720849L
L3785322319L
(lp45
(lp46
Vbootloader_common_ota_select_crc
p47
atp48
a(L3360570486L
L0L
(lp49
(lp50
tp51
atp52
sI1074235148
(Vbootloader_flash_unlock
p53
(lp54
(L142706334L
L3785322319L
(lp55
(lp56
Vesp_rom_spiflash_wait_idle
p57
atp58
a(L4024621237L
L0L
(lp59
(lp60
tp61
a(L4292483033L
L3785322319L
(lp62
(lp63
Vbootloader_execute_flash_command
p64
atp65
a(L106L
L0L
(lp66
(lp67
tp68
a(L1303560644L
L0L
(lp69
(lp70
tp71
a(L1419965066L
L0L
(lp72
(lp73
tp74
a(L106L
L0L
(lp75
(lp76
tp77
a(L1633120054L
L0L
(lp78
(lp79
tp80
a(L106L
L0L
(lp81
(lp82
tp83
a(L2974484771L
L0L
(lp84
(lp85
tp86
a(L106L
L0L
(lp87
(lp88
tp89
a(L1481761147L
L1880226080L
(lp90
(lp91
Vbootloader_execute_flash_command
p92
aVbootloader_execute_flash_command
p93
atp94
a(L2258807654L
L0L
(lp95
(lp96
tp97
a(L489806350L
L1832448559L
(lp98
(lp99
Vesp_rom_spiflash_wait_idle
p100
aVbootloader_execute_flash_command
p101
aVbootloader_execute_flash_command
p102
atp103
a(L879744646L
L1832448559L
(lp104
(lp105
Vesp_rom_spiflash_wait_idle
p106
aVbootloader_execute_flash_command
p107
aVbootloader_execute_flash_command
p108
atp109
a(L1840772931L
L1880226080L
(lp110
(lp111
Vesp_rom_spiflash_wait_idle
p112
aVbootloader_execute_flash_command
p113
atp114
a(L2993202392L
L0L
(lp115
(lp116
tp117
a(L508800419L
L1880226080L
(lp118
(lp119
Vbootloader_execute_flash_command
p120
aVbootloader_execute_flash_command
p121
atp122
a(L1303560369L
L0L
(lp123
(lp124
tp125
a(L1596544945L
L0L
(lp126
(lp127
tp128
a(L97689L
L0L
(lp129
(lp130
tp131
a(L106L
L0L
(lp132
(lp133
tp134
atp135
sI1074243084
(Vesp_rom_spiflash_wait_idle
p136
(lp137
(L3233076279L
L0L
(lp138
(lp139
tp140
a(L2023766174L
L0L
(lp141
(lp142
tp143
a(L2805934236L
L0L
(lp144
(lp145
tp146
a(L3086959262L
L0L
(lp147
(lp148
tp149
a(L4161019926L
L3785322319L
(lp150
(lp151
Vesp_rom_spiflash_read_status
p152
atp153
atp154
sI1074267139
(V_text_start
p155
(lp156
(L2557086379L
L0L
(lp157
(lp158
tp159
atp160
sI1074236424
(Vis_xmc_chip_strict
p161
(lp162
(L1286841609L
L0L
(lp163
(lp164
tp165
a(L2234016759L
L0L
(lp166
(lp167
tp168
a(L1069027148L
L0L
(lp169
(lp170
tp171
a(L3021749L
L0L
(lp172
(lp173
tp174
a(L1900148749L
L0L
(lp175
(lp176
tp177
a(L1936875721L
L0L
(lp178
(lp179
tp180
a(L3356166509L
L0L
(lp181
(lp182
tp183
a(L1937769451L
L0L
(lp184
(lp185
tp186
a(L2137658907L
L0L
(lp187
(lp188
tp189
a(L4265949734L
L0L
(lp190
(lp191
tp192
a(L3360570486L
L0L
(lp193
(lp194
tp195
atp196
sI1074238728
(Vunpack_load_app
p197
(lp198
(L2818852515L
L0L
(lp199
(lp200
tp201
a(L1942872024L
L0L
(lp202
(lp203
tp204
a(L106L
L0L
(lp205
(lp206
tp207
a(L926520601L
L0L
(lp208
(lp209
tp210
a(L2010554219L
L0L
(lp211
(lp212
tp213
a(L3268103L
L0L
(lp214
(lp215
tp216
a(L3430065267L
L0L
(lp217
(lp218
tp219
a(L2664428081L
L0L
(lp220
(lp221
tp222
a(L2902417580L
L0L
(lp223
(lp224
tp225
a(L3053751805L
L3785322319L
(lp226
(lp227
Vesp_log_early_timestamp
p228
atp229
a(L3675656700L
L0L
(lp230
(lp231
tp232
a(L1288816546L
L0L
(lp233
(lp234
tp235
a(L3020204L
L0L
(lp236
(lp237
tp238
a(L2381214970L
L3785322319L
(lp239
(lp240
Vesp_log_early_timestamp
p241
atp242
a(L340328320L
L0L
(lp243
(lp244
tp245
a(L298990563L
L0L
(lp246
(lp247
tp248
atp249
sI1074245640
(Vrtc_clk_slow_freq_get
p250
(lp251
(L1150438528L
L0L
(lp252
(lp253
tp254
atp255
sI1074267928
(V__assert_func
p256
(lp257
(L1927718910L
L3785322319L
(lp258
(lp259
Vesp_log_early_timestamp
p260
atp261
a(L106L
L0L
(lp262
(lp263
tp264
atp265
sI1074245396
(Vrtc_clk_8m_enable
p266
(lp267
(L427270268L
L0L
(lp268
(lp269
tp270
a(L1437412529L
L0L
(lp271
(lp272
tp273
a(L2151320156L
L0L
(lp274
(lp275
tp276
a(L2453986175L
L0L
(lp277
(lp278
tp279
a(L3360570486L
L0L
(lp280
(lp281
tp282
a(L1318267208L
L0L
(lp283
(lp284
tp285
a(L3632680381L
L0L
(lp286
(lp287
tp288
atp289
sI1074237716
(Vbootloader_enable_wp
p290
(lp291
(L1117825804L
L3785322319L
(lp292
(lp293
Vbootloader_execute_flash_command
p294
atp295
atp296
sI1074236948
(Vbootloader_common_select_otadata
p297
(lp298
(L2342662536L
L0L
(lp299
(lp300
tp301
a(L3806783650L
L0L
(lp302
(lp303
tp304
a(L1674928252L
L0L
(lp305
(lp306
tp307
a(L251571983L
L0L
(lp308
(lp309
tp310
a(L3360570486L
L0L
(lp311
(lp312
tp313
a(L2045232488L
L0L
(lp314
(lp315
tp316
a(L3379299350L
L0L
(lp317
(lp318
tp319
a(L3094149227L
L0L
(lp320
(lp321
tp322
a(L2403798097L
L0L
(lp323
(lp324
tp325
a(L1641201884L
L0L
(lp326
(lp327
tp328
atp329
sI1074237200
(Vbootloader_munmap
p330
(lp331
(L3478154761L
L0L
(lp332
(lp333
tp334
a(L1698605426L
L0L
(lp335
(lp336
tp337
a(L3360570486L
L0L
(lp338
(lp339
tp340
atp341
sI1074267664
(Vcall_start_cpu0
p342
(lp343
(L1974457732L
L3785322319L
(lp344
(lp345
Vbootloader_init
p346
atp347
a(L94425498L
L3785322319L
(lp348
(lp349
Vbootloader_reset
p350
atp351
a(L2802776775L
L3785322319L
(lp352
(lp353
Vbootloader_utility_load_partition_table
p354
atp355
a(L4026389016L
L3785322319L
(lp356
(lp357
Vesp_log_early_timestamp
p358
atp359
a(L2395089516L
L3785322319L
(lp360
(lp361
Vbootloader_utility_get_selected_boot_partition
p362
atp363
a(L2086982338L
L1880226080L
(lp364
(lp365
Vbootloader_common_get_reset_reason
p366
aVbootloader_utility_load_boot_image
p367
atp368
atp369
sI1074267920
(Vbootloader_enable_random
p370
(lp371
(L1287383080L
L3785322319L
(lp372
(lp373
Vbootloader_random_enable
p374
atp375
atp376
sI1074270224
(Vrtc_clk_wait_for_slow_cycle
p377
(lp378
(L2432933075L
L0L
(lp379
(lp380
tp381
a(L4072319722L
L0L
(lp382
(lp383
tp384
a(L3360570486L
L0L
(lp385
(lp386
tp387
atp388
sI1074268180
(Vabort
p389
(lp390
(L1085118342L
L3785322319L
(lp391
(lp392
Vesp_cpu_in_ocd_debug_mode
p393
atp394
a(L409441471L
L0L
(lp395
(lp396
tp397
a(L106L
L0L
(lp398
(lp399
tp400
atp401
sI1074235672
(Vbootloader_flash_cs_timing_config
p402
(lp403
(L1061398432L
L0L
(lp404
(lp405
tp406
atp407
sI1074240536
(Vbootloader_util_regions_overlap
p408
(lp409
(L2762640130L
L0L
(lp410
(lp411
tp412
a(L3320099443L
L0L
(lp413
(lp414
tp415
a(L99098459L
L3785322319L
(lp416
(lp417
V__assert_func
p418
atp419
a(L97642L
L0L
(lp420
(lp421
tp422
a(L407786979L
L0L
(lp423
(lp424
tp425
a(L366123053L
L0L
(lp426
(lp427
tp428
a(L2258867228L
L0L
(lp429
(lp430
tp431
a(L1253626734L
L0L
(lp432
(lp433
tp434
a(L2258897019L
L0L
(lp435
(lp436
tp437
a(L3109269495L
L0L
(lp438
(lp439
tp440
atp441
sI1074245656
(Vrtc_clk_slow_freq_get_hz
p442
(lp443
(L2382589820L
L0L
(lp444
(lp445
tp446
a(L1223775096L
L0L
(lp447
(lp448
tp449
a(L3287561567L
L0L
(lp450
(lp451
tp452
a(L3360570486L
L0L
(lp453
(lp454
tp455
atp456
sI1074246180
(Vrtc_clk_cpu_freq_mhz_to_config
p457
(lp458
(L2601984125L
L3785322319L
(lp459
(lp460
Vrtc_clk_xtal_freq_get
p461
atp462
a(L2089656409L
L0L
(lp463
(lp464
tp465
a(L3814337874L
L0L
(lp466
(lp467
tp468
a(L3126521138L
L0L
(lp469
(lp470
tp471
a(L2762074623L
L0L
(lp472
(lp473
tp474
a(L1541996779L
L0L
(lp475
(lp476
tp477
a(L2916936348L
L0L
(lp478
(lp479
tp480
a(L1555485793L
L0L
(lp481
(lp482
tp483
a(L2258897023L
L0L
(lp484
(lp485
tp486
a(L1947499251L
L0L
(lp487
(lp488
tp489
a(L1306331021L
L0L
(lp490
(lp491
tp492
atp493
sI1074241068
(Vimage_load
p494
(lp495
(L2226322106L
L0L
(lp496
(lp497
tp498
a(L2287016811L
L0L
(lp499
(lp500
tp501
a(L2422563048L
L0L
(lp502
(lp503
tp504
a(L4216270804L
L0L
(lp505
(lp506
tp507
a(L3405036512L
L3785322319L
(lp508
(lp509
Vesp_log_early_timestamp
p510
atp511
a(L2937989051L
L0L
(lp512
(lp513
tp514
a(L3616994424L
L3785322319L
(lp515
(lp516
Vbootloader_flash_read
p517
atp518
a(L2956658850L
L0L
(lp519
(lp520
tp521
a(L106L
L0L
(lp522
(lp523
tp524
a(L3230798602L
L0L
(lp525
(lp526
tp527
a(L3378338814L
L3785322319L
(lp528
(lp529
Vbootloader_sha256_start
p530
atp531
a(L2034145148L
L3785322319L
(lp532
(lp533
Vbootloader_sha256_data
p534
atp535
a(L2280795378L
L0L
(lp536
(lp537
tp538
a(L3322623860L
L0L
(lp539
(lp540
tp541
a(L412181719L
L3785322319L
(lp542
(lp543
Vesp_log_early_timestamp
p544
atp545
a(L2979434586L
L0L
(lp546
(lp547
tp548
a(L3273293138L
L3785322319L
(lp549
(lp550
Vesp_log_early_timestamp
p551
atp552
a(L2752552992L
L0L
(lp553
(lp554
tp555
a(L1115699149L
L3785322319L
(lp556
(lp557
Vesp_log_early_timestamp
p558
atp559
a(L2902417580L
L0L
(lp560
(lp561
tp562
a(L3020204L
L0L
(lp563
(lp564
tp565
a(L1781468812L
L3785322319L
(lp566
(lp567
Vbootloader_sha256_finish
p568
atp569
a(L3066339634L
L0L
(lp570
(lp571
tp572
a(L2389262012L
L0L
(lp573
(lp574
tp575
a(L741594184L
L3785322319L
(lp576
(lp577
Vbootloader_common_check_chip_validity
p578
atp579
a(L439156027L
L0L
(lp580
(lp581
tp582
a(L587177238L
L0L
(lp583
(lp584
tp585
a(L1847907054L
L0L
(lp586
(lp587
tp588
a(L887195905L
L3785322319L
(lp589
(lp590
Vesp_log_early_timestamp
p591
atp592
a(L1367516498L
L0L
(lp593
(lp594
tp595
a(L1542802602L
L0L
(lp596
(lp597
tp598
a(L3271608478L
L0L
(lp599
(lp600
tp601
a(L2126964933L
L0L
(lp602
(lp603
tp604
a(L139701033L
L0L
(lp605
(lp606
tp607
a(L106L
L0L
(lp608
(lp609
tp610
a(L168495655L
L0L
(lp611
(lp612
tp613
a(L4063948294L
L0L
(lp614
(lp615
tp616
a(L3527199113L
L0L
(lp617
(lp618
tp619
a(L3360570486L
L0L
(lp620
(lp621
tp622
a(L3132137153L
L3785322319L
(lp623
(lp624
Vbootloader_flash_read
p625
atp626
a(L2217719261L
L3785322319L
(lp627
(lp628
Vesp_log_early_timestamp
p629
atp630
a(L1367516498L
L0L
(lp631
(lp632
tp633
a(L3020204L
L0L
(lp634
(lp635
tp636
a(L967693111L
L3785322319L
(lp637
(lp638
Vbootloader_sha256_data
p639
atp640
a(L2631920325L
L0L
(lp641
(lp642
tp643
a(L3805464359L
L0L
(lp644
(lp645
tp646
a(L3921483372L
L0L
(lp647
(lp648
tp649
a(L650772830L
L0L
(lp650
(lp651
tp652
a(L106L
L0L
(lp653
(lp654
tp655
a(L2371214088L
L0L
(lp656
(lp657
tp658
a(L4104839131L
L0L
(lp659
(lp660
tp661
a(L106L
L0L
(lp662
(lp663
tp664
a(L4023714878L
L3785322319L
(lp665
(lp666
Vesp_log_early_timestamp
p667
atp668
a(L1847915331L
L0L
(lp669
(lp670
tp671
a(L106L
L0L
(lp672
(lp673
tp674
a(L3578271114L
L3785322319L
(lp675
(lp676
Vesp_log_early_timestamp
p677
atp678
a(L992955717L
L3785322319L
(lp679
(lp680
Vshould_load
p681
atp682
a(L1123182076L
L0L
(lp683
(lp684
tp685
a(L3028481L
L0L
(lp686
(lp687
tp688
a(L479696261L
L3785322319L
(lp689
(lp690
Vbootloader_mmap_get_free_pages
p691
atp692
a(L1058386497L
L0L
(lp693
(lp694
tp695
a(L2613969673L
L0L
(lp696
(lp697
tp698
a(L1819099475L
L3785322319L
(lp699
(lp700
Vverify_load_addresses
p701
atp702
a(L106L
L0L
(lp703
(lp704
tp705
a(L436713709L
L0L
(lp706
(lp707
tp708
a(L2835652337L
L0L
(lp709
(lp710
tp711
a(L1019620452L
L3785322319L
(lp712
(lp713
Vbootloader_mmap
p714
atp715
a(L3513333483L
L3785322319L
(lp716
(lp717
Vesp_log_early_timestamp
p718
atp719
a(L1669831035L
L0L
(lp720
(lp721
tp722
a(L1626967146L
L0L
(lp723
(lp724
tp725
a(L325332200L
L0L
(lp726
(lp727
tp728
a(L1534276982L
L3785322319L
(lp729
(lp730
Vbootloader_munmap
p731
atp732
a(L1166267309L
L0L
(lp733
(lp734
tp735
a(L48555809L
L3785322319L
(lp736
(lp737
Vbootloader_fill_random
p738
atp739
a(L3570641403L
L0L
(lp740
(lp741
tp742
a(L3574335487L
L0L
(lp743
(lp744
tp745
a(L3802072125L
L0L
(lp746
(lp747
tp748
a(L3021749L
L0L
(lp749
(lp750
tp751
a(L474149717L
L0L
(lp752
(lp753
tp754
a(L2700531392L
L0L
(lp755
(lp756
tp757
a(L1418958926L
L0L
(lp758
(lp759
tp760
a(L3016870L
L0L
(lp761
(lp762
tp763
a(L2789514973L
L0L
(lp764
(lp765
tp766
a(L1445020320L
L0L
(lp767
(lp768
tp769
a(L3020204L
L0L
(lp770
(lp771
tp772
a(L1095669012L
L0L
(lp773
(lp774
tp775
a(L1229103290L
L3785322319L
(lp776
(lp777
Vbootloader_sha256_data
p778
atp779
a(L90548756L
L0L
(lp780
(lp781
tp782
a(L1538156011L
L0L
(lp783
(lp784
tp785
a(L3169563354L
L0L
(lp786
(lp787
tp788
a(L1847915331L
L0L
(lp789
(lp790
tp791
a(L106L
L0L
(lp792
(lp793
tp794
a(L2914562550L
L3785322319L
(lp795
(lp796
Vesp_log_early_timestamp
p797
atp798
a(L1263440663L
L0L
(lp799
(lp800
tp801
a(L3118387733L
L3785322319L
(lp802
(lp803
Vesp_cpu_in_ocd_debug_mode
p804
atp805
a(L4118212812L
L3785322319L
(lp806
(lp807
Vbootloader_flash_read
p808
atp809
a(L929856031L
L0L
(lp810
(lp811
tp812
a(L2953986207L
L3785322319L
(lp813
(lp814
Vesp_log_early_timestamp
p815
atp816
a(L2902417580L
L0L
(lp817
(lp818
tp819
a(L1016963192L
L3785322319L
(lp820
(lp821
Vbootloader_sha256_data
p822
atp823
a(L3831070346L
L0L
(lp824
(lp825
tp826
a(L2111854616L
L0L
(lp827
(lp828
tp829
a(L3525542150L
L0L
(lp830
(lp831
tp832
a(L1679158730L
L0L
(lp833
(lp834
tp835
a(L106L
L0L
(lp836
(lp837
tp838
a(L1236090580L
L0L
(lp839
(lp840
tp841
a(L2744037827L
L0L
(lp842
(lp843
tp844
a(L106L
L0L
(lp845
(lp846
tp847
a(L3674005948L
L3785322319L
(lp848
(lp849
Vesp_log_early_timestamp
p850
atp851
a(L2927195043L
L0L
(lp852
(lp853
tp854
a(L3212356251L
L3785322319L
(lp855
(lp856
Vesp_cpu_in_ocd_debug_mode
p857
atp858
a(L3758962017L
L1832448559L
(lp859
(lp860
Vbootloader_sha256_finish
p861
aVbootloader_debug_buffer
p862
aVbootloader_mmap
p863
atp864
a(L3468012188L
L1832448559L
(lp865
(lp866
Vesp_log_early_timestamp
p867
aVbootloader_debug_buffer
p868
aVbootloader_munmap
p869
atp870
a(L2258777855L
L0L
(lp871
(lp872
tp873
a(L2134911821L
L0L
(lp874
(lp875
tp876
a(L963422966L
L3785322319L
(lp877
(lp878
Vbootloader_mmap
p879
atp880
a(L3748857604L
L3785322319L
(lp881
(lp882
Vbootloader_munmap
p883
atp884
a(L3028481L
L0L
(lp885
(lp886
tp887
a(L106L
L0L
(lp888
(lp889
tp890
a(L1062898864L
L3785322319L
(lp891
(lp892
Vbootloader_munmap
p893
atp894
a(L929555107L
L0L
(lp895
(lp896
tp897
a(L904298956L
L3785322319L
(lp898
(lp899
Vbootloader_sha256_finish
p900
atp901
a(L3683478544L
L3785322319L
(lp902
(lp903
Vshould_load
p904
atp905
a(L3023297560L
L0L
(lp906
(lp907
tp908
a(L2573310946L
L0L
(lp909
(lp910
tp911
a(L106L
L0L
(lp912
(lp913
tp914
a(L2214057038L
L0L
(lp915
(lp916
tp917
a(L3464541874L
L0L
(lp918
(lp919
tp920
a(L770010511L
L0L
(lp921
(lp922
tp923
a(L1432696214L
L0L
(lp924
(lp925
tp926
a(L106L
L0L
(lp927
(lp928
tp929
a(L26615924L
L0L
(lp930
(lp931
tp932
a(L1899970003L
L0L
(lp933
(lp934
tp935
a(L1900089167L
L0L
(lp936
(lp937
tp938
a(L3064492592L
L0L
(lp939
(lp940
tp941
a(L1235012901L
L0L
(lp942
(lp943
tp944
a(L1235012870L
L0L
(lp945
(lp946
tp947
a(L168495655L
L0L
(lp948
(lp949
tp950
a(L106L
L0L
(lp951
(lp952
tp953
a(L898226694L
L0L
(lp954
(lp955
tp956
atp957
sI1074237736
(Vbootloader_mmap_get_free_pages
p958
(lp959
(L1496516875L
L0L
(lp960
(lp961
tp962
atp963
sI1074239528
(Vbootloader_utility_get_selected_boot_partition
p964
(lp965
(L2803238495L
L0L
(lp966
(lp967
tp968
a(L1299867982L
L0L
(lp969
(lp970
tp971
a(L3360570486L
L0L
(lp972
(lp973
tp974
a(L3687215403L
L0L
(lp975
(lp976
tp977
a(L2551549641L
L3785322319L
(lp978
(lp979
Vesp_log_early_timestamp
p980
atp981
a(L282377750L
L0L
(lp982
(lp983
tp984
a(L1375577398L
L3785322319L
(lp985
(lp986
Vbootloader_mmap
p987
atp988
a(L4172187810L
L3785322319L
(lp989
(lp990
Vesp_log_early_timestamp
p991
atp992
a(L1109197117L
L1880226080L
(lp993
(lp994
Vbootloader_munmap
p995
aVbootloader_common_ota_select_invalid
p996
atp997
a(L1103573946L
L0L
(lp998
(lp999
tp1000
a(L1876827316L
L3785322319L
(lp1001
(lp1002
Vbootloader_common_get_active_otadata
p1003
atp1004
a(L569346373L
L0L
(lp1005
(lp1006
tp1007
a(L3111084448L
L3785322319L
(lp1008
(lp1009
Vbootloader_common_ota_select_invalid
p1010
atp1011
a(L45272527L
L0L
(lp1012
(lp1013
tp1014
a(L847230968L
L0L
(lp1015
(lp1016
tp1017
a(L505081345L
L0L
(lp1018
(lp1019
tp1020
a(L919052234L
L3785322319L
(lp1021
(lp1022
Vbootloader_common_ota_select_crc
p1023
atp1024
a(L2287680455L
L0L
(lp1025
(lp1026
tp1027
a(L3542558037L
L3785322319L
(lp1028
(lp1029
Vbootloader_common_ota_select_crc
p1030
atp1031
a(L1299866312L
L0L
(lp1032
(lp1033
tp1034
a(L1964015874L
L0L
(lp1035
(lp1036
tp1037
a(L262602251L
L3785322319L
(lp1038
(lp1039
Vesp_log_early_timestamp
p1040
atp1041
a(L1367516498L
L0L
(lp1042
(lp1043
tp1044
a(L4142616443L
L3785322319L
(lp1045
(lp1046
Vesp_log_early_timestamp
p1047
atp1048
atp1049
sI1074246440
(Vrtc_clk_apb_freq_update
p1050
(lp1051
(L563696691L
L0L
(lp1052
(lp1053
tp1054
atp1055
sI1074267960
(Vwdt_reset_info_dump
p1056
(lp1057
(L4037466985L
L0L
(lp1058
(lp1059
tp1060
a(L2988197509L
L0L
(lp1061
(lp1062
tp1063
a(L4012738504L
L0L
(lp1064
(lp1065
tp1066
a(L1103285333L
L0L
(lp1067
(lp1068
tp1069
a(L1172224270L
L3785322319L
(lp1070
(lp1071
Vesp_log_early_timestamp
p1072
atp1073
a(L1020249293L
L0L
(lp1074
(lp1075
tp1076
a(L4142803286L
L3785322319L
(lp1077
(lp1078
Vesp_log_early_timestamp
p1079
atp1080
a(L1194666373L
L0L
(lp1081
(lp1082
tp1083
atp1084
sI1074243380
(Vesp_rom_spiflash_erase_sector
p1085
(lp1086
(L72903528L
L0L
(lp1087
(lp1088
tp1089
a(L2258688483L
L0L
(lp1090
(lp1091
tp1092
a(L3360570486L
L0L
(lp1093
(lp1094
tp1095
a(L3212356251L
L3785322319L
(lp1096
(lp1097
Vesp_rom_spiflash_enable_write
p1098
atp1099
a(L184152988L
L0L
(lp1100
(lp1101
tp1102
a(L3757615233L
L3785322319L
(lp1103
(lp1104
Vesp_rom_spiflash_wait_idle
p1105
atp1106
a(L3333707777L
L0L
(lp1107
(lp1108
tp1109
a(L3582858798L
L3785322319L
(lp1110
(lp1111
Vesp_rom_spiflash_wait_idle
p1112
atp1113
atp1114
sI1074239796
(Vbootloader_reset
p1115
(lp1116
(L3989767776L
L0L
(lp1117
(lp1118
tp1119
a(L106L
L0L
(lp1120
(lp1121
tp1122
atp1123
sI1074236720
(Vbootloader_common_get_active_otadata
p1124
(lp1125
(L3317503532L
L0L
(lp1126
(lp1127
tp1128
a(L2503049265L
L1832448559L
(lp1129
(lp1130
Vbootloader_common_ota_select_valid
p1131
aVbootloader_common_ota_select_valid
p1132
aVbootloader_common_select_otadata
p1133
atp1134
a(L735741265L
L0L
(lp1135
(lp1136
tp1137
atp1138
sI1074235440
(Vbootloader_flash_read_sfdp
p1139
(lp1140
(L711701400L
L0L
(lp1141
(lp1142
tp1143
a(L3626758209L
L3785322319L
(lp1144
(lp1145
V__assert_func
p1146
atp1147
a(L3704332455L
L3785322319L
(lp1148
(lp1149
Vbootloader_flash_execute_command_common
p1150
atp1151
atp1152
sI1074237744
(Vbootloader_fill_random
p1153
(lp1154
(L1642351636L
L0L
(lp1155
(lp1156
tp1157
a(L568060933L
L0L
(lp1158
(lp1159
tp1160
a(L97689L
L0L
(lp1161
(lp1162
tp1163
a(L3360570486L
L0L
(lp1164
(lp1165
tp1166
a(L1977399615L
L3785322319L
(lp1167
(lp1168
V__assert_func
p1169
atp1170
a(L3020204L
L0L
(lp1171
(lp1172
tp1173
a(L2008668903L
L0L
(lp1174
(lp1175
tp1176
a(L606168870L
L0L
(lp1177
(lp1178
tp1179
a(L3474016649L
L0L
(lp1180
(lp1181
tp1182
a(L3930485948L
L0L
(lp1183
(lp1184
tp1185
atp1186
sI1074243132
(Vesp_rom_spiflash_enable_write
p1187
(lp1188
(L3376952644L
L3785322319L
(lp1189
(lp1190
Vesp_rom_spiflash_wait_idle
p1191
atp1192
a(L3137194272L
L0L
(lp1193
(lp1194
tp1195
a(L2258718275L
L0L
(lp1196
(lp1197
tp1198
a(L99543895L
L0L
(lp1199
(lp1200
tp1201
a(L2993202392L
L0L
(lp1202
(lp1203
tp1204
a(L1804543818L
L3785322319L
(lp1205
(lp1206
Vesp_rom_spiflash_read_status
p1207
atp1208
atp1209
sI1074244920
(Vrtc_wdt_set_length_of_reset_signal
p1210
(lp1211
(L607216364L
L0L
(lp1212
(lp1213
tp1214
a(L93674324L
L0L
(lp1215
(lp1216
tp1217
a(L3044255412L
L0L
(lp1218
(lp1219
tp1220
a(L2338306124L
L0L
(lp1221
(lp1222
tp1223
a(L3360570486L
L0L
(lp1224
(lp1225
tp1226
a(L3311808863L
L0L
(lp1227
(lp1228
tp1229
a(L1235012901L
L0L
(lp1230
(lp1231
tp1232
atp1233
sI1074244664
(Vrtc_wdt_set_stage
p1234
(lp1235
(L607216364L
L0L
(lp1236
(lp1237
tp1238
a(L93674324L
L0L
(lp1239
(lp1240
tp1241
a(L1690945715L
L0L
(lp1242
(lp1243
tp1244
a(L1493460312L
L0L
(lp1245
(lp1246
tp1247
a(L3360570486L
L0L
(lp1248
(lp1249
tp1250
a(L3028464L
L0L
(lp1251
(lp1252
tp1253
a(L3158583271L
L0L
(lp1254
(lp1255
tp1256
a(L1060688304L
L0L
(lp1257
(lp1258
tp1259
a(L1299866312L
L0L
(lp1260
(lp1261
tp1262
a(L3028464L
L0L
(lp1263
(lp1264
tp1265
a(L1102234636L
L0L
(lp1266
(lp1267
tp1268
a(L298536505L
L0L
(lp1269
(lp1270
tp1271
a(L1235012901L
L0L
(lp1272
(lp1273
tp1274
atp1275
sI1074239288
(Vtry_load_partition
p1276
(lp1277
(L2950885718L
L0L
(lp1278
(lp1279
tp1280
a(L984595082L
L3785322319L
(lp1281
(lp1282
Vbootloader_load_image
p1283
atp1284
a(L3871473710L
L0L
(lp1285
(lp1286
tp1287
atp1288
sI1074269768
(Vrtc_clk_cal_internal
p1289
(lp1290
(L1251729224L
L0L
(lp1291
(lp1292
tp1293
a(L365313263L
L3785322319L
(lp1294
(lp1295
V__assert_func
p1296
atp1297
a(L3500395523L
L0L
(lp1298
(lp1299
tp1300
a(L3017366L
L0L
(lp1301
(lp1302
tp1303
a(L2781091364L
L0L
(lp1304
(lp1305
tp1306
a(L4169864463L
L1880226080L
(lp1307
(lp1308
Vrtc_clk_8m_enabled
p1309
aVrtc_clk_8md256_enabled
p1310
atp1311
a(L2874750549L
L3785322319L
(lp1312
(lp1313
Vrtc_clk_8m_enable
p1314
atp1315
a(L2244916796L
L0L
(lp1316
(lp1317
tp1318
a(L3502850147L
L0L
(lp1319
(lp1320
tp1321
a(L97689L
L0L
(lp1322
(lp1323
tp1324
a(L1025717268L
L0L
(lp1325
(lp1326
tp1327
a(L3028464L
L0L
(lp1328
(lp1329
tp1330
a(L3028481L
L0L
(lp1331
(lp1332
tp1333
a(L3450946281L
L0L
(lp1334
(lp1335
tp1336
a(L3127973145L
L3785322319L
(lp1337
(lp1338
Vrtc_clk_xtal_freq_get
p1339
atp1340
a(L2780079961L
L0L
(lp1341
(lp1342
tp1343
a(L795019293L
L0L
(lp1344
(lp1345
tp1346
a(L1342576958L
L3785322319L
(lp1347
(lp1348
Vesp_log_early_timestamp
p1349
atp1350
a(L3360570486L
L0L
(lp1351
(lp1352
tp1353
a(L2822518695L
L0L
(lp1354
(lp1355
tp1356
a(L3014202739L
L0L
(lp1357
(lp1358
tp1359
a(L3028481L
L0L
(lp1360
(lp1361
tp1362
a(L389882987L
L0L
(lp1363
(lp1364
tp1365
a(L755155573L
L3785322319L
(lp1366
(lp1367
Vrtc_clk_8m_enable
p1368
atp1369
a(L3631005548L
L0L
(lp1370
(lp1371
tp1372
a(L2673060617L
L0L
(lp1373
(lp1374
tp1375
a(L3352263364L
L0L
(lp1376
(lp1377
tp1378
atp1379
sI1074237252
(Vbootloader_flash_read
p1380
(lp1381
(L2699333355L
L0L
(lp1382
(lp1383
tp1384
a(L2496485694L
L3785322319L
(lp1385
(lp1386
Vesp_log_early_timestamp
p1387
atp1388
a(L44113432L
L0L
(lp1389
(lp1390
tp1391
a(L1299867982L
L0L
(lp1392
(lp1393
tp1394
a(L3360570486L
L0L
(lp1395
(lp1396
tp1397
a(L2660352519L
L0L
(lp1398
(lp1399
tp1400
a(L3132106410L
L3785322319L
(lp1401
(lp1402
Vesp_log_early_timestamp
p1403
atp1404
a(L162336582L
L0L
(lp1405
(lp1406
tp1407
a(L1181806279L
L3785322319L
(lp1408
(lp1409
Vesp_log_early_timestamp
p1410
atp1411
a(L3020204L
L0L
(lp1412
(lp1413
tp1414
a(L1398573769L
L0L
(lp1415
(lp1416
tp1417
a(L97422L
L0L
(lp1418
(lp1419
tp1420
a(L2215130767L
L0L
(lp1421
(lp1422
tp1423
a(L3108976649L
L0L
(lp1424
(lp1425
tp1426
a(L2250988742L
L3785322319L
(lp1427
(lp1428
Vesp_log_early_timestamp
p1429
atp1430
a(L4203071603L
L0L
(lp1431
(lp1432
tp1433
a(L2213071348L
L0L
(lp1434
(lp1435
tp1436
a(L2896887388L
L3785322319L
(lp1437
(lp1438
Vesp_rom_spiflash_read
p1439
atp1440
a(L106L
L0L
(lp1441
(lp1442
tp1443
a(L1496032962L
L0L
(lp1444
(lp1445
tp1446
atp1447
sI1074246468
(Vrtc_clk_cpu_freq_to_xtal
p1448
(lp1449
(L3200272690L
L3785322319L
(lp1450
(lp1451
Vrtc_clk_apb_freq_update
p1452
atp1453
a(L702736306L
L0L
(lp1454
(lp1455
tp1456
a(L277445412L
L0L
(lp1457
(lp1458
tp1459
a(L309988740L
L0L
(lp1460
(lp1461
tp1462
atp1463
sI1074245696
(Vrtc_clk_fast_freq_set
p1464
(lp1465
(L1751894699L
L0L
(lp1466
(lp1467
tp1468
atp1469
sI1074268224
(Vbootloader_init
p1470
(lp1471
(L2728201463L
L0L
(lp1472
(lp1473
tp1474
a(L4268871688L
L0L
(lp1475
(lp1476
tp1477
a(L684621324L
L0L
(lp1478
(lp1479
tp1480
a(L2819936749L
L0L
(lp1481
(lp1482
tp1483
a(L3960919155L
L3785322319L
(lp1484
(lp1485
V__assert_func
p1486
atp1487
a(L1360964983L
L0L
(lp1488
(lp1489
tp1490
a(L1082524703L
L0L
(lp1491
(lp1492
tp1493
a(L3813782018L
L0L
(lp1494
(lp1495
tp1496
a(L2485724513L
L0L
(lp1497
(lp1498
tp1499
a(L3027019L
L0L
(lp1500
(lp1501
tp1502
a(L3888924292L
L0L
(lp1503
(lp1504
tp1505
a(L3235865398L
L1832448559L
(lp1506
(lp1507
Vbootloader_clear_bss_section
p1508
aVbootloader_common_vddsdio_configure
p1509
aVbootloader_clock_get_rated_freq_mhz
p1510
atp1511
a(L3728688785L
L3785322319L
(lp1512
(lp1513
Vbootloader_clock_configure
p1514
atp1515
a(L852860968L
L0L
(lp1516
(lp1517
tp1518
a(L738674958L
L2485746240L
(lp1519
(lp1520
Vrtc_clk_apb_freq_get
p1521
aVbootloader_print_banner
p1522
aVbootloader_flash_update_id
p1523
aVbootloader_flash_xmc_startup
p1524
atp1525
a(L4065739586L
L3785322319L
(lp1526
(lp1527
Vesp_log_early_timestamp
p1528
atp1529
a(L3524271917L
L3785322319L
(lp1530
(lp1531
Vesp_log_early_timestamp
p1532
atp1533
a(L3360570486L
L0L
(lp1534
(lp1535
tp1536
a(L2444883382L
L3785322319L
(lp1537
(lp1538
Vbootloader_read_bootloader_header
p1539
atp1540
a(L2444883382L
L3785322319L
(lp1541
(lp1542
Vbootloader_check_bootloader_validity
p1543
atp1544
a(L3121015753L
L2485746240L
(lp1545
(lp1546
Vbootloader_flash_gpio_config
p1547
aVbootloader_flash_dummy_config
p1548
aVbootloader_flash_cs_timing_config
p1549
aVbootloader_flash_unlock
p1550
atp1551
a(L360153391L
L0L
(lp1552
(lp1553
tp1554
a(L2998608666L
L3785322319L
(lp1555
(lp1556
Vbootloader_enable_wp
p1557
atp1558
a(L4068889928L
L0L
(lp1559
(lp1560
tp1561
a(L2366680238L
L3785322319L
(lp1562
(lp1563
Vesp_log_early_timestamp
p1564
atp1565
a(L3433272205L
L0L
(lp1566
(lp1567
tp1568
a(L569753936L
L0L
(lp1569
(lp1570
tp1571
a(L2902417580L
L0L
(lp1572
(lp1573
tp1574
a(L1944713791L
L1880226080L
(lp1575
(lp1576
Vwdt_reset_info_dump
p1577
aVwdt_reset_info_dump
p1578
atp1579
a(L4174986053L
L1880226080L
(lp1580
(lp1581
Vbootloader_config_wdt
p1582
aVbootloader_enable_random
p1583
atp1584
a(L1106027959L
L3785322319L
(lp1585
(lp1586
Vesp_log_early_timestamp
p1587
atp1588
atp1589
sI1074240592
(Vverify_load_addresses
p1590
(lp1591
(L2763563698L
L0L
(lp1592
(lp1593
tp1594
a(L106L
L0L
(lp1595
(lp1596
tp1597
a(L97642L
L0L
(lp1598
(lp1599
tp1600
a(L702725944L
L3785322319L
(lp1601
(lp1602
V__assert_func
p1603
atp1604
a(L3155086105L
L0L
(lp1605
(lp1606
tp1607
a(L106L
L0L
(lp1608
(lp1609
tp1610
a(L4236120437L
L0L
(lp1611
(lp1612
tp1613
a(L106L
L0L
(lp1614
(lp1615
tp1616
a(L2642576246L
L3785322319L
(lp1617
(lp1618
Vbootloader_util_regions_overlap
p1619
atp1620
a(L726626166L
L3785322319L
(lp1621
(lp1622
Vbootloader_util_regions_overlap
p1623
atp1624
a(L3028481L
L0L
(lp1625
(lp1626
tp1627
a(L3262129277L
L3785322319L
(lp1628
(lp1629
Vbootloader_util_regions_overlap
p1630
atp1631
a(L302583176L
L0L
(lp1632
(lp1633
tp1634
a(L430528944L
L0L
(lp1635
(lp1636
tp1637
a(L1189595193L
L0L
(lp1638
(lp1639
tp1640
a(L2694982884L
L0L
(lp1641
(lp1642
tp1643
a(L642339957L
L0L
(lp1644
(lp1645
tp1646
a(L677569396L
L3785322319L
(lp1647
(lp1648
Vverify_load_addresses
p1649
atp1650
a(L1351513776L
L0L
(lp1651
(lp1652
tp1653
a(L3421977475L
L0L
(lp1654
(lp1655
tp1656
a(L3099128907L
L0L
(lp1657
(lp1658
tp1659
a(L4086207054L
L3785322319L
(lp1660
(lp1661
Vbootloader_util_regions_overlap
p1662
atp1663
a(L3028481L
L0L
(lp1664
(lp1665
tp1666
a(L3278553398L
L3785322319L
(lp1667
(lp1668
Vbootloader_util_regions_overlap
p1669
atp1670
a(L2834699927L
L0L
(lp1671
(lp1672
tp1673
a(L3228372812L
L0L
(lp1674
(lp1675
tp1676
a(L1207773323L
L0L
(lp1677
(lp1678
tp1679
a(L106L
L0L
(lp1680
(lp1681
tp1682
a(L4226784306L
L0L
(lp1683
(lp1684
tp1685
a(L3242767527L
L0L
(lp1686
(lp1687
tp1688
a(L955503240L
L0L
(lp1689
(lp1690
tp1691
a(L307917373L
L0L
(lp1692
(lp1693
tp1694
a(L490080443L
L0L
(lp1695
(lp1696
tp1697
a(L106L
L0L
(lp1698
(lp1699
tp1700
a(L3415850044L
L3785322319L
(lp1701
(lp1702
Vesp_log_early_timestamp
p1703
atp1704
a(L955504573L
L0L
(lp1705
(lp1706
tp1707
a(L1303560427L
L0L
(lp1708
(lp1709
tp1710
atp1711
sI1074236496
(Vesp_log_early_timestamp
p1712
(lp1713
(L1981018541L
L0L
(lp1714
(lp1715
tp1716
atp1717
sI1074240092
(Vindex_to_partition
p1718
(lp1719
(L4066096119L
L0L
(lp1720
(lp1721
tp1722
a(L1739185955L
L0L
(lp1723
(lp1724
tp1725
a(L2171552758L
L0L
(lp1726
(lp1727
tp1728
a(L2808906342L
L0L
(lp1729
(lp1730
tp1731
a(L2101481936L
L0L
(lp1732
(lp1733
tp1734
a(L3698927993L
L0L
(lp1735
(lp1736
tp1737
a(L2808826781L
L0L
(lp1738
(lp1739
tp1740
a(L2911029954L
L0L
(lp1741
(lp1742
tp1743
a(L1104460200L
L0L
(lp1744
(lp1745
tp1746
a(L1087646172L
L0L
(lp1747
(lp1748
tp1749
atp1750
sI1074240348
(Vbootloader_sha256_finish
p1751
(lp1752
(L4066096136L
L0L
(lp1753
(lp1754
tp1755
a(L1360095764L
L0L
(lp1756
(lp1757
tp1758
a(L1249616313L
L3785322319L
(lp1759
(lp1760
V__assert_func
p1761
atp1762
a(L3020204L
L0L
(lp1763
(lp1764
tp1765
a(L3711314306L
L0L
(lp1766
(lp1767
tp1768
a(L2534656226L
L0L
(lp1769
(lp1770
tp1771
a(L3212341993L
L3785322319L
(lp1772
(lp1773
Vbootloader_sha256_data
p1774
atp1775
a(L3908208087L
L0L
(lp1776
(lp1777
tp1778
a(L1370080470L
L3785322319L
(lp1779
(lp1780
Vbootloader_sha256_data
p1781
atp1782
a(L3953472037L
L0L
(lp1783
(lp1784
tp1785
a(L67884924L
L0L
(lp1786
(lp1787
tp1788
a(L3832410356L
L0L
(lp1789
(lp1790
tp1791
a(L67884924L
L0L
(lp1792
(lp1793
tp1794
a(L3901818774L
L0L
(lp1795
(lp1796
tp1797
a(L3022890231L
L0L
(lp1798
(lp1799
tp1800
a(L3347778L
L0L
(lp1801
(lp1802
tp1803
a(L3360570486L
L0L
(lp1804
(lp1805
tp1806
atp1807
sI1074236760
(Vbootloader_common_vddsdio_configure
p1808
(lp1809
(L1922017289L
L3785322319L
(lp1810
(lp1811
Vrtc_vddsdio_get_config
p1812
atp1813
a(L793867220L
L3785322319L
(lp1814
(lp1815
Vrtc_vddsdio_set_config
p1816
atp1817
a(L3360570486L
L0L
(lp1818
(lp1819
tp1820
atp1821
sI1074239320
(Vbootloader_utility_load_partition_table
p1822
(lp1823
(L2244681099L
L3785322319L
(lp1824
(lp1825
Vbootloader_mmap
p1826
atp1827
a(L2748053665L
L3785322319L
(lp1828
(lp1829
Vesp_log_early_timestamp
p1830
atp1831
a(L2258688482L
L0L
(lp1832
(lp1833
tp1834
a(L3360570486L
L0L
(lp1835
(lp1836
tp1837
a(L1520382514L
L3785322319L
(lp1838
(lp1839
Vesp_partition_table_verify
p1840
atp1841
a(L2584534083L
L3785322319L
(lp1842
(lp1843
Vesp_log_early_timestamp
p1844
atp1845
a(L148985701L
L0L
(lp1846
(lp1847
tp1848
a(L3020187L
L0L
(lp1849
(lp1850
tp1851
a(L4067319519L
L0L
(lp1852
(lp1853
tp1854
a(L3806571235L
L0L
(lp1855
(lp1856
tp1857
a(L2247926755L
L3785322319L
(lp1858
(lp1859
Vbootloader_munmap
p1860
atp1861
a(L1036489382L
L0L
(lp1862
(lp1863
tp1864
a(L3020187L
L0L
(lp1865
(lp1866
tp1867
a(L1699092113L
L0L
(lp1868
(lp1869
tp1870
a(L3926410636L
L0L
(lp1871
(lp1872
tp1873
a(L3977772390L
L0L
(lp1874
(lp1875
tp1876
a(L1535150665L
L0L
(lp1877
(lp1878
tp1879
a(L2387139071L
L0L
(lp1880
(lp1881
tp1882
a(L507291053L
L0L
(lp1883
(lp1884
tp1885
atp1886
sI1074238308
(Vbootloader_random_disable
p1887
(lp1888
(L1429037765L
L0L
(lp1889
(lp1890
tp1891
atp1892
sI1074235492
(Vbootloader_read_flash_id
p1893
(lp1894
(L3925322170L
L3785322319L
(lp1895
(lp1896
Vbootloader_execute_flash_command
p1897
atp1898
atp1899
sI1074236260
(Vbootloader_flash_dummy_config
p1900
(lp1901
(L132211179L
L0L
(lp1902
(lp1903
tp1904
a(L2761717557L
L0L
(lp1905
(lp1906
tp1907
a(L705371371L
L0L
(lp1908
(lp1909
tp1910
a(L2971458626L
L0L
(lp1911
(lp1912
tp1913
a(L1491210540L
L0L
(lp1914
(lp1915
tp1916
a(L3081491917L
L0L
(lp1917
(lp1918
tp1919
a(L1610443405L
L0L
(lp1920
(lp1921
tp1922
a(L4102729993L
L0L
(lp1923
(lp1924
tp1925
a(L1449490182L
L0L
(lp1926
(lp1927
tp1928
a(L1298875775L
L0L
(lp1929
(lp1930
tp1931
a(L3880393601L
L0L
(lp1932
(lp1933
tp1934
a(L1505818087L
L0L
(lp1935
(lp1936
tp1937
a(L1610443436L
L0L
(lp1938
(lp1939
tp1940
atp1941
sI1074237028
(Vbootloader_mmap
p1942
(lp1943
(L3169915333L
L0L
(lp1944
(lp1945
tp1946
a(L4026459733L
L3785322319L
(lp1947
(lp1948
Vesp_log_early_timestamp
p1949
atp1950
a(L1182811810L
L0L
(lp1951
(lp1952
tp1953
a(L3496950L
L0L
(lp1954
(lp1955
tp1956
a(L1577195363L
L0L
(lp1957
(lp1958
tp1959
a(L4187028332L
L3785322319L
(lp1960
(lp1961
Vesp_log_early_timestamp
p1962
atp1963
a(L2844667242L
L0L
(lp1964
(lp1965
tp1966
a(L3754112325L
L3785322319L
(lp1967
(lp1968
Vesp_log_early_timestamp
p1969
atp1970
a(L3840342076L
L0L
(lp1971
(lp1972
tp1973
atp1974
sI1074243684
(Vesp_rom_spiflash_write_encrypted
p1975
(lp1976
(L2107077087L
L0L
(lp1977
(lp1978
tp1979
a(L1674650036L
L0L
(lp1980
(lp1981
tp1982
a(L97689L
L0L
(lp1983
(lp1984
tp1985
a(L3061232074L
L0L
(lp1986
(lp1987
tp1988
a(L1027961868L
L0L
(lp1989
(lp1990
tp1991
a(L2903314395L
L3785322319L
(lp1992
(lp1993
Vesp_rom_spiflash_write
p1994
atp1995
a(L3602038081L
L0L
(lp1996
(lp1997
tp1998
a(L735741265L
L0L
(lp1999
(lp2000
tp2001
atp2002
sI1074245220
(Vrtc_clk_32k_enable_common
p2003
(lp2004
(L2136780100L
L0L
(lp2005
(lp2006
tp2007
atp2008
sI1074237536
(Vbootloader_flash_erase_sector
p2009
(lp2010
(L2049114289L
L3785322319L
(lp2011
(lp2012
Vesp_rom_spiflash_erase_sector
p2013
atp2014
a(L2960693632L
L0L
(lp2015
(lp2016
tp2017
a(L3360570486L
L0L
(lp2018
(lp2019
tp2020
atp2021
sI1074239840
(Vbootloader_utility_load_boot_image
p2022
(lp2023
(L1561528311L
L0L
(lp2024
(lp2025
tp2026
a(L2177418995L
L3785322319L
(lp2027
(lp2028
Vtry_load_partition
p2029
atp2030
a(L470742948L
L1880226080L
(lp2031
(lp2032
Vbootloader_random_disable
p2033
aVunpack_load_app
p2034
atp2035
a(L4097132489L
L3785322319L
(lp2036
(lp2037
Vesp_log_early_timestamp
p2038
atp2039
a(L94425498L
L3785322319L
(lp2040
(lp2041
Vbootloader_reset
p2042
atp2043
a(L2542673780L
L3785322319L
(lp2044
(lp2045
Vindex_to_partition
p2046
atp2047
a(L1204373741L
L3785322319L
(lp2048
(lp2049
Vtry_load_partition
p2050
atp2051
a(L3020187L
L0L
(lp2052
(lp2053
tp2054
a(L164088536L
L0L
(lp2055
(lp2056
tp2057
a(L2695355117L
L3785322319L
(lp2058
(lp2059
Vset_actual_ota_seq
p2060
atp2061
a(L1868897605L
L3785322319L
(lp2062
(lp2063
Vlog_invalid_app_partition
p2064
atp2065
a(L831650730L
L0L
(lp2066
(lp2067
tp2068
a(L3021737L
L0L
(lp2069
(lp2070
tp2071
a(L2044488255L
L0L
(lp2072
(lp2073
tp2074
a(L3249439265L
L3785322319L
(lp2075
(lp2076
Vtry_load_partition
p2077
atp2078
a(L3066424224L
L3785322319L
(lp2079
(lp2080
Vesp_log_early_timestamp
p2081
atp2082
a(L2185156151L
L3785322319L
(lp2083
(lp2084
Vindex_to_partition
p2085
atp2086
a(L1074657773L
L3785322319L
(lp2087
(lp2088
Vtry_load_partition
p2089
atp2090
a(L3027024L
L0L
(lp2091
(lp2092
tp2093
a(L774639701L
L0L
(lp2094
(lp2095
tp2096
a(L3061261803L
L0L
(lp2097
(lp2098
tp2099
a(L3582858798L
L3785322319L
(lp2100
(lp2101
Vlog_invalid_app_partition
p2102
atp2103
a(L422839182L
L3785322319L
(lp2104
(lp2105
Vesp_log_early_timestamp
p2106
atp2107
atp2108
sI1074269536
(Vrtc_vddsdio_get_config
p2109
(lp2110
(L4035259087L
L0L
(lp2111
(lp2112
tp2113
a(L147025923L
L0L
(lp2114
(lp2115
tp2116
a(L318395269L
L0L
(lp2117
(lp2118
tp2119
a(L4016343922L
L0L
(lp2120
(lp2121
tp2122
a(L805538460L
L0L
(lp2123
(lp2124
tp2125
a(L1116012092L
L0L
(lp2126
(lp2127
tp2128
a(L1719615367L
L0L
(lp2129
(lp2130
tp2131
a(L1579921227L
L0L
(lp2132
(lp2133
tp2134
atp2135
sI1074245740
(Vrtc_clk_fast_freq_get
p2136
(lp2137
(L459448352L
L0L
(lp2138
(lp2139
tp2140
atp2141
sI1074267748
(Vbootloader_clear_bss_section
p2142
(lp2143
(L3277611363L
L0L
(lp2144
(lp2145
tp2146
atp2147
sI1074270328
(Vbootloader_print_banner
p2148
(lp2149
(L2100504542L
L0L
(lp2150
(lp2151
tp2152
atp2153
sI1074267772
(Vbootloader_read_bootloader_header
p2154
(lp2155
(L1839002680L
L3785322319L
(lp2156
(lp2157
Vbootloader_flash_read
p2158
atp2159
a(L2908672513L
L3785322319L
(lp2160
(lp2161
Vesp_log_early_timestamp
p2162
atp2163
a(L735741265L
L0L
(lp2164
(lp2165
tp2166
atp2167
sI1074236528
(Vbootloader_clock_configure
p2168
(lp2169
(L4029462840L
L0L
(lp2170
(lp2171
tp2172
a(L2878253354L
L0L
(lp2173
(lp2174
tp2175
a(L3662234681L
L0L
(lp2176
(lp2177
tp2178
a(L604197507L
L0L
(lp2179
(lp2180
tp2181
a(L386608811L
L1832448559L
(lp2182
(lp2183
Vrtc_clk_slow_freq_get
p2184
aVrtc_clk_fast_freq_get
p2185
aVrtc_clk_init
p2186
atp2187
atp2188
sI1074239088
(Vlog_invalid_app_partition
p2189
(lp2190
(L3717875198L
L0L
(lp2191
(lp2192
tp2193
a(L3028464L
L0L
(lp2194
(lp2195
tp2196
a(L4045702100L
L3785322319L
(lp2197
(lp2198
Vesp_log_early_timestamp
p2199
atp2200
a(L44113432L
L0L
(lp2201
(lp2202
tp2203
a(L3360570486L
L0L
(lp2204
(lp2205
tp2206
a(L1770522582L
L3785322319L
(lp2207
(lp2208
Vesp_log_early_timestamp
p2209
atp2210
a(L1964420334L
L3785322319L
(lp2211
(lp2212
Vesp_log_early_timestamp
p2213
atp2214
atp2215
sI1074246268
(Vrtc_clk_cpu_freq_get_config
p2216
(lp2217
(L1340082048L
L0L
(lp2218
(lp2219
tp2220
a(L2902417580L
L0L
(lp2221
(lp2222
tp2223
a(L1777368540L
L0L
(lp2224
(lp2225
tp2226
a(L3578254663L
L1880226080L
(lp2227
(lp2228
Vesp_log_early_timestamp
p2229
aVabort
p2230
atp2231
a(L573422128L
L3785322319L
(lp2232
(lp2233
Vrtc_clk_xtal_freq_get
p2234
atp2235
a(L584032699L
L0L
(lp2236
(lp2237
tp2238
a(L3253506618L
L0L
(lp2239
(lp2240
tp2241
a(L3020187L
L0L
(lp2242
(lp2243
tp2244
a(L713819170L
L0L
(lp2245
(lp2246
tp2247
a(L106L
L0L
(lp2248
(lp2249
tp2250
a(L549042870L
L0L
(lp2251
(lp2252
tp2253
a(L187152368L
L0L
(lp2254
(lp2255
tp2256
a(L4149732163L
L0L
(lp2257
(lp2258
tp2259
atp2260
sI1074245756
(Vrtc_clk_bbpll_configure
p2261
(lp2262
(L3949259790L
L0L
(lp2263
(lp2264
tp2265
a(L106L
L0L
(lp2266
(lp2267
tp2268
a(L3255983918L
L0L
(lp2269
(lp2270
tp2271
a(L106L
L0L
(lp2272
(lp2273
tp2274
a(L83268611L
L0L
(lp2275
(lp2276
tp2277
a(L106L
L0L
(lp2278
(lp2279
tp2280
a(L82345090L
L0L
(lp2281
(lp2282
tp2283
a(L106L
L0L
(lp2284
(lp2285
tp2286
a(L2258688482L
L0L
(lp2287
(lp2288
tp2289
a(L3177466952L
L0L
(lp2290
(lp2291
tp2292
a(L1337411257L
L0L
(lp2293
(lp2294
tp2295
a(L3082809520L
L0L
(lp2296
(lp2297
tp2298
a(L1299866343L
L0L
(lp2299
(lp2300
tp2301
a(L3291765465L
L0L
(lp2302
(lp2303
tp2304
a(L3241888512L
L0L
(lp2305
(lp2306
tp2307
a(L1659800192L
L0L
(lp2308
(lp2309
tp2310
a(L83268344L
L0L
(lp2311
(lp2312
tp2313
a(L82344823L
L0L
(lp2314
(lp2315
tp2316
a(L1667153377L
L0L
(lp2317
(lp2318
tp2319
a(L2258867279L
L0L
(lp2320
(lp2321
tp2322
a(L4133770625L
L0L
(lp2323
(lp2324
tp2325
a(L1551160474L
L0L
(lp2326
(lp2327
tp2328
a(L1712476653L
L0L
(lp2329
(lp2330
tp2331
a(L4011631532L
L0L
(lp2332
(lp2333
tp2334
atp2335
sI1074242684
(Vbootloader_load_image
p2336
(lp2337
(L1155870502L
L3785322319L
(lp2338
(lp2339
Vimage_load
p2340
atp2341
atp2342
sI1074237564
(Vbootloader_flash_write
p2343
(lp2344
(L3119145091L
L0L
(lp2345
(lp2346
tp2347
a(L1656727746L
L3785322319L
(lp2348
(lp2349
Vesp_log_early_timestamp
p2350
atp2351
a(L44113432L
L0L
(lp2352
(lp2353
tp2354
a(L1610445075L
L0L
(lp2355
(lp2356
tp2357
a(L735741265L
L0L
(lp2358
(lp2359
tp2360
a(L3291333414L
L0L
(lp2361
(lp2362
tp2363
a(L2835526818L
L3785322319L
(lp2364
(lp2365
Vesp_log_early_timestamp
p2366
atp2367
a(L3283691850L
L0L
(lp2368
(lp2369
tp2370
a(L3910184741L
L3785322319L
(lp2371
(lp2372
Vesp_log_early_timestamp
p2373
atp2374
a(L3212356251L
L3785322319L
(lp2375
(lp2376
Vbootloader_flash_unlock
p2377
atp2378
a(L4210907913L
L0L
(lp2379
(lp2380
tp2381
a(L94425498L
L3785322319L
(lp2382
(lp2383
Vesp_rom_spiflash_write_encrypted
p2384
atp2385
a(L93674324L
L0L
(lp2386
(lp2387
tp2388
a(L101226921L
L0L
(lp2389
(lp2390
tp2391
a(L2927190544L
L3785322319L
(lp2392
(lp2393
Vesp_rom_spiflash_write
p2394
atp2395
atp2396
sI1074243192
(Vesp_rom_spiflash_program_page_internal
p2397
(lp2398
(L2569069283L
L0L
(lp2399
(lp2400
tp2401
a(L2258688483L
L0L
(lp2402
(lp2403
tp2404
a(L3360570486L
L0L
(lp2405
(lp2406
tp2407
a(L1325443012L
L0L
(lp2408
(lp2409
tp2410
a(L4235661475L
L3785322319L
(lp2411
(lp2412
Vesp_rom_spiflash_wait_idle
p2413
atp2414
a(L1299866312L
L0L
(lp2415
(lp2416
tp2417
a(L3212356251L
L3785322319L
(lp2418
(lp2419
Vesp_rom_spiflash_enable_write
p2420
atp2421
a(L49420065L
L0L
(lp2422
(lp2423
tp2424
a(L661634183L
L0L
(lp2425
(lp2426
tp2427
a(L2953702749L
L0L
(lp2428
(lp2429
tp2430
a(L2989032L
L0L
(lp2431
(lp2432
tp2433
a(L1965622133L
L0L
(lp2434
(lp2435
tp2436
a(L3054302083L
L0L
(lp2437
(lp2438
tp2439
a(L1958113242L
L0L
(lp2440
(lp2441
tp2442
a(L106L
L0L
(lp2443
(lp2444
tp2445
a(L4283177684L
L0L
(lp2446
(lp2447
tp2448
a(L1405253496L
L0L
(lp2449
(lp2450
tp2451
a(L1008982928L
L0L
(lp2452
(lp2453
tp2454
a(L1933954923L
L0L
(lp2455
(lp2456
tp2457
a(L3886319556L
L0L
(lp2458
(lp2459
tp2460
a(L2767679583L
L0L
(lp2461
(lp2462
tp2463
atp2464
sI1074244996
(Vrtc_clk_bbpll_disable
p2465
(lp2466
(L1866577998L
L0L
(lp2467
(lp2468
tp2469
a(L391691750L
L0L
(lp2470
(lp2471
tp2472
a(L3360570486L
L0L
(lp2473
(lp2474
tp2475
atp2476
sI1074269068
(Vrtc_clk_init
p2477
(lp2478
(L1164531469L
L0L
(lp2479
(lp2480
tp2481
a(L42671777L
L3785322319L
(lp2482
(lp2483
Vrtc_clk_cpu_freq_to_xtal
p2484
atp2485
a(L3653911038L
L0L
(lp2486
(lp2487
tp2488
a(L4150963688L
L0L
(lp2489
(lp2490
tp2491
a(L2873281153L
L0L
(lp2492
(lp2493
tp2494
a(L912414356L
L3785322319L
(lp2495
(lp2496
Vrtc_clk_xtal_freq_get
p2497
atp2498
a(L1171554251L
L0L
(lp2499
(lp2500
tp2501
a(L3579106612L
L0L
(lp2502
(lp2503
tp2504
a(L3497434000L
L2485746240L
(lp2505
(lp2506
Vrtc_clk_xtal_freq_update
p2507
aVrtc_clk_apb_freq_update
p2508
aVrtc_clk_cpu_freq_get_config
p2509
aVrtc_clk_cpu_freq_mhz_to_config
p2510
atp2511
a(L3188035493L
L1880226080L
(lp2512
(lp2513
Vesp_log_early_timestamp
p2514
aVabort
p2515
atp2516
a(L4187693717L
L3785322319L
(lp2517
(lp2518
Vrtc_clk_xtal_freq_estimate
p2519
atp2520
a(L2810722505L
L3785322319L
(lp2521
(lp2522
Vesp_log_early_timestamp
p2523
atp2524
a(L4143060793L
L0L
(lp2525
(lp2526
tp2527
a(L1563923531L
L0L
(lp2528
(lp2529
tp2530
a(L106L
L0L
(lp2531
(lp2532
tp2533
a(L4070631878L
L3785322319L
(lp2534
(lp2535
Vrtc_clk_xtal_freq_estimate
p2536
atp2537
a(L106L
L0L
(lp2538
(lp2539
tp2540
a(L1854210624L
L3785322319L
(lp2541
(lp2542
Vesp_log_early_timestamp
p2543
atp2544
a(L2767147110L
L3785322319L
(lp2545
(lp2546
Vrtc_clk_cpu_freq_set_config
p2547
atp2548
a(L4168829660L
L3785322319L
(lp2549
(lp2550
Vrtc_clk_32k_enable
p2551
atp2552
a(L3016870L
L0L
(lp2553
(lp2554
tp2555
a(L2726467919L
L3785322319L
(lp2556
(lp2557
Vrtc_clk_8m_enable
p2558
atp2559
a(L530469956L
L1880226080L
(lp2560
(lp2561
Vrtc_clk_fast_freq_set
p2562
aVrtc_clk_slow_freq_set
p2563
atp2564
atp2565
sI1074242700
(Vesp_partition_table_verify
p2566
(lp2567
(L1518656766L
L0L
(lp2568
(lp2569
tp2570
a(L592015551L
L0L
(lp2571
(lp2572
tp2573
a(L4287435191L
L0L
(lp2574
(lp2575
tp2576
a(L2910371777L
L0L
(lp2577
(lp2578
tp2579
a(L2810785767L
L0L
(lp2580
(lp2581
tp2582
a(L3360570486L
L0L
(lp2583
(lp2584
tp2585
a(L2334946637L
L0L
(lp2586
(lp2587
tp2588
a(L2478753082L
L0L
(lp2589
(lp2590
tp2591
a(L1580262034L
L0L
(lp2592
(lp2593
tp2594
a(L726629452L
L3785322319L
(lp2595
(lp2596
Vesp_log_early_timestamp
p2597
atp2598
a(L24886463L
L3785322319L
(lp2599
(lp2600
Vesp_log_early_timestamp
p2601
atp2602
a(L2378526638L
L0L
(lp2603
(lp2604
tp2605
a(L3020204L
L0L
(lp2606
(lp2607
tp2608
a(L3020204L
L0L
(lp2609
(lp2610
tp2611
a(L1634138667L
L3785322319L
(lp2612
(lp2613
Vesp_log_early_timestamp
p2614
atp2615
a(L44113432L
L0L
(lp2616
(lp2617
tp2618
a(L1235012932L
L0L
(lp2619
(lp2620
tp2621
a(L3798912290L
L0L
(lp2622
(lp2623
tp2624
a(L3020204L
L0L
(lp2625
(lp2626
tp2627
a(L3413658651L
L3785322319L
(lp2628
(lp2629
Vesp_log_early_timestamp
p2630
atp2631
a(L1613213999L
L0L
(lp2632
(lp2633
tp2634
a(L1167861556L
L0L
(lp2635
(lp2636
tp2637
a(L3260980605L
L0L
(lp2638
(lp2639
tp2640
a(L1580262034L
L0L
(lp2641
(lp2642
tp2643
a(L215046227L
L3785322319L
(lp2644
(lp2645
Vesp_log_early_timestamp
p2646
atp2647
atp2648
sI1074237836
(Vbootloader_random_enable
p2649
(lp2650
(L2224288331L
L0L
(lp2651
(lp2652
tp2653
atp2654
sI1074236812
(Vbootloader_common_check_chip_validity
p2655
(lp2656
(L3716643856L
L0L
(lp2657
(lp2658
tp2659
a(L2466532701L
L3785322319L
(lp2660
(lp2661
Vesp_log_early_timestamp
p2662
atp2663
a(L2844231433L
L3785322319L
(lp2664
(lp2665
Vbootloader_common_get_chip_revision
p2666
atp2667
a(L48493744L
L3785322319L
(lp2668
(lp2669
Vesp_log_early_timestamp
p2670
atp2671
a(L2983970029L
L0L
(lp2672
(lp2673
tp2674
atp2675
sI1074235784
(Vbootloader_flash_gpio_config
p2676
(lp2677
(L1849171823L
L0L
(lp2678
(lp2679
tp2680
a(L106L
L0L
(lp2681
(lp2682
tp2683
a(L2886083034L
L0L
(lp2684
(lp2685
tp2686
a(L106L
L0L
(lp2687
(lp2688
tp2689
a(L4213870169L
L0L
(lp2690
(lp2691
tp2692
a(L3890032189L
L0L
(lp2693
(lp2694
tp2695
a(L106L
L0L
(lp2696
(lp2697
tp2698
a(L968413374L
L0L
(lp2699
(lp2700
tp2701
a(L4272081986L
L0L
(lp2702
(lp2703
tp2704
a(L3360570486L
L0L
(lp2705
(lp2706
tp2707
atp2708
sI1074245524
(Vrtc_clk_8m_enabled
p2709
(lp2710
(L1355443618L
L0L
(lp2711
(lp2712
tp2713
atp2714
sI1074235536
(Vbootloader_flash_xmc_startup
p2715
(lp2716
(L2358327534L
L3785322319L
(lp2717
(lp2718
Vis_xmc_chip_strict
p2719
atp2720
a(L2258688482L
L0L
(lp2721
(lp2722
tp2723
a(L3360570486L
L0L
(lp2724
(lp2725
tp2726
a(L251913992L
L3785322319L
(lp2727
(lp2728
Vbootloader_flash_read_sfdp
p2729
atp2730
a(L1623371620L
L267944800L
(lp2731
(lp2732
Vbootloader_execute_flash_command
p2733
aVbootloader_execute_flash_command
p2734
aVbootloader_execute_flash_command
p2735
aVbootloader_execute_flash_command
p2736
aVbootloader_read_flash_id
p2737
aVis_xmc_chip_strict
p2738
atp2739
a(L1760467701L
L3785322319L
(lp2740
(lp2741
Vesp_log_early_timestamp
p2742
atp2743
atp2744
sI1074240156
(Vbootloader_debug_buffer
p2745
(lp2746
(L2100504542L
L0L
(lp2747
(lp2748
tp2749
atp2750
sI1074244508
(Vrtc_wdt_protect_off
p2751
(lp2752
(L1663918868L
L0L
(lp2753
(lp2754
tp2755
atp2756
sI1074267816
(Vbootloader_check_bootloader_validity
p2757
(lp2758
(L861329293L
L1880226080L
(lp2759
(lp2760
Vbootloader_common_get_chip_revision
p2761
aVbootloader_common_check_chip_validity
p2762
atp2763
atp2764
sI1074240164
(Vbootloader_sha256_start
p2765
(lp2766
(L3415422197L
L0L
(lp2767
(lp2768
tp2769
atp2770
sI1074238624
(Vbootloader_common_get_chip_revision
p2771
(lp2772
(L2519593463L
L0L
(lp2773
(lp2774
tp2775
a(L3543492105L
L0L
(lp2776
(lp2777
tp2778
a(L3360570486L
L0L
(lp2779
(lp2780
tp2781
atp2782
sI1074244524
(Vrtc_wdt_protect_on
p2783
(lp2784
(L3351833978L
L0L
(lp2785
(lp2786
tp2787
atp2788
sI1074245548
(Vrtc_clk_8md256_enabled
p2789
(lp2790
(L510971747L
L0L
(lp2791
(lp2792
tp2793
atp2794
sI1074240948
(Vshould_load
p2795
(lp2796
(L3535159262L
L0L
(lp2797
(lp2798
tp2799
a(L1182990556L
L0L
(lp2800
(lp2801
tp2802
a(L3486125357L
L0L
(lp2803
(lp2804
tp2805
a(L1298905564L
L0L
(lp2806
(lp2807
tp2808
a(L524505062L
L0L
(lp2809
(lp2810
tp2811
a(L2258897019L
L0L
(lp2812
(lp2813
tp2814
a(L3781799363L
L0L
(lp2815
(lp2816
tp2817
a(L3028464L
L0L
(lp2818
(lp2819
tp2820
a(L2055755626L
L0L
(lp2821
(lp2822
tp2823
a(L1238883829L
L0L
(lp2824
(lp2825
tp2826
a(L938123553L
L0L
(lp2827
(lp2828
tp2829
a(L4185756579L
L0L
(lp2830
(lp2831
tp2832
a(L3458855836L
L0L
(lp2833
(lp2834
tp2835
a(L3126521138L
L0L
(lp2836
(lp2837
tp2838
a(L1305407438L
L0L
(lp2839
(lp2840
tp2841
a(L1305407469L
L0L
(lp2842
(lp2843
tp2844
atp2845
sI1074244788
(Vrtc_wdt_disable
p2846
(lp2847
(L3436990020L
L0L
(lp2848
(lp2849
tp2850
a(L1119267079L
L0L
(lp2851
(lp2852
tp2853
a(L3150080693L
L1832448559L
(lp2854
(lp2855
Vrtc_wdt_set_stage
p2856
aVrtc_wdt_set_stage
p2857
aVrtc_wdt_set_stage
p2858
atp2859
a(L2556972060L
L0L
(lp2860
(lp2861
tp2862
a(L3360570486L
L0L
(lp2863
(lp2864
tp2865
atp2866
sI1074242992
(Vesp_rom_spiflash_read_status
p2867
(lp2868
(L3562601385L
L0L
(lp2869
(lp2870
tp2871
a(L1182811815L
L0L
(lp2872
(lp2873
tp2874
a(L3197507964L
L0L
(lp2875
(lp2876
tp2877
a(L106L
L0L
(lp2878
(lp2879
tp2880
a(L3993985230L
L0L
(lp2881
(lp2882
tp2883
a(L4004659960L
L0L
(lp2884
(lp2885
tp2886
a(L2123059967L
L0L
(lp2887
(lp2888
tp2889
a(L1973734210L
L0L
(lp2890
(lp2891
tp2892
a(L2392720019L
L0L
(lp2893
(lp2894
tp2895
atp2896
sI1074243772
(Vesp_rom_spiflash_read
p2897
(lp2898
(L3333702792L
L0L
(lp2899
(lp2900
tp2901
a(L4036095L
L0L
(lp2902
(lp2903
tp2904
a(L2860271684L
L0L
(lp2905
(lp2906
tp2907
a(L3017366L
L0L
(lp2908
(lp2909
tp2910
a(L106L
L0L
(lp2911
(lp2912
tp2913
a(L3284085672L
L0L
(lp2914
(lp2915
tp2916
a(L106L
L0L
(lp2917
(lp2918
tp2919
a(L3314555294L
L0L
(lp2920
(lp2921
tp2922
a(L623746597L
L0L
(lp2923
(lp2924
tp2925
a(L2512297787L
L0L
(lp2926
(lp2927
tp2928
a(L1476202770L
L0L
(lp2929
(lp2930
tp2931
a(L106L
L0L
(lp2932
(lp2933
tp2934
a(L2237425440L
L3785322319L
(lp2935
(lp2936
Vesp_rom_spiflash_wait_idle
p2937
atp2938
a(L3021737L
L0L
(lp2939
(lp2940
tp2941
a(L106L
L0L
(lp2942
(lp2943
tp2944
a(L1868280504L
L0L
(lp2945
(lp2946
tp2947
a(L106L
L0L
(lp2948
(lp2949
tp2950
a(L3736482094L
L0L
(lp2951
(lp2952
tp2953
a(L1221163038L
L0L
(lp2954
(lp2955
tp2956
a(L4122060822L
L0L
(lp2957
(lp2958
tp2959
a(L3331032577L
L0L
(lp2960
(lp2961
tp2962
a(L2989032L
L0L
(lp2963
(lp2964
tp2965
a(L3819849625L
L0L
(lp2966
(lp2967
tp2968
a(L1265697180L
L0L
(lp2969
(lp2970
tp2971
a(L4243396107L
L0L
(lp2972
(lp2973
tp2974
a(L3901820448L
L0L
(lp2975
(lp2976
tp2977
a(L4061627655L
L0L
(lp2978
(lp2979
tp2980
a(L1896415737L
L0L
(lp2981
(lp2982
tp2983
a(L1522202953L
L0L
(lp2984
(lp2985
tp2986
a(L3886107453L
L0L
(lp2987
(lp2988
tp2989
a(L2552061890L
L0L
(lp2990
(lp2991
tp2992
a(L2267384310L
L0L
(lp2993
(lp2994
tp2995
a(L2696140277L
L0L
(lp2996
(lp2997
tp2998
a(L2687789892L
L0L
(lp2999
(lp3000
tp3001
a(L1405253496L
L0L
(lp3002
(lp3003
tp3004
a(L353616496L
L0L
(lp3005
(lp3006
tp3007
a(L97689L
L0L
(lp3008
(lp3009
tp3010
a(L2258897019L
L0L
(lp3011
(lp3012
tp3013
a(L4014024819L
L0L
(lp3014
(lp3015
tp3016
a(L3621567083L
L0L
(lp3017
(lp3018
tp3019
atp3020
sI1074244540
(Vrtc_wdt_enable
p3021
(lp3022
(L4037407988L
L0L
(lp3023
(lp3024
tp3025
atp3026
sI1074243512
(Vesp_rom_spiflash_write
p3027
(lp3028
(L2465562107L
L0L
(lp3029
(lp3030
tp3031
a(L2258688483L
L0L
(lp3032
(lp3033
tp3034
a(L3360570486L
L0L
(lp3035
(lp3036
tp3037
a(L1590344338L
L0L
(lp3038
(lp3039
tp3040
a(L3106685987L
L0L
(lp3041
(lp3042
tp3043
a(L4249336406L
L3785322319L
(lp3044
(lp3045
Vesp_rom_spiflash_program_page_internal
p3046
atp3047
a(L1915738254L
L3785322319L
(lp3048
(lp3049
Vesp_rom_spiflash_program_page_internal
p3050
atp3051
a(L663507325L
L0L
(lp3052
(lp3053
tp3054
a(L2392967593L
L0L
(lp3055
(lp3056
tp3057
a(L564470687L
L0L
(lp3058
(lp3059
tp3060
a(L154459701L
L3785322319L
(lp3061
(lp3062
Vesp_rom_spiflash_program_page_internal
p3063
atp3064
a(L2079643754L
L0L
(lp3065
(lp3066
tp3067
atp3068
sI1074240184
(Vbootloader_sha256_data
p3069
(lp3070
(L4066096136L
L0L
(lp3071
(lp3072
tp3073
a(L3974980945L
L0L
(lp3074
(lp3075
tp3076
a(L1249616313L
L3785322319L
(lp3077
(lp3078
V__assert_func
p3079
atp3080
a(L498498478L
L0L
(lp3081
(lp3082
tp3083
a(L3091841350L
L0L
(lp3084
(lp3085
tp3086
a(L2910371777L
L0L
(lp3087
(lp3088
tp3089
a(L3360570486L
L0L
(lp3090
(lp3091
tp3092
a(L232130198L
L0L
(lp3093
(lp3094
tp3095
a(L541898147L
L0L
(lp3096
(lp3097
tp3098
a(L484783274L
L0L
(lp3099
(lp3100
tp3101
a(L3637243870L
L0L
(lp3102
(lp3103
tp3104
a(L97689L
L0L
(lp3105
(lp3106
tp3107
a(L2032890799L
L0L
(lp3108
(lp3109
tp3110
a(L3028464L
L0L
(lp3111
(lp3112
tp3113
a(L208872186L
L0L
(lp3114
(lp3115
tp3116
a(L3398919860L
L0L
(lp3117
(lp3118
tp3119
a(L2208906006L
L0L
(lp3120
(lp3121
tp3122
atp3123
sI1074246584
(Vrtc_clk_cpu_freq_set_config
p3124
(lp3125
(L2025157994L
L3785322319L
(lp3126
(lp3127
Vrtc_clk_xtal_freq_get
p3128
atp3129
a(L1828795533L
L1880226080L
(lp3130
(lp3131
Vrtc_clk_cpu_freq_to_xtal
p3132
aVrtc_clk_wait_for_slow_cycle
p3133
atp3134
a(L94425498L
L3785322319L
(lp3135
(lp3136
Vrtc_clk_bbpll_disable
p3137
atp3138
a(L3978916712L
L0L
(lp3139
(lp3140
tp3141
a(L2977209154L
L0L
(lp3142
(lp3143
tp3144
a(L2736411858L
L3785322319L
(lp3145
(lp3146
Vrtc_clk_cpu_freq_to_xtal
p3147
atp3148
a(L3360570486L
L0L
(lp3149
(lp3150
tp3151
a(L3020187L
L0L
(lp3152
(lp3153
tp3154
a(L106L
L0L
(lp3155
(lp3156
tp3157
a(L35379109L
L2485746240L
(lp3158
(lp3159
Vrtc_clk_wait_for_slow_cycle
p3160
aVrtc_clk_xtal_freq_get
p3161
aVrtc_clk_bbpll_configure
p3162
aVrtc_clk_cpu_freq_to_pll_mhz
p3163
atp3164
a(L3020187L
L0L
(lp3165
(lp3166
tp3167
a(L106L
L0L
(lp3168
(lp3169
tp3170
a(L3215016154L
L0L
(lp3171
(lp3172
tp3173
atp3174
sI1074245572
(Vrtc_clk_slow_freq_set
p3175
(lp3176
(L3350042426L
L0L
(lp3177
(lp3178
tp3179
atp3180
sI1074239172
(Vset_actual_ota_seq
p3181
(lp3182
(L4139641078L
L3785322319L
(lp3183
(lp3184
Vbootloader_common_ota_select_crc
p3185
atp3186
a(L2910371777L
L0L
(lp3187
(lp3188
tp3189
a(L1458119244L
L3785322319L
(lp3190
(lp3191
Vbootloader_flash_erase_sector
p3192
atp3193
a(L651574995L
L3785322319L
(lp3194
(lp3195
Vbootloader_flash_write
p3196
atp3197
a(L3667394188L
L3785322319L
(lp3198
(lp3199
Vesp_log_early_timestamp
p3200
atp3201
a(L3496950L
L0L
(lp3202
(lp3203
tp3204
a(L3016870L
L0L
(lp3205
(lp3206
tp3207
a(L3971861743L
L0L
(lp3208
(lp3209
tp3210
a(L957607403L
L0L
(lp3211
(lp3212
tp3213
atp3214
sI1074245056
(Vrtc_clk_cpu_freq_to_pll_mhz
p3215
(lp3216
(L428013989L
L0L
(lp3217
(lp3218
tp3219
a(L106L
L0L
(lp3220
(lp3221
tp3222
a(L1541997046L
L0L
(lp3223
(lp3224
tp3225
a(L106L
L0L
(lp3226
(lp3227
tp3228
a(L1546614651L
L0L
(lp3229
(lp3230
tp3231
a(L300887751L
L0L
(lp3232
(lp3233
tp3234
a(L636189552L
L3785322319L
(lp3235
(lp3236
Vrtc_clk_wait_for_slow_cycle
p3237
atp3238
a(L4037656863L
L1880226080L
(lp3239
(lp3240
Vesp_log_early_timestamp
p3241
aVabort
p3242
atp3243
a(L1183020347L
L0L
(lp3244
(lp3245
tp3246
a(L1305407562L
L0L
(lp3247
(lp3248
tp3249
a(L1306330990L
L0L
(lp3250
(lp3251
tp3252
atp3253
sI1074267844
(Vbootloader_config_wdt
p3254
(lp3255
(L1332814535L
L665916544L
(lp3256
(lp3257
Vrtc_wdt_protect_off
p3258
aVrtc_wdt_disable
p3259
aVrtc_wdt_set_length_of_reset_signal
p3260
aVrtc_wdt_set_length_of_reset_signal
p3261
aVrtc_wdt_set_stage
p3262
aVrtc_wdt_set_time
p3263
aVrtc_wdt_enable
p3264
aVrtc_wdt_protect_on
p3265
atp3266
atp3267
sI1074268888
(Vbootloader_flash_update_id
p3268
(lp3269
(L960913579L
L3785322319L
(lp3270
(lp3271
Vbootloader_read_flash_id
p3272
atp3273
atp3274
sI1074246864
(Vrtc_clk_apb_freq_get
p3275
(lp3276
(L4056677422L
L0L
(lp3277
(lp3278
tp3279
atp3280
sI1074245336
(Vrtc_clk_32k_enable
p3281
(lp3282
(L753387299L
L0L
(lp3283
(lp3284
tp3285
a(L1067050752L
L3785322319L
(lp3286
(lp3287
Vrtc_clk_32k_enable_common
p3288
atp3289
a(L3360570486L
L0L
(lp3290
(lp3291
tp3292
a(L814578277L
L0L
(lp3293
(lp3294
tp3295
atp3296
sI1074268904
(Vrtc_clk_xtal_freq_estimate
p3297
(lp3298
(L2516060585L
L1880226080L
(lp3299
(lp3300
Vrtc_clk_8m_enabled
p3301
aVrtc_clk_8md256_enabled
p3302
atp3303
a(L967485502L
L3785322319L
(lp3304
(lp3305
Vrtc_clk_8m_enable
p3306
atp3307
a(L2931164540L
L3785322319L
(lp3308
(lp3309
Vrtc_clk_cal_ratio
p3310
atp3311
a(L2446677988L
L0L
(lp3312
(lp3313
tp3314
a(L3360570486L
L0L
(lp3315
(lp3316
tp3317
a(L975797169L
L3785322319L
(lp3318
(lp3319
Vesp_log_early_timestamp
p3320
atp3321
atp3322
sI1074238692
(Vbootloader_clock_get_rated_freq_mhz
p3323
(lp3324
(L2723579418L
L0L
(lp3325
(lp3326
tp3327
a(L2965302338L
L0L
(lp3328
(lp3329
tp3330
a(L3360570486L
L0L
(lp3331
(lp3332
tp3333
atp3334
sI1074235116
(Vbootloader_execute_flash_command
p3335
(lp3336
(L2481595632L
L3785322319L
(lp3337
(lp3338
Vbootloader_flash_execute_command_common
p3339
atp3340
atp3341
sI1074236904
(Vbootloader_common_get_reset_reason
p3342
(lp3343
(L1526530698L
L0L
(lp3344
(lp3345
tp3346
atp3347
sI1074244584
(Vrtc_wdt_set_time
p3348
(lp3349
(L947342461L
L0L
(lp3350
(lp3351
tp3352
a(L521995812L
L3785322319L
(lp3353
(lp3354
Vrtc_clk_slow_freq_get_hz
p3355
atp3356
a(L324610075L
L0L
(lp3357
(lp3358
tp3359
a(L1182990556L
L0L
(lp3360
(lp3361
tp3362
a(L3126521138L
L0L
(lp3363
(lp3364
tp3365
a(L3028464L
L0L
(lp3366
(lp3367
tp3368
a(L702739983L
L0L
(lp3369
(lp3370
tp3371
a(L3366404026L
L0L
(lp3372
(lp3373
tp3374
a(L3028464L
L0L
(lp3375
(lp3376
tp3377
a(L310104432L
L0L
(lp3378
(lp3379
tp3380
a(L310103812L
L0L
(lp3381
(lp3382
tp3383
atp3384
sI1074270192
(Vrtc_clk_cal_ratio
p3385
(lp3386
(L3671579574L
L3785322319L
(lp3387
(lp3388
Vrtc_clk_cal_internal
p3389
atp3390
atp3391
sI1074246140
(Vrtc_clk_xtal_freq_get
p3392
(lp3393
(L3842425226L
L0L
(lp3394
(lp3395
tp3396
a(L2847936993L
L0L
(lp3397
(lp3398
tp3399
a(L952392357L
L0L
(lp3400
(lp3401
tp3402
a(L3360570486L
L0L
(lp3403
(lp3404
tp3405
atp3406
sI1074246396
(Vrtc_clk_xtal_freq_update
p3407
(lp3408
(L2592332694L
L0L
(lp3409
(lp3410
tp3411
a(L3509357017L
L0L
(lp3412
(lp3413
tp3414
a(L3020103887L
L0L
(lp3415
(lp3416
tp3417
atp3418
sI1074246908
(V_fini
p3419
(lp3420
(L3493042598L
L0L
(lp3421
(lp3422
tp3423
atp3424
sI1074236664
(Vbootloader_common_ota_select_crc
p3425
(lp3426
(L3697510928L
L0L
(lp3427
(lp3428
tp3429
atp3430
sI1074236408
(Vesp_cpu_in_ocd_debug_mode
p3431
(lp3432
(L3653986668L
L0L
(lp3433
(lp3434
tp3435
atp3436
sI1074234616
(Vbootloader_flash_execute_command_common
p3437
(lp3438
(L630859308L
L0L
(lp3439
(lp3440
tp3441
a(L120556193L
L0L
(lp3442
(lp3443
tp3444
a(L2925418774L
L3785322319L
(lp3445
(lp3446
V__assert_func
p3447
atp3448
a(L3021749L
L0L
(lp3449
(lp3450
tp3451
a(L153201683L
L0L
(lp3452
(lp3453
tp3454
a(L3132325827L
L0L
(lp3455
(lp3456
tp3457
a(L1782874522L
L0L
(lp3458
(lp3459
tp3460
a(L4024113366L
L0L
(lp3461
(lp3462
tp3463
a(L2147958864L
L0L
(lp3464
(lp3465
tp3466
a(L831940355L
L0L
(lp3467
(lp3468
tp3469
a(L2039827138L
L0L
(lp3470
(lp3471
tp3472
a(L2429937038L
L0L
(lp3473
(lp3474
tp3475
a(L2186295391L
L0L
(lp3476
(lp3477
tp3478
a(L3079186448L
L0L
(lp3479
(lp3480
tp3481
a(L3333696662L
L0L
(lp3482
(lp3483
tp3484
a(L963425213L
L0L
(lp3485
(lp3486
tp3487
a(L3172016656L
L0L
(lp3488
(lp3489
tp3490
a(L3360570486L
L0L
(lp3491
(lp3492
tp3493
a(L1184240068L
L0L
(lp3494
(lp3495
tp3496
atp3497
sI1074236920
(Vbootloader_common_ota_select_invalid
p3498
(lp3499
(L4027567199L
L0L
(lp3500
(lp3501
tp3502
a(L3397985842L
L0L
(lp3503
(lp3504
tp3505
a(L2258867228L
L0L
(lp3506
(lp3507
tp3508
a(L3785235668L
L0L
(lp3509
(lp3510
tp3511
atp3512
ssS'functionsdups'
p3513
g11
((lp3514
tp3515
Rp3516
sS'immediatedups'
p3517
g11
((lp3518
tp3519
Rp3520
sS'functiondups'
p3521
g11
((lp3522
tp3523
Rp3524
sS'fuzzy'
p3525
(dp3526
L1536L
I1074239796
sL3121027072L
I1074269536
sL1340445289L
I1074235536
sL2281427319L
I1074244584
sL3538491111L
I1074246468
sL2919016435L
I1074235148
sL3889821517L
I1074239320
sL1645617665L
I1074269068
sL1540367692L
I1074268904
sL139070185L
I1074240184
sL2469233929L
I1074240348
sL1792232694L
I1074245056
sL4165097831L
I1074244788
sL2844724005L
I1074236812
sL3209093865L
I1074242700
sL3897252859L
I1074239088
sL765462929L
I1074267816
sL1065525808L
I1074236424
sL1766137975L
I1074239288
sL2183816734L
I1074267664
sL1035771659L
I1074237252
sL3768146080L
I1074238728
sL449860969L
I1074246180
sL3338164802L
I1074268224
sL1022733390L
I1074239840
sL2935879234L
I1074235440
sL31786791L
I1074236528
sL3210669721L
I1074245336
sL1332800441L
I1074236720
sL2884218272L
I1074267960
sL2689419264L
I1074245756
sL4202185385L
I1074243084
sL4160102055L
I1074267928
sL2453272040L
I1074269768
sL4171975289L
I1074243380
sL1565254297L
I1074243684
sL2474570535L
I1074237744
sL3428965560L
I1074246584
sL502463145L
I1074234616
sL812946199L
I1074237028
sL2276014668L
I1074267844
sL737694352L
I1074243192
sL503029138L
I1074243132
sL277788135L
I1074243772
sL2262558768L
I1074242992
sL424867129L
I1074243512
sL1554975810L
I1074237564
sL3834155367L
I1074240536
sL1825726882L
I1074239172
sL45390535L
I1074241068
sL3883282432L
I1074240948
sL4278077574L
I1074239528
sL1659748500L
I1074240592
sL4191211306L
I1074246268
ssb.