ccopy_reg
_reconstructor
p0
(crizzo
RizzoSignature
p1
c__builtin__
object
p2
Ntp3
Rp4
(dp5
S'formal'
p6
(dp7
L807601442L
I1074237212
sL4149167435L
I1074235664
sL63872459L
I1074238876
sL697116295L
I1074240608
sL3535546544L
I1074246592
sL511001445L
I1074239556
sL867946411L
I1074269424
sL4049825905L
I1074245704
sL412791177L
I1074237132
sL407239505L
I1074268064
sL670481891L
I1074269296
sL3677952800L
I1074237928
sL3657600793L
I1074240600
sL4213015302L
I1074243228
sL4013661472L
I1074270772
sL2915423193L
I1074267844
sL2387187817L
I1074240276
sL2821324810L
I1074240536
sL4248699166L
I1074244576
sL3733399714L
I1074241392
sL2825663044L
I1074247464
sL3330991267L
I1074246720
sL3779471722L
I1074237436
sL1010441494L
I1074247376
sL1372212967L
I1074239508
sL456477464L
I1074244708
sL3629189985L
I1074246416
sL1736733878L
I1074271228
sL792622856L
I1074236676
sL2896295319L
I1074236572
sL2764194041L
I1074243536
sL3882049885L
I1074246252
sL3337558224L
I1074243676
sL3646197611L
I1074239928
sL3831507039L
I1074270540
sL2055743433L
I1074267960
sL1908133113L
I1074268408
sL2631703448L
I1074267868
sL1773475057L
I1074270072
sL1503210204L
I1074244968
sL902150784L
I1074269364
sL1793374893L
I1074246952
sL4199465731L
I1074235932
sL3763701253L
I1074236408
sL744601145L
I1074235820
sL2213398196L
I1074245720
sL2620963430L
I1074237720
sL588580426L
I1074236908
sL3129199843L
I1074269344
sL3300353237L
I1074236812
sL3115205325L
I1074240792
sL2628725964L
I1074267139
sL3973527984L
I1074237748
sL127011317L
I1074247336
sL1718199299L
I1074268112
sL2250254923L
I1074237088
sL1622041055L
I1074246532
sL3678001729L
I1074236960
sL2187354138L
I1074238912
sL2822171466L
I1074268036
sL2253665577L
I1074238020
sL515040205L
I1074240232
sL1679583389L
I1074247636
sL1704675870L
I1074268364
sL3307282855L
I1074237900
sL1102066230L
I1074269448
sL2341411847L
I1074245860
sL375822063L
I1074239288
sL2465471608L
I1074244880
sL1061836486L
I1074247664
sL612086517L
I1074235276
sL566836817L
I1074243628
sL2482651238L
I1074271196
sL431329064L
I1074238492
sL78985000L
I1074246116
sL2247738200L
I1074237384
sL2066463114L
I1074240980
sL3294288889L
I1074234744
sL1156874576L
I1074236556
sL48814668L
I1074243244
sL2993347781L
I1074235568
sL3000663925L
I1074246936
sL2997001746L
I1074236868
sL2132896403L
I1074269848
sL853291112L
I1074269908
sL1811049290L
I1074241512
sL2819127986L
I1074236832
sL1534595778L
I1074246744
sL1016152107L
I1074267760
sL3640229699L
I1074269832
sL407833072L
I1074245780
sL4127517125L
I1074247780
sL3830128266L
I1074269240
sL1164083360L
I1074235620
sL2411516799L
I1074269196
sL2619688673L
I1074243736
sL1199710794L
I1074245736
sL2324450628L
I1074248060
sL3309795215L
I1074267912
sL2806338958L
I1074268144
sL3150843906L
I1074246892
sL2633166886L
I1074247592
sL2263182908L
I1074237920
sL188664287L
I1074235244
sL1797519298L
I1074236644
sL3956028456L
I1074243924
sL692536993L
I1074237104
sL1888781180L
I1074238808
sL2763704918L
I1074239372
sL3995976925L
I1074240628
sL657618118L
I1074270700
sL99911425L
I1074245984
sL4224514361L
I1074246768
sL2357761661L
I1074246836
sL271784645L
I1074241036
sL808865487L
I1074246192
sL2896882000L
I1074246852
sL3322869492L
I1074269404
sL677806744L
I1074269216
ssS'immediates'
p8
(dp9
sS'formaldups'
p10
c__builtin__
set
p11
((lp12
tp13
Rp14
sS'stringdups'
p15
g11
((lp16
tp17
Rp18
sS'fuzzydups'
p19
g11
((lp20
tp21
Rp22
sS'strings'
p23
(dp24
sS'functions'
p25
(dp26
I1074267912
(Vbootloader_check_bootloader_validity
p27
(lp28
(L569813265L
L1832448559L
(lp29
(lp30
Vbootloader_common_get_chip_revision
p31
aVesp_log_early_timestamp
p32
aVbootloader_common_check_chip_validity
p33
atp34
atp35
sI1074269448
(Vbootloader_enable_qio_mode
p36
(lp37
(L810110435L
L3785322319L
(lp38
(lp39
Vesp_rom_spiflash_wait_idle
p40
atp41
a(L3597966280L
L0L
(lp42
(lp43
tp44
a(L3274976L
L0L
(lp45
(lp46
tp47
a(L97422L
L0L
(lp48
(lp49
tp50
a(L106L
L0L
(lp51
(lp52
tp53
a(L3412888759L
L0L
(lp54
(lp55
tp56
a(L106L
L0L
(lp57
(lp58
tp59
a(L3650376524L
L3785322319L
(lp60
(lp61
Vesp_log_early_timestamp
p62
atp63
a(L143810983L
L3785322319L
(lp64
(lp65
Vesp_rom_spiflash_wait_idle
p66
atp67
a(L1307796454L
L1880226080L
(lp68
(lp69
Vbootloader_execute_flash_command
p70
aVesp_rom_spiflash_wait_idle
p71
atp72
a(L4258452266L
L3785322319L
(lp73
(lp74
Vesp_log_early_timestamp
p75
atp76
a(L3360570486L
L0L
(lp77
(lp78
tp79
a(L2202430623L
L3785322319L
(lp80
(lp81
Vesp_log_early_timestamp
p82
atp83
a(L1870733732L
L1880226080L
(lp84
(lp85
Vesp_rom_spiflash_config_readmode
p86
aVbootloader_flash_get_wp_pin
p87
atp88
atp89
sI1074236676
(Vbootloader_clock_configure
p90
(lp91
(L2733072680L
L0L
(lp92
(lp93
tp94
a(L2878253354L
L0L
(lp95
(lp96
tp97
a(L3469235381L
L0L
(lp98
(lp99
tp100
a(L3913912455L
L0L
(lp101
(lp102
tp103
a(L3071401876L
L1832448559L
(lp104
(lp105
Vrtc_clk_slow_freq_get
p106
aVrtc_clk_fast_freq_get
p107
aVrtc_clk_init
p108
atp109
atp110
sI1074269196
(Vwrite_status_8b_wrsr2
p111
(lp112
(L3772914914L
L3785322319L
(lp113
(lp114
Vbootloader_execute_flash_command
p115
atp116
atp117
sI1074267136
(V_init
p118
(lp119
(L3493042598L
L0L
(lp120
(lp121
tp122
atp123
sI1074241036
(Vverify_load_addresses
p124
(lp125
(L2763563698L
L0L
(lp126
(lp127
tp128
a(L106L
L0L
(lp129
(lp130
tp131
a(L97642L
L0L
(lp132
(lp133
tp134
a(L1443883331L
L3785322319L
(lp135
(lp136
V__assert_func
p137
atp138
a(L993213158L
L0L
(lp139
(lp140
tp141
a(L106L
L0L
(lp142
(lp143
tp144
a(L4236120437L
L0L
(lp145
(lp146
tp147
a(L106L
L0L
(lp148
(lp149
tp150
a(L670623950L
L3785322319L
(lp151
(lp152
Vbootloader_util_regions_overlap
p153
atp154
a(L3693032374L
L3785322319L
(lp155
(lp156
Vbootloader_util_regions_overlap
p157
atp158
a(L3028481L
L0L
(lp159
(lp160
tp161
a(L2097688734L
L3785322319L
(lp162
(lp163
Vbootloader_util_regions_overlap
p164
atp165
a(L3557287766L
L0L
(lp166
(lp167
tp168
a(L2320741126L
L0L
(lp169
(lp170
tp171
a(L176738853L
L0L
(lp172
(lp173
tp174
a(L1942703967L
L0L
(lp175
(lp176
tp177
a(L642339957L
L0L
(lp178
(lp179
tp180
a(L677569396L
L3785322319L
(lp181
(lp182
Vverify_load_addresses
p183
atp184
a(L1351513776L
L0L
(lp185
(lp186
tp187
a(L151545024L
L0L
(lp188
(lp189
tp190
a(L3099128907L
L0L
(lp191
(lp192
tp193
a(L2699739254L
L3785322319L
(lp194
(lp195
Vbootloader_util_regions_overlap
p196
atp197
a(L3028481L
L0L
(lp198
(lp199
tp200
a(L648569373L
L3785322319L
(lp201
(lp202
Vbootloader_util_regions_overlap
p203
atp204
a(L91328703L
L0L
(lp205
(lp206
tp207
a(L2077295999L
L0L
(lp208
(lp209
tp210
a(L1207773323L
L0L
(lp211
(lp212
tp213
a(L106L
L0L
(lp214
(lp215
tp216
a(L3665799262L
L0L
(lp217
(lp218
tp219
a(L3825488409L
L0L
(lp220
(lp221
tp222
a(L955487275L
L0L
(lp223
(lp224
tp225
a(L307916819L
L0L
(lp226
(lp227
tp228
a(L490080443L
L0L
(lp229
(lp230
tp231
a(L106L
L0L
(lp232
(lp233
tp234
a(L3632101660L
L3785322319L
(lp235
(lp236
Vesp_log_early_timestamp
p237
atp238
a(L955486655L
L0L
(lp239
(lp240
tp241
a(L1303560427L
L0L
(lp242
(lp243
tp244
atp245
sI1074267139
(V_text_start
p246
(lp247
(L2557086379L
L0L
(lp248
(lp249
tp250
atp251
sI1074239508
(Vtry_load_partition
p252
(lp253
(L1263750142L
L0L
(lp254
(lp255
tp256
a(L2258688482L
L0L
(lp257
(lp258
tp259
a(L3360570486L
L0L
(lp260
(lp261
tp262
a(L530241438L
L3785322319L
(lp263
(lp264
Vbootloader_load_image
p265
atp266
a(L2953778475L
L3785322319L
(lp267
(lp268
Vesp_log_early_timestamp
p269
atp270
atp271
sI1074240276
(Vbootloader_utility_load_boot_image
p272
(lp273
(L1561528311L
L0L
(lp274
(lp275
tp276
a(L2177418995L
L3785322319L
(lp277
(lp278
Vtry_load_partition
p279
atp280
a(L2749106626L
L3785322319L
(lp281
(lp282
Vload_image
p283
atp284
a(L370578032L
L3785322319L
(lp285
(lp286
Vesp_log_early_timestamp
p287
atp288
a(L3827921190L
L3785322319L
(lp289
(lp290
Vbootloader_reset
p291
atp292
a(L2542673780L
L3785322319L
(lp293
(lp294
Vindex_to_partition
p295
atp296
a(L1204373741L
L3785322319L
(lp297
(lp298
Vtry_load_partition
p299
atp300
a(L3020187L
L0L
(lp301
(lp302
tp303
a(L494501264L
L0L
(lp304
(lp305
tp306
a(L2070875117L
L3785322319L
(lp307
(lp308
Vset_actual_ota_seq
p309
atp310
a(L1868897605L
L3785322319L
(lp311
(lp312
Vlog_invalid_app_partition
p313
atp314
a(L831650730L
L0L
(lp315
(lp316
tp317
a(L3021737L
L0L
(lp318
(lp319
tp320
a(L2044488255L
L0L
(lp321
(lp322
tp323
a(L3253133349L
L3785322319L
(lp324
(lp325
Vtry_load_partition
p326
atp327
a(L255168962L
L3785322319L
(lp328
(lp329
Vesp_log_early_timestamp
p330
atp331
a(L2185156151L
L3785322319L
(lp332
(lp333
Vindex_to_partition
p334
atp335
a(L1074657773L
L3785322319L
(lp336
(lp337
Vtry_load_partition
p338
atp339
a(L3027024L
L0L
(lp340
(lp341
tp342
a(L2022167053L
L0L
(lp343
(lp344
tp345
a(L3061261803L
L0L
(lp346
(lp347
tp348
a(L3582858798L
L3785322319L
(lp349
(lp350
Vlog_invalid_app_partition
p351
atp352
a(L1240683097L
L3785322319L
(lp353
(lp354
Vesp_log_early_timestamp
p355
atp356
atp357
sI1074235664
(Vbootloader_flash_xmc_startup
p358
(lp359
(L4031258446L
L3785322319L
(lp360
(lp361
Vis_xmc_chip_strict
p362
atp363
a(L2258688482L
L0L
(lp364
(lp365
tp366
a(L3360570486L
L0L
(lp367
(lp368
tp369
a(L2860324232L
L3785322319L
(lp370
(lp371
Vbootloader_flash_read_sfdp
p372
atp373
a(L3354428414L
L2567856111L
(lp374
(lp375
Vesp_log_early_timestamp
p376
aVbootloader_execute_flash_command
p377
aVbootloader_execute_flash_command
p378
aVbootloader_execute_flash_command
p379
aVbootloader_execute_flash_command
p380
aVbootloader_read_flash_id
p381
aVis_xmc_chip_strict
p382
atp383
a(L3332645139L
L3785322319L
(lp384
(lp385
Vesp_log_early_timestamp
p386
atp387
atp388
sI1074244880
(Vesp_rom_spiflash_write_encrypted
p389
(lp390
(L2107077087L
L0L
(lp391
(lp392
tp393
a(L2952393827L
L0L
(lp394
(lp395
tp396
a(L97689L
L0L
(lp397
(lp398
tp399
a(L3061232074L
L0L
(lp400
(lp401
tp402
a(L3783620797L
L0L
(lp403
(lp404
tp405
a(L2903314395L
L3785322319L
(lp406
(lp407
Vesp_rom_spiflash_write
p408
atp409
a(L4108111344L
L0L
(lp410
(lp411
tp412
a(L735741265L
L0L
(lp413
(lp414
tp415
atp416
sI1074246416
(Vrtc_clk_32k_enable_common
p417
(lp418
(L2647964980L
L0L
(lp419
(lp420
tp421
atp422
sI1074238492
(Vbootloader_random_disable
p423
(lp424
(L3017874659L
L0L
(lp425
(lp426
tp427
atp428
sI1074235932
(Vbootloader_flash_gpio_config
p429
(lp430
(L1818134387L
L0L
(lp431
(lp432
tp433
a(L106L
L0L
(lp434
(lp435
tp436
a(L2886083034L
L0L
(lp437
(lp438
tp439
a(L106L
L0L
(lp440
(lp441
tp442
a(L764306525L
L0L
(lp443
(lp444
tp445
a(L1950832592L
L0L
(lp446
(lp447
tp448
a(L106L
L0L
(lp449
(lp450
tp451
a(L285055546L
L0L
(lp452
(lp453
tp454
a(L1291226339L
L0L
(lp455
(lp456
tp457
a(L3360570486L
L0L
(lp458
(lp459
tp460
atp461
sI1074237212
(Vbootloader_mmap
p462
(lp463
(L228257734L
L0L
(lp464
(lp465
tp466
a(L3959452980L
L3785322319L
(lp467
(lp468
Vesp_log_early_timestamp
p469
atp470
a(L1182811810L
L0L
(lp471
(lp472
tp473
a(L3496950L
L0L
(lp474
(lp475
tp476
a(L1605824514L
L0L
(lp477
(lp478
tp479
a(L1617541933L
L3785322319L
(lp480
(lp481
Vesp_log_early_timestamp
p482
atp483
a(L1893103147L
L0L
(lp484
(lp485
tp486
a(L1338580999L
L3785322319L
(lp487
(lp488
Vesp_log_early_timestamp
p489
atp490
a(L3851658203L
L0L
(lp491
(lp492
tp493
atp494
sI1074240792
(Vbootloader_sha256_finish
p495
(lp496
(L4066096136L
L0L
(lp497
(lp498
tp499
a(L3454340660L
L0L
(lp500
(lp501
tp502
a(L2647092898L
L3785322319L
(lp503
(lp504
V__assert_func
p505
atp506
a(L3020204L
L0L
(lp507
(lp508
tp509
a(L3125040299L
L0L
(lp510
(lp511
tp512
a(L2534656226L
L0L
(lp513
(lp514
tp515
a(L784507711L
L3785322319L
(lp516
(lp517
Vbootloader_sha256_data
p518
atp519
a(L4017254527L
L0L
(lp520
(lp521
tp522
a(L3748946459L
L3785322319L
(lp523
(lp524
Vbootloader_sha256_data
p525
atp526
a(L208880134L
L0L
(lp527
(lp528
tp529
a(L67884924L
L0L
(lp530
(lp531
tp532
a(L1868567730L
L0L
(lp533
(lp534
tp535
a(L67884924L
L0L
(lp536
(lp537
tp538
a(L3901819405L
L0L
(lp539
(lp540
tp541
a(L3942420762L
L0L
(lp542
(lp543
tp544
a(L3347778L
L0L
(lp545
(lp546
tp547
a(L3360570486L
L0L
(lp548
(lp549
tp550
atp551
sI1074237720
(Vbootloader_flash_erase_sector
p552
(lp553
(L2049114289L
L3785322319L
(lp554
(lp555
Vesp_rom_spiflash_erase_sector
p556
atp557
a(L1025033345L
L0L
(lp558
(lp559
tp560
a(L3360570486L
L0L
(lp561
(lp562
tp563
atp564
sI1074240536
(Vindex_to_partition
p565
(lp566
(L4066096119L
L0L
(lp567
(lp568
tp569
a(L1739185955L
L0L
(lp570
(lp571
tp572
a(L2171552758L
L0L
(lp573
(lp574
tp575
a(L2808906342L
L0L
(lp576
(lp577
tp578
a(L2101481936L
L0L
(lp579
(lp580
tp581
a(L3698927993L
L0L
(lp582
(lp583
tp584
a(L2808826781L
L0L
(lp585
(lp586
tp587
a(L2911029954L
L0L
(lp588
(lp589
tp590
a(L1104460200L
L0L
(lp591
(lp592
tp593
a(L1087646172L
L0L
(lp594
(lp595
tp596
atp597
sI1074246936
(Vrtc_clk_fast_freq_get
p598
(lp599
(L3183902007L
L0L
(lp600
(lp601
tp602
atp603
sI1074236960
(Vbootloader_common_check_chip_validity
p604
(lp605
(L894048467L
L0L
(lp606
(lp607
tp608
a(L2493885028L
L3785322319L
(lp609
(lp610
Vesp_log_early_timestamp
p611
atp612
a(L292074472L
L3785322319L
(lp613
(lp614
Vbootloader_common_get_chip_revision
p615
atp616
a(L4032671233L
L3785322319L
(lp617
(lp618
Vesp_log_early_timestamp
p619
atp620
a(L3871473710L
L0L
(lp621
(lp622
tp623
a(L97422L
L0L
(lp624
(lp625
tp626
a(L2414545599L
L3785322319L
(lp627
(lp628
Vesp_log_early_timestamp
p629
atp630
a(L4151320241L
L0L
(lp631
(lp632
tp633
a(L106738108L
L0L
(lp634
(lp635
tp636
atp637
sI1074269216
(Vread_status_8b_rdsr2
p638
(lp639
(L3746738790L
L3785322319L
(lp640
(lp641
Vbootloader_execute_flash_command
p642
atp643
atp644
sI1074243628
(Vesp_rom_spiflash_wait_idle
p645
(lp646
(L3233075732L
L0L
(lp647
(lp648
tp649
a(L2023766174L
L0L
(lp650
(lp651
tp652
a(L2805933713L
L0L
(lp653
(lp654
tp655
a(L3086959262L
L0L
(lp656
(lp657
tp658
a(L4161019926L
L3785322319L
(lp659
(lp660
Vesp_rom_spiflash_read_status
p661
atp662
atp663
sI1074247464
(Vrtc_clk_cpu_freq_get_config
p664
(lp665
(L334759959L
L0L
(lp666
(lp667
tp668
a(L2902417580L
L0L
(lp669
(lp670
tp671
a(L1777368540L
L0L
(lp672
(lp673
tp674
a(L1295813992L
L1880226080L
(lp675
(lp676
Vesp_log_early_timestamp
p677
aVabort
p678
atp679
a(L3912594976L
L3785322319L
(lp680
(lp681
Vrtc_clk_xtal_freq_get
p682
atp683
a(L584032699L
L0L
(lp684
(lp685
tp686
a(L3857739582L
L0L
(lp687
(lp688
tp689
a(L3020187L
L0L
(lp690
(lp691
tp692
a(L713819170L
L0L
(lp693
(lp694
tp695
a(L106L
L0L
(lp696
(lp697
tp698
a(L549042870L
L0L
(lp699
(lp700
tp701
a(L187152368L
L0L
(lp702
(lp703
tp704
a(L4149732163L
L0L
(lp705
(lp706
tp707
atp708
sI1074246952
(Vrtc_clk_bbpll_configure
p709
(lp710
(L3970500773L
L0L
(lp711
(lp712
tp713
a(L106L
L0L
(lp714
(lp715
tp716
a(L3112128712L
L0L
(lp717
(lp718
tp719
a(L106L
L0L
(lp720
(lp721
tp722
a(L83268611L
L0L
(lp723
(lp724
tp725
a(L106L
L0L
(lp726
(lp727
tp728
a(L82345090L
L0L
(lp729
(lp730
tp731
a(L106L
L0L
(lp732
(lp733
tp734
a(L2258688482L
L0L
(lp735
(lp736
tp737
a(L3177466952L
L0L
(lp738
(lp739
tp740
a(L1964059305L
L0L
(lp741
(lp742
tp743
a(L616519217L
L0L
(lp744
(lp745
tp746
a(L1299866343L
L0L
(lp747
(lp748
tp749
a(L3291765465L
L0L
(lp750
(lp751
tp752
a(L3241888512L
L0L
(lp753
(lp754
tp755
a(L696203121L
L0L
(lp756
(lp757
tp758
a(L83268344L
L0L
(lp759
(lp760
tp761
a(L82344823L
L0L
(lp762
(lp763
tp764
a(L1667153377L
L0L
(lp765
(lp766
tp767
a(L2258867279L
L0L
(lp768
(lp769
tp770
a(L2085023633L
L0L
(lp771
(lp772
tp773
a(L1551160474L
L0L
(lp774
(lp775
tp776
a(L1712476653L
L0L
(lp777
(lp778
tp779
a(L4011631532L
L0L
(lp780
(lp781
tp782
atp783
sI1074267960
(Vbootloader_config_wdt
p784
(lp785
(L2467684822L
L665916544L
(lp786
(lp787
Vrtc_wdt_protect_off
p788
aVrtc_wdt_disable
p789
aVrtc_wdt_set_length_of_reset_signal
p790
aVrtc_wdt_set_length_of_reset_signal
p791
aVrtc_wdt_set_stage
p792
aVrtc_wdt_set_time
p793
aVrtc_wdt_enable
p794
aVrtc_wdt_protect_on
p795
atp796
atp797
sI1074269240
(Vwrite_status_8b_xmc25qu64a
p798
(lp799
(L560557871L
L1157885199L
(lp800
(lp801
Vbootloader_execute_flash_command
p802
aVesp_rom_spiflash_wait_idle
p803
aVbootloader_execute_flash_command
p804
aVesp_rom_spiflash_wait_idle
p805
aVbootloader_execute_flash_command
p806
atp807
atp808
sI1074237748
(Vbootloader_flash_write
p809
(lp810
(L3119145091L
L0L
(lp811
(lp812
tp813
a(L3913638753L
L3785322319L
(lp814
(lp815
Vesp_log_early_timestamp
p816
atp817
a(L44113432L
L0L
(lp818
(lp819
tp820
a(L1610445075L
L0L
(lp821
(lp822
tp823
a(L735741265L
L0L
(lp824
(lp825
tp826
a(L3291333414L
L0L
(lp827
(lp828
tp829
a(L2835527779L
L3785322319L
(lp830
(lp831
Vesp_log_early_timestamp
p832
atp833
a(L3283691850L
L0L
(lp834
(lp835
tp836
a(L1726507814L
L3785322319L
(lp837
(lp838
Vesp_log_early_timestamp
p839
atp840
a(L3212356251L
L3785322319L
(lp841
(lp842
Vbootloader_flash_unlock
p843
atp844
a(L4210907913L
L0L
(lp845
(lp846
tp847
a(L94425498L
L3785322319L
(lp848
(lp849
Vesp_rom_spiflash_write_encrypted
p850
atp851
a(L93674324L
L0L
(lp852
(lp853
tp854
a(L3947497578L
L0L
(lp855
(lp856
tp857
a(L2927190544L
L3785322319L
(lp858
(lp859
Vesp_rom_spiflash_write
p860
atp861
atp862
sI1074246192
(Vrtc_clk_bbpll_disable
p863
(lp864
(L3273340299L
L0L
(lp865
(lp866
tp867
a(L391691750L
L0L
(lp868
(lp869
tp870
a(L3360570486L
L0L
(lp871
(lp872
tp873
atp874
sI1074270772
(Vrtc_clk_cal_internal
p875
(lp876
(L736404506L
L0L
(lp877
(lp878
tp879
a(L2494129153L
L3785322319L
(lp880
(lp881
V__assert_func
p882
atp883
a(L3126760802L
L0L
(lp884
(lp885
tp886
a(L3017366L
L0L
(lp887
(lp888
tp889
a(L2781091364L
L0L
(lp890
(lp891
tp892
a(L4169864463L
L1880226080L
(lp893
(lp894
Vrtc_clk_8m_enabled
p895
aVrtc_clk_8md256_enabled
p896
atp897
a(L3842395734L
L3785322319L
(lp898
(lp899
Vrtc_clk_8m_enable
p900
atp901
a(L3445718589L
L0L
(lp902
(lp903
tp904
a(L3502850147L
L0L
(lp905
(lp906
tp907
a(L97689L
L0L
(lp908
(lp909
tp910
a(L510392550L
L0L
(lp911
(lp912
tp913
a(L3028464L
L0L
(lp914
(lp915
tp916
a(L3028481L
L0L
(lp917
(lp918
tp919
a(L3450945723L
L0L
(lp920
(lp921
tp922
a(L3038456793L
L3785322319L
(lp923
(lp924
Vrtc_clk_xtal_freq_get
p925
atp926
a(L2780079961L
L0L
(lp927
(lp928
tp929
a(L2205248523L
L0L
(lp930
(lp931
tp932
a(L3683500798L
L3785322319L
(lp933
(lp934
Vesp_log_early_timestamp
p935
atp936
a(L3360570486L
L0L
(lp937
(lp938
tp939
a(L3114528881L
L0L
(lp940
(lp941
tp942
a(L2877845625L
L0L
(lp943
(lp944
tp945
a(L3028481L
L0L
(lp946
(lp947
tp948
a(L1754284426L
L0L
(lp949
(lp950
tp951
a(L755155573L
L3785322319L
(lp952
(lp953
Vrtc_clk_8m_enable
p954
atp955
a(L3631005548L
L0L
(lp956
(lp957
tp958
a(L482892943L
L0L
(lp959
(lp960
tp961
a(L3352263364L
L0L
(lp962
(lp963
tp964
atp965
sI1074239288
(Vlog_invalid_app_partition
p966
(lp967
(L2294048375L
L0L
(lp968
(lp969
tp970
a(L3028464L
L0L
(lp971
(lp972
tp973
a(L258990391L
L3785322319L
(lp974
(lp975
Vesp_log_early_timestamp
p976
atp977
a(L44113432L
L0L
(lp978
(lp979
tp980
a(L3360570486L
L0L
(lp981
(lp982
tp983
a(L1770524876L
L3785322319L
(lp984
(lp985
Vesp_log_early_timestamp
p986
atp987
a(L2487557571L
L3785322319L
(lp988
(lp989
Vesp_log_early_timestamp
p990
atp991
atp992
sI1074239556
(Vbootloader_utility_load_partition_table
p993
(lp994
(L709092443L
L3785322319L
(lp995
(lp996
Vbootloader_mmap
p997
atp998
a(L4068204556L
L3785322319L
(lp999
(lp1000
Vesp_log_early_timestamp
p1001
atp1002
a(L2258688482L
L0L
(lp1003
(lp1004
tp1005
a(L3360570486L
L0L
(lp1006
(lp1007
tp1008
a(L2379286607L
L3785322319L
(lp1009
(lp1010
Vesp_partition_table_verify
p1011
atp1012
a(L2778706912L
L3785322319L
(lp1013
(lp1014
Vesp_log_early_timestamp
p1015
atp1016
a(L2568682452L
L1880226080L
(lp1017
(lp1018
Vesp_log_early_timestamp
p1019
aVesp_log_early_timestamp
p1020
atp1021
a(L60599615L
L0L
(lp1022
(lp1023
tp1024
a(L4283367865L
L1880226080L
(lp1025
(lp1026
Vbootloader_munmap
p1027
aVesp_log_early_timestamp
p1028
atp1029
a(L4226553678L
L0L
(lp1030
(lp1031
tp1032
a(L3028464L
L0L
(lp1033
(lp1034
tp1035
a(L106L
L0L
(lp1036
(lp1037
tp1038
a(L307915920L
L0L
(lp1039
(lp1040
tp1041
a(L3005152963L
L3785322319L
(lp1042
(lp1043
Vesp_log_early_timestamp
p1044
atp1045
a(L3990577774L
L0L
(lp1046
(lp1047
tp1048
a(L3020187L
L0L
(lp1049
(lp1050
tp1051
a(L2699205014L
L0L
(lp1052
(lp1053
tp1054
a(L1154516215L
L0L
(lp1055
(lp1056
tp1057
a(L2539298880L
L0L
(lp1058
(lp1059
tp1060
a(L1308296229L
L0L
(lp1061
(lp1062
tp1063
a(L2202822289L
L0L
(lp1064
(lp1065
tp1066
a(L1427020068L
L0L
(lp1067
(lp1068
tp1069
a(L955461328L
L0L
(lp1070
(lp1071
tp1072
atp1073
sI1074238020
(Vbootloader_random_enable
p1074
(lp1075
(L1116289920L
L0L
(lp1076
(lp1077
tp1078
atp1079
sI1074270540
(Vrtc_vddsdio_get_config
p1080
(lp1081
(L4226081970L
L0L
(lp1082
(lp1083
tp1084
a(L147025923L
L0L
(lp1085
(lp1086
tp1087
a(L318395269L
L0L
(lp1088
(lp1089
tp1090
a(L1802012336L
L0L
(lp1091
(lp1092
tp1093
a(L889237611L
L0L
(lp1094
(lp1095
tp1096
a(L1116012092L
L0L
(lp1097
(lp1098
tp1099
a(L1719615367L
L0L
(lp1100
(lp1101
tp1102
a(L2823703453L
L0L
(lp1103
(lp1104
tp1105
atp1106
sI1074246720
(Vrtc_clk_8m_enabled
p1107
(lp1108
(L3676418859L
L0L
(lp1109
(lp1110
tp1111
atp1112
sI1074245704
(Vrtc_wdt_protect_off
p1113
(lp1114
(L2037607282L
L0L
(lp1115
(lp1116
tp1117
atp1118
sI1074243924
(Vesp_rom_spiflash_config_readmode
p1119
(lp1120
(L2433196726L
L0L
(lp1121
(lp1122
tp1123
a(L673774382L
L0L
(lp1124
(lp1125
tp1126
a(L2805933713L
L0L
(lp1127
(lp1128
tp1129
a(L2788187696L
L0L
(lp1130
(lp1131
tp1132
a(L4258959850L
L0L
(lp1133
(lp1134
tp1135
a(L2054625708L
L0L
(lp1136
(lp1137
tp1138
a(L1444705437L
L0L
(lp1139
(lp1140
tp1141
a(L3248031894L
L0L
(lp1142
(lp1143
tp1144
a(L3215973964L
L0L
(lp1145
(lp1146
tp1147
a(L3542583285L
L0L
(lp1148
(lp1149
tp1150
a(L106L
L0L
(lp1151
(lp1152
tp1153
a(L123467878L
L0L
(lp1154
(lp1155
tp1156
a(L2850421382L
L0L
(lp1157
(lp1158
tp1159
a(L2993202392L
L0L
(lp1160
(lp1161
tp1162
a(L3016870L
L0L
(lp1163
(lp1164
tp1165
a(L202401022L
L0L
(lp1166
(lp1167
tp1168
a(L997523648L
L0L
(lp1169
(lp1170
tp1171
a(L399498968L
L0L
(lp1172
(lp1173
tp1174
a(L3742931569L
L0L
(lp1175
(lp1176
tp1177
a(L399500433L
L0L
(lp1178
(lp1179
tp1180
a(L75957818L
L0L
(lp1181
(lp1182
tp1183
a(L403734373L
L0L
(lp1184
(lp1185
tp1186
a(L1532870558L
L0L
(lp1187
(lp1188
tp1189
a(L137355675L
L0L
(lp1190
(lp1191
tp1192
atp1193
sI1074243676
(Vesp_rom_spiflash_enable_write
p1194
(lp1195
(L699309791L
L3785322319L
(lp1196
(lp1197
Vesp_rom_spiflash_wait_idle
p1198
atp1199
a(L3137194272L
L0L
(lp1200
(lp1201
tp1202
a(L2258718275L
L0L
(lp1203
(lp1204
tp1205
a(L99543895L
L0L
(lp1206
(lp1207
tp1208
a(L2993202392L
L0L
(lp1209
(lp1210
tp1211
a(L1804543818L
L3785322319L
(lp1212
(lp1213
Vesp_rom_spiflash_read_status
p1214
atp1215
atp1216
sI1074240600
(Vbootloader_debug_buffer
p1217
(lp1218
(L2100504542L
L0L
(lp1219
(lp1220
tp1221
atp1222
sI1074238808
(Vbootloader_common_get_chip_revision
p1223
(lp1224
(L1903394089L
L0L
(lp1225
(lp1226
tp1227
a(L1505435816L
L0L
(lp1228
(lp1229
tp1230
a(L3360570486L
L0L
(lp1231
(lp1232
tp1233
atp1234
sI1074245720
(Vrtc_wdt_protect_on
p1235
(lp1236
(L526665451L
L0L
(lp1237
(lp1238
tp1239
atp1240
sI1074246744
(Vrtc_clk_8md256_enabled
p1241
(lp1242
(L2831946988L
L0L
(lp1243
(lp1244
tp1245
atp1246
sI1074244708
(Vesp_rom_spiflash_write
p1247
(lp1248
(L541757963L
L0L
(lp1249
(lp1250
tp1251
a(L2258688483L
L0L
(lp1252
(lp1253
tp1254
a(L3360570486L
L0L
(lp1255
(lp1256
tp1257
a(L1590344338L
L0L
(lp1258
(lp1259
tp1260
a(L3106685987L
L0L
(lp1261
(lp1262
tp1263
a(L4249336406L
L3785322319L
(lp1264
(lp1265
Vesp_rom_spiflash_program_page_internal
p1266
atp1267
a(L1915738254L
L3785322319L
(lp1268
(lp1269
Vesp_rom_spiflash_program_page_internal
p1270
atp1271
a(L663507325L
L0L
(lp1272
(lp1273
tp1274
a(L2392967593L
L0L
(lp1275
(lp1276
tp1277
a(L564470687L
L0L
(lp1278
(lp1279
tp1280
a(L154459701L
L3785322319L
(lp1281
(lp1282
Vesp_rom_spiflash_program_page_internal
p1283
atp1284
a(L2079643754L
L0L
(lp1285
(lp1286
tp1287
atp1288
sI1074247780
(Vrtc_clk_cpu_freq_set_config
p1289
(lp1290
(L1019835905L
L3785322319L
(lp1291
(lp1292
Vrtc_clk_xtal_freq_get
p1293
atp1294
a(L1828795533L
L1880226080L
(lp1295
(lp1296
Vrtc_clk_cpu_freq_to_xtal
p1297
aVrtc_clk_wait_for_slow_cycle
p1298
atp1299
a(L94425498L
L3785322319L
(lp1300
(lp1301
Vrtc_clk_bbpll_disable
p1302
atp1303
a(L3978916712L
L0L
(lp1304
(lp1305
tp1306
a(L2977209154L
L0L
(lp1307
(lp1308
tp1309
a(L2736411858L
L3785322319L
(lp1310
(lp1311
Vrtc_clk_cpu_freq_to_xtal
p1312
atp1313
a(L3360570486L
L0L
(lp1314
(lp1315
tp1316
a(L3020187L
L0L
(lp1317
(lp1318
tp1319
a(L106L
L0L
(lp1320
(lp1321
tp1322
a(L3566113350L
L2485746240L
(lp1323
(lp1324
Vrtc_clk_wait_for_slow_cycle
p1325
aVrtc_clk_xtal_freq_get
p1326
aVrtc_clk_bbpll_configure
p1327
aVrtc_clk_cpu_freq_to_pll_mhz
p1328
atp1329
a(L3020187L
L0L
(lp1330
(lp1331
tp1332
a(L106L
L0L
(lp1333
(lp1334
tp1335
a(L2779082084L
L0L
(lp1336
(lp1337
tp1338
atp1339
sI1074240608
(Vbootloader_sha256_start
p1340
(lp1341
(L3681654819L
L0L
(lp1342
(lp1343
tp1344
atp1345
sI1074245984
(Vrtc_wdt_disable
p1346
(lp1347
(L1570001574L
L0L
(lp1348
(lp1349
tp1350
a(L1119267079L
L0L
(lp1351
(lp1352
tp1353
a(L2047348962L
L1832448559L
(lp1354
(lp1355
Vrtc_wdt_set_stage
p1356
aVrtc_wdt_set_stage
p1357
aVrtc_wdt_set_stage
p1358
atp1359
a(L3088830029L
L0L
(lp1360
(lp1361
tp1362
a(L3360570486L
L0L
(lp1363
(lp1364
tp1365
atp1366
sI1074246252
(Vrtc_clk_cpu_freq_to_pll_mhz
p1367
(lp1368
(L428013989L
L0L
(lp1369
(lp1370
tp1371
a(L106L
L0L
(lp1372
(lp1373
tp1374
a(L1541997046L
L0L
(lp1375
(lp1376
tp1377
a(L106L
L0L
(lp1378
(lp1379
tp1380
a(L1546614651L
L0L
(lp1381
(lp1382
tp1383
a(L3073889726L
L0L
(lp1384
(lp1385
tp1386
a(L1332827042L
L3785322319L
(lp1387
(lp1388
Vrtc_clk_wait_for_slow_cycle
p1389
atp1390
a(L3016378599L
L1880226080L
(lp1391
(lp1392
Vesp_log_early_timestamp
p1393
aVabort
p1394
atp1395
a(L1183020347L
L0L
(lp1396
(lp1397
tp1398
a(L1305407562L
L0L
(lp1399
(lp1400
tp1401
a(L1306330990L
L0L
(lp1402
(lp1403
tp1404
atp1405
sI1074235244
(Vbootloader_execute_flash_command
p1406
(lp1407
(L2481595632L
L3785322319L
(lp1408
(lp1409
Vbootloader_flash_execute_command_common
p1410
atp1411
atp1412
sI1074244968
(Vesp_rom_spiflash_read
p1413
(lp1414
(L3490446541L
L0L
(lp1415
(lp1416
tp1417
a(L3641779149L
L0L
(lp1418
(lp1419
tp1420
a(L2860271684L
L0L
(lp1421
(lp1422
tp1423
a(L3017366L
L0L
(lp1424
(lp1425
tp1426
a(L106L
L0L
(lp1427
(lp1428
tp1429
a(L3562162258L
L0L
(lp1430
(lp1431
tp1432
a(L106L
L0L
(lp1433
(lp1434
tp1435
a(L2197251473L
L0L
(lp1436
(lp1437
tp1438
a(L2102269855L
L0L
(lp1439
(lp1440
tp1441
a(L4001477698L
L0L
(lp1442
(lp1443
tp1444
a(L214251015L
L0L
(lp1445
(lp1446
tp1447
a(L106L
L0L
(lp1448
(lp1449
tp1450
a(L1451011552L
L3785322319L
(lp1451
(lp1452
Vesp_rom_spiflash_wait_idle
p1453
atp1454
a(L3021737L
L0L
(lp1455
(lp1456
tp1457
a(L106L
L0L
(lp1458
(lp1459
tp1460
a(L1868280504L
L0L
(lp1461
(lp1462
tp1463
a(L106L
L0L
(lp1464
(lp1465
tp1466
a(L3736481571L
L0L
(lp1467
(lp1468
tp1469
a(L1221163038L
L0L
(lp1470
(lp1471
tp1472
a(L4122060822L
L0L
(lp1473
(lp1474
tp1475
a(L3808144324L
L0L
(lp1476
(lp1477
tp1478
a(L2989032L
L0L
(lp1479
(lp1480
tp1481
a(L3819849625L
L0L
(lp1482
(lp1483
tp1484
a(L3215552912L
L0L
(lp1485
(lp1486
tp1487
a(L177462019L
L0L
(lp1488
(lp1489
tp1490
a(L3901820696L
L0L
(lp1491
(lp1492
tp1493
a(L3359562463L
L0L
(lp1494
(lp1495
tp1496
a(L1896415737L
L0L
(lp1497
(lp1498
tp1499
a(L1522202953L
L0L
(lp1500
(lp1501
tp1502
a(L3236016095L
L0L
(lp1503
(lp1504
tp1505
a(L2793360310L
L0L
(lp1506
(lp1507
tp1508
a(L2267384310L
L0L
(lp1509
(lp1510
tp1511
a(L2696140277L
L0L
(lp1512
(lp1513
tp1514
a(L2687789892L
L0L
(lp1515
(lp1516
tp1517
a(L1405253496L
L0L
(lp1518
(lp1519
tp1520
a(L2753629619L
L0L
(lp1521
(lp1522
tp1523
a(L97689L
L0L
(lp1524
(lp1525
tp1526
a(L2258897019L
L0L
(lp1527
(lp1528
tp1529
a(L4014024819L
L0L
(lp1530
(lp1531
tp1532
a(L3621567083L
L0L
(lp1533
(lp1534
tp1535
atp1536
sI1074245736
(Vrtc_wdt_enable
p1537
(lp1538
(L3912854725L
L0L
(lp1539
(lp1540
tp1541
atp1542
sI1074270072
(Vrtc_clk_init
p1543
(lp1544
(L2595583374L
L0L
(lp1545
(lp1546
tp1547
a(L42671777L
L3785322319L
(lp1548
(lp1549
Vrtc_clk_cpu_freq_to_xtal
p1550
atp1551
a(L1906810863L
L0L
(lp1552
(lp1553
tp1554
a(L4150963688L
L0L
(lp1555
(lp1556
tp1557
a(L2873281153L
L0L
(lp1558
(lp1559
tp1560
a(L912414356L
L3785322319L
(lp1561
(lp1562
Vrtc_clk_xtal_freq_get
p1563
atp1564
a(L635236533L
L0L
(lp1565
(lp1566
tp1567
a(L3579106612L
L0L
(lp1568
(lp1569
tp1570
a(L136152238L
L2485746240L
(lp1571
(lp1572
Vrtc_clk_xtal_freq_update
p1573
aVrtc_clk_apb_freq_update
p1574
aVrtc_clk_cpu_freq_get_config
p1575
aVrtc_clk_cpu_freq_mhz_to_config
p1576
atp1577
a(L3284187012L
L1880226080L
(lp1578
(lp1579
Vesp_log_early_timestamp
p1580
aVabort
p1581
atp1582
a(L4187693717L
L3785322319L
(lp1583
(lp1584
Vrtc_clk_xtal_freq_estimate
p1585
atp1586
a(L1018583696L
L3785322319L
(lp1587
(lp1588
Vesp_log_early_timestamp
p1589
atp1590
a(L4143060793L
L0L
(lp1591
(lp1592
tp1593
a(L1563923531L
L0L
(lp1594
(lp1595
tp1596
a(L106L
L0L
(lp1597
(lp1598
tp1599
a(L4070631878L
L3785322319L
(lp1600
(lp1601
Vrtc_clk_xtal_freq_estimate
p1602
atp1603
a(L106L
L0L
(lp1604
(lp1605
tp1606
a(L154430727L
L3785322319L
(lp1607
(lp1608
Vesp_log_early_timestamp
p1609
atp1610
a(L4254175567L
L3785322319L
(lp1611
(lp1612
Vrtc_clk_cpu_freq_set_config
p1613
atp1614
a(L4168829660L
L3785322319L
(lp1615
(lp1616
Vrtc_clk_32k_enable
p1617
atp1618
a(L3016870L
L0L
(lp1619
(lp1620
tp1621
a(L587371833L
L3785322319L
(lp1622
(lp1623
Vrtc_clk_8m_enable
p1624
atp1625
a(L530469956L
L1880226080L
(lp1626
(lp1627
Vrtc_clk_fast_freq_set
p1628
aVrtc_clk_slow_freq_set
p1629
atp1630
atp1631
sI1074240628
(Vbootloader_sha256_data
p1632
(lp1633
(L4066096136L
L0L
(lp1634
(lp1635
tp1636
a(L2260742000L
L0L
(lp1637
(lp1638
tp1639
a(L2647092898L
L3785322319L
(lp1640
(lp1641
V__assert_func
p1642
atp1643
a(L498498478L
L0L
(lp1644
(lp1645
tp1646
a(L3709377583L
L0L
(lp1647
(lp1648
tp1649
a(L2910371777L
L0L
(lp1650
(lp1651
tp1652
a(L3360570486L
L0L
(lp1653
(lp1654
tp1655
a(L4009936222L
L0L
(lp1656
(lp1657
tp1658
a(L541898147L
L0L
(lp1659
(lp1660
tp1661
a(L3749711816L
L0L
(lp1662
(lp1663
tp1664
a(L3036055637L
L0L
(lp1665
(lp1666
tp1667
a(L97689L
L0L
(lp1668
(lp1669
tp1670
a(L2032890799L
L0L
(lp1671
(lp1672
tp1673
a(L3028464L
L0L
(lp1674
(lp1675
tp1676
a(L4189820752L
L0L
(lp1677
(lp1678
tp1679
a(L3981992983L
L0L
(lp1680
(lp1681
tp1682
a(L1064259968L
L0L
(lp1683
(lp1684
tp1685
atp1686
sI1074246768
(Vrtc_clk_slow_freq_set
p1687
(lp1688
(L3570830663L
L0L
(lp1689
(lp1690
tp1691
atp1692
sI1074241392
(Vshould_load
p1693
(lp1694
(L2221508439L
L0L
(lp1695
(lp1696
tp1697
a(L1182990556L
L0L
(lp1698
(lp1699
tp1700
a(L2314371828L
L0L
(lp1701
(lp1702
tp1703
a(L1298905564L
L0L
(lp1704
(lp1705
tp1706
a(L524505062L
L0L
(lp1707
(lp1708
tp1709
a(L2258897019L
L0L
(lp1710
(lp1711
tp1712
a(L3781799363L
L0L
(lp1713
(lp1714
tp1715
a(L3028464L
L0L
(lp1716
(lp1717
tp1718
a(L3972500701L
L0L
(lp1719
(lp1720
tp1721
a(L542581680L
L0L
(lp1722
(lp1723
tp1724
a(L307469760L
L0L
(lp1725
(lp1726
tp1727
a(L4185756579L
L0L
(lp1728
(lp1729
tp1730
a(L3458855836L
L0L
(lp1731
(lp1732
tp1733
a(L3126521138L
L0L
(lp1734
(lp1735
tp1736
a(L1305407438L
L0L
(lp1737
(lp1738
tp1739
a(L1305407469L
L0L
(lp1740
(lp1741
tp1742
atp1743
sI1074267760
(Vcall_start_cpu0
p1744
(lp1745
(L1974457732L
L3785322319L
(lp1746
(lp1747
Vbootloader_init
p1748
atp1749
a(L94425498L
L3785322319L
(lp1750
(lp1751
Vbootloader_reset
p1752
atp1753
a(L2802776775L
L3785322319L
(lp1754
(lp1755
Vbootloader_utility_load_partition_table
p1756
atp1757
a(L4026389016L
L3785322319L
(lp1758
(lp1759
Vesp_log_early_timestamp
p1760
atp1761
a(L2395089516L
L3785322319L
(lp1762
(lp1763
Vbootloader_utility_get_selected_boot_partition
p1764
atp1765
a(L2086982338L
L1880226080L
(lp1766
(lp1767
Vbootloader_common_get_reset_reason
p1768
aVbootloader_utility_load_boot_image
p1769
atp1770
atp1771
sI1074269296
(Vread_status_8b_xmc25qu64a
p1772
(lp1773
(L3322022685L
L2485746240L
(lp1774
(lp1775
Vbootloader_execute_flash_command
p1776
aVesp_rom_spiflash_wait_idle
p1777
aVbootloader_execute_flash_command
p1778
aVbootloader_execute_flash_command
p1779
atp1780
atp1781
sI1074248060
(Vrtc_clk_apb_freq_get
p1782
(lp1783
(L2072782309L
L0L
(lp1784
(lp1785
tp1786
atp1787
sI1074234744
(Vbootloader_flash_execute_command_common
p1788
(lp1789
(L630859308L
L0L
(lp1790
(lp1791
tp1792
a(L120556193L
L0L
(lp1793
(lp1794
tp1795
a(L2925418774L
L3785322319L
(lp1796
(lp1797
V__assert_func
p1798
atp1799
a(L3021749L
L0L
(lp1800
(lp1801
tp1802
a(L153201683L
L0L
(lp1803
(lp1804
tp1805
a(L3132325827L
L0L
(lp1806
(lp1807
tp1808
a(L1782874522L
L0L
(lp1809
(lp1810
tp1811
a(L4024113366L
L0L
(lp1812
(lp1813
tp1814
a(L2147958864L
L0L
(lp1815
(lp1816
tp1817
a(L831940355L
L0L
(lp1818
(lp1819
tp1820
a(L2039827138L
L0L
(lp1821
(lp1822
tp1823
a(L2429937038L
L0L
(lp1824
(lp1825
tp1826
a(L2186295391L
L0L
(lp1827
(lp1828
tp1829
a(L3079186448L
L0L
(lp1830
(lp1831
tp1832
a(L3333696662L
L0L
(lp1833
(lp1834
tp1835
a(L963425213L
L0L
(lp1836
(lp1837
tp1838
a(L3172016656L
L0L
(lp1839
(lp1840
tp1841
a(L3360570486L
L0L
(lp1842
(lp1843
tp1844
a(L1184240068L
L0L
(lp1845
(lp1846
tp1847
atp1848
sI1074269832
(Vbootloader_flash_update_id
p1849
(lp1850
(L2244026667L
L3785322319L
(lp1851
(lp1852
Vbootloader_read_flash_id
p1853
atp1854
atp1855
sI1074246532
(Vrtc_clk_32k_enable
p1856
(lp1857
(L753387299L
L0L
(lp1858
(lp1859
tp1860
a(L1067050752L
L3785322319L
(lp1861
(lp1862
Vrtc_clk_32k_enable_common
p1863
atp1864
a(L3360570486L
L0L
(lp1865
(lp1866
tp1867
a(L1850531356L
L0L
(lp1868
(lp1869
tp1870
atp1871
sI1074239372
(Vset_actual_ota_seq
p1872
(lp1873
(L3626749263L
L3785322319L
(lp1874
(lp1875
Vbootloader_common_ota_select_crc
p1876
atp1877
a(L3028481L
L0L
(lp1878
(lp1879
tp1880
a(L1342993088L
L3785322319L
(lp1881
(lp1882
Vbootloader_flash_erase_sector
p1883
atp1884
a(L2908486002L
L3785322319L
(lp1885
(lp1886
Vbootloader_flash_write
p1887
atp1888
a(L1960586221L
L3785322319L
(lp1889
(lp1890
Vesp_log_early_timestamp
p1891
atp1892
a(L2013838587L
L3785322319L
(lp1893
(lp1894
Vesp_log_early_timestamp
p1895
atp1896
a(L3016870L
L0L
(lp1897
(lp1898
tp1899
a(L3971861743L
L0L
(lp1900
(lp1901
tp1902
a(L957607403L
L0L
(lp1903
(lp1904
tp1905
atp1906
sI1074236812
(Vbootloader_common_ota_select_crc
p1907
(lp1908
(L1387808763L
L0L
(lp1909
(lp1910
tp1911
atp1912
sI1074236556
(Vesp_cpu_in_ocd_debug_mode
p1913
(lp1914
(L2131426160L
L0L
(lp1915
(lp1916
tp1917
atp1918
sI1074235276
(Vbootloader_flash_unlock
p1919
(lp1920
(L142706334L
L3785322319L
(lp1921
(lp1922
Vesp_rom_spiflash_wait_idle
p1923
atp1924
a(L4024621237L
L0L
(lp1925
(lp1926
tp1927
a(L4292483033L
L3785322319L
(lp1928
(lp1929
Vbootloader_execute_flash_command
p1930
atp1931
a(L106L
L0L
(lp1932
(lp1933
tp1934
a(L1303560644L
L0L
(lp1935
(lp1936
tp1937
a(L1419965066L
L0L
(lp1938
(lp1939
tp1940
a(L106L
L0L
(lp1941
(lp1942
tp1943
a(L1633120054L
L0L
(lp1944
(lp1945
tp1946
a(L106L
L0L
(lp1947
(lp1948
tp1949
a(L2974484771L
L0L
(lp1950
(lp1951
tp1952
a(L106L
L0L
(lp1953
(lp1954
tp1955
a(L1481761147L
L1880226080L
(lp1956
(lp1957
Vbootloader_execute_flash_command
p1958
aVbootloader_execute_flash_command
p1959
atp1960
a(L2258807654L
L0L
(lp1961
(lp1962
tp1963
a(L489806350L
L1832448559L
(lp1964
(lp1965
Vesp_rom_spiflash_wait_idle
p1966
aVbootloader_execute_flash_command
p1967
aVbootloader_execute_flash_command
p1968
atp1969
a(L879744646L
L1832448559L
(lp1970
(lp1971
Vesp_rom_spiflash_wait_idle
p1972
aVbootloader_execute_flash_command
p1973
aVbootloader_execute_flash_command
p1974
atp1975
a(L1840772931L
L1880226080L
(lp1976
(lp1977
Vesp_rom_spiflash_wait_idle
p1978
aVbootloader_execute_flash_command
p1979
atp1980
a(L2993202392L
L0L
(lp1981
(lp1982
tp1983
a(L508800419L
L1880226080L
(lp1984
(lp1985
Vbootloader_execute_flash_command
p1986
aVbootloader_execute_flash_command
p1987
atp1988
a(L1303560369L
L0L
(lp1989
(lp1990
tp1991
a(L1596544945L
L0L
(lp1992
(lp1993
tp1994
a(L97689L
L0L
(lp1995
(lp1996
tp1997
a(L106L
L0L
(lp1998
(lp1999
tp2000
atp2001
sI1074268036
(Vbootloader_enable_random
p2002
(lp2003
(L2316579616L
L1880226080L
(lp2004
(lp2005
Vesp_log_early_timestamp
p2006
aVbootloader_random_enable
p2007
atp2008
atp2009
sI1074269848
(Vbootloader_flash_get_wp_pin
p2010
(lp2011
(L706447661L
L0L
(lp2012
(lp2013
tp2014
a(L93674324L
L0L
(lp2015
(lp2016
tp2017
a(L2163822587L
L0L
(lp2018
(lp2019
tp2020
a(L2729832501L
L0L
(lp2021
(lp2022
tp2023
a(L3360570486L
L0L
(lp2024
(lp2025
tp2026
a(L2942063529L
L0L
(lp2027
(lp2028
tp2029
a(L1983784655L
L3785322319L
(lp2030
(lp2031
Vbootloader_common_get_chip_revision
p2032
atp2033
a(L1641149339L
L0L
(lp2034
(lp2035
tp2036
atp2037
sI1074245780
(Vrtc_wdt_set_time
p2038
(lp2039
(L947342461L
L0L
(lp2040
(lp2041
tp2042
a(L1835483829L
L3785322319L
(lp2043
(lp2044
Vrtc_clk_slow_freq_get_hz
p2045
atp2046
a(L706849740L
L0L
(lp2047
(lp2048
tp2049
a(L1182990556L
L0L
(lp2050
(lp2051
tp2052
a(L3126521138L
L0L
(lp2053
(lp2054
tp2055
a(L3028464L
L0L
(lp2056
(lp2057
tp2058
a(L702741440L
L0L
(lp2059
(lp2060
tp2061
a(L3366404026L
L0L
(lp2062
(lp2063
tp2064
a(L3028464L
L0L
(lp2065
(lp2066
tp2067
a(L310149599L
L0L
(lp2068
(lp2069
tp2070
a(L310148979L
L0L
(lp2071
(lp2072
tp2073
atp2074
sI1074236572
(Vis_xmc_chip_strict
p2075
(lp2076
(L1286841609L
L0L
(lp2077
(lp2078
tp2079
a(L2234016759L
L0L
(lp2080
(lp2081
tp2082
a(L1069027148L
L0L
(lp2083
(lp2084
tp2085
a(L3021749L
L0L
(lp2086
(lp2087
tp2088
a(L1900148749L
L0L
(lp2089
(lp2090
tp2091
a(L1936875721L
L0L
(lp2092
(lp2093
tp2094
a(L3356166509L
L0L
(lp2095
(lp2096
tp2097
a(L1937769451L
L0L
(lp2098
(lp2099
tp2100
a(L2137658907L
L0L
(lp2101
(lp2102
tp2103
a(L4265949734L
L0L
(lp2104
(lp2105
tp2106
a(L3360570486L
L0L
(lp2107
(lp2108
tp2109
atp2110
sI1074238876
(Vbootloader_clock_get_rated_freq_mhz
p2111
(lp2112
(L3273098646L
L0L
(lp2113
(lp2114
tp2115
a(L2965302338L
L0L
(lp2116
(lp2117
tp2118
a(L3360570486L
L0L
(lp2119
(lp2120
tp2121
atp2122
sI1074243228
(Vbootloader_load_image
p2123
(lp2124
(L1155870502L
L3785322319L
(lp2125
(lp2126
Vimage_load
p2127
atp2128
atp2129
sI1074243736
(Vesp_rom_spiflash_program_page_internal
p2130
(lp2131
(L2569069283L
L0L
(lp2132
(lp2133
tp2134
a(L2258688483L
L0L
(lp2135
(lp2136
tp2137
a(L3360570486L
L0L
(lp2138
(lp2139
tp2140
a(L3520626095L
L0L
(lp2141
(lp2142
tp2143
a(L4235661475L
L3785322319L
(lp2144
(lp2145
Vesp_rom_spiflash_wait_idle
p2146
atp2147
a(L1299866312L
L0L
(lp2148
(lp2149
tp2150
a(L3212356251L
L3785322319L
(lp2151
(lp2152
Vesp_rom_spiflash_enable_write
p2153
atp2154
a(L396394813L
L0L
(lp2155
(lp2156
tp2157
a(L1613956777L
L0L
(lp2158
(lp2159
tp2160
a(L2953702749L
L0L
(lp2161
(lp2162
tp2163
a(L2989032L
L0L
(lp2164
(lp2165
tp2166
a(L1965622133L
L0L
(lp2167
(lp2168
tp2169
a(L1075729113L
L0L
(lp2170
(lp2171
tp2172
a(L1958113242L
L0L
(lp2173
(lp2174
tp2175
a(L106L
L0L
(lp2176
(lp2177
tp2178
a(L4283177684L
L0L
(lp2179
(lp2180
tp2181
a(L1405253496L
L0L
(lp2182
(lp2183
tp2184
a(L1008982381L
L0L
(lp2185
(lp2186
tp2187
a(L1933954923L
L0L
(lp2188
(lp2189
tp2190
a(L3886319556L
L0L
(lp2191
(lp2192
tp2193
a(L2767679583L
L0L
(lp2194
(lp2195
tp2196
atp2197
sI1074237088
(Vbootloader_common_get_reset_reason
p2198
(lp2199
(L1459523945L
L0L
(lp2200
(lp2201
tp2202
atp2203
sI1074236832
(Vbootloader_common_ota_select_valid
p2204
(lp2205
(L1563399710L
L3785322319L
(lp2206
(lp2207
Vbootloader_common_ota_select_invalid
p2208
atp2209
a(L3814720849L
L3785322319L
(lp2210
(lp2211
Vbootloader_common_ota_select_crc
p2212
atp2213
a(L3360570486L
L0L
(lp2214
(lp2215
tp2216
atp2217
sI1074268064
(Vbootloader_print_banner
p2218
(lp2219
(L532679797L
L1880226080L
(lp2220
(lp2221
Vesp_log_early_timestamp
p2222
aVesp_log_early_timestamp
p2223
atp2224
atp2225
sI1074269344
(Vwrite_status_16b_wrsr
p2226
(lp2227
(L1235576642L
L3785322319L
(lp2228
(lp2229
Vbootloader_execute_flash_command
p2230
atp2231
atp2232
sI1074243244
(Vesp_partition_table_verify
p2233
(lp2234
(L1518656766L
L0L
(lp2235
(lp2236
tp2237
a(L2026622289L
L0L
(lp2238
(lp2239
tp2240
a(L4287435191L
L0L
(lp2241
(lp2242
tp2243
a(L2910371777L
L0L
(lp2244
(lp2245
tp2246
a(L2810785767L
L0L
(lp2247
(lp2248
tp2249
a(L3360570486L
L0L
(lp2250
(lp2251
tp2252
a(L2334946637L
L0L
(lp2253
(lp2254
tp2255
a(L2478753082L
L0L
(lp2256
(lp2257
tp2258
a(L1580262034L
L0L
(lp2259
(lp2260
tp2261
a(L2512020620L
L3785322319L
(lp2262
(lp2263
Vesp_log_early_timestamp
p2264
atp2265
a(L1520183422L
L3785322319L
(lp2266
(lp2267
Vesp_log_early_timestamp
p2268
atp2269
a(L1445231513L
L0L
(lp2270
(lp2271
tp2272
a(L3020204L
L0L
(lp2273
(lp2274
tp2275
a(L3020204L
L0L
(lp2276
(lp2277
tp2278
a(L311187947L
L3785322319L
(lp2279
(lp2280
Vesp_log_early_timestamp
p2281
atp2282
a(L44113432L
L0L
(lp2283
(lp2284
tp2285
a(L1235012932L
L0L
(lp2286
(lp2287
tp2288
a(L1270613730L
L0L
(lp2289
(lp2290
tp2291
a(L3020204L
L0L
(lp2292
(lp2293
tp2294
a(L1056893204L
L3785322319L
(lp2295
(lp2296
Vesp_log_early_timestamp
p2297
atp2298
a(L1613213999L
L0L
(lp2299
(lp2300
tp2301
a(L1167861556L
L0L
(lp2302
(lp2303
tp2304
a(L3260980605L
L0L
(lp2305
(lp2306
tp2307
a(L1580262034L
L0L
(lp2308
(lp2309
tp2310
a(L3136064939L
L3785322319L
(lp2311
(lp2312
Vesp_log_early_timestamp
p2313
atp2314
atp2315
sI1074235820
(Vbootloader_flash_cs_timing_config
p2316
(lp2317
(L3796536297L
L0L
(lp2318
(lp2319
tp2320
atp2321
sI1074247336
(Vrtc_clk_xtal_freq_get
p2322
(lp2323
(L686753146L
L0L
(lp2324
(lp2325
tp2326
a(L2847936993L
L0L
(lp2327
(lp2328
tp2329
a(L3933810325L
L0L
(lp2330
(lp2331
tp2332
a(L3360570486L
L0L
(lp2333
(lp2334
tp2335
atp2336
sI1074247592
(Vrtc_clk_xtal_freq_update
p2337
(lp2338
(L518405526L
L0L
(lp2339
(lp2340
tp2341
a(L3509357017L
L0L
(lp2342
(lp2343
tp2344
a(L3020103887L
L0L
(lp2345
(lp2346
tp2347
atp2348
sI1074248104
(V_fini
p2349
(lp2350
(L3493042598L
L0L
(lp2351
(lp2352
tp2353
atp2354
sI1074246836
(Vrtc_clk_slow_freq_get
p2355
(lp2356
(L3874892183L
L0L
(lp2357
(lp2358
tp2359
atp2360
sI1074237104
(Vbootloader_common_ota_select_invalid
p2361
(lp2362
(L4027567199L
L0L
(lp2363
(lp2364
tp2365
a(L3397985842L
L0L
(lp2366
(lp2367
tp2368
a(L2258867228L
L0L
(lp2369
(lp2370
tp2371
a(L3785235668L
L0L
(lp2372
(lp2373
tp2374
atp2375
sI1074235568
(Vbootloader_flash_read_sfdp
p2376
(lp2377
(L711701400L
L0L
(lp2378
(lp2379
tp2380
a(L3626758209L
L3785322319L
(lp2381
(lp2382
V__assert_func
p2383
atp2384
a(L3704332455L
L3785322319L
(lp2385
(lp2386
Vbootloader_flash_execute_command_common
p2387
atp2388
atp2389
sI1074269364
(Vread_status_16b_rdsr_rdsr2
p2390
(lp2391
(L2652824119L
L1880226080L
(lp2392
(lp2393
Vbootloader_execute_flash_command
p2394
aVbootloader_execute_flash_command
p2395
atp2396
atp2397
sI1074239928
(Vbootloader_utility_get_selected_boot_partition
p2398
(lp2399
(L2184143128L
L0L
(lp2400
(lp2401
tp2402
a(L609859065L
L0L
(lp2403
(lp2404
tp2405
a(L194424830L
L3785322319L
(lp2406
(lp2407
Vesp_log_early_timestamp
p2408
atp2409
a(L4026981588L
L0L
(lp2410
(lp2411
tp2412
a(L3360570486L
L0L
(lp2413
(lp2414
tp2415
a(L1375577398L
L3785322319L
(lp2416
(lp2417
Vbootloader_mmap
p2418
atp2419
a(L794303674L
L3785322319L
(lp2420
(lp2421
Vesp_log_early_timestamp
p2422
atp2423
a(L3974563017L
L1880226080L
(lp2424
(lp2425
Vbootloader_munmap
p2426
aVbootloader_common_ota_select_invalid
p2427
atp2428
a(L1103573946L
L0L
(lp2429
(lp2430
tp2431
a(L1876835593L
L3785322319L
(lp2432
(lp2433
Vbootloader_common_get_active_otadata
p2434
atp2435
a(L106L
L0L
(lp2436
(lp2437
tp2438
a(L569346373L
L0L
(lp2439
(lp2440
tp2441
a(L788494392L
L3785322319L
(lp2442
(lp2443
Vbootloader_common_ota_select_invalid
p2444
atp2445
a(L2110763398L
L0L
(lp2446
(lp2447
tp2448
a(L2786419250L
L3785322319L
(lp2449
(lp2450
Vesp_log_early_timestamp
p2451
atp2452
a(L3229639522L
L3785322319L
(lp2453
(lp2454
Vesp_log_early_timestamp
p2455
atp2456
a(L505081345L
L0L
(lp2457
(lp2458
tp2459
a(L919052234L
L3785322319L
(lp2460
(lp2461
Vbootloader_common_ota_select_crc
p2462
atp2463
a(L2287680455L
L0L
(lp2464
(lp2465
tp2466
a(L3542558037L
L3785322319L
(lp2467
(lp2468
Vbootloader_common_ota_select_crc
p2469
atp2470
a(L1299866312L
L0L
(lp2471
(lp2472
tp2473
a(L1219063302L
L0L
(lp2474
(lp2475
tp2476
a(L3178486466L
L3785322319L
(lp2477
(lp2478
Vesp_log_early_timestamp
p2479
atp2480
a(L1367516498L
L0L
(lp2481
(lp2482
tp2483
a(L4142659812L
L3785322319L
(lp2484
(lp2485
Vesp_log_early_timestamp
p2486
atp2487
atp2488
sI1074236868
(Vbootloader_common_get_active_otadata
p2489
(lp2490
(L3317503532L
L0L
(lp2491
(lp2492
tp2493
a(L2503049265L
L1832448559L
(lp2494
(lp2495
Vbootloader_common_ota_select_valid
p2496
aVbootloader_common_ota_select_valid
p2497
aVbootloader_common_select_otadata
p2498
atp2499
a(L735741265L
L0L
(lp2500
(lp2501
tp2502
atp2503
sI1074246852
(Vrtc_clk_slow_freq_get_hz
p2504
(lp2505
(L3407663858L
L0L
(lp2506
(lp2507
tp2508
a(L3403580808L
L0L
(lp2509
(lp2510
tp2511
a(L2306276687L
L0L
(lp2512
(lp2513
tp2514
a(L3360570486L
L0L
(lp2515
(lp2516
tp2517
atp2518
sI1074268364
(Vabort
p2519
(lp2520
(L432294847L
L3785322319L
(lp2521
(lp2522
Vesp_cpu_in_ocd_debug_mode
p2523
atp2524
a(L409441471L
L0L
(lp2525
(lp2526
tp2527
a(L106L
L0L
(lp2528
(lp2529
tp2530
atp2531
sI1074246592
(Vrtc_clk_8m_enable
p2532
(lp2533
(L441631957L
L0L
(lp2534
(lp2535
tp2536
a(L449478817L
L0L
(lp2537
(lp2538
tp2539
a(L2151320156L
L0L
(lp2540
(lp2541
tp2542
a(L1391734358L
L0L
(lp2543
(lp2544
tp2545
a(L3360570486L
L0L
(lp2546
(lp2547
tp2548
a(L1318267208L
L0L
(lp2549
(lp2550
tp2551
a(L3756830125L
L0L
(lp2552
(lp2553
tp2554
atp2555
sI1074238912
(Vload_image
p2556
(lp2557
(L3687512600L
L1880226080L
(lp2558
(lp2559
Vesp_log_early_timestamp
p2560
aVbootloader_random_disable
p2561
atp2562
a(L2118498116L
L0L
(lp2563
(lp2564
tp2565
a(L106L
L0L
(lp2566
(lp2567
tp2568
a(L2252582243L
L0L
(lp2569
(lp2570
tp2571
a(L751966648L
L0L
(lp2572
(lp2573
tp2574
a(L3268103L
L0L
(lp2575
(lp2576
tp2577
a(L787407837L
L0L
(lp2578
(lp2579
tp2580
a(L1469980115L
L0L
(lp2581
(lp2582
tp2583
a(L2902417580L
L0L
(lp2584
(lp2585
tp2586
a(L326793249L
L3785322319L
(lp2587
(lp2588
Vesp_log_early_timestamp
p2589
atp2590
a(L117980938L
L0L
(lp2591
(lp2592
tp2593
a(L2838050207L
L0L
(lp2594
(lp2595
tp2596
a(L3020204L
L0L
(lp2597
(lp2598
tp2599
a(L1112661489L
L3785322319L
(lp2600
(lp2601
Vesp_log_early_timestamp
p2602
atp2603
a(L233635238L
L0L
(lp2604
(lp2605
tp2606
a(L2488949783L
L0L
(lp2607
(lp2608
tp2609
atp2610
sI1074237900
(Vbootloader_enable_wp
p2611
(lp2612
(L1117825804L
L3785322319L
(lp2613
(lp2614
Vbootloader_execute_flash_command
p2615
atp2616
atp2617
sI1074237132
(Vbootloader_common_select_otadata
p2618
(lp2619
(L2342662536L
L0L
(lp2620
(lp2621
tp2622
a(L3806783650L
L0L
(lp2623
(lp2624
tp2625
a(L1674928252L
L0L
(lp2626
(lp2627
tp2628
a(L251571983L
L0L
(lp2629
(lp2630
tp2631
a(L3360570486L
L0L
(lp2632
(lp2633
tp2634
a(L2045232488L
L0L
(lp2635
(lp2636
tp2637
a(L3379299350L
L0L
(lp2638
(lp2639
tp2640
a(L3094149227L
L0L
(lp2641
(lp2642
tp2643
a(L2403798097L
L0L
(lp2644
(lp2645
tp2646
a(L1641201884L
L0L
(lp2647
(lp2648
tp2649
atp2650
sI1074267844
(Vbootloader_clear_bss_section
p2651
(lp2652
(L3277611363L
L0L
(lp2653
(lp2654
tp2655
atp2656
sI1074237384
(Vbootloader_munmap
p2657
(lp2658
(L2633682890L
L0L
(lp2659
(lp2660
tp2661
a(L1093670096L
L0L
(lp2662
(lp2663
tp2664
a(L3360570486L
L0L
(lp2665
(lp2666
tp2667
atp2668
sI1074240980
(Vbootloader_util_regions_overlap
p2669
(lp2670
(L2762640130L
L0L
(lp2671
(lp2672
tp2673
a(L3157066675L
L0L
(lp2674
(lp2675
tp2676
a(L2534954878L
L3785322319L
(lp2677
(lp2678
V__assert_func
p2679
atp2680
a(L97642L
L0L
(lp2681
(lp2682
tp2683
a(L646590395L
L0L
(lp2684
(lp2685
tp2686
a(L366123053L
L0L
(lp2687
(lp2688
tp2689
a(L2258867228L
L0L
(lp2690
(lp2691
tp2692
a(L1253626734L
L0L
(lp2693
(lp2694
tp2695
a(L2258897019L
L0L
(lp2696
(lp2697
tp2698
a(L3109269495L
L0L
(lp2699
(lp2700
tp2701
atp2702
sI1074247636
(Vrtc_clk_apb_freq_update
p2703
(lp2704
(L32522058L
L0L
(lp2705
(lp2706
tp2707
atp2708
sI1074267868
(Vbootloader_read_bootloader_header
p2709
(lp2710
(L1839002680L
L3785322319L
(lp2711
(lp2712
Vbootloader_flash_read
p2713
atp2714
a(L2908672513L
L3785322319L
(lp2715
(lp2716
Vesp_log_early_timestamp
p2717
atp2718
a(L735741265L
L0L
(lp2719
(lp2720
tp2721
atp2722
sI1074269404
(Vwrite_status_8b_wrsr
p2723
(lp2724
(L3692606543L
L3785322319L
(lp2725
(lp2726
Vbootloader_execute_flash_command
p2727
atp2728
atp2729
sI1074271196
(Vrtc_clk_cal_ratio
p2730
(lp2731
(L2641540820L
L3785322319L
(lp2732
(lp2733
Vrtc_clk_cal_internal
p2734
atp2735
atp2736
sI1074243536
(Vesp_rom_spiflash_read_status
p2737
(lp2738
(L3562601385L
L0L
(lp2739
(lp2740
tp2741
a(L1182811815L
L0L
(lp2742
(lp2743
tp2744
a(L1269038048L
L0L
(lp2745
(lp2746
tp2747
a(L106L
L0L
(lp2748
(lp2749
tp2750
a(L828085295L
L0L
(lp2751
(lp2752
tp2753
a(L4004659960L
L0L
(lp2754
(lp2755
tp2756
a(L2123059967L
L0L
(lp2757
(lp2758
tp2759
a(L1973734210L
L0L
(lp2760
(lp2761
tp2762
a(L2392720019L
L0L
(lp2763
(lp2764
tp2765
atp2766
sI1074247376
(Vrtc_clk_cpu_freq_mhz_to_config
p2767
(lp2768
(L2601984125L
L3785322319L
(lp2769
(lp2770
Vrtc_clk_xtal_freq_get
p2771
atp2772
a(L2089656409L
L0L
(lp2773
(lp2774
tp2775
a(L3814337874L
L0L
(lp2776
(lp2777
tp2778
a(L3126521138L
L0L
(lp2779
(lp2780
tp2781
a(L2762074623L
L0L
(lp2782
(lp2783
tp2784
a(L1541996779L
L0L
(lp2785
(lp2786
tp2787
a(L2916936348L
L0L
(lp2788
(lp2789
tp2790
a(L1555485793L
L0L
(lp2791
(lp2792
tp2793
a(L2258897023L
L0L
(lp2794
(lp2795
tp2796
a(L1947499251L
L0L
(lp2797
(lp2798
tp2799
a(L1306331021L
L0L
(lp2800
(lp2801
tp2802
atp2803
sI1074268112
(V__assert_func
p2804
(lp2805
(L49381715L
L3785322319L
(lp2806
(lp2807
Vesp_log_early_timestamp
p2808
atp2809
a(L106L
L0L
(lp2810
(lp2811
tp2812
atp2813
sI1074269908
(Vrtc_clk_xtal_freq_estimate
p2814
(lp2815
(L2516060585L
L1880226080L
(lp2816
(lp2817
Vrtc_clk_8m_enabled
p2818
aVrtc_clk_8md256_enabled
p2819
atp2820
a(L967485502L
L3785322319L
(lp2821
(lp2822
Vrtc_clk_8m_enable
p2823
atp2824
a(L1638447083L
L3785322319L
(lp2825
(lp2826
Vrtc_clk_cal_ratio
p2827
atp2828
a(L2792663693L
L0L
(lp2829
(lp2830
tp2831
a(L3360570486L
L0L
(lp2832
(lp2833
tp2834
a(L1430019658L
L3785322319L
(lp2835
(lp2836
Vesp_log_early_timestamp
p2837
atp2838
atp2839
sI1074246116
(Vrtc_wdt_set_length_of_reset_signal
p2840
(lp2841
(L607216364L
L0L
(lp2842
(lp2843
tp2844
a(L93674324L
L0L
(lp2845
(lp2846
tp2847
a(L3351962533L
L0L
(lp2848
(lp2849
tp2850
a(L663973949L
L0L
(lp2851
(lp2852
tp2853
a(L3360570486L
L0L
(lp2854
(lp2855
tp2856
a(L3603351758L
L0L
(lp2857
(lp2858
tp2859
a(L1235012901L
L0L
(lp2860
(lp2861
tp2862
atp2863
sI1074245860
(Vrtc_wdt_set_stage
p2864
(lp2865
(L607216364L
L0L
(lp2866
(lp2867
tp2868
a(L93674324L
L0L
(lp2869
(lp2870
tp2871
a(L1998652836L
L0L
(lp2872
(lp2873
tp2874
a(L1128770439L
L0L
(lp2875
(lp2876
tp2877
a(L3360570486L
L0L
(lp2878
(lp2879
tp2880
a(L3028464L
L0L
(lp2881
(lp2882
tp2883
a(L1532971734L
L0L
(lp2884
(lp2885
tp2886
a(L1060688304L
L0L
(lp2887
(lp2888
tp2889
a(L1299866312L
L0L
(lp2890
(lp2891
tp2892
a(L3028464L
L0L
(lp2893
(lp2894
tp2895
a(L2247884541L
L0L
(lp2896
(lp2897
tp2898
a(L4228813928L
L0L
(lp2899
(lp2900
tp2901
a(L1235012901L
L0L
(lp2902
(lp2903
tp2904
atp2905
sI1074235620
(Vbootloader_read_flash_id
p2906
(lp2907
(L3925322170L
L3785322319L
(lp2908
(lp2909
Vbootloader_execute_flash_command
p2910
atp2911
atp2912
sI1074236644
(Vesp_log_early_timestamp
p2913
(lp2914
(L2548139288L
L0L
(lp2915
(lp2916
tp2917
atp2918
sI1074270700
(Vrtc_vddsdio_set_config
p2919
(lp2920
(L3796220984L
L0L
(lp2921
(lp2922
tp2923
atp2924
sI1074244576
(Vesp_rom_spiflash_erase_sector
p2925
(lp2926
(L1739003630L
L0L
(lp2927
(lp2928
tp2929
a(L2258688483L
L0L
(lp2930
(lp2931
tp2932
a(L3360570486L
L0L
(lp2933
(lp2934
tp2935
a(L3212356251L
L3785322319L
(lp2936
(lp2937
Vesp_rom_spiflash_enable_write
p2938
atp2939
a(L184152988L
L0L
(lp2940
(lp2941
tp2942
a(L2061669622L
L3785322319L
(lp2943
(lp2944
Vesp_rom_spiflash_wait_idle
p2945
atp2946
a(L3333707777L
L0L
(lp2947
(lp2948
tp2949
a(L3582858798L
L3785322319L
(lp2950
(lp2951
Vesp_rom_spiflash_wait_idle
p2952
atp2953
atp2954
sI1074237920
(Vbootloader_mmap_get_free_pages
p2955
(lp2956
(L1496516875L
L0L
(lp2957
(lp2958
tp2959
atp2960
sI1074236908
(Vbootloader_common_vddsdio_configure
p2961
(lp2962
(L1922017289L
L3785322319L
(lp2963
(lp2964
Vrtc_vddsdio_get_config
p2965
atp2966
a(L4026582699L
L3785322319L
(lp2967
(lp2968
Vrtc_vddsdio_set_config
p2969
atp2970
a(L3360570486L
L0L
(lp2971
(lp2972
tp2973
atp2974
sI1074246892
(Vrtc_clk_fast_freq_set
p2975
(lp2976
(L3896286220L
L0L
(lp2977
(lp2978
tp2979
atp2980
sI1074241512
(Vimage_load
p2981
(lp2982
(L4271621174L
L0L
(lp2983
(lp2984
tp2985
a(L2287016811L
L0L
(lp2986
(lp2987
tp2988
a(L690342614L
L0L
(lp2989
(lp2990
tp2991
a(L3752226611L
L0L
(lp2992
(lp2993
tp2994
a(L668711579L
L3785322319L
(lp2995
(lp2996
Vesp_log_early_timestamp
p2997
atp2998
a(L3002268657L
L0L
(lp2999
(lp3000
tp3001
a(L1953474235L
L3785322319L
(lp3002
(lp3003
Vbootloader_flash_read
p3004
atp3005
a(L4167675317L
L0L
(lp3006
(lp3007
tp3008
a(L106L
L0L
(lp3009
(lp3010
tp3011
a(L3230798602L
L0L
(lp3012
(lp3013
tp3014
a(L3378338814L
L3785322319L
(lp3015
(lp3016
Vbootloader_sha256_start
p3017
atp3018
a(L2034145148L
L3785322319L
(lp3019
(lp3020
Vbootloader_sha256_data
p3021
atp3022
a(L1538659890L
L0L
(lp3023
(lp3024
tp3025
a(L3574204786L
L0L
(lp3026
(lp3027
tp3028
a(L1670871186L
L3785322319L
(lp3029
(lp3030
Vesp_log_early_timestamp
p3031
atp3032
a(L2979434586L
L0L
(lp3033
(lp3034
tp3035
a(L1693093453L
L3785322319L
(lp3036
(lp3037
Vesp_log_early_timestamp
p3038
atp3039
a(L2752552992L
L0L
(lp3040
(lp3041
tp3042
a(L1406852146L
L3785322319L
(lp3043
(lp3044
Vesp_log_early_timestamp
p3045
atp3046
a(L2902417580L
L0L
(lp3047
(lp3048
tp3049
a(L3020204L
L0L
(lp3050
(lp3051
tp3052
a(L1781468812L
L3785322319L
(lp3053
(lp3054
Vbootloader_sha256_finish
p3055
atp3056
a(L3066339634L
L0L
(lp3057
(lp3058
tp3059
a(L268538334L
L0L
(lp3060
(lp3061
tp3062
a(L741594184L
L3785322319L
(lp3063
(lp3064
Vbootloader_common_check_chip_validity
p3065
atp3066
a(L439200605L
L0L
(lp3067
(lp3068
tp3069
a(L3030236580L
L0L
(lp3070
(lp3071
tp3072
a(L1137873963L
L0L
(lp3073
(lp3074
tp3075
a(L2675914428L
L3785322319L
(lp3076
(lp3077
Vesp_log_early_timestamp
p3078
atp3079
a(L1367516498L
L0L
(lp3080
(lp3081
tp3082
a(L2193543949L
L0L
(lp3083
(lp3084
tp3085
a(L3714752411L
L0L
(lp3086
(lp3087
tp3088
a(L4236135622L
L0L
(lp3089
(lp3090
tp3091
a(L1627370L
L0L
(lp3092
(lp3093
tp3094
a(L106L
L0L
(lp3095
(lp3096
tp3097
a(L2462225119L
L0L
(lp3098
(lp3099
tp3100
a(L3560858800L
L0L
(lp3101
(lp3102
tp3103
a(L621107209L
L0L
(lp3104
(lp3105
tp3106
a(L3360570486L
L0L
(lp3107
(lp3108
tp3109
a(L2866763242L
L3785322319L
(lp3110
(lp3111
Vbootloader_flash_read
p3112
atp3113
a(L3966416153L
L3785322319L
(lp3114
(lp3115
Vesp_log_early_timestamp
p3116
atp3117
a(L1367516498L
L0L
(lp3118
(lp3119
tp3120
a(L3020204L
L0L
(lp3121
(lp3122
tp3123
a(L69046401L
L3785322319L
(lp3124
(lp3125
Vbootloader_sha256_data
p3126
atp3127
a(L3891975731L
L0L
(lp3128
(lp3129
tp3130
a(L2525600681L
L0L
(lp3131
(lp3132
tp3133
a(L3733387182L
L0L
(lp3134
(lp3135
tp3136
a(L1243410305L
L0L
(lp3137
(lp3138
tp3139
a(L2832313563L
L0L
(lp3140
(lp3141
tp3142
a(L1183020347L
L0L
(lp3143
(lp3144
tp3145
a(L1245157742L
L0L
(lp3146
(lp3147
tp3148
a(L1609885465L
L0L
(lp3149
(lp3150
tp3151
a(L1137882240L
L0L
(lp3152
(lp3153
tp3154
a(L106L
L0L
(lp3155
(lp3156
tp3157
a(L804581933L
L3785322319L
(lp3158
(lp3159
Vesp_log_early_timestamp
p3160
atp3161
a(L1137882240L
L0L
(lp3162
(lp3163
tp3164
a(L106L
L0L
(lp3165
(lp3166
tp3167
a(L4266352846L
L3785322319L
(lp3168
(lp3169
Vesp_log_early_timestamp
p3170
atp3171
a(L4070190427L
L3785322319L
(lp3172
(lp3173
Vshould_load
p3174
atp3175
a(L2532035693L
L0L
(lp3176
(lp3177
tp3178
a(L4234224613L
L3785322319L
(lp3179
(lp3180
Vesp_log_early_timestamp
p3181
atp3182
a(L684056330L
L0L
(lp3183
(lp3184
tp3185
a(L2805934182L
L0L
(lp3186
(lp3187
tp3188
a(L1592519765L
L0L
(lp3189
(lp3190
tp3191
a(L2902417580L
L0L
(lp3192
(lp3193
tp3194
a(L1283782919L
L0L
(lp3195
(lp3196
tp3197
a(L2191133979L
L3785322319L
(lp3198
(lp3199
Vbootloader_mmap_get_free_pages
p3200
atp3201
a(L3927838290L
L0L
(lp3202
(lp3203
tp3204
a(L2475530222L
L0L
(lp3205
(lp3206
tp3207
a(L925643193L
L3785322319L
(lp3208
(lp3209
Vverify_load_addresses
p3210
atp3211
a(L106L
L0L
(lp3212
(lp3213
tp3214
a(L3673025738L
L0L
(lp3215
(lp3216
tp3217
a(L2864281488L
L0L
(lp3218
(lp3219
tp3220
a(L4185481099L
L3785322319L
(lp3221
(lp3222
Vbootloader_mmap
p3223
atp3224
a(L1566744693L
L3785322319L
(lp3225
(lp3226
Vesp_log_early_timestamp
p3227
atp3228
a(L1669831035L
L0L
(lp3229
(lp3230
tp3231
a(L344591835L
L0L
(lp3232
(lp3233
tp3234
a(L2613357364L
L0L
(lp3235
(lp3236
tp3237
a(L1534276982L
L3785322319L
(lp3238
(lp3239
Vbootloader_munmap
p3240
atp3241
a(L2746670454L
L0L
(lp3242
(lp3243
tp3244
a(L179699297L
L3785322319L
(lp3245
(lp3246
Vbootloader_fill_random
p3247
atp3248
a(L3570641403L
L0L
(lp3249
(lp3250
tp3251
a(L3574335487L
L0L
(lp3252
(lp3253
tp3254
a(L3802072125L
L0L
(lp3255
(lp3256
tp3257
a(L3021749L
L0L
(lp3258
(lp3259
tp3260
a(L898534582L
L0L
(lp3261
(lp3262
tp3263
a(L1232097199L
L0L
(lp3264
(lp3265
tp3266
a(L943513123L
L0L
(lp3267
(lp3268
tp3269
a(L3016870L
L0L
(lp3270
(lp3271
tp3272
a(L2870082183L
L0L
(lp3273
(lp3274
tp3275
a(L569514194L
L0L
(lp3276
(lp3277
tp3278
a(L3020204L
L0L
(lp3279
(lp3280
tp3281
a(L1095669012L
L0L
(lp3282
(lp3283
tp3284
a(L158915962L
L3785322319L
(lp3285
(lp3286
Vbootloader_sha256_data
p3287
atp3288
a(L90548756L
L0L
(lp3289
(lp3290
tp3291
a(L4035739521L
L0L
(lp3292
(lp3293
tp3294
a(L1780687962L
L0L
(lp3295
(lp3296
tp3297
a(L689371012L
L0L
(lp3298
(lp3299
tp3300
a(L106L
L0L
(lp3301
(lp3302
tp3303
a(L3783228048L
L3785322319L
(lp3304
(lp3305
Vesp_log_early_timestamp
p3306
atp3307
a(L3978633858L
L0L
(lp3308
(lp3309
tp3310
a(L3118387733L
L3785322319L
(lp3311
(lp3312
Vesp_cpu_in_ocd_debug_mode
p3313
atp3314
a(L2889301574L
L3785322319L
(lp3315
(lp3316
Vbootloader_flash_read
p3317
atp3318
a(L238449759L
L0L
(lp3319
(lp3320
tp3321
a(L977918008L
L3785322319L
(lp3322
(lp3323
Vesp_log_early_timestamp
p3324
atp3325
a(L3020204L
L0L
(lp3326
(lp3327
tp3328
a(L2217269743L
L3785322319L
(lp3329
(lp3330
Vbootloader_sha256_data
p3331
atp3332
a(L3831070346L
L0L
(lp3333
(lp3334
tp3335
a(L2111854616L
L0L
(lp3336
(lp3337
tp3338
a(L3525542150L
L0L
(lp3339
(lp3340
tp3341
a(L382768566L
L0L
(lp3342
(lp3343
tp3344
a(L106L
L0L
(lp3345
(lp3346
tp3347
a(L1955033723L
L0L
(lp3348
(lp3349
tp3350
a(L1137882240L
L0L
(lp3351
(lp3352
tp3353
a(L106L
L0L
(lp3354
(lp3355
tp3356
a(L4218775638L
L3785322319L
(lp3357
(lp3358
Vesp_log_early_timestamp
p3359
atp3360
a(L2927195043L
L0L
(lp3361
(lp3362
tp3363
a(L3212356251L
L3785322319L
(lp3364
(lp3365
Vesp_cpu_in_ocd_debug_mode
p3366
atp3367
a(L3365856217L
L1832448559L
(lp3368
(lp3369
Vbootloader_sha256_finish
p3370
aVbootloader_debug_buffer
p3371
aVbootloader_mmap
p3372
atp3373
a(L2476732298L
L1832448559L
(lp3374
(lp3375
Vesp_log_early_timestamp
p3376
aVbootloader_debug_buffer
p3377
aVbootloader_munmap
p3378
atp3379
a(L2258777855L
L0L
(lp3380
(lp3381
tp3382
a(L2134911821L
L0L
(lp3383
(lp3384
tp3385
a(L963422966L
L3785322319L
(lp3386
(lp3387
Vbootloader_mmap
p3388
atp3389
a(L2191609894L
L3785322319L
(lp3390
(lp3391
Vbootloader_munmap
p3392
atp3393
a(L3028481L
L0L
(lp3394
(lp3395
tp3396
a(L106L
L0L
(lp3397
(lp3398
tp3399
a(L1062898864L
L3785322319L
(lp3400
(lp3401
Vbootloader_munmap
p3402
atp3403
a(L929555107L
L0L
(lp3404
(lp3405
tp3406
a(L904298956L
L3785322319L
(lp3407
(lp3408
Vbootloader_sha256_finish
p3409
atp3410
a(L216497726L
L3785322319L
(lp3411
(lp3412
Vshould_load
p3413
atp3414
a(L4068422196L
L0L
(lp3415
(lp3416
tp3417
a(L2573310946L
L0L
(lp3418
(lp3419
tp3420
a(L106L
L0L
(lp3421
(lp3422
tp3423
a(L2214057038L
L0L
(lp3424
(lp3425
tp3426
a(L3464541874L
L0L
(lp3427
(lp3428
tp3429
a(L770010511L
L0L
(lp3430
(lp3431
tp3432
a(L982032168L
L0L
(lp3433
(lp3434
tp3435
a(L106L
L0L
(lp3436
(lp3437
tp3438
a(L26615924L
L0L
(lp3439
(lp3440
tp3441
a(L1899970003L
L0L
(lp3442
(lp3443
tp3444
a(L1900089167L
L0L
(lp3445
(lp3446
tp3447
a(L3064492592L
L0L
(lp3448
(lp3449
tp3450
a(L1235012901L
L0L
(lp3451
(lp3452
tp3453
a(L1235012870L
L0L
(lp3454
(lp3455
tp3456
a(L3236721433L
L0L
(lp3457
(lp3458
tp3459
a(L106L
L0L
(lp3460
(lp3461
tp3462
a(L898227407L
L0L
(lp3463
(lp3464
tp3465
atp3466
sI1074240232
(Vbootloader_reset
p3467
(lp3468
(L1238560124L
L0L
(lp3469
(lp3470
tp3471
a(L106L
L0L
(lp3472
(lp3473
tp3474
atp3475
sI1074237928
(Vbootloader_fill_random
p3476
(lp3477
(L1642351636L
L0L
(lp3478
(lp3479
tp3480
a(L2860361189L
L0L
(lp3481
(lp3482
tp3483
a(L97689L
L0L
(lp3484
(lp3485
tp3486
a(L3360570486L
L0L
(lp3487
(lp3488
tp3489
a(L3474978174L
L3785322319L
(lp3490
(lp3491
V__assert_func
p3492
atp3493
a(L3020204L
L0L
(lp3494
(lp3495
tp3496
a(L2008668903L
L0L
(lp3497
(lp3498
tp3499
a(L606168870L
L0L
(lp3500
(lp3501
tp3502
a(L3474016649L
L0L
(lp3503
(lp3504
tp3505
a(L3930485948L
L0L
(lp3506
(lp3507
tp3508
atp3509
sI1074268408
(Vbootloader_init
p3510
(lp3511
(L77506001L
L0L
(lp3512
(lp3513
tp3514
a(L3410674370L
L0L
(lp3515
(lp3516
tp3517
a(L3967787212L
L0L
(lp3518
(lp3519
tp3520
a(L2355660685L
L0L
(lp3521
(lp3522
tp3523
a(L2328462902L
L3785322319L
(lp3524
(lp3525
V__assert_func
p3526
atp3527
a(L3922618161L
L0L
(lp3528
(lp3529
tp3530
a(L3869835903L
L0L
(lp3531
(lp3532
tp3533
a(L3813782018L
L0L
(lp3534
(lp3535
tp3536
a(L978068417L
L0L
(lp3537
(lp3538
tp3539
a(L3027019L
L0L
(lp3540
(lp3541
tp3542
a(L2381268196L
L0L
(lp3543
(lp3544
tp3545
a(L3006648441L
L1832448559L
(lp3546
(lp3547
Vbootloader_clear_bss_section
p3548
aVbootloader_common_vddsdio_configure
p3549
aVbootloader_clock_get_rated_freq_mhz
p3550
atp3551
a(L2039715963L
L3785322319L
(lp3552
(lp3553
Vbootloader_clock_configure
p3554
atp3555
a(L852860968L
L0L
(lp3556
(lp3557
tp3558
a(L2951444850L
L2485746240L
(lp3559
(lp3560
Vrtc_clk_apb_freq_get
p3561
aVbootloader_print_banner
p3562
aVbootloader_flash_update_id
p3563
aVbootloader_flash_xmc_startup
p3564
atp3565
a(L3232522359L
L3785322319L
(lp3566
(lp3567
Vesp_log_early_timestamp
p3568
atp3569
a(L795991933L
L3785322319L
(lp3570
(lp3571
Vesp_log_early_timestamp
p3572
atp3573
a(L3360570486L
L0L
(lp3574
(lp3575
tp3576
a(L2444883382L
L3785322319L
(lp3577
(lp3578
Vbootloader_read_bootloader_header
p3579
atp3580
a(L2444883382L
L3785322319L
(lp3581
(lp3582
Vbootloader_check_bootloader_validity
p3583
atp3584
a(L379124293L
L267944800L
(lp3585
(lp3586
Vbootloader_flash_gpio_config
p3587
aVbootloader_flash_dummy_config
p3588
aVbootloader_flash_cs_timing_config
p3589
aVbootloader_flash_unlock
p3590
aVbootloader_enable_qio_mode
p3591
aVesp_log_early_timestamp
p3592
atp3593
a(L2806124318L
L0L
(lp3594
(lp3595
tp3596
a(L2809818402L
L0L
(lp3597
(lp3598
tp3599
a(L2781189251L
L0L
(lp3600
(lp3601
tp3602
a(L2820900654L
L0L
(lp3603
(lp3604
tp3605
a(L3902507191L
L0L
(lp3606
(lp3607
tp3608
a(L1600933069L
L3785322319L
(lp3609
(lp3610
Vesp_log_early_timestamp
p3611
atp3612
a(L3431093453L
L0L
(lp3613
(lp3614
tp3615
a(L180805837L
L3785322319L
(lp3616
(lp3617
Vesp_log_early_timestamp
p3618
atp3619
a(L3637318307L
L0L
(lp3620
(lp3621
tp3622
a(L228157614L
L3785322319L
(lp3623
(lp3624
Vbootloader_enable_wp
p3625
atp3626
a(L282760458L
L0L
(lp3627
(lp3628
tp3629
a(L1199268581L
L3785322319L
(lp3630
(lp3631
Vesp_log_early_timestamp
p3632
atp3633
a(L1328209163L
L0L
(lp3634
(lp3635
tp3636
a(L502323150L
L0L
(lp3637
(lp3638
tp3639
a(L2902417580L
L0L
(lp3640
(lp3641
tp3642
a(L1944713791L
L1880226080L
(lp3643
(lp3644
Vwdt_reset_info_dump
p3645
aVwdt_reset_info_dump
p3646
atp3647
a(L916315544L
L1880226080L
(lp3648
(lp3649
Vbootloader_config_wdt
p3650
aVbootloader_enable_random
p3651
atp3652
a(L2179137447L
L3785322319L
(lp3653
(lp3654
Vesp_log_early_timestamp
p3655
atp3656
atp3657
sI1074271228
(Vrtc_clk_wait_for_slow_cycle
p3658
(lp3659
(L3704462791L
L0L
(lp3660
(lp3661
tp3662
a(L3935962608L
L0L
(lp3663
(lp3664
tp3665
a(L3360570486L
L0L
(lp3666
(lp3667
tp3668
atp3669
sI1074247664
(Vrtc_clk_cpu_freq_to_xtal
p3670
(lp3671
(L1663573619L
L3785322319L
(lp3672
(lp3673
Vrtc_clk_apb_freq_update
p3674
atp3675
a(L702736286L
L0L
(lp3676
(lp3677
tp3678
a(L277445412L
L0L
(lp3679
(lp3680
tp3681
a(L309990073L
L0L
(lp3682
(lp3683
tp3684
atp3685
sI1074268144
(Vwdt_reset_info_dump
p3686
(lp3687
(L4037466985L
L0L
(lp3688
(lp3689
tp3690
a(L550942819L
L0L
(lp3691
(lp3692
tp3693
a(L968534162L
L0L
(lp3694
(lp3695
tp3696
a(L1103285333L
L0L
(lp3697
(lp3698
tp3699
a(L736056281L
L3785322319L
(lp3700
(lp3701
Vesp_log_early_timestamp
p3702
atp3703
a(L1020249293L
L0L
(lp3704
(lp3705
tp3706
a(L4142804371L
L3785322319L
(lp3707
(lp3708
Vesp_log_early_timestamp
p3709
atp3710
a(L1732307146L
L0L
(lp3711
(lp3712
tp3713
atp3714
sI1074269424
(Vread_status_8b_rdsr
p3715
(lp3716
(L1945786777L
L3785322319L
(lp3717
(lp3718
Vbootloader_execute_flash_command
p3719
atp3720
atp3721
sI1074237436
(Vbootloader_flash_read
p3722
(lp3723
(L2699333355L
L0L
(lp3724
(lp3725
tp3726
a(L2625568413L
L3785322319L
(lp3727
(lp3728
Vesp_log_early_timestamp
p3729
atp3730
a(L44113432L
L0L
(lp3731
(lp3732
tp3733
a(L1299867982L
L0L
(lp3734
(lp3735
tp3736
a(L3360570486L
L0L
(lp3737
(lp3738
tp3739
a(L2660352519L
L0L
(lp3740
(lp3741
tp3742
a(L3132107371L
L3785322319L
(lp3743
(lp3744
Vesp_log_early_timestamp
p3745
atp3746
a(L162336582L
L0L
(lp3747
(lp3748
tp3749
a(L1181807240L
L3785322319L
(lp3750
(lp3751
Vesp_log_early_timestamp
p3752
atp3753
a(L3020204L
L0L
(lp3754
(lp3755
tp3756
a(L1398573769L
L0L
(lp3757
(lp3758
tp3759
a(L97422L
L0L
(lp3760
(lp3761
tp3762
a(L1704596590L
L0L
(lp3763
(lp3764
tp3765
a(L913644745L
L0L
(lp3766
(lp3767
tp3768
a(L723884168L
L3785322319L
(lp3769
(lp3770
Vesp_log_early_timestamp
p3771
atp3772
a(L1650914642L
L0L
(lp3773
(lp3774
tp3775
a(L2996450323L
L0L
(lp3776
(lp3777
tp3778
a(L2106006491L
L3785322319L
(lp3779
(lp3780
Vesp_rom_spiflash_read
p3781
atp3782
a(L106L
L0L
(lp3783
(lp3784
tp3785
a(L1825798723L
L0L
(lp3786
(lp3787
tp3788
atp3789
sI1074236408
(Vbootloader_flash_dummy_config
p3790
(lp3791
(L4282405359L
L0L
(lp3792
(lp3793
tp3794
a(L2761717557L
L0L
(lp3795
(lp3796
tp3797
a(L2958201959L
L0L
(lp3798
(lp3799
tp3800
a(L1072692545L
L0L
(lp3801
(lp3802
tp3803
a(L1491210540L
L0L
(lp3804
(lp3805
tp3806
a(L3081491917L
L0L
(lp3807
(lp3808
tp3809
a(L1610443405L
L0L
(lp3810
(lp3811
tp3812
a(L1126825741L
L0L
(lp3813
(lp3814
tp3815
a(L1449490182L
L0L
(lp3816
(lp3817
tp3818
a(L1298875775L
L0L
(lp3819
(lp3820
tp3821
a(L3880393601L
L0L
(lp3822
(lp3823
tp3824
a(L447253202L
L0L
(lp3825
(lp3826
tp3827
a(L1610443436L
L0L
(lp3828
(lp3829
tp3830
atp3831
ssS'functionsdups'
p3832
g11
((lp3833
tp3834
Rp3835
sS'immediatedups'
p3836
g11
((lp3837
tp3838
Rp3839
sS'functiondups'
p3840
g11
((lp3841
tp3842
Rp3843
sS'fuzzy'
p3844
(dp3845
L1536L
I1074240232
sL2823460302L
I1074268408
sL1694124286L
I1074269240
sL3121027072L
I1074270540
sL2281427319L
I1074245780
sL3538491111L
I1074247664
sL2919016435L
I1074235276
sL1645617665L
I1074270072
sL1540367692L
I1074269908
sL2680783959L
I1074235664
sL3512578114L
I1074239508
sL975599493L
I1074239372
sL139070185L
I1074240628
sL2469233929L
I1074240792
sL1792232694L
I1074246252
sL4165097831L
I1074245984
sL2475522855L
I1074267912
sL3209093865L
I1074243244
sL3897252859L
I1074239288
sL1065525808L
I1074236572
sL2183816734L
I1074267760
sL1035771659L
I1074237436
sL770162527L
I1074238912
sL449860969L
I1074247376
sL2935879234L
I1074235568
sL31786791L
I1074236676
sL3210669721L
I1074246532
sL1332800441L
I1074236868
sL2884218272L
I1074268144
sL4202185385L
I1074243628
sL4160102055L
I1074268112
sL2453272040L
I1074270772
sL4171975289L
I1074244576
sL1565254297L
I1074244880
sL1513350244L
I1074239928
sL2474570535L
I1074237928
sL3428965560L
I1074247780
sL502463145L
I1074234744
sL3948954811L
I1074239556
sL812946199L
I1074237212
sL3217247399L
I1074269848
sL2276014668L
I1074267960
sL737694352L
I1074243736
sL503029138L
I1074243676
sL277788135L
I1074244968
sL4253866342L
I1074240276
sL2262558768L
I1074243536
sL424867129L
I1074244708
sL1554975810L
I1074237748
sL3834155367L
I1074240980
sL3791345684L
I1074269296
sL2196236180L
I1074236960
sL3883282432L
I1074241392
sL740551509L
I1074269448
sL1659748500L
I1074241036
sL4191211306L
I1074247464
sL247666238L
I1074241512
ssb.