ccopy_reg
_reconstructor
p0
(crizzo
RizzoSignature
p1
c__builtin__
object
p2
Ntp3
Rp4
(dp5
S'formal'
p6
(dp7
L1727699449L
I1074243616
sL3333118126L
I1074245760
sL509635690L
I1074236864
sL1286052010L
I1074241288
sL2530571739L
I1074269700
sL412791177L
I1074237104
sL1955173278L
I1074237720
sL4213015302L
I1074242904
sL2915423193L
I1074267752
sL3092403276L
I1074245232
sL2821324810L
I1074240312
sL1240569040L
I1074237692
sL3211103558L
I1074236268
sL1103614946L
I1074243748
sL1298743360L
I1074239712
sL2278034401L
I1074267964
sL1506421217L
I1074237408
sL2812059575L
I1074246820
sL3707426262L
I1074244008
sL1010441494L
I1074246416
sL913440321L
I1074243320
sL3977352736L
I1074243228
sL2235486223L
I1074243428
sL727620970L
I1074239244
sL2896295319L
I1074236432
sL2481804762L
I1074235544
sL1368716712L
I1074239472
sL679992248L
I1074243920
sL2799414175L
I1074245632
sL2631703448L
I1074267776
sL3265239258L
I1074245976
sL196698353L
I1074238848
sL21252104L
I1074237184
sL3222637400L
I1074270196
sL909686134L
I1074237992
sL4082361884L
I1074236504
sL3416025548L
I1074239388
sL1248961828L
I1074245876
sL16282031L
I1074237356
sL4063323240L
I1074245892
sL976586607L
I1074244900
sL2590406973L
I1074244744
sL1627375778L
I1074236416
sL2691449650L
I1074245932
sL3300353237L
I1074236716
sL2747843754L
I1074244760
sL4029175883L
I1074240404
sL2628725964L
I1074267139
sL3861455681L
I1074236812
sL2985970834L
I1074246632
sL1788436723L
I1074241168
sL1009073483L
I1074245156
sL2620830019L
I1074246504
sL4024636565L
I1074235792
sL4091294628L
I1074240084
sL4193623437L
I1074245784
sL1051063006L
I1074240040
sL1040838514L
I1074245572
sL2706110768L
I1074267932
sL4240871098L
I1074268908
sL1362770503L
I1074270228
sL4186089213L
I1074238464
sL3222153358L
I1074236956
sL2890448587L
I1074244776
sL3034487389L
I1074267848
sL676927194L
I1074267924
sL3307282855L
I1074237872
sL612086517L
I1074235156
sL2418182316L
I1074267664
sL465017637L
I1074269072
sL3338389103L
I1074236536
sL2504288476L
I1074239980
sL1170883415L
I1074240568
sL712171503L
I1074246704
sL1081328620L
I1074247100
sL2972140677L
I1074237900
sL3294288889L
I1074234624
sL382482280L
I1074268228
sL1703683876L
I1074240756
sL2812860418L
I1074238884
sL2464924992L
I1074243368
sL1213560062L
I1074238780
sL852672382L
I1074240812
sL2993347781L
I1074235448
sL2997001746L
I1074236772
sL1663155602L
I1074236992
sL3028742962L
I1074268184
sL1005978191L
I1074268892
sL2819127986L
I1074236736
sL434069093L
I1074245292
sL2814351364L
I1074236672
sL2739975917L
I1074269772
sL3932473306L
I1074245992
sL1164083360L
I1074235500
sL1560235069L
I1074236972
sL109806152L
I1074246676
sL2195124242L
I1074237008
sL3749879373L
I1074244820
sL1070064904L
I1074245024
sL348422677L
I1074245808
sL260073047L
I1074269540
sL2263182908L
I1074237892
sL188664287L
I1074235124
sL4072204123L
I1074235680
sL692536993L
I1074237076
sL793694121L
I1074239504
sL3370331656L
I1074240384
sL3530260869L
I1074267820
sL1621098576L
I1074242920
sL515725647L
I1074245456
sL325563025L
I1074242936
sL163842877L
I1074246376
ssS'immediates'
p8
(dp9
sS'formaldups'
p10
c__builtin__
set
p11
((lp12
tp13
Rp14
sS'stringdups'
p15
g11
((lp16
tp17
Rp18
sS'fuzzydups'
p19
g11
((lp20
tp21
Rp22
sS'strings'
p23
(dp24
sS'functions'
p25
(dp26
I1074245892
(Vrtc_clk_slow_freq_get_hz
p27
(lp28
(L138010204L
L0L
(lp29
(lp30
tp31
a(L4203585384L
L0L
(lp32
(lp33
tp34
a(L1710094423L
L0L
(lp35
(lp36
tp37
a(L3360570486L
L0L
(lp38
(lp39
tp40
atp41
sI1074234624
(Vbootloader_flash_execute_command_common
p42
(lp43
(L630859308L
L0L
(lp44
(lp45
tp46
a(L120556193L
L0L
(lp47
(lp48
tp49
a(L2925418774L
L3785322319L
(lp50
(lp51
V__assert_func
p52
atp53
a(L3021749L
L0L
(lp54
(lp55
tp56
a(L153201683L
L0L
(lp57
(lp58
tp59
a(L3132325827L
L0L
(lp60
(lp61
tp62
a(L1782874522L
L0L
(lp63
(lp64
tp65
a(L4024113366L
L0L
(lp66
(lp67
tp68
a(L2147958864L
L0L
(lp69
(lp70
tp71
a(L831940355L
L0L
(lp72
(lp73
tp74
a(L2039827138L
L0L
(lp75
(lp76
tp77
a(L2429937038L
L0L
(lp78
(lp79
tp80
a(L2186295391L
L0L
(lp81
(lp82
tp83
a(L3079186448L
L0L
(lp84
(lp85
tp86
a(L3333696662L
L0L
(lp87
(lp88
tp89
a(L963425213L
L0L
(lp90
(lp91
tp92
a(L3172016656L
L0L
(lp93
(lp94
tp95
a(L3360570486L
L0L
(lp96
(lp97
tp98
a(L1184240068L
L0L
(lp99
(lp100
tp101
atp102
sI1074236416
(Vesp_cpu_in_ocd_debug_mode
p103
(lp104
(L3653986668L
L0L
(lp105
(lp106
tp107
atp108
sI1074236672
(Vcheck_rtc_retain_mem
p109
(lp110
(L860923073L
L0L
(lp111
(lp112
tp113
atp114
sI1074237184
(Vbootloader_mmap
p115
(lp116
(L2748527573L
L0L
(lp117
(lp118
tp119
a(L1099673693L
L3785322319L
(lp120
(lp121
Vesp_log_early_timestamp
p122
atp123
a(L1182811810L
L0L
(lp124
(lp125
tp126
a(L3496950L
L0L
(lp127
(lp128
tp129
a(L1620600850L
L0L
(lp130
(lp131
tp132
a(L2003540533L
L3785322319L
(lp133
(lp134
Vesp_log_early_timestamp
p135
atp136
a(L1216509427L
L0L
(lp137
(lp138
tp139
a(L1892970471L
L3785322319L
(lp140
(lp141
Vesp_log_early_timestamp
p142
atp143
a(L2056383467L
L0L
(lp144
(lp145
tp146
atp147
sI1074238464
(Vbootloader_random_disable
p148
(lp149
(L3431635699L
L0L
(lp150
(lp151
tp152
atp153
sI1074245632
(Vrtc_clk_8m_enable
p154
(lp155
(L3395409346L
L0L
(lp156
(lp157
tp158
a(L3050540666L
L0L
(lp159
(lp160
tp161
a(L2151320156L
L0L
(lp162
(lp163
tp164
a(L2453986175L
L0L
(lp165
(lp166
tp167
a(L3360570486L
L0L
(lp168
(lp169
tp170
a(L1318267208L
L0L
(lp171
(lp172
tp173
a(L163240134L
L0L
(lp174
(lp175
tp176
atp177
sI1074267136
(V_init
p178
(lp179
(L3493042598L
L0L
(lp180
(lp181
tp182
atp183
sI1074239244
(Vset_actual_ota_seq
p184
(lp185
(L4094723830L
L0L
(lp186
(lp187
tp188
a(L2841120734L
L0L
(lp189
(lp190
tp191
a(L3628209598L
L3785322319L
(lp192
(lp193
Vbootloader_common_ota_select_crc
p194
atp195
a(L3028481L
L0L
(lp196
(lp197
tp198
a(L3458727469L
L3785322319L
(lp199
(lp200
Vbootloader_flash_erase_sector
p201
atp202
a(L974281903L
L3785322319L
(lp203
(lp204
Vbootloader_flash_write
p205
atp206
a(L2531922940L
L3785322319L
(lp207
(lp208
Vesp_log_early_timestamp
p209
atp210
a(L889933560L
L1880226080L
(lp211
(lp212
Vindex_to_partition
p213
aVbootloader_common_update_rtc_retain_mem
p214
atp215
a(L3016870L
L0L
(lp216
(lp217
tp218
a(L1135480206L
L0L
(lp219
(lp220
tp221
a(L957607403L
L0L
(lp222
(lp223
tp224
atp225
sI1074267139
(V_text_start
p226
(lp227
(L2557086379L
L0L
(lp228
(lp229
tp230
atp231
sI1074269700
(Vrtc_vddsdio_set_config
p232
(lp233
(L3507813095L
L0L
(lp234
(lp235
tp236
atp237
sI1074241288
(Vimage_load
p238
(lp239
(L2226322106L
L0L
(lp240
(lp241
tp242
a(L2287016811L
L0L
(lp243
(lp244
tp245
a(L1195851512L
L0L
(lp246
(lp247
tp248
a(L4216270804L
L0L
(lp249
(lp250
tp251
a(L3580955872L
L3785322319L
(lp252
(lp253
Vesp_log_early_timestamp
p254
atp255
a(L242167701L
L0L
(lp256
(lp257
tp258
a(L2434875742L
L3785322319L
(lp259
(lp260
Vbootloader_flash_read
p261
atp262
a(L2956658850L
L0L
(lp263
(lp264
tp265
a(L106L
L0L
(lp266
(lp267
tp268
a(L3230798602L
L0L
(lp269
(lp270
tp271
a(L3378338814L
L3785322319L
(lp272
(lp273
Vbootloader_sha256_start
p274
atp275
a(L2034145148L
L3785322319L
(lp276
(lp277
Vbootloader_sha256_data
p278
atp279
a(L2280795378L
L0L
(lp280
(lp281
tp282
a(L3343864843L
L0L
(lp283
(lp284
tp285
a(L3181590462L
L3785322319L
(lp286
(lp287
Vesp_log_early_timestamp
p288
atp289
a(L2979434586L
L0L
(lp290
(lp291
tp292
a(L2664010337L
L3785322319L
(lp293
(lp294
Vesp_log_early_timestamp
p295
atp296
a(L2752552992L
L0L
(lp297
(lp298
tp299
a(L99726309L
L3785322319L
(lp300
(lp301
Vesp_log_early_timestamp
p302
atp303
a(L2902417580L
L0L
(lp304
(lp305
tp306
a(L3020204L
L0L
(lp307
(lp308
tp309
a(L1781468812L
L3785322319L
(lp310
(lp311
Vbootloader_sha256_finish
p312
atp313
a(L3066339634L
L0L
(lp314
(lp315
tp316
a(L2389262012L
L0L
(lp317
(lp318
tp319
a(L741594184L
L3785322319L
(lp320
(lp321
Vbootloader_common_check_chip_validity
p322
atp323
a(L439156740L
L0L
(lp324
(lp325
tp326
a(L587177238L
L0L
(lp327
(lp328
tp329
a(L1869148037L
L0L
(lp330
(lp331
tp332
a(L1653561857L
L3785322319L
(lp333
(lp334
Vesp_log_early_timestamp
p335
atp336
a(L1367516498L
L0L
(lp337
(lp338
tp339
a(L1542802602L
L0L
(lp340
(lp341
tp342
a(L3271608478L
L0L
(lp343
(lp344
tp345
a(L2126964933L
L0L
(lp346
(lp347
tp348
a(L139701033L
L0L
(lp349
(lp350
tp351
a(L106L
L0L
(lp352
(lp353
tp354
a(L168495655L
L0L
(lp355
(lp356
tp357
a(L2029078903L
L0L
(lp358
(lp359
tp360
a(L3527199113L
L0L
(lp361
(lp362
tp363
a(L3360570486L
L0L
(lp364
(lp365
tp366
a(L3132137153L
L3785322319L
(lp367
(lp368
Vbootloader_flash_read
p369
atp370
a(L1622458948L
L3785322319L
(lp371
(lp372
Vesp_log_early_timestamp
p373
atp374
a(L1367516498L
L0L
(lp375
(lp376
tp377
a(L3020204L
L0L
(lp378
(lp379
tp380
a(L967693111L
L3785322319L
(lp381
(lp382
Vbootloader_sha256_data
p383
atp384
a(L2631920325L
L0L
(lp385
(lp386
tp387
a(L3805464359L
L0L
(lp388
(lp389
tp390
a(L1934100340L
L0L
(lp391
(lp392
tp393
a(L410047159L
L0L
(lp394
(lp395
tp396
a(L106L
L0L
(lp397
(lp398
tp399
a(L2371214088L
L0L
(lp400
(lp401
tp402
a(L4126080114L
L0L
(lp403
(lp404
tp405
a(L106L
L0L
(lp406
(lp407
tp408
a(L1562906710L
L3785322319L
(lp409
(lp410
Vesp_log_early_timestamp
p411
atp412
a(L1869156314L
L0L
(lp413
(lp414
tp415
a(L106L
L0L
(lp416
(lp417
tp418
a(L1117464155L
L3785322319L
(lp419
(lp420
Vesp_log_early_timestamp
p421
atp422
a(L992955717L
L3785322319L
(lp423
(lp424
Vshould_load
p425
atp426
a(L1123182076L
L0L
(lp427
(lp428
tp429
a(L3028481L
L0L
(lp430
(lp431
tp432
a(L479696261L
L3785322319L
(lp433
(lp434
Vbootloader_mmap_get_free_pages
p435
atp436
a(L1058386497L
L0L
(lp437
(lp438
tp439
a(L2613969673L
L0L
(lp440
(lp441
tp442
a(L1819099475L
L3785322319L
(lp443
(lp444
Vverify_load_addresses
p445
atp446
a(L106L
L0L
(lp447
(lp448
tp449
a(L436713709L
L0L
(lp450
(lp451
tp452
a(L2835652337L
L0L
(lp453
(lp454
tp455
a(L1019620452L
L3785322319L
(lp456
(lp457
Vbootloader_mmap
p458
atp459
a(L1299466219L
L3785322319L
(lp460
(lp461
Vesp_log_early_timestamp
p462
atp463
a(L1669831035L
L0L
(lp464
(lp465
tp466
a(L3762425433L
L0L
(lp467
(lp468
tp469
a(L2667747411L
L0L
(lp470
(lp471
tp472
a(L1534276982L
L3785322319L
(lp473
(lp474
Vbootloader_munmap
p475
atp476
a(L1166267309L
L0L
(lp477
(lp478
tp479
a(L48555809L
L3785322319L
(lp480
(lp481
Vbootloader_fill_random
p482
atp483
a(L3570641403L
L0L
(lp484
(lp485
tp486
a(L3574335487L
L0L
(lp487
(lp488
tp489
a(L3802072125L
L0L
(lp490
(lp491
tp492
a(L3021749L
L0L
(lp493
(lp494
tp495
a(L474149717L
L0L
(lp496
(lp497
tp498
a(L2700531392L
L0L
(lp499
(lp500
tp501
a(L1418958926L
L0L
(lp502
(lp503
tp504
a(L3016870L
L0L
(lp505
(lp506
tp507
a(L269245134L
L0L
(lp508
(lp509
tp510
a(L1445020320L
L0L
(lp511
(lp512
tp513
a(L3020204L
L0L
(lp514
(lp515
tp516
a(L1095669012L
L0L
(lp517
(lp518
tp519
a(L1229103290L
L3785322319L
(lp520
(lp521
Vbootloader_sha256_data
p522
atp523
a(L90548756L
L0L
(lp524
(lp525
tp526
a(L719202330L
L0L
(lp527
(lp528
tp529
a(L3169563354L
L0L
(lp530
(lp531
tp532
a(L1869156314L
L0L
(lp533
(lp534
tp535
a(L106L
L0L
(lp536
(lp537
tp538
a(L3067994119L
L3785322319L
(lp539
(lp540
Vesp_log_early_timestamp
p541
atp542
a(L1263440663L
L0L
(lp543
(lp544
tp545
a(L3118387733L
L3785322319L
(lp546
(lp547
Vesp_cpu_in_ocd_debug_mode
p548
atp549
a(L4118212812L
L3785322319L
(lp550
(lp551
Vbootloader_flash_read
p552
atp553
a(L929856031L
L0L
(lp554
(lp555
tp556
a(L4201573559L
L3785322319L
(lp557
(lp558
Vesp_log_early_timestamp
p559
atp560
a(L2902417580L
L0L
(lp561
(lp562
tp563
a(L1016963192L
L3785322319L
(lp564
(lp565
Vbootloader_sha256_data
p566
atp567
a(L3831070346L
L0L
(lp568
(lp569
tp570
a(L2111854616L
L0L
(lp571
(lp572
tp573
a(L3525542150L
L0L
(lp574
(lp575
tp576
a(L1679158730L
L0L
(lp577
(lp578
tp579
a(L106L
L0L
(lp580
(lp581
tp582
a(L1236090580L
L0L
(lp583
(lp584
tp585
a(L2765278810L
L0L
(lp586
(lp587
tp588
a(L106L
L0L
(lp589
(lp590
tp591
a(L537571516L
L3785322319L
(lp592
(lp593
Vesp_log_early_timestamp
p594
atp595
a(L2927195043L
L0L
(lp596
(lp597
tp598
a(L3212356251L
L3785322319L
(lp599
(lp600
Vesp_cpu_in_ocd_debug_mode
p601
atp602
a(L2254358848L
L1832448559L
(lp603
(lp604
Vbootloader_sha256_finish
p605
aVbootloader_debug_buffer
p606
aVbootloader_mmap
p607
atp608
a(L648238546L
L1832448559L
(lp609
(lp610
Vesp_log_early_timestamp
p611
aVbootloader_debug_buffer
p612
aVbootloader_munmap
p613
atp614
a(L2258777855L
L0L
(lp615
(lp616
tp617
a(L2134911821L
L0L
(lp618
(lp619
tp620
a(L963422966L
L3785322319L
(lp621
(lp622
Vbootloader_mmap
p623
atp624
a(L2011783097L
L3785322319L
(lp625
(lp626
Vbootloader_munmap
p627
atp628
a(L3028481L
L0L
(lp629
(lp630
tp631
a(L106L
L0L
(lp632
(lp633
tp634
a(L1062898864L
L3785322319L
(lp635
(lp636
Vbootloader_munmap
p637
atp638
a(L929555107L
L0L
(lp639
(lp640
tp641
a(L904298956L
L3785322319L
(lp642
(lp643
Vbootloader_sha256_finish
p644
atp645
a(L3683478544L
L3785322319L
(lp646
(lp647
Vshould_load
p648
atp649
a(L3023297560L
L0L
(lp650
(lp651
tp652
a(L2573310946L
L0L
(lp653
(lp654
tp655
a(L106L
L0L
(lp656
(lp657
tp658
a(L2214057038L
L0L
(lp659
(lp660
tp661
a(L3464541874L
L0L
(lp662
(lp663
tp664
a(L770010511L
L0L
(lp665
(lp666
tp667
a(L1432696214L
L0L
(lp668
(lp669
tp670
a(L106L
L0L
(lp671
(lp672
tp673
a(L26615924L
L0L
(lp674
(lp675
tp676
a(L1899970003L
L0L
(lp677
(lp678
tp679
a(L1900089167L
L0L
(lp680
(lp681
tp682
a(L3064492592L
L0L
(lp683
(lp684
tp685
a(L1235012901L
L0L
(lp686
(lp687
tp688
a(L1235012870L
L0L
(lp689
(lp690
tp691
a(L168495655L
L0L
(lp692
(lp693
tp694
a(L106L
L0L
(lp695
(lp696
tp697
a(L898226694L
L0L
(lp698
(lp699
tp700
atp701
sI1074268184
(Vabort
p702
(lp703
(L1085118342L
L3785322319L
(lp704
(lp705
Vesp_cpu_in_ocd_debug_mode
p706
atp707
a(L409441471L
L0L
(lp708
(lp709
tp710
a(L106L
L0L
(lp711
(lp712
tp713
atp714
sI1074235156
(Vbootloader_flash_unlock
p715
(lp716
(L142706334L
L3785322319L
(lp717
(lp718
Vesp_rom_spiflash_wait_idle
p719
atp720
a(L4024621237L
L0L
(lp721
(lp722
tp723
a(L4292483033L
L3785322319L
(lp724
(lp725
Vbootloader_execute_flash_command
p726
atp727
a(L106L
L0L
(lp728
(lp729
tp730
a(L1303560644L
L0L
(lp731
(lp732
tp733
a(L1419965066L
L0L
(lp734
(lp735
tp736
a(L106L
L0L
(lp737
(lp738
tp739
a(L1633120054L
L0L
(lp740
(lp741
tp742
a(L106L
L0L
(lp743
(lp744
tp745
a(L2974484771L
L0L
(lp746
(lp747
tp748
a(L106L
L0L
(lp749
(lp750
tp751
a(L1481761147L
L1880226080L
(lp752
(lp753
Vbootloader_execute_flash_command
p754
aVbootloader_execute_flash_command
p755
atp756
a(L2258807654L
L0L
(lp757
(lp758
tp759
a(L489806350L
L1832448559L
(lp760
(lp761
Vesp_rom_spiflash_wait_idle
p762
aVbootloader_execute_flash_command
p763
aVbootloader_execute_flash_command
p764
atp765
a(L879744646L
L1832448559L
(lp766
(lp767
Vesp_rom_spiflash_wait_idle
p768
aVbootloader_execute_flash_command
p769
aVbootloader_execute_flash_command
p770
atp771
a(L1840772931L
L1880226080L
(lp772
(lp773
Vesp_rom_spiflash_wait_idle
p774
aVbootloader_execute_flash_command
p775
atp776
a(L2993202392L
L0L
(lp777
(lp778
tp779
a(L508800419L
L1880226080L
(lp780
(lp781
Vbootloader_execute_flash_command
p782
aVbootloader_execute_flash_command
p783
atp784
a(L1303560369L
L0L
(lp785
(lp786
tp787
a(L1596544945L
L0L
(lp788
(lp789
tp790
a(L97689L
L0L
(lp791
(lp792
tp793
a(L106L
L0L
(lp794
(lp795
tp796
atp797
sI1074246676
(Vrtc_clk_apb_freq_update
p798
(lp799
(L27642667L
L0L
(lp800
(lp801
tp802
atp803
sI1074267932
(V__assert_func
p804
(lp805
(L1927718910L
L3785322319L
(lp806
(lp807
Vesp_log_early_timestamp
p808
atp809
a(L106L
L0L
(lp810
(lp811
tp812
atp813
sI1074239504
(Vbootloader_utility_load_partition_table
p814
(lp815
(L4151914004L
L3785322319L
(lp816
(lp817
Vbootloader_mmap
p818
atp819
a(L1785160450L
L3785322319L
(lp820
(lp821
Vesp_log_early_timestamp
p822
atp823
a(L2258688482L
L0L
(lp824
(lp825
tp826
a(L3360570486L
L0L
(lp827
(lp828
tp829
a(L1520382514L
L3785322319L
(lp830
(lp831
Vesp_partition_table_verify
p832
atp833
a(L1266759786L
L3785322319L
(lp834
(lp835
Vesp_log_early_timestamp
p836
atp837
a(L148985701L
L0L
(lp838
(lp839
tp840
a(L3020187L
L0L
(lp841
(lp842
tp843
a(L4067319519L
L0L
(lp844
(lp845
tp846
a(L3806571235L
L0L
(lp847
(lp848
tp849
a(L2247926755L
L3785322319L
(lp850
(lp851
Vbootloader_munmap
p852
atp853
a(L1036489382L
L0L
(lp854
(lp855
tp856
a(L3020187L
L0L
(lp857
(lp858
tp859
a(L1699092113L
L0L
(lp860
(lp861
tp862
a(L3926410636L
L0L
(lp863
(lp864
tp865
a(L3977772390L
L0L
(lp866
(lp867
tp868
a(L1535150665L
L0L
(lp869
(lp870
tp871
a(L2387139071L
L0L
(lp872
(lp873
tp874
a(L507291053L
L0L
(lp875
(lp876
tp877
atp878
sI1074236432
(Vis_xmc_chip_strict
p879
(lp880
(L1286841609L
L0L
(lp881
(lp882
tp883
a(L2234016759L
L0L
(lp884
(lp885
tp886
a(L1069027148L
L0L
(lp887
(lp888
tp889
a(L3021749L
L0L
(lp890
(lp891
tp892
a(L1900148749L
L0L
(lp893
(lp894
tp895
a(L1936875721L
L0L
(lp896
(lp897
tp898
a(L3356166509L
L0L
(lp899
(lp900
tp901
a(L1937769451L
L0L
(lp902
(lp903
tp904
a(L2137658907L
L0L
(lp905
(lp906
tp907
a(L4265949734L
L0L
(lp908
(lp909
tp910
a(L3360570486L
L0L
(lp911
(lp912
tp913
atp914
sI1074246416
(Vrtc_clk_cpu_freq_mhz_to_config
p915
(lp916
(L2601984125L
L3785322319L
(lp917
(lp918
Vrtc_clk_xtal_freq_get
p919
atp920
a(L2089656409L
L0L
(lp921
(lp922
tp923
a(L3814337874L
L0L
(lp924
(lp925
tp926
a(L3126521138L
L0L
(lp927
(lp928
tp929
a(L2762074623L
L0L
(lp930
(lp931
tp932
a(L1541996779L
L0L
(lp933
(lp934
tp935
a(L2916936348L
L0L
(lp936
(lp937
tp938
a(L1555485793L
L0L
(lp939
(lp940
tp941
a(L2258897023L
L0L
(lp942
(lp943
tp944
a(L1947499251L
L0L
(lp945
(lp946
tp947
a(L1306331021L
L0L
(lp948
(lp949
tp950
atp951
sI1074267664
(Vcall_start_cpu0
p952
(lp953
(L1974457732L
L3785322319L
(lp954
(lp955
Vbootloader_init
p956
atp957
a(L94425498L
L3785322319L
(lp958
(lp959
Vbootloader_reset
p960
atp961
a(L913552592L
L1880226080L
(lp962
(lp963
Vbootloader_utility_load_boot_image_from_deep_sleep
p964
aVbootloader_utility_load_partition_table
p965
atp966
a(L4026389016L
L3785322319L
(lp967
(lp968
Vesp_log_early_timestamp
p969
atp970
a(L1623793516L
L3785322319L
(lp971
(lp972
Vbootloader_utility_get_selected_boot_partition
p973
atp974
a(L2086982338L
L1880226080L
(lp975
(lp976
Vbootloader_common_get_reset_reason
p977
aVbootloader_utility_load_boot_image
p978
atp979
atp980
sI1074236956
(Vbootloader_common_get_reset_reason
p981
(lp982
(L3511795829L
L0L
(lp983
(lp984
tp985
atp986
sI1074267924
(Vbootloader_enable_random
p987
(lp988
(L1287383080L
L3785322319L
(lp989
(lp990
Vbootloader_random_enable
p991
atp992
atp993
sI1074270228
(Vrtc_clk_wait_for_slow_cycle
p994
(lp995
(L2432933075L
L0L
(lp996
(lp997
tp998
a(L4072319722L
L0L
(lp999
(lp1000
tp1001
a(L3360570486L
L0L
(lp1002
(lp1003
tp1004
atp1005
sI1074237720
(Vbootloader_flash_write
p1006
(lp1007
(L3119145091L
L0L
(lp1008
(lp1009
tp1010
a(L3000286065L
L3785322319L
(lp1011
(lp1012
Vesp_log_early_timestamp
p1013
atp1014
a(L44113432L
L0L
(lp1015
(lp1016
tp1017
a(L1610445075L
L0L
(lp1018
(lp1019
tp1020
a(L735741265L
L0L
(lp1021
(lp1022
tp1023
a(L3291333414L
L0L
(lp1024
(lp1025
tp1026
a(L2835527531L
L3785322319L
(lp1027
(lp1028
Vesp_log_early_timestamp
p1029
atp1030
a(L3283691850L
L0L
(lp1031
(lp1032
tp1033
a(L1712107829L
L3785322319L
(lp1034
(lp1035
Vesp_log_early_timestamp
p1036
atp1037
a(L3212356251L
L3785322319L
(lp1038
(lp1039
Vbootloader_flash_unlock
p1040
atp1041
a(L4210907913L
L0L
(lp1042
(lp1043
tp1044
a(L94425498L
L3785322319L
(lp1045
(lp1046
Vesp_rom_spiflash_write_encrypted
p1047
atp1048
a(L93674324L
L0L
(lp1049
(lp1050
tp1051
a(L1093812897L
L0L
(lp1052
(lp1053
tp1054
a(L2927190544L
L3785322319L
(lp1055
(lp1056
Vesp_rom_spiflash_write
p1057
atp1058
atp1059
sI1074245156
(Vrtc_wdt_set_length_of_reset_signal
p1060
(lp1061
(L607216364L
L0L
(lp1062
(lp1063
tp1064
a(L93674324L
L0L
(lp1065
(lp1066
tp1067
a(L1807255459L
L0L
(lp1068
(lp1069
tp1070
a(L868045884L
L0L
(lp1071
(lp1072
tp1073
a(L3360570486L
L0L
(lp1074
(lp1075
tp1076
a(L751757911L
L0L
(lp1077
(lp1078
tp1079
a(L1235012901L
L0L
(lp1080
(lp1081
tp1082
atp1083
sI1074244900
(Vrtc_wdt_set_stage
p1084
(lp1085
(L607216364L
L0L
(lp1086
(lp1087
tp1088
a(L93674324L
L0L
(lp1089
(lp1090
tp1091
a(L453945762L
L0L
(lp1092
(lp1093
tp1094
a(L2318987361L
L0L
(lp1095
(lp1096
tp1097
a(L3360570486L
L0L
(lp1098
(lp1099
tp1100
a(L3028464L
L0L
(lp1101
(lp1102
tp1103
a(L1407745527L
L0L
(lp1104
(lp1105
tp1106
a(L1060688304L
L0L
(lp1107
(lp1108
tp1109
a(L1299866312L
L0L
(lp1110
(lp1111
tp1112
a(L3028464L
L0L
(lp1113
(lp1114
tp1115
a(L2470415892L
L0L
(lp1116
(lp1117
tp1118
a(L2919171626L
L0L
(lp1119
(lp1120
tp1121
a(L1235012901L
L0L
(lp1122
(lp1123
tp1124
atp1125
sI1074243616
(Vesp_rom_spiflash_erase_sector
p1126
(lp1127
(L3335923153L
L0L
(lp1128
(lp1129
tp1130
a(L2258688483L
L0L
(lp1131
(lp1132
tp1133
a(L3360570486L
L0L
(lp1134
(lp1135
tp1136
a(L3212356251L
L3785322319L
(lp1137
(lp1138
Vesp_rom_spiflash_enable_write
p1139
atp1140
a(L184152988L
L0L
(lp1141
(lp1142
tp1143
a(L2383521433L
L3785322319L
(lp1144
(lp1145
Vesp_rom_spiflash_wait_idle
p1146
atp1147
a(L3333707777L
L0L
(lp1148
(lp1149
tp1150
a(L3582858798L
L3785322319L
(lp1151
(lp1152
Vesp_rom_spiflash_wait_idle
p1153
atp1154
atp1155
sI1074235680
(Vbootloader_flash_cs_timing_config
p1156
(lp1157
(L1061398432L
L0L
(lp1158
(lp1159
tp1160
atp1161
sI1074240812
(Vverify_load_addresses
p1162
(lp1163
(L2763563698L
L0L
(lp1164
(lp1165
tp1166
a(L106L
L0L
(lp1167
(lp1168
tp1169
a(L97642L
L0L
(lp1170
(lp1171
tp1172
a(L4284199593L
L3785322319L
(lp1173
(lp1174
V__assert_func
p1175
atp1176
a(L1897440251L
L0L
(lp1177
(lp1178
tp1179
a(L106L
L0L
(lp1180
(lp1181
tp1182
a(L4236120437L
L0L
(lp1183
(lp1184
tp1185
a(L106L
L0L
(lp1186
(lp1187
tp1188
a(L1844429174L
L3785322319L
(lp1189
(lp1190
Vbootloader_util_regions_overlap
p1191
atp1192
a(L4141097903L
L3785322319L
(lp1193
(lp1194
Vbootloader_util_regions_overlap
p1195
atp1196
a(L3028481L
L0L
(lp1197
(lp1198
tp1199
a(L2543842550L
L3785322319L
(lp1200
(lp1201
Vbootloader_util_regions_overlap
p1202
atp1203
a(L3261224735L
L0L
(lp1204
(lp1205
tp1206
a(L3099884703L
L0L
(lp1207
(lp1208
tp1209
a(L4126047842L
L0L
(lp1210
(lp1211
tp1212
a(L3707234797L
L0L
(lp1213
(lp1214
tp1215
a(L642339957L
L0L
(lp1216
(lp1217
tp1218
a(L677569396L
L3785322319L
(lp1219
(lp1220
Vverify_load_addresses
p1221
atp1222
a(L1351513776L
L0L
(lp1223
(lp1224
tp1225
a(L1395829501L
L0L
(lp1226
(lp1227
tp1228
a(L3099128907L
L0L
(lp1229
(lp1230
tp1231
a(L2706475830L
L3785322319L
(lp1232
(lp1233
Vbootloader_util_regions_overlap
p1234
atp1235
a(L3028481L
L0L
(lp1236
(lp1237
tp1238
a(L1163255038L
L3785322319L
(lp1239
(lp1240
Vbootloader_util_regions_overlap
p1241
atp1242
a(L3461348223L
L0L
(lp1243
(lp1244
tp1245
a(L722502958L
L0L
(lp1246
(lp1247
tp1248
a(L1207773323L
L0L
(lp1249
(lp1250
tp1251
a(L106L
L0L
(lp1252
(lp1253
tp1254
a(L2200636332L
L0L
(lp1255
(lp1256
tp1257
a(L2819388072L
L0L
(lp1258
(lp1259
tp1260
a(L955503953L
L0L
(lp1261
(lp1262
tp1263
a(L307917420L
L0L
(lp1264
(lp1265
tp1266
a(L490080443L
L0L
(lp1267
(lp1268
tp1269
a(L106L
L0L
(lp1270
(lp1271
tp1272
a(L2269910371L
L3785322319L
(lp1273
(lp1274
Vesp_log_early_timestamp
p1275
atp1276
a(L955504077L
L0L
(lp1277
(lp1278
tp1279
a(L1303560427L
L0L
(lp1280
(lp1281
tp1282
atp1283
sI1074236716
(Vbootloader_common_ota_select_crc
p1284
(lp1285
(L1387808763L
L0L
(lp1286
(lp1287
tp1288
atp1289
sI1074236972
(Vbootloader_common_reset_rtc_retain_mem
p1290
(lp1291
(L2750656895L
L0L
(lp1292
(lp1293
tp1294
atp1295
sI1074245932
(Vrtc_clk_fast_freq_set
p1296
(lp1297
(L91666099L
L0L
(lp1298
(lp1299
tp1300
atp1301
sI1074243368
(Vesp_rom_spiflash_enable_write
p1302
(lp1303
(L1653723053L
L3785322319L
(lp1304
(lp1305
Vesp_rom_spiflash_wait_idle
p1306
atp1307
a(L3137194272L
L0L
(lp1308
(lp1309
tp1310
a(L2258718275L
L0L
(lp1311
(lp1312
tp1313
a(L99543895L
L0L
(lp1314
(lp1315
tp1316
a(L2993202392L
L0L
(lp1317
(lp1318
tp1319
a(L1804543818L
L3785322319L
(lp1320
(lp1321
Vesp_rom_spiflash_read_status
p1322
atp1323
atp1324
sI1074240040
(Vbootloader_reset
p1325
(lp1326
(L3173267552L
L0L
(lp1327
(lp1328
tp1329
a(L106L
L0L
(lp1330
(lp1331
tp1332
atp1333
sI1074237992
(Vbootloader_random_enable
p1334
(lp1335
(L1987384938L
L0L
(lp1336
(lp1337
tp1338
atp1339
sI1074267964
(Vwdt_reset_info_dump
p1340
(lp1341
(L4037466985L
L0L
(lp1342
(lp1343
tp1344
a(L2988197509L
L0L
(lp1345
(lp1346
tp1347
a(L4012738504L
L0L
(lp1348
(lp1349
tp1350
a(L1103285333L
L0L
(lp1351
(lp1352
tp1353
a(L1172224270L
L3785322319L
(lp1354
(lp1355
Vesp_log_early_timestamp
p1356
atp1357
a(L1020249293L
L0L
(lp1358
(lp1359
tp1360
a(L4142803286L
L3785322319L
(lp1361
(lp1362
Vesp_log_early_timestamp
p1363
atp1364
a(L1194666373L
L0L
(lp1365
(lp1366
tp1367
atp1368
sI1074246704
(Vrtc_clk_cpu_freq_to_xtal
p1369
(lp1370
(L2435181674L
L3785322319L
(lp1371
(lp1372
Vrtc_clk_apb_freq_update
p1373
atp1374
a(L702736306L
L0L
(lp1375
(lp1376
tp1377
a(L277445412L
L0L
(lp1378
(lp1379
tp1380
a(L309988740L
L0L
(lp1381
(lp1382
tp1383
atp1384
sI1074238780
(Vbootloader_common_get_chip_revision
p1385
(lp1386
(L4159277870L
L0L
(lp1387
(lp1388
tp1389
a(L939332113L
L0L
(lp1390
(lp1391
tp1392
a(L3360570486L
L0L
(lp1393
(lp1394
tp1395
atp1396
sI1074240312
(Vindex_to_partition
p1397
(lp1398
(L4066096119L
L0L
(lp1399
(lp1400
tp1401
a(L1739185955L
L0L
(lp1402
(lp1403
tp1404
a(L2171552758L
L0L
(lp1405
(lp1406
tp1407
a(L2808906342L
L0L
(lp1408
(lp1409
tp1410
a(L2101481936L
L0L
(lp1411
(lp1412
tp1413
a(L3698927993L
L0L
(lp1414
(lp1415
tp1416
a(L2808826781L
L0L
(lp1417
(lp1418
tp1419
a(L2911029954L
L0L
(lp1420
(lp1421
tp1422
a(L1104460200L
L0L
(lp1423
(lp1424
tp1425
a(L1087646172L
L0L
(lp1426
(lp1427
tp1428
atp1429
sI1074235448
(Vbootloader_flash_read_sfdp
p1430
(lp1431
(L711701400L
L0L
(lp1432
(lp1433
tp1434
a(L3626758209L
L3785322319L
(lp1435
(lp1436
V__assert_func
p1437
atp1438
a(L3704332455L
L3785322319L
(lp1439
(lp1440
Vbootloader_flash_execute_command_common
p1441
atp1442
atp1443
sI1074240568
(Vbootloader_sha256_finish
p1444
(lp1445
(L4066096136L
L0L
(lp1446
(lp1447
tp1448
a(L337563131L
L0L
(lp1449
(lp1450
tp1451
a(L1478649521L
L3785322319L
(lp1452
(lp1453
V__assert_func
p1454
atp1455
a(L3020204L
L0L
(lp1456
(lp1457
tp1458
a(L3232107642L
L0L
(lp1459
(lp1460
tp1461
a(L2534656226L
L0L
(lp1462
(lp1463
tp1464
a(L2642694385L
L3785322319L
(lp1465
(lp1466
Vbootloader_sha256_data
p1467
atp1468
a(L544579576L
L0L
(lp1469
(lp1470
tp1471
a(L3048287311L
L3785322319L
(lp1472
(lp1473
Vbootloader_sha256_data
p1474
atp1475
a(L318256478L
L0L
(lp1476
(lp1477
tp1478
a(L67884924L
L0L
(lp1479
(lp1480
tp1481
a(L2708021476L
L0L
(lp1482
(lp1483
tp1484
a(L67884924L
L0L
(lp1485
(lp1486
tp1487
a(L3901819967L
L0L
(lp1488
(lp1489
tp1490
a(L1922676544L
L0L
(lp1491
(lp1492
tp1493
a(L3347778L
L0L
(lp1494
(lp1495
tp1496
a(L3360570486L
L0L
(lp1497
(lp1498
tp1499
atp1500
sI1074269772
(Vrtc_clk_cal_internal
p1501
(lp1502
(L1251729224L
L0L
(lp1503
(lp1504
tp1505
a(L365313263L
L3785322319L
(lp1506
(lp1507
V__assert_func
p1508
atp1509
a(L3500395523L
L0L
(lp1510
(lp1511
tp1512
a(L3017366L
L0L
(lp1513
(lp1514
tp1515
a(L2781091364L
L0L
(lp1516
(lp1517
tp1518
a(L4169864463L
L1880226080L
(lp1519
(lp1520
Vrtc_clk_8m_enabled
p1521
aVrtc_clk_8md256_enabled
p1522
atp1523
a(L2874750549L
L3785322319L
(lp1524
(lp1525
Vrtc_clk_8m_enable
p1526
atp1527
a(L2244916796L
L0L
(lp1528
(lp1529
tp1530
a(L3502850147L
L0L
(lp1531
(lp1532
tp1533
a(L97689L
L0L
(lp1534
(lp1535
tp1536
a(L1025717268L
L0L
(lp1537
(lp1538
tp1539
a(L3028464L
L0L
(lp1540
(lp1541
tp1542
a(L3028481L
L0L
(lp1543
(lp1544
tp1545
a(L3450946281L
L0L
(lp1546
(lp1547
tp1548
a(L3127973145L
L3785322319L
(lp1549
(lp1550
Vrtc_clk_xtal_freq_get
p1551
atp1552
a(L2780079961L
L0L
(lp1553
(lp1554
tp1555
a(L795019293L
L0L
(lp1556
(lp1557
tp1558
a(L1342576958L
L3785322319L
(lp1559
(lp1560
Vesp_log_early_timestamp
p1561
atp1562
a(L3360570486L
L0L
(lp1563
(lp1564
tp1565
a(L2822518695L
L0L
(lp1566
(lp1567
tp1568
a(L3014202739L
L0L
(lp1569
(lp1570
tp1571
a(L3028481L
L0L
(lp1572
(lp1573
tp1574
a(L389882987L
L0L
(lp1575
(lp1576
tp1577
a(L755155573L
L3785322319L
(lp1578
(lp1579
Vrtc_clk_8m_enable
p1580
atp1581
a(L3631005548L
L0L
(lp1582
(lp1583
tp1584
a(L2673060617L
L0L
(lp1585
(lp1586
tp1587
a(L3352263364L
L0L
(lp1588
(lp1589
tp1590
atp1591
sI1074236736
(Vbootloader_common_ota_select_valid
p1592
(lp1593
(L1563399710L
L3785322319L
(lp1594
(lp1595
Vbootloader_common_ota_select_invalid
p1596
atp1597
a(L3814720849L
L3785322319L
(lp1598
(lp1599
Vbootloader_common_ota_select_crc
p1600
atp1601
a(L3360570486L
L0L
(lp1602
(lp1603
tp1604
atp1605
sI1074236992
(Vbootloader_common_get_rtc_retain_mem_partition
p1606
(lp1607
(L1838455070L
L3785322319L
(lp1608
(lp1609
Vcheck_rtc_retain_mem
p1610
atp1611
a(L702737689L
L0L
(lp1612
(lp1613
tp1614
a(L3360570486L
L0L
(lp1615
(lp1616
tp1617
atp1618
sI1074268228
(Vbootloader_init
p1619
(lp1620
(L2728201463L
L0L
(lp1621
(lp1622
tp1623
a(L4268871688L
L0L
(lp1624
(lp1625
tp1626
a(L684621324L
L0L
(lp1627
(lp1628
tp1629
a(L2819936749L
L0L
(lp1630
(lp1631
tp1632
a(L3960919155L
L3785322319L
(lp1633
(lp1634
V__assert_func
p1635
atp1636
a(L1360964983L
L0L
(lp1637
(lp1638
tp1639
a(L1082524703L
L0L
(lp1640
(lp1641
tp1642
a(L3813782018L
L0L
(lp1643
(lp1644
tp1645
a(L2485724513L
L0L
(lp1646
(lp1647
tp1648
a(L3027019L
L0L
(lp1649
(lp1650
tp1651
a(L3888924292L
L0L
(lp1652
(lp1653
tp1654
a(L3235865398L
L1832448559L
(lp1655
(lp1656
Vbootloader_clear_bss_section
p1657
aVbootloader_common_vddsdio_configure
p1658
aVbootloader_clock_get_rated_freq_mhz
p1659
atp1660
a(L3728688785L
L3785322319L
(lp1661
(lp1662
Vbootloader_clock_configure
p1663
atp1664
a(L852860968L
L0L
(lp1665
(lp1666
tp1667
a(L738674958L
L2485746240L
(lp1668
(lp1669
Vrtc_clk_apb_freq_get
p1670
aVbootloader_print_banner
p1671
aVbootloader_flash_update_id
p1672
aVbootloader_flash_xmc_startup
p1673
atp1674
a(L4065739586L
L3785322319L
(lp1675
(lp1676
Vesp_log_early_timestamp
p1677
atp1678
a(L3524271917L
L3785322319L
(lp1679
(lp1680
Vesp_log_early_timestamp
p1681
atp1682
a(L3360570486L
L0L
(lp1683
(lp1684
tp1685
a(L2444883382L
L3785322319L
(lp1686
(lp1687
Vbootloader_read_bootloader_header
p1688
atp1689
a(L2444883382L
L3785322319L
(lp1690
(lp1691
Vbootloader_check_bootloader_validity
p1692
atp1693
a(L3121015753L
L2485746240L
(lp1694
(lp1695
Vbootloader_flash_gpio_config
p1696
aVbootloader_flash_dummy_config
p1697
aVbootloader_flash_cs_timing_config
p1698
aVbootloader_flash_unlock
p1699
atp1700
a(L360153391L
L0L
(lp1701
(lp1702
tp1703
a(L2998608666L
L3785322319L
(lp1704
(lp1705
Vbootloader_enable_wp
p1706
atp1707
a(L4068889928L
L0L
(lp1708
(lp1709
tp1710
a(L2366680238L
L3785322319L
(lp1711
(lp1712
Vesp_log_early_timestamp
p1713
atp1714
a(L3433272205L
L0L
(lp1715
(lp1716
tp1717
a(L569753936L
L0L
(lp1718
(lp1719
tp1720
a(L2902417580L
L0L
(lp1721
(lp1722
tp1723
a(L1944713791L
L1880226080L
(lp1724
(lp1725
Vwdt_reset_info_dump
p1726
aVwdt_reset_info_dump
p1727
atp1728
a(L4174986053L
L1880226080L
(lp1729
(lp1730
Vbootloader_config_wdt
p1731
aVbootloader_enable_random
p1732
atp1733
a(L1106027959L
L3785322319L
(lp1734
(lp1735
Vesp_log_early_timestamp
p1736
atp1737
atp1738
sI1074240084
(Vbootloader_utility_load_boot_image
p1739
(lp1740
(L1561528311L
L0L
(lp1741
(lp1742
tp1743
a(L2177418995L
L3785322319L
(lp1744
(lp1745
Vtry_load_partition
p1746
atp1747
a(L470742948L
L1880226080L
(lp1748
(lp1749
Vbootloader_random_disable
p1750
aVunpack_load_app
p1751
atp1752
a(L2446304169L
L3785322319L
(lp1753
(lp1754
Vesp_log_early_timestamp
p1755
atp1756
a(L94425498L
L3785322319L
(lp1757
(lp1758
Vbootloader_reset
p1759
atp1760
a(L1745743476L
L3785322319L
(lp1761
(lp1762
Vindex_to_partition
p1763
atp1764
a(L1074657773L
L3785322319L
(lp1765
(lp1766
Vtry_load_partition
p1767
atp1768
a(L1899865696L
L0L
(lp1769
(lp1770
tp1771
a(L2695355117L
L3785322319L
(lp1772
(lp1773
Vset_actual_ota_seq
p1774
atp1775
a(L1868897605L
L3785322319L
(lp1776
(lp1777
Vlog_invalid_app_partition
p1778
atp1779
a(L831650730L
L0L
(lp1780
(lp1781
tp1782
a(L3021737L
L0L
(lp1783
(lp1784
tp1785
a(L84313215L
L0L
(lp1786
(lp1787
tp1788
a(L1835102160L
L3785322319L
(lp1789
(lp1790
Vtry_load_partition
p1791
atp1792
a(L3997358889L
L3785322319L
(lp1793
(lp1794
Vesp_log_early_timestamp
p1795
atp1796
a(L2185156151L
L3785322319L
(lp1797
(lp1798
Vindex_to_partition
p1799
atp1800
a(L1074657773L
L3785322319L
(lp1801
(lp1802
Vtry_load_partition
p1803
atp1804
a(L3061261803L
L0L
(lp1805
(lp1806
tp1807
a(L3582858798L
L3785322319L
(lp1808
(lp1809
Vlog_invalid_app_partition
p1810
atp1811
a(L56782980L
L3785322319L
(lp1812
(lp1813
Vesp_log_early_timestamp
p1814
atp1815
atp1816
sI1074237008
(Vbootloader_common_update_rtc_retain_mem
p1817
(lp1818
(L2958000229L
L0L
(lp1819
(lp1820
tp1821
a(L3212356251L
L3785322319L
(lp1822
(lp1823
Vcheck_rtc_retain_mem
p1824
atp1825
a(L94425498L
L3785322319L
(lp1826
(lp1827
Vbootloader_common_reset_rtc_retain_mem
p1828
atp1829
a(L2821156367L
L0L
(lp1830
(lp1831
tp1832
a(L4140856694L
L0L
(lp1833
(lp1834
tp1835
a(L90322182L
L0L
(lp1836
(lp1837
tp1838
a(L1466453772L
L0L
(lp1839
(lp1840
tp1841
a(L2376320324L
L0L
(lp1842
(lp1843
tp1844
atp1845
sI1074243920
(Vesp_rom_spiflash_write_encrypted
p1846
(lp1847
(L2107077087L
L0L
(lp1848
(lp1849
tp1850
a(L693365156L
L0L
(lp1851
(lp1852
tp1853
a(L97689L
L0L
(lp1854
(lp1855
tp1856
a(L3061232074L
L0L
(lp1857
(lp1858
tp1859
a(L1276120324L
L0L
(lp1860
(lp1861
tp1862
a(L2903314395L
L3785322319L
(lp1863
(lp1864
Vesp_rom_spiflash_write
p1865
atp1866
a(L650629104L
L0L
(lp1867
(lp1868
tp1869
a(L735741265L
L0L
(lp1870
(lp1871
tp1872
atp1873
sI1074245456
(Vrtc_clk_32k_enable_common
p1874
(lp1875
(L2814297589L
L0L
(lp1876
(lp1877
tp1878
atp1879
sI1074236504
(Vesp_log_early_timestamp
p1880
(lp1881
(L1981018541L
L0L
(lp1882
(lp1883
tp1884
atp1885
sI1074242904
(Vbootloader_load_image
p1886
(lp1887
(L1155870502L
L3785322319L
(lp1888
(lp1889
Vimage_load
p1890
atp1891
atp1892
sI1074245976
(Vrtc_clk_fast_freq_get
p1893
(lp1894
(L4011017257L
L0L
(lp1895
(lp1896
tp1897
atp1898
sI1074267752
(Vbootloader_clear_bss_section
p1899
(lp1900
(L3277611363L
L0L
(lp1901
(lp1902
tp1903
atp1904
sI1074236772
(Vbootloader_common_get_active_otadata
p1905
(lp1906
(L3317503532L
L0L
(lp1907
(lp1908
tp1909
a(L2503049265L
L1832448559L
(lp1910
(lp1911
Vbootloader_common_ota_select_valid
p1912
aVbootloader_common_ota_select_valid
p1913
aVbootloader_common_select_otadata
p1914
atp1915
a(L735741265L
L0L
(lp1916
(lp1917
tp1918
atp1919
sI1074243428
(Vesp_rom_spiflash_program_page_internal
p1920
(lp1921
(L2569069283L
L0L
(lp1922
(lp1923
tp1924
a(L2258688483L
L0L
(lp1925
(lp1926
tp1927
a(L3360570486L
L0L
(lp1928
(lp1929
tp1930
a(L2795241781L
L0L
(lp1931
(lp1932
tp1933
a(L4235661475L
L3785322319L
(lp1934
(lp1935
Vesp_rom_spiflash_wait_idle
p1936
atp1937
a(L1299866312L
L0L
(lp1938
(lp1939
tp1940
a(L3212356251L
L3785322319L
(lp1941
(lp1942
Vesp_rom_spiflash_enable_write
p1943
atp1944
a(L3813212728L
L0L
(lp1945
(lp1946
tp1947
a(L3262972422L
L0L
(lp1948
(lp1949
tp1950
a(L2953702749L
L0L
(lp1951
(lp1952
tp1953
a(L2989032L
L0L
(lp1954
(lp1955
tp1956
a(L1965622133L
L0L
(lp1957
(lp1958
tp1959
a(L326174252L
L0L
(lp1960
(lp1961
tp1962
a(L1958113242L
L0L
(lp1963
(lp1964
tp1965
a(L106L
L0L
(lp1966
(lp1967
tp1968
a(L4283177684L
L0L
(lp1969
(lp1970
tp1971
a(L1405253496L
L0L
(lp1972
(lp1973
tp1974
a(L1008982912L
L0L
(lp1975
(lp1976
tp1977
a(L1933954923L
L0L
(lp1978
(lp1979
tp1980
a(L3886319556L
L0L
(lp1981
(lp1982
tp1983
a(L2767679583L
L0L
(lp1984
(lp1985
tp1986
atp1987
sI1074236268
(Vbootloader_flash_dummy_config
p1988
(lp1989
(L132211179L
L0L
(lp1990
(lp1991
tp1992
a(L2761717557L
L0L
(lp1993
(lp1994
tp1995
a(L705371371L
L0L
(lp1996
(lp1997
tp1998
a(L2971458626L
L0L
(lp1999
(lp2000
tp2001
a(L1491210540L
L0L
(lp2002
(lp2003
tp2004
a(L3081491917L
L0L
(lp2005
(lp2006
tp2007
a(L1610443405L
L0L
(lp2008
(lp2009
tp2010
a(L4102729993L
L0L
(lp2011
(lp2012
tp2013
a(L1449490182L
L0L
(lp2014
(lp2015
tp2016
a(L1298875775L
L0L
(lp2017
(lp2018
tp2019
a(L3880393601L
L0L
(lp2020
(lp2021
tp2022
a(L1505818087L
L0L
(lp2023
(lp2024
tp2025
a(L1610443436L
L0L
(lp2026
(lp2027
tp2028
atp2029
sI1074235500
(Vbootloader_read_flash_id
p2030
(lp2031
(L3925322170L
L3785322319L
(lp2032
(lp2033
Vbootloader_execute_flash_command
p2034
atp2035
atp2036
sI1074269540
(Vrtc_vddsdio_get_config
p2037
(lp2038
(L4035259087L
L0L
(lp2039
(lp2040
tp2041
a(L147025923L
L0L
(lp2042
(lp2043
tp2044
a(L318395269L
L0L
(lp2045
(lp2046
tp2047
a(L4016343922L
L0L
(lp2048
(lp2049
tp2050
a(L805538460L
L0L
(lp2051
(lp2052
tp2053
a(L1116012092L
L0L
(lp2054
(lp2055
tp2056
a(L1719615367L
L0L
(lp2057
(lp2058
tp2059
a(L1579921227L
L0L
(lp2060
(lp2061
tp2062
atp2063
sI1074246504
(Vrtc_clk_cpu_freq_get_config
p2064
(lp2065
(L3247314953L
L0L
(lp2066
(lp2067
tp2068
a(L2902417580L
L0L
(lp2069
(lp2070
tp2071
a(L1777368540L
L0L
(lp2072
(lp2073
tp2074
a(L1637615528L
L1880226080L
(lp2075
(lp2076
Vesp_log_early_timestamp
p2077
aVabort
p2078
atp2079
a(L3290511144L
L3785322319L
(lp2080
(lp2081
Vrtc_clk_xtal_freq_get
p2082
atp2083
a(L584032699L
L0L
(lp2084
(lp2085
tp2086
a(L3253506618L
L0L
(lp2087
(lp2088
tp2089
a(L3020187L
L0L
(lp2090
(lp2091
tp2092
a(L713819170L
L0L
(lp2093
(lp2094
tp2095
a(L106L
L0L
(lp2096
(lp2097
tp2098
a(L549042870L
L0L
(lp2099
(lp2100
tp2101
a(L187152368L
L0L
(lp2102
(lp2103
tp2104
a(L4149732163L
L0L
(lp2105
(lp2106
tp2107
atp2108
sI1074245992
(Vrtc_clk_bbpll_configure
p2109
(lp2110
(L3950659967L
L0L
(lp2111
(lp2112
tp2113
a(L106L
L0L
(lp2114
(lp2115
tp2116
a(L521788734L
L0L
(lp2117
(lp2118
tp2119
a(L106L
L0L
(lp2120
(lp2121
tp2122
a(L83268611L
L0L
(lp2123
(lp2124
tp2125
a(L106L
L0L
(lp2126
(lp2127
tp2128
a(L82345090L
L0L
(lp2129
(lp2130
tp2131
a(L106L
L0L
(lp2132
(lp2133
tp2134
a(L2258688482L
L0L
(lp2135
(lp2136
tp2137
a(L3177466952L
L0L
(lp2138
(lp2139
tp2140
a(L1719650922L
L0L
(lp2141
(lp2142
tp2143
a(L2063462968L
L0L
(lp2144
(lp2145
tp2146
a(L1299866343L
L0L
(lp2147
(lp2148
tp2149
a(L3291765465L
L0L
(lp2150
(lp2151
tp2152
a(L3241888512L
L0L
(lp2153
(lp2154
tp2155
a(L3828945439L
L0L
(lp2156
(lp2157
tp2158
a(L83268344L
L0L
(lp2159
(lp2160
tp2161
a(L82344823L
L0L
(lp2162
(lp2163
tp2164
a(L1667153377L
L0L
(lp2165
(lp2166
tp2167
a(L2258867279L
L0L
(lp2168
(lp2169
tp2170
a(L3098298352L
L0L
(lp2171
(lp2172
tp2173
a(L1551160474L
L0L
(lp2174
(lp2175
tp2176
a(L1712476653L
L0L
(lp2177
(lp2178
tp2179
a(L4011631532L
L0L
(lp2180
(lp2181
tp2182
atp2183
sI1074242920
(Vbootloader_load_image_no_verify
p2184
(lp2185
(L3412781509L
L3785322319L
(lp2186
(lp2187
Vimage_load
p2188
atp2189
atp2190
sI1074270332
(Vbootloader_print_banner
p2191
(lp2192
(L2100504542L
L0L
(lp2193
(lp2194
tp2195
atp2196
sI1074245232
(Vrtc_clk_bbpll_disable
p2197
(lp2198
(L503479928L
L0L
(lp2199
(lp2200
tp2201
a(L391691750L
L0L
(lp2202
(lp2203
tp2204
a(L3360570486L
L0L
(lp2205
(lp2206
tp2207
atp2208
sI1074242936
(Vesp_partition_table_verify
p2209
(lp2210
(L1518656766L
L0L
(lp2211
(lp2212
tp2213
a(L3971008816L
L0L
(lp2214
(lp2215
tp2216
a(L4287435191L
L0L
(lp2217
(lp2218
tp2219
a(L2910371777L
L0L
(lp2220
(lp2221
tp2222
a(L2810785767L
L0L
(lp2223
(lp2224
tp2225
a(L3360570486L
L0L
(lp2226
(lp2227
tp2228
a(L2334946637L
L0L
(lp2229
(lp2230
tp2231
a(L2478753082L
L0L
(lp2232
(lp2233
tp2234
a(L1580262034L
L0L
(lp2235
(lp2236
tp2237
a(L3458918420L
L3785322319L
(lp2238
(lp2239
Vesp_log_early_timestamp
p2240
atp2241
a(L3892568582L
L3785322319L
(lp2242
(lp2243
Vesp_log_early_timestamp
p2244
atp2245
a(L3402900134L
L0L
(lp2246
(lp2247
tp2248
a(L3020204L
L0L
(lp2249
(lp2250
tp2251
a(L3020204L
L0L
(lp2252
(lp2253
tp2254
a(L1601646474L
L3785322319L
(lp2255
(lp2256
Vesp_log_early_timestamp
p2257
atp2258
a(L44113432L
L0L
(lp2259
(lp2260
tp2261
a(L1235012932L
L0L
(lp2262
(lp2263
tp2264
a(L1201537652L
L0L
(lp2265
(lp2266
tp2267
a(L3020204L
L0L
(lp2268
(lp2269
tp2270
a(L2406399924L
L3785322319L
(lp2271
(lp2272
Vesp_log_early_timestamp
p2273
atp2274
a(L1613213999L
L0L
(lp2275
(lp2276
tp2277
a(L1167861556L
L0L
(lp2278
(lp2279
tp2280
a(L3260980605L
L0L
(lp2281
(lp2282
tp2283
a(L1580262034L
L0L
(lp2284
(lp2285
tp2286
a(L1213482803L
L3785322319L
(lp2287
(lp2288
Vesp_log_early_timestamp
p2289
atp2290
atp2291
sI1074240376
(Vbootloader_debug_buffer
p2292
(lp2293
(L2100504542L
L0L
(lp2294
(lp2295
tp2296
atp2297
sI1074236536
(Vbootloader_clock_configure
p2298
(lp2299
(L4029462840L
L0L
(lp2300
(lp2301
tp2302
a(L2878253354L
L0L
(lp2303
(lp2304
tp2305
a(L3662234681L
L0L
(lp2306
(lp2307
tp2308
a(L604197507L
L0L
(lp2309
(lp2310
tp2311
a(L386608811L
L1832448559L
(lp2312
(lp2313
Vrtc_clk_slow_freq_get
p2314
aVrtc_clk_fast_freq_get
p2315
aVrtc_clk_init
p2316
atp2317
atp2318
sI1074238848
(Vbootloader_clock_get_rated_freq_mhz
p2319
(lp2320
(L2723579418L
L0L
(lp2321
(lp2322
tp2323
a(L2965302338L
L0L
(lp2324
(lp2325
tp2326
a(L3360570486L
L0L
(lp2327
(lp2328
tp2329
atp2330
sI1074240384
(Vbootloader_sha256_start
p2331
(lp2332
(L1621101996L
L0L
(lp2333
(lp2334
tp2335
atp2336
sI1074245760
(Vrtc_clk_8m_enabled
p2337
(lp2338
(L3508523769L
L0L
(lp2339
(lp2340
tp2341
atp2342
sI1074267776
(Vbootloader_read_bootloader_header
p2343
(lp2344
(L1839002680L
L3785322319L
(lp2345
(lp2346
Vbootloader_flash_read
p2347
atp2348
a(L2908672513L
L3785322319L
(lp2349
(lp2350
Vesp_log_early_timestamp
p2351
atp2352
a(L735741265L
L0L
(lp2353
(lp2354
tp2355
atp2356
sI1074236812
(Vbootloader_common_vddsdio_configure
p2357
(lp2358
(L1922017289L
L3785322319L
(lp2359
(lp2360
Vrtc_vddsdio_get_config
p2361
atp2362
a(L793867220L
L3785322319L
(lp2363
(lp2364
Vrtc_vddsdio_set_config
p2365
atp2366
a(L3360570486L
L0L
(lp2367
(lp2368
tp2369
atp2370
sI1074244744
(Vrtc_wdt_protect_off
p2371
(lp2372
(L1992628525L
L0L
(lp2373
(lp2374
tp2375
atp2376
sI1074240404
(Vbootloader_sha256_data
p2377
(lp2378
(L4066096136L
L0L
(lp2379
(lp2380
tp2381
a(L2952448312L
L0L
(lp2382
(lp2383
tp2384
a(L1478649521L
L3785322319L
(lp2385
(lp2386
V__assert_func
p2387
atp2388
a(L498498478L
L0L
(lp2389
(lp2390
tp2391
a(L3967260222L
L0L
(lp2392
(lp2393
tp2394
a(L2910371777L
L0L
(lp2395
(lp2396
tp2397
a(L3360570486L
L0L
(lp2398
(lp2399
tp2400
a(L1895505015L
L0L
(lp2401
(lp2402
tp2403
a(L541898147L
L0L
(lp2404
(lp2405
tp2406
a(L731299194L
L0L
(lp2407
(lp2408
tp2409
a(L2970263175L
L0L
(lp2410
(lp2411
tp2412
a(L97689L
L0L
(lp2413
(lp2414
tp2415
a(L2032890799L
L0L
(lp2416
(lp2417
tp2418
a(L3028464L
L0L
(lp2419
(lp2420
tp2421
a(L2043031810L
L0L
(lp2422
(lp2423
tp2424
a(L2697360573L
L0L
(lp2425
(lp2426
tp2427
a(L174036615L
L0L
(lp2428
(lp2429
tp2430
atp2431
sI1074237076
(Vbootloader_common_ota_select_invalid
p2432
(lp2433
(L4027567199L
L0L
(lp2434
(lp2435
tp2436
a(L3397985842L
L0L
(lp2437
(lp2438
tp2439
a(L2258867228L
L0L
(lp2440
(lp2441
tp2442
a(L3785235668L
L0L
(lp2443
(lp2444
tp2445
atp2446
sI1074241168
(Vshould_load
p2447
(lp2448
(L3090218091L
L0L
(lp2449
(lp2450
tp2451
a(L1182990556L
L0L
(lp2452
(lp2453
tp2454
a(L2804617428L
L0L
(lp2455
(lp2456
tp2457
a(L1298905564L
L0L
(lp2458
(lp2459
tp2460
a(L524505062L
L0L
(lp2461
(lp2462
tp2463
a(L2258897019L
L0L
(lp2464
(lp2465
tp2466
a(L3781799363L
L0L
(lp2467
(lp2468
tp2469
a(L3028464L
L0L
(lp2470
(lp2471
tp2472
a(L3391478988L
L0L
(lp2473
(lp2474
tp2475
a(L4076023486L
L0L
(lp2476
(lp2477
tp2478
a(L2732168465L
L0L
(lp2479
(lp2480
tp2481
a(L4185756579L
L0L
(lp2482
(lp2483
tp2484
a(L3458855836L
L0L
(lp2485
(lp2486
tp2487
a(L3126521138L
L0L
(lp2488
(lp2489
tp2490
a(L1305407438L
L0L
(lp2491
(lp2492
tp2493
a(L1305407469L
L0L
(lp2494
(lp2495
tp2496
atp2497
sI1074235792
(Vbootloader_flash_gpio_config
p2498
(lp2499
(L1849171823L
L0L
(lp2500
(lp2501
tp2502
a(L106L
L0L
(lp2503
(lp2504
tp2505
a(L2886083034L
L0L
(lp2506
(lp2507
tp2508
a(L106L
L0L
(lp2509
(lp2510
tp2511
a(L4213870169L
L0L
(lp2512
(lp2513
tp2514
a(L3890032189L
L0L
(lp2515
(lp2516
tp2517
a(L106L
L0L
(lp2518
(lp2519
tp2520
a(L968413374L
L0L
(lp2521
(lp2522
tp2523
a(L4272081986L
L0L
(lp2524
(lp2525
tp2526
a(L3360570486L
L0L
(lp2527
(lp2528
tp2529
atp2530
sI1074269072
(Vrtc_clk_init
p2531
(lp2532
(L1164531469L
L0L
(lp2533
(lp2534
tp2535
a(L42671777L
L3785322319L
(lp2536
(lp2537
Vrtc_clk_cpu_freq_to_xtal
p2538
atp2539
a(L3653911038L
L0L
(lp2540
(lp2541
tp2542
a(L4150963688L
L0L
(lp2543
(lp2544
tp2545
a(L2873281153L
L0L
(lp2546
(lp2547
tp2548
a(L912414356L
L3785322319L
(lp2549
(lp2550
Vrtc_clk_xtal_freq_get
p2551
atp2552
a(L1171554251L
L0L
(lp2553
(lp2554
tp2555
a(L3579106612L
L0L
(lp2556
(lp2557
tp2558
a(L3497434000L
L2485746240L
(lp2559
(lp2560
Vrtc_clk_xtal_freq_update
p2561
aVrtc_clk_apb_freq_update
p2562
aVrtc_clk_cpu_freq_get_config
p2563
aVrtc_clk_cpu_freq_mhz_to_config
p2564
atp2565
a(L3188035493L
L1880226080L
(lp2566
(lp2567
Vesp_log_early_timestamp
p2568
aVabort
p2569
atp2570
a(L4187693717L
L3785322319L
(lp2571
(lp2572
Vrtc_clk_xtal_freq_estimate
p2573
atp2574
a(L2810722505L
L3785322319L
(lp2575
(lp2576
Vesp_log_early_timestamp
p2577
atp2578
a(L4143060793L
L0L
(lp2579
(lp2580
tp2581
a(L1563923531L
L0L
(lp2582
(lp2583
tp2584
a(L106L
L0L
(lp2585
(lp2586
tp2587
a(L4070631878L
L3785322319L
(lp2588
(lp2589
Vrtc_clk_xtal_freq_estimate
p2590
atp2591
a(L106L
L0L
(lp2592
(lp2593
tp2594
a(L1854210624L
L3785322319L
(lp2595
(lp2596
Vesp_log_early_timestamp
p2597
atp2598
a(L2767147110L
L3785322319L
(lp2599
(lp2600
Vrtc_clk_cpu_freq_set_config
p2601
atp2602
a(L4168829660L
L3785322319L
(lp2603
(lp2604
Vrtc_clk_32k_enable
p2605
atp2606
a(L3016870L
L0L
(lp2607
(lp2608
tp2609
a(L2726467919L
L3785322319L
(lp2610
(lp2611
Vrtc_clk_8m_enable
p2612
atp2613
a(L530469956L
L1880226080L
(lp2614
(lp2615
Vrtc_clk_fast_freq_set
p2616
aVrtc_clk_slow_freq_set
p2617
atp2618
atp2619
sI1074239388
(Vlog_invalid_app_partition
p2620
(lp2621
(L2295329388L
L0L
(lp2622
(lp2623
tp2624
a(L3028464L
L0L
(lp2625
(lp2626
tp2627
a(L258990391L
L3785322319L
(lp2628
(lp2629
Vesp_log_early_timestamp
p2630
atp2631
a(L44113432L
L0L
(lp2632
(lp2633
tp2634
a(L3360570486L
L0L
(lp2635
(lp2636
tp2637
a(L1770524876L
L3785322319L
(lp2638
(lp2639
Vesp_log_early_timestamp
p2640
atp2641
a(L2487557571L
L3785322319L
(lp2642
(lp2643
Vesp_log_early_timestamp
p2644
atp2645
atp2646
sI1074243228
(Vesp_rom_spiflash_read_status
p2647
(lp2648
(L3562601385L
L0L
(lp2649
(lp2650
tp2651
a(L1182811815L
L0L
(lp2652
(lp2653
tp2654
a(L1656352645L
L0L
(lp2655
(lp2656
tp2657
a(L106L
L0L
(lp2658
(lp2659
tp2660
a(L765478957L
L0L
(lp2661
(lp2662
tp2663
a(L4004659960L
L0L
(lp2664
(lp2665
tp2666
a(L2123059967L
L0L
(lp2667
(lp2668
tp2669
a(L1973734210L
L0L
(lp2670
(lp2671
tp2672
a(L2392720019L
L0L
(lp2673
(lp2674
tp2675
atp2676
sI1074235544
(Vbootloader_flash_xmc_startup
p2677
(lp2678
(L2358327534L
L3785322319L
(lp2679
(lp2680
Vis_xmc_chip_strict
p2681
atp2682
a(L2258688482L
L0L
(lp2683
(lp2684
tp2685
a(L3360570486L
L0L
(lp2686
(lp2687
tp2688
a(L251913992L
L3785322319L
(lp2689
(lp2690
Vbootloader_flash_read_sfdp
p2691
atp2692
a(L1623371620L
L267944800L
(lp2693
(lp2694
Vbootloader_execute_flash_command
p2695
aVbootloader_execute_flash_command
p2696
aVbootloader_execute_flash_command
p2697
aVbootloader_execute_flash_command
p2698
aVbootloader_read_flash_id
p2699
aVis_xmc_chip_strict
p2700
atp2701
a(L1760467701L
L3785322319L
(lp2702
(lp2703
Vesp_log_early_timestamp
p2704
atp2705
atp2706
sI1074244760
(Vrtc_wdt_protect_on
p2707
(lp2708
(L88221649L
L0L
(lp2709
(lp2710
tp2711
atp2712
sI1074245784
(Vrtc_clk_8md256_enabled
p2713
(lp2714
(L2664051898L
L0L
(lp2715
(lp2716
tp2717
atp2718
sI1074243748
(Vesp_rom_spiflash_write
p2719
(lp2720
(L3437605924L
L0L
(lp2721
(lp2722
tp2723
a(L2258688483L
L0L
(lp2724
(lp2725
tp2726
a(L3360570486L
L0L
(lp2727
(lp2728
tp2729
a(L1590344338L
L0L
(lp2730
(lp2731
tp2732
a(L3106685987L
L0L
(lp2733
(lp2734
tp2735
a(L4249336406L
L3785322319L
(lp2736
(lp2737
Vesp_rom_spiflash_program_page_internal
p2738
atp2739
a(L1915738254L
L3785322319L
(lp2740
(lp2741
Vesp_rom_spiflash_program_page_internal
p2742
atp2743
a(L663507325L
L0L
(lp2744
(lp2745
tp2746
a(L2392967593L
L0L
(lp2747
(lp2748
tp2749
a(L564470687L
L0L
(lp2750
(lp2751
tp2752
a(L154459701L
L3785322319L
(lp2753
(lp2754
Vesp_rom_spiflash_program_page_internal
p2755
atp2756
a(L2079643754L
L0L
(lp2757
(lp2758
tp2759
atp2760
sI1074238884
(Vunpack_load_app
p2761
(lp2762
(L2818852515L
L0L
(lp2763
(lp2764
tp2765
a(L1942872024L
L0L
(lp2766
(lp2767
tp2768
a(L106L
L0L
(lp2769
(lp2770
tp2771
a(L3389589327L
L0L
(lp2772
(lp2773
tp2774
a(L2010554219L
L0L
(lp2775
(lp2776
tp2777
a(L3268103L
L0L
(lp2778
(lp2779
tp2780
a(L292738889L
L0L
(lp2781
(lp2782
tp2783
a(L2469071512L
L0L
(lp2784
(lp2785
tp2786
a(L2902417580L
L0L
(lp2787
(lp2788
tp2789
a(L79898157L
L3785322319L
(lp2790
(lp2791
Vesp_log_early_timestamp
p2792
atp2793
a(L3675656700L
L0L
(lp2794
(lp2795
tp2796
a(L3049892282L
L0L
(lp2797
(lp2798
tp2799
a(L3020204L
L0L
(lp2800
(lp2801
tp2802
a(L3566497187L
L3785322319L
(lp2803
(lp2804
Vesp_log_early_timestamp
p2805
atp2806
a(L340328320L
L0L
(lp2807
(lp2808
tp2809
a(L298990563L
L0L
(lp2810
(lp2811
tp2812
atp2813
sI1074246820
(Vrtc_clk_cpu_freq_set_config
p2814
(lp2815
(L3932390899L
L3785322319L
(lp2816
(lp2817
Vrtc_clk_xtal_freq_get
p2818
atp2819
a(L1828795533L
L1880226080L
(lp2820
(lp2821
Vrtc_clk_cpu_freq_to_xtal
p2822
aVrtc_clk_wait_for_slow_cycle
p2823
atp2824
a(L94425498L
L3785322319L
(lp2825
(lp2826
Vrtc_clk_bbpll_disable
p2827
atp2828
a(L3978916712L
L0L
(lp2829
(lp2830
tp2831
a(L2977209154L
L0L
(lp2832
(lp2833
tp2834
a(L2736411858L
L3785322319L
(lp2835
(lp2836
Vrtc_clk_cpu_freq_to_xtal
p2837
atp2838
a(L3360570486L
L0L
(lp2839
(lp2840
tp2841
a(L3020187L
L0L
(lp2842
(lp2843
tp2844
a(L106L
L0L
(lp2845
(lp2846
tp2847
a(L2112489747L
L2485746240L
(lp2848
(lp2849
Vrtc_clk_wait_for_slow_cycle
p2850
aVrtc_clk_xtal_freq_get
p2851
aVrtc_clk_bbpll_configure
p2852
aVrtc_clk_cpu_freq_to_pll_mhz
p2853
atp2854
a(L3020187L
L0L
(lp2855
(lp2856
tp2857
a(L106L
L0L
(lp2858
(lp2859
tp2860
a(L2849426756L
L0L
(lp2861
(lp2862
tp2863
atp2864
sI1074267820
(Vbootloader_check_bootloader_validity
p2865
(lp2866
(L861329293L
L1880226080L
(lp2867
(lp2868
Vbootloader_common_get_chip_revision
p2869
aVbootloader_common_check_chip_validity
p2870
atp2871
atp2872
sI1074245024
(Vrtc_wdt_disable
p2873
(lp2874
(L3345020619L
L0L
(lp2875
(lp2876
tp2877
a(L1119267079L
L0L
(lp2878
(lp2879
tp2880
a(L295302463L
L1832448559L
(lp2881
(lp2882
Vrtc_wdt_set_stage
p2883
aVrtc_wdt_set_stage
p2884
aVrtc_wdt_set_stage
p2885
atp2886
a(L1318441907L
L0L
(lp2887
(lp2888
tp2889
a(L3360570486L
L0L
(lp2890
(lp2891
tp2892
atp2893
sI1074245292
(Vrtc_clk_cpu_freq_to_pll_mhz
p2894
(lp2895
(L428013989L
L0L
(lp2896
(lp2897
tp2898
a(L106L
L0L
(lp2899
(lp2900
tp2901
a(L1541997046L
L0L
(lp2902
(lp2903
tp2904
a(L106L
L0L
(lp2905
(lp2906
tp2907
a(L1546614651L
L0L
(lp2908
(lp2909
tp2910
a(L448508854L
L0L
(lp2911
(lp2912
tp2913
a(L2722149943L
L3785322319L
(lp2914
(lp2915
Vrtc_clk_wait_for_slow_cycle
p2916
atp2917
a(L3441808391L
L1880226080L
(lp2918
(lp2919
Vesp_log_early_timestamp
p2920
aVabort
p2921
atp2922
a(L1183020347L
L0L
(lp2923
(lp2924
tp2925
a(L1305407562L
L0L
(lp2926
(lp2927
tp2928
a(L1306330990L
L0L
(lp2929
(lp2930
tp2931
atp2932
sI1074237356
(Vbootloader_munmap
p2933
(lp2934
(L2251443225L
L0L
(lp2935
(lp2936
tp2937
a(L1946336818L
L0L
(lp2938
(lp2939
tp2940
a(L3360570486L
L0L
(lp2941
(lp2942
tp2943
atp2944
sI1074244008
(Vesp_rom_spiflash_read
p2945
(lp2946
(L2643079663L
L0L
(lp2947
(lp2948
tp2949
a(L1105009662L
L0L
(lp2950
(lp2951
tp2952
a(L2860271684L
L0L
(lp2953
(lp2954
tp2955
a(L3017366L
L0L
(lp2956
(lp2957
tp2958
a(L106L
L0L
(lp2959
(lp2960
tp2961
a(L3156855704L
L0L
(lp2962
(lp2963
tp2964
a(L106L
L0L
(lp2965
(lp2966
tp2967
a(L2077555341L
L0L
(lp2968
(lp2969
tp2970
a(L1518890710L
L0L
(lp2971
(lp2972
tp2973
a(L1287630437L
L0L
(lp2974
(lp2975
tp2976
a(L694482497L
L0L
(lp2977
(lp2978
tp2979
a(L106L
L0L
(lp2980
(lp2981
tp2982
a(L1443023753L
L3785322319L
(lp2983
(lp2984
Vesp_rom_spiflash_wait_idle
p2985
atp2986
a(L3021737L
L0L
(lp2987
(lp2988
tp2989
a(L106L
L0L
(lp2990
(lp2991
tp2992
a(L1868280504L
L0L
(lp2993
(lp2994
tp2995
a(L106L
L0L
(lp2996
(lp2997
tp2998
a(L3736482141L
L0L
(lp2999
(lp3000
tp3001
a(L1221163038L
L0L
(lp3002
(lp3003
tp3004
a(L4122060822L
L0L
(lp3005
(lp3006
tp3007
a(L596837393L
L0L
(lp3008
(lp3009
tp3010
a(L2989032L
L0L
(lp3011
(lp3012
tp3013
a(L3819849625L
L0L
(lp3014
(lp3015
tp3016
a(L2652660986L
L0L
(lp3017
(lp3018
tp3019
a(L4264637090L
L0L
(lp3020
(lp3021
tp3022
a(L3901820432L
L0L
(lp3023
(lp3024
tp3025
a(L1905378288L
L0L
(lp3026
(lp3027
tp3028
a(L1896415737L
L0L
(lp3029
(lp3030
tp3031
a(L1522202953L
L0L
(lp3032
(lp3033
tp3034
a(L1332382172L
L0L
(lp3035
(lp3036
tp3037
a(L2708865954L
L0L
(lp3038
(lp3039
tp3040
a(L2267384310L
L0L
(lp3041
(lp3042
tp3043
a(L2696140277L
L0L
(lp3044
(lp3045
tp3046
a(L2687789892L
L0L
(lp3047
(lp3048
tp3049
a(L1405253496L
L0L
(lp3050
(lp3051
tp3052
a(L172558464L
L0L
(lp3053
(lp3054
tp3055
a(L97689L
L0L
(lp3056
(lp3057
tp3058
a(L2258897019L
L0L
(lp3059
(lp3060
tp3061
a(L4014024819L
L0L
(lp3062
(lp3063
tp3064
a(L3621567083L
L0L
(lp3065
(lp3066
tp3067
atp3068
sI1074244776
(Vrtc_wdt_enable
p3069
(lp3070
(L1696361524L
L0L
(lp3071
(lp3072
tp3073
atp3074
sI1074245808
(Vrtc_clk_slow_freq_set
p3075
(lp3076
(L2151435275L
L0L
(lp3077
(lp3078
tp3079
atp3080
sI1074237104
(Vbootloader_common_select_otadata
p3081
(lp3082
(L2342662536L
L0L
(lp3083
(lp3084
tp3085
a(L3806783650L
L0L
(lp3086
(lp3087
tp3088
a(L1674928252L
L0L
(lp3089
(lp3090
tp3091
a(L251571983L
L0L
(lp3092
(lp3093
tp3094
a(L3360570486L
L0L
(lp3095
(lp3096
tp3097
a(L2045232488L
L0L
(lp3098
(lp3099
tp3100
a(L3379299350L
L0L
(lp3101
(lp3102
tp3103
a(L3094149227L
L0L
(lp3104
(lp3105
tp3106
a(L2403798097L
L0L
(lp3107
(lp3108
tp3109
a(L1641201884L
L0L
(lp3110
(lp3111
tp3112
atp3113
sI1074237872
(Vbootloader_enable_wp
p3114
(lp3115
(L1117825804L
L3785322319L
(lp3116
(lp3117
Vbootloader_execute_flash_command
p3118
atp3119
atp3120
sI1074247100
(Vrtc_clk_apb_freq_get
p3121
(lp3122
(L3194039191L
L0L
(lp3123
(lp3124
tp3125
atp3126
sI1074267848
(Vbootloader_config_wdt
p3127
(lp3128
(L1332814535L
L665916544L
(lp3129
(lp3130
Vrtc_wdt_protect_off
p3131
aVrtc_wdt_disable
p3132
aVrtc_wdt_set_length_of_reset_signal
p3133
aVrtc_wdt_set_length_of_reset_signal
p3134
aVrtc_wdt_set_stage
p3135
aVrtc_wdt_set_time
p3136
aVrtc_wdt_enable
p3137
aVrtc_wdt_protect_on
p3138
atp3139
atp3140
sI1074237892
(Vbootloader_mmap_get_free_pages
p3141
(lp3142
(L1496516875L
L0L
(lp3143
(lp3144
tp3145
atp3146
sI1074245572
(Vrtc_clk_32k_enable
p3147
(lp3148
(L753387299L
L0L
(lp3149
(lp3150
tp3151
a(L1067050752L
L3785322319L
(lp3152
(lp3153
Vrtc_clk_32k_enable_common
p3154
atp3155
a(L3360570486L
L0L
(lp3156
(lp3157
tp3158
a(L4286822420L
L0L
(lp3159
(lp3160
tp3161
atp3162
sI1074236864
(Vbootloader_common_check_chip_validity
p3163
(lp3164
(L3716643856L
L0L
(lp3165
(lp3166
tp3167
a(L1633802461L
L3785322319L
(lp3168
(lp3169
Vesp_log_early_timestamp
p3170
atp3171
a(L2844231433L
L3785322319L
(lp3172
(lp3173
Vbootloader_common_get_chip_revision
p3174
atp3175
a(L51503152L
L3785322319L
(lp3176
(lp3177
Vesp_log_early_timestamp
p3178
atp3179
a(L2983970029L
L0L
(lp3180
(lp3181
tp3182
atp3183
sI1074237900
(Vbootloader_fill_random
p3184
(lp3185
(L1642351636L
L0L
(lp3186
(lp3187
tp3188
a(L25798685L
L0L
(lp3189
(lp3190
tp3191
a(L97689L
L0L
(lp3192
(lp3193
tp3194
a(L3360570486L
L0L
(lp3195
(lp3196
tp3197
a(L172858127L
L3785322319L
(lp3198
(lp3199
V__assert_func
p3200
atp3201
a(L3020204L
L0L
(lp3202
(lp3203
tp3204
a(L2008668903L
L0L
(lp3205
(lp3206
tp3207
a(L606168870L
L0L
(lp3208
(lp3209
tp3210
a(L3474016649L
L0L
(lp3211
(lp3212
tp3213
a(L3930485948L
L0L
(lp3214
(lp3215
tp3216
atp3217
sI1074244820
(Vrtc_wdt_set_time
p3218
(lp3219
(L947342461L
L0L
(lp3220
(lp3221
tp3222
a(L2847695787L
L3785322319L
(lp3223
(lp3224
Vrtc_clk_slow_freq_get_hz
p3225
atp3226
a(L3800623690L
L0L
(lp3227
(lp3228
tp3229
a(L1182990556L
L0L
(lp3230
(lp3231
tp3232
a(L3126521138L
L0L
(lp3233
(lp3234
tp3235
a(L3028464L
L0L
(lp3236
(lp3237
tp3238
a(L702740006L
L0L
(lp3239
(lp3240
tp3241
a(L3366404026L
L0L
(lp3242
(lp3243
tp3244
a(L3028464L
L0L
(lp3245
(lp3246
tp3247
a(L310103936L
L0L
(lp3248
(lp3249
tp3250
a(L310104060L
L0L
(lp3251
(lp3252
tp3253
atp3254
sI1074268892
(Vbootloader_flash_update_id
p3255
(lp3256
(L960913579L
L3785322319L
(lp3257
(lp3258
Vbootloader_read_flash_id
p3259
atp3260
atp3261
sI1074268908
(Vrtc_clk_xtal_freq_estimate
p3262
(lp3263
(L2516060585L
L1880226080L
(lp3264
(lp3265
Vrtc_clk_8m_enabled
p3266
aVrtc_clk_8md256_enabled
p3267
atp3268
a(L967485502L
L3785322319L
(lp3269
(lp3270
Vrtc_clk_8m_enable
p3271
atp3272
a(L2931164540L
L3785322319L
(lp3273
(lp3274
Vrtc_clk_cal_ratio
p3275
atp3276
a(L2446677988L
L0L
(lp3277
(lp3278
tp3279
a(L3360570486L
L0L
(lp3280
(lp3281
tp3282
a(L975797169L
L3785322319L
(lp3283
(lp3284
Vesp_log_early_timestamp
p3285
atp3286
atp3287
sI1074237408
(Vbootloader_flash_read
p3288
(lp3289
(L2699333355L
L0L
(lp3290
(lp3291
tp3292
a(L1005776710L
L3785322319L
(lp3293
(lp3294
Vesp_log_early_timestamp
p3295
atp3296
a(L44113432L
L0L
(lp3297
(lp3298
tp3299
a(L1299867982L
L0L
(lp3300
(lp3301
tp3302
a(L3360570486L
L0L
(lp3303
(lp3304
tp3305
a(L2660352519L
L0L
(lp3306
(lp3307
tp3308
a(L3132107867L
L3785322319L
(lp3309
(lp3310
Vesp_log_early_timestamp
p3311
atp3312
a(L162336582L
L0L
(lp3313
(lp3314
tp3315
a(L1181806992L
L3785322319L
(lp3316
(lp3317
Vesp_log_early_timestamp
p3318
atp3319
a(L3020204L
L0L
(lp3320
(lp3321
tp3322
a(L1398573769L
L0L
(lp3323
(lp3324
tp3325
a(L97422L
L0L
(lp3326
(lp3327
tp3328
a(L2529084006L
L0L
(lp3329
(lp3330
tp3331
a(L4090572440L
L0L
(lp3332
(lp3333
tp3334
a(L2013911144L
L3785322319L
(lp3335
(lp3336
Vesp_log_early_timestamp
p3337
atp3338
a(L2966071650L
L0L
(lp3339
(lp3340
tp3341
a(L2085841380L
L0L
(lp3342
(lp3343
tp3344
a(L2071481684L
L3785322319L
(lp3345
(lp3346
Vesp_rom_spiflash_read
p3347
atp3348
a(L106L
L0L
(lp3349
(lp3350
tp3351
a(L4213533114L
L0L
(lp3352
(lp3353
tp3354
atp3355
sI1074239712
(Vbootloader_utility_get_selected_boot_partition
p3356
(lp3357
(L2803238495L
L0L
(lp3358
(lp3359
tp3360
a(L1299867982L
L0L
(lp3361
(lp3362
tp3363
a(L3360570486L
L0L
(lp3364
(lp3365
tp3366
a(L3730620890L
L0L
(lp3367
(lp3368
tp3369
a(L3736493569L
L3785322319L
(lp3370
(lp3371
Vesp_log_early_timestamp
p3372
atp3373
a(L282377750L
L0L
(lp3374
(lp3375
tp3376
a(L1375577398L
L3785322319L
(lp3377
(lp3378
Vbootloader_mmap
p3379
atp3380
a(L3136715041L
L3785322319L
(lp3381
(lp3382
Vesp_log_early_timestamp
p3383
atp3384
a(L2467602750L
L1880226080L
(lp3385
(lp3386
Vbootloader_munmap
p3387
aVbootloader_common_ota_select_invalid
p3388
atp3389
a(L1103573946L
L0L
(lp3390
(lp3391
tp3392
a(L1876827316L
L3785322319L
(lp3393
(lp3394
Vbootloader_common_get_active_otadata
p3395
atp3396
a(L569346373L
L0L
(lp3397
(lp3398
tp3399
a(L3111084448L
L3785322319L
(lp3400
(lp3401
Vbootloader_common_ota_select_invalid
p3402
atp3403
a(L45272527L
L0L
(lp3404
(lp3405
tp3406
a(L847230968L
L0L
(lp3407
(lp3408
tp3409
a(L505081345L
L0L
(lp3410
(lp3411
tp3412
a(L919052234L
L3785322319L
(lp3413
(lp3414
Vbootloader_common_ota_select_crc
p3415
atp3416
a(L2287680455L
L0L
(lp3417
(lp3418
tp3419
a(L3542558037L
L3785322319L
(lp3420
(lp3421
Vbootloader_common_ota_select_crc
p3422
atp3423
a(L1299866312L
L0L
(lp3424
(lp3425
tp3426
a(L727015921L
L0L
(lp3427
(lp3428
tp3429
a(L1664731407L
L3785322319L
(lp3430
(lp3431
Vesp_log_early_timestamp
p3432
atp3433
a(L1367516498L
L0L
(lp3434
(lp3435
tp3436
a(L4142616567L
L3785322319L
(lp3437
(lp3438
Vesp_log_early_timestamp
p3439
atp3440
atp3441
sI1074239980
(Vbootloader_utility_load_boot_image_from_deep_sleep
p3442
(lp3443
(L1574311441L
L0L
(lp3444
(lp3445
tp3446
a(L3212347974L
L3785322319L
(lp3447
(lp3448
Vbootloader_common_get_rtc_retain_mem_partition
p3449
atp3450
a(L3236158686L
L3785322319L
(lp3451
(lp3452
Vbootloader_load_image_no_verify
p3453
atp3454
a(L1019486465L
L1832448559L
(lp3455
(lp3456
Vbootloader_common_update_rtc_retain_mem
p3457
aVbootloader_random_disable
p3458
aVunpack_load_app
p3459
atp3460
a(L3387825078L
L3785322319L
(lp3461
(lp3462
Vesp_log_early_timestamp
p3463
atp3464
a(L3360570486L
L0L
(lp3465
(lp3466
tp3467
atp3468
sI1074246376
(Vrtc_clk_xtal_freq_get
p3469
(lp3470
(L1867250771L
L0L
(lp3471
(lp3472
tp3473
a(L2847936993L
L0L
(lp3474
(lp3475
tp3476
a(L4096608437L
L0L
(lp3477
(lp3478
tp3479
a(L3360570486L
L0L
(lp3480
(lp3481
tp3482
atp3483
sI1074246632
(Vrtc_clk_xtal_freq_update
p3484
(lp3485
(L2896323702L
L0L
(lp3486
(lp3487
tp3488
a(L3509357017L
L0L
(lp3489
(lp3490
tp3491
a(L3020103887L
L0L
(lp3492
(lp3493
tp3494
atp3495
sI1074247144
(V_fini
p3496
(lp3497
(L3493042598L
L0L
(lp3498
(lp3499
tp3500
atp3501
sI1074235124
(Vbootloader_execute_flash_command
p3502
(lp3503
(L2481595632L
L3785322319L
(lp3504
(lp3505
Vbootloader_flash_execute_command_common
p3506
atp3507
atp3508
sI1074240756
(Vbootloader_util_regions_overlap
p3509
(lp3510
(L2762640130L
L0L
(lp3511
(lp3512
tp3513
a(L3840080044L
L0L
(lp3514
(lp3515
tp3516
a(L757568932L
L3785322319L
(lp3517
(lp3518
V__assert_func
p3519
atp3520
a(L97642L
L0L
(lp3521
(lp3522
tp3523
a(L345168354L
L0L
(lp3524
(lp3525
tp3526
a(L366123053L
L0L
(lp3527
(lp3528
tp3529
a(L2258867228L
L0L
(lp3530
(lp3531
tp3532
a(L1253626734L
L0L
(lp3533
(lp3534
tp3535
a(L2258897019L
L0L
(lp3536
(lp3537
tp3538
a(L3109269495L
L0L
(lp3539
(lp3540
tp3541
atp3542
sI1074245876
(Vrtc_clk_slow_freq_get
p3543
(lp3544
(L407040137L
L0L
(lp3545
(lp3546
tp3547
atp3548
sI1074239472
(Vtry_load_partition
p3549
(lp3550
(L2950885718L
L0L
(lp3551
(lp3552
tp3553
a(L984595082L
L3785322319L
(lp3554
(lp3555
Vbootloader_load_image
p3556
atp3557
a(L3871473710L
L0L
(lp3558
(lp3559
tp3560
atp3561
sI1074237692
(Vbootloader_flash_erase_sector
p3562
(lp3563
(L2049114289L
L3785322319L
(lp3564
(lp3565
Vesp_rom_spiflash_erase_sector
p3566
atp3567
a(L1768431736L
L0L
(lp3568
(lp3569
tp3570
a(L3360570486L
L0L
(lp3571
(lp3572
tp3573
atp3574
sI1074270196
(Vrtc_clk_cal_ratio
p3575
(lp3576
(L3671579574L
L3785322319L
(lp3577
(lp3578
Vrtc_clk_cal_internal
p3579
atp3580
atp3581
sI1074243320
(Vesp_rom_spiflash_wait_idle
p3582
(lp3583
(L3233076263L
L0L
(lp3584
(lp3585
tp3586
a(L2023766174L
L0L
(lp3587
(lp3588
tp3589
a(L2805934244L
L0L
(lp3590
(lp3591
tp3592
a(L3086959262L
L0L
(lp3593
(lp3594
tp3595
a(L4161019926L
L3785322319L
(lp3596
(lp3597
Vesp_rom_spiflash_read_status
p3598
atp3599
atp3600
ssS'functionsdups'
p3601
g11
((lp3602
tp3603
Rp3604
sS'immediatedups'
p3605
g11
((lp3606
tp3607
Rp3608
sS'functiondups'
p3609
g11
((lp3610
tp3611
Rp3612
sS'fuzzy'
p3613
(dp3614
L1536L
I1074240040
sL1048818438L
I1074267664
sL3121027072L
I1074269540
sL1655084846L
I1074237008
sL1340445289L
I1074235544
sL2281427319L
I1074244820
sL3538491111L
I1074246704
sL2919016435L
I1074235156
sL3889821517L
I1074239504
sL1645617665L
I1074269072
sL1540367692L
I1074268908
sL3519011870L
I1074239980
sL139070185L
I1074240404
sL2469233929L
I1074240568
sL4165097831L
I1074245024
sL1792232694L
I1074245292
sL2844724005L
I1074236864
sL3209093865L
I1074242936
sL3897252859L
I1074239388
sL765462929L
I1074267820
sL1065525808L
I1074236432
sL1766137975L
I1074239472
sL1035771659L
I1074237408
sL3768146080L
I1074238884
sL449860969L
I1074246416
sL3338164802L
I1074268228
sL2935879234L
I1074235448
sL31786791L
I1074236536
sL3210669721L
I1074245572
sL1332800441L
I1074236772
sL2884218272L
I1074267964
sL2689419264L
I1074245992
sL4202185385L
I1074243320
sL4160102055L
I1074267932
sL2453272040L
I1074269772
sL4171975289L
I1074243616
sL1565254297L
I1074243920
sL2474570535L
I1074237900
sL3428965560L
I1074246820
sL502463145L
I1074234624
sL812946199L
I1074237184
sL2276014668L
I1074267848
sL737694352L
I1074243428
sL503029138L
I1074243368
sL277788135L
I1074244008
sL3556172189L
I1074239244
sL2262558768L
I1074243228
sL424867129L
I1074243748
sL1554975810L
I1074237720
sL3834155367L
I1074240756
sL2236835362L
I1074240084
sL45390535L
I1074241288
sL3883282432L
I1074241168
sL4278077574L
I1074239712
sL1659748500L
I1074240812
sL4191211306L
I1074246504
ssb.