ccopy_reg
_reconstructor
p0
(crizzo
RizzoSignature
p1
c__builtin__
object
p2
Ntp3
Rp4
(dp5
S'formal'
p6
(dp7
L1451800968L
I1074245056
sL807601442L
I1074237200
sL4149167435L
I1074235652
sL2308102551L
I1074245928
sL63872459L
I1074238864
sL3724906243L
I1074244044
sL697116295L
I1074240596
sL511001445L
I1074239544
sL412791177L
I1074237120
sL407239505L
I1074268036
sL3677952800L
I1074237916
sL3657600793L
I1074240588
sL4213015302L
I1074243216
sL2915423193L
I1074267816
sL2387187817L
I1074240264
sL2821324810L
I1074240524
sL3839018225L
I1074245588
sL4171018936L
I1074245116
sL3733399714L
I1074241380
sL2088019793L
I1074269972
sL101828409L
I1074270500
sL1423502578L
I1074246928
sL3779471722L
I1074237424
sL1010441494L
I1074246712
sL1372212967L
I1074239496
sL828195954L
I1074244216
sL1907294622L
I1074245320
sL3622326748L
I1074245528
sL792622856L
I1074236664
sL2896295319L
I1074236560
sL1586248117L
I1074247116
sL2764194041L
I1074243524
sL3646197611L
I1074239916
sL3337558224L
I1074243664
sL2055743433L
I1074267932
sL2631703448L
I1074267840
sL2151970824L
I1074268380
sL4199465731L
I1074235920
sL3006998644L
I1074269812
sL3763701253L
I1074236396
sL744601145L
I1074235808
sL2620963430L
I1074237708
sL588580426L
I1074236896
sL1019781271L
I1074246272
sL3300353237L
I1074236800
sL3115205325L
I1074240780
sL2628725964L
I1074267139
sL3973527984L
I1074237736
sL1718199299L
I1074268084
sL2250254923L
I1074237076
sL1927214261L
I1074246056
sL3678001729L
I1074236948
sL2187354138L
I1074238900
sL2822171466L
I1074268008
sL2253665577L
I1074238008
sL515040205L
I1074240220
sL3009645030L
I1074246228
sL1704675870L
I1074268336
sL3307282855L
I1074237888
sL375822063L
I1074239276
sL612086517L
I1074235264
sL3412901885L
I1074246972
sL566836817L
I1074243616
sL337021838L
I1074245752
sL1935702265L
I1074247396
sL431329064L
I1074238480
sL2073470731L
I1074269180
sL2247738200L
I1074237372
sL2066463114L
I1074240968
sL3294288889L
I1074234732
sL3267469666L
I1074246672
sL48814668L
I1074243232
sL1156874576L
I1074236544
sL2993347781L
I1074235556
sL159131859L
I1074245452
sL2997001746L
I1074236856
sL3238385840L
I1074246188
sL3558781096L
I1074270044
sL1811049290L
I1074241500
sL3479489500L
I1074246104
sL2819127986L
I1074236820
sL1016152107L
I1074267732
sL3640229699L
I1074269164
sL2350083758L
I1074244304
sL1164083360L
I1074235608
sL2623794593L
I1074246800
sL2619688673L
I1074243724
sL3309795215L
I1074267884
sL3819331183L
I1074246288
sL2806338958L
I1074268116
sL527691710L
I1074243912
sL664861038L
I1074245196
sL734653982L
I1074245868
sL484396807L
I1074245040
sL2263182908L
I1074237908
sL830327460L
I1074246080
sL3832792751L
I1074246172
sL188664287L
I1074235232
sL1797519298L
I1074236632
sL2624920471L
I1074270468
sL1212060637L
I1074247000
sL692536993L
I1074237092
sL1888781180L
I1074238796
sL2763704918L
I1074239360
sL3995976925L
I1074240616
sL271784645L
I1074241024
sL1451532668L
I1074269344
sL213703233L
I1074245072
ssS'immediates'
p8
(dp9
sS'formaldups'
p10
c__builtin__
set
p11
((lp12
tp13
Rp14
sS'stringdups'
p15
g11
((lp16
tp17
Rp18
sS'fuzzydups'
p19
g11
((lp20
tp21
Rp22
sS'strings'
p23
(dp24
sS'functions'
p25
(dp26
I1074235652
(Vbootloader_flash_xmc_startup
p27
(lp28
(L4031258446L
L3785322319L
(lp29
(lp30
Vis_xmc_chip_strict
p31
atp32
a(L2258688482L
L0L
(lp33
(lp34
tp35
a(L3360570486L
L0L
(lp36
(lp37
tp38
a(L2860324232L
L3785322319L
(lp39
(lp40
Vbootloader_flash_read_sfdp
p41
atp42
a(L3354428414L
L2567856111L
(lp43
(lp44
Vesp_log_early_timestamp
p45
aVbootloader_execute_flash_command
p46
aVbootloader_execute_flash_command
p47
aVbootloader_execute_flash_command
p48
aVbootloader_execute_flash_command
p49
aVbootloader_read_flash_id
p50
aVis_xmc_chip_strict
p51
atp52
a(L3332645139L
L3785322319L
(lp53
(lp54
Vesp_log_early_timestamp
p55
atp56
atp57
sI1074241024
(Vverify_load_addresses
p58
(lp59
(L2763563698L
L0L
(lp60
(lp61
tp62
a(L106L
L0L
(lp63
(lp64
tp65
a(L97642L
L0L
(lp66
(lp67
tp68
a(L1443883331L
L3785322319L
(lp69
(lp70
V__assert_func
p71
atp72
a(L993213158L
L0L
(lp73
(lp74
tp75
a(L106L
L0L
(lp76
(lp77
tp78
a(L4236120437L
L0L
(lp79
(lp80
tp81
a(L106L
L0L
(lp82
(lp83
tp84
a(L670623950L
L3785322319L
(lp85
(lp86
Vbootloader_util_regions_overlap
p87
atp88
a(L3693032374L
L3785322319L
(lp89
(lp90
Vbootloader_util_regions_overlap
p91
atp92
a(L3028481L
L0L
(lp93
(lp94
tp95
a(L2097688734L
L3785322319L
(lp96
(lp97
Vbootloader_util_regions_overlap
p98
atp99
a(L3557287766L
L0L
(lp100
(lp101
tp102
a(L2320741126L
L0L
(lp103
(lp104
tp105
a(L176738853L
L0L
(lp106
(lp107
tp108
a(L1942703967L
L0L
(lp109
(lp110
tp111
a(L642339957L
L0L
(lp112
(lp113
tp114
a(L677569396L
L3785322319L
(lp115
(lp116
Vverify_load_addresses
p117
atp118
a(L1351513776L
L0L
(lp119
(lp120
tp121
a(L151545024L
L0L
(lp122
(lp123
tp124
a(L3099128907L
L0L
(lp125
(lp126
tp127
a(L2699739254L
L3785322319L
(lp128
(lp129
Vbootloader_util_regions_overlap
p130
atp131
a(L3028481L
L0L
(lp132
(lp133
tp134
a(L648569373L
L3785322319L
(lp135
(lp136
Vbootloader_util_regions_overlap
p137
atp138
a(L91328703L
L0L
(lp139
(lp140
tp141
a(L2077295999L
L0L
(lp142
(lp143
tp144
a(L1207773323L
L0L
(lp145
(lp146
tp147
a(L106L
L0L
(lp148
(lp149
tp150
a(L3665799262L
L0L
(lp151
(lp152
tp153
a(L3825488409L
L0L
(lp154
(lp155
tp156
a(L955487275L
L0L
(lp157
(lp158
tp159
a(L307916819L
L0L
(lp160
(lp161
tp162
a(L490080443L
L0L
(lp163
(lp164
tp165
a(L106L
L0L
(lp166
(lp167
tp168
a(L3632101660L
L3785322319L
(lp169
(lp170
Vesp_log_early_timestamp
p171
atp172
a(L955486655L
L0L
(lp173
(lp174
tp175
a(L1303560427L
L0L
(lp176
(lp177
tp178
atp179
sI1074267136
(V_init
p180
(lp181
(L3493042598L
L0L
(lp182
(lp183
tp184
atp185
sI1074240780
(Vbootloader_sha256_finish
p186
(lp187
(L4066096136L
L0L
(lp188
(lp189
tp190
a(L3454340660L
L0L
(lp191
(lp192
tp193
a(L2647092898L
L3785322319L
(lp194
(lp195
V__assert_func
p196
atp197
a(L3020204L
L0L
(lp198
(lp199
tp200
a(L3125040299L
L0L
(lp201
(lp202
tp203
a(L2534656226L
L0L
(lp204
(lp205
tp206
a(L784507711L
L3785322319L
(lp207
(lp208
Vbootloader_sha256_data
p209
atp210
a(L4017254527L
L0L
(lp211
(lp212
tp213
a(L3748946459L
L3785322319L
(lp214
(lp215
Vbootloader_sha256_data
p216
atp217
a(L208880134L
L0L
(lp218
(lp219
tp220
a(L67884924L
L0L
(lp221
(lp222
tp223
a(L1868567730L
L0L
(lp224
(lp225
tp226
a(L67884924L
L0L
(lp227
(lp228
tp229
a(L3901819405L
L0L
(lp230
(lp231
tp232
a(L3942420762L
L0L
(lp233
(lp234
tp235
a(L3347778L
L0L
(lp236
(lp237
tp238
a(L3360570486L
L0L
(lp239
(lp240
tp241
atp242
sI1074237708
(Vbootloader_flash_erase_sector
p243
(lp244
(L2049114289L
L3785322319L
(lp245
(lp246
Vesp_rom_spiflash_erase_sector
p247
atp248
a(L1025033345L
L0L
(lp249
(lp250
tp251
a(L3360570486L
L0L
(lp252
(lp253
tp254
atp255
sI1074240524
(Vindex_to_partition
p256
(lp257
(L4066096119L
L0L
(lp258
(lp259
tp260
a(L1739185955L
L0L
(lp261
(lp262
tp263
a(L2171552758L
L0L
(lp264
(lp265
tp266
a(L2808906342L
L0L
(lp267
(lp268
tp269
a(L2101481936L
L0L
(lp270
(lp271
tp272
a(L3698927993L
L0L
(lp273
(lp274
tp275
a(L2808826781L
L0L
(lp276
(lp277
tp278
a(L2911029954L
L0L
(lp279
(lp280
tp281
a(L1104460200L
L0L
(lp282
(lp283
tp284
a(L1087646172L
L0L
(lp285
(lp286
tp287
atp288
sI1074267139
(V_text_start
p289
(lp290
(L2557086379L
L0L
(lp291
(lp292
tp293
atp294
sI1074270468
(Vrtc_clk_cal_ratio
p295
(lp296
(L1093850397L
L3785322319L
(lp297
(lp298
Vrtc_clk_cal_internal
p299
atp300
atp301
sI1074240264
(Vbootloader_utility_load_boot_image
p302
(lp303
(L1561528311L
L0L
(lp304
(lp305
tp306
a(L2177418995L
L3785322319L
(lp307
(lp308
Vtry_load_partition
p309
atp310
a(L2749106626L
L3785322319L
(lp311
(lp312
Vload_image
p313
atp314
a(L370578032L
L3785322319L
(lp315
(lp316
Vesp_log_early_timestamp
p317
atp318
a(L3827921190L
L3785322319L
(lp319
(lp320
Vbootloader_reset
p321
atp322
a(L2542673780L
L3785322319L
(lp323
(lp324
Vindex_to_partition
p325
atp326
a(L1204373741L
L3785322319L
(lp327
(lp328
Vtry_load_partition
p329
atp330
a(L3020187L
L0L
(lp331
(lp332
tp333
a(L494501264L
L0L
(lp334
(lp335
tp336
a(L2070875117L
L3785322319L
(lp337
(lp338
Vset_actual_ota_seq
p339
atp340
a(L1868897605L
L3785322319L
(lp341
(lp342
Vlog_invalid_app_partition
p343
atp344
a(L831650730L
L0L
(lp345
(lp346
tp347
a(L3021737L
L0L
(lp348
(lp349
tp350
a(L2044488255L
L0L
(lp351
(lp352
tp353
a(L3253133349L
L3785322319L
(lp354
(lp355
Vtry_load_partition
p356
atp357
a(L255168962L
L3785322319L
(lp358
(lp359
Vesp_log_early_timestamp
p360
atp361
a(L2185156151L
L3785322319L
(lp362
(lp363
Vindex_to_partition
p364
atp365
a(L1074657773L
L3785322319L
(lp366
(lp367
Vtry_load_partition
p368
atp369
a(L3027024L
L0L
(lp370
(lp371
tp372
a(L2022167053L
L0L
(lp373
(lp374
tp375
a(L3061261803L
L0L
(lp376
(lp377
tp378
a(L3582858798L
L3785322319L
(lp379
(lp380
Vlog_invalid_app_partition
p381
atp382
a(L1240683097L
L3785322319L
(lp383
(lp384
Vesp_log_early_timestamp
p385
atp386
atp387
sI1074239496
(Vtry_load_partition
p388
(lp389
(L1263750142L
L0L
(lp390
(lp391
tp392
a(L2258688482L
L0L
(lp393
(lp394
tp395
a(L3360570486L
L0L
(lp396
(lp397
tp398
a(L530241438L
L3785322319L
(lp399
(lp400
Vbootloader_load_image
p401
atp402
a(L2953778475L
L3785322319L
(lp403
(lp404
Vesp_log_early_timestamp
p405
atp406
atp407
sI1074236948
(Vbootloader_common_check_chip_validity
p408
(lp409
(L894048467L
L0L
(lp410
(lp411
tp412
a(L2493885028L
L3785322319L
(lp413
(lp414
Vesp_log_early_timestamp
p415
atp416
a(L292074472L
L3785322319L
(lp417
(lp418
Vbootloader_common_get_chip_revision
p419
atp420
a(L4032671233L
L3785322319L
(lp421
(lp422
Vesp_log_early_timestamp
p423
atp424
a(L3871473710L
L0L
(lp425
(lp426
tp427
a(L97422L
L0L
(lp428
(lp429
tp430
a(L2414545599L
L3785322319L
(lp431
(lp432
Vesp_log_early_timestamp
p433
atp434
a(L4151320241L
L0L
(lp435
(lp436
tp437
a(L106738108L
L0L
(lp438
(lp439
tp440
atp441
sI1074267932
(Vbootloader_config_wdt
p442
(lp443
(L2467684822L
L665916544L
(lp444
(lp445
Vrtc_wdt_protect_off
p446
aVrtc_wdt_disable
p447
aVrtc_wdt_set_length_of_reset_signal
p448
aVrtc_wdt_set_length_of_reset_signal
p449
aVrtc_wdt_set_stage
p450
aVrtc_wdt_set_time
p451
aVrtc_wdt_enable
p452
aVrtc_wdt_protect_on
p453
atp454
atp455
sI1074247440
(V_fini
p456
(lp457
(L3493042598L
L0L
(lp458
(lp459
tp460
atp461
sI1074246928
(Vrtc_clk_xtal_freq_update
p462
(lp463
(L3478075158L
L0L
(lp464
(lp465
tp466
a(L3509357017L
L0L
(lp467
(lp468
tp469
a(L3020103887L
L0L
(lp470
(lp471
tp472
atp473
sI1074237200
(Vbootloader_mmap
p474
(lp475
(L228257734L
L0L
(lp476
(lp477
tp478
a(L3959452980L
L3785322319L
(lp479
(lp480
Vesp_log_early_timestamp
p481
atp482
a(L1182811810L
L0L
(lp483
(lp484
tp485
a(L3496950L
L0L
(lp486
(lp487
tp488
a(L1605824514L
L0L
(lp489
(lp490
tp491
a(L1617541933L
L3785322319L
(lp492
(lp493
Vesp_log_early_timestamp
p494
atp495
a(L1893103147L
L0L
(lp496
(lp497
tp498
a(L1338580999L
L3785322319L
(lp499
(lp500
Vesp_log_early_timestamp
p501
atp502
a(L3851658203L
L0L
(lp503
(lp504
tp505
atp506
sI1074235920
(Vbootloader_flash_gpio_config
p507
(lp508
(L1818134387L
L0L
(lp509
(lp510
tp511
a(L106L
L0L
(lp512
(lp513
tp514
a(L2886083034L
L0L
(lp515
(lp516
tp517
a(L106L
L0L
(lp518
(lp519
tp520
a(L764306525L
L0L
(lp521
(lp522
tp523
a(L1950832592L
L0L
(lp524
(lp525
tp526
a(L106L
L0L
(lp527
(lp528
tp529
a(L285055546L
L0L
(lp530
(lp531
tp532
a(L1291226339L
L0L
(lp533
(lp534
tp535
a(L3360570486L
L0L
(lp536
(lp537
tp538
atp539
sI1074238480
(Vbootloader_random_disable
p540
(lp541
(L3017874659L
L0L
(lp542
(lp543
tp544
atp545
sI1074246672
(Vrtc_clk_xtal_freq_get
p546
(lp547
(L589915886L
L0L
(lp548
(lp549
tp550
a(L2847936993L
L0L
(lp551
(lp552
tp553
a(L1071097192L
L0L
(lp554
(lp555
tp556
a(L3360570486L
L0L
(lp557
(lp558
tp559
atp560
sI1074246172
(Vrtc_clk_slow_freq_get
p561
(lp562
(L727809059L
L0L
(lp563
(lp564
tp565
atp566
sI1074269972
(Vrtc_vddsdio_set_config
p567
(lp568
(L3913860825L
L0L
(lp569
(lp570
tp571
atp572
sI1074243616
(Vesp_rom_spiflash_wait_idle
p573
(lp574
(L3233075732L
L0L
(lp575
(lp576
tp577
a(L2023766174L
L0L
(lp578
(lp579
tp580
a(L2805933713L
L0L
(lp581
(lp582
tp583
a(L3086959262L
L0L
(lp584
(lp585
tp586
a(L4161019926L
L3785322319L
(lp587
(lp588
Vesp_rom_spiflash_read_status
p589
atp590
atp591
sI1074239276
(Vlog_invalid_app_partition
p592
(lp593
(L2294048375L
L0L
(lp594
(lp595
tp596
a(L3028464L
L0L
(lp597
(lp598
tp599
a(L258990391L
L3785322319L
(lp600
(lp601
Vesp_log_early_timestamp
p602
atp603
a(L44113432L
L0L
(lp604
(lp605
tp606
a(L3360570486L
L0L
(lp607
(lp608
tp609
a(L1770524876L
L3785322319L
(lp610
(lp611
Vesp_log_early_timestamp
p612
atp613
a(L2487557571L
L3785322319L
(lp614
(lp615
Vesp_log_early_timestamp
p616
atp617
atp618
sI1074246188
(Vrtc_clk_slow_freq_get_hz
p619
(lp620
(L3830366334L
L0L
(lp621
(lp622
tp623
a(L1090566037L
L0L
(lp624
(lp625
tp626
a(L1187777354L
L0L
(lp627
(lp628
tp629
a(L3360570486L
L0L
(lp630
(lp631
tp632
atp633
sI1074270500
(Vrtc_clk_wait_for_slow_cycle
p634
(lp635
(L1548512584L
L0L
(lp636
(lp637
tp638
a(L1530813034L
L0L
(lp639
(lp640
tp641
a(L3360570486L
L0L
(lp642
(lp643
tp644
atp645
sI1074245928
(Vrtc_clk_8m_enable
p646
(lp647
(L3182564142L
L0L
(lp648
(lp649
tp650
a(L1477848597L
L0L
(lp651
(lp652
tp653
a(L2151320156L
L0L
(lp654
(lp655
tp656
a(L1391734358L
L0L
(lp657
(lp658
tp659
a(L3360570486L
L0L
(lp660
(lp661
tp662
a(L1318267208L
L0L
(lp663
(lp664
tp665
a(L2506900513L
L0L
(lp666
(lp667
tp668
atp669
sI1074237736
(Vbootloader_flash_write
p670
(lp671
(L3119145091L
L0L
(lp672
(lp673
tp674
a(L3913638753L
L3785322319L
(lp675
(lp676
Vesp_log_early_timestamp
p677
atp678
a(L44113432L
L0L
(lp679
(lp680
tp681
a(L1610445075L
L0L
(lp682
(lp683
tp684
a(L735741265L
L0L
(lp685
(lp686
tp687
a(L3291333414L
L0L
(lp688
(lp689
tp690
a(L2835527779L
L3785322319L
(lp691
(lp692
Vesp_log_early_timestamp
p693
atp694
a(L3283691850L
L0L
(lp695
(lp696
tp697
a(L1726507814L
L3785322319L
(lp698
(lp699
Vesp_log_early_timestamp
p700
atp701
a(L3212356251L
L3785322319L
(lp702
(lp703
Vbootloader_flash_unlock
p704
atp705
a(L4210907913L
L0L
(lp706
(lp707
tp708
a(L94425498L
L3785322319L
(lp709
(lp710
Vesp_rom_spiflash_write_encrypted
p711
atp712
a(L93674324L
L0L
(lp713
(lp714
tp715
a(L3947497578L
L0L
(lp716
(lp717
tp718
a(L2927190544L
L3785322319L
(lp719
(lp720
Vesp_rom_spiflash_write
p721
atp722
atp723
sI1074246972
(Vrtc_clk_apb_freq_update
p724
(lp725
(L1841704389L
L0L
(lp726
(lp727
tp728
atp729
sI1074238008
(Vbootloader_random_enable
p730
(lp731
(L1116289920L
L0L
(lp732
(lp733
tp734
atp735
sI1074239544
(Vbootloader_utility_load_partition_table
p736
(lp737
(L709092443L
L3785322319L
(lp738
(lp739
Vbootloader_mmap
p740
atp741
a(L4068204556L
L3785322319L
(lp742
(lp743
Vesp_log_early_timestamp
p744
atp745
a(L2258688482L
L0L
(lp746
(lp747
tp748
a(L3360570486L
L0L
(lp749
(lp750
tp751
a(L2379286607L
L3785322319L
(lp752
(lp753
Vesp_partition_table_verify
p754
atp755
a(L2778706912L
L3785322319L
(lp756
(lp757
Vesp_log_early_timestamp
p758
atp759
a(L2568682452L
L1880226080L
(lp760
(lp761
Vesp_log_early_timestamp
p762
aVesp_log_early_timestamp
p763
atp764
a(L60599615L
L0L
(lp765
(lp766
tp767
a(L4283367865L
L1880226080L
(lp768
(lp769
Vbootloader_munmap
p770
aVesp_log_early_timestamp
p771
atp772
a(L4226553678L
L0L
(lp773
(lp774
tp775
a(L3028464L
L0L
(lp776
(lp777
tp778
a(L106L
L0L
(lp779
(lp780
tp781
a(L307915920L
L0L
(lp782
(lp783
tp784
a(L3005152963L
L3785322319L
(lp785
(lp786
Vesp_log_early_timestamp
p787
atp788
a(L3990577774L
L0L
(lp789
(lp790
tp791
a(L3020187L
L0L
(lp792
(lp793
tp794
a(L2699205014L
L0L
(lp795
(lp796
tp797
a(L1154516215L
L0L
(lp798
(lp799
tp800
a(L2539298880L
L0L
(lp801
(lp802
tp803
a(L1308296229L
L0L
(lp804
(lp805
tp806
a(L2202822289L
L0L
(lp807
(lp808
tp809
a(L1427020068L
L0L
(lp810
(lp811
tp812
a(L955461328L
L0L
(lp813
(lp814
tp815
atp816
sI1074246712
(Vrtc_clk_cpu_freq_mhz_to_config
p817
(lp818
(L2601984125L
L3785322319L
(lp819
(lp820
Vrtc_clk_xtal_freq_get
p821
atp822
a(L2089656409L
L0L
(lp823
(lp824
tp825
a(L3814337874L
L0L
(lp826
(lp827
tp828
a(L3126521138L
L0L
(lp829
(lp830
tp831
a(L2762074623L
L0L
(lp832
(lp833
tp834
a(L1541996779L
L0L
(lp835
(lp836
tp837
a(L2916936348L
L0L
(lp838
(lp839
tp840
a(L1555485793L
L0L
(lp841
(lp842
tp843
a(L2258897023L
L0L
(lp844
(lp845
tp846
a(L1947499251L
L0L
(lp847
(lp848
tp849
a(L1306331021L
L0L
(lp850
(lp851
tp852
atp853
sI1074245452
(Vrtc_wdt_set_length_of_reset_signal
p854
(lp855
(L607216364L
L0L
(lp856
(lp857
tp858
a(L93674324L
L0L
(lp859
(lp860
tp861
a(L864199626L
L0L
(lp862
(lp863
tp864
a(L3225276746L
L0L
(lp865
(lp866
tp867
a(L3360570486L
L0L
(lp868
(lp869
tp870
a(L4190460041L
L0L
(lp871
(lp872
tp873
a(L1235012901L
L0L
(lp874
(lp875
tp876
atp877
sI1074245196
(Vrtc_wdt_set_stage
p878
(lp879
(L607216364L
L0L
(lp880
(lp881
tp882
a(L93674324L
L0L
(lp883
(lp884
tp885
a(L3805857225L
L0L
(lp886
(lp887
tp888
a(L4173808123L
L0L
(lp889
(lp890
tp891
a(L3360570486L
L0L
(lp892
(lp893
tp894
a(L3028464L
L0L
(lp895
(lp896
tp897
a(L2394627369L
L0L
(lp898
(lp899
tp900
a(L1060688304L
L0L
(lp901
(lp902
tp903
a(L1299866312L
L0L
(lp904
(lp905
tp906
a(L3028464L
L0L
(lp907
(lp908
tp909
a(L2998981922L
L0L
(lp910
(lp911
tp912
a(L3819930083L
L0L
(lp913
(lp914
tp915
a(L1235012901L
L0L
(lp916
(lp917
tp918
atp919
sI1074238796
(Vbootloader_common_get_chip_revision
p920
(lp921
(L1903394089L
L0L
(lp922
(lp923
tp924
a(L1505435816L
L0L
(lp925
(lp926
tp927
a(L3360570486L
L0L
(lp928
(lp929
tp930
atp931
sI1074240588
(Vbootloader_debug_buffer
p932
(lp933
(L2100504542L
L0L
(lp934
(lp935
tp936
atp937
sI1074243912
(Vesp_rom_spiflash_erase_sector
p938
(lp939
(L1867750039L
L0L
(lp940
(lp941
tp942
a(L2258688483L
L0L
(lp943
(lp944
tp945
a(L3360570486L
L0L
(lp946
(lp947
tp948
a(L3212356251L
L3785322319L
(lp949
(lp950
Vesp_rom_spiflash_enable_write
p951
atp952
a(L184152988L
L0L
(lp953
(lp954
tp955
a(L2061669622L
L3785322319L
(lp956
(lp957
Vesp_rom_spiflash_wait_idle
p958
atp959
a(L3333707777L
L0L
(lp960
(lp961
tp962
a(L3582858798L
L3785322319L
(lp963
(lp964
Vesp_rom_spiflash_wait_idle
p965
atp966
atp967
sI1074240596
(Vbootloader_sha256_start
p968
(lp969
(L3681654819L
L0L
(lp970
(lp971
tp972
atp973
sI1074246228
(Vrtc_clk_fast_freq_set
p974
(lp975
(L3723386112L
L0L
(lp976
(lp977
tp978
atp979
sI1074270044
(Vrtc_clk_cal_internal
p980
(lp981
(L718857607L
L0L
(lp982
(lp983
tp984
a(L1760533871L
L3785322319L
(lp985
(lp986
V__assert_func
p987
atp988
a(L1075776804L
L0L
(lp989
(lp990
tp991
a(L3017366L
L0L
(lp992
(lp993
tp994
a(L2781091364L
L0L
(lp995
(lp996
tp997
a(L4169864463L
L1880226080L
(lp998
(lp999
Vrtc_clk_8m_enabled
p1000
aVrtc_clk_8md256_enabled
p1001
atp1002
a(L2455610324L
L3785322319L
(lp1003
(lp1004
Vrtc_clk_8m_enable
p1005
atp1006
a(L77095637L
L0L
(lp1007
(lp1008
tp1009
a(L3502850147L
L0L
(lp1010
(lp1011
tp1012
a(L97689L
L0L
(lp1013
(lp1014
tp1015
a(L434663828L
L0L
(lp1016
(lp1017
tp1018
a(L3028464L
L0L
(lp1019
(lp1020
tp1021
a(L3028481L
L0L
(lp1022
(lp1023
tp1024
a(L3450945665L
L0L
(lp1025
(lp1026
tp1027
a(L1448815776L
L3785322319L
(lp1028
(lp1029
Vrtc_clk_xtal_freq_get
p1030
atp1031
a(L2780079961L
L0L
(lp1032
(lp1033
tp1034
a(L1119378077L
L0L
(lp1035
(lp1036
tp1037
a(L3033962046L
L3785322319L
(lp1038
(lp1039
Vesp_log_early_timestamp
p1040
atp1041
a(L3360570486L
L0L
(lp1042
(lp1043
tp1044
a(L726413673L
L0L
(lp1045
(lp1046
tp1047
a(L472696051L
L0L
(lp1048
(lp1049
tp1050
a(L3028481L
L0L
(lp1051
(lp1052
tp1053
a(L2811015628L
L0L
(lp1054
(lp1055
tp1056
a(L755155573L
L3785322319L
(lp1057
(lp1058
Vrtc_clk_8m_enable
p1059
atp1060
a(L3631005548L
L0L
(lp1061
(lp1062
tp1063
a(L4121524873L
L0L
(lp1064
(lp1065
tp1066
a(L3352263364L
L0L
(lp1067
(lp1068
tp1069
atp1070
sI1074243664
(Vesp_rom_spiflash_enable_write
p1071
(lp1072
(L699309791L
L3785322319L
(lp1073
(lp1074
Vesp_rom_spiflash_wait_idle
p1075
atp1076
a(L3137194272L
L0L
(lp1077
(lp1078
tp1079
a(L2258718275L
L0L
(lp1080
(lp1081
tp1082
a(L99543895L
L0L
(lp1083
(lp1084
tp1085
a(L2993202392L
L0L
(lp1086
(lp1087
tp1088
a(L1804543818L
L3785322319L
(lp1089
(lp1090
Vesp_rom_spiflash_read_status
p1091
atp1092
atp1093
sI1074267732
(Vcall_start_cpu0
p1094
(lp1095
(L1974457732L
L3785322319L
(lp1096
(lp1097
Vbootloader_init
p1098
atp1099
a(L94425498L
L3785322319L
(lp1100
(lp1101
Vbootloader_reset
p1102
atp1103
a(L2802776775L
L3785322319L
(lp1104
(lp1105
Vbootloader_utility_load_partition_table
p1106
atp1107
a(L4026389016L
L3785322319L
(lp1108
(lp1109
Vesp_log_early_timestamp
p1110
atp1111
a(L2395089516L
L3785322319L
(lp1112
(lp1113
Vbootloader_utility_get_selected_boot_partition
p1114
atp1115
a(L2086982338L
L1880226080L
(lp1116
(lp1117
Vbootloader_common_get_reset_reason
p1118
aVbootloader_utility_load_boot_image
p1119
atp1120
atp1121
sI1074247000
(Vrtc_clk_cpu_freq_to_xtal
p1122
(lp1123
(L3883893093L
L3785322319L
(lp1124
(lp1125
Vrtc_clk_apb_freq_update
p1126
atp1127
a(L702736286L
L0L
(lp1128
(lp1129
tp1130
a(L277445412L
L0L
(lp1131
(lp1132
tp1133
a(L309990073L
L0L
(lp1134
(lp1135
tp1136
atp1137
sI1074268008
(Vbootloader_enable_random
p1138
(lp1139
(L2316579616L
L1880226080L
(lp1140
(lp1141
Vesp_log_early_timestamp
p1142
aVbootloader_random_enable
p1143
atp1144
atp1145
sI1074241380
(Vshould_load
p1146
(lp1147
(L2221508439L
L0L
(lp1148
(lp1149
tp1150
a(L1182990556L
L0L
(lp1151
(lp1152
tp1153
a(L2314371828L
L0L
(lp1154
(lp1155
tp1156
a(L1298905564L
L0L
(lp1157
(lp1158
tp1159
a(L524505062L
L0L
(lp1160
(lp1161
tp1162
a(L2258897019L
L0L
(lp1163
(lp1164
tp1165
a(L3781799363L
L0L
(lp1166
(lp1167
tp1168
a(L3028464L
L0L
(lp1169
(lp1170
tp1171
a(L3972500701L
L0L
(lp1172
(lp1173
tp1174
a(L542581680L
L0L
(lp1175
(lp1176
tp1177
a(L307469760L
L0L
(lp1178
(lp1179
tp1180
a(L4185756579L
L0L
(lp1181
(lp1182
tp1183
a(L3458855836L
L0L
(lp1184
(lp1185
tp1186
a(L3126521138L
L0L
(lp1187
(lp1188
tp1189
a(L1305407438L
L0L
(lp1190
(lp1191
tp1192
a(L1305407469L
L0L
(lp1193
(lp1194
tp1195
atp1196
sI1074235232
(Vbootloader_execute_flash_command
p1197
(lp1198
(L2481595632L
L3785322319L
(lp1199
(lp1200
Vbootloader_flash_execute_command_common
p1201
atp1202
atp1203
sI1074234732
(Vbootloader_flash_execute_command_common
p1204
(lp1205
(L630859308L
L0L
(lp1206
(lp1207
tp1208
a(L120556193L
L0L
(lp1209
(lp1210
tp1211
a(L2925418774L
L3785322319L
(lp1212
(lp1213
V__assert_func
p1214
atp1215
a(L3021749L
L0L
(lp1216
(lp1217
tp1218
a(L153201683L
L0L
(lp1219
(lp1220
tp1221
a(L3132325827L
L0L
(lp1222
(lp1223
tp1224
a(L1782874522L
L0L
(lp1225
(lp1226
tp1227
a(L4024113366L
L0L
(lp1228
(lp1229
tp1230
a(L2147958864L
L0L
(lp1231
(lp1232
tp1233
a(L831940355L
L0L
(lp1234
(lp1235
tp1236
a(L2039827138L
L0L
(lp1237
(lp1238
tp1239
a(L2429937038L
L0L
(lp1240
(lp1241
tp1242
a(L2186295391L
L0L
(lp1243
(lp1244
tp1245
a(L3079186448L
L0L
(lp1246
(lp1247
tp1248
a(L3333696662L
L0L
(lp1249
(lp1250
tp1251
a(L963425213L
L0L
(lp1252
(lp1253
tp1254
a(L3172016656L
L0L
(lp1255
(lp1256
tp1257
a(L3360570486L
L0L
(lp1258
(lp1259
tp1260
a(L1184240068L
L0L
(lp1261
(lp1262
tp1263
atp1264
sI1074240616
(Vbootloader_sha256_data
p1265
(lp1266
(L4066096136L
L0L
(lp1267
(lp1268
tp1269
a(L2260742000L
L0L
(lp1270
(lp1271
tp1272
a(L2647092898L
L3785322319L
(lp1273
(lp1274
V__assert_func
p1275
atp1276
a(L498498478L
L0L
(lp1277
(lp1278
tp1279
a(L3709377583L
L0L
(lp1280
(lp1281
tp1282
a(L2910371777L
L0L
(lp1283
(lp1284
tp1285
a(L3360570486L
L0L
(lp1286
(lp1287
tp1288
a(L4009936222L
L0L
(lp1289
(lp1290
tp1291
a(L541898147L
L0L
(lp1292
(lp1293
tp1294
a(L3749711816L
L0L
(lp1295
(lp1296
tp1297
a(L3036055637L
L0L
(lp1298
(lp1299
tp1300
a(L97689L
L0L
(lp1301
(lp1302
tp1303
a(L2032890799L
L0L
(lp1304
(lp1305
tp1306
a(L3028464L
L0L
(lp1307
(lp1308
tp1309
a(L4189820752L
L0L
(lp1310
(lp1311
tp1312
a(L3981992983L
L0L
(lp1313
(lp1314
tp1315
a(L1064259968L
L0L
(lp1316
(lp1317
tp1318
atp1319
sI1074269812
(Vrtc_vddsdio_get_config
p1320
(lp1321
(L228836296L
L0L
(lp1322
(lp1323
tp1324
a(L147025923L
L0L
(lp1325
(lp1326
tp1327
a(L318395269L
L0L
(lp1328
(lp1329
tp1330
a(L327863770L
L0L
(lp1331
(lp1332
tp1333
a(L3408722460L
L0L
(lp1334
(lp1335
tp1336
a(L1116012092L
L0L
(lp1337
(lp1338
tp1339
a(L1719615367L
L0L
(lp1340
(lp1341
tp1342
a(L1125273547L
L0L
(lp1343
(lp1344
tp1345
atp1346
sI1074244216
(Vesp_rom_spiflash_write_encrypted
p1347
(lp1348
(L2107077087L
L0L
(lp1349
(lp1350
tp1351
a(L1681405201L
L0L
(lp1352
(lp1353
tp1354
a(L97689L
L0L
(lp1355
(lp1356
tp1357
a(L3061232074L
L0L
(lp1358
(lp1359
tp1360
a(L1984471991L
L0L
(lp1361
(lp1362
tp1363
a(L2903314395L
L3785322319L
(lp1364
(lp1365
Vesp_rom_spiflash_write
p1366
atp1367
a(L439692982L
L0L
(lp1368
(lp1369
tp1370
a(L735741265L
L0L
(lp1371
(lp1372
tp1373
atp1374
sI1074245752
(Vrtc_clk_32k_enable_common
p1375
(lp1376
(L752898243L
L0L
(lp1377
(lp1378
tp1379
atp1380
sI1074239360
(Vset_actual_ota_seq
p1381
(lp1382
(L3626749263L
L3785322319L
(lp1383
(lp1384
Vbootloader_common_ota_select_crc
p1385
atp1386
a(L3028481L
L0L
(lp1387
(lp1388
tp1389
a(L1342993088L
L3785322319L
(lp1390
(lp1391
Vbootloader_flash_erase_sector
p1392
atp1393
a(L2908486002L
L3785322319L
(lp1394
(lp1395
Vbootloader_flash_write
p1396
atp1397
a(L1960586221L
L3785322319L
(lp1398
(lp1399
Vesp_log_early_timestamp
p1400
atp1401
a(L2013838587L
L3785322319L
(lp1402
(lp1403
Vesp_log_early_timestamp
p1404
atp1405
a(L3016870L
L0L
(lp1406
(lp1407
tp1408
a(L3971861743L
L0L
(lp1409
(lp1410
tp1411
a(L957607403L
L0L
(lp1412
(lp1413
tp1414
atp1415
sI1074236800
(Vbootloader_common_ota_select_crc
p1416
(lp1417
(L1387808763L
L0L
(lp1418
(lp1419
tp1420
atp1421
sI1074236544
(Vesp_cpu_in_ocd_debug_mode
p1422
(lp1423
(L2131426160L
L0L
(lp1424
(lp1425
tp1426
atp1427
sI1074235264
(Vbootloader_flash_unlock
p1428
(lp1429
(L142706334L
L3785322319L
(lp1430
(lp1431
Vesp_rom_spiflash_wait_idle
p1432
atp1433
a(L4024621237L
L0L
(lp1434
(lp1435
tp1436
a(L4292483033L
L3785322319L
(lp1437
(lp1438
Vbootloader_execute_flash_command
p1439
atp1440
a(L106L
L0L
(lp1441
(lp1442
tp1443
a(L1303560644L
L0L
(lp1444
(lp1445
tp1446
a(L1419965066L
L0L
(lp1447
(lp1448
tp1449
a(L106L
L0L
(lp1450
(lp1451
tp1452
a(L1633120054L
L0L
(lp1453
(lp1454
tp1455
a(L106L
L0L
(lp1456
(lp1457
tp1458
a(L2974484771L
L0L
(lp1459
(lp1460
tp1461
a(L106L
L0L
(lp1462
(lp1463
tp1464
a(L1481761147L
L1880226080L
(lp1465
(lp1466
Vbootloader_execute_flash_command
p1467
aVbootloader_execute_flash_command
p1468
atp1469
a(L2258807654L
L0L
(lp1470
(lp1471
tp1472
a(L489806350L
L1832448559L
(lp1473
(lp1474
Vesp_rom_spiflash_wait_idle
p1475
aVbootloader_execute_flash_command
p1476
aVbootloader_execute_flash_command
p1477
atp1478
a(L879744646L
L1832448559L
(lp1479
(lp1480
Vesp_rom_spiflash_wait_idle
p1481
aVbootloader_execute_flash_command
p1482
aVbootloader_execute_flash_command
p1483
atp1484
a(L1840772931L
L1880226080L
(lp1485
(lp1486
Vesp_rom_spiflash_wait_idle
p1487
aVbootloader_execute_flash_command
p1488
atp1489
a(L2993202392L
L0L
(lp1490
(lp1491
tp1492
a(L508800419L
L1880226080L
(lp1493
(lp1494
Vbootloader_execute_flash_command
p1495
aVbootloader_execute_flash_command
p1496
atp1497
a(L1303560369L
L0L
(lp1498
(lp1499
tp1500
a(L1596544945L
L0L
(lp1501
(lp1502
tp1503
a(L97689L
L0L
(lp1504
(lp1505
tp1506
a(L106L
L0L
(lp1507
(lp1508
tp1509
atp1510
sI1074246272
(Vrtc_clk_fast_freq_get
p1511
(lp1512
(L36818883L
L0L
(lp1513
(lp1514
tp1515
atp1516
sI1074243724
(Vesp_rom_spiflash_program_page_internal
p1517
(lp1518
(L2569069283L
L0L
(lp1519
(lp1520
tp1521
a(L2258688483L
L0L
(lp1522
(lp1523
tp1524
a(L3360570486L
L0L
(lp1525
(lp1526
tp1527
a(L3520626095L
L0L
(lp1528
(lp1529
tp1530
a(L4235661475L
L3785322319L
(lp1531
(lp1532
Vesp_rom_spiflash_wait_idle
p1533
atp1534
a(L1299866312L
L0L
(lp1535
(lp1536
tp1537
a(L3212356251L
L3785322319L
(lp1538
(lp1539
Vesp_rom_spiflash_enable_write
p1540
atp1541
a(L396394813L
L0L
(lp1542
(lp1543
tp1544
a(L1613956777L
L0L
(lp1545
(lp1546
tp1547
a(L2953702749L
L0L
(lp1548
(lp1549
tp1550
a(L2989032L
L0L
(lp1551
(lp1552
tp1553
a(L1965622133L
L0L
(lp1554
(lp1555
tp1556
a(L1075729113L
L0L
(lp1557
(lp1558
tp1559
a(L1958113242L
L0L
(lp1560
(lp1561
tp1562
a(L106L
L0L
(lp1563
(lp1564
tp1565
a(L4283177684L
L0L
(lp1566
(lp1567
tp1568
a(L1405253496L
L0L
(lp1569
(lp1570
tp1571
a(L1008982381L
L0L
(lp1572
(lp1573
tp1574
a(L1933954923L
L0L
(lp1575
(lp1576
tp1577
a(L3886319556L
L0L
(lp1578
(lp1579
tp1580
a(L2767679583L
L0L
(lp1581
(lp1582
tp1583
atp1584
sI1074268036
(Vbootloader_print_banner
p1585
(lp1586
(L532679797L
L1880226080L
(lp1587
(lp1588
Vesp_log_early_timestamp
p1589
aVesp_log_early_timestamp
p1590
atp1591
atp1592
sI1074237076
(Vbootloader_common_get_reset_reason
p1593
(lp1594
(L1459523945L
L0L
(lp1595
(lp1596
tp1597
atp1598
sI1074236820
(Vbootloader_common_ota_select_valid
p1599
(lp1600
(L1563399710L
L3785322319L
(lp1601
(lp1602
Vbootloader_common_ota_select_invalid
p1603
atp1604
a(L3814720849L
L3785322319L
(lp1605
(lp1606
Vbootloader_common_ota_select_crc
p1607
atp1608
a(L3360570486L
L0L
(lp1609
(lp1610
tp1611
atp1612
sI1074236560
(Vis_xmc_chip_strict
p1613
(lp1614
(L1286841609L
L0L
(lp1615
(lp1616
tp1617
a(L2234016759L
L0L
(lp1618
(lp1619
tp1620
a(L1069027148L
L0L
(lp1621
(lp1622
tp1623
a(L3021749L
L0L
(lp1624
(lp1625
tp1626
a(L1900148749L
L0L
(lp1627
(lp1628
tp1629
a(L1936875721L
L0L
(lp1630
(lp1631
tp1632
a(L3356166509L
L0L
(lp1633
(lp1634
tp1635
a(L1937769451L
L0L
(lp1636
(lp1637
tp1638
a(L2137658907L
L0L
(lp1639
(lp1640
tp1641
a(L4265949734L
L0L
(lp1642
(lp1643
tp1644
a(L3360570486L
L0L
(lp1645
(lp1646
tp1647
atp1648
sI1074238864
(Vbootloader_clock_get_rated_freq_mhz
p1649
(lp1650
(L3273098646L
L0L
(lp1651
(lp1652
tp1653
a(L2965302338L
L0L
(lp1654
(lp1655
tp1656
a(L3360570486L
L0L
(lp1657
(lp1658
tp1659
atp1660
sI1074243216
(Vbootloader_load_image
p1661
(lp1662
(L1155870502L
L3785322319L
(lp1663
(lp1664
Vimage_load
p1665
atp1666
atp1667
sI1074246288
(Vrtc_clk_bbpll_configure
p1668
(lp1669
(L3991860920L
L0L
(lp1670
(lp1671
tp1672
a(L106L
L0L
(lp1673
(lp1674
tp1675
a(L2449945243L
L0L
(lp1676
(lp1677
tp1678
a(L106L
L0L
(lp1679
(lp1680
tp1681
a(L83268611L
L0L
(lp1682
(lp1683
tp1684
a(L106L
L0L
(lp1685
(lp1686
tp1687
a(L82345090L
L0L
(lp1688
(lp1689
tp1690
a(L106L
L0L
(lp1691
(lp1692
tp1693
a(L2258688482L
L0L
(lp1694
(lp1695
tp1696
a(L3177466952L
L0L
(lp1697
(lp1698
tp1699
a(L3115209060L
L0L
(lp1700
(lp1701
tp1702
a(L3739683040L
L0L
(lp1703
(lp1704
tp1705
a(L1299866343L
L0L
(lp1706
(lp1707
tp1708
a(L3291765465L
L0L
(lp1709
(lp1710
tp1711
a(L3241888512L
L0L
(lp1712
(lp1713
tp1714
a(L3419592190L
L0L
(lp1715
(lp1716
tp1717
a(L83268344L
L0L
(lp1718
(lp1719
tp1720
a(L82344823L
L0L
(lp1721
(lp1722
tp1723
a(L1667153377L
L0L
(lp1724
(lp1725
tp1726
a(L2258867279L
L0L
(lp1727
(lp1728
tp1729
a(L3410927670L
L0L
(lp1730
(lp1731
tp1732
a(L1551160474L
L0L
(lp1733
(lp1734
tp1735
a(L1712476653L
L0L
(lp1736
(lp1737
tp1738
a(L4011631532L
L0L
(lp1739
(lp1740
tp1741
atp1742
sI1074246800
(Vrtc_clk_cpu_freq_get_config
p1743
(lp1744
(L1587970211L
L0L
(lp1745
(lp1746
tp1747
a(L2902417580L
L0L
(lp1748
(lp1749
tp1750
a(L1777368540L
L0L
(lp1751
(lp1752
tp1753
a(L422184624L
L1880226080L
(lp1754
(lp1755
Vesp_log_early_timestamp
p1756
aVabort
p1757
atp1758
a(L1184870491L
L3785322319L
(lp1759
(lp1760
Vrtc_clk_xtal_freq_get
p1761
atp1762
a(L584032699L
L0L
(lp1763
(lp1764
tp1765
a(L3857739582L
L0L
(lp1766
(lp1767
tp1768
a(L3020187L
L0L
(lp1769
(lp1770
tp1771
a(L713819170L
L0L
(lp1772
(lp1773
tp1774
a(L106L
L0L
(lp1775
(lp1776
tp1777
a(L549042870L
L0L
(lp1778
(lp1779
tp1780
a(L187152368L
L0L
(lp1781
(lp1782
tp1783
a(L4149732163L
L0L
(lp1784
(lp1785
tp1786
atp1787
sI1074245528
(Vrtc_clk_bbpll_disable
p1788
(lp1789
(L3173289082L
L0L
(lp1790
(lp1791
tp1792
a(L391691750L
L0L
(lp1793
(lp1794
tp1795
a(L3360570486L
L0L
(lp1796
(lp1797
tp1798
atp1799
sI1074267816
(Vbootloader_clear_bss_section
p1800
(lp1801
(L3277611363L
L0L
(lp1802
(lp1803
tp1804
atp1805
sI1074235556
(Vbootloader_flash_read_sfdp
p1806
(lp1807
(L711701400L
L0L
(lp1808
(lp1809
tp1810
a(L3626758209L
L3785322319L
(lp1811
(lp1812
V__assert_func
p1813
atp1814
a(L3704332455L
L3785322319L
(lp1815
(lp1816
Vbootloader_flash_execute_command_common
p1817
atp1818
atp1819
sI1074237092
(Vbootloader_common_ota_select_invalid
p1820
(lp1821
(L4027567199L
L0L
(lp1822
(lp1823
tp1824
a(L3397985842L
L0L
(lp1825
(lp1826
tp1827
a(L2258867228L
L0L
(lp1828
(lp1829
tp1830
a(L3785235668L
L0L
(lp1831
(lp1832
tp1833
atp1834
sI1074243232
(Vesp_partition_table_verify
p1835
(lp1836
(L1518656766L
L0L
(lp1837
(lp1838
tp1839
a(L2026622289L
L0L
(lp1840
(lp1841
tp1842
a(L4287435191L
L0L
(lp1843
(lp1844
tp1845
a(L2910371777L
L0L
(lp1846
(lp1847
tp1848
a(L2810785767L
L0L
(lp1849
(lp1850
tp1851
a(L3360570486L
L0L
(lp1852
(lp1853
tp1854
a(L2334946637L
L0L
(lp1855
(lp1856
tp1857
a(L2478753082L
L0L
(lp1858
(lp1859
tp1860
a(L1580262034L
L0L
(lp1861
(lp1862
tp1863
a(L2512020620L
L3785322319L
(lp1864
(lp1865
Vesp_log_early_timestamp
p1866
atp1867
a(L1520183422L
L3785322319L
(lp1868
(lp1869
Vesp_log_early_timestamp
p1870
atp1871
a(L1445231513L
L0L
(lp1872
(lp1873
tp1874
a(L3020204L
L0L
(lp1875
(lp1876
tp1877
a(L3020204L
L0L
(lp1878
(lp1879
tp1880
a(L311187947L
L3785322319L
(lp1881
(lp1882
Vesp_log_early_timestamp
p1883
atp1884
a(L44113432L
L0L
(lp1885
(lp1886
tp1887
a(L1235012932L
L0L
(lp1888
(lp1889
tp1890
a(L1270613730L
L0L
(lp1891
(lp1892
tp1893
a(L3020204L
L0L
(lp1894
(lp1895
tp1896
a(L1056893204L
L3785322319L
(lp1897
(lp1898
Vesp_log_early_timestamp
p1899
atp1900
a(L1613213999L
L0L
(lp1901
(lp1902
tp1903
a(L1167861556L
L0L
(lp1904
(lp1905
tp1906
a(L3260980605L
L0L
(lp1907
(lp1908
tp1909
a(L1580262034L
L0L
(lp1910
(lp1911
tp1912
a(L3136064939L
L3785322319L
(lp1913
(lp1914
Vesp_log_early_timestamp
p1915
atp1916
atp1917
sI1074235808
(Vbootloader_flash_cs_timing_config
p1918
(lp1919
(L3796536297L
L0L
(lp1920
(lp1921
tp1922
atp1923
sI1074269344
(Vrtc_clk_init
p1924
(lp1925
(L3811737100L
L0L
(lp1926
(lp1927
tp1928
a(L42671777L
L3785322319L
(lp1929
(lp1930
Vrtc_clk_cpu_freq_to_xtal
p1931
atp1932
a(L3599077869L
L0L
(lp1933
(lp1934
tp1935
a(L4150963688L
L0L
(lp1936
(lp1937
tp1938
a(L2873281153L
L0L
(lp1939
(lp1940
tp1941
a(L912414356L
L3785322319L
(lp1942
(lp1943
Vrtc_clk_xtal_freq_get
p1944
atp1945
a(L635236533L
L0L
(lp1946
(lp1947
tp1948
a(L3579106612L
L0L
(lp1949
(lp1950
tp1951
a(L1278654704L
L2485746240L
(lp1952
(lp1953
Vrtc_clk_xtal_freq_update
p1954
aVrtc_clk_apb_freq_update
p1955
aVrtc_clk_cpu_freq_get_config
p1956
aVrtc_clk_cpu_freq_mhz_to_config
p1957
atp1958
a(L3170582539L
L1880226080L
(lp1959
(lp1960
Vesp_log_early_timestamp
p1961
aVabort
p1962
atp1963
a(L4187693717L
L3785322319L
(lp1964
(lp1965
Vrtc_clk_xtal_freq_estimate
p1966
atp1967
a(L3875499031L
L3785322319L
(lp1968
(lp1969
Vesp_log_early_timestamp
p1970
atp1971
a(L4143060793L
L0L
(lp1972
(lp1973
tp1974
a(L1563923531L
L0L
(lp1975
(lp1976
tp1977
a(L106L
L0L
(lp1978
(lp1979
tp1980
a(L4070631878L
L3785322319L
(lp1981
(lp1982
Vrtc_clk_xtal_freq_estimate
p1983
atp1984
a(L106L
L0L
(lp1985
(lp1986
tp1987
a(L368248718L
L3785322319L
(lp1988
(lp1989
Vesp_log_early_timestamp
p1990
atp1991
a(L3967771758L
L3785322319L
(lp1992
(lp1993
Vrtc_clk_cpu_freq_set_config
p1994
atp1995
a(L4168829660L
L3785322319L
(lp1996
(lp1997
Vrtc_clk_32k_enable
p1998
atp1999
a(L3016870L
L0L
(lp2000
(lp2001
tp2002
a(L2957109455L
L3785322319L
(lp2003
(lp2004
Vrtc_clk_8m_enable
p2005
atp2006
a(L530469956L
L1880226080L
(lp2007
(lp2008
Vrtc_clk_fast_freq_set
p2009
aVrtc_clk_slow_freq_set
p2010
atp2011
atp2012
sI1074239916
(Vbootloader_utility_get_selected_boot_partition
p2013
(lp2014
(L2184143128L
L0L
(lp2015
(lp2016
tp2017
a(L609859065L
L0L
(lp2018
(lp2019
tp2020
a(L194424830L
L3785322319L
(lp2021
(lp2022
Vesp_log_early_timestamp
p2023
atp2024
a(L4026981588L
L0L
(lp2025
(lp2026
tp2027
a(L3360570486L
L0L
(lp2028
(lp2029
tp2030
a(L1375577398L
L3785322319L
(lp2031
(lp2032
Vbootloader_mmap
p2033
atp2034
a(L794303674L
L3785322319L
(lp2035
(lp2036
Vesp_log_early_timestamp
p2037
atp2038
a(L3974563017L
L1880226080L
(lp2039
(lp2040
Vbootloader_munmap
p2041
aVbootloader_common_ota_select_invalid
p2042
atp2043
a(L1103573946L
L0L
(lp2044
(lp2045
tp2046
a(L1876835593L
L3785322319L
(lp2047
(lp2048
Vbootloader_common_get_active_otadata
p2049
atp2050
a(L106L
L0L
(lp2051
(lp2052
tp2053
a(L569346373L
L0L
(lp2054
(lp2055
tp2056
a(L788494392L
L3785322319L
(lp2057
(lp2058
Vbootloader_common_ota_select_invalid
p2059
atp2060
a(L2110763398L
L0L
(lp2061
(lp2062
tp2063
a(L2786419250L
L3785322319L
(lp2064
(lp2065
Vesp_log_early_timestamp
p2066
atp2067
a(L3229639522L
L3785322319L
(lp2068
(lp2069
Vesp_log_early_timestamp
p2070
atp2071
a(L505081345L
L0L
(lp2072
(lp2073
tp2074
a(L919052234L
L3785322319L
(lp2075
(lp2076
Vbootloader_common_ota_select_crc
p2077
atp2078
a(L2287680455L
L0L
(lp2079
(lp2080
tp2081
a(L3542558037L
L3785322319L
(lp2082
(lp2083
Vbootloader_common_ota_select_crc
p2084
atp2085
a(L1299866312L
L0L
(lp2086
(lp2087
tp2088
a(L1219063302L
L0L
(lp2089
(lp2090
tp2091
a(L3178486466L
L3785322319L
(lp2092
(lp2093
Vesp_log_early_timestamp
p2094
atp2095
a(L1367516498L
L0L
(lp2096
(lp2097
tp2098
a(L4142659812L
L3785322319L
(lp2099
(lp2100
Vesp_log_early_timestamp
p2101
atp2102
atp2103
sI1074246056
(Vrtc_clk_8m_enabled
p2104
(lp2105
(L872570143L
L0L
(lp2106
(lp2107
tp2108
atp2109
sI1074238900
(Vload_image
p2110
(lp2111
(L3687512600L
L1880226080L
(lp2112
(lp2113
Vesp_log_early_timestamp
p2114
aVbootloader_random_disable
p2115
atp2116
a(L2118498116L
L0L
(lp2117
(lp2118
tp2119
a(L106L
L0L
(lp2120
(lp2121
tp2122
a(L2252582243L
L0L
(lp2123
(lp2124
tp2125
a(L751966648L
L0L
(lp2126
(lp2127
tp2128
a(L3268103L
L0L
(lp2129
(lp2130
tp2131
a(L787407837L
L0L
(lp2132
(lp2133
tp2134
a(L1469980115L
L0L
(lp2135
(lp2136
tp2137
a(L2902417580L
L0L
(lp2138
(lp2139
tp2140
a(L326793249L
L3785322319L
(lp2141
(lp2142
Vesp_log_early_timestamp
p2143
atp2144
a(L117980938L
L0L
(lp2145
(lp2146
tp2147
a(L2838050207L
L0L
(lp2148
(lp2149
tp2150
a(L3020204L
L0L
(lp2151
(lp2152
tp2153
a(L1112661489L
L3785322319L
(lp2154
(lp2155
Vesp_log_early_timestamp
p2156
atp2157
a(L233635238L
L0L
(lp2158
(lp2159
tp2160
a(L2488949783L
L0L
(lp2161
(lp2162
tp2163
atp2164
sI1074245040
(Vrtc_wdt_protect_off
p2165
(lp2166
(L3995382354L
L0L
(lp2167
(lp2168
tp2169
atp2170
sI1074268336
(Vabort
p2171
(lp2172
(L432294847L
L3785322319L
(lp2173
(lp2174
Vesp_cpu_in_ocd_debug_mode
p2175
atp2176
a(L409441471L
L0L
(lp2177
(lp2178
tp2179
a(L106L
L0L
(lp2180
(lp2181
tp2182
atp2183
sI1074237372
(Vbootloader_munmap
p2184
(lp2185
(L2633682890L
L0L
(lp2186
(lp2187
tp2188
a(L1093670096L
L0L
(lp2189
(lp2190
tp2191
a(L3360570486L
L0L
(lp2192
(lp2193
tp2194
atp2195
sI1074268084
(V__assert_func
p2196
(lp2197
(L49381715L
L3785322319L
(lp2198
(lp2199
Vesp_log_early_timestamp
p2200
atp2201
a(L106L
L0L
(lp2202
(lp2203
tp2204
atp2205
sI1074236856
(Vbootloader_common_get_active_otadata
p2206
(lp2207
(L3317503532L
L0L
(lp2208
(lp2209
tp2210
a(L2503049265L
L1832448559L
(lp2211
(lp2212
Vbootloader_common_ota_select_valid
p2213
aVbootloader_common_ota_select_valid
p2214
aVbootloader_common_select_otadata
p2215
atp2216
a(L735741265L
L0L
(lp2217
(lp2218
tp2219
atp2220
sI1074243524
(Vesp_rom_spiflash_read_status
p2221
(lp2222
(L3562601385L
L0L
(lp2223
(lp2224
tp2225
a(L1182811815L
L0L
(lp2226
(lp2227
tp2228
a(L1269038048L
L0L
(lp2229
(lp2230
tp2231
a(L106L
L0L
(lp2232
(lp2233
tp2234
a(L828085295L
L0L
(lp2235
(lp2236
tp2237
a(L4004659960L
L0L
(lp2238
(lp2239
tp2240
a(L2123059967L
L0L
(lp2241
(lp2242
tp2243
a(L1973734210L
L0L
(lp2244
(lp2245
tp2246
a(L2392720019L
L0L
(lp2247
(lp2248
tp2249
atp2250
sI1074237888
(Vbootloader_enable_wp
p2251
(lp2252
(L1117825804L
L3785322319L
(lp2253
(lp2254
Vbootloader_execute_flash_command
p2255
atp2256
atp2257
sI1074237120
(Vbootloader_common_select_otadata
p2258
(lp2259
(L2342662536L
L0L
(lp2260
(lp2261
tp2262
a(L3806783650L
L0L
(lp2263
(lp2264
tp2265
a(L1674928252L
L0L
(lp2266
(lp2267
tp2268
a(L251571983L
L0L
(lp2269
(lp2270
tp2271
a(L3360570486L
L0L
(lp2272
(lp2273
tp2274
a(L2045232488L
L0L
(lp2275
(lp2276
tp2277
a(L3379299350L
L0L
(lp2278
(lp2279
tp2280
a(L3094149227L
L0L
(lp2281
(lp2282
tp2283
a(L2403798097L
L0L
(lp2284
(lp2285
tp2286
a(L1641201884L
L0L
(lp2287
(lp2288
tp2289
atp2290
sI1074245056
(Vrtc_wdt_protect_on
p2291
(lp2292
(L1005301118L
L0L
(lp2293
(lp2294
tp2295
atp2296
sI1074246080
(Vrtc_clk_8md256_enabled
p2297
(lp2298
(L28098272L
L0L
(lp2299
(lp2300
tp2301
atp2302
sI1074267840
(Vbootloader_read_bootloader_header
p2303
(lp2304
(L1839002680L
L3785322319L
(lp2305
(lp2306
Vbootloader_flash_read
p2307
atp2308
a(L2908672513L
L3785322319L
(lp2309
(lp2310
Vesp_log_early_timestamp
p2311
atp2312
a(L735741265L
L0L
(lp2313
(lp2314
tp2315
atp2316
sI1074244044
(Vesp_rom_spiflash_write
p2317
(lp2318
(L2172043636L
L0L
(lp2319
(lp2320
tp2321
a(L2258688483L
L0L
(lp2322
(lp2323
tp2324
a(L3360570486L
L0L
(lp2325
(lp2326
tp2327
a(L1590344338L
L0L
(lp2328
(lp2329
tp2330
a(L3106685987L
L0L
(lp2331
(lp2332
tp2333
a(L4249336406L
L3785322319L
(lp2334
(lp2335
Vesp_rom_spiflash_program_page_internal
p2336
atp2337
a(L1915738254L
L3785322319L
(lp2338
(lp2339
Vesp_rom_spiflash_program_page_internal
p2340
atp2341
a(L663507325L
L0L
(lp2342
(lp2343
tp2344
a(L2392967593L
L0L
(lp2345
(lp2346
tp2347
a(L564470687L
L0L
(lp2348
(lp2349
tp2350
a(L154459701L
L3785322319L
(lp2351
(lp2352
Vesp_rom_spiflash_program_page_internal
p2353
atp2354
a(L2079643754L
L0L
(lp2355
(lp2356
tp2357
atp2358
sI1074247116
(Vrtc_clk_cpu_freq_set_config
p2359
(lp2360
(L2273046157L
L3785322319L
(lp2361
(lp2362
Vrtc_clk_xtal_freq_get
p2363
atp2364
a(L1828795533L
L1880226080L
(lp2365
(lp2366
Vrtc_clk_cpu_freq_to_xtal
p2367
aVrtc_clk_wait_for_slow_cycle
p2368
atp2369
a(L94425498L
L3785322319L
(lp2370
(lp2371
Vrtc_clk_bbpll_disable
p2372
atp2373
a(L3978916712L
L0L
(lp2374
(lp2375
tp2376
a(L2977209154L
L0L
(lp2377
(lp2378
tp2379
a(L2736411858L
L3785322319L
(lp2380
(lp2381
Vrtc_clk_cpu_freq_to_xtal
p2382
atp2383
a(L3360570486L
L0L
(lp2384
(lp2385
tp2386
a(L3020187L
L0L
(lp2387
(lp2388
tp2389
a(L106L
L0L
(lp2390
(lp2391
tp2392
a(L1417126672L
L2485746240L
(lp2393
(lp2394
Vrtc_clk_wait_for_slow_cycle
p2395
aVrtc_clk_xtal_freq_get
p2396
aVrtc_clk_bbpll_configure
p2397
aVrtc_clk_cpu_freq_to_pll_mhz
p2398
atp2399
a(L3020187L
L0L
(lp2400
(lp2401
tp2402
a(L106L
L0L
(lp2403
(lp2404
tp2405
a(L1074694345L
L0L
(lp2406
(lp2407
tp2408
atp2409
sI1074240968
(Vbootloader_util_regions_overlap
p2410
(lp2411
(L2762640130L
L0L
(lp2412
(lp2413
tp2414
a(L3157066675L
L0L
(lp2415
(lp2416
tp2417
a(L2534954878L
L3785322319L
(lp2418
(lp2419
V__assert_func
p2420
atp2421
a(L97642L
L0L
(lp2422
(lp2423
tp2424
a(L646590395L
L0L
(lp2425
(lp2426
tp2427
a(L366123053L
L0L
(lp2428
(lp2429
tp2430
a(L2258867228L
L0L
(lp2431
(lp2432
tp2433
a(L1253626734L
L0L
(lp2434
(lp2435
tp2436
a(L2258897019L
L0L
(lp2437
(lp2438
tp2439
a(L3109269495L
L0L
(lp2440
(lp2441
tp2442
atp2443
sI1074245320
(Vrtc_wdt_disable
p2444
(lp2445
(L4083382214L
L0L
(lp2446
(lp2447
tp2448
a(L1119267079L
L0L
(lp2449
(lp2450
tp2451
a(L1911290820L
L1832448559L
(lp2452
(lp2453
Vrtc_wdt_set_stage
p2454
aVrtc_wdt_set_stage
p2455
aVrtc_wdt_set_stage
p2456
atp2457
a(L2374786848L
L0L
(lp2458
(lp2459
tp2460
a(L3360570486L
L0L
(lp2461
(lp2462
tp2463
atp2464
sI1074245588
(Vrtc_clk_cpu_freq_to_pll_mhz
p2465
(lp2466
(L428013989L
L0L
(lp2467
(lp2468
tp2469
a(L106L
L0L
(lp2470
(lp2471
tp2472
a(L1541997046L
L0L
(lp2473
(lp2474
tp2475
a(L106L
L0L
(lp2476
(lp2477
tp2478
a(L1546614651L
L0L
(lp2479
(lp2480
tp2481
a(L3073889726L
L0L
(lp2482
(lp2483
tp2484
a(L771924063L
L3785322319L
(lp2485
(lp2486
Vrtc_clk_wait_for_slow_cycle
p2487
atp2488
a(L1597320775L
L1880226080L
(lp2489
(lp2490
Vesp_log_early_timestamp
p2491
aVabort
p2492
atp2493
a(L1183020347L
L0L
(lp2494
(lp2495
tp2496
a(L1305407562L
L0L
(lp2497
(lp2498
tp2499
a(L1306330990L
L0L
(lp2500
(lp2501
tp2502
atp2503
sI1074237908
(Vbootloader_mmap_get_free_pages
p2504
(lp2505
(L1496516875L
L0L
(lp2506
(lp2507
tp2508
atp2509
sI1074268380
(Vbootloader_init
p2510
(lp2511
(L77506001L
L0L
(lp2512
(lp2513
tp2514
a(L3410674370L
L0L
(lp2515
(lp2516
tp2517
a(L3967787212L
L0L
(lp2518
(lp2519
tp2520
a(L2355660685L
L0L
(lp2521
(lp2522
tp2523
a(L2328462902L
L3785322319L
(lp2524
(lp2525
V__assert_func
p2526
atp2527
a(L3922618161L
L0L
(lp2528
(lp2529
tp2530
a(L3869835903L
L0L
(lp2531
(lp2532
tp2533
a(L3813782018L
L0L
(lp2534
(lp2535
tp2536
a(L978068417L
L0L
(lp2537
(lp2538
tp2539
a(L3027019L
L0L
(lp2540
(lp2541
tp2542
a(L2381268196L
L0L
(lp2543
(lp2544
tp2545
a(L1098878285L
L1832448559L
(lp2546
(lp2547
Vbootloader_clear_bss_section
p2548
aVbootloader_common_vddsdio_configure
p2549
aVbootloader_clock_get_rated_freq_mhz
p2550
atp2551
a(L2039715963L
L3785322319L
(lp2552
(lp2553
Vbootloader_clock_configure
p2554
atp2555
a(L852860968L
L0L
(lp2556
(lp2557
tp2558
a(L1440534180L
L2485746240L
(lp2559
(lp2560
Vrtc_clk_apb_freq_get
p2561
aVbootloader_print_banner
p2562
aVbootloader_flash_update_id
p2563
aVbootloader_flash_xmc_startup
p2564
atp2565
a(L3232522359L
L3785322319L
(lp2566
(lp2567
Vesp_log_early_timestamp
p2568
atp2569
a(L4258466530L
L3785322319L
(lp2570
(lp2571
Vesp_log_early_timestamp
p2572
atp2573
a(L3360570486L
L0L
(lp2574
(lp2575
tp2576
a(L2444883382L
L3785322319L
(lp2577
(lp2578
Vbootloader_read_bootloader_header
p2579
atp2580
a(L2444883382L
L3785322319L
(lp2581
(lp2582
Vbootloader_check_bootloader_validity
p2583
atp2584
a(L1914726159L
L1157885199L
(lp2585
(lp2586
Vbootloader_flash_gpio_config
p2587
aVbootloader_flash_dummy_config
p2588
aVbootloader_flash_cs_timing_config
p2589
aVbootloader_flash_unlock
p2590
aVesp_log_early_timestamp
p2591
atp2592
a(L2806124318L
L0L
(lp2593
(lp2594
tp2595
a(L2809818402L
L0L
(lp2596
(lp2597
tp2598
a(L2781189251L
L0L
(lp2599
(lp2600
tp2601
a(L2820900654L
L0L
(lp2602
(lp2603
tp2604
a(L3902507191L
L0L
(lp2605
(lp2606
tp2607
a(L1600933069L
L3785322319L
(lp2608
(lp2609
Vesp_log_early_timestamp
p2610
atp2611
a(L3431093453L
L0L
(lp2612
(lp2613
tp2614
a(L180805837L
L3785322319L
(lp2615
(lp2616
Vesp_log_early_timestamp
p2617
atp2618
a(L3637318307L
L0L
(lp2619
(lp2620
tp2621
a(L228157614L
L3785322319L
(lp2622
(lp2623
Vbootloader_enable_wp
p2624
atp2625
a(L37162890L
L0L
(lp2626
(lp2627
tp2628
a(L1199268581L
L3785322319L
(lp2629
(lp2630
Vesp_log_early_timestamp
p2631
atp2632
a(L1328209163L
L0L
(lp2633
(lp2634
tp2635
a(L502323150L
L0L
(lp2636
(lp2637
tp2638
a(L2902417580L
L0L
(lp2639
(lp2640
tp2641
a(L1944713791L
L1880226080L
(lp2642
(lp2643
Vwdt_reset_info_dump
p2644
aVwdt_reset_info_dump
p2645
atp2646
a(L916315544L
L1880226080L
(lp2647
(lp2648
Vbootloader_config_wdt
p2649
aVbootloader_enable_random
p2650
atp2651
a(L2179137447L
L3785322319L
(lp2652
(lp2653
Vesp_log_early_timestamp
p2654
atp2655
atp2656
sI1074244304
(Vesp_rom_spiflash_read
p2657
(lp2658
(L2660649948L
L0L
(lp2659
(lp2660
tp2661
a(L3856854632L
L0L
(lp2662
(lp2663
tp2664
a(L2860271684L
L0L
(lp2665
(lp2666
tp2667
a(L3017366L
L0L
(lp2668
(lp2669
tp2670
a(L106L
L0L
(lp2671
(lp2672
tp2673
a(L2166250093L
L0L
(lp2674
(lp2675
tp2676
a(L106L
L0L
(lp2677
(lp2678
tp2679
a(L3006598099L
L0L
(lp2680
(lp2681
tp2682
a(L119136456L
L0L
(lp2683
(lp2684
tp2685
a(L2453516700L
L0L
(lp2686
(lp2687
tp2688
a(L214251015L
L0L
(lp2689
(lp2690
tp2691
a(L106L
L0L
(lp2692
(lp2693
tp2694
a(L1998301964L
L3785322319L
(lp2695
(lp2696
Vesp_rom_spiflash_wait_idle
p2697
atp2698
a(L3021737L
L0L
(lp2699
(lp2700
tp2701
a(L106L
L0L
(lp2702
(lp2703
tp2704
a(L1868280504L
L0L
(lp2705
(lp2706
tp2707
a(L106L
L0L
(lp2708
(lp2709
tp2710
a(L3736481571L
L0L
(lp2711
(lp2712
tp2713
a(L1221163038L
L0L
(lp2714
(lp2715
tp2716
a(L4122060822L
L0L
(lp2717
(lp2718
tp2719
a(L3808144324L
L0L
(lp2720
(lp2721
tp2722
a(L2989032L
L0L
(lp2723
(lp2724
tp2725
a(L3819849625L
L0L
(lp2726
(lp2727
tp2728
a(L933706838L
L0L
(lp2729
(lp2730
tp2731
a(L188544271L
L0L
(lp2732
(lp2733
tp2734
a(L3901820645L
L0L
(lp2735
(lp2736
tp2737
a(L1591651276L
L0L
(lp2738
(lp2739
tp2740
a(L1896415737L
L0L
(lp2741
(lp2742
tp2743
a(L1522202953L
L0L
(lp2744
(lp2745
tp2746
a(L690243012L
L0L
(lp2747
(lp2748
tp2749
a(L634276216L
L0L
(lp2750
(lp2751
tp2752
a(L2267384310L
L0L
(lp2753
(lp2754
tp2755
a(L2696140277L
L0L
(lp2756
(lp2757
tp2758
a(L2687789892L
L0L
(lp2759
(lp2760
tp2761
a(L1405253496L
L0L
(lp2762
(lp2763
tp2764
a(L2753629619L
L0L
(lp2765
(lp2766
tp2767
a(L97689L
L0L
(lp2768
(lp2769
tp2770
a(L2258897019L
L0L
(lp2771
(lp2772
tp2773
a(L4014024819L
L0L
(lp2774
(lp2775
tp2776
a(L3621567083L
L0L
(lp2777
(lp2778
tp2779
atp2780
sI1074245072
(Vrtc_wdt_enable
p2781
(lp2782
(L948544515L
L0L
(lp2783
(lp2784
tp2785
atp2786
sI1074237916
(Vbootloader_fill_random
p2787
(lp2788
(L1642351636L
L0L
(lp2789
(lp2790
tp2791
a(L2860361189L
L0L
(lp2792
(lp2793
tp2794
a(L97689L
L0L
(lp2795
(lp2796
tp2797
a(L3360570486L
L0L
(lp2798
(lp2799
tp2800
a(L3474978174L
L3785322319L
(lp2801
(lp2802
V__assert_func
p2803
atp2804
a(L3020204L
L0L
(lp2805
(lp2806
tp2807
a(L2008668903L
L0L
(lp2808
(lp2809
tp2810
a(L606168870L
L0L
(lp2811
(lp2812
tp2813
a(L3474016649L
L0L
(lp2814
(lp2815
tp2816
a(L3930485948L
L0L
(lp2817
(lp2818
tp2819
atp2820
sI1074240220
(Vbootloader_reset
p2821
(lp2822
(L1238560124L
L0L
(lp2823
(lp2824
tp2825
a(L106L
L0L
(lp2826
(lp2827
tp2828
atp2829
sI1074241500
(Vimage_load
p2830
(lp2831
(L4271621174L
L0L
(lp2832
(lp2833
tp2834
a(L2287016811L
L0L
(lp2835
(lp2836
tp2837
a(L690342614L
L0L
(lp2838
(lp2839
tp2840
a(L3752226611L
L0L
(lp2841
(lp2842
tp2843
a(L668711579L
L3785322319L
(lp2844
(lp2845
Vesp_log_early_timestamp
p2846
atp2847
a(L3002268657L
L0L
(lp2848
(lp2849
tp2850
a(L1953474235L
L3785322319L
(lp2851
(lp2852
Vbootloader_flash_read
p2853
atp2854
a(L4167675317L
L0L
(lp2855
(lp2856
tp2857
a(L106L
L0L
(lp2858
(lp2859
tp2860
a(L3230798602L
L0L
(lp2861
(lp2862
tp2863
a(L3378338814L
L3785322319L
(lp2864
(lp2865
Vbootloader_sha256_start
p2866
atp2867
a(L2034145148L
L3785322319L
(lp2868
(lp2869
Vbootloader_sha256_data
p2870
atp2871
a(L1538659890L
L0L
(lp2872
(lp2873
tp2874
a(L3574204786L
L0L
(lp2875
(lp2876
tp2877
a(L1670871186L
L3785322319L
(lp2878
(lp2879
Vesp_log_early_timestamp
p2880
atp2881
a(L2979434586L
L0L
(lp2882
(lp2883
tp2884
a(L1693093453L
L3785322319L
(lp2885
(lp2886
Vesp_log_early_timestamp
p2887
atp2888
a(L2752552992L
L0L
(lp2889
(lp2890
tp2891
a(L1406852146L
L3785322319L
(lp2892
(lp2893
Vesp_log_early_timestamp
p2894
atp2895
a(L2902417580L
L0L
(lp2896
(lp2897
tp2898
a(L3020204L
L0L
(lp2899
(lp2900
tp2901
a(L1781468812L
L3785322319L
(lp2902
(lp2903
Vbootloader_sha256_finish
p2904
atp2905
a(L3066339634L
L0L
(lp2906
(lp2907
tp2908
a(L268538334L
L0L
(lp2909
(lp2910
tp2911
a(L741594184L
L3785322319L
(lp2912
(lp2913
Vbootloader_common_check_chip_validity
p2914
atp2915
a(L439200605L
L0L
(lp2916
(lp2917
tp2918
a(L3030236580L
L0L
(lp2919
(lp2920
tp2921
a(L1137873963L
L0L
(lp2922
(lp2923
tp2924
a(L2675914428L
L3785322319L
(lp2925
(lp2926
Vesp_log_early_timestamp
p2927
atp2928
a(L1367516498L
L0L
(lp2929
(lp2930
tp2931
a(L2193543949L
L0L
(lp2932
(lp2933
tp2934
a(L3714752411L
L0L
(lp2935
(lp2936
tp2937
a(L4236135622L
L0L
(lp2938
(lp2939
tp2940
a(L1627370L
L0L
(lp2941
(lp2942
tp2943
a(L106L
L0L
(lp2944
(lp2945
tp2946
a(L2462225119L
L0L
(lp2947
(lp2948
tp2949
a(L3560858800L
L0L
(lp2950
(lp2951
tp2952
a(L621107209L
L0L
(lp2953
(lp2954
tp2955
a(L3360570486L
L0L
(lp2956
(lp2957
tp2958
a(L2866763242L
L3785322319L
(lp2959
(lp2960
Vbootloader_flash_read
p2961
atp2962
a(L3966416153L
L3785322319L
(lp2963
(lp2964
Vesp_log_early_timestamp
p2965
atp2966
a(L1367516498L
L0L
(lp2967
(lp2968
tp2969
a(L3020204L
L0L
(lp2970
(lp2971
tp2972
a(L69046401L
L3785322319L
(lp2973
(lp2974
Vbootloader_sha256_data
p2975
atp2976
a(L3891975731L
L0L
(lp2977
(lp2978
tp2979
a(L2525600681L
L0L
(lp2980
(lp2981
tp2982
a(L3733387182L
L0L
(lp2983
(lp2984
tp2985
a(L1243410305L
L0L
(lp2986
(lp2987
tp2988
a(L2832313563L
L0L
(lp2989
(lp2990
tp2991
a(L1183020347L
L0L
(lp2992
(lp2993
tp2994
a(L1245157742L
L0L
(lp2995
(lp2996
tp2997
a(L1609885465L
L0L
(lp2998
(lp2999
tp3000
a(L1137882240L
L0L
(lp3001
(lp3002
tp3003
a(L106L
L0L
(lp3004
(lp3005
tp3006
a(L804581933L
L3785322319L
(lp3007
(lp3008
Vesp_log_early_timestamp
p3009
atp3010
a(L1137882240L
L0L
(lp3011
(lp3012
tp3013
a(L106L
L0L
(lp3014
(lp3015
tp3016
a(L4266352846L
L3785322319L
(lp3017
(lp3018
Vesp_log_early_timestamp
p3019
atp3020
a(L4070190427L
L3785322319L
(lp3021
(lp3022
Vshould_load
p3023
atp3024
a(L2532035693L
L0L
(lp3025
(lp3026
tp3027
a(L4234224613L
L3785322319L
(lp3028
(lp3029
Vesp_log_early_timestamp
p3030
atp3031
a(L684056330L
L0L
(lp3032
(lp3033
tp3034
a(L2805934182L
L0L
(lp3035
(lp3036
tp3037
a(L1592519765L
L0L
(lp3038
(lp3039
tp3040
a(L2902417580L
L0L
(lp3041
(lp3042
tp3043
a(L1283782919L
L0L
(lp3044
(lp3045
tp3046
a(L2191133979L
L3785322319L
(lp3047
(lp3048
Vbootloader_mmap_get_free_pages
p3049
atp3050
a(L3927838290L
L0L
(lp3051
(lp3052
tp3053
a(L2475530222L
L0L
(lp3054
(lp3055
tp3056
a(L925643193L
L3785322319L
(lp3057
(lp3058
Vverify_load_addresses
p3059
atp3060
a(L106L
L0L
(lp3061
(lp3062
tp3063
a(L3673025738L
L0L
(lp3064
(lp3065
tp3066
a(L2864281488L
L0L
(lp3067
(lp3068
tp3069
a(L4185481099L
L3785322319L
(lp3070
(lp3071
Vbootloader_mmap
p3072
atp3073
a(L1566744693L
L3785322319L
(lp3074
(lp3075
Vesp_log_early_timestamp
p3076
atp3077
a(L1669831035L
L0L
(lp3078
(lp3079
tp3080
a(L344591835L
L0L
(lp3081
(lp3082
tp3083
a(L2613357364L
L0L
(lp3084
(lp3085
tp3086
a(L1534276982L
L3785322319L
(lp3087
(lp3088
Vbootloader_munmap
p3089
atp3090
a(L2746670454L
L0L
(lp3091
(lp3092
tp3093
a(L179699297L
L3785322319L
(lp3094
(lp3095
Vbootloader_fill_random
p3096
atp3097
a(L3570641403L
L0L
(lp3098
(lp3099
tp3100
a(L3574335487L
L0L
(lp3101
(lp3102
tp3103
a(L3802072125L
L0L
(lp3104
(lp3105
tp3106
a(L3021749L
L0L
(lp3107
(lp3108
tp3109
a(L898534582L
L0L
(lp3110
(lp3111
tp3112
a(L1232097199L
L0L
(lp3113
(lp3114
tp3115
a(L943513123L
L0L
(lp3116
(lp3117
tp3118
a(L3016870L
L0L
(lp3119
(lp3120
tp3121
a(L2870082183L
L0L
(lp3122
(lp3123
tp3124
a(L569514194L
L0L
(lp3125
(lp3126
tp3127
a(L3020204L
L0L
(lp3128
(lp3129
tp3130
a(L1095669012L
L0L
(lp3131
(lp3132
tp3133
a(L158915962L
L3785322319L
(lp3134
(lp3135
Vbootloader_sha256_data
p3136
atp3137
a(L90548756L
L0L
(lp3138
(lp3139
tp3140
a(L4035739521L
L0L
(lp3141
(lp3142
tp3143
a(L1780687962L
L0L
(lp3144
(lp3145
tp3146
a(L689371012L
L0L
(lp3147
(lp3148
tp3149
a(L106L
L0L
(lp3150
(lp3151
tp3152
a(L3783228048L
L3785322319L
(lp3153
(lp3154
Vesp_log_early_timestamp
p3155
atp3156
a(L3978633858L
L0L
(lp3157
(lp3158
tp3159
a(L3118387733L
L3785322319L
(lp3160
(lp3161
Vesp_cpu_in_ocd_debug_mode
p3162
atp3163
a(L2889301574L
L3785322319L
(lp3164
(lp3165
Vbootloader_flash_read
p3166
atp3167
a(L238449759L
L0L
(lp3168
(lp3169
tp3170
a(L977918008L
L3785322319L
(lp3171
(lp3172
Vesp_log_early_timestamp
p3173
atp3174
a(L3020204L
L0L
(lp3175
(lp3176
tp3177
a(L2217269743L
L3785322319L
(lp3178
(lp3179
Vbootloader_sha256_data
p3180
atp3181
a(L3831070346L
L0L
(lp3182
(lp3183
tp3184
a(L2111854616L
L0L
(lp3185
(lp3186
tp3187
a(L3525542150L
L0L
(lp3188
(lp3189
tp3190
a(L382768566L
L0L
(lp3191
(lp3192
tp3193
a(L106L
L0L
(lp3194
(lp3195
tp3196
a(L1955033723L
L0L
(lp3197
(lp3198
tp3199
a(L1137882240L
L0L
(lp3200
(lp3201
tp3202
a(L106L
L0L
(lp3203
(lp3204
tp3205
a(L4218775638L
L3785322319L
(lp3206
(lp3207
Vesp_log_early_timestamp
p3208
atp3209
a(L2927195043L
L0L
(lp3210
(lp3211
tp3212
a(L3212356251L
L3785322319L
(lp3213
(lp3214
Vesp_cpu_in_ocd_debug_mode
p3215
atp3216
a(L3365856217L
L1832448559L
(lp3217
(lp3218
Vbootloader_sha256_finish
p3219
aVbootloader_debug_buffer
p3220
aVbootloader_mmap
p3221
atp3222
a(L2476732298L
L1832448559L
(lp3223
(lp3224
Vesp_log_early_timestamp
p3225
aVbootloader_debug_buffer
p3226
aVbootloader_munmap
p3227
atp3228
a(L2258777855L
L0L
(lp3229
(lp3230
tp3231
a(L2134911821L
L0L
(lp3232
(lp3233
tp3234
a(L963422966L
L3785322319L
(lp3235
(lp3236
Vbootloader_mmap
p3237
atp3238
a(L2191609894L
L3785322319L
(lp3239
(lp3240
Vbootloader_munmap
p3241
atp3242
a(L3028481L
L0L
(lp3243
(lp3244
tp3245
a(L106L
L0L
(lp3246
(lp3247
tp3248
a(L1062898864L
L3785322319L
(lp3249
(lp3250
Vbootloader_munmap
p3251
atp3252
a(L929555107L
L0L
(lp3253
(lp3254
tp3255
a(L904298956L
L3785322319L
(lp3256
(lp3257
Vbootloader_sha256_finish
p3258
atp3259
a(L216497726L
L3785322319L
(lp3260
(lp3261
Vshould_load
p3262
atp3263
a(L4068422196L
L0L
(lp3264
(lp3265
tp3266
a(L2573310946L
L0L
(lp3267
(lp3268
tp3269
a(L106L
L0L
(lp3270
(lp3271
tp3272
a(L2214057038L
L0L
(lp3273
(lp3274
tp3275
a(L3464541874L
L0L
(lp3276
(lp3277
tp3278
a(L770010511L
L0L
(lp3279
(lp3280
tp3281
a(L982032168L
L0L
(lp3282
(lp3283
tp3284
a(L106L
L0L
(lp3285
(lp3286
tp3287
a(L26615924L
L0L
(lp3288
(lp3289
tp3290
a(L1899970003L
L0L
(lp3291
(lp3292
tp3293
a(L1900089167L
L0L
(lp3294
(lp3295
tp3296
a(L3064492592L
L0L
(lp3297
(lp3298
tp3299
a(L1235012901L
L0L
(lp3300
(lp3301
tp3302
a(L1235012870L
L0L
(lp3303
(lp3304
tp3305
a(L3236721433L
L0L
(lp3306
(lp3307
tp3308
a(L106L
L0L
(lp3309
(lp3310
tp3311
a(L898227407L
L0L
(lp3312
(lp3313
tp3314
atp3315
sI1074268116
(Vwdt_reset_info_dump
p3316
(lp3317
(L4037466985L
L0L
(lp3318
(lp3319
tp3320
a(L550942819L
L0L
(lp3321
(lp3322
tp3323
a(L968534162L
L0L
(lp3324
(lp3325
tp3326
a(L1103285333L
L0L
(lp3327
(lp3328
tp3329
a(L736056281L
L3785322319L
(lp3330
(lp3331
Vesp_log_early_timestamp
p3332
atp3333
a(L1020249293L
L0L
(lp3334
(lp3335
tp3336
a(L4142804371L
L3785322319L
(lp3337
(lp3338
Vesp_log_early_timestamp
p3339
atp3340
a(L1732307146L
L0L
(lp3341
(lp3342
tp3343
atp3344
sI1074246104
(Vrtc_clk_slow_freq_set
p3345
(lp3346
(L3668836563L
L0L
(lp3347
(lp3348
tp3349
atp3350
sI1074235608
(Vbootloader_read_flash_id
p3351
(lp3352
(L3925322170L
L3785322319L
(lp3353
(lp3354
Vbootloader_execute_flash_command
p3355
atp3356
atp3357
sI1074236632
(Vesp_log_early_timestamp
p3358
(lp3359
(L2548139288L
L0L
(lp3360
(lp3361
tp3362
atp3363
sI1074247396
(Vrtc_clk_apb_freq_get
p3364
(lp3365
(L937747314L
L0L
(lp3366
(lp3367
tp3368
atp3369
sI1074267884
(Vbootloader_check_bootloader_validity
p3370
(lp3371
(L569813265L
L1832448559L
(lp3372
(lp3373
Vbootloader_common_get_chip_revision
p3374
aVesp_log_early_timestamp
p3375
aVbootloader_common_check_chip_validity
p3376
atp3377
atp3378
sI1074269164
(Vbootloader_flash_update_id
p3379
(lp3380
(L2244026667L
L3785322319L
(lp3381
(lp3382
Vbootloader_read_flash_id
p3383
atp3384
atp3385
sI1074236896
(Vbootloader_common_vddsdio_configure
p3386
(lp3387
(L1922017289L
L3785322319L
(lp3388
(lp3389
Vrtc_vddsdio_get_config
p3390
atp3391
a(L4026582699L
L3785322319L
(lp3392
(lp3393
Vrtc_vddsdio_set_config
p3394
atp3395
a(L3360570486L
L0L
(lp3396
(lp3397
tp3398
atp3399
sI1074236396
(Vbootloader_flash_dummy_config
p3400
(lp3401
(L4282405359L
L0L
(lp3402
(lp3403
tp3404
a(L2761717557L
L0L
(lp3405
(lp3406
tp3407
a(L2958201959L
L0L
(lp3408
(lp3409
tp3410
a(L1072692545L
L0L
(lp3411
(lp3412
tp3413
a(L1491210540L
L0L
(lp3414
(lp3415
tp3416
a(L3081491917L
L0L
(lp3417
(lp3418
tp3419
a(L1610443405L
L0L
(lp3420
(lp3421
tp3422
a(L1126825741L
L0L
(lp3423
(lp3424
tp3425
a(L1449490182L
L0L
(lp3426
(lp3427
tp3428
a(L1298875775L
L0L
(lp3429
(lp3430
tp3431
a(L3880393601L
L0L
(lp3432
(lp3433
tp3434
a(L447253202L
L0L
(lp3435
(lp3436
tp3437
a(L1610443436L
L0L
(lp3438
(lp3439
tp3440
atp3441
sI1074245868
(Vrtc_clk_32k_enable
p3442
(lp3443
(L753387299L
L0L
(lp3444
(lp3445
tp3446
a(L1067050752L
L3785322319L
(lp3447
(lp3448
Vrtc_clk_32k_enable_common
p3449
atp3450
a(L3360570486L
L0L
(lp3451
(lp3452
tp3453
a(L2867343393L
L0L
(lp3454
(lp3455
tp3456
atp3457
sI1074269180
(Vrtc_clk_xtal_freq_estimate
p3458
(lp3459
(L2516060585L
L1880226080L
(lp3460
(lp3461
Vrtc_clk_8m_enabled
p3462
aVrtc_clk_8md256_enabled
p3463
atp3464
a(L967485502L
L3785322319L
(lp3465
(lp3466
Vrtc_clk_8m_enable
p3467
atp3468
a(L209634308L
L3785322319L
(lp3469
(lp3470
Vrtc_clk_cal_ratio
p3471
atp3472
a(L550356836L
L0L
(lp3473
(lp3474
tp3475
a(L3360570486L
L0L
(lp3476
(lp3477
tp3478
a(L2028540266L
L3785322319L
(lp3479
(lp3480
Vesp_log_early_timestamp
p3481
atp3482
atp3483
sI1074237424
(Vbootloader_flash_read
p3484
(lp3485
(L2699333355L
L0L
(lp3486
(lp3487
tp3488
a(L2625568413L
L3785322319L
(lp3489
(lp3490
Vesp_log_early_timestamp
p3491
atp3492
a(L44113432L
L0L
(lp3493
(lp3494
tp3495
a(L1299867982L
L0L
(lp3496
(lp3497
tp3498
a(L3360570486L
L0L
(lp3499
(lp3500
tp3501
a(L2660352519L
L0L
(lp3502
(lp3503
tp3504
a(L3132107371L
L3785322319L
(lp3505
(lp3506
Vesp_log_early_timestamp
p3507
atp3508
a(L162336582L
L0L
(lp3509
(lp3510
tp3511
a(L1181807240L
L3785322319L
(lp3512
(lp3513
Vesp_log_early_timestamp
p3514
atp3515
a(L3020204L
L0L
(lp3516
(lp3517
tp3518
a(L1398573769L
L0L
(lp3519
(lp3520
tp3521
a(L97422L
L0L
(lp3522
(lp3523
tp3524
a(L1704596590L
L0L
(lp3525
(lp3526
tp3527
a(L913644745L
L0L
(lp3528
(lp3529
tp3530
a(L723884168L
L3785322319L
(lp3531
(lp3532
Vesp_log_early_timestamp
p3533
atp3534
a(L1650914642L
L0L
(lp3535
(lp3536
tp3537
a(L2996450323L
L0L
(lp3538
(lp3539
tp3540
a(L2106006491L
L3785322319L
(lp3541
(lp3542
Vesp_rom_spiflash_read
p3543
atp3544
a(L106L
L0L
(lp3545
(lp3546
tp3547
a(L1825798723L
L0L
(lp3548
(lp3549
tp3550
atp3551
sI1074245116
(Vrtc_wdt_set_time
p3552
(lp3553
(L947342461L
L0L
(lp3554
(lp3555
tp3556
a(L1213977106L
L3785322319L
(lp3557
(lp3558
Vrtc_clk_slow_freq_get_hz
p3559
atp3560
a(L2822193585L
L0L
(lp3561
(lp3562
tp3563
a(L1182990556L
L0L
(lp3564
(lp3565
tp3566
a(L3126521138L
L0L
(lp3567
(lp3568
tp3569
a(L3028464L
L0L
(lp3570
(lp3571
tp3572
a(L702741452L
L0L
(lp3573
(lp3574
tp3575
a(L3366404026L
L0L
(lp3576
(lp3577
tp3578
a(L3028464L
L0L
(lp3579
(lp3580
tp3581
a(L310148018L
L0L
(lp3582
(lp3583
tp3584
a(L310148142L
L0L
(lp3585
(lp3586
tp3587
atp3588
sI1074236664
(Vbootloader_clock_configure
p3589
(lp3590
(L2733072680L
L0L
(lp3591
(lp3592
tp3593
a(L2878253354L
L0L
(lp3594
(lp3595
tp3596
a(L3469235381L
L0L
(lp3597
(lp3598
tp3599
a(L3913912455L
L0L
(lp3600
(lp3601
tp3602
a(L3071401876L
L1832448559L
(lp3603
(lp3604
Vrtc_clk_slow_freq_get
p3605
aVrtc_clk_fast_freq_get
p3606
aVrtc_clk_init
p3607
atp3608
atp3609
ssS'functionsdups'
p3610
g11
((lp3611
tp3612
Rp3613
sS'immediatedups'
p3614
g11
((lp3615
tp3616
Rp3617
sS'functiondups'
p3618
g11
((lp3619
tp3620
Rp3621
sS'fuzzy'
p3622
(dp3623
L1536L
I1074240220
sL3121027072L
I1074269812
sL2281427319L
I1074245116
sL3538491111L
I1074247000
sL2919016435L
I1074235264
sL1645617665L
I1074269344
sL1540367692L
I1074269180
sL2680783959L
I1074235652
sL3512578114L
I1074239496
sL975599493L
I1074239360
sL139070185L
I1074240616
sL2469233929L
I1074240780
sL1792232694L
I1074245588
sL4165097831L
I1074245320
sL2475522855L
I1074267884
sL2597552504L
I1074268380
sL3209093865L
I1074243232
sL3897252859L
I1074239276
sL1065525808L
I1074236560
sL2183816734L
I1074267732
sL1035771659L
I1074237424
sL770162527L
I1074238900
sL449860969L
I1074246712
sL2935879234L
I1074235556
sL31786791L
I1074236664
sL3210669721L
I1074245868
sL1332800441L
I1074236856
sL2884218272L
I1074268116
sL2689419264L
I1074246288
sL4202185385L
I1074243616
sL4160102055L
I1074268084
sL2453272040L
I1074270044
sL4171975289L
I1074243912
sL1565254297L
I1074244216
sL1513350244L
I1074239916
sL2474570535L
I1074237916
sL3428965560L
I1074247116
sL502463145L
I1074234732
sL3948954811L
I1074239544
sL812946199L
I1074237200
sL2276014668L
I1074267932
sL737694352L
I1074243724
sL503029138L
I1074243664
sL277788135L
I1074244304
sL4253866342L
I1074240264
sL2262558768L
I1074243524
sL424867129L
I1074244044
sL1554975810L
I1074237736
sL3834155367L
I1074240968
sL2196236180L
I1074236948
sL3883282432L
I1074241380
sL1659748500L
I1074241024
sL4191211306L
I1074246800
sL247666238L
I1074241500
ssb.